ARM GAS  /tmp/cc0xND6m.s 			page 1


   1              		.syntax unified
   2              		.cpu cortex-m4
   3              		.eabi_attribute 27, 1
   4              		.eabi_attribute 28, 1
   5              		.fpu fpv4-sp-d16
   6              		.eabi_attribute 20, 1
   7              		.eabi_attribute 21, 1
   8              		.eabi_attribute 23, 3
   9              		.eabi_attribute 24, 1
  10              		.eabi_attribute 25, 1
  11              		.eabi_attribute 26, 1
  12              		.eabi_attribute 30, 2
  13              		.eabi_attribute 34, 1
  14              		.eabi_attribute 18, 4
  15              		.thumb
  16              		.file	"adconv.c"
  17              		.text
  18              	.Ltext0:
  19              		.cfi_sections	.debug_frame
  20              		.section	.text.adconv_init,"ax",%progbits
  21              		.align	2
  22              		.p2align 4,,15
  23              		.global	adconv_init
  24              		.thumb
  25              		.thumb_func
  26              		.type	adconv_init, %function
  27              	adconv_init:
  28              	.LFB256:
  29              		.file 1 "adconv.c"
  30              		.loc 1 68 0
  31              		.cfi_startproc
  32              		@ args = 0, pretend = 0, frame = 0
  33              		@ frame_needed = 0, uses_anonymous_args = 0
  34 0000 70B5     		push	{r4, r5, r6, lr}
  35              		.cfi_def_cfa_offset 16
  36              		.cfi_offset 4, -16
  37              		.cfi_offset 5, -12
  38              		.cfi_offset 6, -8
  39              		.cfi_offset 14, -4
  40              		.loc 1 70 0
  41 0002 144C     		ldr	r4, .L3
  42              		.loc 1 69 0
  43 0004 1448     		ldr	r0, .L3+4
  44              		.loc 1 75 0
  45 0006 154D     		ldr	r5, .L3+8
  46              		.loc 1 69 0
  47 0008 1021     		movs	r1, #16
  48 000a 0322     		movs	r2, #3
  49 000c FFF7FEFF 		bl	_pal_lld_setgroupmode
  50              	.LVL0:
  51              		.loc 1 70 0
  52 0010 2046     		mov	r0, r4
  53 0012 0121     		movs	r1, #1
  54 0014 0322     		movs	r2, #3
  55 0016 FFF7FEFF 		bl	_pal_lld_setgroupmode
  56              	.LVL1:
  57              		.loc 1 71 0
ARM GAS  /tmp/cc0xND6m.s 			page 2


  58 001a 2046     		mov	r0, r4
  59 001c 0221     		movs	r1, #2
  60 001e 0322     		movs	r2, #3
  61 0020 FFF7FEFF 		bl	_pal_lld_setgroupmode
  62              	.LVL2:
  63              		.loc 1 72 0
  64 0024 2046     		mov	r0, r4
  65 0026 0421     		movs	r1, #4
  66 0028 0322     		movs	r2, #3
  67 002a FFF7FEFF 		bl	_pal_lld_setgroupmode
  68              	.LVL3:
  69              		.loc 1 73 0
  70 002e 0322     		movs	r2, #3
  71 0030 2046     		mov	r0, r4
  72 0032 0821     		movs	r1, #8
  73 0034 FFF7FEFF 		bl	_pal_lld_setgroupmode
  74              	.LVL4:
  75              		.loc 1 75 0
  76 0038 2846     		mov	r0, r5
  77 003a 0021     		movs	r1, #0
  78 003c FFF7FEFF 		bl	adcStart
  79              	.LVL5:
  80              		.loc 1 76 0
  81 0040 FFF7FEFF 		bl	adcSTM32EnableTSVREFE
  82              	.LVL6:
  83              		.loc 1 78 0
  84 0044 2846     		mov	r0, r5
  85 0046 0649     		ldr	r1, .L3+12
  86 0048 064A     		ldr	r2, .L3+16
  87 004a 0123     		movs	r3, #1
  88              		.loc 1 79 0
  89 004c BDE87040 		pop	{r4, r5, r6, lr}
  90              		.cfi_restore 14
  91              		.cfi_restore 6
  92              		.cfi_restore 5
  93              		.cfi_restore 4
  94              		.cfi_def_cfa_offset 0
  95              		.loc 1 78 0
  96 0050 FFF7FEBF 		b	adcStartConversion
  97              	.LVL7:
  98              	.L4:
  99              		.align	2
 100              	.L3:
 101 0054 00080240 		.word	1073874944
 102 0058 00000240 		.word	1073872896
 103 005c 00000000 		.word	ADCD1
 104 0060 00000000 		.word	.LANCHOR0
 105 0064 00000000 		.word	.LANCHOR1
 106              		.cfi_endproc
 107              	.LFE256:
 108              		.size	adconv_init, .-adconv_init
 109              		.section	.text.adconv_get_adc_pin,"ax",%progbits
 110              		.align	2
 111              		.p2align 4,,15
 112              		.global	adconv_get_adc_pin
 113              		.thumb
 114              		.thumb_func
ARM GAS  /tmp/cc0xND6m.s 			page 3


 115              		.type	adconv_get_adc_pin, %function
 116              	adconv_get_adc_pin:
 117              	.LFB257:
 118              		.loc 1 84 0
 119              		.cfi_startproc
 120              		@ args = 0, pretend = 0, frame = 0
 121              		@ frame_needed = 0, uses_anonymous_args = 0
 122              		@ link register save eliminated.
 123              	.LVL8:
 124              		.loc 1 85 0
 125 0000 0328     		cmp	r0, #3
 126              		.loc 1 89 0
 127 0002 9DBF     		ittte	ls
 128 0004 0130     		addls	r0, r0, #1
 129              	.LVL9:
 130 0006 024B     		ldrls	r3, .L8
 131 0008 33F81000 		ldrhls	r0, [r3, r0, lsl #1]
 132              		.loc 1 86 0
 133 000c 0020     		movhi	r0, #0
 134              		.loc 1 90 0
 135 000e 7047     		bx	lr
 136              	.L9:
 137              		.align	2
 138              	.L8:
 139 0010 00000000 		.word	.LANCHOR1
 140              		.cfi_endproc
 141              	.LFE257:
 142              		.size	adconv_get_adc_pin, .-adconv_get_adc_pin
 143              		.section	.rodata.adcgrpcfg,"a",%progbits
 144              		.align	2
 145              		.set	.LANCHOR0,. + 0
 146              		.type	adcgrpcfg, %object
 147              		.size	adcgrpcfg, 40
 148              	adcgrpcfg:
 149 0000 01       		.byte	1
 150 0001 00       		.space	1
 151 0002 0800     		.short	8
 152 0004 00000000 		.word	0
 153 0008 00000000 		.word	0
 154 000c 00000000 		.word	0
 155 0010 00000040 		.word	1073741824
 156 0014 DB06D800 		.word	14157531
 157 0018 00300000 		.word	12288
 158 001c 00007000 		.word	7340032
 159 0020 11020000 		.word	529
 160 0024 442DD608 		.word	148254020
 161              		.section	.bss.samples,"aw",%nobits
 162              		.align	2
 163              		.set	.LANCHOR1,. + 0
 164              		.type	samples, %object
 165              		.size	samples, 16
 166              	samples:
 167 0000 00000000 		.space	16
 167      00000000 
 167      00000000 
 167      00000000 
 168              		.text
ARM GAS  /tmp/cc0xND6m.s 			page 4


 169              	.Letext0:
 170              		.file 2 "/usr/lib/gcc/arm-none-eabi/4.9.3/include/stddef.h"
 171              		.file 3 "/usr/arm-none-eabi/include/machine/_default_types.h"
 172              		.file 4 "/usr/arm-none-eabi/include/sys/_stdint.h"
 173              		.file 5 "ChibiOS_3.0.2/os/rt/ports/ARMCMx/compilers/GCC/chtypes.h"
 174              		.file 6 "ChibiOS_3.0.2/os/rt/include/chsystypes.h"
 175              		.file 7 "ChibiOS_3.0.2/os/rt/include/chschd.h"
 176              		.file 8 "ChibiOS_3.0.2/os/ext/CMSIS/ST/stm32f407xx.h"
 177              		.file 9 "ChibiOS_3.0.2/os/rt/ports/ARMCMx/chcore.h"
 178              		.file 10 "ChibiOS_3.0.2/os/rt/ports/ARMCMx/chcore_v7m.h"
 179              		.file 11 "ChibiOS_3.0.2/os/rt/include/chtm.h"
 180              		.file 12 "ChibiOS_3.0.2/os/rt/include/chsem.h"
 181              		.file 13 "ChibiOS_3.0.2/os/rt/include/chmtx.h"
 182              		.file 14 "ChibiOS_3.0.2/os/hal/ports/STM32/STM32F4xx/stm32_dma.h"
 183              		.file 15 "ChibiOS_3.0.2/os/hal/ports/STM32/LLD/GPIOv2/pal_lld.h"
 184              		.file 16 "ChibiOS_3.0.2/os/hal/include/adc.h"
 185              		.file 17 "ChibiOS_3.0.2/os/hal/ports/STM32/STM32F4xx/adc_lld.h"
 186              		.file 18 "ChibiOS_3.0.2/os/ext/CMSIS/include/core_cm4.h"