ARM GAS  /tmp/cc0xND6m.s 			page 1


   1              		.syntax unified
   2              		.cpu cortex-m4
   3              		.eabi_attribute 27, 1
   4              		.eabi_attribute 28, 1
   5              		.fpu fpv4-sp-d16
   6              		.eabi_attribute 20, 1
   7              		.eabi_attribute 21, 1
   8              		.eabi_attribute 23, 3
   9              		.eabi_attribute 24, 1
  10              		.eabi_attribute 25, 1
  11              		.eabi_attribute 26, 1
  12              		.eabi_attribute 30, 2
  13              		.eabi_attribute 34, 1
  14              		.eabi_attribute 18, 4
  15              		.thumb
  16              		.file	"adconv.c"
  17              		.text
  18              	.Ltext0:
  19              		.cfi_sections	.debug_frame
  20              		.section	.text.adconv_init,"ax",%progbits
  21              		.align	2
  22              		.p2align 4,,15
  23              		.global	adconv_init
  24              		.thumb
  25              		.thumb_func
  26              		.type	adconv_init, %function
  27              	adconv_init:
  28              	.LFB256:
  29              		.file 1 "adconv.c"
  30              		.loc 1 68 0
  31              		.cfi_startproc
  32              		@ args = 0, pretend = 0, frame = 0
  33              		@ frame_needed = 0, uses_anonymous_args = 0
  34 0000 70B5     		push	{r4, r5, r6, lr}
  35              		.cfi_def_cfa_offset 16
  36              		.cfi_offset 4, -16
  37              		.cfi_offset 5, -12
  38              		.cfi_offset 6, -8
  39              		.cfi_offset 14, -4
  40              		.loc 1 70 0
  41 0002 144C     		ldr	r4, .L3
  42              		.loc 1 69 0
  43 0004 1448     		ldr	r0, .L3+4
  44              		.loc 1 75 0
  45 0006 154D     		ldr	r5, .L3+8
  46              		.loc 1 69 0
  47 0008 1021     		movs	r1, #16
  48 000a 0322     		movs	r2, #3
  49 000c FFF7FEFF 		bl	_pal_lld_setgroupmode
  50              	.LVL0:
  51              		.loc 1 70 0
  52 0010 2046     		mov	r0, r4
  53 0012 0121     		movs	r1, #1
  54 0014 0322     		movs	r2, #3
  55 0016 FFF7FEFF 		bl	_pal_lld_setgroupmode
  56              	.LVL1:
  57              		.loc 1 71 0
ARM GAS  /tmp/cc0xND6m.s 			page 2


  58 001a 2046     		mov	r0, r4
  59 001c 0221     		movs	r1, #2
  60 001e 0322     		movs	r2, #3
  61 0020 FFF7FEFF 		bl	_pal_lld_setgroupmode
  62              	.LVL2:
  63              		.loc 1 72 0
  64 0024 2046     		mov	r0, r4
  65 0026 0421     		movs	r1, #4
  66 0028 0322     		movs	r2, #3
  67 002a FFF7FEFF 		bl	_pal_lld_setgroupmode
  68              	.LVL3:
  69              		.loc 1 73 0
  70 002e 0322     		movs	r2, #3
  71 0030 2046     		mov	r0, r4
  72 0032 0821     		movs	r1, #8
  73 0034 FFF7FEFF 		bl	_pal_lld_setgroupmode
  74              	.LVL4:
  75              		.loc 1 75 0
  76 0038 2846     		mov	r0, r5
  77 003a 0021     		movs	r1, #0
  78 003c FFF7FEFF 		bl	adcStart
  79              	.LVL5:
  80              		.loc 1 76 0
  81 0040 FFF7FEFF 		bl	adcSTM32EnableTSVREFE
  82              	.LVL6:
  83              		.loc 1 78 0
  84 0044 2846     		mov	r0, r5
  85 0046 0649     		ldr	r1, .L3+12
  86 0048 064A     		ldr	r2, .L3+16
  87 004a 0123     		movs	r3, #1
  88              		.loc 1 79 0
  89 004c BDE87040 		pop	{r4, r5, r6, lr}
  90              		.cfi_restore 14
  91              		.cfi_restore 6
  92              		.cfi_restore 5
  93              		.cfi_restore 4
  94              		.cfi_def_cfa_offset 0
  95              		.loc 1 78 0
  96 0050 FFF7FEBF 		b	adcStartConversion
  97              	.LVL7:
  98              	.L4:
  99              		.align	2
 100              	.L3:
 101 0054 00080240 		.word	1073874944
 102 0058 00000240 		.word	1073872896
 103 005c 00000000 		.word	ADCD1
 104 0060 00000000 		.word	.LANCHOR0
 105 0064 00000000 		.word	.LANCHOR1
 106              		.cfi_endproc
 107              	.LFE256:
 108              		.size	adconv_init, .-adconv_init
 109              		.section	.text.adconv_get_adc_pin,"ax",%progbits
 110              		.align	2
 111              		.p2align 4,,15
 112              		.global	adconv_get_adc_pin
 113              		.thumb
 114              		.thumb_func
ARM GAS  /tmp/cc0xND6m.s 			page 3


 115              		.type	adconv_get_adc_pin, %function
 116              	adconv_get_adc_pin:
 117              	.LFB257:
 118              		.loc 1 84 0
 119              		.cfi_startproc
 120              		@ args = 0, pretend = 0, frame = 0
 121              		@ frame_needed = 0, uses_anonymous_args = 0
 122              		@ link register save eliminated.
 123              	.LVL8:
 124              		.loc 1 85 0
 125 0000 0328     		cmp	r0, #3
 126              		.loc 1 89 0
 127 0002 9DBF     		ittte	ls
 128 0004 0130     		addls	r0, r0, #1
 129              	.LVL9:
 130 0006 024B     		ldrls	r3, .L8
 131 0008 33F81000 		ldrhls	r0, [r3, r0, lsl #1]
 132              		.loc 1 86 0
 133 000c 0020     		movhi	r0, #0
 134              		.loc 1 90 0
 135 000e 7047     		bx	lr
 136              	.L9:
 137              		.align	2
 138              	.L8:
 139 0010 00000000 		.word	.LANCHOR1
 140              		.cfi_endproc
 141              	.LFE257:
 142              		.size	adconv_get_adc_pin, .-adconv_get_adc_pin
 143              		.section	.rodata.adcgrpcfg,"a",%progbits
 144              		.align	2
 145              		.set	.LANCHOR0,. + 0
 146              		.type	adcgrpcfg, %object
 147              		.size	adcgrpcfg, 40
 148              	adcgrpcfg:
 149 0000 01       		.byte	1
 150 0001 00       		.space	1
 151 0002 0800     		.short	8
 152 0004 00000000 		.word	0
 153 0008 00000000 		.word	0
 154 000c 00000000 		.word	0
 155 0010 00000040 		.word	1073741824
 156 0014 DB06D800 		.word	14157531
 157 0018 00300000 		.word	12288
 158 001c 00007000 		.word	7340032
 159 0020 11020000 		.word	529
 160 0024 442DD608 		.word	148254020
 161              		.section	.bss.samples,"aw",%nobits
 162              		.align	2
 163              		.set	.LANCHOR1,. + 0
 164              		.type	samples, %object
 165              		.size	samples, 16
 166              	samples:
 167 0000 00000000 		.space	16
 167      00000000 
 167      00000000 
 167      00000000 
 168              		.text
ARM GAS  /tmp/cc0xND6m.s 			page 4


 169              	.Letext0:
 170              		.file 2 "/usr/lib/gcc/arm-none-eabi/4.9.3/include/stddef.h"
 171              		.file 3 "/usr/arm-none-eabi/include/machine/_default_types.h"
 172              		.file 4 "/usr/arm-none-eabi/include/sys/_stdint.h"
 173              		.file 5 "ChibiOS_3.0.2/os/rt/ports/ARMCMx/compilers/GCC/chtypes.h"
 174              		.file 6 "ChibiOS_3.0.2/os/rt/include/chsystypes.h"
 175              		.file 7 "ChibiOS_3.0.2/os/rt/include/chschd.h"
 176              		.file 8 "ChibiOS_3.0.2/os/ext/CMSIS/ST/stm32f407xx.h"
 177              		.file 9 "ChibiOS_3.0.2/os/rt/ports/ARMCMx/chcore.h"
 178              		.file 10 "ChibiOS_3.0.2/os/rt/ports/ARMCMx/chcore_v7m.h"
 179              		.file 11 "ChibiOS_3.0.2/os/rt/include/chtm.h"
 180              		.file 12 "ChibiOS_3.0.2/os/rt/include/chsem.h"
 181              		.file 13 "ChibiOS_3.0.2/os/rt/include/chmtx.h"
 182              		.file 14 "ChibiOS_3.0.2/os/hal/ports/STM32/STM32F4xx/stm32_dma.h"
 183              		.file 15 "ChibiOS_3.0.2/os/hal/ports/STM32/LLD/GPIOv2/pal_lld.h"
 184              		.file 16 "ChibiOS_3.0.2/os/hal/include/adc.h"
 185              		.file 17 "ChibiOS_3.0.2/os/hal/ports/STM32/STM32F4xx/adc_lld.h"
 186              		.file 18 "ChibiOS_3.0.2/os/ext/CMSIS/include/core_cm4.h"
 187              		.section	.debug_info,"",%progbits
 188              	.Ldebug_info0:
 189 0000 0F0E0000 		.4byte	0xe0f
 190 0004 0400     		.2byte	0x4
 191 0006 00000000 		.4byte	.Ldebug_abbrev0
 192 000a 04       		.byte	0x4
 193 000b 01       		.uleb128 0x1
 194 000c C2050000 		.4byte	.LASF187
 195 0010 01       		.byte	0x1
 196 0011 9B020000 		.4byte	.LASF188
 197 0015 18010000 		.4byte	.LASF189
 198 0019 00000000 		.4byte	.Ldebug_ranges0+0
 199 001d 00000000 		.4byte	0
 200 0021 00000000 		.4byte	.Ldebug_line0
 201 0025 02       		.uleb128 0x2
 202 0026 04       		.byte	0x4
 203 0027 05       		.byte	0x5
 204 0028 696E7400 		.ascii	"int\000"
 205 002c 03       		.uleb128 0x3
 206 002d 12000000 		.4byte	.LASF2
 207 0031 02       		.byte	0x2
 208 0032 D4       		.byte	0xd4
 209 0033 37000000 		.4byte	0x37
 210 0037 04       		.uleb128 0x4
 211 0038 04       		.byte	0x4
 212 0039 07       		.byte	0x7
 213 003a 6F020000 		.4byte	.LASF0
 214 003e 04       		.uleb128 0x4
 215 003f 01       		.byte	0x1
 216 0040 06       		.byte	0x6
 217 0041 07010000 		.4byte	.LASF1
 218 0045 03       		.uleb128 0x3
 219 0046 32000000 		.4byte	.LASF3
 220 004a 03       		.byte	0x3
 221 004b 1D       		.byte	0x1d
 222 004c 50000000 		.4byte	0x50
 223 0050 04       		.uleb128 0x4
 224 0051 01       		.byte	0x1
 225 0052 08       		.byte	0x8
ARM GAS  /tmp/cc0xND6m.s 			page 5


 226 0053 D4040000 		.4byte	.LASF4
 227 0057 04       		.uleb128 0x4
 228 0058 02       		.byte	0x2
 229 0059 05       		.byte	0x5
 230 005a EC040000 		.4byte	.LASF5
 231 005e 03       		.uleb128 0x3
 232 005f B7050000 		.4byte	.LASF6
 233 0063 03       		.byte	0x3
 234 0064 2B       		.byte	0x2b
 235 0065 69000000 		.4byte	0x69
 236 0069 04       		.uleb128 0x4
 237 006a 02       		.byte	0x2
 238 006b 07       		.byte	0x7
 239 006c CB020000 		.4byte	.LASF7
 240 0070 03       		.uleb128 0x3
 241 0071 43030000 		.4byte	.LASF8
 242 0075 03       		.byte	0x3
 243 0076 3F       		.byte	0x3f
 244 0077 7B000000 		.4byte	0x7b
 245 007b 04       		.uleb128 0x4
 246 007c 04       		.byte	0x4
 247 007d 05       		.byte	0x5
 248 007e 8D010000 		.4byte	.LASF9
 249 0082 03       		.uleb128 0x3
 250 0083 13070000 		.4byte	.LASF10
 251 0087 03       		.byte	0x3
 252 0088 41       		.byte	0x41
 253 0089 8D000000 		.4byte	0x8d
 254 008d 04       		.uleb128 0x4
 255 008e 04       		.byte	0x4
 256 008f 07       		.byte	0x7
 257 0090 99050000 		.4byte	.LASF11
 258 0094 04       		.uleb128 0x4
 259 0095 08       		.byte	0x8
 260 0096 05       		.byte	0x5
 261 0097 F9000000 		.4byte	.LASF12
 262 009b 03       		.uleb128 0x3
 263 009c 5C040000 		.4byte	.LASF13
 264 00a0 03       		.byte	0x3
 265 00a1 5B       		.byte	0x5b
 266 00a2 A6000000 		.4byte	0xa6
 267 00a6 04       		.uleb128 0x4
 268 00a7 08       		.byte	0x8
 269 00a8 07       		.byte	0x7
 270 00a9 81000000 		.4byte	.LASF14
 271 00ad 03       		.uleb128 0x3
 272 00ae F9070000 		.4byte	.LASF15
 273 00b2 04       		.byte	0x4
 274 00b3 14       		.byte	0x14
 275 00b4 45000000 		.4byte	0x45
 276 00b8 03       		.uleb128 0x3
 277 00b9 84020000 		.4byte	.LASF16
 278 00bd 04       		.byte	0x4
 279 00be 1A       		.byte	0x1a
 280 00bf 5E000000 		.4byte	0x5e
 281 00c3 03       		.uleb128 0x3
 282 00c4 CC040000 		.4byte	.LASF17
ARM GAS  /tmp/cc0xND6m.s 			page 6


 283 00c8 04       		.byte	0x4
 284 00c9 1F       		.byte	0x1f
 285 00ca 70000000 		.4byte	0x70
 286 00ce 03       		.uleb128 0x3
 287 00cf 67050000 		.4byte	.LASF18
 288 00d3 04       		.byte	0x4
 289 00d4 20       		.byte	0x20
 290 00d5 82000000 		.4byte	0x82
 291 00d9 03       		.uleb128 0x3
 292 00da F9030000 		.4byte	.LASF19
 293 00de 04       		.byte	0x4
 294 00df 26       		.byte	0x26
 295 00e0 9B000000 		.4byte	0x9b
 296 00e4 05       		.uleb128 0x5
 297 00e5 C3000000 		.4byte	0xc3
 298 00e9 05       		.uleb128 0x5
 299 00ea CE000000 		.4byte	0xce
 300 00ee 03       		.uleb128 0x3
 301 00ef 9B070000 		.4byte	.LASF20
 302 00f3 05       		.byte	0x5
 303 00f4 45       		.byte	0x45
 304 00f5 CE000000 		.4byte	0xce
 305 00f9 03       		.uleb128 0x3
 306 00fa 14030000 		.4byte	.LASF21
 307 00fe 05       		.byte	0x5
 308 00ff 48       		.byte	0x48
 309 0100 AD000000 		.4byte	0xad
 310 0104 03       		.uleb128 0x3
 311 0105 BC010000 		.4byte	.LASF22
 312 0109 05       		.byte	0x5
 313 010a 49       		.byte	0x49
 314 010b AD000000 		.4byte	0xad
 315 010f 03       		.uleb128 0x3
 316 0110 76040000 		.4byte	.LASF23
 317 0114 05       		.byte	0x5
 318 0115 4A       		.byte	0x4a
 319 0116 AD000000 		.4byte	0xad
 320 011a 03       		.uleb128 0x3
 321 011b 8F050000 		.4byte	.LASF24
 322 011f 05       		.byte	0x5
 323 0120 4B       		.byte	0x4b
 324 0121 AD000000 		.4byte	0xad
 325 0125 03       		.uleb128 0x3
 326 0126 A8040000 		.4byte	.LASF25
 327 012a 05       		.byte	0x5
 328 012b 4C       		.byte	0x4c
 329 012c CE000000 		.4byte	0xce
 330 0130 03       		.uleb128 0x3
 331 0131 F8020000 		.4byte	.LASF26
 332 0135 05       		.byte	0x5
 333 0136 4D       		.byte	0x4d
 334 0137 C3000000 		.4byte	0xc3
 335 013b 03       		.uleb128 0x3
 336 013c 37030000 		.4byte	.LASF27
 337 0140 05       		.byte	0x5
 338 0141 4F       		.byte	0x4f
 339 0142 CE000000 		.4byte	0xce
ARM GAS  /tmp/cc0xND6m.s 			page 7


 340 0146 03       		.uleb128 0x3
 341 0147 69020000 		.4byte	.LASF28
 342 014b 05       		.byte	0x5
 343 014c 51       		.byte	0x51
 344 014d C3000000 		.4byte	0xc3
 345 0151 03       		.uleb128 0x3
 346 0152 F5060000 		.4byte	.LASF29
 347 0156 06       		.byte	0x6
 348 0157 33       		.byte	0x33
 349 0158 CE000000 		.4byte	0xce
 350 015c 03       		.uleb128 0x3
 351 015d 92080000 		.4byte	.LASF30
 352 0161 06       		.byte	0x6
 353 0162 3F       		.byte	0x3f
 354 0163 67010000 		.4byte	0x167
 355 0167 06       		.uleb128 0x6
 356 0168 DE020000 		.4byte	.LASF52
 357 016c 48       		.byte	0x48
 358 016d 07       		.byte	0x7
 359 016e C2       		.byte	0xc2
 360 016f 6C020000 		.4byte	0x26c
 361 0173 07       		.uleb128 0x7
 362 0174 25050000 		.4byte	.LASF31
 363 0178 07       		.byte	0x7
 364 0179 C3       		.byte	0xc3
 365 017a 77020000 		.4byte	0x277
 366 017e 00       		.byte	0
 367 017f 07       		.uleb128 0x7
 368 0180 8E040000 		.4byte	.LASF32
 369 0184 07       		.byte	0x7
 370 0185 C5       		.byte	0xc5
 371 0186 77020000 		.4byte	0x277
 372 018a 04       		.byte	0x4
 373 018b 07       		.uleb128 0x7
 374 018c E5000000 		.4byte	.LASF33
 375 0190 07       		.byte	0x7
 376 0191 C7       		.byte	0xc7
 377 0192 25010000 		.4byte	0x125
 378 0196 08       		.byte	0x8
 379 0197 07       		.uleb128 0x7
 380 0198 9B080000 		.4byte	.LASF34
 381 019c 07       		.byte	0x7
 382 019d C8       		.byte	0xc8
 383 019e 0C060000 		.4byte	0x60c
 384 01a2 0C       		.byte	0xc
 385 01a3 07       		.uleb128 0x7
 386 01a4 C5010000 		.4byte	.LASF35
 387 01a8 07       		.byte	0x7
 388 01a9 CA       		.byte	0xca
 389 01aa 77020000 		.4byte	0x277
 390 01ae 10       		.byte	0x10
 391 01af 07       		.uleb128 0x7
 392 01b0 02040000 		.4byte	.LASF36
 393 01b4 07       		.byte	0x7
 394 01b5 CB       		.byte	0xcb
 395 01b6 77020000 		.4byte	0x277
 396 01ba 14       		.byte	0x14
ARM GAS  /tmp/cc0xND6m.s 			page 8


 397 01bb 07       		.uleb128 0x7
 398 01bc 45080000 		.4byte	.LASF37
 399 01c0 07       		.byte	0x7
 400 01c1 D2       		.byte	0xd2
 401 01c2 51080000 		.4byte	0x851
 402 01c6 18       		.byte	0x18
 403 01c7 07       		.uleb128 0x7
 404 01c8 F6040000 		.4byte	.LASF38
 405 01cc 07       		.byte	0x7
 406 01cd DD       		.byte	0xdd
 407 01ce 04010000 		.4byte	0x104
 408 01d2 1C       		.byte	0x1c
 409 01d3 07       		.uleb128 0x7
 410 01d4 2C050000 		.4byte	.LASF39
 411 01d8 07       		.byte	0x7
 412 01d9 E1       		.byte	0xe1
 413 01da F9000000 		.4byte	0xf9
 414 01de 1D       		.byte	0x1d
 415 01df 07       		.uleb128 0x7
 416 01e0 D1070000 		.4byte	.LASF40
 417 01e4 07       		.byte	0x7
 418 01e5 E6       		.byte	0xe6
 419 01e6 0F010000 		.4byte	0x10f
 420 01ea 1E       		.byte	0x1e
 421 01eb 07       		.uleb128 0x7
 422 01ec FE040000 		.4byte	.LASF41
 423 01f0 07       		.byte	0x7
 424 01f1 EC       		.byte	0xec
 425 01f2 1A010000 		.4byte	0x11a
 426 01f6 1F       		.byte	0x1f
 427 01f7 07       		.uleb128 0x7
 428 01f8 8D020000 		.4byte	.LASF42
 429 01fc 07       		.byte	0x7
 430 01fd F3       		.byte	0xf3
 431 01fe 63080000 		.4byte	0x863
 432 0202 20       		.byte	0x20
 433 0203 08       		.uleb128 0x8
 434 0204 705F7500 		.ascii	"p_u\000"
 435 0208 07       		.byte	0x7
 436 0209 3101     		.2byte	0x131
 437 020b 8C070000 		.4byte	0x78c
 438 020f 24       		.byte	0x24
 439 0210 09       		.uleb128 0x9
 440 0211 86030000 		.4byte	.LASF43
 441 0215 07       		.byte	0x7
 442 0216 3601     		.2byte	0x136
 443 0218 7D020000 		.4byte	0x27d
 444 021c 28       		.byte	0x28
 445 021d 09       		.uleb128 0x9
 446 021e A4020000 		.4byte	.LASF44
 447 0222 07       		.byte	0x7
 448 0223 3C01     		.2byte	0x13c
 449 0225 A1020000 		.4byte	0x2a1
 450 0229 2C       		.byte	0x2c
 451 022a 09       		.uleb128 0x9
 452 022b 7B080000 		.4byte	.LASF45
 453 022f 07       		.byte	0x7
ARM GAS  /tmp/cc0xND6m.s 			page 9


 454 0230 4001     		.2byte	0x140
 455 0232 30010000 		.4byte	0x130
 456 0236 34       		.byte	0x34
 457 0237 09       		.uleb128 0x9
 458 0238 4C050000 		.4byte	.LASF46
 459 023c 07       		.byte	0x7
 460 023d 4601     		.2byte	0x146
 461 023f 3B010000 		.4byte	0x13b
 462 0243 38       		.byte	0x38
 463 0244 09       		.uleb128 0x9
 464 0245 E2040000 		.4byte	.LASF47
 465 0249 07       		.byte	0x7
 466 024a 4D01     		.2byte	0x14d
 467 024c 4B080000 		.4byte	0x84b
 468 0250 3C       		.byte	0x3c
 469 0251 09       		.uleb128 0x9
 470 0252 FF060000 		.4byte	.LASF48
 471 0256 07       		.byte	0x7
 472 0257 5101     		.2byte	0x151
 473 0259 25010000 		.4byte	0x125
 474 025d 40       		.byte	0x40
 475 025e 09       		.uleb128 0x9
 476 025f 52010000 		.4byte	.LASF49
 477 0263 07       		.byte	0x7
 478 0264 5801     		.2byte	0x158
 479 0266 54030000 		.4byte	0x354
 480 026a 44       		.byte	0x44
 481 026b 00       		.byte	0
 482 026c 03       		.uleb128 0x3
 483 026d 99030000 		.4byte	.LASF50
 484 0271 06       		.byte	0x6
 485 0272 44       		.byte	0x44
 486 0273 77020000 		.4byte	0x277
 487 0277 0A       		.uleb128 0xa
 488 0278 04       		.byte	0x4
 489 0279 5C010000 		.4byte	0x15c
 490 027d 03       		.uleb128 0x3
 491 027e 58030000 		.4byte	.LASF51
 492 0282 06       		.byte	0x6
 493 0283 49       		.byte	0x49
 494 0284 88020000 		.4byte	0x288
 495 0288 06       		.uleb128 0x6
 496 0289 7F050000 		.4byte	.LASF53
 497 028d 04       		.byte	0x4
 498 028e 07       		.byte	0x7
 499 028f B0       		.byte	0xb0
 500 0290 A1020000 		.4byte	0x2a1
 501 0294 07       		.uleb128 0x7
 502 0295 25050000 		.4byte	.LASF31
 503 0299 07       		.byte	0x7
 504 029a B1       		.byte	0xb1
 505 029b 77020000 		.4byte	0x277
 506 029f 00       		.byte	0
 507 02a0 00       		.byte	0
 508 02a1 03       		.uleb128 0x3
 509 02a2 B8070000 		.4byte	.LASF54
 510 02a6 06       		.byte	0x6
ARM GAS  /tmp/cc0xND6m.s 			page 10


 511 02a7 50       		.byte	0x50
 512 02a8 AC020000 		.4byte	0x2ac
 513 02ac 06       		.uleb128 0x6
 514 02ad D4000000 		.4byte	.LASF55
 515 02b1 08       		.byte	0x8
 516 02b2 07       		.byte	0x7
 517 02b3 B7       		.byte	0xb7
 518 02b4 D1020000 		.4byte	0x2d1
 519 02b8 07       		.uleb128 0x7
 520 02b9 25050000 		.4byte	.LASF31
 521 02bd 07       		.byte	0x7
 522 02be B8       		.byte	0xb8
 523 02bf 77020000 		.4byte	0x277
 524 02c3 00       		.byte	0
 525 02c4 07       		.uleb128 0x7
 526 02c5 8E040000 		.4byte	.LASF32
 527 02c9 07       		.byte	0x7
 528 02ca B9       		.byte	0xb9
 529 02cb 77020000 		.4byte	0x277
 530 02cf 04       		.byte	0x4
 531 02d0 00       		.byte	0
 532 02d1 03       		.uleb128 0x3
 533 02d2 00000000 		.4byte	.LASF56
 534 02d6 06       		.byte	0x6
 535 02d7 57       		.byte	0x57
 536 02d8 DC020000 		.4byte	0x2dc
 537 02dc 0B       		.uleb128 0xb
 538 02dd 29030000 		.4byte	.LASF57
 539 02e1 1C       		.byte	0x1c
 540 02e2 07       		.byte	0x7
 541 02e3 9001     		.2byte	0x190
 542 02e5 38030000 		.4byte	0x338
 543 02e9 09       		.uleb128 0x9
 544 02ea 77050000 		.4byte	.LASF58
 545 02ee 07       		.byte	0x7
 546 02ef 9101     		.2byte	0x191
 547 02f1 A1020000 		.4byte	0x2a1
 548 02f5 00       		.byte	0
 549 02f6 09       		.uleb128 0x9
 550 02f7 17050000 		.4byte	.LASF59
 551 02fb 07       		.byte	0x7
 552 02fc 9201     		.2byte	0x192
 553 02fe 25010000 		.4byte	0x125
 554 0302 08       		.byte	0x8
 555 0303 09       		.uleb128 0x9
 556 0304 0F040000 		.4byte	.LASF60
 557 0308 07       		.byte	0x7
 558 0309 9401     		.2byte	0x194
 559 030b 0C060000 		.4byte	0x60c
 560 030f 0C       		.byte	0xc
 561 0310 09       		.uleb128 0x9
 562 0311 F6010000 		.4byte	.LASF61
 563 0315 07       		.byte	0x7
 564 0316 9701     		.2byte	0x197
 565 0318 77020000 		.4byte	0x277
 566 031c 10       		.byte	0x10
 567 031d 09       		.uleb128 0x9
ARM GAS  /tmp/cc0xND6m.s 			page 11


 568 031e 45040000 		.4byte	.LASF62
 569 0322 07       		.byte	0x7
 570 0323 9801     		.2byte	0x198
 571 0325 77020000 		.4byte	0x277
 572 0329 14       		.byte	0x14
 573 032a 09       		.uleb128 0x9
 574 032b 3B040000 		.4byte	.LASF63
 575 032f 07       		.byte	0x7
 576 0330 9B01     		.2byte	0x19b
 577 0332 77020000 		.4byte	0x277
 578 0336 18       		.byte	0x18
 579 0337 00       		.byte	0
 580 0338 03       		.uleb128 0x3
 581 0339 0A070000 		.4byte	.LASF64
 582 033d 06       		.byte	0x6
 583 033e 5C       		.byte	0x5c
 584 033f 43030000 		.4byte	0x343
 585 0343 0A       		.uleb128 0xa
 586 0344 04       		.byte	0x4
 587 0345 49030000 		.4byte	0x349
 588 0349 0C       		.uleb128 0xc
 589 034a 54030000 		.4byte	0x354
 590 034e 0D       		.uleb128 0xd
 591 034f 54030000 		.4byte	0x354
 592 0353 00       		.byte	0
 593 0354 0E       		.uleb128 0xe
 594 0355 04       		.byte	0x4
 595 0356 03       		.uleb128 0x3
 596 0357 7E040000 		.4byte	.LASF65
 597 035b 06       		.byte	0x6
 598 035c 61       		.byte	0x61
 599 035d 61030000 		.4byte	0x361
 600 0361 0B       		.uleb128 0xb
 601 0362 77070000 		.4byte	.LASF66
 602 0366 14       		.byte	0x14
 603 0367 07       		.byte	0x7
 604 0368 6B01     		.2byte	0x16b
 605 036a B0030000 		.4byte	0x3b0
 606 036e 09       		.uleb128 0x9
 607 036f 7C020000 		.4byte	.LASF67
 608 0373 07       		.byte	0x7
 609 0374 6C01     		.2byte	0x16c
 610 0376 68080000 		.4byte	0x868
 611 037a 00       		.byte	0
 612 037b 09       		.uleb128 0x9
 613 037c 11020000 		.4byte	.LASF68
 614 0380 07       		.byte	0x7
 615 0381 6D01     		.2byte	0x16d
 616 0383 68080000 		.4byte	0x868
 617 0387 04       		.byte	0x4
 618 0388 09       		.uleb128 0x9
 619 0389 72080000 		.4byte	.LASF69
 620 038d 07       		.byte	0x7
 621 038e 6E01     		.2byte	0x16e
 622 0390 51010000 		.4byte	0x151
 623 0394 08       		.byte	0x8
 624 0395 09       		.uleb128 0x9
ARM GAS  /tmp/cc0xND6m.s 			page 12


 625 0396 A1080000 		.4byte	.LASF70
 626 039a 07       		.byte	0x7
 627 039b 6F01     		.2byte	0x16f
 628 039d 38030000 		.4byte	0x338
 629 03a1 0C       		.byte	0xc
 630 03a2 09       		.uleb128 0x9
 631 03a3 A8070000 		.4byte	.LASF71
 632 03a7 07       		.byte	0x7
 633 03a8 7101     		.2byte	0x171
 634 03aa 54030000 		.4byte	0x354
 635 03ae 10       		.byte	0x10
 636 03af 00       		.byte	0
 637 03b0 03       		.uleb128 0x3
 638 03b1 B1000000 		.4byte	.LASF72
 639 03b5 06       		.byte	0x6
 640 03b6 66       		.byte	0x66
 641 03b7 BB030000 		.4byte	0x3bb
 642 03bb 0B       		.uleb128 0xb
 643 03bc AC030000 		.4byte	.LASF73
 644 03c0 10       		.byte	0x10
 645 03c1 07       		.byte	0x7
 646 03c2 7B01     		.2byte	0x17b
 647 03c4 FD030000 		.4byte	0x3fd
 648 03c8 09       		.uleb128 0x9
 649 03c9 7C020000 		.4byte	.LASF67
 650 03cd 07       		.byte	0x7
 651 03ce 7C01     		.2byte	0x17c
 652 03d0 68080000 		.4byte	0x868
 653 03d4 00       		.byte	0
 654 03d5 09       		.uleb128 0x9
 655 03d6 11020000 		.4byte	.LASF68
 656 03da 07       		.byte	0x7
 657 03db 7E01     		.2byte	0x17e
 658 03dd 68080000 		.4byte	0x868
 659 03e1 04       		.byte	0x4
 660 03e2 09       		.uleb128 0x9
 661 03e3 72080000 		.4byte	.LASF69
 662 03e7 07       		.byte	0x7
 663 03e8 8001     		.2byte	0x180
 664 03ea 51010000 		.4byte	0x151
 665 03ee 08       		.byte	0x8
 666 03ef 09       		.uleb128 0x9
 667 03f0 5F080000 		.4byte	.LASF74
 668 03f4 07       		.byte	0x7
 669 03f5 8201     		.2byte	0x182
 670 03f7 63080000 		.4byte	0x863
 671 03fb 0C       		.byte	0xc
 672 03fc 00       		.byte	0
 673 03fd 03       		.uleb128 0x3
 674 03fe 65000000 		.4byte	.LASF75
 675 0402 06       		.byte	0x6
 676 0403 6B       		.byte	0x6b
 677 0404 08040000 		.4byte	0x408
 678 0408 0B       		.uleb128 0xb
 679 0409 B6040000 		.4byte	.LASF76
 680 040d 04       		.byte	0x4
 681 040e 07       		.byte	0x7
ARM GAS  /tmp/cc0xND6m.s 			page 13


 682 040f A201     		.2byte	0x1a2
 683 0411 23040000 		.4byte	0x423
 684 0415 09       		.uleb128 0x9
 685 0416 2A070000 		.4byte	.LASF77
 686 041a 07       		.byte	0x7
 687 041b AA01     		.2byte	0x1aa
 688 041d 6E080000 		.4byte	0x86e
 689 0421 00       		.byte	0
 690 0422 00       		.byte	0
 691 0423 03       		.uleb128 0x3
 692 0424 08030000 		.4byte	.LASF78
 693 0428 06       		.byte	0x6
 694 0429 70       		.byte	0x70
 695 042a 2E040000 		.4byte	0x42e
 696 042e 0F       		.uleb128 0xf
 697 042f 5D050000 		.4byte	.LASF79
 698 0433 5802     		.2byte	0x258
 699 0435 07       		.byte	0x7
 700 0436 C201     		.2byte	0x1c2
 701 0438 8A040000 		.4byte	0x48a
 702 043c 09       		.uleb128 0x9
 703 043d F3070000 		.4byte	.LASF80
 704 0441 07       		.byte	0x7
 705 0442 C601     		.2byte	0x1c6
 706 0444 D1020000 		.4byte	0x2d1
 707 0448 00       		.byte	0
 708 0449 09       		.uleb128 0x9
 709 044a 19020000 		.4byte	.LASF81
 710 044e 07       		.byte	0x7
 711 044f CA01     		.2byte	0x1ca
 712 0451 B0030000 		.4byte	0x3b0
 713 0455 1C       		.byte	0x1c
 714 0456 08       		.uleb128 0x8
 715 0457 64626700 		.ascii	"dbg\000"
 716 045b 07       		.byte	0x7
 717 045c CE01     		.2byte	0x1ce
 718 045e FD030000 		.4byte	0x3fd
 719 0462 2C       		.byte	0x2c
 720 0463 09       		.uleb128 0x9
 721 0464 34050000 		.4byte	.LASF82
 722 0468 07       		.byte	0x7
 723 0469 D201     		.2byte	0x1d2
 724 046b 5C010000 		.4byte	0x15c
 725 046f 30       		.byte	0x30
 726 0470 08       		.uleb128 0x8
 727 0471 746D00   		.ascii	"tm\000"
 728 0474 07       		.byte	0x7
 729 0475 D701     		.2byte	0x1d7
 730 0477 81070000 		.4byte	0x781
 731 047b 78       		.byte	0x78
 732 047c 09       		.uleb128 0x9
 733 047d 5A020000 		.4byte	.LASF83
 734 0481 07       		.byte	0x7
 735 0482 E301     		.2byte	0x1e3
 736 0484 73080000 		.4byte	0x873
 737 0488 80       		.byte	0x80
 738 0489 00       		.byte	0
ARM GAS  /tmp/cc0xND6m.s 			page 14


 739 048a 04       		.uleb128 0x4
 740 048b 04       		.byte	0x4
 741 048c 07       		.byte	0x7
 742 048d 90030000 		.4byte	.LASF84
 743 0491 10       		.uleb128 0x10
 744 0492 50       		.byte	0x50
 745 0493 08       		.byte	0x8
 746 0494 C4       		.byte	0xc4
 747 0495 88050000 		.4byte	0x588
 748 0499 11       		.uleb128 0x11
 749 049a 535200   		.ascii	"SR\000"
 750 049d 08       		.byte	0x8
 751 049e C6       		.byte	0xc6
 752 049f E9000000 		.4byte	0xe9
 753 04a3 00       		.byte	0
 754 04a4 11       		.uleb128 0x11
 755 04a5 43523100 		.ascii	"CR1\000"
 756 04a9 08       		.byte	0x8
 757 04aa C7       		.byte	0xc7
 758 04ab E9000000 		.4byte	0xe9
 759 04af 04       		.byte	0x4
 760 04b0 11       		.uleb128 0x11
 761 04b1 43523200 		.ascii	"CR2\000"
 762 04b5 08       		.byte	0x8
 763 04b6 C8       		.byte	0xc8
 764 04b7 E9000000 		.4byte	0xe9
 765 04bb 08       		.byte	0x8
 766 04bc 07       		.uleb128 0x7
 767 04bd 28040000 		.4byte	.LASF85
 768 04c1 08       		.byte	0x8
 769 04c2 C9       		.byte	0xc9
 770 04c3 E9000000 		.4byte	0xe9
 771 04c7 0C       		.byte	0xc
 772 04c8 07       		.uleb128 0x7
 773 04c9 2E040000 		.4byte	.LASF86
 774 04cd 08       		.byte	0x8
 775 04ce CA       		.byte	0xca
 776 04cf E9000000 		.4byte	0xe9
 777 04d3 10       		.byte	0x10
 778 04d4 07       		.uleb128 0x7
 779 04d5 6C030000 		.4byte	.LASF87
 780 04d9 08       		.byte	0x8
 781 04da CB       		.byte	0xcb
 782 04db E9000000 		.4byte	0xe9
 783 04df 14       		.byte	0x14
 784 04e0 07       		.uleb128 0x7
 785 04e1 72030000 		.4byte	.LASF88
 786 04e5 08       		.byte	0x8
 787 04e6 CC       		.byte	0xcc
 788 04e7 E9000000 		.4byte	0xe9
 789 04eb 18       		.byte	0x18
 790 04ec 07       		.uleb128 0x7
 791 04ed 78030000 		.4byte	.LASF89
 792 04f1 08       		.byte	0x8
 793 04f2 CD       		.byte	0xcd
 794 04f3 E9000000 		.4byte	0xe9
 795 04f7 1C       		.byte	0x1c
ARM GAS  /tmp/cc0xND6m.s 			page 15


 796 04f8 07       		.uleb128 0x7
 797 04f9 14080000 		.4byte	.LASF90
 798 04fd 08       		.byte	0x8
 799 04fe CE       		.byte	0xce
 800 04ff E9000000 		.4byte	0xe9
 801 0503 20       		.byte	0x20
 802 0504 11       		.uleb128 0x11
 803 0505 48545200 		.ascii	"HTR\000"
 804 0509 08       		.byte	0x8
 805 050a CF       		.byte	0xcf
 806 050b E9000000 		.4byte	0xe9
 807 050f 24       		.byte	0x24
 808 0510 11       		.uleb128 0x11
 809 0511 4C545200 		.ascii	"LTR\000"
 810 0515 08       		.byte	0x8
 811 0516 D0       		.byte	0xd0
 812 0517 E9000000 		.4byte	0xe9
 813 051b 28       		.byte	0x28
 814 051c 07       		.uleb128 0x7
 815 051d 4D040000 		.4byte	.LASF91
 816 0521 08       		.byte	0x8
 817 0522 D1       		.byte	0xd1
 818 0523 E9000000 		.4byte	0xe9
 819 0527 2C       		.byte	0x2c
 820 0528 07       		.uleb128 0x7
 821 0529 52040000 		.4byte	.LASF92
 822 052d 08       		.byte	0x8
 823 052e D2       		.byte	0xd2
 824 052f E9000000 		.4byte	0xe9
 825 0533 30       		.byte	0x30
 826 0534 07       		.uleb128 0x7
 827 0535 57040000 		.4byte	.LASF93
 828 0539 08       		.byte	0x8
 829 053a D3       		.byte	0xd3
 830 053b E9000000 		.4byte	0xe9
 831 053f 34       		.byte	0x34
 832 0540 07       		.uleb128 0x7
 833 0541 EC000000 		.4byte	.LASF94
 834 0545 08       		.byte	0x8
 835 0546 D4       		.byte	0xd4
 836 0547 E9000000 		.4byte	0xe9
 837 054b 38       		.byte	0x38
 838 054c 07       		.uleb128 0x7
 839 054d 1A080000 		.4byte	.LASF95
 840 0551 08       		.byte	0x8
 841 0552 D5       		.byte	0xd5
 842 0553 E9000000 		.4byte	0xe9
 843 0557 3C       		.byte	0x3c
 844 0558 07       		.uleb128 0x7
 845 0559 1F080000 		.4byte	.LASF96
 846 055d 08       		.byte	0x8
 847 055e D6       		.byte	0xd6
 848 055f E9000000 		.4byte	0xe9
 849 0563 40       		.byte	0x40
 850 0564 07       		.uleb128 0x7
 851 0565 24080000 		.4byte	.LASF97
 852 0569 08       		.byte	0x8
ARM GAS  /tmp/cc0xND6m.s 			page 16


 853 056a D7       		.byte	0xd7
 854 056b E9000000 		.4byte	0xe9
 855 056f 44       		.byte	0x44
 856 0570 07       		.uleb128 0x7
 857 0571 0A040000 		.4byte	.LASF98
 858 0575 08       		.byte	0x8
 859 0576 D8       		.byte	0xd8
 860 0577 E9000000 		.4byte	0xe9
 861 057b 48       		.byte	0x48
 862 057c 11       		.uleb128 0x11
 863 057d 445200   		.ascii	"DR\000"
 864 0580 08       		.byte	0x8
 865 0581 D9       		.byte	0xd9
 866 0582 E9000000 		.4byte	0xe9
 867 0586 4C       		.byte	0x4c
 868 0587 00       		.byte	0
 869 0588 03       		.uleb128 0x3
 870 0589 C3030000 		.4byte	.LASF99
 871 058d 08       		.byte	0x8
 872 058e DA       		.byte	0xda
 873 058f 91040000 		.4byte	0x491
 874 0593 12       		.uleb128 0x12
 875 0594 18       		.byte	0x18
 876 0595 08       		.byte	0x8
 877 0596 6B01     		.2byte	0x16b
 878 0598 EA050000 		.4byte	0x5ea
 879 059c 08       		.uleb128 0x8
 880 059d 435200   		.ascii	"CR\000"
 881 05a0 08       		.byte	0x8
 882 05a1 6D01     		.2byte	0x16d
 883 05a3 E9000000 		.4byte	0xe9
 884 05a7 00       		.byte	0
 885 05a8 09       		.uleb128 0x9
 886 05a9 25070000 		.4byte	.LASF100
 887 05ad 08       		.byte	0x8
 888 05ae 6E01     		.2byte	0x16e
 889 05b0 E9000000 		.4byte	0xe9
 890 05b4 04       		.byte	0x4
 891 05b5 08       		.uleb128 0x8
 892 05b6 50415200 		.ascii	"PAR\000"
 893 05ba 08       		.byte	0x8
 894 05bb 6F01     		.2byte	0x16f
 895 05bd E9000000 		.4byte	0xe9
 896 05c1 08       		.byte	0x8
 897 05c2 09       		.uleb128 0x9
 898 05c3 0D000000 		.4byte	.LASF101
 899 05c7 08       		.byte	0x8
 900 05c8 7001     		.2byte	0x170
 901 05ca E9000000 		.4byte	0xe9
 902 05ce 0C       		.byte	0xc
 903 05cf 09       		.uleb128 0x9
 904 05d0 A3070000 		.4byte	.LASF102
 905 05d4 08       		.byte	0x8
 906 05d5 7101     		.2byte	0x171
 907 05d7 E9000000 		.4byte	0xe9
 908 05db 10       		.byte	0x10
 909 05dc 08       		.uleb128 0x8
ARM GAS  /tmp/cc0xND6m.s 			page 17


 910 05dd 46435200 		.ascii	"FCR\000"
 911 05e1 08       		.byte	0x8
 912 05e2 7201     		.2byte	0x172
 913 05e4 E9000000 		.4byte	0xe9
 914 05e8 14       		.byte	0x14
 915 05e9 00       		.byte	0
 916 05ea 13       		.uleb128 0x13
 917 05eb 3B070000 		.4byte	.LASF103
 918 05ef 08       		.byte	0x8
 919 05f0 7301     		.2byte	0x173
 920 05f2 93050000 		.4byte	0x593
 921 05f6 03       		.uleb128 0x3
 922 05f7 08020000 		.4byte	.LASF104
 923 05fb 09       		.byte	0x9
 924 05fc 65       		.byte	0x65
 925 05fd 54030000 		.4byte	0x354
 926 0601 03       		.uleb128 0x3
 927 0602 4D030000 		.4byte	.LASF105
 928 0606 09       		.byte	0x9
 929 0607 6D       		.byte	0x6d
 930 0608 D9000000 		.4byte	0xd9
 931 060c 06       		.uleb128 0x6
 932 060d 59070000 		.4byte	.LASF106
 933 0611 04       		.byte	0x4
 934 0612 09       		.byte	0x9
 935 0613 89       		.byte	0x89
 936 0614 25060000 		.4byte	0x625
 937 0618 11       		.uleb128 0x11
 938 0619 72313300 		.ascii	"r13\000"
 939 061d 09       		.byte	0x9
 940 061e 8A       		.byte	0x8a
 941 061f 66070000 		.4byte	0x766
 942 0623 00       		.byte	0
 943 0624 00       		.byte	0
 944 0625 06       		.uleb128 0x6
 945 0626 43000000 		.4byte	.LASF107
 946 062a 64       		.byte	0x64
 947 062b 0A       		.byte	0xa
 948 062c F4       		.byte	0xf4
 949 062d 66070000 		.4byte	0x766
 950 0631 11       		.uleb128 0x11
 951 0632 73313600 		.ascii	"s16\000"
 952 0636 0A       		.byte	0xa
 953 0637 F6       		.byte	0xf6
 954 0638 F6050000 		.4byte	0x5f6
 955 063c 00       		.byte	0
 956 063d 11       		.uleb128 0x11
 957 063e 73313700 		.ascii	"s17\000"
 958 0642 0A       		.byte	0xa
 959 0643 F7       		.byte	0xf7
 960 0644 F6050000 		.4byte	0x5f6
 961 0648 04       		.byte	0x4
 962 0649 11       		.uleb128 0x11
 963 064a 73313800 		.ascii	"s18\000"
 964 064e 0A       		.byte	0xa
 965 064f F8       		.byte	0xf8
 966 0650 F6050000 		.4byte	0x5f6
ARM GAS  /tmp/cc0xND6m.s 			page 18


 967 0654 08       		.byte	0x8
 968 0655 11       		.uleb128 0x11
 969 0656 73313900 		.ascii	"s19\000"
 970 065a 0A       		.byte	0xa
 971 065b F9       		.byte	0xf9
 972 065c F6050000 		.4byte	0x5f6
 973 0660 0C       		.byte	0xc
 974 0661 11       		.uleb128 0x11
 975 0662 73323000 		.ascii	"s20\000"
 976 0666 0A       		.byte	0xa
 977 0667 FA       		.byte	0xfa
 978 0668 F6050000 		.4byte	0x5f6
 979 066c 10       		.byte	0x10
 980 066d 11       		.uleb128 0x11
 981 066e 73323100 		.ascii	"s21\000"
 982 0672 0A       		.byte	0xa
 983 0673 FB       		.byte	0xfb
 984 0674 F6050000 		.4byte	0x5f6
 985 0678 14       		.byte	0x14
 986 0679 11       		.uleb128 0x11
 987 067a 73323200 		.ascii	"s22\000"
 988 067e 0A       		.byte	0xa
 989 067f FC       		.byte	0xfc
 990 0680 F6050000 		.4byte	0x5f6
 991 0684 18       		.byte	0x18
 992 0685 11       		.uleb128 0x11
 993 0686 73323300 		.ascii	"s23\000"
 994 068a 0A       		.byte	0xa
 995 068b FD       		.byte	0xfd
 996 068c F6050000 		.4byte	0x5f6
 997 0690 1C       		.byte	0x1c
 998 0691 11       		.uleb128 0x11
 999 0692 73323400 		.ascii	"s24\000"
 1000 0696 0A       		.byte	0xa
 1001 0697 FE       		.byte	0xfe
 1002 0698 F6050000 		.4byte	0x5f6
 1003 069c 20       		.byte	0x20
 1004 069d 11       		.uleb128 0x11
 1005 069e 73323500 		.ascii	"s25\000"
 1006 06a2 0A       		.byte	0xa
 1007 06a3 FF       		.byte	0xff
 1008 06a4 F6050000 		.4byte	0x5f6
 1009 06a8 24       		.byte	0x24
 1010 06a9 08       		.uleb128 0x8
 1011 06aa 73323600 		.ascii	"s26\000"
 1012 06ae 0A       		.byte	0xa
 1013 06af 0001     		.2byte	0x100
 1014 06b1 F6050000 		.4byte	0x5f6
 1015 06b5 28       		.byte	0x28
 1016 06b6 08       		.uleb128 0x8
 1017 06b7 73323700 		.ascii	"s27\000"
 1018 06bb 0A       		.byte	0xa
 1019 06bc 0101     		.2byte	0x101
 1020 06be F6050000 		.4byte	0x5f6
 1021 06c2 2C       		.byte	0x2c
 1022 06c3 08       		.uleb128 0x8
 1023 06c4 73323800 		.ascii	"s28\000"
ARM GAS  /tmp/cc0xND6m.s 			page 19


 1024 06c8 0A       		.byte	0xa
 1025 06c9 0201     		.2byte	0x102
 1026 06cb F6050000 		.4byte	0x5f6
 1027 06cf 30       		.byte	0x30
 1028 06d0 08       		.uleb128 0x8
 1029 06d1 73323900 		.ascii	"s29\000"
 1030 06d5 0A       		.byte	0xa
 1031 06d6 0301     		.2byte	0x103
 1032 06d8 F6050000 		.4byte	0x5f6
 1033 06dc 34       		.byte	0x34
 1034 06dd 08       		.uleb128 0x8
 1035 06de 73333000 		.ascii	"s30\000"
 1036 06e2 0A       		.byte	0xa
 1037 06e3 0401     		.2byte	0x104
 1038 06e5 F6050000 		.4byte	0x5f6
 1039 06e9 38       		.byte	0x38
 1040 06ea 08       		.uleb128 0x8
 1041 06eb 73333100 		.ascii	"s31\000"
 1042 06ef 0A       		.byte	0xa
 1043 06f0 0501     		.2byte	0x105
 1044 06f2 F6050000 		.4byte	0x5f6
 1045 06f6 3C       		.byte	0x3c
 1046 06f7 08       		.uleb128 0x8
 1047 06f8 723400   		.ascii	"r4\000"
 1048 06fb 0A       		.byte	0xa
 1049 06fc 0701     		.2byte	0x107
 1050 06fe F6050000 		.4byte	0x5f6
 1051 0702 40       		.byte	0x40
 1052 0703 08       		.uleb128 0x8
 1053 0704 723500   		.ascii	"r5\000"
 1054 0707 0A       		.byte	0xa
 1055 0708 0801     		.2byte	0x108
 1056 070a F6050000 		.4byte	0x5f6
 1057 070e 44       		.byte	0x44
 1058 070f 08       		.uleb128 0x8
 1059 0710 723600   		.ascii	"r6\000"
 1060 0713 0A       		.byte	0xa
 1061 0714 0901     		.2byte	0x109
 1062 0716 F6050000 		.4byte	0x5f6
 1063 071a 48       		.byte	0x48
 1064 071b 08       		.uleb128 0x8
 1065 071c 723700   		.ascii	"r7\000"
 1066 071f 0A       		.byte	0xa
 1067 0720 0A01     		.2byte	0x10a
 1068 0722 F6050000 		.4byte	0x5f6
 1069 0726 4C       		.byte	0x4c
 1070 0727 08       		.uleb128 0x8
 1071 0728 723800   		.ascii	"r8\000"
 1072 072b 0A       		.byte	0xa
 1073 072c 0B01     		.2byte	0x10b
 1074 072e F6050000 		.4byte	0x5f6
 1075 0732 50       		.byte	0x50
 1076 0733 08       		.uleb128 0x8
 1077 0734 723900   		.ascii	"r9\000"
 1078 0737 0A       		.byte	0xa
 1079 0738 0C01     		.2byte	0x10c
 1080 073a F6050000 		.4byte	0x5f6
ARM GAS  /tmp/cc0xND6m.s 			page 20


 1081 073e 54       		.byte	0x54
 1082 073f 08       		.uleb128 0x8
 1083 0740 72313000 		.ascii	"r10\000"
 1084 0744 0A       		.byte	0xa
 1085 0745 0D01     		.2byte	0x10d
 1086 0747 F6050000 		.4byte	0x5f6
 1087 074b 58       		.byte	0x58
 1088 074c 08       		.uleb128 0x8
 1089 074d 72313100 		.ascii	"r11\000"
 1090 0751 0A       		.byte	0xa
 1091 0752 0E01     		.2byte	0x10e
 1092 0754 F6050000 		.4byte	0x5f6
 1093 0758 5C       		.byte	0x5c
 1094 0759 08       		.uleb128 0x8
 1095 075a 6C7200   		.ascii	"lr\000"
 1096 075d 0A       		.byte	0xa
 1097 075e 0F01     		.2byte	0x10f
 1098 0760 F6050000 		.4byte	0x5f6
 1099 0764 60       		.byte	0x60
 1100 0765 00       		.byte	0
 1101 0766 0A       		.uleb128 0xa
 1102 0767 04       		.byte	0x4
 1103 0768 25060000 		.4byte	0x625
 1104 076c 10       		.uleb128 0x10
 1105 076d 04       		.byte	0x4
 1106 076e 0B       		.byte	0xb
 1107 076f 38       		.byte	0x38
 1108 0770 81070000 		.4byte	0x781
 1109 0774 07       		.uleb128 0x7
 1110 0775 34070000 		.4byte	.LASF108
 1111 0779 0B       		.byte	0xb
 1112 077a 3C       		.byte	0x3c
 1113 077b EE000000 		.4byte	0xee
 1114 077f 00       		.byte	0
 1115 0780 00       		.byte	0
 1116 0781 03       		.uleb128 0x3
 1117 0782 DB030000 		.4byte	.LASF109
 1118 0786 0B       		.byte	0xb
 1119 0787 3D       		.byte	0x3d
 1120 0788 6C070000 		.4byte	0x76c
 1121 078c 14       		.uleb128 0x14
 1122 078d 04       		.byte	0x4
 1123 078e 07       		.byte	0x7
 1124 078f FA       		.byte	0xfa
 1125 0790 E9070000 		.4byte	0x7e9
 1126 0794 15       		.uleb128 0x15
 1127 0795 19000000 		.4byte	.LASF110
 1128 0799 07       		.byte	0x7
 1129 079a 0101     		.2byte	0x101
 1130 079c 30010000 		.4byte	0x130
 1131 07a0 15       		.uleb128 0x15
 1132 07a1 9E000000 		.4byte	.LASF111
 1133 07a5 07       		.byte	0x7
 1134 07a6 0801     		.2byte	0x108
 1135 07a8 30010000 		.4byte	0x130
 1136 07ac 15       		.uleb128 0x15
 1137 07ad 31080000 		.4byte	.LASF112
ARM GAS  /tmp/cc0xND6m.s 			page 21


 1138 07b1 07       		.byte	0x7
 1139 07b2 0F01     		.2byte	0x10f
 1140 07b4 54030000 		.4byte	0x354
 1141 07b8 15       		.uleb128 0x15
 1142 07b9 08050000 		.4byte	.LASF113
 1143 07bd 07       		.byte	0x7
 1144 07be 1601     		.2byte	0x116
 1145 07c0 E9070000 		.4byte	0x7e9
 1146 07c4 15       		.uleb128 0x15
 1147 07c5 94020000 		.4byte	.LASF114
 1148 07c9 07       		.byte	0x7
 1149 07ca 1E01     		.2byte	0x11e
 1150 07cc 14080000 		.4byte	0x814
 1151 07d0 15       		.uleb128 0x15
 1152 07d1 70050000 		.4byte	.LASF115
 1153 07d5 07       		.byte	0x7
 1154 07d6 2701     		.2byte	0x127
 1155 07d8 4B080000 		.4byte	0x84b
 1156 07dc 15       		.uleb128 0x15
 1157 07dd 1E050000 		.4byte	.LASF116
 1158 07e1 07       		.byte	0x7
 1159 07e2 2F01     		.2byte	0x12f
 1160 07e4 3B010000 		.4byte	0x13b
 1161 07e8 00       		.byte	0
 1162 07e9 0A       		.uleb128 0xa
 1163 07ea 04       		.byte	0x4
 1164 07eb 6C020000 		.4byte	0x26c
 1165 07ef 06       		.uleb128 0x6
 1166 07f0 3F050000 		.4byte	.LASF117
 1167 07f4 0C       		.byte	0xc
 1168 07f5 0C       		.byte	0xc
 1169 07f6 34       		.byte	0x34
 1170 07f7 14080000 		.4byte	0x814
 1171 07fb 07       		.uleb128 0x7
 1172 07fc 6A080000 		.4byte	.LASF118
 1173 0800 0C       		.byte	0xc
 1174 0801 35       		.byte	0x35
 1175 0802 A1020000 		.4byte	0x2a1
 1176 0806 00       		.byte	0
 1177 0807 07       		.uleb128 0x7
 1178 0808 C5020000 		.4byte	.LASF119
 1179 080c 0C       		.byte	0xc
 1180 080d 37       		.byte	0x37
 1181 080e 46010000 		.4byte	0x146
 1182 0812 08       		.byte	0x8
 1183 0813 00       		.byte	0
 1184 0814 0A       		.uleb128 0xa
 1185 0815 04       		.byte	0x4
 1186 0816 EF070000 		.4byte	0x7ef
 1187 081a 06       		.uleb128 0x6
 1188 081b C8070000 		.4byte	.LASF120
 1189 081f 10       		.byte	0x10
 1190 0820 0D       		.byte	0xd
 1191 0821 39       		.byte	0x39
 1192 0822 4B080000 		.4byte	0x84b
 1193 0826 07       		.uleb128 0x7
 1194 0827 5A010000 		.4byte	.LASF121
ARM GAS  /tmp/cc0xND6m.s 			page 22


 1195 082b 0D       		.byte	0xd
 1196 082c 3A       		.byte	0x3a
 1197 082d A1020000 		.4byte	0x2a1
 1198 0831 00       		.byte	0
 1199 0832 07       		.uleb128 0x7
 1200 0833 8A080000 		.4byte	.LASF122
 1201 0837 0D       		.byte	0xd
 1202 0838 3C       		.byte	0x3c
 1203 0839 77020000 		.4byte	0x277
 1204 083d 08       		.byte	0x8
 1205 083e 07       		.uleb128 0x7
 1206 083f 34040000 		.4byte	.LASF123
 1207 0843 0D       		.byte	0xd
 1208 0844 3E       		.byte	0x3e
 1209 0845 8E080000 		.4byte	0x88e
 1210 0849 0C       		.byte	0xc
 1211 084a 00       		.byte	0
 1212 084b 0A       		.uleb128 0xa
 1213 084c 04       		.byte	0x4
 1214 084d 1A080000 		.4byte	0x81a
 1215 0851 0A       		.uleb128 0xa
 1216 0852 04       		.byte	0x4
 1217 0853 57080000 		.4byte	0x857
 1218 0857 16       		.uleb128 0x16
 1219 0858 5C080000 		.4byte	0x85c
 1220 085c 04       		.uleb128 0x4
 1221 085d 01       		.byte	0x1
 1222 085e 08       		.byte	0x8
 1223 085f AB050000 		.4byte	.LASF124
 1224 0863 05       		.uleb128 0x5
 1225 0864 51010000 		.4byte	0x151
 1226 0868 0A       		.uleb128 0xa
 1227 0869 04       		.byte	0x4
 1228 086a 56030000 		.4byte	0x356
 1229 086e 05       		.uleb128 0x5
 1230 086f 51080000 		.4byte	0x851
 1231 0873 17       		.uleb128 0x17
 1232 0874 01060000 		.4byte	0x601
 1233 0878 83080000 		.4byte	0x883
 1234 087c 18       		.uleb128 0x18
 1235 087d 8A040000 		.4byte	0x48a
 1236 0881 3A       		.byte	0x3a
 1237 0882 00       		.byte	0
 1238 0883 03       		.uleb128 0x3
 1239 0884 F1000000 		.4byte	.LASF125
 1240 0888 0D       		.byte	0xd
 1241 0889 34       		.byte	0x34
 1242 088a 1A080000 		.4byte	0x81a
 1243 088e 0A       		.uleb128 0xa
 1244 088f 04       		.byte	0x4
 1245 0890 83080000 		.4byte	0x883
 1246 0894 10       		.uleb128 0x10
 1247 0895 0C       		.byte	0xc
 1248 0896 0E       		.byte	0xe
 1249 0897 DA       		.byte	0xda
 1250 0898 D9080000 		.4byte	0x8d9
 1251 089c 07       		.uleb128 0x7
ARM GAS  /tmp/cc0xND6m.s 			page 23


 1252 089d 74000000 		.4byte	.LASF126
 1253 08a1 0E       		.byte	0xe
 1254 08a2 DB       		.byte	0xdb
 1255 08a3 D9080000 		.4byte	0x8d9
 1256 08a7 00       		.byte	0
 1257 08a8 07       		.uleb128 0x7
 1258 08a9 71040000 		.4byte	.LASF127
 1259 08ad 0E       		.byte	0xe
 1260 08ae DC       		.byte	0xdc
 1261 08af DF080000 		.4byte	0x8df
 1262 08b3 04       		.byte	0x4
 1263 08b4 07       		.uleb128 0x7
 1264 08b5 BE020000 		.4byte	.LASF128
 1265 08b9 0E       		.byte	0xe
 1266 08ba DD       		.byte	0xdd
 1267 08bb AD000000 		.4byte	0xad
 1268 08bf 08       		.byte	0x8
 1269 08c0 07       		.uleb128 0x7
 1270 08c1 FE020000 		.4byte	.LASF129
 1271 08c5 0E       		.byte	0xe
 1272 08c6 DF       		.byte	0xdf
 1273 08c7 AD000000 		.4byte	0xad
 1274 08cb 09       		.byte	0x9
 1275 08cc 07       		.uleb128 0x7
 1276 08cd 2B000000 		.4byte	.LASF130
 1277 08d1 0E       		.byte	0xe
 1278 08d2 E0       		.byte	0xe0
 1279 08d3 AD000000 		.4byte	0xad
 1280 08d7 0A       		.byte	0xa
 1281 08d8 00       		.byte	0
 1282 08d9 0A       		.uleb128 0xa
 1283 08da 04       		.byte	0x4
 1284 08db EA050000 		.4byte	0x5ea
 1285 08df 0A       		.uleb128 0xa
 1286 08e0 04       		.byte	0x4
 1287 08e1 E9000000 		.4byte	0xe9
 1288 08e5 03       		.uleb128 0x3
 1289 08e6 95040000 		.4byte	.LASF131
 1290 08ea 0E       		.byte	0xe
 1291 08eb E1       		.byte	0xe1
 1292 08ec 94080000 		.4byte	0x894
 1293 08f0 04       		.uleb128 0x4
 1294 08f1 01       		.byte	0x1
 1295 08f2 02       		.byte	0x2
 1296 08f3 C6040000 		.4byte	.LASF132
 1297 08f7 10       		.uleb128 0x10
 1298 08f8 04       		.byte	0x4
 1299 08f9 0F       		.byte	0xf
 1300 08fa B3       		.byte	0xb3
 1301 08fb 18090000 		.4byte	0x918
 1302 08ff 11       		.uleb128 0x11
 1303 0900 73657400 		.ascii	"set\000"
 1304 0904 0F       		.byte	0xf
 1305 0905 B4       		.byte	0xb4
 1306 0906 B8000000 		.4byte	0xb8
 1307 090a 00       		.byte	0
 1308 090b 07       		.uleb128 0x7
ARM GAS  /tmp/cc0xND6m.s 			page 24


 1309 090c 57050000 		.4byte	.LASF133
 1310 0910 0F       		.byte	0xf
 1311 0911 B5       		.byte	0xb5
 1312 0912 B8000000 		.4byte	0xb8
 1313 0916 02       		.byte	0x2
 1314 0917 00       		.byte	0
 1315 0918 14       		.uleb128 0x14
 1316 0919 04       		.byte	0x4
 1317 091a 0F       		.byte	0xf
 1318 091b B1       		.byte	0xb1
 1319 091c 33090000 		.4byte	0x933
 1320 0920 19       		.uleb128 0x19
 1321 0921 5700     		.ascii	"W\000"
 1322 0923 0F       		.byte	0xf
 1323 0924 B2       		.byte	0xb2
 1324 0925 CE000000 		.4byte	0xce
 1325 0929 19       		.uleb128 0x19
 1326 092a 4800     		.ascii	"H\000"
 1327 092c 0F       		.byte	0xf
 1328 092d B6       		.byte	0xb6
 1329 092e F7080000 		.4byte	0x8f7
 1330 0932 00       		.byte	0
 1331 0933 10       		.uleb128 0x10
 1332 0934 2C       		.byte	0x2c
 1333 0935 0F       		.byte	0xf
 1334 0936 A9       		.byte	0xa9
 1335 0937 C0090000 		.4byte	0x9c0
 1336 093b 07       		.uleb128 0x7
 1337 093c 7B000000 		.4byte	.LASF134
 1338 0940 0F       		.byte	0xf
 1339 0941 AB       		.byte	0xab
 1340 0942 E9000000 		.4byte	0xe9
 1341 0946 00       		.byte	0
 1342 0947 07       		.uleb128 0x7
 1343 0948 3C000000 		.4byte	.LASF135
 1344 094c 0F       		.byte	0xf
 1345 094d AC       		.byte	0xac
 1346 094e E9000000 		.4byte	0xe9
 1347 0952 04       		.byte	0x4
 1348 0953 07       		.uleb128 0x7
 1349 0954 EE010000 		.4byte	.LASF136
 1350 0958 0F       		.byte	0xf
 1351 0959 AD       		.byte	0xad
 1352 095a E9000000 		.4byte	0xe9
 1353 095e 08       		.byte	0x8
 1354 095f 07       		.uleb128 0x7
 1355 0960 98000000 		.4byte	.LASF137
 1356 0964 0F       		.byte	0xf
 1357 0965 AE       		.byte	0xae
 1358 0966 E9000000 		.4byte	0xe9
 1359 096a 0C       		.byte	0xc
 1360 096b 11       		.uleb128 0x11
 1361 096c 49445200 		.ascii	"IDR\000"
 1362 0970 0F       		.byte	0xf
 1363 0971 AF       		.byte	0xaf
 1364 0972 E9000000 		.4byte	0xe9
 1365 0976 10       		.byte	0x10
ARM GAS  /tmp/cc0xND6m.s 			page 25


 1366 0977 11       		.uleb128 0x11
 1367 0978 4F445200 		.ascii	"ODR\000"
 1368 097c 0F       		.byte	0xf
 1369 097d B0       		.byte	0xb0
 1370 097e E9000000 		.4byte	0xe9
 1371 0982 14       		.byte	0x14
 1372 0983 07       		.uleb128 0x7
 1373 0984 13010000 		.4byte	.LASF138
 1374 0988 0F       		.byte	0xf
 1375 0989 B7       		.byte	0xb7
 1376 098a C0090000 		.4byte	0x9c0
 1377 098e 18       		.byte	0x18
 1378 098f 07       		.uleb128 0x7
 1379 0990 B9020000 		.4byte	.LASF139
 1380 0994 0F       		.byte	0xf
 1381 0995 B8       		.byte	0xb8
 1382 0996 E9000000 		.4byte	0xe9
 1383 099a 1C       		.byte	0x1c
 1384 099b 07       		.uleb128 0x7
 1385 099c 6C040000 		.4byte	.LASF140
 1386 09a0 0F       		.byte	0xf
 1387 09a1 B9       		.byte	0xb9
 1388 09a2 E9000000 		.4byte	0xe9
 1389 09a6 20       		.byte	0x20
 1390 09a7 07       		.uleb128 0x7
 1391 09a8 67040000 		.4byte	.LASF141
 1392 09ac 0F       		.byte	0xf
 1393 09ad BA       		.byte	0xba
 1394 09ae E9000000 		.4byte	0xe9
 1395 09b2 24       		.byte	0x24
 1396 09b3 11       		.uleb128 0x11
 1397 09b4 42525200 		.ascii	"BRR\000"
 1398 09b8 0F       		.byte	0xf
 1399 09b9 BB       		.byte	0xbb
 1400 09ba E9000000 		.4byte	0xe9
 1401 09be 28       		.byte	0x28
 1402 09bf 00       		.byte	0
 1403 09c0 05       		.uleb128 0x5
 1404 09c1 18090000 		.4byte	0x918
 1405 09c5 03       		.uleb128 0x3
 1406 09c6 26020000 		.4byte	.LASF142
 1407 09ca 0F       		.byte	0xf
 1408 09cb BC       		.byte	0xbc
 1409 09cc 33090000 		.4byte	0x933
 1410 09d0 13       		.uleb128 0x13
 1411 09d1 EC030000 		.4byte	.LASF143
 1412 09d5 0F       		.byte	0xf
 1413 09d6 0E01     		.2byte	0x10e
 1414 09d8 CE000000 		.4byte	0xce
 1415 09dc 13       		.uleb128 0x13
 1416 09dd 81080000 		.4byte	.LASF144
 1417 09e1 0F       		.byte	0xf
 1418 09e2 1301     		.2byte	0x113
 1419 09e4 CE000000 		.4byte	0xce
 1420 09e8 13       		.uleb128 0x13
 1421 09e9 4E070000 		.4byte	.LASF145
 1422 09ed 0F       		.byte	0xf
ARM GAS  /tmp/cc0xND6m.s 			page 26


 1423 09ee 1B01     		.2byte	0x11b
 1424 09f0 F4090000 		.4byte	0x9f4
 1425 09f4 0A       		.uleb128 0xa
 1426 09f5 04       		.byte	0x4
 1427 09f6 C5090000 		.4byte	0x9c5
 1428 09fa 1A       		.uleb128 0x1a
 1429 09fb 01       		.byte	0x1
 1430 09fc 10       		.byte	0x10
 1431 09fd 46       		.byte	0x46
 1432 09fe 270A0000 		.4byte	0xa27
 1433 0a02 1B       		.uleb128 0x1b
 1434 0a03 33020000 		.4byte	.LASF146
 1435 0a07 00       		.sleb128 0
 1436 0a08 1B       		.uleb128 0x1b
 1437 0a09 E4070000 		.4byte	.LASF147
 1438 0a0d 01       		.sleb128 1
 1439 0a0e 1B       		.uleb128 0x1b
 1440 0a0f E8020000 		.4byte	.LASF148
 1441 0a13 02       		.sleb128 2
 1442 0a14 1B       		.uleb128 0x1b
 1443 0a15 4F020000 		.4byte	.LASF149
 1444 0a19 03       		.sleb128 3
 1445 0a1a 1B       		.uleb128 0x1b
 1446 0a1b 38080000 		.4byte	.LASF150
 1447 0a1f 04       		.sleb128 4
 1448 0a20 1B       		.uleb128 0x1b
 1449 0a21 74010000 		.4byte	.LASF151
 1450 0a25 05       		.sleb128 5
 1451 0a26 00       		.byte	0
 1452 0a27 03       		.uleb128 0x3
 1453 0a28 20000000 		.4byte	.LASF152
 1454 0a2c 10       		.byte	0x10
 1455 0a2d 4D       		.byte	0x4d
 1456 0a2e FA090000 		.4byte	0x9fa
 1457 0a32 13       		.uleb128 0x13
 1458 0a33 E2010000 		.4byte	.LASF153
 1459 0a37 11       		.byte	0x11
 1460 0a38 2701     		.2byte	0x127
 1461 0a3a B8000000 		.4byte	0xb8
 1462 0a3e 13       		.uleb128 0x13
 1463 0a3f 4C080000 		.4byte	.LASF154
 1464 0a43 11       		.byte	0x11
 1465 0a44 2C01     		.2byte	0x12c
 1466 0a46 B8000000 		.4byte	0xb8
 1467 0a4a 1C       		.uleb128 0x1c
 1468 0a4b 01       		.byte	0x1
 1469 0a4c 11       		.byte	0x11
 1470 0a4d 3301     		.2byte	0x133
 1471 0a4f 600A0000 		.4byte	0xa60
 1472 0a53 1B       		.uleb128 0x1b
 1473 0a54 96010000 		.4byte	.LASF155
 1474 0a58 00       		.sleb128 0
 1475 0a59 1B       		.uleb128 0x1b
 1476 0a5a 3E020000 		.4byte	.LASF156
 1477 0a5e 01       		.sleb128 1
 1478 0a5f 00       		.byte	0
 1479 0a60 13       		.uleb128 0x13
ARM GAS  /tmp/cc0xND6m.s 			page 27


 1480 0a61 62010000 		.4byte	.LASF157
 1481 0a65 11       		.byte	0x11
 1482 0a66 3601     		.2byte	0x136
 1483 0a68 4A0A0000 		.4byte	0xa4a
 1484 0a6c 13       		.uleb128 0x13
 1485 0a6d AF020000 		.4byte	.LASF158
 1486 0a71 11       		.byte	0x11
 1487 0a72 3B01     		.2byte	0x13b
 1488 0a74 780A0000 		.4byte	0xa78
 1489 0a78 0B       		.uleb128 0xb
 1490 0a79 AF020000 		.4byte	.LASF158
 1491 0a7d 34       		.byte	0x34
 1492 0a7e 11       		.byte	0x11
 1493 0a7f 9F01     		.2byte	0x19f
 1494 0a81 080B0000 		.4byte	0xb08
 1495 0a85 09       		.uleb128 0x9
 1496 0a86 7E010000 		.4byte	.LASF159
 1497 0a8a 11       		.byte	0x11
 1498 0a8b A301     		.2byte	0x1a3
 1499 0a8d 270A0000 		.4byte	0xa27
 1500 0a91 00       		.byte	0
 1501 0a92 09       		.uleb128 0x9
 1502 0a93 B0050000 		.4byte	.LASF160
 1503 0a97 11       		.byte	0x11
 1504 0a98 A701     		.2byte	0x1a7
 1505 0a9a 250C0000 		.4byte	0xc25
 1506 0a9e 04       		.byte	0x4
 1507 0a9f 09       		.uleb128 0x9
 1508 0aa0 7E030000 		.4byte	.LASF161
 1509 0aa4 11       		.byte	0x11
 1510 0aa5 AB01     		.2byte	0x1ab
 1511 0aa7 350B0000 		.4byte	0xb35
 1512 0aab 08       		.byte	0x8
 1513 0aac 09       		.uleb128 0x9
 1514 0aad F2020000 		.4byte	.LASF162
 1515 0ab1 11       		.byte	0x11
 1516 0ab2 AF01     		.2byte	0x1af
 1517 0ab4 2C000000 		.4byte	0x2c
 1518 0ab8 0C       		.byte	0xc
 1519 0ab9 09       		.uleb128 0x9
 1520 0aba 67030000 		.4byte	.LASF163
 1521 0abe 11       		.byte	0x11
 1522 0abf B301     		.2byte	0x1b3
 1523 0ac1 300C0000 		.4byte	0xc30
 1524 0ac5 10       		.byte	0x10
 1525 0ac6 09       		.uleb128 0x9
 1526 0ac7 1E070000 		.4byte	.LASF164
 1527 0acb 11       		.byte	0x11
 1528 0acc B801     		.2byte	0x1b8
 1529 0ace 6C020000 		.4byte	0x26c
 1530 0ad2 14       		.byte	0x14
 1531 0ad3 09       		.uleb128 0x9
 1532 0ad4 B0040000 		.4byte	.LASF165
 1533 0ad8 11       		.byte	0x11
 1534 0ad9 BE01     		.2byte	0x1be
 1535 0adb 83080000 		.4byte	0x883
 1536 0adf 18       		.byte	0x18
ARM GAS  /tmp/cc0xND6m.s 			page 28


 1537 0ae0 08       		.uleb128 0x8
 1538 0ae1 61646300 		.ascii	"adc\000"
 1539 0ae5 11       		.byte	0x11
 1540 0ae6 C701     		.2byte	0x1c7
 1541 0ae8 3B0C0000 		.4byte	0xc3b
 1542 0aec 28       		.byte	0x28
 1543 0aed 09       		.uleb128 0x9
 1544 0aee 6D010000 		.4byte	.LASF166
 1545 0af2 11       		.byte	0x11
 1546 0af3 CB01     		.2byte	0x1cb
 1547 0af5 410C0000 		.4byte	0xc41
 1548 0af9 2C       		.byte	0x2c
 1549 0afa 09       		.uleb128 0x9
 1550 0afb 29080000 		.4byte	.LASF167
 1551 0aff 11       		.byte	0x11
 1552 0b00 CF01     		.2byte	0x1cf
 1553 0b02 CE000000 		.4byte	0xce
 1554 0b06 30       		.byte	0x30
 1555 0b07 00       		.byte	0
 1556 0b08 13       		.uleb128 0x13
 1557 0b09 D4010000 		.4byte	.LASF168
 1558 0b0d 11       		.byte	0x11
 1559 0b0e 4501     		.2byte	0x145
 1560 0b10 140B0000 		.4byte	0xb14
 1561 0b14 0A       		.uleb128 0xa
 1562 0b15 04       		.byte	0x4
 1563 0b16 1A0B0000 		.4byte	0xb1a
 1564 0b1a 0C       		.uleb128 0xc
 1565 0b1b 2F0B0000 		.4byte	0xb2f
 1566 0b1f 0D       		.uleb128 0xd
 1567 0b20 2F0B0000 		.4byte	0xb2f
 1568 0b24 0D       		.uleb128 0xd
 1569 0b25 350B0000 		.4byte	0xb35
 1570 0b29 0D       		.uleb128 0xd
 1571 0b2a 2C000000 		.4byte	0x2c
 1572 0b2e 00       		.byte	0
 1573 0b2f 0A       		.uleb128 0xa
 1574 0b30 04       		.byte	0x4
 1575 0b31 6C0A0000 		.4byte	0xa6c
 1576 0b35 0A       		.uleb128 0xa
 1577 0b36 04       		.byte	0x4
 1578 0b37 320A0000 		.4byte	0xa32
 1579 0b3b 13       		.uleb128 0x13
 1580 0b3c A9010000 		.4byte	.LASF169
 1581 0b40 11       		.byte	0x11
 1582 0b41 4E01     		.2byte	0x14e
 1583 0b43 470B0000 		.4byte	0xb47
 1584 0b47 0A       		.uleb128 0xa
 1585 0b48 04       		.byte	0x4
 1586 0b49 4D0B0000 		.4byte	0xb4d
 1587 0b4d 0C       		.uleb128 0xc
 1588 0b4e 5D0B0000 		.4byte	0xb5d
 1589 0b52 0D       		.uleb128 0xd
 1590 0b53 2F0B0000 		.4byte	0xb2f
 1591 0b57 0D       		.uleb128 0xd
 1592 0b58 600A0000 		.4byte	0xa60
 1593 0b5c 00       		.byte	0
ARM GAS  /tmp/cc0xND6m.s 			page 29


 1594 0b5d 12       		.uleb128 0x12
 1595 0b5e 28       		.byte	0x28
 1596 0b5f 11       		.byte	0x11
 1597 0b60 5801     		.2byte	0x158
 1598 0b62 F60B0000 		.4byte	0xbf6
 1599 0b66 09       		.uleb128 0x9
 1600 0b67 84010000 		.4byte	.LASF170
 1601 0b6b 11       		.byte	0x11
 1602 0b6c 5C01     		.2byte	0x15c
 1603 0b6e F0080000 		.4byte	0x8f0
 1604 0b72 00       		.byte	0
 1605 0b73 09       		.uleb128 0x9
 1606 0b74 1C030000 		.4byte	.LASF171
 1607 0b78 11       		.byte	0x11
 1608 0b79 6001     		.2byte	0x160
 1609 0b7b 3E0A0000 		.4byte	0xa3e
 1610 0b7f 02       		.byte	0x2
 1611 0b80 09       		.uleb128 0x9
 1612 0b81 CD010000 		.4byte	.LASF172
 1613 0b85 11       		.byte	0x11
 1614 0b86 6401     		.2byte	0x164
 1615 0b88 080B0000 		.4byte	0xb08
 1616 0b8c 04       		.byte	0x4
 1617 0b8d 09       		.uleb128 0x9
 1618 0b8e 0E050000 		.4byte	.LASF173
 1619 0b92 11       		.byte	0x11
 1620 0b93 6801     		.2byte	0x168
 1621 0b95 3B0B0000 		.4byte	0xb3b
 1622 0b99 08       		.byte	0x8
 1623 0b9a 08       		.uleb128 0x8
 1624 0b9b 63723100 		.ascii	"cr1\000"
 1625 0b9f 11       		.byte	0x11
 1626 0ba0 6F01     		.2byte	0x16f
 1627 0ba2 CE000000 		.4byte	0xce
 1628 0ba6 0C       		.byte	0xc
 1629 0ba7 08       		.uleb128 0x8
 1630 0ba8 63723200 		.ascii	"cr2\000"
 1631 0bac 11       		.byte	0x11
 1632 0bad 7601     		.2byte	0x176
 1633 0baf CE000000 		.4byte	0xce
 1634 0bb3 10       		.byte	0x10
 1635 0bb4 09       		.uleb128 0x9
 1636 0bb5 D8070000 		.4byte	.LASF174
 1637 0bb9 11       		.byte	0x11
 1638 0bba 7C01     		.2byte	0x17c
 1639 0bbc CE000000 		.4byte	0xce
 1640 0bc0 14       		.byte	0x14
 1641 0bc1 09       		.uleb128 0x9
 1642 0bc2 DE070000 		.4byte	.LASF175
 1643 0bc6 11       		.byte	0x11
 1644 0bc7 8201     		.2byte	0x182
 1645 0bc9 CE000000 		.4byte	0xce
 1646 0bcd 18       		.byte	0x18
 1647 0bce 09       		.uleb128 0x9
 1648 0bcf E6060000 		.4byte	.LASF176
 1649 0bd3 11       		.byte	0x11
 1650 0bd4 8701     		.2byte	0x187
ARM GAS  /tmp/cc0xND6m.s 			page 30


 1651 0bd6 CE000000 		.4byte	0xce
 1652 0bda 1C       		.byte	0x1c
 1653 0bdb 09       		.uleb128 0x9
 1654 0bdc EB060000 		.4byte	.LASF177
 1655 0be0 11       		.byte	0x11
 1656 0be1 8C01     		.2byte	0x18c
 1657 0be3 CE000000 		.4byte	0xce
 1658 0be7 20       		.byte	0x20
 1659 0be8 09       		.uleb128 0x9
 1660 0be9 F0060000 		.4byte	.LASF178
 1661 0bed 11       		.byte	0x11
 1662 0bee 9101     		.2byte	0x191
 1663 0bf0 CE000000 		.4byte	0xce
 1664 0bf4 24       		.byte	0x24
 1665 0bf5 00       		.byte	0
 1666 0bf6 13       		.uleb128 0x13
 1667 0bf7 01080000 		.4byte	.LASF179
 1668 0bfb 11       		.byte	0x11
 1669 0bfc 9201     		.2byte	0x192
 1670 0bfe 5D0B0000 		.4byte	0xb5d
 1671 0c02 12       		.uleb128 0x12
 1672 0c03 04       		.byte	0x4
 1673 0c04 11       		.byte	0x11
 1674 0c05 9801     		.2byte	0x198
 1675 0c07 190C0000 		.4byte	0xc19
 1676 0c0b 09       		.uleb128 0x9
 1677 0c0c 20020000 		.4byte	.LASF180
 1678 0c10 11       		.byte	0x11
 1679 0c11 9901     		.2byte	0x199
 1680 0c13 CE000000 		.4byte	0xce
 1681 0c17 00       		.byte	0
 1682 0c18 00       		.byte	0
 1683 0c19 13       		.uleb128 0x13
 1684 0c1a FE010000 		.4byte	.LASF181
 1685 0c1e 11       		.byte	0x11
 1686 0c1f 9A01     		.2byte	0x19a
 1687 0c21 020C0000 		.4byte	0xc02
 1688 0c25 0A       		.uleb128 0xa
 1689 0c26 04       		.byte	0x4
 1690 0c27 2B0C0000 		.4byte	0xc2b
 1691 0c2b 16       		.uleb128 0x16
 1692 0c2c 190C0000 		.4byte	0xc19
 1693 0c30 0A       		.uleb128 0xa
 1694 0c31 04       		.byte	0x4
 1695 0c32 360C0000 		.4byte	0xc36
 1696 0c36 16       		.uleb128 0x16
 1697 0c37 F60B0000 		.4byte	0xbf6
 1698 0c3b 0A       		.uleb128 0xa
 1699 0c3c 04       		.byte	0x4
 1700 0c3d 88050000 		.4byte	0x588
 1701 0c41 0A       		.uleb128 0xa
 1702 0c42 04       		.byte	0x4
 1703 0c43 470C0000 		.4byte	0xc47
 1704 0c47 16       		.uleb128 0x16
 1705 0c48 E5080000 		.4byte	0x8e5
 1706 0c4c 1D       		.uleb128 0x1d
 1707 0c4d CF030000 		.4byte	.LASF190
ARM GAS  /tmp/cc0xND6m.s 			page 31


 1708 0c51 01       		.byte	0x1
 1709 0c52 44       		.byte	0x44
 1710 0c53 00000000 		.4byte	.LFB256
 1711 0c57 68000000 		.4byte	.LFE256-.LFB256
 1712 0c5b 01       		.uleb128 0x1
 1713 0c5c 9C       		.byte	0x9c
 1714 0c5d 3E0D0000 		.4byte	0xd3e
 1715 0c61 1E       		.uleb128 0x1e
 1716 0c62 10000000 		.4byte	.LVL0
 1717 0c66 BC0D0000 		.4byte	0xdbc
 1718 0c6a 820C0000 		.4byte	0xc82
 1719 0c6e 1F       		.uleb128 0x1f
 1720 0c6f 01       		.uleb128 0x1
 1721 0c70 52       		.byte	0x52
 1722 0c71 01       		.uleb128 0x1
 1723 0c72 33       		.byte	0x33
 1724 0c73 1F       		.uleb128 0x1f
 1725 0c74 01       		.uleb128 0x1
 1726 0c75 51       		.byte	0x51
 1727 0c76 01       		.uleb128 0x1
 1728 0c77 40       		.byte	0x40
 1729 0c78 1F       		.uleb128 0x1f
 1730 0c79 01       		.uleb128 0x1
 1731 0c7a 50       		.byte	0x50
 1732 0c7b 05       		.uleb128 0x5
 1733 0c7c 0C       		.byte	0xc
 1734 0c7d 00000240 		.4byte	0x40020000
 1735 0c81 00       		.byte	0
 1736 0c82 1E       		.uleb128 0x1e
 1737 0c83 1A000000 		.4byte	.LVL1
 1738 0c87 BC0D0000 		.4byte	0xdbc
 1739 0c8b A00C0000 		.4byte	0xca0
 1740 0c8f 1F       		.uleb128 0x1f
 1741 0c90 01       		.uleb128 0x1
 1742 0c91 52       		.byte	0x52
 1743 0c92 01       		.uleb128 0x1
 1744 0c93 33       		.byte	0x33
 1745 0c94 1F       		.uleb128 0x1f
 1746 0c95 01       		.uleb128 0x1
 1747 0c96 51       		.byte	0x51
 1748 0c97 01       		.uleb128 0x1
 1749 0c98 31       		.byte	0x31
 1750 0c99 1F       		.uleb128 0x1f
 1751 0c9a 01       		.uleb128 0x1
 1752 0c9b 50       		.byte	0x50
 1753 0c9c 02       		.uleb128 0x2
 1754 0c9d 74       		.byte	0x74
 1755 0c9e 00       		.sleb128 0
 1756 0c9f 00       		.byte	0
 1757 0ca0 1E       		.uleb128 0x1e
 1758 0ca1 24000000 		.4byte	.LVL2
 1759 0ca5 BC0D0000 		.4byte	0xdbc
 1760 0ca9 BE0C0000 		.4byte	0xcbe
 1761 0cad 1F       		.uleb128 0x1f
 1762 0cae 01       		.uleb128 0x1
 1763 0caf 52       		.byte	0x52
 1764 0cb0 01       		.uleb128 0x1
ARM GAS  /tmp/cc0xND6m.s 			page 32


 1765 0cb1 33       		.byte	0x33
 1766 0cb2 1F       		.uleb128 0x1f
 1767 0cb3 01       		.uleb128 0x1
 1768 0cb4 51       		.byte	0x51
 1769 0cb5 01       		.uleb128 0x1
 1770 0cb6 32       		.byte	0x32
 1771 0cb7 1F       		.uleb128 0x1f
 1772 0cb8 01       		.uleb128 0x1
 1773 0cb9 50       		.byte	0x50
 1774 0cba 02       		.uleb128 0x2
 1775 0cbb 74       		.byte	0x74
 1776 0cbc 00       		.sleb128 0
 1777 0cbd 00       		.byte	0
 1778 0cbe 1E       		.uleb128 0x1e
 1779 0cbf 2E000000 		.4byte	.LVL3
 1780 0cc3 BC0D0000 		.4byte	0xdbc
 1781 0cc7 DC0C0000 		.4byte	0xcdc
 1782 0ccb 1F       		.uleb128 0x1f
 1783 0ccc 01       		.uleb128 0x1
 1784 0ccd 52       		.byte	0x52
 1785 0cce 01       		.uleb128 0x1
 1786 0ccf 33       		.byte	0x33
 1787 0cd0 1F       		.uleb128 0x1f
 1788 0cd1 01       		.uleb128 0x1
 1789 0cd2 51       		.byte	0x51
 1790 0cd3 01       		.uleb128 0x1
 1791 0cd4 34       		.byte	0x34
 1792 0cd5 1F       		.uleb128 0x1f
 1793 0cd6 01       		.uleb128 0x1
 1794 0cd7 50       		.byte	0x50
 1795 0cd8 02       		.uleb128 0x2
 1796 0cd9 74       		.byte	0x74
 1797 0cda 00       		.sleb128 0
 1798 0cdb 00       		.byte	0
 1799 0cdc 1E       		.uleb128 0x1e
 1800 0cdd 38000000 		.4byte	.LVL4
 1801 0ce1 BC0D0000 		.4byte	0xdbc
 1802 0ce5 FA0C0000 		.4byte	0xcfa
 1803 0ce9 1F       		.uleb128 0x1f
 1804 0cea 01       		.uleb128 0x1
 1805 0ceb 52       		.byte	0x52
 1806 0cec 01       		.uleb128 0x1
 1807 0ced 33       		.byte	0x33
 1808 0cee 1F       		.uleb128 0x1f
 1809 0cef 01       		.uleb128 0x1
 1810 0cf0 51       		.byte	0x51
 1811 0cf1 01       		.uleb128 0x1
 1812 0cf2 38       		.byte	0x38
 1813 0cf3 1F       		.uleb128 0x1f
 1814 0cf4 01       		.uleb128 0x1
 1815 0cf5 50       		.byte	0x50
 1816 0cf6 02       		.uleb128 0x2
 1817 0cf7 74       		.byte	0x74
 1818 0cf8 00       		.sleb128 0
 1819 0cf9 00       		.byte	0
 1820 0cfa 1E       		.uleb128 0x1e
 1821 0cfb 40000000 		.4byte	.LVL5
ARM GAS  /tmp/cc0xND6m.s 			page 33


 1822 0cff D80D0000 		.4byte	0xdd8
 1823 0d03 130D0000 		.4byte	0xd13
 1824 0d07 1F       		.uleb128 0x1f
 1825 0d08 01       		.uleb128 0x1
 1826 0d09 51       		.byte	0x51
 1827 0d0a 01       		.uleb128 0x1
 1828 0d0b 30       		.byte	0x30
 1829 0d0c 1F       		.uleb128 0x1f
 1830 0d0d 01       		.uleb128 0x1
 1831 0d0e 50       		.byte	0x50
 1832 0d0f 02       		.uleb128 0x2
 1833 0d10 75       		.byte	0x75
 1834 0d11 00       		.sleb128 0
 1835 0d12 00       		.byte	0
 1836 0d13 20       		.uleb128 0x20
 1837 0d14 44000000 		.4byte	.LVL6
 1838 0d18 EE0D0000 		.4byte	0xdee
 1839 0d1c 21       		.uleb128 0x21
 1840 0d1d 54000000 		.4byte	.LVL7
 1841 0d21 F60D0000 		.4byte	0xdf6
 1842 0d25 1F       		.uleb128 0x1f
 1843 0d26 01       		.uleb128 0x1
 1844 0d27 53       		.byte	0x53
 1845 0d28 01       		.uleb128 0x1
 1846 0d29 31       		.byte	0x31
 1847 0d2a 1F       		.uleb128 0x1f
 1848 0d2b 01       		.uleb128 0x1
 1849 0d2c 52       		.byte	0x52
 1850 0d2d 05       		.uleb128 0x5
 1851 0d2e 03       		.byte	0x3
 1852 0d2f 00000000 		.4byte	.LANCHOR1
 1853 0d33 1F       		.uleb128 0x1f
 1854 0d34 01       		.uleb128 0x1
 1855 0d35 51       		.byte	0x51
 1856 0d36 05       		.uleb128 0x5
 1857 0d37 03       		.byte	0x3
 1858 0d38 00000000 		.4byte	.LANCHOR0
 1859 0d3c 00       		.byte	0
 1860 0d3d 00       		.byte	0
 1861 0d3e 22       		.uleb128 0x22
 1862 0d3f 15040000 		.4byte	.LASF191
 1863 0d43 01       		.byte	0x1
 1864 0d44 54       		.byte	0x54
 1865 0d45 B8000000 		.4byte	0xb8
 1866 0d49 00000000 		.4byte	.LFB257
 1867 0d4d 14000000 		.4byte	.LFE257-.LFB257
 1868 0d51 01       		.uleb128 0x1
 1869 0d52 9C       		.byte	0x9c
 1870 0d53 670D0000 		.4byte	0xd67
 1871 0d57 23       		.uleb128 0x23
 1872 0d58 70696E00 		.ascii	"pin\000"
 1873 0d5c 01       		.byte	0x1
 1874 0d5d 54       		.byte	0x54
 1875 0d5e 25000000 		.4byte	0x25
 1876 0d62 00000000 		.4byte	.LLST0
 1877 0d66 00       		.byte	0
 1878 0d67 17       		.uleb128 0x17
ARM GAS  /tmp/cc0xND6m.s 			page 34


 1879 0d68 320A0000 		.4byte	0xa32
 1880 0d6c 770D0000 		.4byte	0xd77
 1881 0d70 18       		.uleb128 0x18
 1882 0d71 8A040000 		.4byte	0x48a
 1883 0d75 07       		.byte	0x7
 1884 0d76 00       		.byte	0
 1885 0d77 24       		.uleb128 0x24
 1886 0d78 7E030000 		.4byte	.LASF161
 1887 0d7c 01       		.byte	0x1
 1888 0d7d 1D       		.byte	0x1d
 1889 0d7e 670D0000 		.4byte	0xd67
 1890 0d82 05       		.uleb128 0x5
 1891 0d83 03       		.byte	0x3
 1892 0d84 00000000 		.4byte	samples
 1893 0d88 24       		.uleb128 0x24
 1894 0d89 A7000000 		.4byte	.LASF182
 1895 0d8d 01       		.byte	0x1
 1896 0d8e 2F       		.byte	0x2f
 1897 0d8f 360C0000 		.4byte	0xc36
 1898 0d93 05       		.uleb128 0x5
 1899 0d94 03       		.byte	0x3
 1900 0d95 00000000 		.4byte	adcgrpcfg
 1901 0d99 25       		.uleb128 0x25
 1902 0d9a C7000000 		.4byte	.LASF183
 1903 0d9e 12       		.byte	0x12
 1904 0d9f A706     		.2byte	0x6a7
 1905 0da1 E4000000 		.4byte	0xe4
 1906 0da5 26       		.uleb128 0x26
 1907 0da6 636800   		.ascii	"ch\000"
 1908 0da9 07       		.byte	0x7
 1909 0daa 0902     		.2byte	0x209
 1910 0dac 23040000 		.4byte	0x423
 1911 0db0 25       		.uleb128 0x25
 1912 0db1 ED070000 		.4byte	.LASF184
 1913 0db5 11       		.byte	0x11
 1914 0db6 1402     		.2byte	0x214
 1915 0db8 6C0A0000 		.4byte	0xa6c
 1916 0dbc 27       		.uleb128 0x27
 1917 0dbd 61070000 		.4byte	.LASF185
 1918 0dc1 0F       		.byte	0xf
 1919 0dc2 E001     		.2byte	0x1e0
 1920 0dc4 D80D0000 		.4byte	0xdd8
 1921 0dc8 0D       		.uleb128 0xd
 1922 0dc9 E8090000 		.4byte	0x9e8
 1923 0dcd 0D       		.uleb128 0xd
 1924 0dce D0090000 		.4byte	0x9d0
 1925 0dd2 0D       		.uleb128 0xd
 1926 0dd3 DC090000 		.4byte	0x9dc
 1927 0dd7 00       		.byte	0
 1928 0dd8 28       		.uleb128 0x28
 1929 0dd9 AF070000 		.4byte	.LASF186
 1930 0ddd 10       		.byte	0x10
 1931 0dde F8       		.byte	0xf8
 1932 0ddf EE0D0000 		.4byte	0xdee
 1933 0de3 0D       		.uleb128 0xd
 1934 0de4 2F0B0000 		.4byte	0xb2f
 1935 0de8 0D       		.uleb128 0xd
ARM GAS  /tmp/cc0xND6m.s 			page 35


 1936 0de9 250C0000 		.4byte	0xc25
 1937 0ded 00       		.byte	0
 1938 0dee 29       		.uleb128 0x29
 1939 0def 4F000000 		.4byte	.LASF192
 1940 0df3 11       		.byte	0x11
 1941 0df4 2702     		.2byte	0x227
 1942 0df6 2A       		.uleb128 0x2a
 1943 0df7 88070000 		.4byte	.LASF193
 1944 0dfb 10       		.byte	0x10
 1945 0dfc FA       		.byte	0xfa
 1946 0dfd 0D       		.uleb128 0xd
 1947 0dfe 2F0B0000 		.4byte	0xb2f
 1948 0e02 0D       		.uleb128 0xd
 1949 0e03 300C0000 		.4byte	0xc30
 1950 0e07 0D       		.uleb128 0xd
 1951 0e08 350B0000 		.4byte	0xb35
 1952 0e0c 0D       		.uleb128 0xd
 1953 0e0d 2C000000 		.4byte	0x2c
 1954 0e11 00       		.byte	0
 1955 0e12 00       		.byte	0
 1956              		.section	.debug_abbrev,"",%progbits
 1957              	.Ldebug_abbrev0:
 1958 0000 01       		.uleb128 0x1
 1959 0001 11       		.uleb128 0x11
 1960 0002 01       		.byte	0x1
 1961 0003 25       		.uleb128 0x25
 1962 0004 0E       		.uleb128 0xe
 1963 0005 13       		.uleb128 0x13
 1964 0006 0B       		.uleb128 0xb
 1965 0007 03       		.uleb128 0x3
 1966 0008 0E       		.uleb128 0xe
 1967 0009 1B       		.uleb128 0x1b
 1968 000a 0E       		.uleb128 0xe
 1969 000b 55       		.uleb128 0x55
 1970 000c 17       		.uleb128 0x17
 1971 000d 11       		.uleb128 0x11
 1972 000e 01       		.uleb128 0x1
 1973 000f 10       		.uleb128 0x10
 1974 0010 17       		.uleb128 0x17
 1975 0011 00       		.byte	0
 1976 0012 00       		.byte	0
 1977 0013 02       		.uleb128 0x2
 1978 0014 24       		.uleb128 0x24
 1979 0015 00       		.byte	0
 1980 0016 0B       		.uleb128 0xb
 1981 0017 0B       		.uleb128 0xb
 1982 0018 3E       		.uleb128 0x3e
 1983 0019 0B       		.uleb128 0xb
 1984 001a 03       		.uleb128 0x3
 1985 001b 08       		.uleb128 0x8
 1986 001c 00       		.byte	0
 1987 001d 00       		.byte	0
 1988 001e 03       		.uleb128 0x3
 1989 001f 16       		.uleb128 0x16
 1990 0020 00       		.byte	0
 1991 0021 03       		.uleb128 0x3
 1992 0022 0E       		.uleb128 0xe
ARM GAS  /tmp/cc0xND6m.s 			page 36


 1993 0023 3A       		.uleb128 0x3a
 1994 0024 0B       		.uleb128 0xb
 1995 0025 3B       		.uleb128 0x3b
 1996 0026 0B       		.uleb128 0xb
 1997 0027 49       		.uleb128 0x49
 1998 0028 13       		.uleb128 0x13
 1999 0029 00       		.byte	0
 2000 002a 00       		.byte	0
 2001 002b 04       		.uleb128 0x4
 2002 002c 24       		.uleb128 0x24
 2003 002d 00       		.byte	0
 2004 002e 0B       		.uleb128 0xb
 2005 002f 0B       		.uleb128 0xb
 2006 0030 3E       		.uleb128 0x3e
 2007 0031 0B       		.uleb128 0xb
 2008 0032 03       		.uleb128 0x3
 2009 0033 0E       		.uleb128 0xe
 2010 0034 00       		.byte	0
 2011 0035 00       		.byte	0
 2012 0036 05       		.uleb128 0x5
 2013 0037 35       		.uleb128 0x35
 2014 0038 00       		.byte	0
 2015 0039 49       		.uleb128 0x49
 2016 003a 13       		.uleb128 0x13
 2017 003b 00       		.byte	0
 2018 003c 00       		.byte	0
 2019 003d 06       		.uleb128 0x6
 2020 003e 13       		.uleb128 0x13
 2021 003f 01       		.byte	0x1
 2022 0040 03       		.uleb128 0x3
 2023 0041 0E       		.uleb128 0xe
 2024 0042 0B       		.uleb128 0xb
 2025 0043 0B       		.uleb128 0xb
 2026 0044 3A       		.uleb128 0x3a
 2027 0045 0B       		.uleb128 0xb
 2028 0046 3B       		.uleb128 0x3b
 2029 0047 0B       		.uleb128 0xb
 2030 0048 01       		.uleb128 0x1
 2031 0049 13       		.uleb128 0x13
 2032 004a 00       		.byte	0
 2033 004b 00       		.byte	0
 2034 004c 07       		.uleb128 0x7
 2035 004d 0D       		.uleb128 0xd
 2036 004e 00       		.byte	0
 2037 004f 03       		.uleb128 0x3
 2038 0050 0E       		.uleb128 0xe
 2039 0051 3A       		.uleb128 0x3a
 2040 0052 0B       		.uleb128 0xb
 2041 0053 3B       		.uleb128 0x3b
 2042 0054 0B       		.uleb128 0xb
 2043 0055 49       		.uleb128 0x49
 2044 0056 13       		.uleb128 0x13
 2045 0057 38       		.uleb128 0x38
 2046 0058 0B       		.uleb128 0xb
 2047 0059 00       		.byte	0
 2048 005a 00       		.byte	0
 2049 005b 08       		.uleb128 0x8
ARM GAS  /tmp/cc0xND6m.s 			page 37


 2050 005c 0D       		.uleb128 0xd
 2051 005d 00       		.byte	0
 2052 005e 03       		.uleb128 0x3
 2053 005f 08       		.uleb128 0x8
 2054 0060 3A       		.uleb128 0x3a
 2055 0061 0B       		.uleb128 0xb
 2056 0062 3B       		.uleb128 0x3b
 2057 0063 05       		.uleb128 0x5
 2058 0064 49       		.uleb128 0x49
 2059 0065 13       		.uleb128 0x13
 2060 0066 38       		.uleb128 0x38
 2061 0067 0B       		.uleb128 0xb
 2062 0068 00       		.byte	0
 2063 0069 00       		.byte	0
 2064 006a 09       		.uleb128 0x9
 2065 006b 0D       		.uleb128 0xd
 2066 006c 00       		.byte	0
 2067 006d 03       		.uleb128 0x3
 2068 006e 0E       		.uleb128 0xe
 2069 006f 3A       		.uleb128 0x3a
 2070 0070 0B       		.uleb128 0xb
 2071 0071 3B       		.uleb128 0x3b
 2072 0072 05       		.uleb128 0x5
 2073 0073 49       		.uleb128 0x49
 2074 0074 13       		.uleb128 0x13
 2075 0075 38       		.uleb128 0x38
 2076 0076 0B       		.uleb128 0xb
 2077 0077 00       		.byte	0
 2078 0078 00       		.byte	0
 2079 0079 0A       		.uleb128 0xa
 2080 007a 0F       		.uleb128 0xf
 2081 007b 00       		.byte	0
 2082 007c 0B       		.uleb128 0xb
 2083 007d 0B       		.uleb128 0xb
 2084 007e 49       		.uleb128 0x49
 2085 007f 13       		.uleb128 0x13
 2086 0080 00       		.byte	0
 2087 0081 00       		.byte	0
 2088 0082 0B       		.uleb128 0xb
 2089 0083 13       		.uleb128 0x13
 2090 0084 01       		.byte	0x1
 2091 0085 03       		.uleb128 0x3
 2092 0086 0E       		.uleb128 0xe
 2093 0087 0B       		.uleb128 0xb
 2094 0088 0B       		.uleb128 0xb
 2095 0089 3A       		.uleb128 0x3a
 2096 008a 0B       		.uleb128 0xb
 2097 008b 3B       		.uleb128 0x3b
 2098 008c 05       		.uleb128 0x5
 2099 008d 01       		.uleb128 0x1
 2100 008e 13       		.uleb128 0x13
 2101 008f 00       		.byte	0
 2102 0090 00       		.byte	0
 2103 0091 0C       		.uleb128 0xc
 2104 0092 15       		.uleb128 0x15
 2105 0093 01       		.byte	0x1
 2106 0094 27       		.uleb128 0x27
ARM GAS  /tmp/cc0xND6m.s 			page 38


 2107 0095 19       		.uleb128 0x19
 2108 0096 01       		.uleb128 0x1
 2109 0097 13       		.uleb128 0x13
 2110 0098 00       		.byte	0
 2111 0099 00       		.byte	0
 2112 009a 0D       		.uleb128 0xd
 2113 009b 05       		.uleb128 0x5
 2114 009c 00       		.byte	0
 2115 009d 49       		.uleb128 0x49
 2116 009e 13       		.uleb128 0x13
 2117 009f 00       		.byte	0
 2118 00a0 00       		.byte	0
 2119 00a1 0E       		.uleb128 0xe
 2120 00a2 0F       		.uleb128 0xf
 2121 00a3 00       		.byte	0
 2122 00a4 0B       		.uleb128 0xb
 2123 00a5 0B       		.uleb128 0xb
 2124 00a6 00       		.byte	0
 2125 00a7 00       		.byte	0
 2126 00a8 0F       		.uleb128 0xf
 2127 00a9 13       		.uleb128 0x13
 2128 00aa 01       		.byte	0x1
 2129 00ab 03       		.uleb128 0x3
 2130 00ac 0E       		.uleb128 0xe
 2131 00ad 0B       		.uleb128 0xb
 2132 00ae 05       		.uleb128 0x5
 2133 00af 3A       		.uleb128 0x3a
 2134 00b0 0B       		.uleb128 0xb
 2135 00b1 3B       		.uleb128 0x3b
 2136 00b2 05       		.uleb128 0x5
 2137 00b3 01       		.uleb128 0x1
 2138 00b4 13       		.uleb128 0x13
 2139 00b5 00       		.byte	0
 2140 00b6 00       		.byte	0
 2141 00b7 10       		.uleb128 0x10
 2142 00b8 13       		.uleb128 0x13
 2143 00b9 01       		.byte	0x1
 2144 00ba 0B       		.uleb128 0xb
 2145 00bb 0B       		.uleb128 0xb
 2146 00bc 3A       		.uleb128 0x3a
 2147 00bd 0B       		.uleb128 0xb
 2148 00be 3B       		.uleb128 0x3b
 2149 00bf 0B       		.uleb128 0xb
 2150 00c0 01       		.uleb128 0x1
 2151 00c1 13       		.uleb128 0x13
 2152 00c2 00       		.byte	0
 2153 00c3 00       		.byte	0
 2154 00c4 11       		.uleb128 0x11
 2155 00c5 0D       		.uleb128 0xd
 2156 00c6 00       		.byte	0
 2157 00c7 03       		.uleb128 0x3
 2158 00c8 08       		.uleb128 0x8
 2159 00c9 3A       		.uleb128 0x3a
 2160 00ca 0B       		.uleb128 0xb
 2161 00cb 3B       		.uleb128 0x3b
 2162 00cc 0B       		.uleb128 0xb
 2163 00cd 49       		.uleb128 0x49
ARM GAS  /tmp/cc0xND6m.s 			page 39


 2164 00ce 13       		.uleb128 0x13
 2165 00cf 38       		.uleb128 0x38
 2166 00d0 0B       		.uleb128 0xb
 2167 00d1 00       		.byte	0
 2168 00d2 00       		.byte	0
 2169 00d3 12       		.uleb128 0x12
 2170 00d4 13       		.uleb128 0x13
 2171 00d5 01       		.byte	0x1
 2172 00d6 0B       		.uleb128 0xb
 2173 00d7 0B       		.uleb128 0xb
 2174 00d8 3A       		.uleb128 0x3a
 2175 00d9 0B       		.uleb128 0xb
 2176 00da 3B       		.uleb128 0x3b
 2177 00db 05       		.uleb128 0x5
 2178 00dc 01       		.uleb128 0x1
 2179 00dd 13       		.uleb128 0x13
 2180 00de 00       		.byte	0
 2181 00df 00       		.byte	0
 2182 00e0 13       		.uleb128 0x13
 2183 00e1 16       		.uleb128 0x16
 2184 00e2 00       		.byte	0
 2185 00e3 03       		.uleb128 0x3
 2186 00e4 0E       		.uleb128 0xe
 2187 00e5 3A       		.uleb128 0x3a
 2188 00e6 0B       		.uleb128 0xb
 2189 00e7 3B       		.uleb128 0x3b
 2190 00e8 05       		.uleb128 0x5
 2191 00e9 49       		.uleb128 0x49
 2192 00ea 13       		.uleb128 0x13
 2193 00eb 00       		.byte	0
 2194 00ec 00       		.byte	0
 2195 00ed 14       		.uleb128 0x14
 2196 00ee 17       		.uleb128 0x17
 2197 00ef 01       		.byte	0x1
 2198 00f0 0B       		.uleb128 0xb
 2199 00f1 0B       		.uleb128 0xb
 2200 00f2 3A       		.uleb128 0x3a
 2201 00f3 0B       		.uleb128 0xb
 2202 00f4 3B       		.uleb128 0x3b
 2203 00f5 0B       		.uleb128 0xb
 2204 00f6 01       		.uleb128 0x1
 2205 00f7 13       		.uleb128 0x13
 2206 00f8 00       		.byte	0
 2207 00f9 00       		.byte	0
 2208 00fa 15       		.uleb128 0x15
 2209 00fb 0D       		.uleb128 0xd
 2210 00fc 00       		.byte	0
 2211 00fd 03       		.uleb128 0x3
 2212 00fe 0E       		.uleb128 0xe
 2213 00ff 3A       		.uleb128 0x3a
 2214 0100 0B       		.uleb128 0xb
 2215 0101 3B       		.uleb128 0x3b
 2216 0102 05       		.uleb128 0x5
 2217 0103 49       		.uleb128 0x49
 2218 0104 13       		.uleb128 0x13
 2219 0105 00       		.byte	0
 2220 0106 00       		.byte	0
ARM GAS  /tmp/cc0xND6m.s 			page 40


 2221 0107 16       		.uleb128 0x16
 2222 0108 26       		.uleb128 0x26
 2223 0109 00       		.byte	0
 2224 010a 49       		.uleb128 0x49
 2225 010b 13       		.uleb128 0x13
 2226 010c 00       		.byte	0
 2227 010d 00       		.byte	0
 2228 010e 17       		.uleb128 0x17
 2229 010f 01       		.uleb128 0x1
 2230 0110 01       		.byte	0x1
 2231 0111 49       		.uleb128 0x49
 2232 0112 13       		.uleb128 0x13
 2233 0113 01       		.uleb128 0x1
 2234 0114 13       		.uleb128 0x13
 2235 0115 00       		.byte	0
 2236 0116 00       		.byte	0
 2237 0117 18       		.uleb128 0x18
 2238 0118 21       		.uleb128 0x21
 2239 0119 00       		.byte	0
 2240 011a 49       		.uleb128 0x49
 2241 011b 13       		.uleb128 0x13
 2242 011c 2F       		.uleb128 0x2f
 2243 011d 0B       		.uleb128 0xb
 2244 011e 00       		.byte	0
 2245 011f 00       		.byte	0
 2246 0120 19       		.uleb128 0x19
 2247 0121 0D       		.uleb128 0xd
 2248 0122 00       		.byte	0
 2249 0123 03       		.uleb128 0x3
 2250 0124 08       		.uleb128 0x8
 2251 0125 3A       		.uleb128 0x3a
 2252 0126 0B       		.uleb128 0xb
 2253 0127 3B       		.uleb128 0x3b
 2254 0128 0B       		.uleb128 0xb
 2255 0129 49       		.uleb128 0x49
 2256 012a 13       		.uleb128 0x13
 2257 012b 00       		.byte	0
 2258 012c 00       		.byte	0
 2259 012d 1A       		.uleb128 0x1a
 2260 012e 04       		.uleb128 0x4
 2261 012f 01       		.byte	0x1
 2262 0130 0B       		.uleb128 0xb
 2263 0131 0B       		.uleb128 0xb
 2264 0132 3A       		.uleb128 0x3a
 2265 0133 0B       		.uleb128 0xb
 2266 0134 3B       		.uleb128 0x3b
 2267 0135 0B       		.uleb128 0xb
 2268 0136 01       		.uleb128 0x1
 2269 0137 13       		.uleb128 0x13
 2270 0138 00       		.byte	0
 2271 0139 00       		.byte	0
 2272 013a 1B       		.uleb128 0x1b
 2273 013b 28       		.uleb128 0x28
 2274 013c 00       		.byte	0
 2275 013d 03       		.uleb128 0x3
 2276 013e 0E       		.uleb128 0xe
 2277 013f 1C       		.uleb128 0x1c
ARM GAS  /tmp/cc0xND6m.s 			page 41


 2278 0140 0D       		.uleb128 0xd
 2279 0141 00       		.byte	0
 2280 0142 00       		.byte	0
 2281 0143 1C       		.uleb128 0x1c
 2282 0144 04       		.uleb128 0x4
 2283 0145 01       		.byte	0x1
 2284 0146 0B       		.uleb128 0xb
 2285 0147 0B       		.uleb128 0xb
 2286 0148 3A       		.uleb128 0x3a
 2287 0149 0B       		.uleb128 0xb
 2288 014a 3B       		.uleb128 0x3b
 2289 014b 05       		.uleb128 0x5
 2290 014c 01       		.uleb128 0x1
 2291 014d 13       		.uleb128 0x13
 2292 014e 00       		.byte	0
 2293 014f 00       		.byte	0
 2294 0150 1D       		.uleb128 0x1d
 2295 0151 2E       		.uleb128 0x2e
 2296 0152 01       		.byte	0x1
 2297 0153 3F       		.uleb128 0x3f
 2298 0154 19       		.uleb128 0x19
 2299 0155 03       		.uleb128 0x3
 2300 0156 0E       		.uleb128 0xe
 2301 0157 3A       		.uleb128 0x3a
 2302 0158 0B       		.uleb128 0xb
 2303 0159 3B       		.uleb128 0x3b
 2304 015a 0B       		.uleb128 0xb
 2305 015b 27       		.uleb128 0x27
 2306 015c 19       		.uleb128 0x19
 2307 015d 11       		.uleb128 0x11
 2308 015e 01       		.uleb128 0x1
 2309 015f 12       		.uleb128 0x12
 2310 0160 06       		.uleb128 0x6
 2311 0161 40       		.uleb128 0x40
 2312 0162 18       		.uleb128 0x18
 2313 0163 9742     		.uleb128 0x2117
 2314 0165 19       		.uleb128 0x19
 2315 0166 01       		.uleb128 0x1
 2316 0167 13       		.uleb128 0x13
 2317 0168 00       		.byte	0
 2318 0169 00       		.byte	0
 2319 016a 1E       		.uleb128 0x1e
 2320 016b 898201   		.uleb128 0x4109
 2321 016e 01       		.byte	0x1
 2322 016f 11       		.uleb128 0x11
 2323 0170 01       		.uleb128 0x1
 2324 0171 31       		.uleb128 0x31
 2325 0172 13       		.uleb128 0x13
 2326 0173 01       		.uleb128 0x1
 2327 0174 13       		.uleb128 0x13
 2328 0175 00       		.byte	0
 2329 0176 00       		.byte	0
 2330 0177 1F       		.uleb128 0x1f
 2331 0178 8A8201   		.uleb128 0x410a
 2332 017b 00       		.byte	0
 2333 017c 02       		.uleb128 0x2
 2334 017d 18       		.uleb128 0x18
ARM GAS  /tmp/cc0xND6m.s 			page 42


 2335 017e 9142     		.uleb128 0x2111
 2336 0180 18       		.uleb128 0x18
 2337 0181 00       		.byte	0
 2338 0182 00       		.byte	0
 2339 0183 20       		.uleb128 0x20
 2340 0184 898201   		.uleb128 0x4109
 2341 0187 00       		.byte	0
 2342 0188 11       		.uleb128 0x11
 2343 0189 01       		.uleb128 0x1
 2344 018a 31       		.uleb128 0x31
 2345 018b 13       		.uleb128 0x13
 2346 018c 00       		.byte	0
 2347 018d 00       		.byte	0
 2348 018e 21       		.uleb128 0x21
 2349 018f 898201   		.uleb128 0x4109
 2350 0192 01       		.byte	0x1
 2351 0193 11       		.uleb128 0x11
 2352 0194 01       		.uleb128 0x1
 2353 0195 9542     		.uleb128 0x2115
 2354 0197 19       		.uleb128 0x19
 2355 0198 31       		.uleb128 0x31
 2356 0199 13       		.uleb128 0x13
 2357 019a 00       		.byte	0
 2358 019b 00       		.byte	0
 2359 019c 22       		.uleb128 0x22
 2360 019d 2E       		.uleb128 0x2e
 2361 019e 01       		.byte	0x1
 2362 019f 3F       		.uleb128 0x3f
 2363 01a0 19       		.uleb128 0x19
 2364 01a1 03       		.uleb128 0x3
 2365 01a2 0E       		.uleb128 0xe
 2366 01a3 3A       		.uleb128 0x3a
 2367 01a4 0B       		.uleb128 0xb
 2368 01a5 3B       		.uleb128 0x3b
 2369 01a6 0B       		.uleb128 0xb
 2370 01a7 27       		.uleb128 0x27
 2371 01a8 19       		.uleb128 0x19
 2372 01a9 49       		.uleb128 0x49
 2373 01aa 13       		.uleb128 0x13
 2374 01ab 11       		.uleb128 0x11
 2375 01ac 01       		.uleb128 0x1
 2376 01ad 12       		.uleb128 0x12
 2377 01ae 06       		.uleb128 0x6
 2378 01af 40       		.uleb128 0x40
 2379 01b0 18       		.uleb128 0x18
 2380 01b1 9742     		.uleb128 0x2117
 2381 01b3 19       		.uleb128 0x19
 2382 01b4 01       		.uleb128 0x1
 2383 01b5 13       		.uleb128 0x13
 2384 01b6 00       		.byte	0
 2385 01b7 00       		.byte	0
 2386 01b8 23       		.uleb128 0x23
 2387 01b9 05       		.uleb128 0x5
 2388 01ba 00       		.byte	0
 2389 01bb 03       		.uleb128 0x3
 2390 01bc 08       		.uleb128 0x8
 2391 01bd 3A       		.uleb128 0x3a
ARM GAS  /tmp/cc0xND6m.s 			page 43


 2392 01be 0B       		.uleb128 0xb
 2393 01bf 3B       		.uleb128 0x3b
 2394 01c0 0B       		.uleb128 0xb
 2395 01c1 49       		.uleb128 0x49
 2396 01c2 13       		.uleb128 0x13
 2397 01c3 02       		.uleb128 0x2
 2398 01c4 17       		.uleb128 0x17
 2399 01c5 00       		.byte	0
 2400 01c6 00       		.byte	0
 2401 01c7 24       		.uleb128 0x24
 2402 01c8 34       		.uleb128 0x34
 2403 01c9 00       		.byte	0
 2404 01ca 03       		.uleb128 0x3
 2405 01cb 0E       		.uleb128 0xe
 2406 01cc 3A       		.uleb128 0x3a
 2407 01cd 0B       		.uleb128 0xb
 2408 01ce 3B       		.uleb128 0x3b
 2409 01cf 0B       		.uleb128 0xb
 2410 01d0 49       		.uleb128 0x49
 2411 01d1 13       		.uleb128 0x13
 2412 01d2 02       		.uleb128 0x2
 2413 01d3 18       		.uleb128 0x18
 2414 01d4 00       		.byte	0
 2415 01d5 00       		.byte	0
 2416 01d6 25       		.uleb128 0x25
 2417 01d7 34       		.uleb128 0x34
 2418 01d8 00       		.byte	0
 2419 01d9 03       		.uleb128 0x3
 2420 01da 0E       		.uleb128 0xe
 2421 01db 3A       		.uleb128 0x3a
 2422 01dc 0B       		.uleb128 0xb
 2423 01dd 3B       		.uleb128 0x3b
 2424 01de 05       		.uleb128 0x5
 2425 01df 49       		.uleb128 0x49
 2426 01e0 13       		.uleb128 0x13
 2427 01e1 3F       		.uleb128 0x3f
 2428 01e2 19       		.uleb128 0x19
 2429 01e3 3C       		.uleb128 0x3c
 2430 01e4 19       		.uleb128 0x19
 2431 01e5 00       		.byte	0
 2432 01e6 00       		.byte	0
 2433 01e7 26       		.uleb128 0x26
 2434 01e8 34       		.uleb128 0x34
 2435 01e9 00       		.byte	0
 2436 01ea 03       		.uleb128 0x3
 2437 01eb 08       		.uleb128 0x8
 2438 01ec 3A       		.uleb128 0x3a
 2439 01ed 0B       		.uleb128 0xb
 2440 01ee 3B       		.uleb128 0x3b
 2441 01ef 05       		.uleb128 0x5
 2442 01f0 49       		.uleb128 0x49
 2443 01f1 13       		.uleb128 0x13
 2444 01f2 3F       		.uleb128 0x3f
 2445 01f3 19       		.uleb128 0x19
 2446 01f4 3C       		.uleb128 0x3c
 2447 01f5 19       		.uleb128 0x19
 2448 01f6 00       		.byte	0
ARM GAS  /tmp/cc0xND6m.s 			page 44


 2449 01f7 00       		.byte	0
 2450 01f8 27       		.uleb128 0x27
 2451 01f9 2E       		.uleb128 0x2e
 2452 01fa 01       		.byte	0x1
 2453 01fb 3F       		.uleb128 0x3f
 2454 01fc 19       		.uleb128 0x19
 2455 01fd 03       		.uleb128 0x3
 2456 01fe 0E       		.uleb128 0xe
 2457 01ff 3A       		.uleb128 0x3a
 2458 0200 0B       		.uleb128 0xb
 2459 0201 3B       		.uleb128 0x3b
 2460 0202 05       		.uleb128 0x5
 2461 0203 27       		.uleb128 0x27
 2462 0204 19       		.uleb128 0x19
 2463 0205 3C       		.uleb128 0x3c
 2464 0206 19       		.uleb128 0x19
 2465 0207 01       		.uleb128 0x1
 2466 0208 13       		.uleb128 0x13
 2467 0209 00       		.byte	0
 2468 020a 00       		.byte	0
 2469 020b 28       		.uleb128 0x28
 2470 020c 2E       		.uleb128 0x2e
 2471 020d 01       		.byte	0x1
 2472 020e 3F       		.uleb128 0x3f
 2473 020f 19       		.uleb128 0x19
 2474 0210 03       		.uleb128 0x3
 2475 0211 0E       		.uleb128 0xe
 2476 0212 3A       		.uleb128 0x3a
 2477 0213 0B       		.uleb128 0xb
 2478 0214 3B       		.uleb128 0x3b
 2479 0215 0B       		.uleb128 0xb
 2480 0216 27       		.uleb128 0x27
 2481 0217 19       		.uleb128 0x19
 2482 0218 3C       		.uleb128 0x3c
 2483 0219 19       		.uleb128 0x19
 2484 021a 01       		.uleb128 0x1
 2485 021b 13       		.uleb128 0x13
 2486 021c 00       		.byte	0
 2487 021d 00       		.byte	0
 2488 021e 29       		.uleb128 0x29
 2489 021f 2E       		.uleb128 0x2e
 2490 0220 00       		.byte	0
 2491 0221 3F       		.uleb128 0x3f
 2492 0222 19       		.uleb128 0x19
 2493 0223 03       		.uleb128 0x3
 2494 0224 0E       		.uleb128 0xe
 2495 0225 3A       		.uleb128 0x3a
 2496 0226 0B       		.uleb128 0xb
 2497 0227 3B       		.uleb128 0x3b
 2498 0228 05       		.uleb128 0x5
 2499 0229 27       		.uleb128 0x27
 2500 022a 19       		.uleb128 0x19
 2501 022b 3C       		.uleb128 0x3c
 2502 022c 19       		.uleb128 0x19
 2503 022d 00       		.byte	0
 2504 022e 00       		.byte	0
 2505 022f 2A       		.uleb128 0x2a
ARM GAS  /tmp/cc0xND6m.s 			page 45


 2506 0230 2E       		.uleb128 0x2e
 2507 0231 01       		.byte	0x1
 2508 0232 3F       		.uleb128 0x3f
 2509 0233 19       		.uleb128 0x19
 2510 0234 03       		.uleb128 0x3
 2511 0235 0E       		.uleb128 0xe
 2512 0236 3A       		.uleb128 0x3a
 2513 0237 0B       		.uleb128 0xb
 2514 0238 3B       		.uleb128 0x3b
 2515 0239 0B       		.uleb128 0xb
 2516 023a 27       		.uleb128 0x27
 2517 023b 19       		.uleb128 0x19
 2518 023c 3C       		.uleb128 0x3c
 2519 023d 19       		.uleb128 0x19
 2520 023e 00       		.byte	0
 2521 023f 00       		.byte	0
 2522 0240 00       		.byte	0
 2523              		.section	.debug_loc,"",%progbits
 2524              	.Ldebug_loc0:
 2525              	.LLST0:
 2526 0000 00000000 		.4byte	.LVL8
 2527 0004 06000000 		.4byte	.LVL9
 2528 0008 0100     		.2byte	0x1
 2529 000a 50       		.byte	0x50
 2530 000b 06000000 		.4byte	.LVL9
 2531 000f 14000000 		.4byte	.LFE257
 2532 0013 0400     		.2byte	0x4
 2533 0015 F3       		.byte	0xf3
 2534 0016 01       		.uleb128 0x1
 2535 0017 50       		.byte	0x50
 2536 0018 9F       		.byte	0x9f
 2537 0019 00000000 		.4byte	0
 2538 001d 00000000 		.4byte	0
 2539              		.section	.debug_aranges,"",%progbits
 2540 0000 24000000 		.4byte	0x24
 2541 0004 0200     		.2byte	0x2
 2542 0006 00000000 		.4byte	.Ldebug_info0
 2543 000a 04       		.byte	0x4
 2544 000b 00       		.byte	0
 2545 000c 0000     		.2byte	0
 2546 000e 0000     		.2byte	0
 2547 0010 00000000 		.4byte	.LFB256
 2548 0014 68000000 		.4byte	.LFE256-.LFB256
 2549 0018 00000000 		.4byte	.LFB257
 2550 001c 14000000 		.4byte	.LFE257-.LFB257
 2551 0020 00000000 		.4byte	0
 2552 0024 00000000 		.4byte	0
 2553              		.section	.debug_ranges,"",%progbits
 2554              	.Ldebug_ranges0:
 2555 0000 00000000 		.4byte	.LFB256
 2556 0004 68000000 		.4byte	.LFE256
 2557 0008 00000000 		.4byte	.LFB257
 2558 000c 14000000 		.4byte	.LFE257
 2559 0010 00000000 		.4byte	0
 2560 0014 00000000 		.4byte	0
 2561              		.section	.debug_line,"",%progbits
 2562              	.Ldebug_line0:
ARM GAS  /tmp/cc0xND6m.s 			page 46


 2563 0000 C7020000 		.section	.debug_str,"MS",%progbits,1
 2563      02008E02 
 2563      00000201 
 2563      FB0E0D00 
 2563      01010101 
 2564              	.LASF56:
 2565 0000 72656164 		.ascii	"ready_list_t\000"
 2565      795F6C69 
 2565      73745F74 
 2565      00
 2566              	.LASF101:
 2567 000d 4D304152 		.ascii	"M0AR\000"
 2567      00
 2568              	.LASF2:
 2569 0012 73697A65 		.ascii	"size_t\000"
 2569      5F7400
 2570              	.LASF110:
 2571 0019 7264796D 		.ascii	"rdymsg\000"
 2571      736700
 2572              	.LASF152:
 2573 0020 61646373 		.ascii	"adcstate_t\000"
 2573      74617465 
 2573      5F7400
 2574              	.LASF130:
 2575 002b 76656374 		.ascii	"vector\000"
 2575      6F7200
 2576              	.LASF3:
 2577 0032 5F5F7569 		.ascii	"__uint8_t\000"
 2577      6E74385F 
 2577      7400
 2578              	.LASF135:
 2579 003c 4F545950 		.ascii	"OTYPER\000"
 2579      455200
 2580              	.LASF107:
 2581 0043 706F7274 		.ascii	"port_intctx\000"
 2581      5F696E74 
 2581      63747800 
 2582              	.LASF192:
 2583 004f 61646353 		.ascii	"adcSTM32EnableTSVREFE\000"
 2583      544D3332 
 2583      456E6162 
 2583      6C655453 
 2583      56524546 
 2584              	.LASF75:
 2585 0065 73797374 		.ascii	"system_debug_t\000"
 2585      656D5F64 
 2585      65627567 
 2585      5F7400
 2586              	.LASF126:
 2587 0074 73747265 		.ascii	"stream\000"
 2587      616D00
 2588              	.LASF134:
 2589 007b 4D4F4445 		.ascii	"MODER\000"
 2589      5200
 2590              	.LASF14:
 2591 0081 6C6F6E67 		.ascii	"long long unsigned int\000"
 2591      206C6F6E 
ARM GAS  /tmp/cc0xND6m.s 			page 47


 2591      6720756E 
 2591      7369676E 
 2591      65642069 
 2592              	.LASF137:
 2593 0098 50555044 		.ascii	"PUPDR\000"
 2593      5200
 2594              	.LASF111:
 2595 009e 65786974 		.ascii	"exitcode\000"
 2595      636F6465 
 2595      00
 2596              	.LASF182:
 2597 00a7 61646367 		.ascii	"adcgrpcfg\000"
 2597      72706366 
 2597      6700
 2598              	.LASF72:
 2599 00b1 76697274 		.ascii	"virtual_timers_list_t\000"
 2599      75616C5F 
 2599      74696D65 
 2599      72735F6C 
 2599      6973745F 
 2600              	.LASF183:
 2601 00c7 49544D5F 		.ascii	"ITM_RxBuffer\000"
 2601      52784275 
 2601      66666572 
 2601      00
 2602              	.LASF55:
 2603 00d4 63685F74 		.ascii	"ch_threads_queue\000"
 2603      68726561 
 2603      64735F71 
 2603      75657565 
 2603      00
 2604              	.LASF33:
 2605 00e5 705F7072 		.ascii	"p_prio\000"
 2605      696F00
 2606              	.LASF94:
 2607 00ec 4A535152 		.ascii	"JSQR\000"
 2607      00
 2608              	.LASF125:
 2609 00f1 6D757465 		.ascii	"mutex_t\000"
 2609      785F7400 
 2610              	.LASF12:
 2611 00f9 6C6F6E67 		.ascii	"long long int\000"
 2611      206C6F6E 
 2611      6720696E 
 2611      7400
 2612              	.LASF1:
 2613 0107 7369676E 		.ascii	"signed char\000"
 2613      65642063 
 2613      68617200 
 2614              	.LASF138:
 2615 0113 42535252 		.ascii	"BSRR\000"
 2615      00
 2616              	.LASF189:
 2617 0118 2F686F6D 		.ascii	"/home/benjamin/Skrivbord/SP-RCCar/Embedded/RC_Contr"
 2617      652F6265 
 2617      6E6A616D 
 2617      696E2F53 
ARM GAS  /tmp/cc0xND6m.s 			page 48


 2617      6B726976 
 2618 014b 6F6C6C65 		.ascii	"oller/\000"
 2618      722F00
 2619              	.LASF49:
 2620 0152 705F6D70 		.ascii	"p_mpool\000"
 2620      6F6F6C00 
 2621              	.LASF121:
 2622 015a 6D5F7175 		.ascii	"m_queue\000"
 2622      65756500 
 2623              	.LASF157:
 2624 0162 61646365 		.ascii	"adcerror_t\000"
 2624      72726F72 
 2624      5F7400
 2625              	.LASF166:
 2626 016d 646D6173 		.ascii	"dmastp\000"
 2626      747000
 2627              	.LASF151:
 2628 0174 4144435F 		.ascii	"ADC_ERROR\000"
 2628      4552524F 
 2628      5200
 2629              	.LASF159:
 2630 017e 73746174 		.ascii	"state\000"
 2630      6500
 2631              	.LASF170:
 2632 0184 63697263 		.ascii	"circular\000"
 2632      756C6172 
 2632      00
 2633              	.LASF9:
 2634 018d 6C6F6E67 		.ascii	"long int\000"
 2634      20696E74 
 2634      00
 2635              	.LASF155:
 2636 0196 4144435F 		.ascii	"ADC_ERR_DMAFAILURE\000"
 2636      4552525F 
 2636      444D4146 
 2636      41494C55 
 2636      524500
 2637              	.LASF169:
 2638 01a9 61646365 		.ascii	"adcerrorcallback_t\000"
 2638      72726F72 
 2638      63616C6C 
 2638      6261636B 
 2638      5F7400
 2639              	.LASF22:
 2640 01bc 74737461 		.ascii	"tstate_t\000"
 2640      74655F74 
 2640      00
 2641              	.LASF35:
 2642 01c5 705F6E65 		.ascii	"p_newer\000"
 2642      77657200 
 2643              	.LASF172:
 2644 01cd 656E645F 		.ascii	"end_cb\000"
 2644      636200
 2645              	.LASF168:
 2646 01d4 61646363 		.ascii	"adccallback_t\000"
 2646      616C6C62 
 2646      61636B5F 
ARM GAS  /tmp/cc0xND6m.s 			page 49


 2646      7400
 2647              	.LASF153:
 2648 01e2 61646373 		.ascii	"adcsample_t\000"
 2648      616D706C 
 2648      655F7400 
 2649              	.LASF136:
 2650 01ee 4F535045 		.ascii	"OSPEEDR\000"
 2650      45445200 
 2651              	.LASF61:
 2652 01f6 725F6E65 		.ascii	"r_newer\000"
 2652      77657200 
 2653              	.LASF181:
 2654 01fe 41444343 		.ascii	"ADCConfig\000"
 2654      6F6E6669 
 2654      6700
 2655              	.LASF104:
 2656 0208 72656761 		.ascii	"regarm_t\000"
 2656      726D5F74 
 2656      00
 2657              	.LASF68:
 2658 0211 76745F70 		.ascii	"vt_prev\000"
 2658      72657600 
 2659              	.LASF81:
 2660 0219 76746C69 		.ascii	"vtlist\000"
 2660      737400
 2661              	.LASF180:
 2662 0220 64756D6D 		.ascii	"dummy\000"
 2662      7900
 2663              	.LASF142:
 2664 0226 73746D33 		.ascii	"stm32_gpio_t\000"
 2664      325F6770 
 2664      696F5F74 
 2664      00
 2665              	.LASF146:
 2666 0233 4144435F 		.ascii	"ADC_UNINIT\000"
 2666      554E494E 
 2666      495400
 2667              	.LASF156:
 2668 023e 4144435F 		.ascii	"ADC_ERR_OVERFLOW\000"
 2668      4552525F 
 2668      4F564552 
 2668      464C4F57 
 2668      00
 2669              	.LASF149:
 2670 024f 4144435F 		.ascii	"ADC_ACTIVE\000"
 2670      41435449 
 2670      564500
 2671              	.LASF83:
 2672 025a 69646C65 		.ascii	"idle_thread_wa\000"
 2672      5F746872 
 2672      6561645F 
 2672      776100
 2673              	.LASF28:
 2674 0269 636E745F 		.ascii	"cnt_t\000"
 2674      7400
 2675              	.LASF0:
 2676 026f 756E7369 		.ascii	"unsigned int\000"
ARM GAS  /tmp/cc0xND6m.s 			page 50


 2676      676E6564 
 2676      20696E74 
 2676      00
 2677              	.LASF67:
 2678 027c 76745F6E 		.ascii	"vt_next\000"
 2678      65787400 
 2679              	.LASF16:
 2680 0284 75696E74 		.ascii	"uint16_t\000"
 2680      31365F74 
 2680      00
 2681              	.LASF42:
 2682 028d 705F7469 		.ascii	"p_time\000"
 2682      6D6500
 2683              	.LASF114:
 2684 0294 77747365 		.ascii	"wtsemp\000"
 2684      6D7000
 2685              	.LASF188:
 2686 029b 6164636F 		.ascii	"adconv.c\000"
 2686      6E762E63 
 2686      00
 2687              	.LASF44:
 2688 02a4 705F6D73 		.ascii	"p_msgqueue\000"
 2688      67717565 
 2688      756500
 2689              	.LASF158:
 2690 02af 41444344 		.ascii	"ADCDriver\000"
 2690      72697665 
 2690      7200
 2691              	.LASF139:
 2692 02b9 4C434B52 		.ascii	"LCKR\000"
 2692      00
 2693              	.LASF128:
 2694 02be 69736869 		.ascii	"ishift\000"
 2694      667400
 2695              	.LASF119:
 2696 02c5 735F636E 		.ascii	"s_cnt\000"
 2696      7400
 2697              	.LASF7:
 2698 02cb 73686F72 		.ascii	"short unsigned int\000"
 2698      7420756E 
 2698      7369676E 
 2698      65642069 
 2698      6E7400
 2699              	.LASF52:
 2700 02de 63685F74 		.ascii	"ch_thread\000"
 2700      68726561 
 2700      6400
 2701              	.LASF148:
 2702 02e8 4144435F 		.ascii	"ADC_READY\000"
 2702      52454144 
 2702      5900
 2703              	.LASF162:
 2704 02f2 64657074 		.ascii	"depth\000"
 2704      6800
 2705              	.LASF26:
 2706 02f8 6D73675F 		.ascii	"msg_t\000"
 2706      7400
ARM GAS  /tmp/cc0xND6m.s 			page 51


 2707              	.LASF129:
 2708 02fe 73656C66 		.ascii	"selfindex\000"
 2708      696E6465 
 2708      7800
 2709              	.LASF78:
 2710 0308 63685F73 		.ascii	"ch_system_t\000"
 2710      79737465 
 2710      6D5F7400 
 2711              	.LASF21:
 2712 0314 746D6F64 		.ascii	"tmode_t\000"
 2712      655F7400 
 2713              	.LASF171:
 2714 031c 6E756D5F 		.ascii	"num_channels\000"
 2714      6368616E 
 2714      6E656C73 
 2714      00
 2715              	.LASF57:
 2716 0329 63685F72 		.ascii	"ch_ready_list\000"
 2716      65616479 
 2716      5F6C6973 
 2716      7400
 2717              	.LASF27:
 2718 0337 6576656E 		.ascii	"eventmask_t\000"
 2718      746D6173 
 2718      6B5F7400 
 2719              	.LASF8:
 2720 0343 5F5F696E 		.ascii	"__int32_t\000"
 2720      7433325F 
 2720      7400
 2721              	.LASF105:
 2722 034d 73746B61 		.ascii	"stkalign_t\000"
 2722      6C69676E 
 2722      5F7400
 2723              	.LASF51:
 2724 0358 74687265 		.ascii	"threads_list_t\000"
 2724      6164735F 
 2724      6C697374 
 2724      5F7400
 2725              	.LASF163:
 2726 0367 67727070 		.ascii	"grpp\000"
 2726      00
 2727              	.LASF87:
 2728 036c 4A4F4652 		.ascii	"JOFR1\000"
 2728      3100
 2729              	.LASF88:
 2730 0372 4A4F4652 		.ascii	"JOFR2\000"
 2730      3200
 2731              	.LASF89:
 2732 0378 4A4F4652 		.ascii	"JOFR3\000"
 2732      3300
 2733              	.LASF161:
 2734 037e 73616D70 		.ascii	"samples\000"
 2734      6C657300 
 2735              	.LASF43:
 2736 0386 705F7761 		.ascii	"p_waiting\000"
 2736      6974696E 
 2736      6700
ARM GAS  /tmp/cc0xND6m.s 			page 52


 2737              	.LASF84:
 2738 0390 73697A65 		.ascii	"sizetype\000"
 2738      74797065 
 2738      00
 2739              	.LASF50:
 2740 0399 74687265 		.ascii	"thread_reference_t\000"
 2740      61645F72 
 2740      65666572 
 2740      656E6365 
 2740      5F7400
 2741              	.LASF73:
 2742 03ac 63685F76 		.ascii	"ch_virtual_timers_list\000"
 2742      69727475 
 2742      616C5F74 
 2742      696D6572 
 2742      735F6C69 
 2743              	.LASF99:
 2744 03c3 4144435F 		.ascii	"ADC_TypeDef\000"
 2744      54797065 
 2744      44656600 
 2745              	.LASF190:
 2746 03cf 6164636F 		.ascii	"adconv_init\000"
 2746      6E765F69 
 2746      6E697400 
 2747              	.LASF109:
 2748 03db 746D5F63 		.ascii	"tm_calibration_t\000"
 2748      616C6962 
 2748      72617469 
 2748      6F6E5F74 
 2748      00
 2749              	.LASF143:
 2750 03ec 696F706F 		.ascii	"ioportmask_t\000"
 2750      72746D61 
 2750      736B5F74 
 2750      00
 2751              	.LASF19:
 2752 03f9 75696E74 		.ascii	"uint64_t\000"
 2752      36345F74 
 2752      00
 2753              	.LASF36:
 2754 0402 705F6F6C 		.ascii	"p_older\000"
 2754      64657200 
 2755              	.LASF98:
 2756 040a 4A445234 		.ascii	"JDR4\000"
 2756      00
 2757              	.LASF60:
 2758 040f 725F6374 		.ascii	"r_ctx\000"
 2758      7800
 2759              	.LASF191:
 2760 0415 6164636F 		.ascii	"adconv_get_adc_pin\000"
 2760      6E765F67 
 2760      65745F61 
 2760      64635F70 
 2760      696E00
 2761              	.LASF85:
 2762 0428 534D5052 		.ascii	"SMPR1\000"
 2762      3100
ARM GAS  /tmp/cc0xND6m.s 			page 53


 2763              	.LASF86:
 2764 042e 534D5052 		.ascii	"SMPR2\000"
 2764      3200
 2765              	.LASF123:
 2766 0434 6D5F6E65 		.ascii	"m_next\000"
 2766      787400
 2767              	.LASF63:
 2768 043b 725F6375 		.ascii	"r_current\000"
 2768      7272656E 
 2768      7400
 2769              	.LASF62:
 2770 0445 725F6F6C 		.ascii	"r_older\000"
 2770      64657200 
 2771              	.LASF91:
 2772 044d 53515231 		.ascii	"SQR1\000"
 2772      00
 2773              	.LASF92:
 2774 0452 53515232 		.ascii	"SQR2\000"
 2774      00
 2775              	.LASF93:
 2776 0457 53515233 		.ascii	"SQR3\000"
 2776      00
 2777              	.LASF13:
 2778 045c 5F5F7569 		.ascii	"__uint64_t\000"
 2778      6E743634 
 2778      5F7400
 2779              	.LASF141:
 2780 0467 41465248 		.ascii	"AFRH\000"
 2780      00
 2781              	.LASF140:
 2782 046c 4146524C 		.ascii	"AFRL\000"
 2782      00
 2783              	.LASF127:
 2784 0471 69666372 		.ascii	"ifcr\000"
 2784      00
 2785              	.LASF23:
 2786 0476 74726566 		.ascii	"trefs_t\000"
 2786      735F7400 
 2787              	.LASF65:
 2788 047e 76697274 		.ascii	"virtual_timer_t\000"
 2788      75616C5F 
 2788      74696D65 
 2788      725F7400 
 2789              	.LASF32:
 2790 048e 705F7072 		.ascii	"p_prev\000"
 2790      657600
 2791              	.LASF131:
 2792 0495 73746D33 		.ascii	"stm32_dma_stream_t\000"
 2792      325F646D 
 2792      615F7374 
 2792      7265616D 
 2792      5F7400
 2793              	.LASF25:
 2794 04a8 74707269 		.ascii	"tprio_t\000"
 2794      6F5F7400 
 2795              	.LASF165:
 2796 04b0 6D757465 		.ascii	"mutex\000"
ARM GAS  /tmp/cc0xND6m.s 			page 54


 2796      7800
 2797              	.LASF76:
 2798 04b6 63685F73 		.ascii	"ch_system_debug\000"
 2798      79737465 
 2798      6D5F6465 
 2798      62756700 
 2799              	.LASF132:
 2800 04c6 5F426F6F 		.ascii	"_Bool\000"
 2800      6C00
 2801              	.LASF17:
 2802 04cc 696E7433 		.ascii	"int32_t\000"
 2802      325F7400 
 2803              	.LASF4:
 2804 04d4 756E7369 		.ascii	"unsigned char\000"
 2804      676E6564 
 2804      20636861 
 2804      7200
 2805              	.LASF47:
 2806 04e2 705F6D74 		.ascii	"p_mtxlist\000"
 2806      786C6973 
 2806      7400
 2807              	.LASF5:
 2808 04ec 73686F72 		.ascii	"short int\000"
 2808      7420696E 
 2808      7400
 2809              	.LASF38:
 2810 04f6 705F7374 		.ascii	"p_state\000"
 2810      61746500 
 2811              	.LASF41:
 2812 04fe 705F7072 		.ascii	"p_preempt\000"
 2812      65656D70 
 2812      7400
 2813              	.LASF113:
 2814 0508 77747472 		.ascii	"wttrp\000"
 2814      7000
 2815              	.LASF173:
 2816 050e 6572726F 		.ascii	"error_cb\000"
 2816      725F6362 
 2816      00
 2817              	.LASF59:
 2818 0517 725F7072 		.ascii	"r_prio\000"
 2818      696F00
 2819              	.LASF116:
 2820 051e 65776D61 		.ascii	"ewmask\000"
 2820      736B00
 2821              	.LASF31:
 2822 0525 705F6E65 		.ascii	"p_next\000"
 2822      787400
 2823              	.LASF39:
 2824 052c 705F666C 		.ascii	"p_flags\000"
 2824      61677300 
 2825              	.LASF82:
 2826 0534 6D61696E 		.ascii	"mainthread\000"
 2826      74687265 
 2826      616400
 2827              	.LASF117:
 2828 053f 63685F73 		.ascii	"ch_semaphore\000"
ARM GAS  /tmp/cc0xND6m.s 			page 55


 2828      656D6170 
 2828      686F7265 
 2828      00
 2829              	.LASF46:
 2830 054c 705F6570 		.ascii	"p_epending\000"
 2830      656E6469 
 2830      6E6700
 2831              	.LASF133:
 2832 0557 636C6561 		.ascii	"clear\000"
 2832      7200
 2833              	.LASF79:
 2834 055d 63685F73 		.ascii	"ch_system\000"
 2834      79737465 
 2834      6D00
 2835              	.LASF18:
 2836 0567 75696E74 		.ascii	"uint32_t\000"
 2836      33325F74 
 2836      00
 2837              	.LASF115:
 2838 0570 77746D74 		.ascii	"wtmtxp\000"
 2838      787000
 2839              	.LASF58:
 2840 0577 725F7175 		.ascii	"r_queue\000"
 2840      65756500 
 2841              	.LASF53:
 2842 057f 63685F74 		.ascii	"ch_threads_list\000"
 2842      68726561 
 2842      64735F6C 
 2842      69737400 
 2843              	.LASF24:
 2844 058f 74736C69 		.ascii	"tslices_t\000"
 2844      6365735F 
 2844      7400
 2845              	.LASF11:
 2846 0599 6C6F6E67 		.ascii	"long unsigned int\000"
 2846      20756E73 
 2846      69676E65 
 2846      6420696E 
 2846      7400
 2847              	.LASF124:
 2848 05ab 63686172 		.ascii	"char\000"
 2848      00
 2849              	.LASF160:
 2850 05b0 636F6E66 		.ascii	"config\000"
 2850      696700
 2851              	.LASF6:
 2852 05b7 5F5F7569 		.ascii	"__uint16_t\000"
 2852      6E743136 
 2852      5F7400
 2853              	.LASF187:
 2854 05c2 474E5520 		.ascii	"GNU C 4.9.3 20150529 (release) [ARM/embedded-4_9-br"
 2854      4320342E 
 2854      392E3320 
 2854      32303135 
 2854      30353239 
 2855 05f5 616E6368 		.ascii	"anch revision 227977] -mcpu=cortex-m4 -mfloat-abi=h"
 2855      20726576 
ARM GAS  /tmp/cc0xND6m.s 			page 56


 2855      6973696F 
 2855      6E203232 
 2855      37393737 
 2856 0628 61726420 		.ascii	"ard -mfpu=fpv4-sp-d16 -mno-thumb-interwork -mthumb "
 2856      2D6D6670 
 2856      753D6670 
 2856      76342D73 
 2856      702D6431 
 2857 065b 2D676764 		.ascii	"-ggdb -O2 -std=gnu99 -fomit-frame-pointer -falign-f"
 2857      62202D4F 
 2857      32202D73 
 2857      74643D67 
 2857      6E753939 
 2858 068e 756E6374 		.ascii	"unctions=16 -ffunction-sections -fdata-sections -fn"
 2858      696F6E73 
 2858      3D313620 
 2858      2D666675 
 2858      6E637469 
 2859 06c1 6F2D636F 		.ascii	"o-common -fsingle-precision-constant\000"
 2859      6D6D6F6E 
 2859      202D6673 
 2859      696E676C 
 2859      652D7072 
 2860              	.LASF176:
 2861 06e6 73717231 		.ascii	"sqr1\000"
 2861      00
 2862              	.LASF177:
 2863 06eb 73717232 		.ascii	"sqr2\000"
 2863      00
 2864              	.LASF178:
 2865 06f0 73717233 		.ascii	"sqr3\000"
 2865      00
 2866              	.LASF29:
 2867 06f5 73797374 		.ascii	"systime_t\000"
 2867      696D655F 
 2867      7400
 2868              	.LASF48:
 2869 06ff 705F7265 		.ascii	"p_realprio\000"
 2869      616C7072 
 2869      696F00
 2870              	.LASF64:
 2871 070a 76746675 		.ascii	"vtfunc_t\000"
 2871      6E635F74 
 2871      00
 2872              	.LASF10:
 2873 0713 5F5F7569 		.ascii	"__uint32_t\000"
 2873      6E743332 
 2873      5F7400
 2874              	.LASF164:
 2875 071e 74687265 		.ascii	"thread\000"
 2875      616400
 2876              	.LASF100:
 2877 0725 4E445452 		.ascii	"NDTR\000"
 2877      00
 2878              	.LASF77:
 2879 072a 70616E69 		.ascii	"panic_msg\000"
 2879      635F6D73 
ARM GAS  /tmp/cc0xND6m.s 			page 57


 2879      6700
 2880              	.LASF108:
 2881 0734 6F666673 		.ascii	"offset\000"
 2881      657400
 2882              	.LASF103:
 2883 073b 444D415F 		.ascii	"DMA_Stream_TypeDef\000"
 2883      53747265 
 2883      616D5F54 
 2883      79706544 
 2883      656600
 2884              	.LASF145:
 2885 074e 696F706F 		.ascii	"ioportid_t\000"
 2885      72746964 
 2885      5F7400
 2886              	.LASF106:
 2887 0759 636F6E74 		.ascii	"context\000"
 2887      65787400 
 2888              	.LASF185:
 2889 0761 5F70616C 		.ascii	"_pal_lld_setgroupmode\000"
 2889      5F6C6C64 
 2889      5F736574 
 2889      67726F75 
 2889      706D6F64 
 2890              	.LASF66:
 2891 0777 63685F76 		.ascii	"ch_virtual_timer\000"
 2891      69727475 
 2891      616C5F74 
 2891      696D6572 
 2891      00
 2892              	.LASF193:
 2893 0788 61646353 		.ascii	"adcStartConversion\000"
 2893      74617274 
 2893      436F6E76 
 2893      65727369 
 2893      6F6E00
 2894              	.LASF20:
 2895 079b 7274636E 		.ascii	"rtcnt_t\000"
 2895      745F7400 
 2896              	.LASF102:
 2897 07a3 4D314152 		.ascii	"M1AR\000"
 2897      00
 2898              	.LASF71:
 2899 07a8 76745F70 		.ascii	"vt_par\000"
 2899      617200
 2900              	.LASF186:
 2901 07af 61646353 		.ascii	"adcStart\000"
 2901      74617274 
 2901      00
 2902              	.LASF54:
 2903 07b8 74687265 		.ascii	"threads_queue_t\000"
 2903      6164735F 
 2903      71756575 
 2903      655F7400 
 2904              	.LASF120:
 2905 07c8 63685F6D 		.ascii	"ch_mutex\000"
 2905      75746578 
 2905      00
ARM GAS  /tmp/cc0xND6m.s 			page 58


 2906              	.LASF40:
 2907 07d1 705F7265 		.ascii	"p_refs\000"
 2907      667300
 2908              	.LASF174:
 2909 07d8 736D7072 		.ascii	"smpr1\000"
 2909      3100
 2910              	.LASF175:
 2911 07de 736D7072 		.ascii	"smpr2\000"
 2911      3200
 2912              	.LASF147:
 2913 07e4 4144435F 		.ascii	"ADC_STOP\000"
 2913      53544F50 
 2913      00
 2914              	.LASF184:
 2915 07ed 41444344 		.ascii	"ADCD1\000"
 2915      3100
 2916              	.LASF80:
 2917 07f3 726C6973 		.ascii	"rlist\000"
 2917      7400
 2918              	.LASF15:
 2919 07f9 75696E74 		.ascii	"uint8_t\000"
 2919      385F7400 
 2920              	.LASF179:
 2921 0801 41444343 		.ascii	"ADCConversionGroup\000"
 2921      6F6E7665 
 2921      7273696F 
 2921      6E47726F 
 2921      757000
 2922              	.LASF90:
 2923 0814 4A4F4652 		.ascii	"JOFR4\000"
 2923      3400
 2924              	.LASF95:
 2925 081a 4A445231 		.ascii	"JDR1\000"
 2925      00
 2926              	.LASF96:
 2927 081f 4A445232 		.ascii	"JDR2\000"
 2927      00
 2928              	.LASF97:
 2929 0824 4A445233 		.ascii	"JDR3\000"
 2929      00
 2930              	.LASF167:
 2931 0829 646D616D 		.ascii	"dmamode\000"
 2931      6F646500 
 2932              	.LASF112:
 2933 0831 77746F62 		.ascii	"wtobjp\000"
 2933      6A7000
 2934              	.LASF150:
 2935 0838 4144435F 		.ascii	"ADC_COMPLETE\000"
 2935      434F4D50 
 2935      4C455445 
 2935      00
 2936              	.LASF37:
 2937 0845 705F6E61 		.ascii	"p_name\000"
 2937      6D6500
 2938              	.LASF154:
 2939 084c 6164635F 		.ascii	"adc_channels_num_t\000"
 2939      6368616E 
ARM GAS  /tmp/cc0xND6m.s 			page 59


 2939      6E656C73 
 2939      5F6E756D 
 2939      5F7400
 2940              	.LASF74:
 2941 085f 76745F73 		.ascii	"vt_systime\000"
 2941      79737469 
 2941      6D6500
 2942              	.LASF118:
 2943 086a 735F7175 		.ascii	"s_queue\000"
 2943      65756500 
 2944              	.LASF69:
 2945 0872 76745F64 		.ascii	"vt_delta\000"
 2945      656C7461 
 2945      00
 2946              	.LASF45:
 2947 087b 705F6D73 		.ascii	"p_msg\000"
 2947      6700
 2948              	.LASF144:
 2949 0881 696F6D6F 		.ascii	"iomode_t\000"
 2949      64655F74 
 2949      00
 2950              	.LASF122:
 2951 088a 6D5F6F77 		.ascii	"m_owner\000"
 2951      6E657200 
 2952              	.LASF30:
 2953 0892 74687265 		.ascii	"thread_t\000"
 2953      61645F74 
 2953      00
 2954              	.LASF34:
 2955 089b 705F6374 		.ascii	"p_ctx\000"
 2955      7800
 2956              	.LASF70:
 2957 08a1 76745F66 		.ascii	"vt_func\000"
 2957      756E6300 
 2958              		.ident	"GCC: (GNU Tools for ARM Embedded Processors) 4.9.3 20150529 (release) [ARM/embedded-4_9-br
ARM GAS  /tmp/cc0xND6m.s 			page 60


DEFINED SYMBOLS
                            *ABS*:0000000000000000 adconv.c
     /tmp/cc0xND6m.s:21     .text.adconv_init:0000000000000000 $t
     /tmp/cc0xND6m.s:27     .text.adconv_init:0000000000000000 adconv_init
     /tmp/cc0xND6m.s:101    .text.adconv_init:0000000000000054 $d
     /tmp/cc0xND6m.s:110    .text.adconv_get_adc_pin:0000000000000000 $t
     /tmp/cc0xND6m.s:116    .text.adconv_get_adc_pin:0000000000000000 adconv_get_adc_pin
     /tmp/cc0xND6m.s:139    .text.adconv_get_adc_pin:0000000000000010 $d
     /tmp/cc0xND6m.s:144    .rodata.adcgrpcfg:0000000000000000 $d
     /tmp/cc0xND6m.s:148    .rodata.adcgrpcfg:0000000000000000 adcgrpcfg
     /tmp/cc0xND6m.s:162    .bss.samples:0000000000000000 $d
     /tmp/cc0xND6m.s:166    .bss.samples:0000000000000000 samples
                     .debug_frame:0000000000000010 $d

UNDEFINED SYMBOLS
_pal_lld_setgroupmode
adcStart
adcSTM32EnableTSVREFE
adcStartConversion
ADCD1
