ARM GAS  /tmp/ccm5mkvt.s 			page 1


   1              		.syntax unified
   2              		.cpu cortex-m4
   3              		.eabi_attribute 27, 1
   4              		.eabi_attribute 28, 1
   5              		.fpu fpv4-sp-d16
   6              		.eabi_attribute 20, 1
   7              		.eabi_attribute 21, 1
   8              		.eabi_attribute 23, 3
   9              		.eabi_attribute 24, 1
  10              		.eabi_attribute 25, 1
  11              		.eabi_attribute 26, 1
  12              		.eabi_attribute 30, 2
  13              		.eabi_attribute 34, 1
  14              		.eabi_attribute 18, 4
  15              		.thumb
  16              		.file	"can_lld.c"
  17              		.text
  18              	.Ltext0:
  19              		.cfi_sections	.debug_frame
  20              		.section	.text.can_lld_set_filters,"ax",%progbits
  21              		.align	2
  22              		.p2align 4,,15
  23              		.thumb
  24              		.thumb_func
  25              		.type	can_lld_set_filters, %function
  26              	can_lld_set_filters:
  27              	.LFB256:
  28              		.file 1 "ChibiOS_3.0.2/os/hal/ports/STM32/LLD/can_lld.c"
  29              		.loc 1 77 0
  30              		.cfi_startproc
  31              		@ args = 0, pretend = 0, frame = 0
  32              		@ frame_needed = 0, uses_anonymous_args = 0
  33              	.LVL0:
  34 0000 F0B5     		push	{r4, r5, r6, r7, lr}
  35              		.cfi_def_cfa_offset 20
  36              		.cfi_offset 4, -20
  37              		.cfi_offset 5, -16
  38              		.cfi_offset 6, -12
  39              		.cfi_offset 7, -8
  40              		.cfi_offset 14, -4
  41              		.loc 1 80 0
  42 0002 434C     		ldr	r4, .L22
  43              		.loc 1 83 0
  44 0004 434D     		ldr	r5, .L22+4
  45              		.loc 1 80 0
  46 0006 236C     		ldr	r3, [r4, #64]
  47 0008 43F00073 		orr	r3, r3, #33554432
  48 000c 2364     		str	r3, [r4, #64]
  49              		.loc 1 83 0
  50 000e D5F80032 		ldr	r3, [r5, #512]
  51 0012 1B0C     		lsrs	r3, r3, #16
  52 0014 1B04     		lsls	r3, r3, #16
  53 0016 43F00103 		orr	r3, r3, #1
  54 001a 43EA0023 		orr	r3, r3, r0, lsl #8
  55 001e C5F80032 		str	r3, [r5, #512]
  56              		.loc 1 84 0
  57 0022 0029     		cmp	r1, #0
ARM GAS  /tmp/ccm5mkvt.s 			page 2


  58 0024 4ED0     		beq	.L2
  59              	.LBB266:
  60              		.loc 1 88 0
  61 0026 0023     		movs	r3, #0
  62 0028 C5F81C32 		str	r3, [r5, #540]
  63              		.loc 1 92 0
  64 002c 1846     		mov	r0, r3
  65              	.LVL1:
  66              		.loc 1 89 0
  67 002e C5F80432 		str	r3, [r5, #516]
  68              		.loc 1 93 0
  69 0032 1C46     		mov	r4, r3
  70              		.loc 1 90 0
  71 0034 C5F80C32 		str	r3, [r5, #524]
  72              		.loc 1 91 0
  73 0038 C5F81432 		str	r3, [r5, #532]
  74              	.LVL2:
  75              	.L3:
  76 003c C300     		lsls	r3, r0, #3
  77 003e 03F18043 		add	r3, r3, #1073741824
  78 0042 03F5C843 		add	r3, r3, #25600
  79              		.loc 1 92 0 discriminator 3
  80 0046 0130     		adds	r0, r0, #1
  81              	.LVL3:
  82 0048 1C28     		cmp	r0, #28
  83              		.loc 1 93 0 discriminator 3
  84 004a C3F84042 		str	r4, [r3, #576]
  85              		.loc 1 94 0 discriminator 3
  86 004e C3F84442 		str	r4, [r3, #580]
  87              		.loc 1 92 0 discriminator 3
  88 0052 F3D1     		bne	.L3
  89              		.loc 1 101 0
  90 0054 2F48     		ldr	r0, .L22+4
  91              	.LVL4:
  92              		.loc 1 92 0
  93 0056 0026     		movs	r6, #0
  94              		.loc 1 99 0
  95 0058 0127     		movs	r7, #1
  96              	.L7:
  97              	.LVL5:
  98 005a 1568     		ldr	r5, [r2]
  99              		.loc 1 100 0
 100 005c 1479     		ldrb	r4, [r2, #4]	@ zero_extendqisi2
 101 005e EB00     		lsls	r3, r5, #3
 102 0060 03F18043 		add	r3, r3, #1073741824
 103 0064 14F0010F 		tst	r4, #1
 104 0068 03F5C843 		add	r3, r3, #25600
 105              		.loc 1 98 0
 106 006c 06F10106 		add	r6, r6, #1
 107              	.LVL6:
 108              		.loc 1 99 0
 109 0070 07FA05F5 		lsl	r5, r7, r5
 110              	.LVL7:
 111              		.loc 1 100 0
 112 0074 05D0     		beq	.L4
 113              		.loc 1 101 0
 114 0076 D0F804E2 		ldr	lr, [r0, #516]
ARM GAS  /tmp/ccm5mkvt.s 			page 3


 115 007a 45EA0E0E 		orr	lr, r5, lr
 116 007e C0F804E2 		str	lr, [r0, #516]
 117              	.L4:
 118              		.loc 1 102 0
 119 0082 14F0020F 		tst	r4, #2
 120 0086 05D0     		beq	.L5
 121              		.loc 1 103 0
 122 0088 D0F80CE2 		ldr	lr, [r0, #524]
 123 008c 45EA0E0E 		orr	lr, r5, lr
 124 0090 C0F80CE2 		str	lr, [r0, #524]
 125              	.L5:
 126              		.loc 1 104 0
 127 0094 6407     		lsls	r4, r4, #29
 128 0096 04D5     		bpl	.L6
 129              		.loc 1 105 0
 130 0098 D0F81442 		ldr	r4, [r0, #532]
 131 009c 2C43     		orrs	r4, r4, r5
 132 009e C0F81442 		str	r4, [r0, #532]
 133              	.L6:
 134              		.loc 1 106 0 discriminator 2
 135 00a2 9468     		ldr	r4, [r2, #8]
 136 00a4 C3F84042 		str	r4, [r3, #576]
 137              		.loc 1 107 0 discriminator 2
 138 00a8 D468     		ldr	r4, [r2, #12]
 139 00aa C3F84442 		str	r4, [r3, #580]
 140              		.loc 1 108 0 discriminator 2
 141 00ae D0F81C32 		ldr	r3, [r0, #540]
 142              		.loc 1 98 0 discriminator 2
 143 00b2 8E42     		cmp	r6, r1
 144              		.loc 1 108 0 discriminator 2
 145 00b4 43EA0503 		orr	r3, r3, r5
 146              		.loc 1 109 0 discriminator 2
 147 00b8 02F11002 		add	r2, r2, #16
 148              	.LVL8:
 149              		.loc 1 108 0 discriminator 2
 150 00bc C0F81C32 		str	r3, [r0, #540]
 151              		.loc 1 98 0 discriminator 2
 152 00c0 CBD1     		bne	.L7
 153 00c2 18E0     		b	.L8
 154              	.LVL9:
 155              	.L2:
 156 00c4 C200     		lsls	r2, r0, #3
 157              	.LVL10:
 158 00c6 02F18042 		add	r2, r2, #1073741824
 159              	.LBE266:
 160              		.loc 1 124 0
 161 00ca 0123     		movs	r3, #1
 162 00cc 02F5C842 		add	r2, r2, #25600
 163 00d0 8340     		lsls	r3, r3, r0
 164 00d2 43F00103 		orr	r3, r3, #1
 165              		.loc 1 115 0
 166 00d6 C5F84012 		str	r1, [r5, #576]
 167              		.loc 1 116 0
 168 00da C5F84412 		str	r1, [r5, #580]
 169              		.loc 1 118 0
 170 00de C2F84012 		str	r1, [r2, #576]
 171              		.loc 1 119 0
ARM GAS  /tmp/ccm5mkvt.s 			page 4


 172 00e2 C2F84412 		str	r1, [r2, #580]
 173              		.loc 1 121 0
 174 00e6 C5F80412 		str	r1, [r5, #516]
 175              		.loc 1 122 0
 176 00ea C5F81412 		str	r1, [r5, #532]
 177              		.loc 1 124 0
 178 00ee C5F80C32 		str	r3, [r5, #524]
 179              		.loc 1 125 0
 180 00f2 C5F81C32 		str	r3, [r5, #540]
 181              	.LVL11:
 182              	.L8:
 183              		.loc 1 131 0
 184 00f6 0749     		ldr	r1, .L22+4
 185              	.LVL12:
 186              		.loc 1 134 0
 187 00f8 054A     		ldr	r2, .L22
 188              		.loc 1 131 0
 189 00fa D1F80032 		ldr	r3, [r1, #512]
 190 00fe 23F00103 		bic	r3, r3, #1
 191 0102 C1F80032 		str	r3, [r1, #512]
 192              		.loc 1 134 0
 193 0106 136C     		ldr	r3, [r2, #64]
 194 0108 23F00073 		bic	r3, r3, #33554432
 195 010c 1364     		str	r3, [r2, #64]
 196 010e F0BD     		pop	{r4, r5, r6, r7, pc}
 197              	.L23:
 198              		.align	2
 199              	.L22:
 200 0110 00380240 		.word	1073887232
 201 0114 00640040 		.word	1073767424
 202              		.cfi_endproc
 203              	.LFE256:
 204              		.size	can_lld_set_filters, .-can_lld_set_filters
 205              		.section	.text.Vector8C,"ax",%progbits
 206              		.align	2
 207              		.p2align 4,,15
 208              		.global	Vector8C
 209              		.thumb
 210              		.thumb_func
 211              		.type	Vector8C, %function
 212              	Vector8C:
 213              	.LFB261:
 214              		.loc 1 292 0
 215              		.cfi_startproc
 216              		@ args = 0, pretend = 0, frame = 0
 217              		@ frame_needed = 0, uses_anonymous_args = 0
 218              	.LVL13:
 219 0000 10B5     		push	{r4, lr}
 220              		.cfi_def_cfa_offset 8
 221              		.cfi_offset 4, -8
 222              		.cfi_offset 14, -4
 223              	.LBB285:
 224              	.LBB286:
 225              		.loc 1 147 0
 226 0002 0A4C     		ldr	r4, .L26
 227 0004 0A4A     		ldr	r2, .L26+4
 228 0006 E36A     		ldr	r3, [r4, #44]
ARM GAS  /tmp/ccm5mkvt.s 			page 5


 229 0008 9A60     		str	r2, [r3, #8]
 230              	.LBB287:
 231              	.LBB288:
 232              	.LBB289:
 233              	.LBB290:
 234              	.LBB291:
 235              	.LBB292:
 236              		.file 2 "ChibiOS_3.0.2/os/ext/CMSIS/include/core_cmFunc.h"
 237              		.loc 2 342 0
 238              	@ 342 "ChibiOS_3.0.2/os/ext/CMSIS/include/core_cmFunc.h" 1
 239 000a 72B6     		cpsid i
 240              	@ 0 "" 2
 241              	.LVL14:
 242              		.thumb
 243              	.LBE292:
 244              	.LBE291:
 245              	.LBE290:
 246              	.LBE289:
 247              	.LBE288:
 248              	.LBE287:
 249              	.LBB293:
 250              	.LBB294:
 251              		.file 3 "ChibiOS_3.0.2/os/hal/osal/rt/osal.h"
 252              		.loc 3 810 0
 253 000c 0021     		movs	r1, #0
 254 000e 04F10800 		add	r0, r4, #8
 255 0012 FFF7FEFF 		bl	chThdDequeueAllI
 256              	.LVL15:
 257              	.LBE294:
 258              	.LBE293:
 259              	.LBB295:
 260              	.LBB296:
 261              		.loc 3 844 0
 262 0016 04F11C00 		add	r0, r4, #28
 263 001a 0121     		movs	r1, #1
 264 001c FFF7FEFF 		bl	chEvtBroadcastFlagsI
 265              	.LVL16:
 266              	.LBE296:
 267              	.LBE295:
 268              	.LBB297:
 269              	.LBB298:
 270              	.LBB299:
 271              	.LBB300:
 272              	.LBB301:
 273              	.LBB302:
 274              		.loc 2 331 0
 275              	@ 331 "ChibiOS_3.0.2/os/ext/CMSIS/include/core_cmFunc.h" 1
 276 0020 62B6     		cpsie i
 277              	@ 0 "" 2
 278              		.thumb
 279              	.LBE302:
 280              	.LBE301:
 281              	.LBE300:
 282              	.LBE299:
 283              	.LBE298:
 284              	.LBE297:
 285              	.LBE286:
ARM GAS  /tmp/ccm5mkvt.s 			page 6


 286              	.LBE285:
 287              		.loc 1 299 0
 288 0022 BDE81040 		pop	{r4, lr}
 289              		.cfi_restore 14
 290              		.cfi_restore 4
 291              		.cfi_def_cfa_offset 0
 292              		.loc 1 298 0
 293 0026 FFF7FEBF 		b	_port_irq_epilogue
 294              	.LVL17:
 295              	.L27:
 296 002a 00BF     		.align	2
 297              	.L26:
 298 002c 00000000 		.word	.LANCHOR0
 299 0030 01010100 		.word	65793
 300              		.cfi_endproc
 301              	.LFE261:
 302              		.size	Vector8C, .-Vector8C
 303              		.section	.text.Vector90,"ax",%progbits
 304              		.align	2
 305              		.p2align 4,,15
 306              		.global	Vector90
 307              		.thumb
 308              		.thumb_func
 309              		.type	Vector90, %function
 310              	Vector90:
 311              	.LFB262:
 312              		.loc 1 306 0
 313              		.cfi_startproc
 314              		@ args = 0, pretend = 0, frame = 0
 315              		@ frame_needed = 0, uses_anonymous_args = 0
 316              	.LVL18:
 317 0000 38B5     		push	{r3, r4, r5, lr}
 318              		.cfi_def_cfa_offset 16
 319              		.cfi_offset 3, -16
 320              		.cfi_offset 4, -12
 321              		.cfi_offset 5, -8
 322              		.cfi_offset 14, -4
 323              	.LBB335:
 324              	.LBB336:
 325              		.loc 1 164 0
 326 0002 124D     		ldr	r5, .L39
 327 0004 EB6A     		ldr	r3, [r5, #44]
 328 0006 DC68     		ldr	r4, [r3, #12]
 329              	.LVL19:
 330              		.loc 1 165 0
 331 0008 A207     		lsls	r2, r4, #30
 332 000a 0DD1     		bne	.L38
 333              	.L29:
 334              		.loc 1 173 0
 335 000c E306     		lsls	r3, r4, #27
 336 000e 07D5     		bpl	.L30
 337              		.loc 1 175 0
 338 0010 EB6A     		ldr	r3, [r5, #44]
 339 0012 1021     		movs	r1, #16
 340 0014 D960     		str	r1, [r3, #12]
 341              	.LBB337:
 342              	.LBB338:
ARM GAS  /tmp/ccm5mkvt.s 			page 7


 343              	.LBB339:
 344              	.LBB340:
 345              	.LBB341:
 346              	.LBB342:
 347              		.loc 2 342 0
 348              	@ 342 "ChibiOS_3.0.2/os/ext/CMSIS/include/core_cmFunc.h" 1
 349 0016 72B6     		cpsid i
 350              	@ 0 "" 2
 351              	.LVL20:
 352              		.thumb
 353              	.LBE342:
 354              	.LBE341:
 355              	.LBE340:
 356              	.LBE339:
 357              	.LBE338:
 358              	.LBE337:
 359              	.LBB343:
 360              	.LBB344:
 361              		.loc 3 844 0
 362 0018 0D48     		ldr	r0, .L39+4
 363 001a FFF7FEFF 		bl	chEvtBroadcastFlagsI
 364              	.LVL21:
 365              	.LBE344:
 366              	.LBE343:
 367              	.LBB345:
 368              	.LBB346:
 369              	.LBB347:
 370              	.LBB348:
 371              	.LBB349:
 372              	.LBB350:
 373              		.loc 2 331 0
 374              	@ 331 "ChibiOS_3.0.2/os/ext/CMSIS/include/core_cmFunc.h" 1
 375 001e 62B6     		cpsie i
 376              	@ 0 "" 2
 377              	.LVL22:
 378              		.thumb
 379              	.L30:
 380              	.LBE350:
 381              	.LBE349:
 382              	.LBE348:
 383              	.LBE347:
 384              	.LBE346:
 385              	.LBE345:
 386              	.LBE336:
 387              	.LBE335:
 388              		.loc 1 313 0
 389 0020 BDE83840 		pop	{r3, r4, r5, lr}
 390              		.cfi_remember_state
 391              		.cfi_restore 14
 392              		.cfi_restore 5
 393              		.cfi_restore 4
 394              		.cfi_restore 3
 395              		.cfi_def_cfa_offset 0
 396              	.LVL23:
 397              		.loc 1 312 0
 398 0024 FFF7FEBF 		b	_port_irq_epilogue
 399              	.LVL24:
ARM GAS  /tmp/ccm5mkvt.s 			page 8


 400              	.L38:
 401              		.cfi_restore_state
 402              	.LBB368:
 403              	.LBB367:
 404              		.loc 1 167 0
 405 0028 5A69     		ldr	r2, [r3, #20]
 406 002a 22F00202 		bic	r2, r2, #2
 407 002e 5A61     		str	r2, [r3, #20]
 408              	.LBB351:
 409              	.LBB352:
 410              	.LBB353:
 411              	.LBB354:
 412              	.LBB355:
 413              	.LBB356:
 414              		.loc 2 342 0
 415              	@ 342 "ChibiOS_3.0.2/os/ext/CMSIS/include/core_cmFunc.h" 1
 416 0030 72B6     		cpsid i
 417              	@ 0 "" 2
 418              	.LVL25:
 419              		.thumb
 420              	.LBE356:
 421              	.LBE355:
 422              	.LBE354:
 423              	.LBE353:
 424              	.LBE352:
 425              	.LBE351:
 426              	.LBB357:
 427              	.LBB358:
 428              		.loc 3 810 0
 429 0032 0021     		movs	r1, #0
 430 0034 05F11000 		add	r0, r5, #16
 431 0038 FFF7FEFF 		bl	chThdDequeueAllI
 432              	.LVL26:
 433              	.LBE358:
 434              	.LBE357:
 435              	.LBB359:
 436              	.LBB360:
 437              		.loc 3 844 0
 438 003c 05F11800 		add	r0, r5, #24
 439 0040 0121     		movs	r1, #1
 440 0042 FFF7FEFF 		bl	chEvtBroadcastFlagsI
 441              	.LVL27:
 442              	.LBE360:
 443              	.LBE359:
 444              	.LBB361:
 445              	.LBB362:
 446              	.LBB363:
 447              	.LBB364:
 448              	.LBB365:
 449              	.LBB366:
 450              		.loc 2 331 0
 451              	@ 331 "ChibiOS_3.0.2/os/ext/CMSIS/include/core_cmFunc.h" 1
 452 0046 62B6     		cpsie i
 453              	@ 0 "" 2
 454              		.thumb
 455 0048 E0E7     		b	.L29
 456              	.L40:
ARM GAS  /tmp/ccm5mkvt.s 			page 9


 457 004a 00BF     		.align	2
 458              	.L39:
 459 004c 00000000 		.word	.LANCHOR0
 460 0050 20000000 		.word	.LANCHOR0+32
 461              	.LBE366:
 462              	.LBE365:
 463              	.LBE364:
 464              	.LBE363:
 465              	.LBE362:
 466              	.LBE361:
 467              	.LBE367:
 468              	.LBE368:
 469              		.cfi_endproc
 470              	.LFE262:
 471              		.size	Vector90, .-Vector90
 472              		.section	.text.Vector94,"ax",%progbits
 473              		.align	2
 474              		.p2align 4,,15
 475              		.global	Vector94
 476              		.thumb
 477              		.thumb_func
 478              		.type	Vector94, %function
 479              	Vector94:
 480              	.LFB263:
 481              		.loc 1 320 0
 482              		.cfi_startproc
 483              		@ args = 0, pretend = 0, frame = 0
 484              		@ frame_needed = 0, uses_anonymous_args = 0
 485              	.LVL28:
 486 0000 38B5     		push	{r3, r4, r5, lr}
 487              		.cfi_def_cfa_offset 16
 488              		.cfi_offset 3, -16
 489              		.cfi_offset 4, -12
 490              		.cfi_offset 5, -8
 491              		.cfi_offset 14, -4
 492              	.LBB401:
 493              	.LBB402:
 494              		.loc 1 192 0
 495 0002 124D     		ldr	r5, .L52
 496 0004 EB6A     		ldr	r3, [r5, #44]
 497 0006 1C69     		ldr	r4, [r3, #16]
 498              	.LVL29:
 499              		.loc 1 193 0
 500 0008 A207     		lsls	r2, r4, #30
 501 000a 0DD1     		bne	.L51
 502              	.L42:
 503              		.loc 1 201 0
 504 000c E306     		lsls	r3, r4, #27
 505 000e 07D5     		bpl	.L43
 506              		.loc 1 203 0
 507 0010 EB6A     		ldr	r3, [r5, #44]
 508 0012 1021     		movs	r1, #16
 509 0014 1961     		str	r1, [r3, #16]
 510              	.LBB403:
 511              	.LBB404:
 512              	.LBB405:
 513              	.LBB406:
ARM GAS  /tmp/ccm5mkvt.s 			page 10


 514              	.LBB407:
 515              	.LBB408:
 516              		.loc 2 342 0
 517              	@ 342 "ChibiOS_3.0.2/os/ext/CMSIS/include/core_cmFunc.h" 1
 518 0016 72B6     		cpsid i
 519              	@ 0 "" 2
 520              	.LVL30:
 521              		.thumb
 522              	.LBE408:
 523              	.LBE407:
 524              	.LBE406:
 525              	.LBE405:
 526              	.LBE404:
 527              	.LBE403:
 528              	.LBB409:
 529              	.LBB410:
 530              		.loc 3 844 0
 531 0018 0D48     		ldr	r0, .L52+4
 532 001a FFF7FEFF 		bl	chEvtBroadcastFlagsI
 533              	.LVL31:
 534              	.LBE410:
 535              	.LBE409:
 536              	.LBB411:
 537              	.LBB412:
 538              	.LBB413:
 539              	.LBB414:
 540              	.LBB415:
 541              	.LBB416:
 542              		.loc 2 331 0
 543              	@ 331 "ChibiOS_3.0.2/os/ext/CMSIS/include/core_cmFunc.h" 1
 544 001e 62B6     		cpsie i
 545              	@ 0 "" 2
 546              	.LVL32:
 547              		.thumb
 548              	.L43:
 549              	.LBE416:
 550              	.LBE415:
 551              	.LBE414:
 552              	.LBE413:
 553              	.LBE412:
 554              	.LBE411:
 555              	.LBE402:
 556              	.LBE401:
 557              		.loc 1 327 0
 558 0020 BDE83840 		pop	{r3, r4, r5, lr}
 559              		.cfi_remember_state
 560              		.cfi_restore 14
 561              		.cfi_restore 5
 562              		.cfi_restore 4
 563              		.cfi_restore 3
 564              		.cfi_def_cfa_offset 0
 565              	.LVL33:
 566              		.loc 1 326 0
 567 0024 FFF7FEBF 		b	_port_irq_epilogue
 568              	.LVL34:
 569              	.L51:
 570              		.cfi_restore_state
ARM GAS  /tmp/ccm5mkvt.s 			page 11


 571              	.LBB434:
 572              	.LBB433:
 573              		.loc 1 195 0
 574 0028 5A69     		ldr	r2, [r3, #20]
 575 002a 22F01002 		bic	r2, r2, #16
 576 002e 5A61     		str	r2, [r3, #20]
 577              	.LBB417:
 578              	.LBB418:
 579              	.LBB419:
 580              	.LBB420:
 581              	.LBB421:
 582              	.LBB422:
 583              		.loc 2 342 0
 584              	@ 342 "ChibiOS_3.0.2/os/ext/CMSIS/include/core_cmFunc.h" 1
 585 0030 72B6     		cpsid i
 586              	@ 0 "" 2
 587              	.LVL35:
 588              		.thumb
 589              	.LBE422:
 590              	.LBE421:
 591              	.LBE420:
 592              	.LBE419:
 593              	.LBE418:
 594              	.LBE417:
 595              	.LBB423:
 596              	.LBB424:
 597              		.loc 3 810 0
 598 0032 0021     		movs	r1, #0
 599 0034 05F11000 		add	r0, r5, #16
 600 0038 FFF7FEFF 		bl	chThdDequeueAllI
 601              	.LVL36:
 602              	.LBE424:
 603              	.LBE423:
 604              	.LBB425:
 605              	.LBB426:
 606              		.loc 3 844 0
 607 003c 05F11800 		add	r0, r5, #24
 608 0040 0221     		movs	r1, #2
 609 0042 FFF7FEFF 		bl	chEvtBroadcastFlagsI
 610              	.LVL37:
 611              	.LBE426:
 612              	.LBE425:
 613              	.LBB427:
 614              	.LBB428:
 615              	.LBB429:
 616              	.LBB430:
 617              	.LBB431:
 618              	.LBB432:
 619              		.loc 2 331 0
 620              	@ 331 "ChibiOS_3.0.2/os/ext/CMSIS/include/core_cmFunc.h" 1
 621 0046 62B6     		cpsie i
 622              	@ 0 "" 2
 623              		.thumb
 624 0048 E0E7     		b	.L42
 625              	.L53:
 626 004a 00BF     		.align	2
 627              	.L52:
ARM GAS  /tmp/ccm5mkvt.s 			page 12


 628 004c 00000000 		.word	.LANCHOR0
 629 0050 20000000 		.word	.LANCHOR0+32
 630              	.LBE432:
 631              	.LBE431:
 632              	.LBE430:
 633              	.LBE429:
 634              	.LBE428:
 635              	.LBE427:
 636              	.LBE433:
 637              	.LBE434:
 638              		.cfi_endproc
 639              	.LFE263:
 640              		.size	Vector94, .-Vector94
 641              		.section	.text.Vector98,"ax",%progbits
 642              		.align	2
 643              		.p2align 4,,15
 644              		.global	Vector98
 645              		.thumb
 646              		.thumb_func
 647              		.type	Vector98, %function
 648              	Vector98:
 649              	.LFB264:
 650              		.loc 1 334 0
 651              		.cfi_startproc
 652              		@ args = 0, pretend = 0, frame = 0
 653              		@ frame_needed = 0, uses_anonymous_args = 0
 654              	.LVL38:
 655 0000 38B5     		push	{r3, r4, r5, lr}
 656              		.cfi_def_cfa_offset 16
 657              		.cfi_offset 3, -16
 658              		.cfi_offset 4, -12
 659              		.cfi_offset 5, -8
 660              		.cfi_offset 14, -4
 661              	.LBB466:
 662              	.LBB467:
 663              		.loc 1 220 0
 664 0002 174D     		ldr	r5, .L69
 665 0004 EB6A     		ldr	r3, [r5, #44]
 666 0006 5C68     		ldr	r4, [r3, #4]
 667              	.LVL39:
 668              		.loc 1 221 0
 669 0008 1C22     		movs	r2, #28
 670 000a 5A60     		str	r2, [r3, #4]
 671              		.loc 1 224 0
 672 000c 2207     		lsls	r2, r4, #28
 673 000e 19D4     		bmi	.L68
 674              	.L55:
 675              		.loc 1 233 0
 676 0010 6307     		lsls	r3, r4, #29
 677 0012 13D5     		bpl	.L56
 678              	.LBB468:
 679              		.loc 1 235 0
 680 0014 EA6A     		ldr	r2, [r5, #44]
 681 0016 9369     		ldr	r3, [r2, #24]
 682              	.LVL40:
 683              		.loc 1 237 0
 684 0018 9169     		ldr	r1, [r2, #24]
ARM GAS  /tmp/ccm5mkvt.s 			page 13


 685 001a 21F07001 		bic	r1, r1, #112
 686 001e 9161     		str	r1, [r2, #24]
 687              		.loc 1 239 0
 688 0020 13F0700F 		tst	r3, #112
 689              		.loc 1 238 0
 690 0024 03F00701 		and	r1, r3, #7
 691              	.LVL41:
 692              		.loc 1 240 0
 693 0028 18BF     		it	ne
 694 002a 41F00801 		orrne	r1, r1, #8
 695              	.LVL42:
 696              	.LBB469:
 697              	.LBB470:
 698              	.LBB471:
 699              	.LBB472:
 700              	.LBB473:
 701              	.LBB474:
 702              		.loc 2 342 0
 703              	@ 342 "ChibiOS_3.0.2/os/ext/CMSIS/include/core_cmFunc.h" 1
 704 002e 72B6     		cpsid i
 705              	@ 0 "" 2
 706              	.LVL43:
 707              		.thumb
 708              	.LBE474:
 709              	.LBE473:
 710              	.LBE472:
 711              	.LBE471:
 712              	.LBE470:
 713              	.LBE469:
 714              	.LBB475:
 715              	.LBB476:
 716              		.loc 3 844 0
 717 0030 0C48     		ldr	r0, .L69+4
 718 0032 41EA0341 		orr	r1, r1, r3, lsl #16
 719              	.LVL44:
 720 0036 FFF7FEFF 		bl	chEvtBroadcastFlagsI
 721              	.LVL45:
 722              	.LBE476:
 723              	.LBE475:
 724              	.LBB477:
 725              	.LBB478:
 726              	.LBB479:
 727              	.LBB480:
 728              	.LBB481:
 729              	.LBB482:
 730              		.loc 2 331 0
 731              	@ 331 "ChibiOS_3.0.2/os/ext/CMSIS/include/core_cmFunc.h" 1
 732 003a 62B6     		cpsie i
 733              	@ 0 "" 2
 734              	.LVL46:
 735              		.thumb
 736              	.L56:
 737              	.LBE482:
 738              	.LBE481:
 739              	.LBE480:
 740              	.LBE479:
 741              	.LBE478:
ARM GAS  /tmp/ccm5mkvt.s 			page 14


 742              	.LBE477:
 743              	.LBE468:
 744              	.LBE467:
 745              	.LBE466:
 746              		.loc 1 341 0
 747 003c BDE83840 		pop	{r3, r4, r5, lr}
 748              		.cfi_remember_state
 749              		.cfi_restore 14
 750              		.cfi_restore 5
 751              		.cfi_restore 4
 752              		.cfi_restore 3
 753              		.cfi_def_cfa_offset 0
 754              	.LVL47:
 755              		.loc 1 340 0
 756 0040 FFF7FEBF 		b	_port_irq_epilogue
 757              	.LVL48:
 758              	.L68:
 759              		.cfi_restore_state
 760              	.LBB498:
 761              	.LBB497:
 762              		.loc 1 226 0
 763 0044 1A68     		ldr	r2, [r3]
 764              		.loc 1 225 0
 765 0046 2846     		mov	r0, r5
 766              		.loc 1 226 0
 767 0048 22F00202 		bic	r2, r2, #2
 768              		.loc 1 225 0
 769 004c 0321     		movs	r1, #3
 770 004e 00F8281B 		strb	r1, [r0], #40
 771              		.loc 1 226 0
 772 0052 1A60     		str	r2, [r3]
 773              	.LBB483:
 774              	.LBB484:
 775              	.LBB485:
 776              	.LBB486:
 777              	.LBB487:
 778              	.LBB488:
 779              		.loc 2 342 0
 780              	@ 342 "ChibiOS_3.0.2/os/ext/CMSIS/include/core_cmFunc.h" 1
 781 0054 72B6     		cpsid i
 782              	@ 0 "" 2
 783              	.LVL49:
 784              		.thumb
 785              	.LBE488:
 786              	.LBE487:
 787              	.LBE486:
 788              	.LBE485:
 789              	.LBE484:
 790              	.LBE483:
 791              	.LBB489:
 792              	.LBB490:
 793              		.loc 3 844 0
 794 0056 0021     		movs	r1, #0
 795 0058 FFF7FEFF 		bl	chEvtBroadcastFlagsI
 796              	.LVL50:
 797              	.LBE490:
 798              	.LBE489:
ARM GAS  /tmp/ccm5mkvt.s 			page 15


 799              	.LBB491:
 800              	.LBB492:
 801              	.LBB493:
 802              	.LBB494:
 803              	.LBB495:
 804              	.LBB496:
 805              		.loc 2 331 0
 806              	@ 331 "ChibiOS_3.0.2/os/ext/CMSIS/include/core_cmFunc.h" 1
 807 005c 62B6     		cpsie i
 808              	@ 0 "" 2
 809              		.thumb
 810 005e D7E7     		b	.L55
 811              	.L70:
 812              		.align	2
 813              	.L69:
 814 0060 00000000 		.word	.LANCHOR0
 815 0064 20000000 		.word	.LANCHOR0+32
 816              	.LBE496:
 817              	.LBE495:
 818              	.LBE494:
 819              	.LBE493:
 820              	.LBE492:
 821              	.LBE491:
 822              	.LBE497:
 823              	.LBE498:
 824              		.cfi_endproc
 825              	.LFE264:
 826              		.size	Vector98, .-Vector98
 827              		.section	.text.can_lld_init,"ax",%progbits
 828              		.align	2
 829              		.p2align 4,,15
 830              		.global	can_lld_init
 831              		.thumb
 832              		.thumb_func
 833              		.type	can_lld_init, %function
 834              	can_lld_init:
 835              	.LFB265:
 836              		.loc 1 445 0
 837              		.cfi_startproc
 838              		@ args = 0, pretend = 0, frame = 0
 839              		@ frame_needed = 0, uses_anonymous_args = 0
 840 0000 10B5     		push	{r4, lr}
 841              		.cfi_def_cfa_offset 8
 842              		.cfi_offset 4, -8
 843              		.cfi_offset 14, -4
 844              		.loc 1 449 0
 845 0002 064C     		ldr	r4, .L73
 846 0004 2046     		mov	r0, r4
 847 0006 FFF7FEFF 		bl	canObjectInit
 848              	.LVL51:
 849              		.loc 1 460 0
 850 000a 0021     		movs	r1, #0
 851              		.loc 1 450 0
 852 000c 044B     		ldr	r3, .L73+4
 853 000e E362     		str	r3, [r4, #44]
 854              		.loc 1 460 0
 855 0010 0A46     		mov	r2, r1
ARM GAS  /tmp/ccm5mkvt.s 			page 16


 856 0012 0E20     		movs	r0, #14
 857              		.loc 1 464 0
 858 0014 BDE81040 		pop	{r4, lr}
 859              		.cfi_restore 14
 860              		.cfi_restore 4
 861              		.cfi_def_cfa_offset 0
 862              		.loc 1 460 0
 863 0018 FFF7FEBF 		b	can_lld_set_filters
 864              	.LVL52:
 865              	.L74:
 866              		.align	2
 867              	.L73:
 868 001c 00000000 		.word	.LANCHOR0
 869 0020 00640040 		.word	1073767424
 870              		.cfi_endproc
 871              	.LFE265:
 872              		.size	can_lld_init, .-can_lld_init
 873              		.section	.text.can_lld_start,"ax",%progbits
 874              		.align	2
 875              		.p2align 4,,15
 876              		.global	can_lld_start
 877              		.thumb
 878              		.thumb_func
 879              		.type	can_lld_start, %function
 880              	can_lld_start:
 881              	.LFB266:
 882              		.loc 1 473 0
 883              		.cfi_startproc
 884              		@ args = 0, pretend = 0, frame = 0
 885              		@ frame_needed = 0, uses_anonymous_args = 0
 886              	.LVL53:
 887              		.loc 1 477 0
 888 0000 184B     		ldr	r3, .L83
 889 0002 9842     		cmp	r0, r3
 890              		.loc 1 473 0
 891 0004 10B5     		push	{r4, lr}
 892              		.cfi_def_cfa_offset 8
 893              		.cfi_offset 4, -8
 894              		.cfi_offset 14, -4
 895              		.loc 1 473 0
 896 0006 0446     		mov	r4, r0
 897              		.loc 1 477 0
 898 0008 15D0     		beq	.L82
 899              	.LVL54:
 900              	.L76:
 901              		.loc 1 507 0
 902 000a E36A     		ldr	r3, [r4, #44]
 903 000c 0122     		movs	r2, #1
 904 000e 1A60     		str	r2, [r3]
 905              		.loc 1 508 0
 906 0010 5A68     		ldr	r2, [r3, #4]
 907 0012 D107     		lsls	r1, r2, #31
 908 0014 07D4     		bmi	.L77
 909              	.L78:
 910              	.LVL55:
 911              	.LBB499:
 912              	.LBB500:
ARM GAS  /tmp/ccm5mkvt.s 			page 17


 913              	.LBB501:
 914              		.file 4 "ChibiOS_3.0.2/os/rt/include/chthreads.h"
 915              		.loc 4 268 0
 916 0016 0820     		movs	r0, #8
 917 0018 0121     		movs	r1, #1
 918 001a FFF7FEFF 		bl	chSchGoSleepTimeoutS
 919              	.LVL56:
 920              	.LBE501:
 921              	.LBE500:
 922              	.LBE499:
 923              		.loc 1 508 0
 924 001e E36A     		ldr	r3, [r4, #44]
 925 0020 5A68     		ldr	r2, [r3, #4]
 926 0022 D207     		lsls	r2, r2, #31
 927 0024 F7D5     		bpl	.L78
 928              	.LVL57:
 929              	.L77:
 930              		.loc 1 510 0
 931 0026 6268     		ldr	r2, [r4, #4]
 932              		.loc 1 514 0
 933 0028 0F49     		ldr	r1, .L83+4
 934              		.loc 1 510 0
 935 002a 5068     		ldr	r0, [r2, #4]
 936              		.loc 1 511 0
 937 002c 1268     		ldr	r2, [r2]
 938              		.loc 1 510 0
 939 002e D861     		str	r0, [r3, #28]
 940              		.loc 1 511 0
 941 0030 1A60     		str	r2, [r3]
 942              		.loc 1 514 0
 943 0032 5961     		str	r1, [r3, #20]
 944 0034 10BD     		pop	{r4, pc}
 945              	.LVL58:
 946              	.L82:
 947              		.loc 1 481 0
 948 0036 1320     		movs	r0, #19
 949              	.LVL59:
 950 0038 0B21     		movs	r1, #11
 951 003a FFF7FEFF 		bl	nvicEnableVector
 952              	.LVL60:
 953              		.loc 1 482 0
 954 003e 1420     		movs	r0, #20
 955 0040 0B21     		movs	r1, #11
 956 0042 FFF7FEFF 		bl	nvicEnableVector
 957              	.LVL61:
 958              		.loc 1 483 0
 959 0046 1520     		movs	r0, #21
 960 0048 0B21     		movs	r1, #11
 961 004a FFF7FEFF 		bl	nvicEnableVector
 962              	.LVL62:
 963              		.loc 1 484 0
 964 004e 1620     		movs	r0, #22
 965 0050 0B21     		movs	r1, #11
 966 0052 FFF7FEFF 		bl	nvicEnableVector
 967              	.LVL63:
 968              		.loc 1 486 0
 969 0056 054A     		ldr	r2, .L83+8
ARM GAS  /tmp/ccm5mkvt.s 			page 18


 970 0058 136C     		ldr	r3, [r2, #64]
 971 005a 43F00073 		orr	r3, r3, #33554432
 972 005e 1364     		str	r3, [r2, #64]
 973 0060 D3E7     		b	.L76
 974              	.L84:
 975 0062 00BF     		.align	2
 976              	.L83:
 977 0064 00000000 		.word	.LANCHOR0
 978 0068 5B8F0100 		.word	102235
 979 006c 00380240 		.word	1073887232
 980              		.cfi_endproc
 981              	.LFE266:
 982              		.size	can_lld_start, .-can_lld_start
 983              		.section	.text.can_lld_stop,"ax",%progbits
 984              		.align	2
 985              		.p2align 4,,15
 986              		.global	can_lld_stop
 987              		.thumb
 988              		.thumb_func
 989              		.type	can_lld_stop, %function
 990              	can_lld_stop:
 991              	.LFB267:
 992              		.loc 1 527 0
 993              		.cfi_startproc
 994              		@ args = 0, pretend = 0, frame = 0
 995              		@ frame_needed = 0, uses_anonymous_args = 0
 996              	.LVL64:
 997 0000 08B5     		push	{r3, lr}
 998              		.cfi_def_cfa_offset 8
 999              		.cfi_offset 3, -8
 1000              		.cfi_offset 14, -4
 1001              		.loc 1 530 0
 1002 0002 0378     		ldrb	r3, [r0]	@ zero_extendqisi2
 1003 0004 032B     		cmp	r3, #3
 1004 0006 00D0     		beq	.L88
 1005              	.LVL65:
 1006              	.L85:
 1007 0008 08BD     		pop	{r3, pc}
 1008              	.LVL66:
 1009              	.L88:
 1010              		.loc 1 532 0
 1011 000a 0D4B     		ldr	r3, .L89
 1012 000c 9842     		cmp	r0, r3
 1013 000e FBD1     		bne	.L85
 1014              		.loc 1 538 0
 1015 0010 0C4B     		ldr	r3, .L89+4
 1016 0012 0D4A     		ldr	r2, .L89+8
 1017 0014 1A60     		str	r2, [r3]
 1018              		.loc 1 539 0
 1019 0016 0022     		movs	r2, #0
 1020 0018 5A61     		str	r2, [r3, #20]
 1021              		.loc 1 543 0
 1022 001a 1320     		movs	r0, #19
 1023              	.LVL67:
 1024 001c FFF7FEFF 		bl	nvicDisableVector
 1025              	.LVL68:
 1026              		.loc 1 544 0
ARM GAS  /tmp/ccm5mkvt.s 			page 19


 1027 0020 1420     		movs	r0, #20
 1028 0022 FFF7FEFF 		bl	nvicDisableVector
 1029              	.LVL69:
 1030              		.loc 1 545 0
 1031 0026 1520     		movs	r0, #21
 1032 0028 FFF7FEFF 		bl	nvicDisableVector
 1033              	.LVL70:
 1034              		.loc 1 546 0
 1035 002c 1620     		movs	r0, #22
 1036 002e FFF7FEFF 		bl	nvicDisableVector
 1037              	.LVL71:
 1038              		.loc 1 548 0
 1039 0032 064A     		ldr	r2, .L89+12
 1040 0034 136C     		ldr	r3, [r2, #64]
 1041 0036 23F00073 		bic	r3, r3, #33554432
 1042 003a 1364     		str	r3, [r2, #64]
 1043 003c E4E7     		b	.L85
 1044              	.L90:
 1045 003e 00BF     		.align	2
 1046              	.L89:
 1047 0040 00000000 		.word	.LANCHOR0
 1048 0044 00640040 		.word	1073767424
 1049 0048 02000100 		.word	65538
 1050 004c 00380240 		.word	1073887232
 1051              		.cfi_endproc
 1052              	.LFE267:
 1053              		.size	can_lld_stop, .-can_lld_stop
 1054              		.section	.text.can_lld_is_tx_empty,"ax",%progbits
 1055              		.align	2
 1056              		.p2align 4,,15
 1057              		.global	can_lld_is_tx_empty
 1058              		.thumb
 1059              		.thumb_func
 1060              		.type	can_lld_is_tx_empty, %function
 1061              	can_lld_is_tx_empty:
 1062              	.LFB268:
 1063              		.loc 1 581 0
 1064              		.cfi_startproc
 1065              		@ args = 0, pretend = 0, frame = 0
 1066              		@ frame_needed = 0, uses_anonymous_args = 0
 1067              		@ link register save eliminated.
 1068              	.LVL72:
 1069              		.loc 1 583 0
 1070 0000 0329     		cmp	r1, #3
 1071 0002 1AD8     		bhi	.L98
 1072 0004 DFE801F0 		tbb	[pc, r1]
 1073              	.L94:
 1074 0008 11       		.byte	(.L93-.L94)/2
 1075 0009 0C       		.byte	(.L95-.L94)/2
 1076 000a 07       		.byte	(.L96-.L94)/2
 1077 000b 02       		.byte	(.L97-.L94)/2
 1078              		.p2align 1
 1079              	.L97:
 1080              		.loc 1 591 0
 1081 000c C36A     		ldr	r3, [r0, #44]
 1082 000e 9868     		ldr	r0, [r3, #8]
 1083              	.LVL73:
ARM GAS  /tmp/ccm5mkvt.s 			page 20


 1084 0010 C0F30070 		ubfx	r0, r0, #28, #1
 1085 0014 7047     		bx	lr
 1086              	.LVL74:
 1087              	.L96:
 1088              		.loc 1 589 0
 1089 0016 C36A     		ldr	r3, [r0, #44]
 1090 0018 9868     		ldr	r0, [r3, #8]
 1091              	.LVL75:
 1092 001a C0F3C060 		ubfx	r0, r0, #27, #1
 1093 001e 7047     		bx	lr
 1094              	.LVL76:
 1095              	.L95:
 1096              		.loc 1 587 0
 1097 0020 C36A     		ldr	r3, [r0, #44]
 1098 0022 9868     		ldr	r0, [r3, #8]
 1099              	.LVL77:
 1100 0024 C0F38060 		ubfx	r0, r0, #26, #1
 1101 0028 7047     		bx	lr
 1102              	.LVL78:
 1103              	.L93:
 1104              		.loc 1 585 0
 1105 002a C36A     		ldr	r3, [r0, #44]
 1106 002c 9B68     		ldr	r3, [r3, #8]
 1107 002e 13F0E05F 		tst	r3, #469762048
 1108 0032 14BF     		ite	ne
 1109 0034 0120     		movne	r0, #1
 1110              	.LVL79:
 1111 0036 0020     		moveq	r0, #0
 1112 0038 7047     		bx	lr
 1113              	.LVL80:
 1114              	.L98:
 1115              		.loc 1 593 0
 1116 003a 0020     		movs	r0, #0
 1117              	.LVL81:
 1118              		.loc 1 595 0
 1119 003c 7047     		bx	lr
 1120              		.cfi_endproc
 1121              	.LFE268:
 1122              		.size	can_lld_is_tx_empty, .-can_lld_is_tx_empty
 1123 003e 00BF     		.section	.text.can_lld_transmit,"ax",%progbits
 1124              		.align	2
 1125              		.p2align 4,,15
 1126              		.global	can_lld_transmit
 1127              		.thumb
 1128              		.thumb_func
 1129              		.type	can_lld_transmit, %function
 1130              	can_lld_transmit:
 1131              	.LFB269:
 1132              		.loc 1 608 0
 1133              		.cfi_startproc
 1134              		@ args = 0, pretend = 0, frame = 0
 1135              		@ frame_needed = 0, uses_anonymous_args = 0
 1136              		@ link register save eliminated.
 1137              	.LVL82:
 1138 0000 10B4     		push	{r4}
 1139              		.cfi_def_cfa_offset 4
 1140              		.cfi_offset 4, -4
ARM GAS  /tmp/ccm5mkvt.s 			page 21


 1141              		.loc 1 613 0
 1142 0002 0329     		cmp	r1, #3
 1143 0004 1BD8     		bhi	.L99
 1144 0006 DFE801F0 		tbb	[pc, r1]
 1145              	.L102:
 1146 000a 2E       		.byte	(.L101-.L102)/2
 1147 000b 2A       		.byte	(.L103-.L102)/2
 1148 000c 1D       		.byte	(.L104-.L102)/2
 1149 000d 02       		.byte	(.L105-.L102)/2
 1150              		.p2align 1
 1151              	.L105:
 1152              		.loc 1 624 0
 1153 000e C06A     		ldr	r0, [r0, #44]
 1154              	.LVL83:
 1155 0010 00F5D070 		add	r0, r0, #416
 1156              	.LVL84:
 1157              	.L106:
 1158              		.loc 1 631 0
 1159 0014 1478     		ldrb	r4, [r2]	@ zero_extendqisi2
 1160 0016 A306     		lsls	r3, r4, #26
 1161 0018 1AD5     		bpl	.L107
 1162              	.L110:
 1163              		.loc 1 632 0
 1164 001a C4F30013 		ubfx	r3, r4, #4, #1
 1165 001e 5168     		ldr	r1, [r2, #4]
 1166              	.LVL85:
 1167 0020 5B00     		lsls	r3, r3, #1
 1168 0022 43EAC103 		orr	r3, r3, r1, lsl #3
 1169 0026 43F00403 		orr	r3, r3, #4
 1170              	.LVL86:
 1171              	.L108:
 1172              		.loc 1 636 0
 1173 002a 04F00F04 		and	r4, r4, #15
 1174 002e 4460     		str	r4, [r0, #4]
 1175              		.loc 1 637 0
 1176 0030 9168     		ldr	r1, [r2, #8]
 1177 0032 8160     		str	r1, [r0, #8]
 1178              		.loc 1 638 0
 1179 0034 D268     		ldr	r2, [r2, #12]
 1180              	.LVL87:
 1181 0036 C260     		str	r2, [r0, #12]
 1182              		.loc 1 639 0
 1183 0038 43F00103 		orr	r3, r3, #1
 1184              	.LVL88:
 1185 003c 0360     		str	r3, [r0]
 1186              	.LVL89:
 1187              	.L99:
 1188              		.loc 1 640 0
 1189 003e 5DF8044B 		ldr	r4, [sp], #4
 1190              		.cfi_remember_state
 1191              		.cfi_restore 4
 1192              		.cfi_def_cfa_offset 0
 1193 0042 7047     		bx	lr
 1194              	.LVL90:
 1195              	.L104:
 1196              		.cfi_restore_state
 1197              		.loc 1 631 0
ARM GAS  /tmp/ccm5mkvt.s 			page 22


 1198 0044 1478     		ldrb	r4, [r2]	@ zero_extendqisi2
 1199              		.loc 1 621 0
 1200 0046 C06A     		ldr	r0, [r0, #44]
 1201              	.LVL91:
 1202              		.loc 1 631 0
 1203 0048 A306     		lsls	r3, r4, #26
 1204              		.loc 1 621 0
 1205 004a 00F5C870 		add	r0, r0, #400
 1206              	.LVL92:
 1207              		.loc 1 631 0
 1208 004e E4D4     		bmi	.L110
 1209              	.L107:
 1210              		.loc 1 635 0
 1211 0050 9188     		ldrh	r1, [r2, #4]
 1212              	.LVL93:
 1213 0052 C4F30013 		ubfx	r3, r4, #4, #1
 1214 0056 4905     		lsls	r1, r1, #21
 1215 0058 41EA4303 		orr	r3, r1, r3, lsl #1
 1216              	.LVL94:
 1217 005c E5E7     		b	.L108
 1218              	.LVL95:
 1219              	.L103:
 1220              		.loc 1 618 0
 1221 005e C06A     		ldr	r0, [r0, #44]
 1222              	.LVL96:
 1223 0060 00F5C070 		add	r0, r0, #384
 1224              	.LVL97:
 1225              		.loc 1 619 0
 1226 0064 D6E7     		b	.L106
 1227              	.LVL98:
 1228              	.L101:
 1229              		.loc 1 615 0
 1230 0066 C06A     		ldr	r0, [r0, #44]
 1231              	.LVL99:
 1232 0068 8368     		ldr	r3, [r0, #8]
 1233 006a C3F30163 		ubfx	r3, r3, #24, #2
 1234 006e 1833     		adds	r3, r3, #24
 1235 0070 00EB0310 		add	r0, r0, r3, lsl #4
 1236              	.LVL100:
 1237              		.loc 1 616 0
 1238 0074 CEE7     		b	.L106
 1239              		.cfi_endproc
 1240              	.LFE269:
 1241              		.size	can_lld_transmit, .-can_lld_transmit
 1242 0076 00BF     		.section	.text.can_lld_is_rx_nonempty,"ax",%progbits
 1243              		.align	2
 1244              		.p2align 4,,15
 1245              		.global	can_lld_is_rx_nonempty
 1246              		.thumb
 1247              		.thumb_func
 1248              		.type	can_lld_is_rx_nonempty, %function
 1249              	can_lld_is_rx_nonempty:
 1250              	.LFB270:
 1251              		.loc 1 654 0
 1252              		.cfi_startproc
 1253              		@ args = 0, pretend = 0, frame = 0
 1254              		@ frame_needed = 0, uses_anonymous_args = 0
ARM GAS  /tmp/ccm5mkvt.s 			page 23


 1255              		@ link register save eliminated.
 1256              	.LVL101:
 1257              		.loc 1 656 0
 1258 0000 0129     		cmp	r1, #1
 1259 0002 11D0     		beq	.L113
 1260 0004 0AD3     		bcc	.L114
 1261 0006 0229     		cmp	r1, #2
 1262 0008 06D1     		bne	.L122
 1263              		.loc 1 663 0
 1264 000a C36A     		ldr	r3, [r0, #44]
 1265              	.L120:
 1266 000c 1869     		ldr	r0, [r3, #16]
 1267              	.LVL102:
 1268 000e 10F00300 		ands	r0, r0, #3
 1269 0012 18BF     		it	ne
 1270 0014 0120     		movne	r0, #1
 1271 0016 7047     		bx	lr
 1272              	.LVL103:
 1273              	.L122:
 1274              		.loc 1 665 0
 1275 0018 0020     		movs	r0, #0
 1276              	.LVL104:
 1277              		.loc 1 667 0
 1278 001a 7047     		bx	lr
 1279              	.LVL105:
 1280              	.L114:
 1281              		.loc 1 658 0
 1282 001c C36A     		ldr	r3, [r0, #44]
 1283 001e DA68     		ldr	r2, [r3, #12]
 1284 0020 9207     		lsls	r2, r2, #30
 1285 0022 F3D0     		beq	.L120
 1286 0024 0120     		movs	r0, #1
 1287              	.LVL106:
 1288 0026 7047     		bx	lr
 1289              	.LVL107:
 1290              	.L113:
 1291              		.loc 1 661 0
 1292 0028 C36A     		ldr	r3, [r0, #44]
 1293 002a D868     		ldr	r0, [r3, #12]
 1294              	.LVL108:
 1295 002c 10F00300 		ands	r0, r0, #3
 1296 0030 18BF     		it	ne
 1297 0032 0120     		movne	r0, #1
 1298 0034 7047     		bx	lr
 1299              		.cfi_endproc
 1300              	.LFE270:
 1301              		.size	can_lld_is_rx_nonempty, .-can_lld_is_rx_nonempty
 1302 0036 00BF     		.section	.text.can_lld_receive,"ax",%progbits
 1303              		.align	2
 1304              		.p2align 4,,15
 1305              		.global	can_lld_receive
 1306              		.thumb
 1307              		.thumb_func
 1308              		.type	can_lld_receive, %function
 1309              	can_lld_receive:
 1310              	.LFB271:
 1311              		.loc 1 680 0
ARM GAS  /tmp/ccm5mkvt.s 			page 24


 1312              		.cfi_startproc
 1313              		@ args = 0, pretend = 0, frame = 0
 1314              		@ frame_needed = 0, uses_anonymous_args = 0
 1315              		@ link register save eliminated.
 1316              	.LVL109:
 1317 0000 10B4     		push	{r4}
 1318              		.cfi_def_cfa_offset 4
 1319              		.cfi_offset 4, -4
 1320              		.loc 1 683 0
 1321 0002 0029     		cmp	r1, #0
 1322 0004 30D1     		bne	.L124
 1323              		.loc 1 684 0
 1324 0006 C36A     		ldr	r3, [r0, #44]
 1325 0008 D968     		ldr	r1, [r3, #12]
 1326              	.LVL110:
 1327 000a 8907     		lsls	r1, r1, #30
 1328 000c 33D0     		beq	.L134
 1329              	.L125:
 1330              	.LVL111:
 1331              		.loc 1 696 0
 1332 000e D3F8B041 		ldr	r4, [r3, #432]
 1333              	.LVL112:
 1334              		.loc 1 697 0
 1335 0012 D3F8B411 		ldr	r1, [r3, #436]
 1336              	.LVL113:
 1337              		.loc 1 698 0
 1338 0016 D3F8B831 		ldr	r3, [r3, #440]
 1339 001a D360     		str	r3, [r2, #12]
 1340              		.loc 1 699 0
 1341 001c C36A     		ldr	r3, [r0, #44]
 1342 001e D3F8BC31 		ldr	r3, [r3, #444]
 1343 0022 1361     		str	r3, [r2, #16]
 1344              		.loc 1 702 0
 1345 0024 C36A     		ldr	r3, [r0, #44]
 1346 0026 2020     		movs	r0, #32
 1347              	.LVL114:
 1348 0028 D860     		str	r0, [r3, #12]
 1349              		.loc 1 706 0
 1350 002a D868     		ldr	r0, [r3, #12]
 1351 002c 8007     		lsls	r0, r0, #30
 1352 002e 41D0     		beq	.L135
 1353              	.L130:
 1354              		.loc 1 730 0
 1355 0030 1379     		ldrb	r3, [r2, #4]	@ zero_extendqisi2
 1356 0032 C4F34000 		ubfx	r0, r4, #1, #1
 1357 0036 60F30413 		bfi	r3, r0, #4, #1
 1358              		.loc 1 731 0
 1359 003a C4F38000 		ubfx	r0, r4, #2, #1
 1360 003e 60F34513 		bfi	r3, r0, #5, #1
 1361 0042 1371     		strb	r3, [r2, #4]
 1362              		.loc 1 732 0
 1363 0044 9B06     		lsls	r3, r3, #26
 1364 0046 2FD5     		bpl	.L131
 1365              		.loc 1 733 0
 1366 0048 9368     		ldr	r3, [r2, #8]
 1367 004a E408     		lsrs	r4, r4, #3
 1368              	.LVL115:
ARM GAS  /tmp/ccm5mkvt.s 			page 25


 1369 004c 64F31C03 		bfi	r3, r4, #0, #29
 1370 0050 9360     		str	r3, [r2, #8]
 1371              	.L132:
 1372              		.loc 1 736 0
 1373 0052 1379     		ldrb	r3, [r2, #4]	@ zero_extendqisi2
 1374              		.loc 1 739 0
 1375 0054 5DF8044B 		ldr	r4, [sp], #4
 1376              		.cfi_remember_state
 1377              		.cfi_restore 4
 1378              		.cfi_def_cfa_offset 0
 1379              		.loc 1 737 0
 1380 0058 080A     		lsrs	r0, r1, #8
 1381              		.loc 1 736 0
 1382 005a 61F30303 		bfi	r3, r1, #0, #4
 1383              		.loc 1 738 0
 1384 005e 090C     		lsrs	r1, r1, #16
 1385              	.LVL116:
 1386              		.loc 1 736 0
 1387 0060 1371     		strb	r3, [r2, #4]
 1388              		.loc 1 737 0
 1389 0062 1070     		strb	r0, [r2]
 1390              		.loc 1 738 0
 1391 0064 5180     		strh	r1, [r2, #2]	@ movhi
 1392              		.loc 1 739 0
 1393 0066 7047     		bx	lr
 1394              	.LVL117:
 1395              	.L124:
 1396              		.cfi_restore_state
 1397              		.loc 1 693 0
 1398 0068 0129     		cmp	r1, #1
 1399 006a 28D0     		beq	.L128
 1400 006c 0229     		cmp	r1, #2
 1401 006e 28D0     		beq	.L136
 1402              	.LVL118:
 1403              	.L123:
 1404              		.loc 1 739 0
 1405 0070 5DF8044B 		ldr	r4, [sp], #4
 1406              		.cfi_remember_state
 1407              		.cfi_restore 4
 1408              		.cfi_def_cfa_offset 0
 1409 0074 7047     		bx	lr
 1410              	.L134:
 1411              		.cfi_restore_state
 1412              		.loc 1 686 0
 1413 0076 1969     		ldr	r1, [r3, #16]
 1414 0078 8C07     		lsls	r4, r1, #30
 1415 007a F9D0     		beq	.L123
 1416              	.L126:
 1417              	.LVL119:
 1418              		.loc 1 711 0
 1419 007c D3F8C041 		ldr	r4, [r3, #448]
 1420              	.LVL120:
 1421              		.loc 1 712 0
 1422 0080 D3F8C411 		ldr	r1, [r3, #452]
 1423              	.LVL121:
 1424              		.loc 1 713 0
 1425 0084 D3F8C831 		ldr	r3, [r3, #456]
ARM GAS  /tmp/ccm5mkvt.s 			page 26


 1426 0088 D360     		str	r3, [r2, #12]
 1427              		.loc 1 714 0
 1428 008a C36A     		ldr	r3, [r0, #44]
 1429 008c D3F8CC31 		ldr	r3, [r3, #460]
 1430 0090 1361     		str	r3, [r2, #16]
 1431              		.loc 1 717 0
 1432 0092 C36A     		ldr	r3, [r0, #44]
 1433 0094 2020     		movs	r0, #32
 1434              	.LVL122:
 1435 0096 1861     		str	r0, [r3, #16]
 1436              		.loc 1 721 0
 1437 0098 1869     		ldr	r0, [r3, #16]
 1438 009a 8007     		lsls	r0, r0, #30
 1439 009c C8D1     		bne	.L130
 1440              		.loc 1 722 0
 1441 009e 5869     		ldr	r0, [r3, #20]
 1442 00a0 40F01000 		orr	r0, r0, #16
 1443 00a4 5861     		str	r0, [r3, #20]
 1444 00a6 C3E7     		b	.L130
 1445              	.L131:
 1446              		.loc 1 735 0
 1447 00a8 1389     		ldrh	r3, [r2, #8]
 1448 00aa 640D     		lsrs	r4, r4, #21
 1449              	.LVL123:
 1450 00ac 64F30A03 		bfi	r3, r4, #0, #11
 1451 00b0 1381     		strh	r3, [r2, #8]	@ movhi
 1452 00b2 CEE7     		b	.L132
 1453              	.LVL124:
 1454              	.L135:
 1455              		.loc 1 707 0
 1456 00b4 5869     		ldr	r0, [r3, #20]
 1457 00b6 40F00200 		orr	r0, r0, #2
 1458 00ba 5861     		str	r0, [r3, #20]
 1459 00bc B8E7     		b	.L130
 1460              	.LVL125:
 1461              	.L128:
 1462 00be C36A     		ldr	r3, [r0, #44]
 1463 00c0 A5E7     		b	.L125
 1464              	.L136:
 1465 00c2 C36A     		ldr	r3, [r0, #44]
 1466 00c4 DAE7     		b	.L126
 1467              		.cfi_endproc
 1468              	.LFE271:
 1469              		.size	can_lld_receive, .-can_lld_receive
 1470              		.section	.text.can_lld_sleep,"ax",%progbits
 1471              		.align	2
 1472              		.p2align 4,,15
 1473              		.global	can_lld_sleep
 1474              		.thumb
 1475              		.thumb_func
 1476              		.type	can_lld_sleep, %function
 1477              	can_lld_sleep:
 1478              	.LFB272:
 1479              		.loc 1 749 0
 1480              		.cfi_startproc
 1481              		@ args = 0, pretend = 0, frame = 0
 1482              		@ frame_needed = 0, uses_anonymous_args = 0
ARM GAS  /tmp/ccm5mkvt.s 			page 27


 1483              		@ link register save eliminated.
 1484              	.LVL126:
 1485              		.loc 1 751 0
 1486 0000 C26A     		ldr	r2, [r0, #44]
 1487 0002 1368     		ldr	r3, [r2]
 1488 0004 43F00203 		orr	r3, r3, #2
 1489 0008 1360     		str	r3, [r2]
 1490 000a 7047     		bx	lr
 1491              		.cfi_endproc
 1492              	.LFE272:
 1493              		.size	can_lld_sleep, .-can_lld_sleep
 1494              		.section	.text.can_lld_wakeup,"ax",%progbits
 1495              		.align	2
 1496              		.p2align 4,,15
 1497              		.global	can_lld_wakeup
 1498              		.thumb
 1499              		.thumb_func
 1500              		.type	can_lld_wakeup, %function
 1501              	can_lld_wakeup:
 1502              	.LFB273:
 1503              		.loc 1 761 0
 1504              		.cfi_startproc
 1505              		@ args = 0, pretend = 0, frame = 0
 1506              		@ frame_needed = 0, uses_anonymous_args = 0
 1507              		@ link register save eliminated.
 1508              	.LVL127:
 1509              		.loc 1 763 0
 1510 0000 C26A     		ldr	r2, [r0, #44]
 1511 0002 1368     		ldr	r3, [r2]
 1512 0004 23F00203 		bic	r3, r3, #2
 1513 0008 1360     		str	r3, [r2]
 1514 000a 7047     		bx	lr
 1515              		.cfi_endproc
 1516              	.LFE273:
 1517              		.size	can_lld_wakeup, .-can_lld_wakeup
 1518              		.section	.text.canSTM32SetFilters,"ax",%progbits
 1519              		.align	2
 1520              		.p2align 4,,15
 1521              		.global	canSTM32SetFilters
 1522              		.thumb
 1523              		.thumb_func
 1524              		.type	canSTM32SetFilters, %function
 1525              	canSTM32SetFilters:
 1526              	.LFB274:
 1527              		.loc 1 779 0
 1528              		.cfi_startproc
 1529              		@ args = 0, pretend = 0, frame = 0
 1530              		@ frame_needed = 0, uses_anonymous_args = 0
 1531              		@ link register save eliminated.
 1532              	.LVL128:
 1533              		.loc 1 791 0
 1534 0000 FFF7FEBF 		b	can_lld_set_filters
 1535              	.LVL129:
 1536              		.cfi_endproc
 1537              	.LFE274:
 1538              		.size	canSTM32SetFilters, .-canSTM32SetFilters
 1539              		.global	CAND1
ARM GAS  /tmp/ccm5mkvt.s 			page 28


 1540              		.section	.bss.CAND1,"aw",%nobits
 1541              		.align	2
 1542              		.set	.LANCHOR0,. + 0
 1543              		.type	CAND1, %object
 1544              		.size	CAND1, 48
 1545              	CAND1:
 1546 0000 00000000 		.space	48
 1546      00000000 
 1546      00000000 
 1546      00000000 
 1546      00000000 
 1547              		.text
 1548              	.Letext0:
 1549              		.file 5 "/usr/lib/gcc/arm-none-eabi/4.9.3/include/stddef.h"
 1550              		.file 6 "/usr/arm-none-eabi/include/machine/_default_types.h"
 1551              		.file 7 "/usr/arm-none-eabi/include/sys/_stdint.h"
 1552              		.file 8 "ChibiOS_3.0.2/os/rt/ports/ARMCMx/compilers/GCC/chtypes.h"
 1553              		.file 9 "ChibiOS_3.0.2/os/rt/include/chsystypes.h"
 1554              		.file 10 "ChibiOS_3.0.2/os/rt/include/chschd.h"
 1555              		.file 11 "ChibiOS_3.0.2/os/ext/CMSIS/ST/stm32f407xx.h"
 1556              		.file 12 "ChibiOS_3.0.2/os/rt/ports/ARMCMx/chcore.h"
 1557              		.file 13 "ChibiOS_3.0.2/os/rt/ports/ARMCMx/chcore_v7m.h"
 1558              		.file 14 "ChibiOS_3.0.2/os/rt/include/chtm.h"
 1559              		.file 15 "ChibiOS_3.0.2/os/rt/include/chsem.h"
 1560              		.file 16 "ChibiOS_3.0.2/os/rt/include/chmtx.h"
 1561              		.file 17 "ChibiOS_3.0.2/os/rt/include/chevents.h"
 1562              		.file 18 "ChibiOS_3.0.2/os/hal/include/can.h"
 1563              		.file 19 "ChibiOS_3.0.2/os/hal/ports/STM32/LLD/can_lld.h"
 1564              		.file 20 "ChibiOS_3.0.2/os/rt/include/chsys.h"
 1565              		.file 21 "ChibiOS_3.0.2/os/ext/CMSIS/include/core_cm4.h"
 1566              		.file 22 "ChibiOS_3.0.2/os/hal/ports/common/ARMCMx/nvic.h"