ARM GAS  /tmp/cc3q2kdN.s 			page 1


   1              		.syntax unified
   2              		.cpu cortex-m4
   3              		.eabi_attribute 27, 1
   4              		.eabi_attribute 28, 1
   5              		.fpu fpv4-sp-d16
   6              		.eabi_attribute 20, 1
   7              		.eabi_attribute 21, 1
   8              		.eabi_attribute 23, 3
   9              		.eabi_attribute 24, 1
  10              		.eabi_attribute 25, 1
  11              		.eabi_attribute 26, 1
  12              		.eabi_attribute 30, 2
  13              		.eabi_attribute 34, 1
  14              		.eabi_attribute 18, 4
  15              		.thumb
  16              		.file	"chevents.c"
  17              		.text
  18              	.Ltext0:
  19              		.cfi_sections	.debug_frame
  20              		.section	.text.chEvtRegisterMaskWithFlags,"ax",%progbits
  21              		.align	2
  22              		.p2align 4,,15
  23              		.global	chEvtRegisterMaskWithFlags
  24              		.thumb
  25              		.thumb_func
  26              		.type	chEvtRegisterMaskWithFlags, %function
  27              	chEvtRegisterMaskWithFlags:
  28              	.LFB219:
  29              		.file 1 "ChibiOS_3.0.2/os/rt/src/chevents.c"
  30              		.loc 1 106 0
  31              		.cfi_startproc
  32              		@ args = 0, pretend = 0, frame = 0
  33              		@ frame_needed = 0, uses_anonymous_args = 0
  34              		@ link register save eliminated.
  35              	.LVL0:
  36 0000 30B4     		push	{r4, r5}
  37              		.cfi_def_cfa_offset 8
  38              		.cfi_offset 4, -8
  39              		.cfi_offset 5, -4
  40              	.LBB174:
  41              	.LBB175:
  42              	.LBB176:
  43              	.LBB177:
  44              		.file 2 "ChibiOS_3.0.2/os/ext/CMSIS/include/core_cmFunc.h"
  45              		.loc 2 342 0
  46              	@ 342 "ChibiOS_3.0.2/os/ext/CMSIS/include/core_cmFunc.h" 1
  47 0002 72B6     		cpsid i
  48              	@ 0 "" 2
  49              		.thumb
  50              	.LBE177:
  51              	.LBE176:
  52              	.LBE175:
  53              	.LBE174:
  54              		.loc 1 113 0
  55 0004 064D     		ldr	r5, .L3
  56              		.loc 1 111 0
  57 0006 0468     		ldr	r4, [r0]
ARM GAS  /tmp/cc3q2kdN.s 			page 2


  58              		.loc 1 113 0
  59 0008 AD69     		ldr	r5, [r5, #24]
  60              		.loc 1 111 0
  61 000a 0C60     		str	r4, [r1]
  62              		.loc 1 115 0
  63 000c 0024     		movs	r4, #0
  64              		.loc 1 112 0
  65 000e 0160     		str	r1, [r0]
  66              		.loc 1 113 0
  67 0010 4D60     		str	r5, [r1, #4]
  68              		.loc 1 114 0
  69 0012 8A60     		str	r2, [r1, #8]
  70              		.loc 1 116 0
  71 0014 0B61     		str	r3, [r1, #16]
  72              		.loc 1 115 0
  73 0016 CC60     		str	r4, [r1, #12]
  74              	.LBB178:
  75              	.LBB179:
  76              	.LBB180:
  77              	.LBB181:
  78              	.LBB182:
  79              		.loc 2 331 0
  80              	@ 331 "ChibiOS_3.0.2/os/ext/CMSIS/include/core_cmFunc.h" 1
  81 0018 62B6     		cpsie i
  82              	@ 0 "" 2
  83              		.thumb
  84              	.LBE182:
  85              	.LBE181:
  86              	.LBE180:
  87              	.LBE179:
  88              	.LBE178:
  89              		.loc 1 118 0
  90 001a 30BC     		pop	{r4, r5}
  91              		.cfi_restore 5
  92              		.cfi_restore 4
  93              		.cfi_def_cfa_offset 0
  94 001c 7047     		bx	lr
  95              	.L4:
  96 001e 00BF     		.align	2
  97              	.L3:
  98 0020 00000000 		.word	ch
  99              		.cfi_endproc
 100              	.LFE219:
 101              		.size	chEvtRegisterMaskWithFlags, .-chEvtRegisterMaskWithFlags
 102              		.section	.text.chEvtUnregister,"ax",%progbits
 103              		.align	2
 104              		.p2align 4,,15
 105              		.global	chEvtUnregister
 106              		.thumb
 107              		.thumb_func
 108              		.type	chEvtUnregister, %function
 109              	chEvtUnregister:
 110              	.LFB220:
 111              		.loc 1 133 0
 112              		.cfi_startproc
 113              		@ args = 0, pretend = 0, frame = 0
 114              		@ frame_needed = 0, uses_anonymous_args = 0
ARM GAS  /tmp/cc3q2kdN.s 			page 3


 115              		@ link register save eliminated.
 116              	.LVL1:
 117              	.LBB183:
 118              	.LBB184:
 119              	.LBB185:
 120              	.LBB186:
 121              		.loc 2 342 0
 122              	@ 342 "ChibiOS_3.0.2/os/ext/CMSIS/include/core_cmFunc.h" 1
 123 0000 72B6     		cpsid i
 124              	@ 0 "" 2
 125              		.thumb
 126              	.LBE186:
 127              	.LBE185:
 128              	.LBE184:
 129              	.LBE183:
 130              		.loc 1 139 0
 131 0002 0246     		mov	r2, r0
 132 0004 02E0     		b	.L6
 133              	.LVL2:
 134              	.L8:
 135              		.loc 1 145 0
 136 0006 8B42     		cmp	r3, r1
 137 0008 05D0     		beq	.L11
 138 000a 1A46     		mov	r2, r3
 139              	.LVL3:
 140              	.L6:
 141              		.loc 1 143 0
 142 000c 1368     		ldr	r3, [r2]
 143 000e 8342     		cmp	r3, r0
 144 0010 F9D1     		bne	.L8
 145              	.LBB187:
 146              	.LBB188:
 147              	.LBB189:
 148              	.LBB190:
 149              	.LBB191:
 150              		.loc 2 331 0
 151              	@ 331 "ChibiOS_3.0.2/os/ext/CMSIS/include/core_cmFunc.h" 1
 152 0012 62B6     		cpsie i
 153              	@ 0 "" 2
 154              		.thumb
 155 0014 7047     		bx	lr
 156              	.L11:
 157              	.LBE191:
 158              	.LBE190:
 159              	.LBE189:
 160              	.LBE188:
 161              	.LBE187:
 162              		.loc 1 146 0
 163 0016 0B68     		ldr	r3, [r1]
 164 0018 1360     		str	r3, [r2]
 165              	.LBB196:
 166              	.LBB195:
 167              	.LBB194:
 168              	.LBB193:
 169              	.LBB192:
 170              		.loc 2 331 0
 171              	@ 331 "ChibiOS_3.0.2/os/ext/CMSIS/include/core_cmFunc.h" 1
ARM GAS  /tmp/cc3q2kdN.s 			page 4


 172 001a 62B6     		cpsie i
 173              	@ 0 "" 2
 174              		.thumb
 175 001c 7047     		bx	lr
 176              	.LBE192:
 177              	.LBE193:
 178              	.LBE194:
 179              	.LBE195:
 180              	.LBE196:
 181              		.cfi_endproc
 182              	.LFE220:
 183              		.size	chEvtUnregister, .-chEvtUnregister
 184 001e 00BF     		.section	.text.chEvtGetAndClearEvents,"ax",%progbits
 185              		.align	2
 186              		.p2align 4,,15
 187              		.global	chEvtGetAndClearEvents
 188              		.thumb
 189              		.thumb_func
 190              		.type	chEvtGetAndClearEvents, %function
 191              	chEvtGetAndClearEvents:
 192              	.LFB221:
 193              		.loc 1 162 0
 194              		.cfi_startproc
 195              		@ args = 0, pretend = 0, frame = 0
 196              		@ frame_needed = 0, uses_anonymous_args = 0
 197              		@ link register save eliminated.
 198              	.LVL4:
 199              	.LBB197:
 200              	.LBB198:
 201              	.LBB199:
 202              	.LBB200:
 203              		.loc 2 342 0
 204              	@ 342 "ChibiOS_3.0.2/os/ext/CMSIS/include/core_cmFunc.h" 1
 205 0000 72B6     		cpsid i
 206              	@ 0 "" 2
 207              		.thumb
 208              	.LBE200:
 209              	.LBE199:
 210              	.LBE198:
 211              	.LBE197:
 212              		.loc 1 166 0
 213 0002 044B     		ldr	r3, .L13
 214 0004 9A69     		ldr	r2, [r3, #24]
 215 0006 936B     		ldr	r3, [r2, #56]
 216              	.LVL5:
 217              		.loc 1 167 0
 218 0008 23EA0001 		bic	r1, r3, r0
 219 000c 9163     		str	r1, [r2, #56]
 220              	.LBB201:
 221              	.LBB202:
 222              	.LBB203:
 223              	.LBB204:
 224              	.LBB205:
 225              		.loc 2 331 0
 226              	@ 331 "ChibiOS_3.0.2/os/ext/CMSIS/include/core_cmFunc.h" 1
 227 000e 62B6     		cpsie i
 228              	@ 0 "" 2
ARM GAS  /tmp/cc3q2kdN.s 			page 5


 229              		.thumb
 230              	.LBE205:
 231              	.LBE204:
 232              	.LBE203:
 233              	.LBE202:
 234              	.LBE201:
 235              		.loc 1 171 0
 236 0010 1840     		ands	r0, r0, r3
 237              	.LVL6:
 238 0012 7047     		bx	lr
 239              	.L14:
 240              		.align	2
 241              	.L13:
 242 0014 00000000 		.word	ch
 243              		.cfi_endproc
 244              	.LFE221:
 245              		.size	chEvtGetAndClearEvents, .-chEvtGetAndClearEvents
 246              		.section	.text.chEvtAddEvents,"ax",%progbits
 247              		.align	2
 248              		.p2align 4,,15
 249              		.global	chEvtAddEvents
 250              		.thumb
 251              		.thumb_func
 252              		.type	chEvtAddEvents, %function
 253              	chEvtAddEvents:
 254              	.LFB222:
 255              		.loc 1 182 0
 256              		.cfi_startproc
 257              		@ args = 0, pretend = 0, frame = 0
 258              		@ frame_needed = 0, uses_anonymous_args = 0
 259              		@ link register save eliminated.
 260              	.LVL7:
 261              	.LBB206:
 262              	.LBB207:
 263              	.LBB208:
 264              	.LBB209:
 265              		.loc 2 342 0
 266              	@ 342 "ChibiOS_3.0.2/os/ext/CMSIS/include/core_cmFunc.h" 1
 267 0000 72B6     		cpsid i
 268              	@ 0 "" 2
 269              		.thumb
 270              	.LBE209:
 271              	.LBE208:
 272              	.LBE207:
 273              	.LBE206:
 274              		.loc 1 185 0
 275 0002 034B     		ldr	r3, .L16
 276 0004 9A69     		ldr	r2, [r3, #24]
 277 0006 936B     		ldr	r3, [r2, #56]
 278 0008 1843     		orrs	r0, r0, r3
 279              	.LVL8:
 280 000a 9063     		str	r0, [r2, #56]
 281              	.LVL9:
 282              	.LBB210:
 283              	.LBB211:
 284              	.LBB212:
 285              	.LBB213:
ARM GAS  /tmp/cc3q2kdN.s 			page 6


 286              	.LBB214:
 287              		.loc 2 331 0
 288              	@ 331 "ChibiOS_3.0.2/os/ext/CMSIS/include/core_cmFunc.h" 1
 289 000c 62B6     		cpsie i
 290              	@ 0 "" 2
 291              		.thumb
 292              	.LBE214:
 293              	.LBE213:
 294              	.LBE212:
 295              	.LBE211:
 296              	.LBE210:
 297              		.loc 1 190 0
 298 000e 7047     		bx	lr
 299              	.L17:
 300              		.align	2
 301              	.L16:
 302 0010 00000000 		.word	ch
 303              		.cfi_endproc
 304              	.LFE222:
 305              		.size	chEvtAddEvents, .-chEvtAddEvents
 306              		.section	.text.chEvtGetAndClearFlags,"ax",%progbits
 307              		.align	2
 308              		.p2align 4,,15
 309              		.global	chEvtGetAndClearFlags
 310              		.thumb
 311              		.thumb_func
 312              		.type	chEvtGetAndClearFlags, %function
 313              	chEvtGetAndClearFlags:
 314              	.LFB224:
 315              		.loc 1 241 0
 316              		.cfi_startproc
 317              		@ args = 0, pretend = 0, frame = 0
 318              		@ frame_needed = 0, uses_anonymous_args = 0
 319              		@ link register save eliminated.
 320              	.LVL10:
 321              		.loc 1 241 0
 322 0000 0346     		mov	r3, r0
 323              	.LBB215:
 324              	.LBB216:
 325              	.LBB217:
 326              	.LBB218:
 327              		.loc 2 342 0
 328              	@ 342 "ChibiOS_3.0.2/os/ext/CMSIS/include/core_cmFunc.h" 1
 329 0002 72B6     		cpsid i
 330              	@ 0 "" 2
 331              		.thumb
 332              	.LBE218:
 333              	.LBE217:
 334              	.LBE216:
 335              	.LBE215:
 336              		.loc 1 246 0
 337 0004 0022     		movs	r2, #0
 338              		.loc 1 245 0
 339 0006 C068     		ldr	r0, [r0, #12]
 340              	.LVL11:
 341              		.loc 1 246 0
 342 0008 DA60     		str	r2, [r3, #12]
ARM GAS  /tmp/cc3q2kdN.s 			page 7


 343              	.LBB219:
 344              	.LBB220:
 345              	.LBB221:
 346              	.LBB222:
 347              	.LBB223:
 348              		.loc 2 331 0
 349              	@ 331 "ChibiOS_3.0.2/os/ext/CMSIS/include/core_cmFunc.h" 1
 350 000a 62B6     		cpsie i
 351              	@ 0 "" 2
 352              		.thumb
 353              	.LBE223:
 354              	.LBE222:
 355              	.LBE221:
 356              	.LBE220:
 357              	.LBE219:
 358              		.loc 1 250 0
 359 000c 7047     		bx	lr
 360              		.cfi_endproc
 361              	.LFE224:
 362              		.size	chEvtGetAndClearFlags, .-chEvtGetAndClearFlags
 363 000e 00BF     		.section	.text.chEvtSignalI,"ax",%progbits
 364              		.align	2
 365              		.p2align 4,,15
 366              		.global	chEvtSignalI
 367              		.thumb
 368              		.thumb_func
 369              		.type	chEvtSignalI, %function
 370              	chEvtSignalI:
 371              	.LFB226:
 372              		.loc 1 282 0
 373              		.cfi_startproc
 374              		@ args = 0, pretend = 0, frame = 0
 375              		@ frame_needed = 0, uses_anonymous_args = 0
 376              		@ link register save eliminated.
 377              	.LVL12:
 378              		.loc 1 287 0
 379 0000 836B     		ldr	r3, [r0, #56]
 380              		.loc 1 289 0
 381 0002 027F     		ldrb	r2, [r0, #28]	@ zero_extendqisi2
 382              		.loc 1 287 0
 383 0004 1943     		orrs	r1, r1, r3
 384              	.LVL13:
 385              		.loc 1 289 0
 386 0006 0A2A     		cmp	r2, #10
 387              		.loc 1 287 0
 388 0008 8163     		str	r1, [r0, #56]
 389              		.loc 1 289 0
 390 000a 0AD0     		beq	.L23
 391              		.loc 1 290 0
 392 000c 0B2A     		cmp	r2, #11
 393 000e 00D0     		beq	.L24
 394              	.L19:
 395 0010 7047     		bx	lr
 396              	.L24:
 397              		.loc 1 292 0
 398 0012 436A     		ldr	r3, [r0, #36]
 399 0014 1940     		ands	r1, r1, r3
ARM GAS  /tmp/cc3q2kdN.s 			page 8


 400              		.loc 1 291 0
 401 0016 8B42     		cmp	r3, r1
 402 0018 FAD1     		bne	.L19
 403              	.L21:
 404              		.loc 1 293 0
 405 001a 0023     		movs	r3, #0
 406 001c 4362     		str	r3, [r0, #36]
 407              		.loc 1 294 0
 408 001e FFF7FEBF 		b	chSchReadyI
 409              	.LVL14:
 410              	.L23:
 411              		.loc 1 290 0 discriminator 1
 412 0022 436A     		ldr	r3, [r0, #36]
 413              		.loc 1 289 0 discriminator 1
 414 0024 1942     		tst	r1, r3
 415 0026 F8D1     		bne	.L21
 416 0028 7047     		bx	lr
 417              		.cfi_endproc
 418              	.LFE226:
 419              		.size	chEvtSignalI, .-chEvtSignalI
 420 002a 00BF     		.section	.text.chEvtBroadcastFlagsI,"ax",%progbits
 421              		.align	2
 422              		.p2align 4,,15
 423              		.global	chEvtBroadcastFlagsI
 424              		.thumb
 425              		.thumb_func
 426              		.type	chEvtBroadcastFlagsI, %function
 427              	chEvtBroadcastFlagsI:
 428              	.LFB223:
 429              		.loc 1 209 0
 430              		.cfi_startproc
 431              		@ args = 0, pretend = 0, frame = 0
 432              		@ frame_needed = 0, uses_anonymous_args = 0
 433              	.LVL15:
 434 0000 70B5     		push	{r4, r5, r6, lr}
 435              		.cfi_def_cfa_offset 16
 436              		.cfi_offset 4, -16
 437              		.cfi_offset 5, -12
 438              		.cfi_offset 6, -8
 439              		.cfi_offset 14, -4
 440              		.loc 1 215 0
 441 0002 0468     		ldr	r4, [r0]
 442              	.LVL16:
 443              		.loc 1 217 0
 444 0004 A042     		cmp	r0, r4
 445              		.loc 1 209 0
 446 0006 0646     		mov	r6, r0
 447 0008 0D46     		mov	r5, r1
 448              		.loc 1 217 0
 449 000a 0DD0     		beq	.L25
 450              	.LVL17:
 451              	.L29:
 452              		.loc 1 219 0
 453 000c E368     		ldr	r3, [r4, #12]
 454 000e 2B43     		orrs	r3, r3, r5
 455 0010 E360     		str	r3, [r4, #12]
 456              		.loc 1 222 0
ARM GAS  /tmp/cc3q2kdN.s 			page 9


 457 0012 15B1     		cbz	r5, .L27
 458              		.loc 1 223 0 discriminator 1
 459 0014 2269     		ldr	r2, [r4, #16]
 460              		.loc 1 222 0 discriminator 1
 461 0016 1342     		tst	r3, r2
 462 0018 03D0     		beq	.L28
 463              	.L27:
 464              		.loc 1 224 0
 465 001a 6068     		ldr	r0, [r4, #4]
 466 001c A168     		ldr	r1, [r4, #8]
 467 001e FFF7FEFF 		bl	chEvtSignalI
 468              	.LVL18:
 469              	.L28:
 470              		.loc 1 226 0
 471 0022 2468     		ldr	r4, [r4]
 472              	.LVL19:
 473              		.loc 1 217 0
 474 0024 A642     		cmp	r6, r4
 475 0026 F1D1     		bne	.L29
 476              	.L25:
 477 0028 70BD     		pop	{r4, r5, r6, pc}
 478              		.cfi_endproc
 479              	.LFE223:
 480              		.size	chEvtBroadcastFlagsI, .-chEvtBroadcastFlagsI
 481 002a 00BF     		.section	.text.chEvtSignal,"ax",%progbits
 482              		.align	2
 483              		.p2align 4,,15
 484              		.global	chEvtSignal
 485              		.thumb
 486              		.thumb_func
 487              		.type	chEvtSignal, %function
 488              	chEvtSignal:
 489              	.LFB225:
 490              		.loc 1 260 0
 491              		.cfi_startproc
 492              		@ args = 0, pretend = 0, frame = 0
 493              		@ frame_needed = 0, uses_anonymous_args = 0
 494              	.LVL20:
 495 0000 08B5     		push	{r3, lr}
 496              		.cfi_def_cfa_offset 8
 497              		.cfi_offset 3, -8
 498              		.cfi_offset 14, -4
 499              	.LBB224:
 500              	.LBB225:
 501              	.LBB226:
 502              	.LBB227:
 503              		.loc 2 342 0
 504              	@ 342 "ChibiOS_3.0.2/os/ext/CMSIS/include/core_cmFunc.h" 1
 505 0002 72B6     		cpsid i
 506              	@ 0 "" 2
 507              		.thumb
 508              	.LBE227:
 509              	.LBE226:
 510              	.LBE225:
 511              	.LBE224:
 512              		.loc 1 265 0
 513 0004 FFF7FEFF 		bl	chEvtSignalI
ARM GAS  /tmp/cc3q2kdN.s 			page 10


 514              	.LVL21:
 515              		.loc 1 266 0
 516 0008 FFF7FEFF 		bl	chSchRescheduleS
 517              	.LVL22:
 518              	.LBB228:
 519              	.LBB229:
 520              	.LBB230:
 521              	.LBB231:
 522              	.LBB232:
 523              		.loc 2 331 0
 524              	@ 331 "ChibiOS_3.0.2/os/ext/CMSIS/include/core_cmFunc.h" 1
 525 000c 62B6     		cpsie i
 526              	@ 0 "" 2
 527              		.thumb
 528 000e 08BD     		pop	{r3, pc}
 529              	.LBE232:
 530              	.LBE231:
 531              	.LBE230:
 532              	.LBE229:
 533              	.LBE228:
 534              		.cfi_endproc
 535              	.LFE225:
 536              		.size	chEvtSignal, .-chEvtSignal
 537              		.section	.text.chEvtBroadcastFlags,"ax",%progbits
 538              		.align	2
 539              		.p2align 4,,15
 540              		.global	chEvtBroadcastFlags
 541              		.thumb
 542              		.thumb_func
 543              		.type	chEvtBroadcastFlags, %function
 544              	chEvtBroadcastFlags:
 545              	.LFB227:
 546              		.loc 1 311 0
 547              		.cfi_startproc
 548              		@ args = 0, pretend = 0, frame = 0
 549              		@ frame_needed = 0, uses_anonymous_args = 0
 550              	.LVL23:
 551 0000 08B5     		push	{r3, lr}
 552              		.cfi_def_cfa_offset 8
 553              		.cfi_offset 3, -8
 554              		.cfi_offset 14, -4
 555              	.LBB233:
 556              	.LBB234:
 557              	.LBB235:
 558              	.LBB236:
 559              		.loc 2 342 0
 560              	@ 342 "ChibiOS_3.0.2/os/ext/CMSIS/include/core_cmFunc.h" 1
 561 0002 72B6     		cpsid i
 562              	@ 0 "" 2
 563              		.thumb
 564              	.LBE236:
 565              	.LBE235:
 566              	.LBE234:
 567              	.LBE233:
 568              		.loc 1 314 0
 569 0004 FFF7FEFF 		bl	chEvtBroadcastFlagsI
 570              	.LVL24:
ARM GAS  /tmp/cc3q2kdN.s 			page 11


 571              		.loc 1 315 0
 572 0008 FFF7FEFF 		bl	chSchRescheduleS
 573              	.LVL25:
 574              	.LBB237:
 575              	.LBB238:
 576              	.LBB239:
 577              	.LBB240:
 578              	.LBB241:
 579              		.loc 2 331 0
 580              	@ 331 "ChibiOS_3.0.2/os/ext/CMSIS/include/core_cmFunc.h" 1
 581 000c 62B6     		cpsie i
 582              	@ 0 "" 2
 583              		.thumb
 584 000e 08BD     		pop	{r3, pc}
 585              	.LBE241:
 586              	.LBE240:
 587              	.LBE239:
 588              	.LBE238:
 589              	.LBE237:
 590              		.cfi_endproc
 591              	.LFE227:
 592              		.size	chEvtBroadcastFlags, .-chEvtBroadcastFlags
 593              		.section	.text.chEvtGetAndClearFlagsI,"ax",%progbits
 594              		.align	2
 595              		.p2align 4,,15
 596              		.global	chEvtGetAndClearFlagsI
 597              		.thumb
 598              		.thumb_func
 599              		.type	chEvtGetAndClearFlagsI, %function
 600              	chEvtGetAndClearFlagsI:
 601              	.LFB228:
 602              		.loc 1 330 0
 603              		.cfi_startproc
 604              		@ args = 0, pretend = 0, frame = 0
 605              		@ frame_needed = 0, uses_anonymous_args = 0
 606              		@ link register save eliminated.
 607              	.LVL26:
 608              		.loc 1 330 0
 609 0000 0346     		mov	r3, r0
 610              		.loc 1 334 0
 611 0002 0022     		movs	r2, #0
 612              		.loc 1 333 0
 613 0004 C068     		ldr	r0, [r0, #12]
 614              	.LVL27:
 615              		.loc 1 334 0
 616 0006 DA60     		str	r2, [r3, #12]
 617              		.loc 1 337 0
 618 0008 7047     		bx	lr
 619              		.cfi_endproc
 620              	.LFE228:
 621              		.size	chEvtGetAndClearFlagsI, .-chEvtGetAndClearFlagsI
 622 000a 00BF     		.section	.text.chEvtDispatch,"ax",%progbits
 623              		.align	2
 624              		.p2align 4,,15
 625              		.global	chEvtDispatch
 626              		.thumb
 627              		.thumb_func
ARM GAS  /tmp/cc3q2kdN.s 			page 12


 628              		.type	chEvtDispatch, %function
 629              	chEvtDispatch:
 630              	.LFB229:
 631              		.loc 1 348 0
 632              		.cfi_startproc
 633              		@ args = 0, pretend = 0, frame = 0
 634              		@ frame_needed = 0, uses_anonymous_args = 0
 635              	.LVL28:
 636 0000 F8B5     		push	{r3, r4, r5, r6, r7, lr}
 637              		.cfi_def_cfa_offset 24
 638              		.cfi_offset 3, -24
 639              		.cfi_offset 4, -20
 640              		.cfi_offset 5, -16
 641              		.cfi_offset 6, -12
 642              		.cfi_offset 7, -8
 643              		.cfi_offset 14, -4
 644              		.loc 1 354 0
 645 0002 0D46     		mov	r5, r1
 646 0004 B9B1     		cbz	r1, .L44
 647 0006 0646     		mov	r6, r0
 648 0008 0024     		movs	r4, #0
 649              		.loc 1 357 0
 650 000a 0127     		movs	r7, #1
 651              	.LVL29:
 652              	.L46:
 653              		.loc 1 355 0
 654 000c 25FA04F3 		lsr	r3, r5, r4
 655 0010 DB07     		lsls	r3, r3, #31
 656 0012 04D4     		bmi	.L51
 657              	.L47:
 658              		.loc 1 360 0
 659 0014 0134     		adds	r4, r4, #1
 660              	.LVL30:
 661              		.loc 1 355 0
 662 0016 25FA04F3 		lsr	r3, r5, r4
 663 001a DB07     		lsls	r3, r3, #31
 664 001c FAD5     		bpl	.L47
 665              	.L51:
 666              		.loc 1 357 0
 667 001e 07FA04F3 		lsl	r3, r7, r4
 668              		.loc 1 358 0
 669 0022 2046     		mov	r0, r4
 670              		.loc 1 357 0
 671 0024 25EA0305 		bic	r5, r5, r3
 672              	.LVL31:
 673              		.loc 1 358 0
 674 0028 56F82430 		ldr	r3, [r6, r4, lsl #2]
 675 002c 9847     		blx	r3
 676              	.LVL32:
 677              		.loc 1 360 0
 678 002e 0134     		adds	r4, r4, #1
 679              	.LVL33:
 680              		.loc 1 354 0
 681 0030 002D     		cmp	r5, #0
 682 0032 EBD1     		bne	.L46
 683 0034 F8BD     		pop	{r3, r4, r5, r6, r7, pc}
 684              	.LVL34:
ARM GAS  /tmp/cc3q2kdN.s 			page 13


 685              	.L44:
 686 0036 F8BD     		pop	{r3, r4, r5, r6, r7, pc}
 687              		.cfi_endproc
 688              	.LFE229:
 689              		.size	chEvtDispatch, .-chEvtDispatch
 690              		.section	.text.chEvtWaitOne,"ax",%progbits
 691              		.align	2
 692              		.p2align 4,,15
 693              		.global	chEvtWaitOne
 694              		.thumb
 695              		.thumb_func
 696              		.type	chEvtWaitOne, %function
 697              	chEvtWaitOne:
 698              	.LFB230:
 699              		.loc 1 383 0
 700              		.cfi_startproc
 701              		@ args = 0, pretend = 0, frame = 0
 702              		@ frame_needed = 0, uses_anonymous_args = 0
 703              	.LVL35:
 704 0000 38B5     		push	{r3, r4, r5, lr}
 705              		.cfi_def_cfa_offset 16
 706              		.cfi_offset 3, -16
 707              		.cfi_offset 4, -12
 708              		.cfi_offset 5, -8
 709              		.cfi_offset 14, -4
 710              		.loc 1 384 0
 711 0002 0B4B     		ldr	r3, .L55
 712 0004 9D69     		ldr	r5, [r3, #24]
 713              	.LVL36:
 714              	.LBB242:
 715              	.LBB243:
 716              	.LBB244:
 717              	.LBB245:
 718              		.loc 2 342 0
 719              	@ 342 "ChibiOS_3.0.2/os/ext/CMSIS/include/core_cmFunc.h" 1
 720 0006 72B6     		cpsid i
 721              	@ 0 "" 2
 722              		.thumb
 723              	.LBE245:
 724              	.LBE244:
 725              	.LBE243:
 726              	.LBE242:
 727              		.loc 1 388 0
 728 0008 AB6B     		ldr	r3, [r5, #56]
 729              	.LVL37:
 730              		.loc 1 389 0
 731 000a 10EA0302 		ands	r2, r0, r3
 732              	.LVL38:
 733 000e 07D1     		bne	.L53
 734 0010 0446     		mov	r4, r0
 735              		.loc 1 390 0
 736 0012 6862     		str	r0, [r5, #36]
 737              		.loc 1 391 0
 738 0014 0A20     		movs	r0, #10
 739              	.LVL39:
 740 0016 FFF7FEFF 		bl	chSchGoSleepS
 741              	.LVL40:
ARM GAS  /tmp/cc3q2kdN.s 			page 14


 742              		.loc 1 392 0
 743 001a AB6B     		ldr	r3, [r5, #56]
 744 001c 04EA0302 		and	r2, r4, r3
 745              	.LVL41:
 746              	.L53:
 747              		.loc 1 394 0
 748 0020 5042     		negs	r0, r2
 749 0022 1040     		ands	r0, r0, r2
 750              	.LVL42:
 751              		.loc 1 395 0
 752 0024 23EA0003 		bic	r3, r3, r0
 753 0028 AB63     		str	r3, [r5, #56]
 754              	.LBB246:
 755              	.LBB247:
 756              	.LBB248:
 757              	.LBB249:
 758              	.LBB250:
 759              		.loc 2 331 0
 760              	@ 331 "ChibiOS_3.0.2/os/ext/CMSIS/include/core_cmFunc.h" 1
 761 002a 62B6     		cpsie i
 762              	@ 0 "" 2
 763              		.thumb
 764              	.LBE250:
 765              	.LBE249:
 766              	.LBE248:
 767              	.LBE247:
 768              	.LBE246:
 769              		.loc 1 399 0
 770 002c 38BD     		pop	{r3, r4, r5, pc}
 771              	.LVL43:
 772              	.L56:
 773 002e 00BF     		.align	2
 774              	.L55:
 775 0030 00000000 		.word	ch
 776              		.cfi_endproc
 777              	.LFE230:
 778              		.size	chEvtWaitOne, .-chEvtWaitOne
 779              		.section	.text.chEvtWaitAny,"ax",%progbits
 780              		.align	2
 781              		.p2align 4,,15
 782              		.global	chEvtWaitAny
 783              		.thumb
 784              		.thumb_func
 785              		.type	chEvtWaitAny, %function
 786              	chEvtWaitAny:
 787              	.LFB231:
 788              		.loc 1 413 0
 789              		.cfi_startproc
 790              		@ args = 0, pretend = 0, frame = 0
 791              		@ frame_needed = 0, uses_anonymous_args = 0
 792              	.LVL44:
 793 0000 38B5     		push	{r3, r4, r5, lr}
 794              		.cfi_def_cfa_offset 16
 795              		.cfi_offset 3, -16
 796              		.cfi_offset 4, -12
 797              		.cfi_offset 5, -8
 798              		.cfi_offset 14, -4
ARM GAS  /tmp/cc3q2kdN.s 			page 15


 799              		.loc 1 414 0
 800 0002 0A4B     		ldr	r3, .L60
 801 0004 9D69     		ldr	r5, [r3, #24]
 802              	.LVL45:
 803              	.LBB251:
 804              	.LBB252:
 805              	.LBB253:
 806              	.LBB254:
 807              		.loc 2 342 0
 808              	@ 342 "ChibiOS_3.0.2/os/ext/CMSIS/include/core_cmFunc.h" 1
 809 0006 72B6     		cpsid i
 810              	@ 0 "" 2
 811              		.thumb
 812              	.LBE254:
 813              	.LBE253:
 814              	.LBE252:
 815              	.LBE251:
 816              		.loc 1 418 0
 817 0008 AB6B     		ldr	r3, [r5, #56]
 818              	.LVL46:
 819              		.loc 1 419 0
 820 000a 10EA0304 		ands	r4, r0, r3
 821              	.LVL47:
 822 000e 06D1     		bne	.L58
 823 0010 0446     		mov	r4, r0
 824              	.LVL48:
 825              		.loc 1 420 0
 826 0012 6862     		str	r0, [r5, #36]
 827              		.loc 1 421 0
 828 0014 0A20     		movs	r0, #10
 829              	.LVL49:
 830 0016 FFF7FEFF 		bl	chSchGoSleepS
 831              	.LVL50:
 832              		.loc 1 422 0
 833 001a AB6B     		ldr	r3, [r5, #56]
 834 001c 1C40     		ands	r4, r4, r3
 835              	.LVL51:
 836              	.L58:
 837              		.loc 1 424 0
 838 001e 23EA0403 		bic	r3, r3, r4
 839 0022 AB63     		str	r3, [r5, #56]
 840              	.LBB255:
 841              	.LBB256:
 842              	.LBB257:
 843              	.LBB258:
 844              	.LBB259:
 845              		.loc 2 331 0
 846              	@ 331 "ChibiOS_3.0.2/os/ext/CMSIS/include/core_cmFunc.h" 1
 847 0024 62B6     		cpsie i
 848              	@ 0 "" 2
 849              		.thumb
 850              	.LBE259:
 851              	.LBE258:
 852              	.LBE257:
 853              	.LBE256:
 854              	.LBE255:
 855              		.loc 1 428 0
ARM GAS  /tmp/cc3q2kdN.s 			page 16


 856 0026 2046     		mov	r0, r4
 857 0028 38BD     		pop	{r3, r4, r5, pc}
 858              	.LVL52:
 859              	.L61:
 860 002a 00BF     		.align	2
 861              	.L60:
 862 002c 00000000 		.word	ch
 863              		.cfi_endproc
 864              	.LFE231:
 865              		.size	chEvtWaitAny, .-chEvtWaitAny
 866              		.section	.text.chEvtWaitAll,"ax",%progbits
 867              		.align	2
 868              		.p2align 4,,15
 869              		.global	chEvtWaitAll
 870              		.thumb
 871              		.thumb_func
 872              		.type	chEvtWaitAll, %function
 873              	chEvtWaitAll:
 874              	.LFB232:
 875              		.loc 1 441 0
 876              		.cfi_startproc
 877              		@ args = 0, pretend = 0, frame = 0
 878              		@ frame_needed = 0, uses_anonymous_args = 0
 879              	.LVL53:
 880 0000 38B5     		push	{r3, r4, r5, lr}
 881              		.cfi_def_cfa_offset 16
 882              		.cfi_offset 3, -16
 883              		.cfi_offset 4, -12
 884              		.cfi_offset 5, -8
 885              		.cfi_offset 14, -4
 886              		.loc 1 442 0
 887 0002 0A4B     		ldr	r3, .L65
 888              		.loc 1 441 0
 889 0004 0446     		mov	r4, r0
 890              		.loc 1 442 0
 891 0006 9D69     		ldr	r5, [r3, #24]
 892              	.LVL54:
 893              	.LBB260:
 894              	.LBB261:
 895              	.LBB262:
 896              	.LBB263:
 897              		.loc 2 342 0
 898              	@ 342 "ChibiOS_3.0.2/os/ext/CMSIS/include/core_cmFunc.h" 1
 899 0008 72B6     		cpsid i
 900              	@ 0 "" 2
 901              		.thumb
 902              	.LBE263:
 903              	.LBE262:
 904              	.LBE261:
 905              	.LBE260:
 906              		.loc 1 445 0
 907 000a AB6B     		ldr	r3, [r5, #56]
 908 000c 00EA0302 		and	r2, r0, r3
 909 0010 8242     		cmp	r2, r0
 910 0012 04D0     		beq	.L63
 911              		.loc 1 446 0
 912 0014 6862     		str	r0, [r5, #36]
ARM GAS  /tmp/cc3q2kdN.s 			page 17


 913              		.loc 1 447 0
 914 0016 0B20     		movs	r0, #11
 915              	.LVL55:
 916 0018 FFF7FEFF 		bl	chSchGoSleepS
 917              	.LVL56:
 918 001c AB6B     		ldr	r3, [r5, #56]
 919              	.L63:
 920              		.loc 1 449 0
 921 001e 23EA0403 		bic	r3, r3, r4
 922 0022 AB63     		str	r3, [r5, #56]
 923              	.LBB264:
 924              	.LBB265:
 925              	.LBB266:
 926              	.LBB267:
 927              	.LBB268:
 928              		.loc 2 331 0
 929              	@ 331 "ChibiOS_3.0.2/os/ext/CMSIS/include/core_cmFunc.h" 1
 930 0024 62B6     		cpsie i
 931              	@ 0 "" 2
 932              		.thumb
 933              	.LBE268:
 934              	.LBE267:
 935              	.LBE266:
 936              	.LBE265:
 937              	.LBE264:
 938              		.loc 1 453 0
 939 0026 2046     		mov	r0, r4
 940 0028 38BD     		pop	{r3, r4, r5, pc}
 941              	.LVL57:
 942              	.L66:
 943 002a 00BF     		.align	2
 944              	.L65:
 945 002c 00000000 		.word	ch
 946              		.cfi_endproc
 947              	.LFE232:
 948              		.size	chEvtWaitAll, .-chEvtWaitAll
 949              		.section	.text.chEvtWaitOneTimeout,"ax",%progbits
 950              		.align	2
 951              		.p2align 4,,15
 952              		.global	chEvtWaitOneTimeout
 953              		.thumb
 954              		.thumb_func
 955              		.type	chEvtWaitOneTimeout, %function
 956              	chEvtWaitOneTimeout:
 957              	.LFB233:
 958              		.loc 1 479 0
 959              		.cfi_startproc
 960              		@ args = 0, pretend = 0, frame = 0
 961              		@ frame_needed = 0, uses_anonymous_args = 0
 962              	.LVL58:
 963              		.loc 1 480 0
 964 0000 0F4B     		ldr	r3, .L74
 965              		.loc 1 479 0
 966 0002 70B5     		push	{r4, r5, r6, lr}
 967              		.cfi_def_cfa_offset 16
 968              		.cfi_offset 4, -16
 969              		.cfi_offset 5, -12
ARM GAS  /tmp/cc3q2kdN.s 			page 18


 970              		.cfi_offset 6, -8
 971              		.cfi_offset 14, -4
 972              		.loc 1 480 0
 973 0004 9D69     		ldr	r5, [r3, #24]
 974              	.LVL59:
 975              	.LBB269:
 976              	.LBB270:
 977              	.LBB271:
 978              	.LBB272:
 979              		.loc 2 342 0
 980              	@ 342 "ChibiOS_3.0.2/os/ext/CMSIS/include/core_cmFunc.h" 1
 981 0006 72B6     		cpsid i
 982              	@ 0 "" 2
 983              		.thumb
 984              	.LBE272:
 985              	.LBE271:
 986              	.LBE270:
 987              	.LBE269:
 988              		.loc 1 484 0
 989 0008 AA6B     		ldr	r2, [r5, #56]
 990              	.LVL60:
 991              		.loc 1 485 0
 992 000a 10EA0206 		ands	r6, r0, r2
 993              	.LVL61:
 994 000e 0DD1     		bne	.L68
 995              		.loc 1 486 0
 996 0010 11B9     		cbnz	r1, .L69
 997              	.LBB273:
 998              	.LBB274:
 999              	.LBB275:
 1000              	.LBB276:
 1001              	.LBB277:
 1002              		.loc 2 331 0
 1003              	@ 331 "ChibiOS_3.0.2/os/ext/CMSIS/include/core_cmFunc.h" 1
 1004 0012 62B6     		cpsie i
 1005              	@ 0 "" 2
 1006              		.thumb
 1007              	.LBE277:
 1008              	.LBE276:
 1009              	.LBE275:
 1010              	.LBE274:
 1011              	.LBE273:
 1012              		.loc 1 488 0
 1013 0014 0846     		mov	r0, r1
 1014              	.LVL62:
 1015 0016 70BD     		pop	{r4, r5, r6, pc}
 1016              	.LVL63:
 1017              	.L69:
 1018              		.loc 1 490 0
 1019 0018 6862     		str	r0, [r5, #36]
 1020 001a 0446     		mov	r4, r0
 1021              		.loc 1 491 0
 1022 001c 0A20     		movs	r0, #10
 1023              	.LVL64:
 1024 001e FFF7FEFF 		bl	chSchGoSleepTimeoutS
 1025              	.LVL65:
 1026 0022 0028     		cmp	r0, #0
ARM GAS  /tmp/cc3q2kdN.s 			page 19


 1027 0024 09DB     		blt	.L73
 1028              		.loc 1 495 0
 1029 0026 AA6B     		ldr	r2, [r5, #56]
 1030 0028 04EA0206 		and	r6, r4, r2
 1031              	.LVL66:
 1032              	.L68:
 1033              		.loc 1 497 0
 1034 002c 7042     		negs	r0, r6
 1035 002e 3040     		ands	r0, r0, r6
 1036              	.LVL67:
 1037              		.loc 1 498 0
 1038 0030 22EA0002 		bic	r2, r2, r0
 1039 0034 AA63     		str	r2, [r5, #56]
 1040              	.LBB278:
 1041              	.LBB279:
 1042              	.LBB280:
 1043              	.LBB281:
 1044              	.LBB282:
 1045              		.loc 2 331 0
 1046              	@ 331 "ChibiOS_3.0.2/os/ext/CMSIS/include/core_cmFunc.h" 1
 1047 0036 62B6     		cpsie i
 1048              	@ 0 "" 2
 1049              		.thumb
 1050              	.LBE282:
 1051              	.LBE281:
 1052              	.LBE280:
 1053              	.LBE279:
 1054              	.LBE278:
 1055              		.loc 1 502 0
 1056 0038 70BD     		pop	{r4, r5, r6, pc}
 1057              	.LVL68:
 1058              	.L73:
 1059              	.LBB283:
 1060              	.LBB284:
 1061              	.LBB285:
 1062              	.LBB286:
 1063              	.LBB287:
 1064              		.loc 2 331 0
 1065              	@ 331 "ChibiOS_3.0.2/os/ext/CMSIS/include/core_cmFunc.h" 1
 1066 003a 62B6     		cpsie i
 1067              	@ 0 "" 2
 1068              		.thumb
 1069              	.LBE287:
 1070              	.LBE286:
 1071              	.LBE285:
 1072              	.LBE284:
 1073              	.LBE283:
 1074              		.loc 1 493 0
 1075 003c 3046     		mov	r0, r6
 1076 003e 70BD     		pop	{r4, r5, r6, pc}
 1077              	.LVL69:
 1078              	.L75:
 1079              		.align	2
 1080              	.L74:
 1081 0040 00000000 		.word	ch
 1082              		.cfi_endproc
 1083              	.LFE233:
ARM GAS  /tmp/cc3q2kdN.s 			page 20


 1084              		.size	chEvtWaitOneTimeout, .-chEvtWaitOneTimeout
 1085              		.section	.text.chEvtWaitAnyTimeout,"ax",%progbits
 1086              		.align	2
 1087              		.p2align 4,,15
 1088              		.global	chEvtWaitAnyTimeout
 1089              		.thumb
 1090              		.thumb_func
 1091              		.type	chEvtWaitAnyTimeout, %function
 1092              	chEvtWaitAnyTimeout:
 1093              	.LFB234:
 1094              		.loc 1 522 0
 1095              		.cfi_startproc
 1096              		@ args = 0, pretend = 0, frame = 0
 1097              		@ frame_needed = 0, uses_anonymous_args = 0
 1098              	.LVL70:
 1099              		.loc 1 523 0
 1100 0000 0D4B     		ldr	r3, .L83
 1101              		.loc 1 522 0
 1102 0002 70B5     		push	{r4, r5, r6, lr}
 1103              		.cfi_def_cfa_offset 16
 1104              		.cfi_offset 4, -16
 1105              		.cfi_offset 5, -12
 1106              		.cfi_offset 6, -8
 1107              		.cfi_offset 14, -4
 1108              		.loc 1 523 0
 1109 0004 9E69     		ldr	r6, [r3, #24]
 1110              	.LVL71:
 1111              	.LBB288:
 1112              	.LBB289:
 1113              	.LBB290:
 1114              	.LBB291:
 1115              		.loc 2 342 0
 1116              	@ 342 "ChibiOS_3.0.2/os/ext/CMSIS/include/core_cmFunc.h" 1
 1117 0006 72B6     		cpsid i
 1118              	@ 0 "" 2
 1119              		.thumb
 1120              	.LBE291:
 1121              	.LBE290:
 1122              	.LBE289:
 1123              	.LBE288:
 1124              		.loc 1 527 0
 1125 0008 B36B     		ldr	r3, [r6, #56]
 1126              	.LVL72:
 1127              		.loc 1 528 0
 1128 000a 10EA0304 		ands	r4, r0, r3
 1129              	.LVL73:
 1130 000e 0DD1     		bne	.L77
 1131              		.loc 1 529 0
 1132 0010 11B9     		cbnz	r1, .L78
 1133              	.LBB292:
 1134              	.LBB293:
 1135              	.LBB294:
 1136              	.LBB295:
 1137              	.LBB296:
 1138              		.loc 2 331 0
 1139              	@ 331 "ChibiOS_3.0.2/os/ext/CMSIS/include/core_cmFunc.h" 1
 1140 0012 62B6     		cpsie i
ARM GAS  /tmp/cc3q2kdN.s 			page 21


 1141              	@ 0 "" 2
 1142              		.thumb
 1143              	.LBE296:
 1144              	.LBE295:
 1145              	.LBE294:
 1146              	.LBE293:
 1147              	.LBE292:
 1148              		.loc 1 531 0
 1149 0014 0846     		mov	r0, r1
 1150              	.LVL74:
 1151 0016 70BD     		pop	{r4, r5, r6, pc}
 1152              	.LVL75:
 1153              	.L78:
 1154              		.loc 1 533 0
 1155 0018 7062     		str	r0, [r6, #36]
 1156 001a 0546     		mov	r5, r0
 1157              		.loc 1 534 0
 1158 001c 0A20     		movs	r0, #10
 1159              	.LVL76:
 1160 001e FFF7FEFF 		bl	chSchGoSleepTimeoutS
 1161              	.LVL77:
 1162 0022 0028     		cmp	r0, #0
 1163 0024 05DB     		blt	.L82
 1164              		.loc 1 538 0
 1165 0026 B36B     		ldr	r3, [r6, #56]
 1166 0028 05EA0304 		and	r4, r5, r3
 1167              	.LVL78:
 1168              	.L77:
 1169              		.loc 1 540 0
 1170 002c 23EA0403 		bic	r3, r3, r4
 1171 0030 B363     		str	r3, [r6, #56]
 1172              	.L82:
 1173              	.LBB297:
 1174              	.LBB298:
 1175              	.LBB299:
 1176              	.LBB300:
 1177              	.LBB301:
 1178              		.loc 2 331 0
 1179              	@ 331 "ChibiOS_3.0.2/os/ext/CMSIS/include/core_cmFunc.h" 1
 1180 0032 62B6     		cpsie i
 1181              	@ 0 "" 2
 1182              		.thumb
 1183              	.LBE301:
 1184              	.LBE300:
 1185              	.LBE299:
 1186              	.LBE298:
 1187              	.LBE297:
 1188              		.loc 1 543 0
 1189 0034 2046     		mov	r0, r4
 1190              		.loc 1 544 0
 1191 0036 70BD     		pop	{r4, r5, r6, pc}
 1192              	.LVL79:
 1193              	.L84:
 1194              		.align	2
 1195              	.L83:
 1196 0038 00000000 		.word	ch
 1197              		.cfi_endproc
ARM GAS  /tmp/cc3q2kdN.s 			page 22


 1198              	.LFE234:
 1199              		.size	chEvtWaitAnyTimeout, .-chEvtWaitAnyTimeout
 1200              		.section	.text.chEvtWaitAllTimeout,"ax",%progbits
 1201              		.align	2
 1202              		.p2align 4,,15
 1203              		.global	chEvtWaitAllTimeout
 1204              		.thumb
 1205              		.thumb_func
 1206              		.type	chEvtWaitAllTimeout, %function
 1207              	chEvtWaitAllTimeout:
 1208              	.LFB235:
 1209              		.loc 1 563 0
 1210              		.cfi_startproc
 1211              		@ args = 0, pretend = 0, frame = 0
 1212              		@ frame_needed = 0, uses_anonymous_args = 0
 1213              	.LVL80:
 1214 0000 38B5     		push	{r3, r4, r5, lr}
 1215              		.cfi_def_cfa_offset 16
 1216              		.cfi_offset 3, -16
 1217              		.cfi_offset 4, -12
 1218              		.cfi_offset 5, -8
 1219              		.cfi_offset 14, -4
 1220              		.loc 1 564 0
 1221 0002 0E4B     		ldr	r3, .L91
 1222              		.loc 1 563 0
 1223 0004 0446     		mov	r4, r0
 1224              		.loc 1 564 0
 1225 0006 9D69     		ldr	r5, [r3, #24]
 1226              	.LVL81:
 1227              	.LBB302:
 1228              	.LBB303:
 1229              	.LBB304:
 1230              	.LBB305:
 1231              		.loc 2 342 0
 1232              	@ 342 "ChibiOS_3.0.2/os/ext/CMSIS/include/core_cmFunc.h" 1
 1233 0008 72B6     		cpsid i
 1234              	@ 0 "" 2
 1235              		.thumb
 1236              	.LBE305:
 1237              	.LBE304:
 1238              	.LBE303:
 1239              	.LBE302:
 1240              		.loc 1 567 0
 1241 000a AB6B     		ldr	r3, [r5, #56]
 1242 000c 00EA0302 		and	r2, r0, r3
 1243 0010 8242     		cmp	r2, r0
 1244 0012 0AD0     		beq	.L86
 1245 0014 0846     		mov	r0, r1
 1246              	.LVL82:
 1247              		.loc 1 568 0
 1248 0016 09B9     		cbnz	r1, .L87
 1249              	.LBB306:
 1250              	.LBB307:
 1251              	.LBB308:
 1252              	.LBB309:
 1253              	.LBB310:
 1254              		.loc 2 331 0
ARM GAS  /tmp/cc3q2kdN.s 			page 23


 1255              	@ 331 "ChibiOS_3.0.2/os/ext/CMSIS/include/core_cmFunc.h" 1
 1256 0018 62B6     		cpsie i
 1257              	@ 0 "" 2
 1258              		.thumb
 1259              	.LBE310:
 1260              	.LBE309:
 1261              	.LBE308:
 1262              	.LBE307:
 1263              	.LBE306:
 1264              		.loc 1 570 0
 1265 001a 38BD     		pop	{r3, r4, r5, pc}
 1266              	.LVL83:
 1267              	.L87:
 1268              		.loc 1 572 0
 1269 001c 6C62     		str	r4, [r5, #36]
 1270              		.loc 1 573 0
 1271 001e 0B20     		movs	r0, #11
 1272 0020 FFF7FEFF 		bl	chSchGoSleepTimeoutS
 1273              	.LVL84:
 1274 0024 0028     		cmp	r0, #0
 1275 0026 06DB     		blt	.L89
 1276 0028 AB6B     		ldr	r3, [r5, #56]
 1277              	.L86:
 1278              		.loc 1 578 0
 1279 002a 23EA0403 		bic	r3, r3, r4
 1280 002e AB63     		str	r3, [r5, #56]
 1281              	.LBB311:
 1282              	.LBB312:
 1283              	.LBB313:
 1284              	.LBB314:
 1285              	.LBB315:
 1286              		.loc 2 331 0
 1287              	@ 331 "ChibiOS_3.0.2/os/ext/CMSIS/include/core_cmFunc.h" 1
 1288 0030 62B6     		cpsie i
 1289              	@ 0 "" 2
 1290              		.thumb
 1291              	.LBE315:
 1292              	.LBE314:
 1293              	.LBE313:
 1294              	.LBE312:
 1295              	.LBE311:
 1296              		.loc 1 581 0
 1297 0032 2046     		mov	r0, r4
 1298              		.loc 1 582 0
 1299 0034 38BD     		pop	{r3, r4, r5, pc}
 1300              	.LVL85:
 1301              	.L89:
 1302              	.LBB316:
 1303              	.LBB317:
 1304              	.LBB318:
 1305              	.LBB319:
 1306              	.LBB320:
 1307              		.loc 2 331 0
 1308              	@ 331 "ChibiOS_3.0.2/os/ext/CMSIS/include/core_cmFunc.h" 1
 1309 0036 62B6     		cpsie i
 1310              	@ 0 "" 2
 1311              		.thumb
ARM GAS  /tmp/cc3q2kdN.s 			page 24


 1312              	.LBE320:
 1313              	.LBE319:
 1314              	.LBE318:
 1315              	.LBE317:
 1316              	.LBE316:
 1317              		.loc 1 575 0
 1318 0038 0020     		movs	r0, #0
 1319 003a 38BD     		pop	{r3, r4, r5, pc}
 1320              	.LVL86:
 1321              	.L92:
 1322              		.align	2
 1323              	.L91:
 1324 003c 00000000 		.word	ch
 1325              		.cfi_endproc
 1326              	.LFE235:
 1327              		.size	chEvtWaitAllTimeout, .-chEvtWaitAllTimeout
 1328              		.text
 1329              	.Letext0:
 1330              		.file 3 "/usr/arm-none-eabi/include/machine/_default_types.h"
 1331              		.file 4 "/usr/arm-none-eabi/include/sys/_stdint.h"
 1332              		.file 5 "ChibiOS_3.0.2/os/rt/ports/ARMCMx/compilers/GCC/chtypes.h"
 1333              		.file 6 "ChibiOS_3.0.2/os/rt/include/chsystypes.h"
 1334              		.file 7 "ChibiOS_3.0.2/os/rt/include/chschd.h"
 1335              		.file 8 "ChibiOS_3.0.2/os/rt/ports/ARMCMx/chcore.h"
 1336              		.file 9 "ChibiOS_3.0.2/os/rt/ports/ARMCMx/chcore_v7m.h"
 1337              		.file 10 "ChibiOS_3.0.2/os/rt/include/chtm.h"
 1338              		.file 11 "ChibiOS_3.0.2/os/rt/include/chsem.h"
 1339              		.file 12 "ChibiOS_3.0.2/os/rt/include/chmtx.h"
 1340              		.file 13 "ChibiOS_3.0.2/os/rt/include/chevents.h"
 1341              		.file 14 "ChibiOS_3.0.2/os/rt/include/chsys.h"
 1342              		.file 15 "ChibiOS_3.0.2/os/ext/CMSIS/include/core_cm4.h"