ARM GAS  /tmp/cch2Os2v.s 			page 1


   1              		.syntax unified
   2              		.cpu cortex-m4
   3              		.eabi_attribute 27, 1
   4              		.eabi_attribute 28, 1
   5              		.fpu fpv4-sp-d16
   6              		.eabi_attribute 20, 1
   7              		.eabi_attribute 21, 1
   8              		.eabi_attribute 23, 3
   9              		.eabi_attribute 24, 1
  10              		.eabi_attribute 25, 1
  11              		.eabi_attribute 26, 1
  12              		.eabi_attribute 30, 2
  13              		.eabi_attribute 34, 1
  14              		.eabi_attribute 18, 4
  15              		.thumb
  16              		.file	"chheap.c"
  17              		.text
  18              	.Ltext0:
  19              		.cfi_sections	.debug_frame
  20              		.section	.text._heap_init,"ax",%progbits
  21              		.align	2
  22              		.p2align 4,,15
  23              		.global	_heap_init
  24              		.thumb
  25              		.thumb_func
  26              		.type	_heap_init, %function
  27              	_heap_init:
  28              	.LFB219:
  29              		.file 1 "ChibiOS_3.0.2/os/rt/src/chheap.c"
  30              		.loc 1 91 0
  31              		.cfi_startproc
  32              		@ args = 0, pretend = 0, frame = 0
  33              		@ frame_needed = 0, uses_anonymous_args = 0
  34              		@ link register save eliminated.
  35              		.loc 1 93 0
  36 0000 044B     		ldr	r3, .L2
  37 0002 054A     		ldr	r2, .L2+4
  38 0004 1A60     		str	r2, [r3]
  39              		.loc 1 97 0
  40 0006 03F11000 		add	r0, r3, #16
  41              		.loc 1 94 0
  42 000a 0022     		movs	r2, #0
  43 000c 9A60     		str	r2, [r3, #8]
  44              		.loc 1 95 0
  45 000e DA60     		str	r2, [r3, #12]
  46              		.loc 1 97 0
  47 0010 FFF7FEBF 		b	chMtxObjectInit
  48              	.LVL0:
  49              	.L3:
  50              		.align	2
  51              	.L2:
  52 0014 00000000 		.word	.LANCHOR0
  53 0018 00000000 		.word	chCoreAlloc
  54              		.cfi_endproc
  55              	.LFE219:
  56              		.size	_heap_init, .-_heap_init
  57              		.section	.text.chHeapObjectInit,"ax",%progbits
ARM GAS  /tmp/cch2Os2v.s 			page 2


  58              		.align	2
  59              		.p2align 4,,15
  60              		.global	chHeapObjectInit
  61              		.thumb
  62              		.thumb_func
  63              		.type	chHeapObjectInit, %function
  64              	chHeapObjectInit:
  65              	.LFB220:
  66              		.loc 1 114 0
  67              		.cfi_startproc
  68              		@ args = 0, pretend = 0, frame = 0
  69              		@ frame_needed = 0, uses_anonymous_args = 0
  70              		@ link register save eliminated.
  71              	.LVL1:
  72              		.loc 1 119 0
  73 0000 0023     		movs	r3, #0
  74              		.loc 1 123 0
  75 0002 083A     		subs	r2, r2, #8
  76              	.LVL2:
  77              		.loc 1 120 0
  78 0004 8160     		str	r1, [r0, #8]
  79              		.loc 1 119 0
  80 0006 0360     		str	r3, [r0]
  81              		.loc 1 121 0
  82 0008 C360     		str	r3, [r0, #12]
  83              		.loc 1 125 0
  84 000a 1030     		adds	r0, r0, #16
  85              	.LVL3:
  86              		.loc 1 123 0
  87 000c 4A60     		str	r2, [r1, #4]
  88              		.loc 1 122 0
  89 000e 0B60     		str	r3, [r1]
  90              		.loc 1 125 0
  91 0010 FFF7FEBF 		b	chMtxObjectInit
  92              	.LVL4:
  93              		.cfi_endproc
  94              	.LFE220:
  95              		.size	chHeapObjectInit, .-chHeapObjectInit
  96              		.section	.text.chHeapAlloc,"ax",%progbits
  97              		.align	2
  98              		.p2align 4,,15
  99              		.global	chHeapAlloc
 100              		.thumb
 101              		.thumb_func
 102              		.type	chHeapAlloc, %function
 103              	chHeapAlloc:
 104              	.LFB221:
 105              		.loc 1 147 0
 106              		.cfi_startproc
 107              		@ args = 0, pretend = 0, frame = 0
 108              		@ frame_needed = 0, uses_anonymous_args = 0
 109              	.LVL5:
 110 0000 F8B5     		push	{r3, r4, r5, r6, r7, lr}
 111              		.cfi_def_cfa_offset 24
 112              		.cfi_offset 3, -24
 113              		.cfi_offset 4, -20
 114              		.cfi_offset 5, -16
ARM GAS  /tmp/cch2Os2v.s 			page 3


 115              		.cfi_offset 6, -12
 116              		.cfi_offset 7, -8
 117              		.cfi_offset 14, -4
 118              		.loc 1 151 0
 119 0002 214E     		ldr	r6, .L21
 120 0004 0028     		cmp	r0, #0
 121 0006 18BF     		it	ne
 122 0008 0646     		movne	r6, r0
 123              	.LVL6:
 124              		.loc 1 157 0
 125 000a 06F11007 		add	r7, r6, #16
 126              		.loc 1 154 0
 127 000e 0731     		adds	r1, r1, #7
 128              	.LVL7:
 129              		.loc 1 157 0
 130 0010 3846     		mov	r0, r7
 131              		.loc 1 154 0
 132 0012 21F00705 		bic	r5, r1, #7
 133              	.LVL8:
 134              		.loc 1 155 0
 135 0016 06F10804 		add	r4, r6, #8
 136              	.LVL9:
 137              		.loc 1 157 0
 138 001a FFF7FEFF 		bl	chMtxLock
 139              	.LVL10:
 140              		.loc 1 158 0
 141 001e 03E0     		b	.L7
 142              	.LVL11:
 143              	.L11:
 144              		.loc 1 160 0
 145 0020 4368     		ldr	r3, [r0, #4]
 146 0022 9D42     		cmp	r5, r3
 147 0024 12D9     		bls	.L20
 148 0026 0446     		mov	r4, r0
 149              	.LVL12:
 150              	.L7:
 151              		.loc 1 158 0
 152 0028 2068     		ldr	r0, [r4]
 153              	.LVL13:
 154 002a 0028     		cmp	r0, #0
 155 002c F8D1     		bne	.L11
 156              		.loc 1 186 0
 157 002e 3846     		mov	r0, r7
 158              	.LVL14:
 159 0030 FFF7FEFF 		bl	chMtxUnlock
 160              	.LVL15:
 161              		.loc 1 190 0
 162 0034 3368     		ldr	r3, [r6]
 163 0036 2BB3     		cbz	r3, .L13
 164              		.loc 1 191 0
 165 0038 05F10800 		add	r0, r5, #8
 166 003c 9847     		blx	r3
 167              	.LVL16:
 168              		.loc 1 192 0
 169 003e 08B3     		cbz	r0, .L13
 170              		.loc 1 193 0
 171 0040 0660     		str	r6, [r0]
ARM GAS  /tmp/cch2Os2v.s 			page 4


 172              		.loc 1 194 0
 173 0042 4560     		str	r5, [r0, #4]
 174              		.loc 1 195 0
 175 0044 00F10804 		add	r4, r0, #8
 176              	.LVL17:
 177              	.L10:
 178              		.loc 1 204 0
 179 0048 2046     		mov	r0, r4
 180 004a F8BD     		pop	{r3, r4, r5, r6, r7, pc}
 181              	.LVL18:
 182              	.L20:
 183              		.loc 1 161 0
 184 004c 05F10802 		add	r2, r5, #8
 185 0050 9A42     		cmp	r2, r3
 186 0052 09D9     		bls	.L8
 187              		.loc 1 165 0
 188 0054 0368     		ldr	r3, [r0]
 189 0056 2360     		str	r3, [r4]
 190              	.L9:
 191              		.loc 1 177 0
 192 0058 0446     		mov	r4, r0
 193              	.LVL19:
 194              		.loc 1 178 0
 195 005a 3846     		mov	r0, r7
 196              	.LVL20:
 197              		.loc 1 177 0
 198 005c 44F8086B 		str	r6, [r4], #8
 199              	.LVL21:
 200              		.loc 1 178 0
 201 0060 FFF7FEFF 		bl	chMtxUnlock
 202              	.LVL22:
 203              		.loc 1 204 0
 204 0064 2046     		mov	r0, r4
 205 0066 F8BD     		pop	{r3, r4, r5, r6, r7, pc}
 206              	.LVL23:
 207              	.L8:
 208 0068 6FF00701 		mvn	r1, #7
 209 006c 491B     		subs	r1, r1, r5
 210              		.loc 1 170 0
 211 006e 00EB020E 		add	lr, r0, r2
 212              	.LVL24:
 213              		.loc 1 173 0
 214 0072 0B44     		add	r3, r3, r1
 215              		.loc 1 172 0
 216 0074 0168     		ldr	r1, [r0]
 217 0076 8150     		str	r1, [r0, r2]
 218              		.loc 1 173 0
 219 0078 CEF80430 		str	r3, [lr, #4]
 220              		.loc 1 174 0
 221 007c C4F800E0 		str	lr, [r4]
 222              		.loc 1 175 0
 223 0080 4560     		str	r5, [r0, #4]
 224 0082 E9E7     		b	.L9
 225              	.LVL25:
 226              	.L13:
 227              		.loc 1 203 0
 228 0084 0024     		movs	r4, #0
ARM GAS  /tmp/cch2Os2v.s 			page 5


 229              	.LVL26:
 230 0086 DFE7     		b	.L10
 231              	.L22:
 232              		.align	2
 233              	.L21:
 234 0088 00000000 		.word	.LANCHOR0
 235              		.cfi_endproc
 236              	.LFE221:
 237              		.size	chHeapAlloc, .-chHeapAlloc
 238              		.section	.text.chHeapFree,"ax",%progbits
 239              		.align	2
 240              		.p2align 4,,15
 241              		.global	chHeapFree
 242              		.thumb
 243              		.thumb_func
 244              		.type	chHeapFree, %function
 245              	chHeapFree:
 246              	.LFB222:
 247              		.loc 1 213 0
 248              		.cfi_startproc
 249              		@ args = 0, pretend = 0, frame = 0
 250              		@ frame_needed = 0, uses_anonymous_args = 0
 251              	.LVL27:
 252 0000 F8B5     		push	{r3, r4, r5, r6, r7, lr}
 253              		.cfi_def_cfa_offset 24
 254              		.cfi_offset 3, -24
 255              		.cfi_offset 4, -20
 256              		.cfi_offset 5, -16
 257              		.cfi_offset 6, -12
 258              		.cfi_offset 7, -8
 259              		.cfi_offset 14, -4
 260              		.loc 1 222 0
 261 0002 50F8085C 		ldr	r5, [r0, #-8]
 262              		.loc 1 225 0
 263 0006 05F11007 		add	r7, r5, #16
 264              		.loc 1 213 0
 265 000a 0646     		mov	r6, r0
 266              		.loc 1 220 0
 267 000c A0F10804 		sub	r4, r0, #8
 268              	.LVL28:
 269              		.loc 1 223 0
 270 0010 0835     		adds	r5, r5, #8
 271              	.LVL29:
 272              		.loc 1 225 0
 273 0012 3846     		mov	r0, r7
 274              	.LVL30:
 275 0014 FFF7FEFF 		bl	chMtxLock
 276              	.LVL31:
 277              		.loc 1 223 0
 278 0018 2B46     		mov	r3, r5
 279              	.LVL32:
 280              	.L30:
 281              		.loc 1 229 0
 282 001a AB42     		cmp	r3, r5
 283 001c 04D0     		beq	.L24
 284              	.L36:
 285              		.loc 1 229 0 is_stmt 0 discriminator 2
ARM GAS  /tmp/cch2Os2v.s 			page 6


 286 001e A342     		cmp	r3, r4
 287 0020 02D3     		bcc	.L24
 288 0022 1B68     		ldr	r3, [r3]
 289              	.LVL33:
 290              		.loc 1 229 0
 291 0024 AB42     		cmp	r3, r5
 292 0026 FAD1     		bne	.L36
 293              	.L24:
 294              		.loc 1 230 0 is_stmt 1 discriminator 3
 295 0028 1A68     		ldr	r2, [r3]
 296              		.loc 1 229 0 discriminator 3
 297 002a 1AB1     		cbz	r2, .L26
 298              		.loc 1 230 0
 299 002c 9442     		cmp	r4, r2
 300 002e 01D3     		bcc	.L26
 301 0030 1346     		mov	r3, r2
 302              	.LVL34:
 303              		.loc 1 248 0
 304 0032 F2E7     		b	.L30
 305              	.LVL35:
 306              	.L26:
 307              		.loc 1 235 0
 308 0034 56F8041C 		ldr	r1, [r6, #-4]
 309              		.loc 1 232 0
 310 0038 46F8082C 		str	r2, [r6, #-8]
 311              		.loc 1 233 0
 312 003c 1C60     		str	r4, [r3]
 313              		.loc 1 235 0
 314 003e 01F10802 		add	r2, r1, #8
 315 0042 56F8085C 		ldr	r5, [r6, #-8]
 316              	.LVL36:
 317 0046 A018     		adds	r0, r4, r2
 318 0048 A842     		cmp	r0, r5
 319 004a 0AD0     		beq	.L37
 320              		.loc 1 240 0
 321 004c 5968     		ldr	r1, [r3, #4]
 322 004e 01F10802 		add	r2, r1, #8
 323 0052 1A44     		add	r2, r2, r3
 324 0054 9442     		cmp	r4, r2
 325 0056 12D0     		beq	.L38
 326              	.L29:
 327              		.loc 1 249 0
 328 0058 3846     		mov	r0, r7
 329              		.loc 1 252 0
 330 005a BDE8F840 		pop	{r3, r4, r5, r6, r7, lr}
 331              		.cfi_remember_state
 332              		.cfi_restore 14
 333              		.cfi_restore 7
 334              		.cfi_restore 6
 335              		.cfi_restore 5
 336              		.cfi_restore 4
 337              		.cfi_restore 3
 338              		.cfi_def_cfa_offset 0
 339              	.LVL37:
 340              		.loc 1 249 0
 341 005e FFF7FEBF 		b	chMtxUnlock
 342              	.LVL38:
ARM GAS  /tmp/cch2Os2v.s 			page 7


 343              	.L37:
 344              		.cfi_restore_state
 345              		.loc 1 237 0
 346 0062 4068     		ldr	r0, [r0, #4]
 347              		.loc 1 238 0
 348 0064 A258     		ldr	r2, [r4, r2]
 349 0066 46F8082C 		str	r2, [r6, #-8]
 350              		.loc 1 237 0
 351 006a 0A18     		adds	r2, r1, r0
 352 006c 0832     		adds	r2, r2, #8
 353 006e 46F8042C 		str	r2, [r6, #-4]
 354              		.loc 1 240 0
 355 0072 5968     		ldr	r1, [r3, #4]
 356 0074 01F10802 		add	r2, r1, #8
 357 0078 1A44     		add	r2, r2, r3
 358 007a 9442     		cmp	r4, r2
 359 007c ECD1     		bne	.L29
 360              	.L38:
 361              		.loc 1 243 0
 362 007e 16E90500 		ldmdb	r6, {r0, r2}
 363              		.loc 1 242 0
 364 0082 0A44     		add	r2, r2, r1
 365 0084 0832     		adds	r2, r2, #8
 366              		.loc 1 243 0
 367 0086 1860     		str	r0, [r3]
 368              		.loc 1 242 0
 369 0088 5A60     		str	r2, [r3, #4]
 370              		.loc 1 249 0
 371 008a 3846     		mov	r0, r7
 372              		.loc 1 252 0
 373 008c BDE8F840 		pop	{r3, r4, r5, r6, r7, lr}
 374              		.cfi_restore 3
 375              		.cfi_restore 4
 376              		.cfi_restore 5
 377              		.cfi_restore 6
 378              		.cfi_restore 7
 379              		.cfi_restore 14
 380              		.cfi_def_cfa_offset 0
 381              	.LVL39:
 382              		.loc 1 249 0
 383 0090 FFF7FEBF 		b	chMtxUnlock
 384              	.LVL40:
 385              		.cfi_endproc
 386              	.LFE222:
 387              		.size	chHeapFree, .-chHeapFree
 388              		.section	.text.chHeapStatus,"ax",%progbits
 389              		.align	2
 390              		.p2align 4,,15
 391              		.global	chHeapStatus
 392              		.thumb
 393              		.thumb_func
 394              		.type	chHeapStatus, %function
 395              	chHeapStatus:
 396              	.LFB223:
 397              		.loc 1 267 0
 398              		.cfi_startproc
 399              		@ args = 0, pretend = 0, frame = 0
ARM GAS  /tmp/cch2Os2v.s 			page 8


 400              		@ frame_needed = 0, uses_anonymous_args = 0
 401              	.LVL41:
 402 0000 70B5     		push	{r4, r5, r6, lr}
 403              		.cfi_def_cfa_offset 16
 404              		.cfi_offset 4, -16
 405              		.cfi_offset 5, -12
 406              		.cfi_offset 6, -8
 407              		.cfi_offset 14, -4
 408              		.loc 1 272 0
 409 0002 0F4C     		ldr	r4, .L50
 410 0004 0028     		cmp	r0, #0
 411 0006 18BF     		it	ne
 412 0008 0446     		movne	r4, r0
 413              	.LVL42:
 414              		.loc 1 275 0
 415 000a 04F11005 		add	r5, r4, #16
 416 000e 2846     		mov	r0, r5
 417              		.loc 1 267 0
 418 0010 0E46     		mov	r6, r1
 419              		.loc 1 275 0
 420 0012 FFF7FEFF 		bl	chMtxLock
 421              	.LVL43:
 422              		.loc 1 279 0
 423 0016 A368     		ldr	r3, [r4, #8]
 424 0018 73B1     		cbz	r3, .L44
 425 001a 0022     		movs	r2, #0
 426 001c 1446     		mov	r4, r2
 427              	.LVL44:
 428              	.L42:
 429              		.loc 1 280 0
 430 001e 5868     		ldr	r0, [r3, #4]
 431              		.loc 1 279 0
 432 0020 1B68     		ldr	r3, [r3]
 433              		.loc 1 281 0
 434 0022 0134     		adds	r4, r4, #1
 435              	.LVL45:
 436              		.loc 1 280 0
 437 0024 0244     		add	r2, r2, r0
 438              	.LVL46:
 439              		.loc 1 279 0
 440 0026 002B     		cmp	r3, #0
 441 0028 F9D1     		bne	.L42
 442              	.LVL47:
 443              	.L41:
 444              		.loc 1 284 0
 445 002a 06B1     		cbz	r6, .L43
 446              		.loc 1 285 0
 447 002c 3260     		str	r2, [r6]
 448              	.L43:
 449              		.loc 1 287 0
 450 002e 2846     		mov	r0, r5
 451 0030 FFF7FEFF 		bl	chMtxUnlock
 452              	.LVL48:
 453              		.loc 1 290 0
 454 0034 2046     		mov	r0, r4
 455 0036 70BD     		pop	{r4, r5, r6, pc}
 456              	.LVL49:
ARM GAS  /tmp/cch2Os2v.s 			page 9


 457              	.L44:
 458              		.loc 1 276 0
 459 0038 1A46     		mov	r2, r3
 460              		.loc 1 277 0
 461 003a 1C46     		mov	r4, r3
 462              	.LVL50:
 463 003c F5E7     		b	.L41
 464              	.L51:
 465 003e 00BF     		.align	2
 466              	.L50:
 467 0040 00000000 		.word	.LANCHOR0
 468              		.cfi_endproc
 469              	.LFE223:
 470              		.size	chHeapStatus, .-chHeapStatus
 471              		.section	.bss.default_heap,"aw",%nobits
 472              		.align	3
 473              		.set	.LANCHOR0,. + 0
 474              		.type	default_heap, %object
 475              		.size	default_heap, 32
 476              	default_heap:
 477 0000 00000000 		.space	32
 477      00000000 
 477      00000000 
 477      00000000 
 477      00000000 
 478              		.text
 479              	.Letext0:
 480              		.file 2 "/usr/lib/gcc/arm-none-eabi/4.9.3/include/stddef.h"
 481              		.file 3 "/usr/arm-none-eabi/include/machine/_default_types.h"
 482              		.file 4 "/usr/arm-none-eabi/include/sys/_stdint.h"
 483              		.file 5 "ChibiOS_3.0.2/os/rt/ports/ARMCMx/compilers/GCC/chtypes.h"
 484              		.file 6 "ChibiOS_3.0.2/os/rt/include/chsystypes.h"
 485              		.file 7 "ChibiOS_3.0.2/os/rt/include/chschd.h"
 486              		.file 8 "ChibiOS_3.0.2/os/rt/ports/ARMCMx/chcore.h"
 487              		.file 9 "ChibiOS_3.0.2/os/rt/ports/ARMCMx/chcore_v7m.h"
 488              		.file 10 "ChibiOS_3.0.2/os/rt/include/chtm.h"
 489              		.file 11 "ChibiOS_3.0.2/os/rt/include/chsem.h"
 490              		.file 12 "ChibiOS_3.0.2/os/rt/include/chmtx.h"
 491              		.file 13 "ChibiOS_3.0.2/os/rt/include/chmemcore.h"
 492              		.file 14 "ChibiOS_3.0.2/os/rt/include/chheap.h"
 493              		.file 15 "ChibiOS_3.0.2/os/ext/CMSIS/include/core_cm4.h"