ARM GAS  /tmp/ccciXP1c.s 			page 1


   1              		.syntax unified
   2              		.cpu cortex-m4
   3              		.eabi_attribute 27, 1
   4              		.eabi_attribute 28, 1
   5              		.fpu fpv4-sp-d16
   6              		.eabi_attribute 20, 1
   7              		.eabi_attribute 21, 1
   8              		.eabi_attribute 23, 3
   9              		.eabi_attribute 24, 1
  10              		.eabi_attribute 25, 1
  11              		.eabi_attribute 26, 1
  12              		.eabi_attribute 30, 2
  13              		.eabi_attribute 34, 1
  14              		.eabi_attribute 18, 4
  15              		.thumb
  16              		.file	"chmboxes.c"
  17              		.text
  18              	.Ltext0:
  19              		.cfi_sections	.debug_frame
  20              		.section	.text.chMBObjectInit,"ax",%progbits
  21              		.align	2
  22              		.p2align 4,,15
  23              		.global	chMBObjectInit
  24              		.thumb
  25              		.thumb_func
  26              		.type	chMBObjectInit, %function
  27              	chMBObjectInit:
  28              	.LFB219:
  29              		.file 1 "ChibiOS_3.0.2/os/rt/src/chmboxes.c"
  30              		.loc 1 86 0
  31              		.cfi_startproc
  32              		@ args = 0, pretend = 0, frame = 0
  33              		@ frame_needed = 0, uses_anonymous_args = 0
  34              	.LVL0:
  35 0000 10B5     		push	{r4, lr}
  36              		.cfi_def_cfa_offset 8
  37              		.cfi_offset 4, -8
  38              		.cfi_offset 14, -4
  39              		.loc 1 86 0
  40 0002 0B46     		mov	r3, r1
  41              		.loc 1 93 0
  42 0004 01EB8201 		add	r1, r1, r2, lsl #2
  43              	.LVL1:
  44 0008 4160     		str	r1, [r0, #4]
  45              		.loc 1 86 0
  46 000a 0446     		mov	r4, r0
  47              		.loc 1 90 0
  48 000c 0360     		str	r3, [r0]
  49              		.loc 1 91 0
  50 000e C360     		str	r3, [r0, #12]
  51              		.loc 1 92 0
  52 0010 8360     		str	r3, [r0, #8]
  53              		.loc 1 94 0
  54 0012 1146     		mov	r1, r2
  55 0014 1C30     		adds	r0, r0, #28
  56              	.LVL2:
  57 0016 FFF7FEFF 		bl	chSemObjectInit
ARM GAS  /tmp/ccciXP1c.s 			page 2


  58              	.LVL3:
  59              		.loc 1 95 0
  60 001a 04F11000 		add	r0, r4, #16
  61 001e 0021     		movs	r1, #0
  62              		.loc 1 96 0
  63 0020 BDE81040 		pop	{r4, lr}
  64              		.cfi_restore 14
  65              		.cfi_restore 4
  66              		.cfi_def_cfa_offset 0
  67              	.LVL4:
  68              		.loc 1 95 0
  69 0024 FFF7FEBF 		b	chSemObjectInit
  70              	.LVL5:
  71              		.cfi_endproc
  72              	.LFE219:
  73              		.size	chMBObjectInit, .-chMBObjectInit
  74              		.section	.text.chMBResetI,"ax",%progbits
  75              		.align	2
  76              		.p2align 4,,15
  77              		.global	chMBResetI
  78              		.thumb
  79              		.thumb_func
  80              		.type	chMBResetI, %function
  81              	chMBResetI:
  82              	.LFB221:
  83              		.loc 1 124 0
  84              		.cfi_startproc
  85              		@ args = 0, pretend = 0, frame = 0
  86              		@ frame_needed = 0, uses_anonymous_args = 0
  87              	.LVL6:
  88 0000 10B5     		push	{r4, lr}
  89              		.cfi_def_cfa_offset 8
  90              		.cfi_offset 4, -8
  91              		.cfi_offset 14, -4
  92              		.loc 1 124 0
  93 0002 0446     		mov	r4, r0
  94              		.loc 1 131 0
  95 0004 1C30     		adds	r0, r0, #28
  96              	.LVL7:
  97              		.loc 1 129 0
  98 0006 2368     		ldr	r3, [r4]
  99              		.loc 1 131 0
 100 0008 6168     		ldr	r1, [r4, #4]
 101              		.loc 1 129 0
 102 000a A360     		str	r3, [r4, #8]
 103              		.loc 1 131 0
 104 000c C91A     		subs	r1, r1, r3
 105              		.loc 1 130 0
 106 000e E360     		str	r3, [r4, #12]
 107              		.loc 1 131 0
 108 0010 8910     		asrs	r1, r1, #2
 109 0012 FFF7FEFF 		bl	chSemResetI
 110              	.LVL8:
 111              		.loc 1 132 0
 112 0016 04F11000 		add	r0, r4, #16
 113 001a 0021     		movs	r1, #0
 114              		.loc 1 133 0
ARM GAS  /tmp/ccciXP1c.s 			page 3


 115 001c BDE81040 		pop	{r4, lr}
 116              		.cfi_restore 14
 117              		.cfi_restore 4
 118              		.cfi_def_cfa_offset 0
 119              	.LVL9:
 120              		.loc 1 132 0
 121 0020 FFF7FEBF 		b	chSemResetI
 122              	.LVL10:
 123              		.cfi_endproc
 124              	.LFE221:
 125              		.size	chMBResetI, .-chMBResetI
 126              		.section	.text.chMBReset,"ax",%progbits
 127              		.align	2
 128              		.p2align 4,,15
 129              		.global	chMBReset
 130              		.thumb
 131              		.thumb_func
 132              		.type	chMBReset, %function
 133              	chMBReset:
 134              	.LFB220:
 135              		.loc 1 107 0
 136              		.cfi_startproc
 137              		@ args = 0, pretend = 0, frame = 0
 138              		@ frame_needed = 0, uses_anonymous_args = 0
 139              	.LVL11:
 140 0000 08B5     		push	{r3, lr}
 141              		.cfi_def_cfa_offset 8
 142              		.cfi_offset 3, -8
 143              		.cfi_offset 14, -4
 144              	.LBB66:
 145              	.LBB67:
 146              	.LBB68:
 147              	.LBB69:
 148              		.file 2 "ChibiOS_3.0.2/os/ext/CMSIS/include/core_cmFunc.h"
 149              		.loc 2 342 0
 150              	@ 342 "ChibiOS_3.0.2/os/ext/CMSIS/include/core_cmFunc.h" 1
 151 0002 72B6     		cpsid i
 152              	@ 0 "" 2
 153              		.thumb
 154              	.LBE69:
 155              	.LBE68:
 156              	.LBE67:
 157              	.LBE66:
 158              		.loc 1 110 0
 159 0004 FFF7FEFF 		bl	chMBResetI
 160              	.LVL12:
 161              		.loc 1 111 0
 162 0008 FFF7FEFF 		bl	chSchRescheduleS
 163              	.LVL13:
 164              	.LBB70:
 165              	.LBB71:
 166              	.LBB72:
 167              	.LBB73:
 168              	.LBB74:
 169              		.loc 2 331 0
 170              	@ 331 "ChibiOS_3.0.2/os/ext/CMSIS/include/core_cmFunc.h" 1
 171 000c 62B6     		cpsie i
ARM GAS  /tmp/ccciXP1c.s 			page 4


 172              	@ 0 "" 2
 173              		.thumb
 174 000e 08BD     		pop	{r3, pc}
 175              	.LBE74:
 176              	.LBE73:
 177              	.LBE72:
 178              	.LBE71:
 179              	.LBE70:
 180              		.cfi_endproc
 181              	.LFE220:
 182              		.size	chMBReset, .-chMBReset
 183              		.section	.text.chMBPostS,"ax",%progbits
 184              		.align	2
 185              		.p2align 4,,15
 186              		.global	chMBPostS
 187              		.thumb
 188              		.thumb_func
 189              		.type	chMBPostS, %function
 190              	chMBPostS:
 191              	.LFB223:
 192              		.loc 1 183 0
 193              		.cfi_startproc
 194              		@ args = 0, pretend = 0, frame = 0
 195              		@ frame_needed = 0, uses_anonymous_args = 0
 196              	.LVL14:
 197 0000 70B5     		push	{r4, r5, r6, lr}
 198              		.cfi_def_cfa_offset 16
 199              		.cfi_offset 4, -16
 200              		.cfi_offset 5, -12
 201              		.cfi_offset 6, -8
 202              		.cfi_offset 14, -4
 203              		.loc 1 183 0
 204 0002 0446     		mov	r4, r0
 205 0004 0E46     		mov	r6, r1
 206              		.loc 1 189 0
 207 0006 1C30     		adds	r0, r0, #28
 208              	.LVL15:
 209 0008 1146     		mov	r1, r2
 210              	.LVL16:
 211 000a FFF7FEFF 		bl	chSemWaitTimeoutS
 212              	.LVL17:
 213              		.loc 1 190 0
 214 000e 0546     		mov	r5, r0
 215 0010 78B9     		cbnz	r0, .L8
 216              	.LVL18:
 217              	.LBB77:
 218              	.LBB78:
 219              		.loc 1 191 0
 220 0012 A268     		ldr	r2, [r4, #8]
 221              		.loc 1 192 0
 222 0014 6168     		ldr	r1, [r4, #4]
 223              		.loc 1 191 0
 224 0016 131D     		adds	r3, r2, #4
 225              		.loc 1 192 0
 226 0018 8B42     		cmp	r3, r1
 227              		.loc 1 191 0
 228 001a A360     		str	r3, [r4, #8]
ARM GAS  /tmp/ccciXP1c.s 			page 5


 229              		.loc 1 193 0
 230 001c 28BF     		it	cs
 231 001e 2368     		ldrcs	r3, [r4]
 232              		.loc 1 191 0
 233 0020 1660     		str	r6, [r2]
 234              		.loc 1 195 0
 235 0022 04F11000 		add	r0, r4, #16
 236              	.LVL19:
 237              		.loc 1 193 0
 238 0026 28BF     		it	cs
 239 0028 A360     		strcs	r3, [r4, #8]
 240              		.loc 1 195 0
 241 002a FFF7FEFF 		bl	chSemSignalI
 242              	.LVL20:
 243              		.loc 1 196 0
 244 002e FFF7FEFF 		bl	chSchRescheduleS
 245              	.LVL21:
 246              	.L8:
 247              	.LBE78:
 248              	.LBE77:
 249              		.loc 1 200 0
 250 0032 2846     		mov	r0, r5
 251 0034 70BD     		pop	{r4, r5, r6, pc}
 252              		.cfi_endproc
 253              	.LFE223:
 254              		.size	chMBPostS, .-chMBPostS
 255 0036 00BF     		.section	.text.chMBPost,"ax",%progbits
 256              		.align	2
 257              		.p2align 4,,15
 258              		.global	chMBPost
 259              		.thumb
 260              		.thumb_func
 261              		.type	chMBPost, %function
 262              	chMBPost:
 263              	.LFB222:
 264              		.loc 1 154 0
 265              		.cfi_startproc
 266              		@ args = 0, pretend = 0, frame = 0
 267              		@ frame_needed = 0, uses_anonymous_args = 0
 268              	.LVL22:
 269 0000 08B5     		push	{r3, lr}
 270              		.cfi_def_cfa_offset 8
 271              		.cfi_offset 3, -8
 272              		.cfi_offset 14, -4
 273              	.LBB79:
 274              	.LBB80:
 275              	.LBB81:
 276              	.LBB82:
 277              		.loc 2 342 0
 278              	@ 342 "ChibiOS_3.0.2/os/ext/CMSIS/include/core_cmFunc.h" 1
 279 0002 72B6     		cpsid i
 280              	@ 0 "" 2
 281              		.thumb
 282              	.LBE82:
 283              	.LBE81:
 284              	.LBE80:
 285              	.LBE79:
ARM GAS  /tmp/ccciXP1c.s 			page 6


 286              		.loc 1 158 0
 287 0004 FFF7FEFF 		bl	chMBPostS
 288              	.LVL23:
 289              	.LBB83:
 290              	.LBB84:
 291              	.LBB85:
 292              	.LBB86:
 293              	.LBB87:
 294              		.loc 2 331 0
 295              	@ 331 "ChibiOS_3.0.2/os/ext/CMSIS/include/core_cmFunc.h" 1
 296 0008 62B6     		cpsie i
 297              	@ 0 "" 2
 298              		.thumb
 299              	.LBE87:
 300              	.LBE86:
 301              	.LBE85:
 302              	.LBE84:
 303              	.LBE83:
 304              		.loc 1 162 0
 305 000a 08BD     		pop	{r3, pc}
 306              		.cfi_endproc
 307              	.LFE222:
 308              		.size	chMBPost, .-chMBPost
 309              		.section	.text.chMBPostI,"ax",%progbits
 310              		.align	2
 311              		.p2align 4,,15
 312              		.global	chMBPostI
 313              		.thumb
 314              		.thumb_func
 315              		.type	chMBPostI, %function
 316              	chMBPostI:
 317              	.LFB224:
 318              		.loc 1 216 0
 319              		.cfi_startproc
 320              		@ args = 0, pretend = 0, frame = 0
 321              		@ frame_needed = 0, uses_anonymous_args = 0
 322              	.LVL24:
 323 0000 38B5     		push	{r3, r4, r5, lr}
 324              		.cfi_def_cfa_offset 16
 325              		.cfi_offset 3, -16
 326              		.cfi_offset 4, -12
 327              		.cfi_offset 5, -8
 328              		.cfi_offset 14, -4
 329 0002 436A     		ldr	r3, [r0, #36]
 330              	.LVL25:
 331              		.loc 1 221 0
 332 0004 002B     		cmp	r3, #0
 333 0006 12DD     		ble	.L17
 334              	.LVL26:
 335              		.loc 1 226 0
 336 0008 8468     		ldr	r4, [r0, #8]
 337              		.loc 1 227 0
 338 000a 4568     		ldr	r5, [r0, #4]
 339              		.loc 1 226 0
 340 000c 221D     		adds	r2, r4, #4
 341              	.LBB88:
 342              	.LBB89:
ARM GAS  /tmp/ccciXP1c.s 			page 7


 343              		.file 3 "ChibiOS_3.0.2/os/rt/include/chsem.h"
 344              		.loc 3 122 0
 345 000e 013B     		subs	r3, r3, #1
 346              	.LBE89:
 347              	.LBE88:
 348              		.loc 1 227 0
 349 0010 AA42     		cmp	r2, r5
 350              	.LBB91:
 351              	.LBB90:
 352              		.loc 3 122 0
 353 0012 4362     		str	r3, [r0, #36]
 354              	.LBE90:
 355              	.LBE91:
 356              		.loc 1 228 0
 357 0014 28BF     		it	cs
 358 0016 0368     		ldrcs	r3, [r0]
 359              		.loc 1 226 0
 360 0018 8260     		str	r2, [r0, #8]
 361 001a 2160     		str	r1, [r4]
 362              		.loc 1 230 0
 363 001c 00F11000 		add	r0, r0, #16
 364              	.LVL27:
 365              		.loc 1 228 0
 366 0020 28BF     		it	cs
 367 0022 40F8083C 		strcs	r3, [r0, #-8]
 368              		.loc 1 230 0
 369 0026 FFF7FEFF 		bl	chSemSignalI
 370              	.LVL28:
 371              		.loc 1 232 0
 372 002a 0020     		movs	r0, #0
 373 002c 38BD     		pop	{r3, r4, r5, pc}
 374              	.LVL29:
 375              	.L17:
 376              		.loc 1 222 0
 377 002e 4FF0FF30 		mov	r0, #-1
 378              	.LVL30:
 379              		.loc 1 233 0
 380 0032 38BD     		pop	{r3, r4, r5, pc}
 381              		.cfi_endproc
 382              	.LFE224:
 383              		.size	chMBPostI, .-chMBPostI
 384              		.section	.text.chMBPostAheadS,"ax",%progbits
 385              		.align	2
 386              		.p2align 4,,15
 387              		.global	chMBPostAheadS
 388              		.thumb
 389              		.thumb_func
 390              		.type	chMBPostAheadS, %function
 391              	chMBPostAheadS:
 392              	.LFB226:
 393              		.loc 1 283 0
 394              		.cfi_startproc
 395              		@ args = 0, pretend = 0, frame = 0
 396              		@ frame_needed = 0, uses_anonymous_args = 0
 397              	.LVL31:
 398 0000 70B5     		push	{r4, r5, r6, lr}
 399              		.cfi_def_cfa_offset 16
ARM GAS  /tmp/ccciXP1c.s 			page 8


 400              		.cfi_offset 4, -16
 401              		.cfi_offset 5, -12
 402              		.cfi_offset 6, -8
 403              		.cfi_offset 14, -4
 404              		.loc 1 283 0
 405 0002 0446     		mov	r4, r0
 406 0004 0E46     		mov	r6, r1
 407              		.loc 1 289 0
 408 0006 1C30     		adds	r0, r0, #28
 409              	.LVL32:
 410 0008 1146     		mov	r1, r2
 411              	.LVL33:
 412 000a FFF7FEFF 		bl	chSemWaitTimeoutS
 413              	.LVL34:
 414              		.loc 1 290 0
 415 000e 0546     		mov	r5, r0
 416 0010 60B9     		cbnz	r0, .L20
 417              	.LVL35:
 418              	.LBB94:
 419              	.LBB95:
 420              		.loc 1 291 0
 421 0012 E368     		ldr	r3, [r4, #12]
 422 0014 2268     		ldr	r2, [r4]
 423 0016 043B     		subs	r3, r3, #4
 424 0018 9342     		cmp	r3, r2
 425 001a E360     		str	r3, [r4, #12]
 426 001c 08D3     		bcc	.L23
 427              	.L21:
 428              		.loc 1 294 0
 429 001e 1E60     		str	r6, [r3]
 430              		.loc 1 295 0
 431 0020 04F11000 		add	r0, r4, #16
 432              	.LVL36:
 433 0024 FFF7FEFF 		bl	chSemSignalI
 434              	.LVL37:
 435              		.loc 1 296 0
 436 0028 FFF7FEFF 		bl	chSchRescheduleS
 437              	.LVL38:
 438              	.L20:
 439              	.LBE95:
 440              	.LBE94:
 441              		.loc 1 300 0
 442 002c 2846     		mov	r0, r5
 443 002e 70BD     		pop	{r4, r5, r6, pc}
 444              	.LVL39:
 445              	.L23:
 446              	.LBB97:
 447              	.LBB96:
 448              		.loc 1 292 0
 449 0030 6368     		ldr	r3, [r4, #4]
 450 0032 043B     		subs	r3, r3, #4
 451 0034 E360     		str	r3, [r4, #12]
 452 0036 F2E7     		b	.L21
 453              	.LBE96:
 454              	.LBE97:
 455              		.cfi_endproc
 456              	.LFE226:
ARM GAS  /tmp/ccciXP1c.s 			page 9


 457              		.size	chMBPostAheadS, .-chMBPostAheadS
 458              		.section	.text.chMBPostAhead,"ax",%progbits
 459              		.align	2
 460              		.p2align 4,,15
 461              		.global	chMBPostAhead
 462              		.thumb
 463              		.thumb_func
 464              		.type	chMBPostAhead, %function
 465              	chMBPostAhead:
 466              	.LFB225:
 467              		.loc 1 254 0
 468              		.cfi_startproc
 469              		@ args = 0, pretend = 0, frame = 0
 470              		@ frame_needed = 0, uses_anonymous_args = 0
 471              	.LVL40:
 472 0000 08B5     		push	{r3, lr}
 473              		.cfi_def_cfa_offset 8
 474              		.cfi_offset 3, -8
 475              		.cfi_offset 14, -4
 476              	.LBB98:
 477              	.LBB99:
 478              	.LBB100:
 479              	.LBB101:
 480              		.loc 2 342 0
 481              	@ 342 "ChibiOS_3.0.2/os/ext/CMSIS/include/core_cmFunc.h" 1
 482 0002 72B6     		cpsid i
 483              	@ 0 "" 2
 484              		.thumb
 485              	.LBE101:
 486              	.LBE100:
 487              	.LBE99:
 488              	.LBE98:
 489              		.loc 1 258 0
 490 0004 FFF7FEFF 		bl	chMBPostAheadS
 491              	.LVL41:
 492              	.LBB102:
 493              	.LBB103:
 494              	.LBB104:
 495              	.LBB105:
 496              	.LBB106:
 497              		.loc 2 331 0
 498              	@ 331 "ChibiOS_3.0.2/os/ext/CMSIS/include/core_cmFunc.h" 1
 499 0008 62B6     		cpsie i
 500              	@ 0 "" 2
 501              		.thumb
 502              	.LBE106:
 503              	.LBE105:
 504              	.LBE104:
 505              	.LBE103:
 506              	.LBE102:
 507              		.loc 1 262 0
 508 000a 08BD     		pop	{r3, pc}
 509              		.cfi_endproc
 510              	.LFE225:
 511              		.size	chMBPostAhead, .-chMBPostAhead
 512              		.section	.text.chMBPostAheadI,"ax",%progbits
 513              		.align	2
ARM GAS  /tmp/ccciXP1c.s 			page 10


 514              		.p2align 4,,15
 515              		.global	chMBPostAheadI
 516              		.thumb
 517              		.thumb_func
 518              		.type	chMBPostAheadI, %function
 519              	chMBPostAheadI:
 520              	.LFB227:
 521              		.loc 1 316 0
 522              		.cfi_startproc
 523              		@ args = 0, pretend = 0, frame = 0
 524              		@ frame_needed = 0, uses_anonymous_args = 0
 525              	.LVL42:
 526 0000 426A     		ldr	r2, [r0, #36]
 527              	.LVL43:
 528              		.loc 1 321 0
 529 0002 002A     		cmp	r2, #0
 530 0004 11DD     		ble	.L29
 531              	.LVL44:
 532              		.loc 1 325 0
 533 0006 C368     		ldr	r3, [r0, #12]
 534              		.loc 1 316 0
 535 0008 10B5     		push	{r4, lr}
 536              		.cfi_def_cfa_offset 8
 537              		.cfi_offset 4, -8
 538              		.cfi_offset 14, -4
 539              		.loc 1 325 0
 540 000a 0468     		ldr	r4, [r0]
 541 000c 043B     		subs	r3, r3, #4
 542              	.LBB107:
 543              	.LBB108:
 544              		.loc 3 122 0
 545 000e 013A     		subs	r2, r2, #1
 546              	.LBE108:
 547              	.LBE107:
 548              		.loc 1 325 0
 549 0010 A342     		cmp	r3, r4
 550              	.LBB110:
 551              	.LBB109:
 552              		.loc 3 122 0
 553 0012 4262     		str	r2, [r0, #36]
 554              	.LBE109:
 555              	.LBE110:
 556              		.loc 1 325 0
 557 0014 C360     		str	r3, [r0, #12]
 558 0016 02D2     		bcs	.L28
 559              		.loc 1 326 0
 560 0018 4368     		ldr	r3, [r0, #4]
 561 001a 043B     		subs	r3, r3, #4
 562 001c C360     		str	r3, [r0, #12]
 563              	.L28:
 564              		.loc 1 328 0
 565 001e 1960     		str	r1, [r3]
 566              		.loc 1 329 0
 567 0020 1030     		adds	r0, r0, #16
 568              	.LVL45:
 569 0022 FFF7FEFF 		bl	chSemSignalI
 570              	.LVL46:
ARM GAS  /tmp/ccciXP1c.s 			page 11


 571              		.loc 1 331 0
 572 0026 0020     		movs	r0, #0
 573 0028 10BD     		pop	{r4, pc}
 574              	.LVL47:
 575              	.L29:
 576              		.cfi_def_cfa_offset 0
 577              		.cfi_restore 4
 578              		.cfi_restore 14
 579              		.loc 1 322 0
 580 002a 4FF0FF30 		mov	r0, #-1
 581              	.LVL48:
 582 002e 7047     		bx	lr
 583              		.cfi_endproc
 584              	.LFE227:
 585              		.size	chMBPostAheadI, .-chMBPostAheadI
 586              		.section	.text.chMBFetchS,"ax",%progbits
 587              		.align	2
 588              		.p2align 4,,15
 589              		.global	chMBFetchS
 590              		.thumb
 591              		.thumb_func
 592              		.type	chMBFetchS, %function
 593              	chMBFetchS:
 594              	.LFB229:
 595              		.loc 1 382 0
 596              		.cfi_startproc
 597              		@ args = 0, pretend = 0, frame = 0
 598              		@ frame_needed = 0, uses_anonymous_args = 0
 599              	.LVL49:
 600 0000 70B5     		push	{r4, r5, r6, lr}
 601              		.cfi_def_cfa_offset 16
 602              		.cfi_offset 4, -16
 603              		.cfi_offset 5, -12
 604              		.cfi_offset 6, -8
 605              		.cfi_offset 14, -4
 606              		.loc 1 382 0
 607 0002 0446     		mov	r4, r0
 608 0004 0E46     		mov	r6, r1
 609              		.loc 1 388 0
 610 0006 1030     		adds	r0, r0, #16
 611              	.LVL50:
 612 0008 1146     		mov	r1, r2
 613              	.LVL51:
 614 000a FFF7FEFF 		bl	chSemWaitTimeoutS
 615              	.LVL52:
 616              		.loc 1 389 0
 617 000e 0546     		mov	r5, r0
 618 0010 80B9     		cbnz	r0, .L33
 619              	.LVL53:
 620              	.LBB113:
 621              	.LBB114:
 622              		.loc 1 390 0
 623 0012 E368     		ldr	r3, [r4, #12]
 624              		.loc 1 391 0
 625 0014 6268     		ldr	r2, [r4, #4]
 626              		.loc 1 390 0
 627 0016 1968     		ldr	r1, [r3]
ARM GAS  /tmp/ccciXP1c.s 			page 12


 628 0018 0433     		adds	r3, r3, #4
 629              		.loc 1 391 0
 630 001a 9342     		cmp	r3, r2
 631              		.loc 1 390 0
 632 001c E360     		str	r3, [r4, #12]
 633              		.loc 1 392 0
 634 001e 28BF     		it	cs
 635 0020 2368     		ldrcs	r3, [r4]
 636              		.loc 1 390 0
 637 0022 3160     		str	r1, [r6]
 638              		.loc 1 394 0
 639 0024 04F11C00 		add	r0, r4, #28
 640              	.LVL54:
 641              		.loc 1 392 0
 642 0028 28BF     		it	cs
 643 002a E360     		strcs	r3, [r4, #12]
 644              		.loc 1 394 0
 645 002c FFF7FEFF 		bl	chSemSignalI
 646              	.LVL55:
 647              		.loc 1 395 0
 648 0030 FFF7FEFF 		bl	chSchRescheduleS
 649              	.LVL56:
 650              	.L33:
 651              	.LBE114:
 652              	.LBE113:
 653              		.loc 1 399 0
 654 0034 2846     		mov	r0, r5
 655 0036 70BD     		pop	{r4, r5, r6, pc}
 656              		.cfi_endproc
 657              	.LFE229:
 658              		.size	chMBFetchS, .-chMBFetchS
 659              		.section	.text.chMBFetch,"ax",%progbits
 660              		.align	2
 661              		.p2align 4,,15
 662              		.global	chMBFetch
 663              		.thumb
 664              		.thumb_func
 665              		.type	chMBFetch, %function
 666              	chMBFetch:
 667              	.LFB228:
 668              		.loc 1 353 0
 669              		.cfi_startproc
 670              		@ args = 0, pretend = 0, frame = 0
 671              		@ frame_needed = 0, uses_anonymous_args = 0
 672              	.LVL57:
 673 0000 08B5     		push	{r3, lr}
 674              		.cfi_def_cfa_offset 8
 675              		.cfi_offset 3, -8
 676              		.cfi_offset 14, -4
 677              	.LBB115:
 678              	.LBB116:
 679              	.LBB117:
 680              	.LBB118:
 681              		.loc 2 342 0
 682              	@ 342 "ChibiOS_3.0.2/os/ext/CMSIS/include/core_cmFunc.h" 1
 683 0002 72B6     		cpsid i
 684              	@ 0 "" 2
ARM GAS  /tmp/ccciXP1c.s 			page 13


 685              		.thumb
 686              	.LBE118:
 687              	.LBE117:
 688              	.LBE116:
 689              	.LBE115:
 690              		.loc 1 357 0
 691 0004 FFF7FEFF 		bl	chMBFetchS
 692              	.LVL58:
 693              	.LBB119:
 694              	.LBB120:
 695              	.LBB121:
 696              	.LBB122:
 697              	.LBB123:
 698              		.loc 2 331 0
 699              	@ 331 "ChibiOS_3.0.2/os/ext/CMSIS/include/core_cmFunc.h" 1
 700 0008 62B6     		cpsie i
 701              	@ 0 "" 2
 702              		.thumb
 703              	.LBE123:
 704              	.LBE122:
 705              	.LBE121:
 706              	.LBE120:
 707              	.LBE119:
 708              		.loc 1 361 0
 709 000a 08BD     		pop	{r3, pc}
 710              		.cfi_endproc
 711              	.LFE228:
 712              		.size	chMBFetch, .-chMBFetch
 713              		.section	.text.chMBFetchI,"ax",%progbits
 714              		.align	2
 715              		.p2align 4,,15
 716              		.global	chMBFetchI
 717              		.thumb
 718              		.thumb_func
 719              		.type	chMBFetchI, %function
 720              	chMBFetchI:
 721              	.LFB230:
 722              		.loc 1 415 0
 723              		.cfi_startproc
 724              		@ args = 0, pretend = 0, frame = 0
 725              		@ frame_needed = 0, uses_anonymous_args = 0
 726              	.LVL59:
 727 0000 8369     		ldr	r3, [r0, #24]
 728              	.LVL60:
 729              		.loc 1 420 0
 730 0002 002B     		cmp	r3, #0
 731 0004 14DD     		ble	.L41
 732              	.LVL61:
 733              	.LBB124:
 734              	.LBB125:
 735              		.loc 3 122 0
 736 0006 5A1E     		subs	r2, r3, #1
 737              	.LBE125:
 738              	.LBE124:
 739              		.loc 1 424 0
 740 0008 C368     		ldr	r3, [r0, #12]
 741              		.loc 1 415 0
ARM GAS  /tmp/ccciXP1c.s 			page 14


 742 000a 10B5     		push	{r4, lr}
 743              		.cfi_def_cfa_offset 8
 744              		.cfi_offset 4, -8
 745              		.cfi_offset 14, -4
 746              	.LBB127:
 747              	.LBB126:
 748              		.loc 3 122 0
 749 000c 8261     		str	r2, [r0, #24]
 750              	.LBE126:
 751              	.LBE127:
 752              		.loc 1 425 0
 753 000e 4268     		ldr	r2, [r0, #4]
 754              		.loc 1 424 0
 755 0010 1C68     		ldr	r4, [r3]
 756 0012 0433     		adds	r3, r3, #4
 757              		.loc 1 425 0
 758 0014 9342     		cmp	r3, r2
 759              		.loc 1 424 0
 760 0016 C360     		str	r3, [r0, #12]
 761              		.loc 1 426 0
 762 0018 28BF     		it	cs
 763 001a 0368     		ldrcs	r3, [r0]
 764              		.loc 1 424 0
 765 001c 0C60     		str	r4, [r1]
 766              		.loc 1 428 0
 767 001e 00F11C00 		add	r0, r0, #28
 768              	.LVL62:
 769              		.loc 1 426 0
 770 0022 28BF     		it	cs
 771 0024 40F8103C 		strcs	r3, [r0, #-16]
 772              		.loc 1 428 0
 773 0028 FFF7FEFF 		bl	chSemSignalI
 774              	.LVL63:
 775              		.loc 1 430 0
 776 002c 0020     		movs	r0, #0
 777 002e 10BD     		pop	{r4, pc}
 778              	.LVL64:
 779              	.L41:
 780              		.cfi_def_cfa_offset 0
 781              		.cfi_restore 4
 782              		.cfi_restore 14
 783              		.loc 1 421 0
 784 0030 4FF0FF30 		mov	r0, #-1
 785              	.LVL65:
 786 0034 7047     		bx	lr
 787              		.cfi_endproc
 788              	.LFE230:
 789              		.size	chMBFetchI, .-chMBFetchI
 790 0036 00BF     		.text
 791              	.Letext0:
 792              		.file 4 "/usr/arm-none-eabi/include/machine/_default_types.h"
 793              		.file 5 "/usr/arm-none-eabi/include/sys/_stdint.h"
 794              		.file 6 "ChibiOS_3.0.2/os/rt/ports/ARMCMx/compilers/GCC/chtypes.h"
 795              		.file 7 "ChibiOS_3.0.2/os/rt/include/chsystypes.h"
 796              		.file 8 "ChibiOS_3.0.2/os/rt/include/chschd.h"
 797              		.file 9 "ChibiOS_3.0.2/os/rt/ports/ARMCMx/chcore.h"
 798              		.file 10 "ChibiOS_3.0.2/os/rt/ports/ARMCMx/chcore_v7m.h"
ARM GAS  /tmp/ccciXP1c.s 			page 15


 799              		.file 11 "ChibiOS_3.0.2/os/rt/include/chtm.h"
 800              		.file 12 "ChibiOS_3.0.2/os/rt/include/chmtx.h"
 801              		.file 13 "ChibiOS_3.0.2/os/rt/include/chmboxes.h"
 802              		.file 14 "ChibiOS_3.0.2/os/rt/include/chsys.h"
 803              		.file 15 "ChibiOS_3.0.2/os/ext/CMSIS/include/core_cm4.h"