ARM GAS  /tmp/cc4pbleD.s 			page 1


   1              		.syntax unified
   2              		.cpu cortex-m4
   3              		.eabi_attribute 27, 1
   4              		.eabi_attribute 28, 1
   5              		.fpu fpv4-sp-d16
   6              		.eabi_attribute 20, 1
   7              		.eabi_attribute 21, 1
   8              		.eabi_attribute 23, 3
   9              		.eabi_attribute 24, 1
  10              		.eabi_attribute 25, 1
  11              		.eabi_attribute 26, 1
  12              		.eabi_attribute 30, 2
  13              		.eabi_attribute 34, 1
  14              		.eabi_attribute 18, 4
  15              		.thumb
  16              		.file	"chmtx.c"
  17              		.text
  18              	.Ltext0:
  19              		.cfi_sections	.debug_frame
  20              		.section	.text.chMtxObjectInit,"ax",%progbits
  21              		.align	2
  22              		.p2align 4,,15
  23              		.global	chMtxObjectInit
  24              		.thumb
  25              		.thumb_func
  26              		.type	chMtxObjectInit, %function
  27              	chMtxObjectInit:
  28              	.LFB219:
  29              		.file 1 "ChibiOS_3.0.2/os/rt/src/chmtx.c"
  30              		.loc 1 103 0
  31              		.cfi_startproc
  32              		@ args = 0, pretend = 0, frame = 0
  33              		@ frame_needed = 0, uses_anonymous_args = 0
  34              		@ link register save eliminated.
  35              	.LVL0:
  36              		.loc 1 108 0
  37 0000 0023     		movs	r3, #0
  38              	.LBB103:
  39              	.LBB104:
  40              		.file 2 "ChibiOS_3.0.2/os/rt/include/chschd.h"
  41              		.loc 2 604 0
  42 0002 0060     		str	r0, [r0]
  43              		.loc 2 605 0
  44 0004 4060     		str	r0, [r0, #4]
  45              	.LBE104:
  46              	.LBE103:
  47              		.loc 1 108 0
  48 0006 8360     		str	r3, [r0, #8]
  49 0008 7047     		bx	lr
  50              		.cfi_endproc
  51              	.LFE219:
  52              		.size	chMtxObjectInit, .-chMtxObjectInit
  53 000a 00BF     		.section	.text.chMtxLockS,"ax",%progbits
  54              		.align	2
  55              		.p2align 4,,15
  56              		.global	chMtxLockS
  57              		.thumb
ARM GAS  /tmp/cc4pbleD.s 			page 2


  58              		.thumb_func
  59              		.type	chMtxLockS, %function
  60              	chMtxLockS:
  61              	.LFB221:
  62              		.loc 1 139 0
  63              		.cfi_startproc
  64              		@ args = 0, pretend = 0, frame = 0
  65              		@ frame_needed = 0, uses_anonymous_args = 0
  66              	.LVL1:
  67              		.loc 1 140 0
  68 0000 304B     		ldr	r3, .L28
  69              		.loc 1 146 0
  70 0002 8268     		ldr	r2, [r0, #8]
  71              		.loc 1 139 0
  72 0004 70B5     		push	{r4, r5, r6, lr}
  73              		.cfi_def_cfa_offset 16
  74              		.cfi_offset 4, -16
  75              		.cfi_offset 5, -12
  76              		.cfi_offset 6, -8
  77              		.cfi_offset 14, -4
  78              		.loc 1 140 0
  79 0006 9C69     		ldr	r4, [r3, #24]
  80              	.LVL2:
  81              		.loc 1 146 0
  82 0008 002A     		cmp	r2, #0
  83 000a 55D0     		beq	.L3
  84              	.LBB105:
  85              		.loc 1 165 0
  86 000c A168     		ldr	r1, [r4, #8]
  87 000e 9368     		ldr	r3, [r2, #8]
  88 0010 9942     		cmp	r1, r3
  89 0012 0546     		mov	r5, r0
  90              	.LVL3:
  91 0014 06D9     		bls	.L5
  92              	.LVL4:
  93              	.L10:
  94              		.loc 1 170 0
  95 0016 137F     		ldrb	r3, [r2, #28]	@ zero_extendqisi2
  96              		.loc 1 167 0
  97 0018 9160     		str	r1, [r2, #8]
  98              		.loc 1 170 0
  99 001a 062B     		cmp	r3, #6
 100 001c 33D0     		beq	.L6
 101 001e 072B     		cmp	r3, #7
 102 0020 1DD0     		beq	.L7
 103 0022 9BB1     		cbz	r3, .L27
 104              	.LVL5:
 105              	.L5:
 106              	.LBB106:
 107              	.LBB107:
 108              		.loc 2 653 0
 109 0024 2B46     		mov	r3, r5
 110 0026 03E0     		b	.L18
 111              	.LVL6:
 112              	.L17:
 113              		.loc 2 656 0
 114 0028 9968     		ldr	r1, [r3, #8]
ARM GAS  /tmp/cc4pbleD.s 			page 3


 115 002a A268     		ldr	r2, [r4, #8]
 116 002c 9142     		cmp	r1, r2
 117 002e 02D3     		bcc	.L19
 118              	.L18:
 119              		.loc 2 655 0
 120 0030 1B68     		ldr	r3, [r3]
 121              	.LVL7:
 122              		.loc 2 656 0
 123 0032 9D42     		cmp	r5, r3
 124 0034 F8D1     		bne	.L17
 125              	.L19:
 126              		.loc 2 658 0
 127 0036 5A68     		ldr	r2, [r3, #4]
 128 0038 6260     		str	r2, [r4, #4]
 129              		.loc 2 657 0
 130 003a 2360     		str	r3, [r4]
 131              		.loc 2 659 0
 132 003c 1460     		str	r4, [r2]
 133              		.loc 2 660 0
 134 003e 5C60     		str	r4, [r3, #4]
 135              	.LBE107:
 136              	.LBE106:
 137              		.loc 1 213 0
 138 0040 6562     		str	r5, [r4, #36]
 139              		.loc 1 214 0
 140 0042 0620     		movs	r0, #6
 141              	.LBE105:
 142              		.loc 1 236 0
 143 0044 BDE87040 		pop	{r4, r5, r6, lr}
 144              		.cfi_remember_state
 145              		.cfi_restore 14
 146              		.cfi_restore 6
 147              		.cfi_restore 5
 148              		.cfi_restore 4
 149              		.cfi_def_cfa_offset 0
 150              	.LVL8:
 151              	.LBB124:
 152              		.loc 1 214 0
 153 0048 FFF7FEBF 		b	chSchGoSleepS
 154              	.LVL9:
 155              	.L27:
 156              		.cfi_restore_state
 157              	.LBB108:
 158              	.LBB109:
 159              		.loc 2 691 0
 160 004c 92E80A00 		ldmia	r2, {r1, r3}
 161 0050 1960     		str	r1, [r3]
 162              		.loc 2 692 0
 163 0052 1168     		ldr	r1, [r2]
 164              	.LBE109:
 165              	.LBE108:
 166              		.loc 1 202 0
 167 0054 1046     		mov	r0, r2
 168              	.LBB111:
 169              	.LBB110:
 170              		.loc 2 692 0
 171 0056 4B60     		str	r3, [r1, #4]
ARM GAS  /tmp/cc4pbleD.s 			page 4


 172              	.LBE110:
 173              	.LBE111:
 174              		.loc 1 202 0
 175 0058 FFF7FEFF 		bl	chSchReadyI
 176              	.LVL10:
 177              		.loc 1 203 0
 178 005c E2E7     		b	.L5
 179              	.LVL11:
 180              	.L7:
 181              	.LBB112:
 182              	.LBB113:
 183              		.loc 2 691 0
 184 005e 92E80900 		ldmia	r2, {r0, r3}
 185 0062 1860     		str	r0, [r3]
 186              	.LBE113:
 187              	.LBE112:
 188              		.loc 1 193 0
 189 0064 566A     		ldr	r6, [r2, #36]
 190              	.LVL12:
 191              	.LBB115:
 192              	.LBB114:
 193              		.loc 2 692 0
 194 0066 1068     		ldr	r0, [r2]
 195 0068 4360     		str	r3, [r0, #4]
 196              	.LBE114:
 197              	.LBE115:
 198              	.LBB116:
 199              	.LBB117:
 200              		.loc 2 653 0
 201 006a 3346     		mov	r3, r6
 202 006c 02E0     		b	.L15
 203              	.LVL13:
 204              	.L14:
 205              		.loc 2 656 0
 206 006e 9868     		ldr	r0, [r3, #8]
 207 0070 8842     		cmp	r0, r1
 208 0072 02D3     		bcc	.L16
 209              	.L15:
 210              		.loc 2 655 0
 211 0074 1B68     		ldr	r3, [r3]
 212              	.LVL14:
 213              		.loc 2 656 0
 214 0076 9E42     		cmp	r6, r3
 215 0078 F9D1     		bne	.L14
 216              	.L16:
 217              		.loc 2 658 0
 218 007a 5968     		ldr	r1, [r3, #4]
 219 007c 5160     		str	r1, [r2, #4]
 220              		.loc 2 657 0
 221 007e 1360     		str	r3, [r2]
 222              		.loc 2 659 0
 223 0080 0A60     		str	r2, [r1]
 224              		.loc 2 660 0
 225 0082 5A60     		str	r2, [r3, #4]
 226 0084 CEE7     		b	.L5
 227              	.LVL15:
 228              	.L6:
ARM GAS  /tmp/cc4pbleD.s 			page 5


 229              	.LBE117:
 230              	.LBE116:
 231              	.LBB118:
 232              	.LBB119:
 233              		.loc 2 691 0
 234 0086 92E80900 		ldmia	r2, {r0, r3}
 235 008a 1860     		str	r0, [r3]
 236              	.LBE119:
 237              	.LBE118:
 238              		.loc 1 173 0
 239 008c 566A     		ldr	r6, [r2, #36]
 240              	.LVL16:
 241              	.LBB121:
 242              	.LBB120:
 243              		.loc 2 692 0
 244 008e 1068     		ldr	r0, [r2]
 245 0090 4360     		str	r3, [r0, #4]
 246              	.LBE120:
 247              	.LBE121:
 248              	.LBB122:
 249              	.LBB123:
 250              		.loc 2 653 0
 251 0092 3346     		mov	r3, r6
 252 0094 02E0     		b	.L12
 253              	.LVL17:
 254              	.L9:
 255              		.loc 2 656 0
 256 0096 9868     		ldr	r0, [r3, #8]
 257 0098 8842     		cmp	r0, r1
 258 009a 02D3     		bcc	.L13
 259              	.L12:
 260              		.loc 2 655 0
 261 009c 1B68     		ldr	r3, [r3]
 262              	.LVL18:
 263              		.loc 2 656 0
 264 009e 9E42     		cmp	r6, r3
 265 00a0 F9D1     		bne	.L9
 266              	.L13:
 267              		.loc 2 658 0
 268 00a2 5968     		ldr	r1, [r3, #4]
 269 00a4 5160     		str	r1, [r2, #4]
 270              		.loc 2 657 0
 271 00a6 1360     		str	r3, [r2]
 272              		.loc 2 659 0
 273 00a8 0A60     		str	r2, [r1]
 274              		.loc 2 660 0
 275 00aa 5A60     		str	r2, [r3, #4]
 276              	.LBE123:
 277              	.LBE122:
 278              		.loc 1 174 0
 279 00ac B268     		ldr	r2, [r6, #8]
 280              	.LVL19:
 281              		.loc 1 165 0
 282 00ae A168     		ldr	r1, [r4, #8]
 283 00b0 9368     		ldr	r3, [r2, #8]
 284              	.LVL20:
 285 00b2 8B42     		cmp	r3, r1
ARM GAS  /tmp/cc4pbleD.s 			page 6


 286 00b4 AFD3     		bcc	.L10
 287 00b6 B5E7     		b	.L5
 288              	.LVL21:
 289              	.L3:
 290              	.LBE124:
 291              		.loc 1 233 0
 292 00b8 E36B     		ldr	r3, [r4, #60]
 293 00ba C360     		str	r3, [r0, #12]
 294              		.loc 1 232 0
 295 00bc 8460     		str	r4, [r0, #8]
 296              		.loc 1 234 0
 297 00be E063     		str	r0, [r4, #60]
 298 00c0 70BD     		pop	{r4, r5, r6, pc}
 299              	.LVL22:
 300              	.L29:
 301 00c2 00BF     		.align	2
 302              	.L28:
 303 00c4 00000000 		.word	ch
 304              		.cfi_endproc
 305              	.LFE221:
 306              		.size	chMtxLockS, .-chMtxLockS
 307              		.section	.text.chMtxLock,"ax",%progbits
 308              		.align	2
 309              		.p2align 4,,15
 310              		.global	chMtxLock
 311              		.thumb
 312              		.thumb_func
 313              		.type	chMtxLock, %function
 314              	chMtxLock:
 315              	.LFB220:
 316              		.loc 1 123 0
 317              		.cfi_startproc
 318              		@ args = 0, pretend = 0, frame = 0
 319              		@ frame_needed = 0, uses_anonymous_args = 0
 320              	.LVL23:
 321 0000 08B5     		push	{r3, lr}
 322              		.cfi_def_cfa_offset 8
 323              		.cfi_offset 3, -8
 324              		.cfi_offset 14, -4
 325              	.LBB125:
 326              	.LBB126:
 327              	.LBB127:
 328              	.LBB128:
 329              		.file 3 "ChibiOS_3.0.2/os/ext/CMSIS/include/core_cmFunc.h"
 330              		.loc 3 342 0
 331              	@ 342 "ChibiOS_3.0.2/os/ext/CMSIS/include/core_cmFunc.h" 1
 332 0002 72B6     		cpsid i
 333              	@ 0 "" 2
 334              		.thumb
 335              	.LBE128:
 336              	.LBE127:
 337              	.LBE126:
 338              	.LBE125:
 339              		.loc 1 126 0
 340 0004 FFF7FEFF 		bl	chMtxLockS
 341              	.LVL24:
 342              	.LBB129:
ARM GAS  /tmp/cc4pbleD.s 			page 7


 343              	.LBB130:
 344              	.LBB131:
 345              	.LBB132:
 346              	.LBB133:
 347              		.loc 3 331 0
 348              	@ 331 "ChibiOS_3.0.2/os/ext/CMSIS/include/core_cmFunc.h" 1
 349 0008 62B6     		cpsie i
 350              	@ 0 "" 2
 351              		.thumb
 352 000a 08BD     		pop	{r3, pc}
 353              	.LBE133:
 354              	.LBE132:
 355              	.LBE131:
 356              	.LBE130:
 357              	.LBE129:
 358              		.cfi_endproc
 359              	.LFE220:
 360              		.size	chMtxLock, .-chMtxLock
 361              		.section	.text.chMtxTryLock,"ax",%progbits
 362              		.align	2
 363              		.p2align 4,,15
 364              		.global	chMtxTryLock
 365              		.thumb
 366              		.thumb_func
 367              		.type	chMtxTryLock, %function
 368              	chMtxTryLock:
 369              	.LFB222:
 370              		.loc 1 255 0
 371              		.cfi_startproc
 372              		@ args = 0, pretend = 0, frame = 0
 373              		@ frame_needed = 0, uses_anonymous_args = 0
 374              		@ link register save eliminated.
 375              	.LVL25:
 376              		.loc 1 255 0
 377 0000 0346     		mov	r3, r0
 378              	.LBB147:
 379              	.LBB148:
 380              	.LBB149:
 381              	.LBB150:
 382              		.loc 3 342 0
 383              	@ 342 "ChibiOS_3.0.2/os/ext/CMSIS/include/core_cmFunc.h" 1
 384 0002 72B6     		cpsid i
 385              	@ 0 "" 2
 386              	.LVL26:
 387              		.thumb
 388              	.LBE150:
 389              	.LBE149:
 390              	.LBE148:
 391              	.LBE147:
 392              	.LBB151:
 393              	.LBB152:
 394              		.loc 1 287 0
 395 0004 8268     		ldr	r2, [r0, #8]
 396              		.loc 1 297 0
 397 0006 0020     		movs	r0, #0
 398              	.LVL27:
 399              		.loc 1 287 0
ARM GAS  /tmp/cc4pbleD.s 			page 8


 400 0008 0AB1     		cbz	r2, .L35
 401              	.LBE152:
 402              	.LBE151:
 403              	.LBB156:
 404              	.LBB157:
 405              	.LBB158:
 406              	.LBB159:
 407              	.LBB160:
 408              		.loc 3 331 0
 409              	@ 331 "ChibiOS_3.0.2/os/ext/CMSIS/include/core_cmFunc.h" 1
 410 000a 62B6     		cpsie i
 411              	@ 0 "" 2
 412              		.thumb
 413              	.LBE160:
 414              	.LBE159:
 415              	.LBE158:
 416              	.LBE157:
 417              	.LBE156:
 418              		.loc 1 263 0
 419 000c 7047     		bx	lr
 420              	.L35:
 421              	.LVL28:
 422              	.LBB165:
 423              	.LBB155:
 424              	.LBB153:
 425              	.LBB154:
 426              		.loc 1 305 0
 427 000e 044A     		ldr	r2, .L36
 428 0010 9269     		ldr	r2, [r2, #24]
 429 0012 9A60     		str	r2, [r3, #8]
 430              		.loc 1 306 0
 431 0014 D16B     		ldr	r1, [r2, #60]
 432 0016 D960     		str	r1, [r3, #12]
 433              		.loc 1 307 0
 434 0018 0120     		movs	r0, #1
 435 001a D363     		str	r3, [r2, #60]
 436              	.LBE154:
 437              	.LBE153:
 438              	.LBE155:
 439              	.LBE165:
 440              	.LBB166:
 441              	.LBB164:
 442              	.LBB163:
 443              	.LBB162:
 444              	.LBB161:
 445              		.loc 3 331 0
 446              	@ 331 "ChibiOS_3.0.2/os/ext/CMSIS/include/core_cmFunc.h" 1
 447 001c 62B6     		cpsie i
 448              	@ 0 "" 2
 449              		.thumb
 450              	.LBE161:
 451              	.LBE162:
 452              	.LBE163:
 453              	.LBE164:
 454              	.LBE166:
 455              		.loc 1 263 0
 456 001e 7047     		bx	lr
ARM GAS  /tmp/cc4pbleD.s 			page 9


 457              	.L37:
 458              		.align	2
 459              	.L36:
 460 0020 00000000 		.word	ch
 461              		.cfi_endproc
 462              	.LFE222:
 463              		.size	chMtxTryLock, .-chMtxTryLock
 464              		.section	.text.chMtxTryLockS,"ax",%progbits
 465              		.align	2
 466              		.p2align 4,,15
 467              		.global	chMtxTryLockS
 468              		.thumb
 469              		.thumb_func
 470              		.type	chMtxTryLockS, %function
 471              	chMtxTryLockS:
 472              	.LFB223:
 473              		.loc 1 282 0
 474              		.cfi_startproc
 475              		@ args = 0, pretend = 0, frame = 0
 476              		@ frame_needed = 0, uses_anonymous_args = 0
 477              		@ link register save eliminated.
 478              	.LVL29:
 479              		.loc 1 287 0
 480 0000 8268     		ldr	r2, [r0, #8]
 481              		.loc 1 282 0
 482 0002 0346     		mov	r3, r0
 483              		.loc 1 287 0
 484 0004 0AB1     		cbz	r2, .L41
 485              		.loc 1 297 0
 486 0006 0020     		movs	r0, #0
 487              	.LVL30:
 488              		.loc 1 309 0
 489 0008 7047     		bx	lr
 490              	.LVL31:
 491              	.L41:
 492              	.LBB169:
 493              	.LBB170:
 494              		.loc 1 305 0
 495 000a 044A     		ldr	r2, .L42
 496 000c 9269     		ldr	r2, [r2, #24]
 497 000e 8260     		str	r2, [r0, #8]
 498              		.loc 1 306 0
 499 0010 D16B     		ldr	r1, [r2, #60]
 500 0012 C160     		str	r1, [r0, #12]
 501              		.loc 1 307 0
 502 0014 0120     		movs	r0, #1
 503              	.LVL32:
 504 0016 D363     		str	r3, [r2, #60]
 505 0018 7047     		bx	lr
 506              	.L43:
 507 001a 00BF     		.align	2
 508              	.L42:
 509 001c 00000000 		.word	ch
 510              	.LBE170:
 511              	.LBE169:
 512              		.cfi_endproc
 513              	.LFE223:
ARM GAS  /tmp/cc4pbleD.s 			page 10


 514              		.size	chMtxTryLockS, .-chMtxTryLockS
 515              		.section	.text.chMtxUnlock,"ax",%progbits
 516              		.align	2
 517              		.p2align 4,,15
 518              		.global	chMtxUnlock
 519              		.thumb
 520              		.thumb_func
 521              		.type	chMtxUnlock, %function
 522              	chMtxUnlock:
 523              	.LFB224:
 524              		.loc 1 323 0
 525              		.cfi_startproc
 526              		@ args = 0, pretend = 0, frame = 0
 527              		@ frame_needed = 0, uses_anonymous_args = 0
 528              	.LVL33:
 529              		.loc 1 324 0
 530 0000 144B     		ldr	r3, .L55
 531              		.loc 1 323 0
 532 0002 70B5     		push	{r4, r5, r6, lr}
 533              		.cfi_def_cfa_offset 16
 534              		.cfi_offset 4, -16
 535              		.cfi_offset 5, -12
 536              		.cfi_offset 6, -8
 537              		.cfi_offset 14, -4
 538              		.loc 1 324 0
 539 0004 9D69     		ldr	r5, [r3, #24]
 540              	.LVL34:
 541              	.LBB171:
 542              	.LBB172:
 543              	.LBB173:
 544              	.LBB174:
 545              		.loc 3 342 0
 546              	@ 342 "ChibiOS_3.0.2/os/ext/CMSIS/include/core_cmFunc.h" 1
 547 0006 72B6     		cpsid i
 548              	@ 0 "" 2
 549              		.thumb
 550              	.LBE174:
 551              	.LBE173:
 552              	.LBE172:
 553              	.LBE171:
 554              	.LBB175:
 555              	.LBB176:
 556              	.LBB177:
 557              	.LBB178:
 558              		.loc 2 631 0
 559 0008 0468     		ldr	r4, [r0]
 560              	.LBE178:
 561              	.LBE177:
 562              	.LBE176:
 563              	.LBE175:
 564              		.loc 1 344 0
 565 000a C368     		ldr	r3, [r0, #12]
 566 000c EB63     		str	r3, [r5, #60]
 567              	.LVL35:
 568              		.loc 1 347 0
 569 000e A042     		cmp	r0, r4
 570 0010 1BD0     		beq	.L45
ARM GAS  /tmp/cc4pbleD.s 			page 11


 571              	.LBB179:
 572              		.loc 1 352 0
 573 0012 296C     		ldr	r1, [r5, #64]
 574              	.LVL36:
 575              		.loc 1 354 0
 576 0014 4BB1     		cbz	r3, .L46
 577              	.L48:
 578              	.LVL37:
 579              	.LBB180:
 580              	.LBB181:
 581              	.LBB182:
 582              	.LBB183:
 583              		.loc 2 631 0
 584 0016 1A68     		ldr	r2, [r3]
 585              	.LBE183:
 586              	.LBE182:
 587              	.LBE181:
 588              	.LBE180:
 589              		.loc 1 358 0
 590 0018 9342     		cmp	r3, r2
 591 001a 03D0     		beq	.L47
 592              		.loc 1 359 0 discriminator 1
 593 001c 9268     		ldr	r2, [r2, #8]
 594 001e 9142     		cmp	r1, r2
 595 0020 38BF     		it	cc
 596 0022 1146     		movcc	r1, r2
 597              	.LVL38:
 598              	.L47:
 599              		.loc 1 362 0
 600 0024 DB68     		ldr	r3, [r3, #12]
 601              	.LVL39:
 602              		.loc 1 354 0
 603 0026 002B     		cmp	r3, #0
 604 0028 F5D1     		bne	.L48
 605              	.L46:
 606 002a 0346     		mov	r3, r0
 607              	.LVL40:
 608              	.LBB184:
 609              	.LBB185:
 610              		.loc 2 674 0
 611 002c 2268     		ldr	r2, [r4]
 612              	.LBE185:
 613              	.LBE184:
 614              		.loc 1 376 0
 615 002e E66B     		ldr	r6, [r4, #60]
 616              		.loc 1 367 0
 617 0030 A960     		str	r1, [r5, #8]
 618              	.LVL41:
 619              		.loc 1 383 0
 620 0032 2046     		mov	r0, r4
 621              	.LVL42:
 622              	.LBB187:
 623              	.LBB186:
 624              		.loc 2 674 0
 625 0034 1A60     		str	r2, [r3]
 626              		.loc 2 675 0
 627 0036 5360     		str	r3, [r2, #4]
ARM GAS  /tmp/cc4pbleD.s 			page 12


 628              	.LBE186:
 629              	.LBE187:
 630              		.loc 1 375 0
 631 0038 9C60     		str	r4, [r3, #8]
 632              		.loc 1 376 0
 633 003a DE60     		str	r6, [r3, #12]
 634              		.loc 1 377 0
 635 003c E363     		str	r3, [r4, #60]
 636              		.loc 1 383 0
 637 003e FFF7FEFF 		bl	chSchReadyI
 638              	.LVL43:
 639              		.loc 1 384 0
 640 0042 FFF7FEFF 		bl	chSchRescheduleS
 641              	.LVL44:
 642              	.LBE179:
 643              	.LBB188:
 644              	.LBB189:
 645              	.LBB190:
 646              	.LBB191:
 647              	.LBB192:
 648              		.loc 3 331 0
 649              	@ 331 "ChibiOS_3.0.2/os/ext/CMSIS/include/core_cmFunc.h" 1
 650 0046 62B6     		cpsie i
 651              	@ 0 "" 2
 652              		.thumb
 653 0048 70BD     		pop	{r4, r5, r6, pc}
 654              	.LVL45:
 655              	.L45:
 656              	.LBE192:
 657              	.LBE191:
 658              	.LBE190:
 659              	.LBE189:
 660              	.LBE188:
 661              		.loc 1 387 0
 662 004a 0023     		movs	r3, #0
 663 004c 8360     		str	r3, [r0, #8]
 664              	.LBB197:
 665              	.LBB196:
 666              	.LBB195:
 667              	.LBB194:
 668              	.LBB193:
 669              		.loc 3 331 0
 670              	@ 331 "ChibiOS_3.0.2/os/ext/CMSIS/include/core_cmFunc.h" 1
 671 004e 62B6     		cpsie i
 672              	@ 0 "" 2
 673              		.thumb
 674 0050 70BD     		pop	{r4, r5, r6, pc}
 675              	.LVL46:
 676              	.L56:
 677 0052 00BF     		.align	2
 678              	.L55:
 679 0054 00000000 		.word	ch
 680              	.LBE193:
 681              	.LBE194:
 682              	.LBE195:
 683              	.LBE196:
 684              	.LBE197:
ARM GAS  /tmp/cc4pbleD.s 			page 13


 685              		.cfi_endproc
 686              	.LFE224:
 687              		.size	chMtxUnlock, .-chMtxUnlock
 688              		.section	.text.chMtxUnlockS,"ax",%progbits
 689              		.align	2
 690              		.p2align 4,,15
 691              		.global	chMtxUnlockS
 692              		.thumb
 693              		.thumb_func
 694              		.type	chMtxUnlockS, %function
 695              	chMtxUnlockS:
 696              	.LFB225:
 697              		.loc 1 410 0
 698              		.cfi_startproc
 699              		@ args = 0, pretend = 0, frame = 0
 700              		@ frame_needed = 0, uses_anonymous_args = 0
 701              		@ link register save eliminated.
 702              	.LVL47:
 703              		.loc 1 411 0
 704 0000 124B     		ldr	r3, .L67
 705              		.loc 1 410 0
 706 0002 30B4     		push	{r4, r5}
 707              		.cfi_def_cfa_offset 8
 708              		.cfi_offset 4, -8
 709              		.cfi_offset 5, -4
 710              		.loc 1 410 0
 711 0004 0446     		mov	r4, r0
 712              	.LBB198:
 713              	.LBB199:
 714              	.LBB200:
 715              	.LBB201:
 716              		.loc 2 631 0
 717 0006 0568     		ldr	r5, [r0]
 718              	.LBE201:
 719              	.LBE200:
 720              	.LBE199:
 721              	.LBE198:
 722              		.loc 1 411 0
 723 0008 9869     		ldr	r0, [r3, #24]
 724              	.LVL48:
 725              		.loc 1 430 0
 726 000a E368     		ldr	r3, [r4, #12]
 727 000c C363     		str	r3, [r0, #60]
 728              	.LVL49:
 729              		.loc 1 433 0
 730 000e AC42     		cmp	r4, r5
 731 0010 17D0     		beq	.L58
 732              	.LBB202:
 733              		.loc 1 438 0
 734 0012 016C     		ldr	r1, [r0, #64]
 735              	.LVL50:
 736              		.loc 1 440 0
 737 0014 4BB1     		cbz	r3, .L59
 738              	.L61:
 739              	.LVL51:
 740              	.LBB203:
 741              	.LBB204:
ARM GAS  /tmp/cc4pbleD.s 			page 14


 742              	.LBB205:
 743              	.LBB206:
 744              		.loc 2 631 0
 745 0016 1A68     		ldr	r2, [r3]
 746              	.LBE206:
 747              	.LBE205:
 748              	.LBE204:
 749              	.LBE203:
 750              		.loc 1 444 0
 751 0018 9342     		cmp	r3, r2
 752 001a 03D0     		beq	.L60
 753              		.loc 1 445 0 discriminator 1
 754 001c 9268     		ldr	r2, [r2, #8]
 755 001e 9142     		cmp	r1, r2
 756 0020 38BF     		it	cc
 757 0022 1146     		movcc	r1, r2
 758              	.LVL52:
 759              	.L60:
 760              		.loc 1 448 0
 761 0024 DB68     		ldr	r3, [r3, #12]
 762              	.LVL53:
 763              		.loc 1 440 0
 764 0026 002B     		cmp	r3, #0
 765 0028 F5D1     		bne	.L61
 766              	.L59:
 767              	.LBB207:
 768              	.LBB208:
 769              		.loc 2 674 0
 770 002a 2B68     		ldr	r3, [r5]
 771              	.LVL54:
 772              	.LBE208:
 773              	.LBE207:
 774              		.loc 1 462 0
 775 002c EA6B     		ldr	r2, [r5, #60]
 776              		.loc 1 453 0
 777 002e 8160     		str	r1, [r0, #8]
 778              	.LVL55:
 779              	.LBB211:
 780              	.LBB209:
 781              		.loc 2 674 0
 782 0030 2360     		str	r3, [r4]
 783              	.LBE209:
 784              	.LBE211:
 785              		.loc 1 464 0
 786 0032 2846     		mov	r0, r5
 787              	.LVL56:
 788              	.LBB212:
 789              	.LBB210:
 790              		.loc 2 675 0
 791 0034 5C60     		str	r4, [r3, #4]
 792              	.LBE210:
 793              	.LBE212:
 794              		.loc 1 461 0
 795 0036 A560     		str	r5, [r4, #8]
 796              		.loc 1 462 0
 797 0038 E260     		str	r2, [r4, #12]
 798              		.loc 1 463 0
ARM GAS  /tmp/cc4pbleD.s 			page 15


 799 003a EC63     		str	r4, [r5, #60]
 800              	.LBE202:
 801              		.loc 1 472 0
 802 003c 30BC     		pop	{r4, r5}
 803              		.cfi_remember_state
 804              		.cfi_restore 5
 805              		.cfi_restore 4
 806              		.cfi_def_cfa_offset 0
 807              	.LVL57:
 808              	.LBB213:
 809              		.loc 1 464 0
 810 003e FFF7FEBF 		b	chSchReadyI
 811              	.LVL58:
 812              	.L58:
 813              		.cfi_restore_state
 814              	.LBE213:
 815              		.loc 1 467 0
 816 0042 0023     		movs	r3, #0
 817 0044 A360     		str	r3, [r4, #8]
 818              		.loc 1 472 0
 819 0046 30BC     		pop	{r4, r5}
 820              		.cfi_restore 5
 821              		.cfi_restore 4
 822              		.cfi_def_cfa_offset 0
 823              	.LVL59:
 824 0048 7047     		bx	lr
 825              	.L68:
 826 004a 00BF     		.align	2
 827              	.L67:
 828 004c 00000000 		.word	ch
 829              		.cfi_endproc
 830              	.LFE225:
 831              		.size	chMtxUnlockS, .-chMtxUnlockS
 832              		.section	.text.chMtxUnlockAll,"ax",%progbits
 833              		.align	2
 834              		.p2align 4,,15
 835              		.global	chMtxUnlockAll
 836              		.thumb
 837              		.thumb_func
 838              		.type	chMtxUnlockAll, %function
 839              	chMtxUnlockAll:
 840              	.LFB226:
 841              		.loc 1 485 0
 842              		.cfi_startproc
 843              		@ args = 0, pretend = 0, frame = 0
 844              		@ frame_needed = 0, uses_anonymous_args = 0
 845              		.loc 1 486 0
 846 0000 114B     		ldr	r3, .L81
 847              		.loc 1 485 0
 848 0002 70B5     		push	{r4, r5, r6, lr}
 849              		.cfi_def_cfa_offset 16
 850              		.cfi_offset 4, -16
 851              		.cfi_offset 5, -12
 852              		.cfi_offset 6, -8
 853              		.cfi_offset 14, -4
 854              		.loc 1 486 0
 855 0004 9C69     		ldr	r4, [r3, #24]
ARM GAS  /tmp/cc4pbleD.s 			page 16


 856              	.LVL60:
 857              	.LBB214:
 858              	.LBB215:
 859              	.LBB216:
 860              	.LBB217:
 861              		.loc 3 342 0
 862              	@ 342 "ChibiOS_3.0.2/os/ext/CMSIS/include/core_cmFunc.h" 1
 863 0006 72B6     		cpsid i
 864              	@ 0 "" 2
 865              		.thumb
 866              	.LBE217:
 867              	.LBE216:
 868              	.LBE215:
 869              	.LBE214:
 870              		.loc 1 489 0
 871 0008 E36B     		ldr	r3, [r4, #60]
 872 000a D3B1     		cbz	r3, .L70
 873              	.LBB218:
 874              		.loc 1 507 0
 875 000c 0026     		movs	r6, #0
 876 000e 0AE0     		b	.L73
 877              	.LVL61:
 878              	.L80:
 879              	.LBB219:
 880              	.LBB220:
 881              	.LBB221:
 882              		.loc 2 674 0
 883 0010 1168     		ldr	r1, [r2]
 884              	.LBE221:
 885              	.LBE220:
 886              		.loc 1 499 0
 887 0012 D56B     		ldr	r5, [r2, #60]
 888              	.LBB223:
 889              	.LBB222:
 890              		.loc 2 674 0
 891 0014 1960     		str	r1, [r3]
 892              		.loc 2 675 0
 893 0016 4B60     		str	r3, [r1, #4]
 894              	.LBE222:
 895              	.LBE223:
 896              		.loc 1 498 0
 897 0018 9A60     		str	r2, [r3, #8]
 898              		.loc 1 499 0
 899 001a DD60     		str	r5, [r3, #12]
 900              		.loc 1 500 0
 901 001c D363     		str	r3, [r2, #60]
 902              		.loc 1 501 0
 903 001e FFF7FEFF 		bl	chSchReadyI
 904              	.LVL62:
 905              	.LBE219:
 906              	.LBE218:
 907              		.loc 1 509 0
 908 0022 E36B     		ldr	r3, [r4, #60]
 909 0024 4BB1     		cbz	r3, .L79
 910              	.L73:
 911              	.LVL63:
 912              	.LBB229:
ARM GAS  /tmp/cc4pbleD.s 			page 17


 913              	.LBB224:
 914              	.LBB225:
 915              	.LBB226:
 916              	.LBB227:
 917              		.loc 2 631 0
 918 0026 1A68     		ldr	r2, [r3]
 919              	.LVL64:
 920              	.LBE227:
 921              	.LBE226:
 922              	.LBE225:
 923              	.LBE224:
 924              		.loc 1 492 0
 925 0028 D968     		ldr	r1, [r3, #12]
 926 002a E163     		str	r1, [r4, #60]
 927              	.LVL65:
 928              		.loc 1 493 0
 929 002c 9342     		cmp	r3, r2
 930              	.LBB228:
 931              		.loc 1 501 0
 932 002e 1046     		mov	r0, r2
 933              	.LBE228:
 934              		.loc 1 493 0
 935 0030 EED1     		bne	.L80
 936              		.loc 1 507 0
 937 0032 9E60     		str	r6, [r3, #8]
 938              	.LBE229:
 939              		.loc 1 509 0
 940 0034 E36B     		ldr	r3, [r4, #60]
 941              	.LVL66:
 942 0036 002B     		cmp	r3, #0
 943 0038 F5D1     		bne	.L73
 944              	.LVL67:
 945              	.L79:
 946              		.loc 1 510 0
 947 003a 236C     		ldr	r3, [r4, #64]
 948 003c A360     		str	r3, [r4, #8]
 949              		.loc 1 511 0
 950 003e FFF7FEFF 		bl	chSchRescheduleS
 951              	.LVL68:
 952              	.L70:
 953              	.LBB230:
 954              	.LBB231:
 955              	.LBB232:
 956              	.LBB233:
 957              	.LBB234:
 958              		.loc 3 331 0
 959              	@ 331 "ChibiOS_3.0.2/os/ext/CMSIS/include/core_cmFunc.h" 1
 960 0042 62B6     		cpsie i
 961              	@ 0 "" 2
 962              		.thumb
 963 0044 70BD     		pop	{r4, r5, r6, pc}
 964              	.LVL69:
 965              	.L82:
 966 0046 00BF     		.align	2
 967              	.L81:
 968 0048 00000000 		.word	ch
 969              	.LBE234:
ARM GAS  /tmp/cc4pbleD.s 			page 18


 970              	.LBE233:
 971              	.LBE232:
 972              	.LBE231:
 973              	.LBE230:
 974              		.cfi_endproc
 975              	.LFE226:
 976              		.size	chMtxUnlockAll, .-chMtxUnlockAll
 977              		.text
 978              	.Letext0:
 979              		.file 4 "/usr/arm-none-eabi/include/machine/_default_types.h"
 980              		.file 5 "/usr/arm-none-eabi/include/sys/_stdint.h"
 981              		.file 6 "ChibiOS_3.0.2/os/rt/ports/ARMCMx/compilers/GCC/chtypes.h"
 982              		.file 7 "ChibiOS_3.0.2/os/rt/include/chsystypes.h"
 983              		.file 8 "ChibiOS_3.0.2/os/rt/ports/ARMCMx/chcore.h"
 984              		.file 9 "ChibiOS_3.0.2/os/rt/ports/ARMCMx/chcore_v7m.h"
 985              		.file 10 "ChibiOS_3.0.2/os/rt/include/chtm.h"
 986              		.file 11 "ChibiOS_3.0.2/os/rt/include/chsem.h"
 987              		.file 12 "ChibiOS_3.0.2/os/rt/include/chmtx.h"
 988              		.file 13 "ChibiOS_3.0.2/os/rt/include/chsys.h"
 989              		.file 14 "ChibiOS_3.0.2/os/ext/CMSIS/include/core_cm4.h"
 990              		.section	.debug_info,"",%progbits
 991              	.Ldebug_info0:
 992 0000 97100000 		.4byte	0x1097
 993 0004 0400     		.2byte	0x4
 994 0006 00000000 		.4byte	.Ldebug_abbrev0
 995 000a 04       		.byte	0x4
 996 000b 01       		.uleb128 0x1
 997 000c B1040000 		.4byte	.LASF128
 998 0010 01       		.byte	0x1
 999 0011 35060000 		.4byte	.LASF129
 1000 0015 EB000000 		.4byte	.LASF130
 1001 0019 40010000 		.4byte	.Ldebug_ranges0+0x140
 1002 001d 00000000 		.4byte	0
 1003 0021 00000000 		.4byte	.Ldebug_line0
 1004 0025 02       		.uleb128 0x2
 1005 0026 04       		.byte	0x4
 1006 0027 05       		.byte	0x5
 1007 0028 696E7400 		.ascii	"int\000"
 1008 002c 03       		.uleb128 0x3
 1009 002d 04       		.byte	0x4
 1010 002e 07       		.byte	0x7
 1011 002f 03020000 		.4byte	.LASF0
 1012 0033 03       		.uleb128 0x3
 1013 0034 01       		.byte	0x1
 1014 0035 06       		.byte	0x6
 1015 0036 DF000000 		.4byte	.LASF1
 1016 003a 04       		.uleb128 0x4
 1017 003b 2B000000 		.4byte	.LASF5
 1018 003f 04       		.byte	0x4
 1019 0040 1D       		.byte	0x1d
 1020 0041 45000000 		.4byte	0x45
 1021 0045 03       		.uleb128 0x3
 1022 0046 01       		.byte	0x1
 1023 0047 08       		.byte	0x8
 1024 0048 CB030000 		.4byte	.LASF2
 1025 004c 03       		.uleb128 0x3
 1026 004d 02       		.byte	0x2
ARM GAS  /tmp/cc4pbleD.s 			page 19


 1027 004e 05       		.byte	0x5
 1028 004f EB030000 		.4byte	.LASF3
 1029 0053 03       		.uleb128 0x3
 1030 0054 02       		.byte	0x2
 1031 0055 07       		.byte	0x7
 1032 0056 40020000 		.4byte	.LASF4
 1033 005a 04       		.uleb128 0x4
 1034 005b B5020000 		.4byte	.LASF6
 1035 005f 04       		.byte	0x4
 1036 0060 3F       		.byte	0x3f
 1037 0061 65000000 		.4byte	0x65
 1038 0065 03       		.uleb128 0x3
 1039 0066 04       		.byte	0x4
 1040 0067 05       		.byte	0x5
 1041 0068 5C010000 		.4byte	.LASF7
 1042 006c 04       		.uleb128 0x4
 1043 006d 05060000 		.4byte	.LASF8
 1044 0071 04       		.byte	0x4
 1045 0072 41       		.byte	0x41
 1046 0073 77000000 		.4byte	0x77
 1047 0077 03       		.uleb128 0x3
 1048 0078 04       		.byte	0x4
 1049 0079 07       		.byte	0x7
 1050 007a 9A040000 		.4byte	.LASF9
 1051 007e 03       		.uleb128 0x3
 1052 007f 08       		.byte	0x8
 1053 0080 05       		.byte	0x5
 1054 0081 D3010000 		.4byte	.LASF10
 1055 0085 04       		.uleb128 0x4
 1056 0086 65030000 		.4byte	.LASF11
 1057 008a 04       		.byte	0x4
 1058 008b 5B       		.byte	0x5b
 1059 008c 90000000 		.4byte	0x90
 1060 0090 03       		.uleb128 0x3
 1061 0091 08       		.byte	0x8
 1062 0092 07       		.byte	0x7
 1063 0093 65000000 		.4byte	.LASF12
 1064 0097 04       		.uleb128 0x4
 1065 0098 9B060000 		.4byte	.LASF13
 1066 009c 05       		.byte	0x5
 1067 009d 14       		.byte	0x14
 1068 009e 3A000000 		.4byte	0x3a
 1069 00a2 04       		.uleb128 0x4
 1070 00a3 C3030000 		.4byte	.LASF14
 1071 00a7 05       		.byte	0x5
 1072 00a8 1F       		.byte	0x1f
 1073 00a9 5A000000 		.4byte	0x5a
 1074 00ad 04       		.uleb128 0x4
 1075 00ae 66040000 		.4byte	.LASF15
 1076 00b2 05       		.byte	0x5
 1077 00b3 20       		.byte	0x20
 1078 00b4 6C000000 		.4byte	0x6c
 1079 00b8 04       		.uleb128 0x4
 1080 00b9 22000000 		.4byte	.LASF16
 1081 00bd 05       		.byte	0x5
 1082 00be 26       		.byte	0x26
 1083 00bf 85000000 		.4byte	0x85
ARM GAS  /tmp/cc4pbleD.s 			page 20


 1084 00c3 05       		.uleb128 0x5
 1085 00c4 A2000000 		.4byte	0xa2
 1086 00c8 04       		.uleb128 0x4
 1087 00c9 5D060000 		.4byte	.LASF17
 1088 00cd 06       		.byte	0x6
 1089 00ce 45       		.byte	0x45
 1090 00cf AD000000 		.4byte	0xad
 1091 00d3 04       		.uleb128 0x4
 1092 00d4 86020000 		.4byte	.LASF18
 1093 00d8 06       		.byte	0x6
 1094 00d9 48       		.byte	0x48
 1095 00da 97000000 		.4byte	0x97
 1096 00de 04       		.uleb128 0x4
 1097 00df 73010000 		.4byte	.LASF19
 1098 00e3 06       		.byte	0x6
 1099 00e4 49       		.byte	0x49
 1100 00e5 97000000 		.4byte	0x97
 1101 00e9 04       		.uleb128 0x4
 1102 00ea 00000000 		.4byte	.LASF20
 1103 00ee 06       		.byte	0x6
 1104 00ef 4A       		.byte	0x4a
 1105 00f0 97000000 		.4byte	0x97
 1106 00f4 04       		.uleb128 0x4
 1107 00f5 48010000 		.4byte	.LASF21
 1108 00f9 06       		.byte	0x6
 1109 00fa 4B       		.byte	0x4b
 1110 00fb 97000000 		.4byte	0x97
 1111 00ff 04       		.uleb128 0x4
 1112 0100 95030000 		.4byte	.LASF22
 1113 0104 06       		.byte	0x6
 1114 0105 4C       		.byte	0x4c
 1115 0106 AD000000 		.4byte	0xad
 1116 010a 04       		.uleb128 0x4
 1117 010b 5D020000 		.4byte	.LASF23
 1118 010f 06       		.byte	0x6
 1119 0110 4D       		.byte	0x4d
 1120 0111 A2000000 		.4byte	0xa2
 1121 0115 04       		.uleb128 0x4
 1122 0116 9C020000 		.4byte	.LASF24
 1123 011a 06       		.byte	0x6
 1124 011b 4F       		.byte	0x4f
 1125 011c AD000000 		.4byte	0xad
 1126 0120 04       		.uleb128 0x4
 1127 0121 F0010000 		.4byte	.LASF25
 1128 0125 06       		.byte	0x6
 1129 0126 51       		.byte	0x51
 1130 0127 A2000000 		.4byte	0xa2
 1131 012b 04       		.uleb128 0x4
 1132 012c E7050000 		.4byte	.LASF26
 1133 0130 07       		.byte	0x7
 1134 0131 33       		.byte	0x33
 1135 0132 AD000000 		.4byte	0xad
 1136 0136 04       		.uleb128 0x4
 1137 0137 8C060000 		.4byte	.LASF27
 1138 013b 07       		.byte	0x7
 1139 013c 3F       		.byte	0x3f
 1140 013d 41010000 		.4byte	0x141
ARM GAS  /tmp/cc4pbleD.s 			page 21


 1141 0141 06       		.uleb128 0x6
 1142 0142 53020000 		.4byte	.LASF49
 1143 0146 48       		.byte	0x48
 1144 0147 02       		.byte	0x2
 1145 0148 C2       		.byte	0xc2
 1146 0149 46020000 		.4byte	0x246
 1147 014d 07       		.uleb128 0x7
 1148 014e 0D040000 		.4byte	.LASF28
 1149 0152 02       		.byte	0x2
 1150 0153 C3       		.byte	0xc3
 1151 0154 51020000 		.4byte	0x251
 1152 0158 00       		.byte	0
 1153 0159 07       		.uleb128 0x7
 1154 015a 8E030000 		.4byte	.LASF29
 1155 015e 02       		.byte	0x2
 1156 015f C5       		.byte	0xc5
 1157 0160 51020000 		.4byte	0x251
 1158 0164 04       		.byte	0x4
 1159 0165 07       		.uleb128 0x7
 1160 0166 C4000000 		.4byte	.LASF30
 1161 016a 02       		.byte	0x2
 1162 016b C7       		.byte	0xc7
 1163 016c FF000000 		.4byte	0xff
 1164 0170 08       		.byte	0x8
 1165 0171 07       		.uleb128 0x7
 1166 0172 F3060000 		.4byte	.LASF31
 1167 0176 02       		.byte	0x2
 1168 0177 C8       		.byte	0xc8
 1169 0178 81040000 		.4byte	0x481
 1170 017c 0C       		.byte	0xc
 1171 017d 07       		.uleb128 0x7
 1172 017e 99010000 		.4byte	.LASF32
 1173 0182 02       		.byte	0x2
 1174 0183 CA       		.byte	0xca
 1175 0184 51020000 		.4byte	0x251
 1176 0188 10       		.byte	0x10
 1177 0189 07       		.uleb128 0x7
 1178 018a 20030000 		.4byte	.LASF33
 1179 018e 02       		.byte	0x2
 1180 018f CB       		.byte	0xcb
 1181 0190 51020000 		.4byte	0x251
 1182 0194 14       		.byte	0x14
 1183 0195 07       		.uleb128 0x7
 1184 0196 AA060000 		.4byte	.LASF34
 1185 019a 02       		.byte	0x2
 1186 019b D2       		.byte	0xd2
 1187 019c C6060000 		.4byte	0x6c6
 1188 01a0 18       		.byte	0x18
 1189 01a1 07       		.uleb128 0x7
 1190 01a2 D9030000 		.4byte	.LASF35
 1191 01a6 02       		.byte	0x2
 1192 01a7 DD       		.byte	0xdd
 1193 01a8 DE000000 		.4byte	0xde
 1194 01ac 1C       		.byte	0x1c
 1195 01ad 07       		.uleb128 0x7
 1196 01ae 14040000 		.4byte	.LASF36
 1197 01b2 02       		.byte	0x2
ARM GAS  /tmp/cc4pbleD.s 			page 22


 1198 01b3 E1       		.byte	0xe1
 1199 01b4 D3000000 		.4byte	0xd3
 1200 01b8 1D       		.byte	0x1d
 1201 01b9 07       		.uleb128 0x7
 1202 01ba 85060000 		.4byte	.LASF37
 1203 01be 02       		.byte	0x2
 1204 01bf E6       		.byte	0xe6
 1205 01c0 E9000000 		.4byte	0xe9
 1206 01c4 1E       		.byte	0x1e
 1207 01c5 07       		.uleb128 0x7
 1208 01c6 F5030000 		.4byte	.LASF38
 1209 01ca 02       		.byte	0x2
 1210 01cb EC       		.byte	0xec
 1211 01cc F4000000 		.4byte	0xf4
 1212 01d0 1F       		.byte	0x1f
 1213 01d1 07       		.uleb128 0x7
 1214 01d2 18020000 		.4byte	.LASF39
 1215 01d6 02       		.byte	0x2
 1216 01d7 F3       		.byte	0xf3
 1217 01d8 D8060000 		.4byte	0x6d8
 1218 01dc 20       		.byte	0x20
 1219 01dd 08       		.uleb128 0x8
 1220 01de 705F7500 		.ascii	"p_u\000"
 1221 01e2 02       		.byte	0x2
 1222 01e3 3101     		.2byte	0x131
 1223 01e5 01060000 		.4byte	0x601
 1224 01e9 24       		.byte	0x24
 1225 01ea 09       		.uleb128 0x9
 1226 01eb D9020000 		.4byte	.LASF40
 1227 01ef 02       		.byte	0x2
 1228 01f0 3601     		.2byte	0x136
 1229 01f2 57020000 		.4byte	0x257
 1230 01f6 28       		.byte	0x28
 1231 01f7 09       		.uleb128 0x9
 1232 01f8 2F020000 		.4byte	.LASF41
 1233 01fc 02       		.byte	0x2
 1234 01fd 3C01     		.2byte	0x13c
 1235 01ff 7B020000 		.4byte	0x27b
 1236 0203 2C       		.byte	0x2c
 1237 0204 09       		.uleb128 0x9
 1238 0205 C8060000 		.4byte	.LASF42
 1239 0209 02       		.byte	0x2
 1240 020a 4001     		.2byte	0x140
 1241 020c 0A010000 		.4byte	0x10a
 1242 0210 34       		.byte	0x34
 1243 0211 09       		.uleb128 0x9
 1244 0212 5B040000 		.4byte	.LASF43
 1245 0216 02       		.byte	0x2
 1246 0217 4601     		.2byte	0x146
 1247 0219 15010000 		.4byte	0x115
 1248 021d 38       		.byte	0x38
 1249 021e 09       		.uleb128 0x9
 1250 021f E1030000 		.4byte	.LASF44
 1251 0223 02       		.byte	0x2
 1252 0224 4D01     		.2byte	0x14d
 1253 0226 C0060000 		.4byte	0x6c0
 1254 022a 3C       		.byte	0x3c
ARM GAS  /tmp/cc4pbleD.s 			page 23


 1255 022b 09       		.uleb128 0x9
 1256 022c F1050000 		.4byte	.LASF45
 1257 0230 02       		.byte	0x2
 1258 0231 5101     		.2byte	0x151
 1259 0233 FF000000 		.4byte	0xff
 1260 0237 40       		.byte	0x40
 1261 0238 09       		.uleb128 0x9
 1262 0239 25010000 		.4byte	.LASF46
 1263 023d 02       		.byte	0x2
 1264 023e 5801     		.2byte	0x158
 1265 0240 2E030000 		.4byte	0x32e
 1266 0244 44       		.byte	0x44
 1267 0245 00       		.byte	0
 1268 0246 04       		.uleb128 0x4
 1269 0247 EC020000 		.4byte	.LASF47
 1270 024b 07       		.byte	0x7
 1271 024c 44       		.byte	0x44
 1272 024d 51020000 		.4byte	0x251
 1273 0251 0A       		.uleb128 0xa
 1274 0252 04       		.byte	0x4
 1275 0253 36010000 		.4byte	0x136
 1276 0257 04       		.uleb128 0x4
 1277 0258 CA020000 		.4byte	.LASF48
 1278 025c 07       		.byte	0x7
 1279 025d 49       		.byte	0x49
 1280 025e 62020000 		.4byte	0x262
 1281 0262 06       		.uleb128 0x6
 1282 0263 8A040000 		.4byte	.LASF50
 1283 0267 04       		.byte	0x4
 1284 0268 02       		.byte	0x2
 1285 0269 B0       		.byte	0xb0
 1286 026a 7B020000 		.4byte	0x27b
 1287 026e 07       		.uleb128 0x7
 1288 026f 0D040000 		.4byte	.LASF28
 1289 0273 02       		.byte	0x2
 1290 0274 B1       		.byte	0xb1
 1291 0275 51020000 		.4byte	0x251
 1292 0279 00       		.byte	0
 1293 027a 00       		.byte	0
 1294 027b 04       		.uleb128 0x4
 1295 027c 6C060000 		.4byte	.LASF51
 1296 0280 07       		.byte	0x7
 1297 0281 50       		.byte	0x50
 1298 0282 86020000 		.4byte	0x286
 1299 0286 06       		.uleb128 0x6
 1300 0287 B3000000 		.4byte	.LASF52
 1301 028b 08       		.byte	0x8
 1302 028c 02       		.byte	0x2
 1303 028d B7       		.byte	0xb7
 1304 028e AB020000 		.4byte	0x2ab
 1305 0292 07       		.uleb128 0x7
 1306 0293 0D040000 		.4byte	.LASF28
 1307 0297 02       		.byte	0x2
 1308 0298 B8       		.byte	0xb8
 1309 0299 51020000 		.4byte	0x251
 1310 029d 00       		.byte	0
 1311 029e 07       		.uleb128 0x7
ARM GAS  /tmp/cc4pbleD.s 			page 24


 1312 029f 8E030000 		.4byte	.LASF29
 1313 02a3 02       		.byte	0x2
 1314 02a4 B9       		.byte	0xb9
 1315 02a5 51020000 		.4byte	0x251
 1316 02a9 04       		.byte	0x4
 1317 02aa 00       		.byte	0
 1318 02ab 04       		.uleb128 0x4
 1319 02ac 08000000 		.4byte	.LASF53
 1320 02b0 07       		.byte	0x7
 1321 02b1 57       		.byte	0x57
 1322 02b2 B6020000 		.4byte	0x2b6
 1323 02b6 0B       		.uleb128 0xb
 1324 02b7 8E020000 		.4byte	.LASF54
 1325 02bb 1C       		.byte	0x1c
 1326 02bc 02       		.byte	0x2
 1327 02bd 9001     		.2byte	0x190
 1328 02bf 12030000 		.4byte	0x312
 1329 02c3 09       		.uleb128 0x9
 1330 02c4 76040000 		.4byte	.LASF55
 1331 02c8 02       		.byte	0x2
 1332 02c9 9101     		.2byte	0x191
 1333 02cb 7B020000 		.4byte	0x27b
 1334 02cf 00       		.byte	0
 1335 02d0 09       		.uleb128 0x9
 1336 02d1 FF030000 		.4byte	.LASF56
 1337 02d5 02       		.byte	0x2
 1338 02d6 9201     		.2byte	0x192
 1339 02d8 FF000000 		.4byte	0xff
 1340 02dc 08       		.byte	0x8
 1341 02dd 09       		.uleb128 0x9
 1342 02de 28030000 		.4byte	.LASF57
 1343 02e2 02       		.byte	0x2
 1344 02e3 9401     		.2byte	0x194
 1345 02e5 81040000 		.4byte	0x481
 1346 02e9 0C       		.byte	0xc
 1347 02ea 09       		.uleb128 0x9
 1348 02eb BA010000 		.4byte	.LASF58
 1349 02ef 02       		.byte	0x2
 1350 02f0 9701     		.2byte	0x197
 1351 02f2 51020000 		.4byte	0x251
 1352 02f6 10       		.byte	0x10
 1353 02f7 09       		.uleb128 0x9
 1354 02f8 50030000 		.4byte	.LASF59
 1355 02fc 02       		.byte	0x2
 1356 02fd 9801     		.2byte	0x198
 1357 02ff 51020000 		.4byte	0x251
 1358 0303 14       		.byte	0x14
 1359 0304 09       		.uleb128 0x9
 1360 0305 46030000 		.4byte	.LASF60
 1361 0309 02       		.byte	0x2
 1362 030a 9B01     		.2byte	0x19b
 1363 030c 51020000 		.4byte	0x251
 1364 0310 18       		.byte	0x18
 1365 0311 00       		.byte	0
 1366 0312 04       		.uleb128 0x4
 1367 0313 FC050000 		.4byte	.LASF61
 1368 0317 07       		.byte	0x7
ARM GAS  /tmp/cc4pbleD.s 			page 25


 1369 0318 5C       		.byte	0x5c
 1370 0319 1D030000 		.4byte	0x31d
 1371 031d 0A       		.uleb128 0xa
 1372 031e 04       		.byte	0x4
 1373 031f 23030000 		.4byte	0x323
 1374 0323 0C       		.uleb128 0xc
 1375 0324 2E030000 		.4byte	0x32e
 1376 0328 0D       		.uleb128 0xd
 1377 0329 2E030000 		.4byte	0x32e
 1378 032d 00       		.byte	0
 1379 032e 0E       		.uleb128 0xe
 1380 032f 04       		.byte	0x4
 1381 0330 04       		.uleb128 0x4
 1382 0331 7E030000 		.4byte	.LASF62
 1383 0335 07       		.byte	0x7
 1384 0336 61       		.byte	0x61
 1385 0337 3B030000 		.4byte	0x33b
 1386 033b 0B       		.uleb128 0xb
 1387 033c 2F040000 		.4byte	.LASF63
 1388 0340 14       		.byte	0x14
 1389 0341 02       		.byte	0x2
 1390 0342 6B01     		.2byte	0x16b
 1391 0344 8A030000 		.4byte	0x38a
 1392 0348 09       		.uleb128 0x9
 1393 0349 10020000 		.4byte	.LASF64
 1394 034d 02       		.byte	0x2
 1395 034e 6C01     		.2byte	0x16c
 1396 0350 DD060000 		.4byte	0x6dd
 1397 0354 00       		.byte	0
 1398 0355 09       		.uleb128 0x9
 1399 0356 CB010000 		.4byte	.LASF65
 1400 035a 02       		.byte	0x2
 1401 035b 6D01     		.2byte	0x16d
 1402 035d DD060000 		.4byte	0x6dd
 1403 0361 04       		.byte	0x4
 1404 0362 09       		.uleb128 0x9
 1405 0363 26020000 		.4byte	.LASF66
 1406 0367 02       		.byte	0x2
 1407 0368 6E01     		.2byte	0x16e
 1408 036a 2B010000 		.4byte	0x12b
 1409 036e 08       		.byte	0x8
 1410 036f 09       		.uleb128 0x9
 1411 0370 F9060000 		.4byte	.LASF67
 1412 0374 02       		.byte	0x2
 1413 0375 6F01     		.2byte	0x16f
 1414 0377 12030000 		.4byte	0x312
 1415 037b 0C       		.byte	0xc
 1416 037c 09       		.uleb128 0x9
 1417 037d 65060000 		.4byte	.LASF68
 1418 0381 02       		.byte	0x2
 1419 0382 7101     		.2byte	0x171
 1420 0384 2E030000 		.4byte	0x32e
 1421 0388 10       		.byte	0x10
 1422 0389 00       		.byte	0
 1423 038a 04       		.uleb128 0x4
 1424 038b 90000000 		.4byte	.LASF69
 1425 038f 07       		.byte	0x7
ARM GAS  /tmp/cc4pbleD.s 			page 26


 1426 0390 66       		.byte	0x66
 1427 0391 95030000 		.4byte	0x395
 1428 0395 0B       		.uleb128 0xb
 1429 0396 FF020000 		.4byte	.LASF70
 1430 039a 10       		.byte	0x10
 1431 039b 02       		.byte	0x2
 1432 039c 7B01     		.2byte	0x17b
 1433 039e D7030000 		.4byte	0x3d7
 1434 03a2 09       		.uleb128 0x9
 1435 03a3 10020000 		.4byte	.LASF64
 1436 03a7 02       		.byte	0x2
 1437 03a8 7C01     		.2byte	0x17c
 1438 03aa DD060000 		.4byte	0x6dd
 1439 03ae 00       		.byte	0
 1440 03af 09       		.uleb128 0x9
 1441 03b0 CB010000 		.4byte	.LASF65
 1442 03b4 02       		.byte	0x2
 1443 03b5 7E01     		.2byte	0x17e
 1444 03b7 DD060000 		.4byte	0x6dd
 1445 03bb 04       		.byte	0x4
 1446 03bc 09       		.uleb128 0x9
 1447 03bd 26020000 		.4byte	.LASF66
 1448 03c1 02       		.byte	0x2
 1449 03c2 8001     		.2byte	0x180
 1450 03c4 2B010000 		.4byte	0x12b
 1451 03c8 08       		.byte	0x8
 1452 03c9 09       		.uleb128 0x9
 1453 03ca B1060000 		.4byte	.LASF71
 1454 03ce 02       		.byte	0x2
 1455 03cf 8201     		.2byte	0x182
 1456 03d1 D8060000 		.4byte	0x6d8
 1457 03d5 0C       		.byte	0xc
 1458 03d6 00       		.byte	0
 1459 03d7 04       		.uleb128 0x4
 1460 03d8 41000000 		.4byte	.LASF72
 1461 03dc 07       		.byte	0x7
 1462 03dd 6B       		.byte	0x6b
 1463 03de E2030000 		.4byte	0x3e2
 1464 03e2 0B       		.uleb128 0xb
 1465 03e3 AD030000 		.4byte	.LASF73
 1466 03e7 04       		.byte	0x4
 1467 03e8 02       		.byte	0x2
 1468 03e9 A201     		.2byte	0x1a2
 1469 03eb FD030000 		.4byte	0x3fd
 1470 03ef 09       		.uleb128 0x9
 1471 03f0 24060000 		.4byte	.LASF74
 1472 03f4 02       		.byte	0x2
 1473 03f5 AA01     		.2byte	0x1aa
 1474 03f7 E3060000 		.4byte	0x6e3
 1475 03fb 00       		.byte	0
 1476 03fc 00       		.byte	0
 1477 03fd 04       		.uleb128 0x4
 1478 03fe 63020000 		.4byte	.LASF75
 1479 0402 07       		.byte	0x7
 1480 0403 70       		.byte	0x70
 1481 0404 08040000 		.4byte	0x408
 1482 0408 0F       		.uleb128 0xf
ARM GAS  /tmp/cc4pbleD.s 			page 27


 1483 0409 52010000 		.4byte	.LASF76
 1484 040d 5802     		.2byte	0x258
 1485 040f 02       		.byte	0x2
 1486 0410 C201     		.2byte	0x1c2
 1487 0412 64040000 		.4byte	0x464
 1488 0416 09       		.uleb128 0x9
 1489 0417 95060000 		.4byte	.LASF77
 1490 041b 02       		.byte	0x2
 1491 041c C601     		.2byte	0x1c6
 1492 041e AB020000 		.4byte	0x2ab
 1493 0422 00       		.byte	0
 1494 0423 09       		.uleb128 0x9
 1495 0424 35010000 		.4byte	.LASF78
 1496 0428 02       		.byte	0x2
 1497 0429 CA01     		.2byte	0x1ca
 1498 042b 8A030000 		.4byte	0x38a
 1499 042f 1C       		.byte	0x1c
 1500 0430 08       		.uleb128 0x8
 1501 0431 64626700 		.ascii	"dbg\000"
 1502 0435 02       		.byte	0x2
 1503 0436 CE01     		.2byte	0x1ce
 1504 0438 D7030000 		.4byte	0x3d7
 1505 043c 2C       		.byte	0x2c
 1506 043d 09       		.uleb128 0x9
 1507 043e 85000000 		.4byte	.LASF79
 1508 0442 02       		.byte	0x2
 1509 0443 D201     		.2byte	0x1d2
 1510 0445 36010000 		.4byte	0x136
 1511 0449 30       		.byte	0x30
 1512 044a 08       		.uleb128 0x8
 1513 044b 746D00   		.ascii	"tm\000"
 1514 044e 02       		.byte	0x2
 1515 044f D701     		.2byte	0x1d7
 1516 0451 F6050000 		.4byte	0x5f6
 1517 0455 78       		.byte	0x78
 1518 0456 09       		.uleb128 0x9
 1519 0457 E1010000 		.4byte	.LASF80
 1520 045b 02       		.byte	0x2
 1521 045c E301     		.2byte	0x1e3
 1522 045e E8060000 		.4byte	0x6e8
 1523 0462 80       		.byte	0x80
 1524 0463 00       		.byte	0
 1525 0464 03       		.uleb128 0x3
 1526 0465 04       		.byte	0x4
 1527 0466 07       		.byte	0x7
 1528 0467 E3020000 		.4byte	.LASF81
 1529 046b 04       		.uleb128 0x4
 1530 046c C2010000 		.4byte	.LASF82
 1531 0470 08       		.byte	0x8
 1532 0471 65       		.byte	0x65
 1533 0472 2E030000 		.4byte	0x32e
 1534 0476 04       		.uleb128 0x4
 1535 0477 BF020000 		.4byte	.LASF83
 1536 047b 08       		.byte	0x8
 1537 047c 6D       		.byte	0x6d
 1538 047d B8000000 		.4byte	0xb8
 1539 0481 06       		.uleb128 0x6
ARM GAS  /tmp/cc4pbleD.s 			page 28


 1540 0482 55060000 		.4byte	.LASF84
 1541 0486 04       		.byte	0x4
 1542 0487 08       		.byte	0x8
 1543 0488 89       		.byte	0x89
 1544 0489 9A040000 		.4byte	0x49a
 1545 048d 10       		.uleb128 0x10
 1546 048e 72313300 		.ascii	"r13\000"
 1547 0492 08       		.byte	0x8
 1548 0493 8A       		.byte	0x8a
 1549 0494 DB050000 		.4byte	0x5db
 1550 0498 00       		.byte	0
 1551 0499 00       		.byte	0
 1552 049a 06       		.uleb128 0x6
 1553 049b 35000000 		.4byte	.LASF85
 1554 049f 64       		.byte	0x64
 1555 04a0 09       		.byte	0x9
 1556 04a1 F4       		.byte	0xf4
 1557 04a2 DB050000 		.4byte	0x5db
 1558 04a6 10       		.uleb128 0x10
 1559 04a7 73313600 		.ascii	"s16\000"
 1560 04ab 09       		.byte	0x9
 1561 04ac F6       		.byte	0xf6
 1562 04ad 6B040000 		.4byte	0x46b
 1563 04b1 00       		.byte	0
 1564 04b2 10       		.uleb128 0x10
 1565 04b3 73313700 		.ascii	"s17\000"
 1566 04b7 09       		.byte	0x9
 1567 04b8 F7       		.byte	0xf7
 1568 04b9 6B040000 		.4byte	0x46b
 1569 04bd 04       		.byte	0x4
 1570 04be 10       		.uleb128 0x10
 1571 04bf 73313800 		.ascii	"s18\000"
 1572 04c3 09       		.byte	0x9
 1573 04c4 F8       		.byte	0xf8
 1574 04c5 6B040000 		.4byte	0x46b
 1575 04c9 08       		.byte	0x8
 1576 04ca 10       		.uleb128 0x10
 1577 04cb 73313900 		.ascii	"s19\000"
 1578 04cf 09       		.byte	0x9
 1579 04d0 F9       		.byte	0xf9
 1580 04d1 6B040000 		.4byte	0x46b
 1581 04d5 0C       		.byte	0xc
 1582 04d6 10       		.uleb128 0x10
 1583 04d7 73323000 		.ascii	"s20\000"
 1584 04db 09       		.byte	0x9
 1585 04dc FA       		.byte	0xfa
 1586 04dd 6B040000 		.4byte	0x46b
 1587 04e1 10       		.byte	0x10
 1588 04e2 10       		.uleb128 0x10
 1589 04e3 73323100 		.ascii	"s21\000"
 1590 04e7 09       		.byte	0x9
 1591 04e8 FB       		.byte	0xfb
 1592 04e9 6B040000 		.4byte	0x46b
 1593 04ed 14       		.byte	0x14
 1594 04ee 10       		.uleb128 0x10
 1595 04ef 73323200 		.ascii	"s22\000"
 1596 04f3 09       		.byte	0x9
ARM GAS  /tmp/cc4pbleD.s 			page 29


 1597 04f4 FC       		.byte	0xfc
 1598 04f5 6B040000 		.4byte	0x46b
 1599 04f9 18       		.byte	0x18
 1600 04fa 10       		.uleb128 0x10
 1601 04fb 73323300 		.ascii	"s23\000"
 1602 04ff 09       		.byte	0x9
 1603 0500 FD       		.byte	0xfd
 1604 0501 6B040000 		.4byte	0x46b
 1605 0505 1C       		.byte	0x1c
 1606 0506 10       		.uleb128 0x10
 1607 0507 73323400 		.ascii	"s24\000"
 1608 050b 09       		.byte	0x9
 1609 050c FE       		.byte	0xfe
 1610 050d 6B040000 		.4byte	0x46b
 1611 0511 20       		.byte	0x20
 1612 0512 10       		.uleb128 0x10
 1613 0513 73323500 		.ascii	"s25\000"
 1614 0517 09       		.byte	0x9
 1615 0518 FF       		.byte	0xff
 1616 0519 6B040000 		.4byte	0x46b
 1617 051d 24       		.byte	0x24
 1618 051e 08       		.uleb128 0x8
 1619 051f 73323600 		.ascii	"s26\000"
 1620 0523 09       		.byte	0x9
 1621 0524 0001     		.2byte	0x100
 1622 0526 6B040000 		.4byte	0x46b
 1623 052a 28       		.byte	0x28
 1624 052b 08       		.uleb128 0x8
 1625 052c 73323700 		.ascii	"s27\000"
 1626 0530 09       		.byte	0x9
 1627 0531 0101     		.2byte	0x101
 1628 0533 6B040000 		.4byte	0x46b
 1629 0537 2C       		.byte	0x2c
 1630 0538 08       		.uleb128 0x8
 1631 0539 73323800 		.ascii	"s28\000"
 1632 053d 09       		.byte	0x9
 1633 053e 0201     		.2byte	0x102
 1634 0540 6B040000 		.4byte	0x46b
 1635 0544 30       		.byte	0x30
 1636 0545 08       		.uleb128 0x8
 1637 0546 73323900 		.ascii	"s29\000"
 1638 054a 09       		.byte	0x9
 1639 054b 0301     		.2byte	0x103
 1640 054d 6B040000 		.4byte	0x46b
 1641 0551 34       		.byte	0x34
 1642 0552 08       		.uleb128 0x8
 1643 0553 73333000 		.ascii	"s30\000"
 1644 0557 09       		.byte	0x9
 1645 0558 0401     		.2byte	0x104
 1646 055a 6B040000 		.4byte	0x46b
 1647 055e 38       		.byte	0x38
 1648 055f 08       		.uleb128 0x8
 1649 0560 73333100 		.ascii	"s31\000"
 1650 0564 09       		.byte	0x9
 1651 0565 0501     		.2byte	0x105
 1652 0567 6B040000 		.4byte	0x46b
 1653 056b 3C       		.byte	0x3c
ARM GAS  /tmp/cc4pbleD.s 			page 30


 1654 056c 08       		.uleb128 0x8
 1655 056d 723400   		.ascii	"r4\000"
 1656 0570 09       		.byte	0x9
 1657 0571 0701     		.2byte	0x107
 1658 0573 6B040000 		.4byte	0x46b
 1659 0577 40       		.byte	0x40
 1660 0578 08       		.uleb128 0x8
 1661 0579 723500   		.ascii	"r5\000"
 1662 057c 09       		.byte	0x9
 1663 057d 0801     		.2byte	0x108
 1664 057f 6B040000 		.4byte	0x46b
 1665 0583 44       		.byte	0x44
 1666 0584 08       		.uleb128 0x8
 1667 0585 723600   		.ascii	"r6\000"
 1668 0588 09       		.byte	0x9
 1669 0589 0901     		.2byte	0x109
 1670 058b 6B040000 		.4byte	0x46b
 1671 058f 48       		.byte	0x48
 1672 0590 08       		.uleb128 0x8
 1673 0591 723700   		.ascii	"r7\000"
 1674 0594 09       		.byte	0x9
 1675 0595 0A01     		.2byte	0x10a
 1676 0597 6B040000 		.4byte	0x46b
 1677 059b 4C       		.byte	0x4c
 1678 059c 08       		.uleb128 0x8
 1679 059d 723800   		.ascii	"r8\000"
 1680 05a0 09       		.byte	0x9
 1681 05a1 0B01     		.2byte	0x10b
 1682 05a3 6B040000 		.4byte	0x46b
 1683 05a7 50       		.byte	0x50
 1684 05a8 08       		.uleb128 0x8
 1685 05a9 723900   		.ascii	"r9\000"
 1686 05ac 09       		.byte	0x9
 1687 05ad 0C01     		.2byte	0x10c
 1688 05af 6B040000 		.4byte	0x46b
 1689 05b3 54       		.byte	0x54
 1690 05b4 08       		.uleb128 0x8
 1691 05b5 72313000 		.ascii	"r10\000"
 1692 05b9 09       		.byte	0x9
 1693 05ba 0D01     		.2byte	0x10d
 1694 05bc 6B040000 		.4byte	0x46b
 1695 05c0 58       		.byte	0x58
 1696 05c1 08       		.uleb128 0x8
 1697 05c2 72313100 		.ascii	"r11\000"
 1698 05c6 09       		.byte	0x9
 1699 05c7 0E01     		.2byte	0x10e
 1700 05c9 6B040000 		.4byte	0x46b
 1701 05cd 5C       		.byte	0x5c
 1702 05ce 08       		.uleb128 0x8
 1703 05cf 6C7200   		.ascii	"lr\000"
 1704 05d2 09       		.byte	0x9
 1705 05d3 0F01     		.2byte	0x10f
 1706 05d5 6B040000 		.4byte	0x46b
 1707 05d9 60       		.byte	0x60
 1708 05da 00       		.byte	0
 1709 05db 0A       		.uleb128 0xa
 1710 05dc 04       		.byte	0x4
ARM GAS  /tmp/cc4pbleD.s 			page 31


 1711 05dd 9A040000 		.4byte	0x49a
 1712 05e1 11       		.uleb128 0x11
 1713 05e2 04       		.byte	0x4
 1714 05e3 0A       		.byte	0xa
 1715 05e4 38       		.byte	0x38
 1716 05e5 F6050000 		.4byte	0x5f6
 1717 05e9 07       		.uleb128 0x7
 1718 05ea 2E060000 		.4byte	.LASF86
 1719 05ee 0A       		.byte	0xa
 1720 05ef 3C       		.byte	0x3c
 1721 05f0 C8000000 		.4byte	0xc8
 1722 05f4 00       		.byte	0
 1723 05f5 00       		.byte	0
 1724 05f6 04       		.uleb128 0x4
 1725 05f7 2E030000 		.4byte	.LASF87
 1726 05fb 0A       		.byte	0xa
 1727 05fc 3D       		.byte	0x3d
 1728 05fd E1050000 		.4byte	0x5e1
 1729 0601 12       		.uleb128 0x12
 1730 0602 04       		.byte	0x4
 1731 0603 02       		.byte	0x2
 1732 0604 FA       		.byte	0xfa
 1733 0605 5E060000 		.4byte	0x65e
 1734 0609 13       		.uleb128 0x13
 1735 060a 1B000000 		.4byte	.LASF88
 1736 060e 02       		.byte	0x2
 1737 060f 0101     		.2byte	0x101
 1738 0611 0A010000 		.4byte	0x10a
 1739 0615 13       		.uleb128 0x13
 1740 0616 7C000000 		.4byte	.LASF89
 1741 061a 02       		.byte	0x2
 1742 061b 0801     		.2byte	0x108
 1743 061d 0A010000 		.4byte	0x10a
 1744 0621 13       		.uleb128 0x13
 1745 0622 A3060000 		.4byte	.LASF90
 1746 0626 02       		.byte	0x2
 1747 0627 0F01     		.2byte	0x10f
 1748 0629 2E030000 		.4byte	0x32e
 1749 062d 13       		.uleb128 0x13
 1750 062e 15000000 		.4byte	.LASF91
 1751 0632 02       		.byte	0x2
 1752 0633 1601     		.2byte	0x116
 1753 0635 5E060000 		.4byte	0x65e
 1754 0639 13       		.uleb128 0x13
 1755 063a 1F020000 		.4byte	.LASF92
 1756 063e 02       		.byte	0x2
 1757 063f 1E01     		.2byte	0x11e
 1758 0641 89060000 		.4byte	0x689
 1759 0645 13       		.uleb128 0x13
 1760 0646 6F040000 		.4byte	.LASF93
 1761 064a 02       		.byte	0x2
 1762 064b 2701     		.2byte	0x127
 1763 064d C0060000 		.4byte	0x6c0
 1764 0651 13       		.uleb128 0x13
 1765 0652 06040000 		.4byte	.LASF94
 1766 0656 02       		.byte	0x2
 1767 0657 2F01     		.2byte	0x12f
ARM GAS  /tmp/cc4pbleD.s 			page 32


 1768 0659 15010000 		.4byte	0x115
 1769 065d 00       		.byte	0
 1770 065e 0A       		.uleb128 0xa
 1771 065f 04       		.byte	0x4
 1772 0660 46020000 		.4byte	0x246
 1773 0664 06       		.uleb128 0x6
 1774 0665 40040000 		.4byte	.LASF95
 1775 0669 0C       		.byte	0xc
 1776 066a 0B       		.byte	0xb
 1777 066b 34       		.byte	0x34
 1778 066c 89060000 		.4byte	0x689
 1779 0670 07       		.uleb128 0x7
 1780 0671 A1010000 		.4byte	.LASF96
 1781 0675 0B       		.byte	0xb
 1782 0676 35       		.byte	0x35
 1783 0677 7B020000 		.4byte	0x27b
 1784 067b 00       		.byte	0
 1785 067c 07       		.uleb128 0x7
 1786 067d 3A020000 		.4byte	.LASF97
 1787 0681 0B       		.byte	0xb
 1788 0682 37       		.byte	0x37
 1789 0683 20010000 		.4byte	0x120
 1790 0687 08       		.byte	0x8
 1791 0688 00       		.byte	0
 1792 0689 0A       		.uleb128 0xa
 1793 068a 04       		.byte	0x4
 1794 068b 64060000 		.4byte	0x664
 1795 068f 06       		.uleb128 0x6
 1796 0690 7C060000 		.4byte	.LASF98
 1797 0694 10       		.byte	0x10
 1798 0695 0C       		.byte	0xc
 1799 0696 39       		.byte	0x39
 1800 0697 C0060000 		.4byte	0x6c0
 1801 069b 07       		.uleb128 0x7
 1802 069c 2D010000 		.4byte	.LASF99
 1803 06a0 0C       		.byte	0xc
 1804 06a1 3A       		.byte	0x3a
 1805 06a2 7B020000 		.4byte	0x27b
 1806 06a6 00       		.byte	0
 1807 06a7 07       		.uleb128 0x7
 1808 06a8 EB060000 		.4byte	.LASF100
 1809 06ac 0C       		.byte	0xc
 1810 06ad 3C       		.byte	0x3c
 1811 06ae 51020000 		.4byte	0x251
 1812 06b2 08       		.byte	0x8
 1813 06b3 07       		.uleb128 0x7
 1814 06b4 3F030000 		.4byte	.LASF101
 1815 06b8 0C       		.byte	0xc
 1816 06b9 3E       		.byte	0x3e
 1817 06ba 03070000 		.4byte	0x703
 1818 06be 0C       		.byte	0xc
 1819 06bf 00       		.byte	0
 1820 06c0 0A       		.uleb128 0xa
 1821 06c1 04       		.byte	0x4
 1822 06c2 8F060000 		.4byte	0x68f
 1823 06c6 0A       		.uleb128 0xa
 1824 06c7 04       		.byte	0x4
ARM GAS  /tmp/cc4pbleD.s 			page 33


 1825 06c8 CC060000 		.4byte	0x6cc
 1826 06cc 14       		.uleb128 0x14
 1827 06cd D1060000 		.4byte	0x6d1
 1828 06d1 03       		.uleb128 0x3
 1829 06d2 01       		.byte	0x1
 1830 06d3 08       		.byte	0x8
 1831 06d4 AC040000 		.4byte	.LASF102
 1832 06d8 05       		.uleb128 0x5
 1833 06d9 2B010000 		.4byte	0x12b
 1834 06dd 0A       		.uleb128 0xa
 1835 06de 04       		.byte	0x4
 1836 06df 30030000 		.4byte	0x330
 1837 06e3 05       		.uleb128 0x5
 1838 06e4 C6060000 		.4byte	0x6c6
 1839 06e8 15       		.uleb128 0x15
 1840 06e9 76040000 		.4byte	0x476
 1841 06ed F8060000 		.4byte	0x6f8
 1842 06f1 16       		.uleb128 0x16
 1843 06f2 64040000 		.4byte	0x464
 1844 06f6 3A       		.byte	0x3a
 1845 06f7 00       		.byte	0
 1846 06f8 04       		.uleb128 0x4
 1847 06f9 CB000000 		.4byte	.LASF103
 1848 06fd 0C       		.byte	0xc
 1849 06fe 34       		.byte	0x34
 1850 06ff 8F060000 		.4byte	0x68f
 1851 0703 0A       		.uleb128 0xa
 1852 0704 04       		.byte	0x4
 1853 0705 F8060000 		.4byte	0x6f8
 1854 0709 17       		.uleb128 0x17
 1855 070a 70030000 		.4byte	.LASF104
 1856 070e 03       		.byte	0x3
 1857 070f 5401     		.2byte	0x154
 1858 0711 03       		.byte	0x3
 1859 0712 17       		.uleb128 0x17
 1860 0713 58030000 		.4byte	.LASF105
 1861 0717 03       		.byte	0x3
 1862 0718 4901     		.2byte	0x149
 1863 071a 03       		.byte	0x3
 1864 071b 17       		.uleb128 0x17
 1865 071c 5B000000 		.4byte	.LASF106
 1866 0720 09       		.byte	0x9
 1867 0721 BC01     		.2byte	0x1bc
 1868 0723 03       		.byte	0x3
 1869 0724 17       		.uleb128 0x17
 1870 0725 3C010000 		.4byte	.LASF107
 1871 0729 09       		.byte	0x9
 1872 072a CA01     		.2byte	0x1ca
 1873 072c 03       		.byte	0x3
 1874 072d 18       		.uleb128 0x18
 1875 072e 7C010000 		.4byte	.LASF109
 1876 0732 02       		.byte	0x2
 1877 0733 7502     		.2byte	0x275
 1878 0735 4B070000 		.4byte	0x74b
 1879 0739 03       		.byte	0x3
 1880 073a 4B070000 		.4byte	0x74b
 1881 073e 19       		.uleb128 0x19
ARM GAS  /tmp/cc4pbleD.s 			page 34


 1882 073f 74717000 		.ascii	"tqp\000"
 1883 0743 02       		.byte	0x2
 1884 0744 7502     		.2byte	0x275
 1885 0746 52070000 		.4byte	0x752
 1886 074a 00       		.byte	0
 1887 074b 03       		.uleb128 0x3
 1888 074c 01       		.byte	0x1
 1889 074d 02       		.byte	0x2
 1890 074e BD030000 		.4byte	.LASF108
 1891 0752 0A       		.uleb128 0xa
 1892 0753 04       		.byte	0x4
 1893 0754 58070000 		.4byte	0x758
 1894 0758 14       		.uleb128 0x14
 1895 0759 7B020000 		.4byte	0x27b
 1896 075d 1A       		.uleb128 0x1a
 1897 075e 50000000 		.4byte	.LASF111
 1898 0762 02       		.byte	0x2
 1899 0763 5A02     		.2byte	0x25a
 1900 0765 03       		.byte	0x3
 1901 0766 77070000 		.4byte	0x777
 1902 076a 19       		.uleb128 0x19
 1903 076b 74717000 		.ascii	"tqp\000"
 1904 076f 02       		.byte	0x2
 1905 0770 5A02     		.2byte	0x25a
 1906 0772 77070000 		.4byte	0x777
 1907 0776 00       		.byte	0
 1908 0777 0A       		.uleb128 0xa
 1909 0778 04       		.byte	0x4
 1910 0779 7B020000 		.4byte	0x27b
 1911 077d 18       		.uleb128 0x18
 1912 077e 65010000 		.4byte	.LASF110
 1913 0782 02       		.byte	0x2
 1914 0783 B102     		.2byte	0x2b1
 1915 0785 51020000 		.4byte	0x251
 1916 0789 03       		.byte	0x3
 1917 078a 9A070000 		.4byte	0x79a
 1918 078e 19       		.uleb128 0x19
 1919 078f 747000   		.ascii	"tp\000"
 1920 0792 02       		.byte	0x2
 1921 0793 B102     		.2byte	0x2b1
 1922 0795 51020000 		.4byte	0x251
 1923 0799 00       		.byte	0
 1924 079a 1A       		.uleb128 0x1a
 1925 079b D9060000 		.4byte	.LASF112
 1926 079f 02       		.byte	0x2
 1927 07a0 8B02     		.2byte	0x28b
 1928 07a2 03       		.byte	0x3
 1929 07a3 CA070000 		.4byte	0x7ca
 1930 07a7 19       		.uleb128 0x19
 1931 07a8 747000   		.ascii	"tp\000"
 1932 07ab 02       		.byte	0x2
 1933 07ac 8B02     		.2byte	0x28b
 1934 07ae 51020000 		.4byte	0x251
 1935 07b2 19       		.uleb128 0x19
 1936 07b3 74717000 		.ascii	"tqp\000"
 1937 07b7 02       		.byte	0x2
 1938 07b8 8B02     		.2byte	0x28b
ARM GAS  /tmp/cc4pbleD.s 			page 35


 1939 07ba 77070000 		.4byte	0x777
 1940 07be 1B       		.uleb128 0x1b
 1941 07bf 637000   		.ascii	"cp\000"
 1942 07c2 02       		.byte	0x2
 1943 07c3 8D02     		.2byte	0x28d
 1944 07c5 51020000 		.4byte	0x251
 1945 07c9 00       		.byte	0
 1946 07ca 17       		.uleb128 0x17
 1947 07cb 25040000 		.4byte	.LASF113
 1948 07cf 0D       		.byte	0xd
 1949 07d0 5A01     		.2byte	0x15a
 1950 07d2 03       		.byte	0x3
 1951 07d3 1A       		.uleb128 0x1a
 1952 07d4 BC060000 		.4byte	.LASF114
 1953 07d8 0D       		.byte	0xd
 1954 07d9 6601     		.2byte	0x166
 1955 07db 03       		.byte	0x3
 1956 07dc EE070000 		.4byte	0x7ee
 1957 07e0 1C       		.uleb128 0x1c
 1958 07e1 1C040000 		.4byte	.LASF115
 1959 07e5 FE070000 		.4byte	0x7fe
 1960 07e9 BC060000 		.4byte	.LASF114
 1961 07ed 00       		.byte	0
 1962 07ee 15       		.uleb128 0x15
 1963 07ef D1060000 		.4byte	0x6d1
 1964 07f3 FE070000 		.4byte	0x7fe
 1965 07f7 16       		.uleb128 0x16
 1966 07f8 64040000 		.4byte	0x464
 1967 07fc 0B       		.byte	0xb
 1968 07fd 00       		.byte	0
 1969 07fe 14       		.uleb128 0x14
 1970 07ff EE070000 		.4byte	0x7ee
 1971 0803 1D       		.uleb128 0x1d
 1972 0804 8B010000 		.4byte	.LASF116
 1973 0808 01       		.byte	0x1
 1974 0809 1A01     		.2byte	0x11a
 1975 080b 4B070000 		.4byte	0x74b
 1976 080f 01       		.byte	0x1
 1977 0810 2D080000 		.4byte	0x82d
 1978 0814 19       		.uleb128 0x19
 1979 0815 6D7000   		.ascii	"mp\000"
 1980 0818 01       		.byte	0x1
 1981 0819 1A01     		.2byte	0x11a
 1982 081b 03070000 		.4byte	0x703
 1983 081f 1C       		.uleb128 0x1c
 1984 0820 1C040000 		.4byte	.LASF115
 1985 0824 3D080000 		.4byte	0x83d
 1986 0828 8B010000 		.4byte	.LASF116
 1987 082c 00       		.byte	0
 1988 082d 15       		.uleb128 0x15
 1989 082e D1060000 		.4byte	0x6d1
 1990 0832 3D080000 		.4byte	0x83d
 1991 0836 16       		.uleb128 0x16
 1992 0837 64040000 		.4byte	0x464
 1993 083b 0D       		.byte	0xd
 1994 083c 00       		.byte	0
 1995 083d 14       		.uleb128 0x14
ARM GAS  /tmp/cc4pbleD.s 			page 36


 1996 083e 2D080000 		.4byte	0x82d
 1997 0842 1E       		.uleb128 0x1e
 1998 0843 10060000 		.4byte	.LASF117
 1999 0847 0C       		.byte	0xc
 2000 0848 81       		.byte	0x81
 2001 0849 4B070000 		.4byte	0x74b
 2002 084d 03       		.byte	0x3
 2003 084e 5D080000 		.4byte	0x85d
 2004 0852 1F       		.uleb128 0x1f
 2005 0853 6D7000   		.ascii	"mp\000"
 2006 0856 0C       		.byte	0xc
 2007 0857 81       		.byte	0x81
 2008 0858 03070000 		.4byte	0x703
 2009 085c 00       		.byte	0
 2010 085d 18       		.uleb128 0x18
 2011 085e D5050000 		.4byte	.LASF118
 2012 0862 02       		.byte	0x2
 2013 0863 9F02     		.2byte	0x29f
 2014 0865 51020000 		.4byte	0x251
 2015 0869 03       		.byte	0x3
 2016 086a 86080000 		.4byte	0x886
 2017 086e 19       		.uleb128 0x19
 2018 086f 74717000 		.ascii	"tqp\000"
 2019 0873 02       		.byte	0x2
 2020 0874 9F02     		.2byte	0x29f
 2021 0876 77070000 		.4byte	0x777
 2022 087a 1B       		.uleb128 0x1b
 2023 087b 747000   		.ascii	"tp\000"
 2024 087e 02       		.byte	0x2
 2025 087f A002     		.2byte	0x2a0
 2026 0881 51020000 		.4byte	0x251
 2027 0885 00       		.byte	0
 2028 0886 20       		.uleb128 0x20
 2029 0887 9D030000 		.4byte	.LASF119
 2030 088b 01       		.byte	0x1
 2031 088c 67       		.byte	0x67
 2032 088d 00000000 		.4byte	.LFB219
 2033 0891 0A000000 		.4byte	.LFE219-.LFB219
 2034 0895 01       		.uleb128 0x1
 2035 0896 9C       		.byte	0x9c
 2036 0897 C8080000 		.4byte	0x8c8
 2037 089b 21       		.uleb128 0x21
 2038 089c 6D7000   		.ascii	"mp\000"
 2039 089f 01       		.byte	0x1
 2040 08a0 67       		.byte	0x67
 2041 08a1 03070000 		.4byte	0x703
 2042 08a5 01       		.uleb128 0x1
 2043 08a6 50       		.byte	0x50
 2044 08a7 22       		.uleb128 0x22
 2045 08a8 1C040000 		.4byte	.LASF115
 2046 08ac D8080000 		.4byte	0x8d8
 2047 08b0 23       		.uleb128 0x23
 2048 08b1 5D070000 		.4byte	0x75d
 2049 08b5 02000000 		.4byte	.LBB103
 2050 08b9 04000000 		.4byte	.LBE103-.LBB103
 2051 08bd 01       		.byte	0x1
 2052 08be 6B       		.byte	0x6b
ARM GAS  /tmp/cc4pbleD.s 			page 37


 2053 08bf 24       		.uleb128 0x24
 2054 08c0 6A070000 		.4byte	0x76a
 2055 08c4 01       		.uleb128 0x1
 2056 08c5 50       		.byte	0x50
 2057 08c6 00       		.byte	0
 2058 08c7 00       		.byte	0
 2059 08c8 15       		.uleb128 0x15
 2060 08c9 D1060000 		.4byte	0x6d1
 2061 08cd D8080000 		.4byte	0x8d8
 2062 08d1 16       		.uleb128 0x16
 2063 08d2 64040000 		.4byte	0x464
 2064 08d6 0F       		.byte	0xf
 2065 08d7 00       		.byte	0
 2066 08d8 14       		.uleb128 0x14
 2067 08d9 C8080000 		.4byte	0x8c8
 2068 08dd 20       		.uleb128 0x20
 2069 08de CE060000 		.4byte	.LASF120
 2070 08e2 01       		.byte	0x1
 2071 08e3 8B       		.byte	0x8b
 2072 08e4 00000000 		.4byte	.LFB221
 2073 08e8 C8000000 		.4byte	.LFE221-.LFB221
 2074 08ec 01       		.uleb128 0x1
 2075 08ed 9C       		.byte	0x9c
 2076 08ee 4B0A0000 		.4byte	0xa4b
 2077 08f2 25       		.uleb128 0x25
 2078 08f3 6D7000   		.ascii	"mp\000"
 2079 08f6 01       		.byte	0x1
 2080 08f7 8B       		.byte	0x8b
 2081 08f8 03070000 		.4byte	0x703
 2082 08fc 00000000 		.4byte	.LLST0
 2083 0900 26       		.uleb128 0x26
 2084 0901 63747000 		.ascii	"ctp\000"
 2085 0905 01       		.byte	0x1
 2086 0906 8C       		.byte	0x8c
 2087 0907 51020000 		.4byte	0x251
 2088 090b 51000000 		.4byte	.LLST1
 2089 090f 22       		.uleb128 0x22
 2090 0910 1C040000 		.4byte	.LASF115
 2091 0914 5B0A0000 		.4byte	0xa5b
 2092 0918 27       		.uleb128 0x27
 2093 0919 00000000 		.4byte	.Ldebug_ranges0+0
 2094 091d 26       		.uleb128 0x26
 2095 091e 747000   		.ascii	"tp\000"
 2096 0921 01       		.byte	0x1
 2097 0922 A1       		.byte	0xa1
 2098 0923 51020000 		.4byte	0x251
 2099 0927 7B000000 		.4byte	.LLST2
 2100 092b 28       		.uleb128 0x28
 2101 092c 9A070000 		.4byte	0x79a
 2102 0930 24000000 		.4byte	.LBB106
 2103 0934 1C000000 		.4byte	.LBE106-.LBB106
 2104 0938 01       		.byte	0x1
 2105 0939 D4       		.byte	0xd4
 2106 093a 64090000 		.4byte	0x964
 2107 093e 29       		.uleb128 0x29
 2108 093f B2070000 		.4byte	0x7b2
 2109 0943 A4000000 		.4byte	.LLST3
ARM GAS  /tmp/cc4pbleD.s 			page 38


 2110 0947 29       		.uleb128 0x29
 2111 0948 A7070000 		.4byte	0x7a7
 2112 094c D4000000 		.4byte	.LLST4
 2113 0950 2A       		.uleb128 0x2a
 2114 0951 24000000 		.4byte	.LBB107
 2115 0955 1C000000 		.4byte	.LBE107-.LBB107
 2116 0959 2B       		.uleb128 0x2b
 2117 095a BE070000 		.4byte	0x7be
 2118 095e F3000000 		.4byte	.LLST5
 2119 0962 00       		.byte	0
 2120 0963 00       		.byte	0
 2121 0964 2C       		.uleb128 0x2c
 2122 0965 7D070000 		.4byte	0x77d
 2123 0969 4C000000 		.4byte	.LBB108
 2124 096d 18000000 		.4byte	.Ldebug_ranges0+0x18
 2125 0971 01       		.byte	0x1
 2126 0972 CA       		.byte	0xca
 2127 0973 81090000 		.4byte	0x981
 2128 0977 29       		.uleb128 0x29
 2129 0978 8E070000 		.4byte	0x78e
 2130 097c 11010000 		.4byte	.LLST6
 2131 0980 00       		.byte	0
 2132 0981 2C       		.uleb128 0x2c
 2133 0982 7D070000 		.4byte	0x77d
 2134 0986 5E000000 		.4byte	.LBB112
 2135 098a 30000000 		.4byte	.Ldebug_ranges0+0x30
 2136 098e 01       		.byte	0x1
 2137 098f C1       		.byte	0xc1
 2138 0990 9E090000 		.4byte	0x99e
 2139 0994 29       		.uleb128 0x29
 2140 0995 8E070000 		.4byte	0x78e
 2141 0999 24010000 		.4byte	.LLST7
 2142 099d 00       		.byte	0
 2143 099e 28       		.uleb128 0x28
 2144 099f 9A070000 		.4byte	0x79a
 2145 09a3 6A000000 		.4byte	.LBB116
 2146 09a7 1C000000 		.4byte	.LBE116-.LBB116
 2147 09ab 01       		.byte	0x1
 2148 09ac C1       		.byte	0xc1
 2149 09ad D7090000 		.4byte	0x9d7
 2150 09b1 29       		.uleb128 0x29
 2151 09b2 B2070000 		.4byte	0x7b2
 2152 09b6 37010000 		.4byte	.LLST8
 2153 09ba 29       		.uleb128 0x29
 2154 09bb A7070000 		.4byte	0x7a7
 2155 09bf 4A010000 		.4byte	.LLST9
 2156 09c3 2A       		.uleb128 0x2a
 2157 09c4 6A000000 		.4byte	.LBB117
 2158 09c8 1C000000 		.4byte	.LBE117-.LBB117
 2159 09cc 2B       		.uleb128 0x2b
 2160 09cd BE070000 		.4byte	0x7be
 2161 09d1 5D010000 		.4byte	.LLST10
 2162 09d5 00       		.byte	0
 2163 09d6 00       		.byte	0
 2164 09d7 2C       		.uleb128 0x2c
 2165 09d8 7D070000 		.4byte	0x77d
 2166 09dc 86000000 		.4byte	.LBB118
ARM GAS  /tmp/cc4pbleD.s 			page 39


 2167 09e0 48000000 		.4byte	.Ldebug_ranges0+0x48
 2168 09e4 01       		.byte	0x1
 2169 09e5 AD       		.byte	0xad
 2170 09e6 F4090000 		.4byte	0x9f4
 2171 09ea 29       		.uleb128 0x29
 2172 09eb 8E070000 		.4byte	0x78e
 2173 09ef 7B010000 		.4byte	.LLST11
 2174 09f3 00       		.byte	0
 2175 09f4 28       		.uleb128 0x28
 2176 09f5 9A070000 		.4byte	0x79a
 2177 09f9 92000000 		.4byte	.LBB122
 2178 09fd 1A000000 		.4byte	.LBE122-.LBB122
 2179 0a01 01       		.byte	0x1
 2180 0a02 AD       		.byte	0xad
 2181 0a03 2D0A0000 		.4byte	0xa2d
 2182 0a07 29       		.uleb128 0x29
 2183 0a08 B2070000 		.4byte	0x7b2
 2184 0a0c 9A010000 		.4byte	.LLST12
 2185 0a10 29       		.uleb128 0x29
 2186 0a11 A7070000 		.4byte	0x7a7
 2187 0a15 AD010000 		.4byte	.LLST13
 2188 0a19 2A       		.uleb128 0x2a
 2189 0a1a 92000000 		.4byte	.LBB123
 2190 0a1e 1A000000 		.4byte	.LBE123-.LBB123
 2191 0a22 2B       		.uleb128 0x2b
 2192 0a23 BE070000 		.4byte	0x7be
 2193 0a27 CC010000 		.4byte	.LLST14
 2194 0a2b 00       		.byte	0
 2195 0a2c 00       		.byte	0
 2196 0a2d 2D       		.uleb128 0x2d
 2197 0a2e 4C000000 		.4byte	.LVL9
 2198 0a32 6A100000 		.4byte	0x106a
 2199 0a36 400A0000 		.4byte	0xa40
 2200 0a3a 2E       		.uleb128 0x2e
 2201 0a3b 01       		.uleb128 0x1
 2202 0a3c 50       		.byte	0x50
 2203 0a3d 01       		.uleb128 0x1
 2204 0a3e 36       		.byte	0x36
 2205 0a3f 00       		.byte	0
 2206 0a40 2F       		.uleb128 0x2f
 2207 0a41 5C000000 		.4byte	.LVL10
 2208 0a45 7C100000 		.4byte	0x107c
 2209 0a49 00       		.byte	0
 2210 0a4a 00       		.byte	0
 2211 0a4b 15       		.uleb128 0x15
 2212 0a4c D1060000 		.4byte	0x6d1
 2213 0a50 5B0A0000 		.4byte	0xa5b
 2214 0a54 16       		.uleb128 0x16
 2215 0a55 64040000 		.4byte	0x464
 2216 0a59 0A       		.byte	0xa
 2217 0a5a 00       		.byte	0
 2218 0a5b 14       		.uleb128 0x14
 2219 0a5c 4B0A0000 		.4byte	0xa4b
 2220 0a60 20       		.uleb128 0x20
 2221 0a61 16030000 		.4byte	.LASF121
 2222 0a65 01       		.byte	0x1
 2223 0a66 7B       		.byte	0x7b
ARM GAS  /tmp/cc4pbleD.s 			page 40


 2224 0a67 00000000 		.4byte	.LFB220
 2225 0a6b 0C000000 		.4byte	.LFE220-.LFB220
 2226 0a6f 01       		.uleb128 0x1
 2227 0a70 9C       		.byte	0x9c
 2228 0a71 0E0B0000 		.4byte	0xb0e
 2229 0a75 25       		.uleb128 0x25
 2230 0a76 6D7000   		.ascii	"mp\000"
 2231 0a79 01       		.byte	0x1
 2232 0a7a 7B       		.byte	0x7b
 2233 0a7b 03070000 		.4byte	0x703
 2234 0a7f EA010000 		.4byte	.LLST15
 2235 0a83 28       		.uleb128 0x28
 2236 0a84 CA070000 		.4byte	0x7ca
 2237 0a88 02000000 		.4byte	.LBB125
 2238 0a8c 02000000 		.4byte	.LBE125-.LBB125
 2239 0a90 01       		.byte	0x1
 2240 0a91 7D       		.byte	0x7d
 2241 0a92 B80A0000 		.4byte	0xab8
 2242 0a96 30       		.uleb128 0x30
 2243 0a97 1B070000 		.4byte	0x71b
 2244 0a9b 02000000 		.4byte	.LBB126
 2245 0a9f 02000000 		.4byte	.LBE126-.LBB126
 2246 0aa3 0D       		.byte	0xd
 2247 0aa4 5C01     		.2byte	0x15c
 2248 0aa6 31       		.uleb128 0x31
 2249 0aa7 09070000 		.4byte	0x709
 2250 0aab 02000000 		.4byte	.LBB127
 2251 0aaf 02000000 		.4byte	.LBE127-.LBB127
 2252 0ab3 09       		.byte	0x9
 2253 0ab4 C101     		.2byte	0x1c1
 2254 0ab6 00       		.byte	0
 2255 0ab7 00       		.byte	0
 2256 0ab8 28       		.uleb128 0x28
 2257 0ab9 D3070000 		.4byte	0x7d3
 2258 0abd 08000000 		.4byte	.LBB129
 2259 0ac1 04000000 		.4byte	.LBE129-.LBB129
 2260 0ac5 01       		.byte	0x1
 2261 0ac6 7F       		.byte	0x7f
 2262 0ac7 FC0A0000 		.4byte	0xafc
 2263 0acb 2A       		.uleb128 0x2a
 2264 0acc 08000000 		.4byte	.LBB130
 2265 0ad0 04000000 		.4byte	.LBE130-.LBB130
 2266 0ad4 32       		.uleb128 0x32
 2267 0ad5 E0070000 		.4byte	0x7e0
 2268 0ad9 30       		.uleb128 0x30
 2269 0ada 24070000 		.4byte	0x724
 2270 0ade 08000000 		.4byte	.LBB131
 2271 0ae2 04000000 		.4byte	.LBE131-.LBB131
 2272 0ae6 0D       		.byte	0xd
 2273 0ae7 7301     		.2byte	0x173
 2274 0ae9 31       		.uleb128 0x31
 2275 0aea 12070000 		.4byte	0x712
 2276 0aee 08000000 		.4byte	.LBB132
 2277 0af2 04000000 		.4byte	.LBE132-.LBB132
 2278 0af6 09       		.byte	0x9
 2279 0af7 CF01     		.2byte	0x1cf
 2280 0af9 00       		.byte	0
ARM GAS  /tmp/cc4pbleD.s 			page 41


 2281 0afa 00       		.byte	0
 2282 0afb 00       		.byte	0
 2283 0afc 33       		.uleb128 0x33
 2284 0afd 08000000 		.4byte	.LVL24
 2285 0b01 DD080000 		.4byte	0x8dd
 2286 0b05 2E       		.uleb128 0x2e
 2287 0b06 01       		.uleb128 0x1
 2288 0b07 50       		.byte	0x50
 2289 0b08 03       		.uleb128 0x3
 2290 0b09 F3       		.byte	0xf3
 2291 0b0a 01       		.uleb128 0x1
 2292 0b0b 50       		.byte	0x50
 2293 0b0c 00       		.byte	0
 2294 0b0d 00       		.byte	0
 2295 0b0e 34       		.uleb128 0x34
 2296 0b0f A8020000 		.4byte	.LASF131
 2297 0b13 01       		.byte	0x1
 2298 0b14 FF       		.byte	0xff
 2299 0b15 4B070000 		.4byte	0x74b
 2300 0b19 00000000 		.4byte	.LFB222
 2301 0b1d 24000000 		.4byte	.LFE222-.LFB222
 2302 0b21 01       		.uleb128 0x1
 2303 0b22 9C       		.byte	0x9c
 2304 0b23 FC0B0000 		.4byte	0xbfc
 2305 0b27 25       		.uleb128 0x25
 2306 0b28 6D7000   		.ascii	"mp\000"
 2307 0b2b 01       		.byte	0x1
 2308 0b2c FF       		.byte	0xff
 2309 0b2d 03070000 		.4byte	0x703
 2310 0b31 0B020000 		.4byte	.LLST16
 2311 0b35 1B       		.uleb128 0x1b
 2312 0b36 6200     		.ascii	"b\000"
 2313 0b38 01       		.byte	0x1
 2314 0b39 0001     		.2byte	0x100
 2315 0b3b 4B070000 		.4byte	0x74b
 2316 0b3f 35       		.uleb128 0x35
 2317 0b40 CA070000 		.4byte	0x7ca
 2318 0b44 02000000 		.4byte	.LBB147
 2319 0b48 02000000 		.4byte	.LBE147-.LBB147
 2320 0b4c 01       		.byte	0x1
 2321 0b4d 0201     		.2byte	0x102
 2322 0b4f 750B0000 		.4byte	0xb75
 2323 0b53 30       		.uleb128 0x30
 2324 0b54 1B070000 		.4byte	0x71b
 2325 0b58 02000000 		.4byte	.LBB148
 2326 0b5c 02000000 		.4byte	.LBE148-.LBB148
 2327 0b60 0D       		.byte	0xd
 2328 0b61 5C01     		.2byte	0x15c
 2329 0b63 31       		.uleb128 0x31
 2330 0b64 09070000 		.4byte	0x709
 2331 0b68 02000000 		.4byte	.LBB149
 2332 0b6c 02000000 		.4byte	.LBE149-.LBB149
 2333 0b70 09       		.byte	0x9
 2334 0b71 C101     		.2byte	0x1c1
 2335 0b73 00       		.byte	0
 2336 0b74 00       		.byte	0
 2337 0b75 36       		.uleb128 0x36
ARM GAS  /tmp/cc4pbleD.s 			page 42


 2338 0b76 03080000 		.4byte	0x803
 2339 0b7a 04000000 		.4byte	.LBB151
 2340 0b7e 60000000 		.4byte	.Ldebug_ranges0+0x60
 2341 0b82 01       		.byte	0x1
 2342 0b83 0301     		.2byte	0x103
 2343 0b85 BE0B0000 		.4byte	0xbbe
 2344 0b89 29       		.uleb128 0x29
 2345 0b8a 14080000 		.4byte	0x814
 2346 0b8e 29020000 		.4byte	.LLST17
 2347 0b92 27       		.uleb128 0x27
 2348 0b93 60000000 		.4byte	.Ldebug_ranges0+0x60
 2349 0b97 32       		.uleb128 0x32
 2350 0b98 1F080000 		.4byte	0x81f
 2351 0b9c 2A       		.uleb128 0x2a
 2352 0b9d 0E000000 		.4byte	.LBB153
 2353 0ba1 0E000000 		.4byte	.LBE153-.LBB153
 2354 0ba5 24       		.uleb128 0x24
 2355 0ba6 14080000 		.4byte	0x814
 2356 0baa 01       		.uleb128 0x1
 2357 0bab 53       		.byte	0x53
 2358 0bac 2A       		.uleb128 0x2a
 2359 0bad 0E000000 		.4byte	.LBB154
 2360 0bb1 0E000000 		.4byte	.LBE154-.LBB154
 2361 0bb5 32       		.uleb128 0x32
 2362 0bb6 1F080000 		.4byte	0x81f
 2363 0bba 00       		.byte	0
 2364 0bbb 00       		.byte	0
 2365 0bbc 00       		.byte	0
 2366 0bbd 00       		.byte	0
 2367 0bbe 37       		.uleb128 0x37
 2368 0bbf D3070000 		.4byte	0x7d3
 2369 0bc3 0A000000 		.4byte	.LBB156
 2370 0bc7 78000000 		.4byte	.Ldebug_ranges0+0x78
 2371 0bcb 01       		.byte	0x1
 2372 0bcc 0401     		.2byte	0x104
 2373 0bce 27       		.uleb128 0x27
 2374 0bcf 78000000 		.4byte	.Ldebug_ranges0+0x78
 2375 0bd3 32       		.uleb128 0x32
 2376 0bd4 E0070000 		.4byte	0x7e0
 2377 0bd8 37       		.uleb128 0x37
 2378 0bd9 24070000 		.4byte	0x724
 2379 0bdd 0A000000 		.4byte	.LBB158
 2380 0be1 78000000 		.4byte	.Ldebug_ranges0+0x78
 2381 0be5 0D       		.byte	0xd
 2382 0be6 7301     		.2byte	0x173
 2383 0be8 38       		.uleb128 0x38
 2384 0be9 12070000 		.4byte	0x712
 2385 0bed 0A000000 		.4byte	.LBB159
 2386 0bf1 78000000 		.4byte	.Ldebug_ranges0+0x78
 2387 0bf5 09       		.byte	0x9
 2388 0bf6 CF01     		.2byte	0x1cf
 2389 0bf8 00       		.byte	0
 2390 0bf9 00       		.byte	0
 2391 0bfa 00       		.byte	0
 2392 0bfb 00       		.byte	0
 2393 0bfc 39       		.uleb128 0x39
 2394 0bfd 03080000 		.4byte	0x803
ARM GAS  /tmp/cc4pbleD.s 			page 43


 2395 0c01 00000000 		.4byte	.LFB223
 2396 0c05 20000000 		.4byte	.LFE223-.LFB223
 2397 0c09 01       		.uleb128 0x1
 2398 0c0a 9C       		.byte	0x9c
 2399 0c0b 400C0000 		.4byte	0xc40
 2400 0c0f 29       		.uleb128 0x29
 2401 0c10 14080000 		.4byte	0x814
 2402 0c14 47020000 		.4byte	.LLST18
 2403 0c18 32       		.uleb128 0x32
 2404 0c19 1F080000 		.4byte	0x81f
 2405 0c1d 2A       		.uleb128 0x2a
 2406 0c1e 0A000000 		.4byte	.LBB169
 2407 0c22 16000000 		.4byte	.LBE169-.LBB169
 2408 0c26 29       		.uleb128 0x29
 2409 0c27 14080000 		.4byte	0x814
 2410 0c2b 7B020000 		.4byte	.LLST19
 2411 0c2f 2A       		.uleb128 0x2a
 2412 0c30 0A000000 		.4byte	.LBB170
 2413 0c34 16000000 		.4byte	.LBE170-.LBB170
 2414 0c38 32       		.uleb128 0x32
 2415 0c39 1F080000 		.4byte	0x81f
 2416 0c3d 00       		.byte	0
 2417 0c3e 00       		.byte	0
 2418 0c3f 00       		.byte	0
 2419 0c40 3A       		.uleb128 0x3a
 2420 0c41 D3000000 		.4byte	.LASF122
 2421 0c45 01       		.byte	0x1
 2422 0c46 4301     		.2byte	0x143
 2423 0c48 00000000 		.4byte	.LFB224
 2424 0c4c 58000000 		.4byte	.LFE224-.LFB224
 2425 0c50 01       		.uleb128 0x1
 2426 0c51 9C       		.byte	0x9c
 2427 0c52 E30D0000 		.4byte	0xde3
 2428 0c56 3B       		.uleb128 0x3b
 2429 0c57 6D7000   		.ascii	"mp\000"
 2430 0c5a 01       		.byte	0x1
 2431 0c5b 4301     		.2byte	0x143
 2432 0c5d 03070000 		.4byte	0x703
 2433 0c61 99020000 		.4byte	.LLST20
 2434 0c65 3C       		.uleb128 0x3c
 2435 0c66 63747000 		.ascii	"ctp\000"
 2436 0c6a 01       		.byte	0x1
 2437 0c6b 4401     		.2byte	0x144
 2438 0c6d 51020000 		.4byte	0x251
 2439 0c71 D0020000 		.4byte	.LLST21
 2440 0c75 3C       		.uleb128 0x3c
 2441 0c76 6C6D7000 		.ascii	"lmp\000"
 2442 0c7a 01       		.byte	0x1
 2443 0c7b 4501     		.2byte	0x145
 2444 0c7d 03070000 		.4byte	0x703
 2445 0c81 E3020000 		.4byte	.LLST22
 2446 0c85 22       		.uleb128 0x22
 2447 0c86 1C040000 		.4byte	.LASF115
 2448 0c8a E30D0000 		.4byte	0xde3
 2449 0c8e 35       		.uleb128 0x35
 2450 0c8f CA070000 		.4byte	0x7ca
 2451 0c93 06000000 		.4byte	.LBB171
ARM GAS  /tmp/cc4pbleD.s 			page 44


 2452 0c97 02000000 		.4byte	.LBE171-.LBB171
 2453 0c9b 01       		.byte	0x1
 2454 0c9c 4901     		.2byte	0x149
 2455 0c9e C40C0000 		.4byte	0xcc4
 2456 0ca2 30       		.uleb128 0x30
 2457 0ca3 1B070000 		.4byte	0x71b
 2458 0ca7 06000000 		.4byte	.LBB172
 2459 0cab 02000000 		.4byte	.LBE172-.LBB172
 2460 0caf 0D       		.byte	0xd
 2461 0cb0 5C01     		.2byte	0x15c
 2462 0cb2 31       		.uleb128 0x31
 2463 0cb3 09070000 		.4byte	0x709
 2464 0cb7 06000000 		.4byte	.LBB173
 2465 0cbb 02000000 		.4byte	.LBE173-.LBB173
 2466 0cbf 09       		.byte	0x9
 2467 0cc0 C101     		.2byte	0x1c1
 2468 0cc2 00       		.byte	0
 2469 0cc3 00       		.byte	0
 2470 0cc4 35       		.uleb128 0x35
 2471 0cc5 42080000 		.4byte	0x842
 2472 0cc9 08000000 		.4byte	.LBB175
 2473 0ccd 02000000 		.4byte	.LBE175-.LBB175
 2474 0cd1 01       		.byte	0x1
 2475 0cd2 5B01     		.2byte	0x15b
 2476 0cd4 FB0C0000 		.4byte	0xcfb
 2477 0cd8 29       		.uleb128 0x29
 2478 0cd9 52080000 		.4byte	0x852
 2479 0cdd F6020000 		.4byte	.LLST23
 2480 0ce1 23       		.uleb128 0x23
 2481 0ce2 2D070000 		.4byte	0x72d
 2482 0ce6 08000000 		.4byte	.LBB177
 2483 0cea 02000000 		.4byte	.LBE177-.LBB177
 2484 0cee 0C       		.byte	0xc
 2485 0cef 85       		.byte	0x85
 2486 0cf0 29       		.uleb128 0x29
 2487 0cf1 3E070000 		.4byte	0x73e
 2488 0cf5 F6020000 		.4byte	.LLST23
 2489 0cf9 00       		.byte	0
 2490 0cfa 00       		.byte	0
 2491 0cfb 3D       		.uleb128 0x3d
 2492 0cfc 12000000 		.4byte	.LBB179
 2493 0d00 34000000 		.4byte	.LBE179-.LBB179
 2494 0d04 A50D0000 		.4byte	0xda5
 2495 0d08 1B       		.uleb128 0x1b
 2496 0d09 747000   		.ascii	"tp\000"
 2497 0d0c 01       		.byte	0x1
 2498 0d0d 5C01     		.2byte	0x15c
 2499 0d0f 51020000 		.4byte	0x251
 2500 0d13 3E       		.uleb128 0x3e
 2501 0d14 7E020000 		.4byte	.LASF123
 2502 0d18 01       		.byte	0x1
 2503 0d19 6001     		.2byte	0x160
 2504 0d1b FF000000 		.4byte	0xff
 2505 0d1f 2D030000 		.4byte	.LLST25
 2506 0d23 35       		.uleb128 0x35
 2507 0d24 42080000 		.4byte	0x842
 2508 0d28 16000000 		.4byte	.LBB180
ARM GAS  /tmp/cc4pbleD.s 			page 45


 2509 0d2c 02000000 		.4byte	.LBE180-.LBB180
 2510 0d30 01       		.byte	0x1
 2511 0d31 6601     		.2byte	0x166
 2512 0d33 5A0D0000 		.4byte	0xd5a
 2513 0d37 29       		.uleb128 0x29
 2514 0d38 52080000 		.4byte	0x852
 2515 0d3c 40030000 		.4byte	.LLST26
 2516 0d40 23       		.uleb128 0x23
 2517 0d41 2D070000 		.4byte	0x72d
 2518 0d45 16000000 		.4byte	.LBB182
 2519 0d49 02000000 		.4byte	.LBE182-.LBB182
 2520 0d4d 0C       		.byte	0xc
 2521 0d4e 85       		.byte	0x85
 2522 0d4f 29       		.uleb128 0x29
 2523 0d50 3E070000 		.4byte	0x73e
 2524 0d54 40030000 		.4byte	.LLST26
 2525 0d58 00       		.byte	0
 2526 0d59 00       		.byte	0
 2527 0d5a 36       		.uleb128 0x36
 2528 0d5b 5D080000 		.4byte	0x85d
 2529 0d5f 2C000000 		.4byte	.LBB184
 2530 0d63 90000000 		.4byte	.Ldebug_ranges0+0x90
 2531 0d67 01       		.byte	0x1
 2532 0d68 7601     		.2byte	0x176
 2533 0d6a 870D0000 		.4byte	0xd87
 2534 0d6e 29       		.uleb128 0x29
 2535 0d6f 6E080000 		.4byte	0x86e
 2536 0d73 53030000 		.4byte	.LLST28
 2537 0d77 27       		.uleb128 0x27
 2538 0d78 90000000 		.4byte	.Ldebug_ranges0+0x90
 2539 0d7c 2B       		.uleb128 0x2b
 2540 0d7d 7A080000 		.4byte	0x87a
 2541 0d81 74030000 		.4byte	.LLST29
 2542 0d85 00       		.byte	0
 2543 0d86 00       		.byte	0
 2544 0d87 3F       		.uleb128 0x3f
 2545 0d88 42000000 		.4byte	.LVL43
 2546 0d8c 7C100000 		.4byte	0x107c
 2547 0d90 9B0D0000 		.4byte	0xd9b
 2548 0d94 2E       		.uleb128 0x2e
 2549 0d95 01       		.uleb128 0x1
 2550 0d96 50       		.byte	0x50
 2551 0d97 02       		.uleb128 0x2
 2552 0d98 74       		.byte	0x74
 2553 0d99 00       		.sleb128 0
 2554 0d9a 00       		.byte	0
 2555 0d9b 2F       		.uleb128 0x2f
 2556 0d9c 46000000 		.4byte	.LVL44
 2557 0da0 92100000 		.4byte	0x1092
 2558 0da4 00       		.byte	0
 2559 0da5 37       		.uleb128 0x37
 2560 0da6 D3070000 		.4byte	0x7d3
 2561 0daa 46000000 		.4byte	.LBB188
 2562 0dae A8000000 		.4byte	.Ldebug_ranges0+0xa8
 2563 0db2 01       		.byte	0x1
 2564 0db3 8901     		.2byte	0x189
 2565 0db5 27       		.uleb128 0x27
ARM GAS  /tmp/cc4pbleD.s 			page 46


 2566 0db6 A8000000 		.4byte	.Ldebug_ranges0+0xa8
 2567 0dba 32       		.uleb128 0x32
 2568 0dbb E0070000 		.4byte	0x7e0
 2569 0dbf 37       		.uleb128 0x37
 2570 0dc0 24070000 		.4byte	0x724
 2571 0dc4 46000000 		.4byte	.LBB190
 2572 0dc8 A8000000 		.4byte	.Ldebug_ranges0+0xa8
 2573 0dcc 0D       		.byte	0xd
 2574 0dcd 7301     		.2byte	0x173
 2575 0dcf 38       		.uleb128 0x38
 2576 0dd0 12070000 		.4byte	0x712
 2577 0dd4 46000000 		.4byte	.LBB191
 2578 0dd8 A8000000 		.4byte	.Ldebug_ranges0+0xa8
 2579 0ddc 09       		.byte	0x9
 2580 0ddd CF01     		.2byte	0x1cf
 2581 0ddf 00       		.byte	0
 2582 0de0 00       		.byte	0
 2583 0de1 00       		.byte	0
 2584 0de2 00       		.byte	0
 2585 0de3 14       		.uleb128 0x14
 2586 0de4 EE070000 		.4byte	0x7ee
 2587 0de8 3A       		.uleb128 0x3a
 2588 0de9 F6010000 		.4byte	.LASF124
 2589 0ded 01       		.byte	0x1
 2590 0dee 9A01     		.2byte	0x19a
 2591 0df0 00000000 		.4byte	.LFB225
 2592 0df4 50000000 		.4byte	.LFE225-.LFB225
 2593 0df8 01       		.uleb128 0x1
 2594 0df9 9C       		.byte	0x9c
 2595 0dfa FC0E0000 		.4byte	0xefc
 2596 0dfe 3B       		.uleb128 0x3b
 2597 0dff 6D7000   		.ascii	"mp\000"
 2598 0e02 01       		.byte	0x1
 2599 0e03 9A01     		.2byte	0x19a
 2600 0e05 03070000 		.4byte	0x703
 2601 0e09 87030000 		.4byte	.LLST30
 2602 0e0d 3C       		.uleb128 0x3c
 2603 0e0e 63747000 		.ascii	"ctp\000"
 2604 0e12 01       		.byte	0x1
 2605 0e13 9B01     		.2byte	0x19b
 2606 0e15 51020000 		.4byte	0x251
 2607 0e19 D8030000 		.4byte	.LLST31
 2608 0e1d 3C       		.uleb128 0x3c
 2609 0e1e 6C6D7000 		.ascii	"lmp\000"
 2610 0e22 01       		.byte	0x1
 2611 0e23 9C01     		.2byte	0x19c
 2612 0e25 03070000 		.4byte	0x703
 2613 0e29 F6030000 		.4byte	.LLST32
 2614 0e2d 22       		.uleb128 0x22
 2615 0e2e 1C040000 		.4byte	.LASF115
 2616 0e32 0C0F0000 		.4byte	0xf0c
 2617 0e36 35       		.uleb128 0x35
 2618 0e37 42080000 		.4byte	0x842
 2619 0e3b 06000000 		.4byte	.LBB198
 2620 0e3f 02000000 		.4byte	.LBE198-.LBB198
 2621 0e43 01       		.byte	0x1
 2622 0e44 B101     		.2byte	0x1b1
ARM GAS  /tmp/cc4pbleD.s 			page 47


 2623 0e46 6D0E0000 		.4byte	0xe6d
 2624 0e4a 29       		.uleb128 0x29
 2625 0e4b 52080000 		.4byte	0x852
 2626 0e4f 09040000 		.4byte	.LLST33
 2627 0e53 23       		.uleb128 0x23
 2628 0e54 2D070000 		.4byte	0x72d
 2629 0e58 06000000 		.4byte	.LBB200
 2630 0e5c 02000000 		.4byte	.LBE200-.LBB200
 2631 0e60 0C       		.byte	0xc
 2632 0e61 85       		.byte	0x85
 2633 0e62 29       		.uleb128 0x29
 2634 0e63 3E070000 		.4byte	0x73e
 2635 0e67 09040000 		.4byte	.LLST33
 2636 0e6b 00       		.byte	0
 2637 0e6c 00       		.byte	0
 2638 0e6d 27       		.uleb128 0x27
 2639 0e6e C0000000 		.4byte	.Ldebug_ranges0+0xc0
 2640 0e72 1B       		.uleb128 0x1b
 2641 0e73 747000   		.ascii	"tp\000"
 2642 0e76 01       		.byte	0x1
 2643 0e77 B201     		.2byte	0x1b2
 2644 0e79 51020000 		.4byte	0x251
 2645 0e7d 3E       		.uleb128 0x3e
 2646 0e7e 7E020000 		.4byte	.LASF123
 2647 0e82 01       		.byte	0x1
 2648 0e83 B601     		.2byte	0x1b6
 2649 0e85 FF000000 		.4byte	0xff
 2650 0e89 4F040000 		.4byte	.LLST35
 2651 0e8d 35       		.uleb128 0x35
 2652 0e8e 42080000 		.4byte	0x842
 2653 0e92 16000000 		.4byte	.LBB203
 2654 0e96 02000000 		.4byte	.LBE203-.LBB203
 2655 0e9a 01       		.byte	0x1
 2656 0e9b BC01     		.2byte	0x1bc
 2657 0e9d C40E0000 		.4byte	0xec4
 2658 0ea1 29       		.uleb128 0x29
 2659 0ea2 52080000 		.4byte	0x852
 2660 0ea6 62040000 		.4byte	.LLST36
 2661 0eaa 23       		.uleb128 0x23
 2662 0eab 2D070000 		.4byte	0x72d
 2663 0eaf 16000000 		.4byte	.LBB205
 2664 0eb3 02000000 		.4byte	.LBE205-.LBB205
 2665 0eb7 0C       		.byte	0xc
 2666 0eb8 85       		.byte	0x85
 2667 0eb9 29       		.uleb128 0x29
 2668 0eba 3E070000 		.4byte	0x73e
 2669 0ebe 62040000 		.4byte	.LLST36
 2670 0ec2 00       		.byte	0
 2671 0ec3 00       		.byte	0
 2672 0ec4 36       		.uleb128 0x36
 2673 0ec5 5D080000 		.4byte	0x85d
 2674 0ec9 2A000000 		.4byte	.LBB207
 2675 0ecd D8000000 		.4byte	.Ldebug_ranges0+0xd8
 2676 0ed1 01       		.byte	0x1
 2677 0ed2 CC01     		.2byte	0x1cc
 2678 0ed4 F10E0000 		.4byte	0xef1
 2679 0ed8 29       		.uleb128 0x29
ARM GAS  /tmp/cc4pbleD.s 			page 48


 2680 0ed9 6E080000 		.4byte	0x86e
 2681 0edd 75040000 		.4byte	.LLST38
 2682 0ee1 27       		.uleb128 0x27
 2683 0ee2 D8000000 		.4byte	.Ldebug_ranges0+0xd8
 2684 0ee6 2B       		.uleb128 0x2b
 2685 0ee7 7A080000 		.4byte	0x87a
 2686 0eeb A2040000 		.4byte	.LLST39
 2687 0eef 00       		.byte	0
 2688 0ef0 00       		.byte	0
 2689 0ef1 40       		.uleb128 0x40
 2690 0ef2 42000000 		.4byte	.LVL58
 2691 0ef6 7C100000 		.4byte	0x107c
 2692 0efa 00       		.byte	0
 2693 0efb 00       		.byte	0
 2694 0efc 15       		.uleb128 0x15
 2695 0efd D1060000 		.4byte	0x6d1
 2696 0f01 0C0F0000 		.4byte	0xf0c
 2697 0f05 16       		.uleb128 0x16
 2698 0f06 64040000 		.4byte	0x464
 2699 0f0a 0C       		.byte	0xc
 2700 0f0b 00       		.byte	0
 2701 0f0c 14       		.uleb128 0x14
 2702 0f0d FC0E0000 		.4byte	0xefc
 2703 0f11 3A       		.uleb128 0x3a
 2704 0f12 6F020000 		.4byte	.LASF125
 2705 0f16 01       		.byte	0x1
 2706 0f17 E501     		.2byte	0x1e5
 2707 0f19 00000000 		.4byte	.LFB226
 2708 0f1d 4C000000 		.4byte	.LFE226-.LFB226
 2709 0f21 01       		.uleb128 0x1
 2710 0f22 9C       		.byte	0x9c
 2711 0f23 53100000 		.4byte	0x1053
 2712 0f27 3C       		.uleb128 0x3c
 2713 0f28 63747000 		.ascii	"ctp\000"
 2714 0f2c 01       		.byte	0x1
 2715 0f2d E601     		.2byte	0x1e6
 2716 0f2f 51020000 		.4byte	0x251
 2717 0f33 C0040000 		.4byte	.LLST40
 2718 0f37 35       		.uleb128 0x35
 2719 0f38 CA070000 		.4byte	0x7ca
 2720 0f3c 06000000 		.4byte	.LBB214
 2721 0f40 02000000 		.4byte	.LBE214-.LBB214
 2722 0f44 01       		.byte	0x1
 2723 0f45 E801     		.2byte	0x1e8
 2724 0f47 6D0F0000 		.4byte	0xf6d
 2725 0f4b 30       		.uleb128 0x30
 2726 0f4c 1B070000 		.4byte	0x71b
 2727 0f50 06000000 		.4byte	.LBB215
 2728 0f54 02000000 		.4byte	.LBE215-.LBB215
 2729 0f58 0D       		.byte	0xd
 2730 0f59 5C01     		.2byte	0x15c
 2731 0f5b 31       		.uleb128 0x31
 2732 0f5c 09070000 		.4byte	0x709
 2733 0f60 06000000 		.4byte	.LBB216
 2734 0f64 02000000 		.4byte	.LBE216-.LBB216
 2735 0f68 09       		.byte	0x9
 2736 0f69 C101     		.2byte	0x1c1
ARM GAS  /tmp/cc4pbleD.s 			page 49


 2737 0f6b 00       		.byte	0
 2738 0f6c 00       		.byte	0
 2739 0f6d 41       		.uleb128 0x41
 2740 0f6e F8000000 		.4byte	.Ldebug_ranges0+0xf8
 2741 0f72 04100000 		.4byte	0x1004
 2742 0f76 3C       		.uleb128 0x3c
 2743 0f77 6D7000   		.ascii	"mp\000"
 2744 0f7a 01       		.byte	0x1
 2745 0f7b EB01     		.2byte	0x1eb
 2746 0f7d 03070000 		.4byte	0x703
 2747 0f81 D3040000 		.4byte	.LLST41
 2748 0f85 41       		.uleb128 0x41
 2749 0f86 10010000 		.4byte	.Ldebug_ranges0+0x110
 2750 0f8a D00F0000 		.4byte	0xfd0
 2751 0f8e 1B       		.uleb128 0x1b
 2752 0f8f 747000   		.ascii	"tp\000"
 2753 0f92 01       		.byte	0x1
 2754 0f93 F101     		.2byte	0x1f1
 2755 0f95 51020000 		.4byte	0x251
 2756 0f99 36       		.uleb128 0x36
 2757 0f9a 5D080000 		.4byte	0x85d
 2758 0f9e 10000000 		.4byte	.LBB220
 2759 0fa2 28010000 		.4byte	.Ldebug_ranges0+0x128
 2760 0fa6 01       		.byte	0x1
 2761 0fa7 F101     		.2byte	0x1f1
 2762 0fa9 C60F0000 		.4byte	0xfc6
 2763 0fad 29       		.uleb128 0x29
 2764 0fae 6E080000 		.4byte	0x86e
 2765 0fb2 D3040000 		.4byte	.LLST41
 2766 0fb6 27       		.uleb128 0x27
 2767 0fb7 28010000 		.4byte	.Ldebug_ranges0+0x128
 2768 0fbb 2B       		.uleb128 0x2b
 2769 0fbc 7A080000 		.4byte	0x87a
 2770 0fc0 F1040000 		.4byte	.LLST43
 2771 0fc4 00       		.byte	0
 2772 0fc5 00       		.byte	0
 2773 0fc6 2F       		.uleb128 0x2f
 2774 0fc7 22000000 		.4byte	.LVL62
 2775 0fcb 7C100000 		.4byte	0x107c
 2776 0fcf 00       		.byte	0
 2777 0fd0 30       		.uleb128 0x30
 2778 0fd1 42080000 		.4byte	0x842
 2779 0fd5 26000000 		.4byte	.LBB224
 2780 0fd9 02000000 		.4byte	.LBE224-.LBB224
 2781 0fdd 01       		.byte	0x1
 2782 0fde ED01     		.2byte	0x1ed
 2783 0fe0 29       		.uleb128 0x29
 2784 0fe1 52080000 		.4byte	0x852
 2785 0fe5 0F050000 		.4byte	.LLST44
 2786 0fe9 23       		.uleb128 0x23
 2787 0fea 2D070000 		.4byte	0x72d
 2788 0fee 26000000 		.4byte	.LBB226
 2789 0ff2 02000000 		.4byte	.LBE226-.LBB226
 2790 0ff6 0C       		.byte	0xc
 2791 0ff7 85       		.byte	0x85
 2792 0ff8 29       		.uleb128 0x29
 2793 0ff9 3E070000 		.4byte	0x73e
ARM GAS  /tmp/cc4pbleD.s 			page 50


 2794 0ffd 0F050000 		.4byte	.LLST44
 2795 1001 00       		.byte	0
 2796 1002 00       		.byte	0
 2797 1003 00       		.byte	0
 2798 1004 35       		.uleb128 0x35
 2799 1005 D3070000 		.4byte	0x7d3
 2800 1009 42000000 		.4byte	.LBB230
 2801 100d 0A000000 		.4byte	.LBE230-.LBB230
 2802 1011 01       		.byte	0x1
 2803 1012 0102     		.2byte	0x201
 2804 1014 49100000 		.4byte	0x1049
 2805 1018 2A       		.uleb128 0x2a
 2806 1019 42000000 		.4byte	.LBB231
 2807 101d 0A000000 		.4byte	.LBE231-.LBB231
 2808 1021 32       		.uleb128 0x32
 2809 1022 E0070000 		.4byte	0x7e0
 2810 1026 30       		.uleb128 0x30
 2811 1027 24070000 		.4byte	0x724
 2812 102b 42000000 		.4byte	.LBB232
 2813 102f 0A000000 		.4byte	.LBE232-.LBB232
 2814 1033 0D       		.byte	0xd
 2815 1034 7301     		.2byte	0x173
 2816 1036 31       		.uleb128 0x31
 2817 1037 12070000 		.4byte	0x712
 2818 103b 42000000 		.4byte	.LBB233
 2819 103f 0A000000 		.4byte	.LBE233-.LBB233
 2820 1043 09       		.byte	0x9
 2821 1044 CF01     		.2byte	0x1cf
 2822 1046 00       		.byte	0
 2823 1047 00       		.byte	0
 2824 1048 00       		.byte	0
 2825 1049 2F       		.uleb128 0x2f
 2826 104a 42000000 		.4byte	.LVL68
 2827 104e 92100000 		.4byte	0x1092
 2828 1052 00       		.byte	0
 2829 1053 42       		.uleb128 0x42
 2830 1054 A6000000 		.4byte	.LASF126
 2831 1058 0E       		.byte	0xe
 2832 1059 A706     		.2byte	0x6a7
 2833 105b C3000000 		.4byte	0xc3
 2834 105f 43       		.uleb128 0x43
 2835 1060 636800   		.ascii	"ch\000"
 2836 1063 02       		.byte	0x2
 2837 1064 0902     		.2byte	0x209
 2838 1066 FD030000 		.4byte	0x3fd
 2839 106a 44       		.uleb128 0x44
 2840 106b 4D040000 		.4byte	.LASF132
 2841 106f 02       		.byte	0x2
 2842 1070 1402     		.2byte	0x214
 2843 1072 7C100000 		.4byte	0x107c
 2844 1076 0D       		.uleb128 0xd
 2845 1077 DE000000 		.4byte	0xde
 2846 107b 00       		.byte	0
 2847 107c 45       		.uleb128 0x45
 2848 107d 7E040000 		.4byte	.LASF127
 2849 1081 02       		.byte	0x2
 2850 1082 1302     		.2byte	0x213
ARM GAS  /tmp/cc4pbleD.s 			page 51


 2851 1084 51020000 		.4byte	0x251
 2852 1088 92100000 		.4byte	0x1092
 2853 108c 0D       		.uleb128 0xd
 2854 108d 51020000 		.4byte	0x251
 2855 1091 00       		.byte	0
 2856 1092 46       		.uleb128 0x46
 2857 1093 A9010000 		.4byte	.LASF133
 2858 1097 02       		.byte	0x2
 2859 1098 1702     		.2byte	0x217
 2860 109a 00       		.byte	0
 2861              		.section	.debug_abbrev,"",%progbits
 2862              	.Ldebug_abbrev0:
 2863 0000 01       		.uleb128 0x1
 2864 0001 11       		.uleb128 0x11
 2865 0002 01       		.byte	0x1
 2866 0003 25       		.uleb128 0x25
 2867 0004 0E       		.uleb128 0xe
 2868 0005 13       		.uleb128 0x13
 2869 0006 0B       		.uleb128 0xb
 2870 0007 03       		.uleb128 0x3
 2871 0008 0E       		.uleb128 0xe
 2872 0009 1B       		.uleb128 0x1b
 2873 000a 0E       		.uleb128 0xe
 2874 000b 55       		.uleb128 0x55
 2875 000c 17       		.uleb128 0x17
 2876 000d 11       		.uleb128 0x11
 2877 000e 01       		.uleb128 0x1
 2878 000f 10       		.uleb128 0x10
 2879 0010 17       		.uleb128 0x17
 2880 0011 00       		.byte	0
 2881 0012 00       		.byte	0
 2882 0013 02       		.uleb128 0x2
 2883 0014 24       		.uleb128 0x24
 2884 0015 00       		.byte	0
 2885 0016 0B       		.uleb128 0xb
 2886 0017 0B       		.uleb128 0xb
 2887 0018 3E       		.uleb128 0x3e
 2888 0019 0B       		.uleb128 0xb
 2889 001a 03       		.uleb128 0x3
 2890 001b 08       		.uleb128 0x8
 2891 001c 00       		.byte	0
 2892 001d 00       		.byte	0
 2893 001e 03       		.uleb128 0x3
 2894 001f 24       		.uleb128 0x24
 2895 0020 00       		.byte	0
 2896 0021 0B       		.uleb128 0xb
 2897 0022 0B       		.uleb128 0xb
 2898 0023 3E       		.uleb128 0x3e
 2899 0024 0B       		.uleb128 0xb
 2900 0025 03       		.uleb128 0x3
 2901 0026 0E       		.uleb128 0xe
 2902 0027 00       		.byte	0
 2903 0028 00       		.byte	0
 2904 0029 04       		.uleb128 0x4
 2905 002a 16       		.uleb128 0x16
 2906 002b 00       		.byte	0
 2907 002c 03       		.uleb128 0x3
ARM GAS  /tmp/cc4pbleD.s 			page 52


 2908 002d 0E       		.uleb128 0xe
 2909 002e 3A       		.uleb128 0x3a
 2910 002f 0B       		.uleb128 0xb
 2911 0030 3B       		.uleb128 0x3b
 2912 0031 0B       		.uleb128 0xb
 2913 0032 49       		.uleb128 0x49
 2914 0033 13       		.uleb128 0x13
 2915 0034 00       		.byte	0
 2916 0035 00       		.byte	0
 2917 0036 05       		.uleb128 0x5
 2918 0037 35       		.uleb128 0x35
 2919 0038 00       		.byte	0
 2920 0039 49       		.uleb128 0x49
 2921 003a 13       		.uleb128 0x13
 2922 003b 00       		.byte	0
 2923 003c 00       		.byte	0
 2924 003d 06       		.uleb128 0x6
 2925 003e 13       		.uleb128 0x13
 2926 003f 01       		.byte	0x1
 2927 0040 03       		.uleb128 0x3
 2928 0041 0E       		.uleb128 0xe
 2929 0042 0B       		.uleb128 0xb
 2930 0043 0B       		.uleb128 0xb
 2931 0044 3A       		.uleb128 0x3a
 2932 0045 0B       		.uleb128 0xb
 2933 0046 3B       		.uleb128 0x3b
 2934 0047 0B       		.uleb128 0xb
 2935 0048 01       		.uleb128 0x1
 2936 0049 13       		.uleb128 0x13
 2937 004a 00       		.byte	0
 2938 004b 00       		.byte	0
 2939 004c 07       		.uleb128 0x7
 2940 004d 0D       		.uleb128 0xd
 2941 004e 00       		.byte	0
 2942 004f 03       		.uleb128 0x3
 2943 0050 0E       		.uleb128 0xe
 2944 0051 3A       		.uleb128 0x3a
 2945 0052 0B       		.uleb128 0xb
 2946 0053 3B       		.uleb128 0x3b
 2947 0054 0B       		.uleb128 0xb
 2948 0055 49       		.uleb128 0x49
 2949 0056 13       		.uleb128 0x13
 2950 0057 38       		.uleb128 0x38
 2951 0058 0B       		.uleb128 0xb
 2952 0059 00       		.byte	0
 2953 005a 00       		.byte	0
 2954 005b 08       		.uleb128 0x8
 2955 005c 0D       		.uleb128 0xd
 2956 005d 00       		.byte	0
 2957 005e 03       		.uleb128 0x3
 2958 005f 08       		.uleb128 0x8
 2959 0060 3A       		.uleb128 0x3a
 2960 0061 0B       		.uleb128 0xb
 2961 0062 3B       		.uleb128 0x3b
 2962 0063 05       		.uleb128 0x5
 2963 0064 49       		.uleb128 0x49
 2964 0065 13       		.uleb128 0x13
ARM GAS  /tmp/cc4pbleD.s 			page 53


 2965 0066 38       		.uleb128 0x38
 2966 0067 0B       		.uleb128 0xb
 2967 0068 00       		.byte	0
 2968 0069 00       		.byte	0
 2969 006a 09       		.uleb128 0x9
 2970 006b 0D       		.uleb128 0xd
 2971 006c 00       		.byte	0
 2972 006d 03       		.uleb128 0x3
 2973 006e 0E       		.uleb128 0xe
 2974 006f 3A       		.uleb128 0x3a
 2975 0070 0B       		.uleb128 0xb
 2976 0071 3B       		.uleb128 0x3b
 2977 0072 05       		.uleb128 0x5
 2978 0073 49       		.uleb128 0x49
 2979 0074 13       		.uleb128 0x13
 2980 0075 38       		.uleb128 0x38
 2981 0076 0B       		.uleb128 0xb
 2982 0077 00       		.byte	0
 2983 0078 00       		.byte	0
 2984 0079 0A       		.uleb128 0xa
 2985 007a 0F       		.uleb128 0xf
 2986 007b 00       		.byte	0
 2987 007c 0B       		.uleb128 0xb
 2988 007d 0B       		.uleb128 0xb
 2989 007e 49       		.uleb128 0x49
 2990 007f 13       		.uleb128 0x13
 2991 0080 00       		.byte	0
 2992 0081 00       		.byte	0
 2993 0082 0B       		.uleb128 0xb
 2994 0083 13       		.uleb128 0x13
 2995 0084 01       		.byte	0x1
 2996 0085 03       		.uleb128 0x3
 2997 0086 0E       		.uleb128 0xe
 2998 0087 0B       		.uleb128 0xb
 2999 0088 0B       		.uleb128 0xb
 3000 0089 3A       		.uleb128 0x3a
 3001 008a 0B       		.uleb128 0xb
 3002 008b 3B       		.uleb128 0x3b
 3003 008c 05       		.uleb128 0x5
 3004 008d 01       		.uleb128 0x1
 3005 008e 13       		.uleb128 0x13
 3006 008f 00       		.byte	0
 3007 0090 00       		.byte	0
 3008 0091 0C       		.uleb128 0xc
 3009 0092 15       		.uleb128 0x15
 3010 0093 01       		.byte	0x1
 3011 0094 27       		.uleb128 0x27
 3012 0095 19       		.uleb128 0x19
 3013 0096 01       		.uleb128 0x1
 3014 0097 13       		.uleb128 0x13
 3015 0098 00       		.byte	0
 3016 0099 00       		.byte	0
 3017 009a 0D       		.uleb128 0xd
 3018 009b 05       		.uleb128 0x5
 3019 009c 00       		.byte	0
 3020 009d 49       		.uleb128 0x49
 3021 009e 13       		.uleb128 0x13
ARM GAS  /tmp/cc4pbleD.s 			page 54


 3022 009f 00       		.byte	0
 3023 00a0 00       		.byte	0
 3024 00a1 0E       		.uleb128 0xe
 3025 00a2 0F       		.uleb128 0xf
 3026 00a3 00       		.byte	0
 3027 00a4 0B       		.uleb128 0xb
 3028 00a5 0B       		.uleb128 0xb
 3029 00a6 00       		.byte	0
 3030 00a7 00       		.byte	0
 3031 00a8 0F       		.uleb128 0xf
 3032 00a9 13       		.uleb128 0x13
 3033 00aa 01       		.byte	0x1
 3034 00ab 03       		.uleb128 0x3
 3035 00ac 0E       		.uleb128 0xe
 3036 00ad 0B       		.uleb128 0xb
 3037 00ae 05       		.uleb128 0x5
 3038 00af 3A       		.uleb128 0x3a
 3039 00b0 0B       		.uleb128 0xb
 3040 00b1 3B       		.uleb128 0x3b
 3041 00b2 05       		.uleb128 0x5
 3042 00b3 01       		.uleb128 0x1
 3043 00b4 13       		.uleb128 0x13
 3044 00b5 00       		.byte	0
 3045 00b6 00       		.byte	0
 3046 00b7 10       		.uleb128 0x10
 3047 00b8 0D       		.uleb128 0xd
 3048 00b9 00       		.byte	0
 3049 00ba 03       		.uleb128 0x3
 3050 00bb 08       		.uleb128 0x8
 3051 00bc 3A       		.uleb128 0x3a
 3052 00bd 0B       		.uleb128 0xb
 3053 00be 3B       		.uleb128 0x3b
 3054 00bf 0B       		.uleb128 0xb
 3055 00c0 49       		.uleb128 0x49
 3056 00c1 13       		.uleb128 0x13
 3057 00c2 38       		.uleb128 0x38
 3058 00c3 0B       		.uleb128 0xb
 3059 00c4 00       		.byte	0
 3060 00c5 00       		.byte	0
 3061 00c6 11       		.uleb128 0x11
 3062 00c7 13       		.uleb128 0x13
 3063 00c8 01       		.byte	0x1
 3064 00c9 0B       		.uleb128 0xb
 3065 00ca 0B       		.uleb128 0xb
 3066 00cb 3A       		.uleb128 0x3a
 3067 00cc 0B       		.uleb128 0xb
 3068 00cd 3B       		.uleb128 0x3b
 3069 00ce 0B       		.uleb128 0xb
 3070 00cf 01       		.uleb128 0x1
 3071 00d0 13       		.uleb128 0x13
 3072 00d1 00       		.byte	0
 3073 00d2 00       		.byte	0
 3074 00d3 12       		.uleb128 0x12
 3075 00d4 17       		.uleb128 0x17
 3076 00d5 01       		.byte	0x1
 3077 00d6 0B       		.uleb128 0xb
 3078 00d7 0B       		.uleb128 0xb
ARM GAS  /tmp/cc4pbleD.s 			page 55


 3079 00d8 3A       		.uleb128 0x3a
 3080 00d9 0B       		.uleb128 0xb
 3081 00da 3B       		.uleb128 0x3b
 3082 00db 0B       		.uleb128 0xb
 3083 00dc 01       		.uleb128 0x1
 3084 00dd 13       		.uleb128 0x13
 3085 00de 00       		.byte	0
 3086 00df 00       		.byte	0
 3087 00e0 13       		.uleb128 0x13
 3088 00e1 0D       		.uleb128 0xd
 3089 00e2 00       		.byte	0
 3090 00e3 03       		.uleb128 0x3
 3091 00e4 0E       		.uleb128 0xe
 3092 00e5 3A       		.uleb128 0x3a
 3093 00e6 0B       		.uleb128 0xb
 3094 00e7 3B       		.uleb128 0x3b
 3095 00e8 05       		.uleb128 0x5
 3096 00e9 49       		.uleb128 0x49
 3097 00ea 13       		.uleb128 0x13
 3098 00eb 00       		.byte	0
 3099 00ec 00       		.byte	0
 3100 00ed 14       		.uleb128 0x14
 3101 00ee 26       		.uleb128 0x26
 3102 00ef 00       		.byte	0
 3103 00f0 49       		.uleb128 0x49
 3104 00f1 13       		.uleb128 0x13
 3105 00f2 00       		.byte	0
 3106 00f3 00       		.byte	0
 3107 00f4 15       		.uleb128 0x15
 3108 00f5 01       		.uleb128 0x1
 3109 00f6 01       		.byte	0x1
 3110 00f7 49       		.uleb128 0x49
 3111 00f8 13       		.uleb128 0x13
 3112 00f9 01       		.uleb128 0x1
 3113 00fa 13       		.uleb128 0x13
 3114 00fb 00       		.byte	0
 3115 00fc 00       		.byte	0
 3116 00fd 16       		.uleb128 0x16
 3117 00fe 21       		.uleb128 0x21
 3118 00ff 00       		.byte	0
 3119 0100 49       		.uleb128 0x49
 3120 0101 13       		.uleb128 0x13
 3121 0102 2F       		.uleb128 0x2f
 3122 0103 0B       		.uleb128 0xb
 3123 0104 00       		.byte	0
 3124 0105 00       		.byte	0
 3125 0106 17       		.uleb128 0x17
 3126 0107 2E       		.uleb128 0x2e
 3127 0108 00       		.byte	0
 3128 0109 03       		.uleb128 0x3
 3129 010a 0E       		.uleb128 0xe
 3130 010b 3A       		.uleb128 0x3a
 3131 010c 0B       		.uleb128 0xb
 3132 010d 3B       		.uleb128 0x3b
 3133 010e 05       		.uleb128 0x5
 3134 010f 27       		.uleb128 0x27
 3135 0110 19       		.uleb128 0x19
ARM GAS  /tmp/cc4pbleD.s 			page 56


 3136 0111 20       		.uleb128 0x20
 3137 0112 0B       		.uleb128 0xb
 3138 0113 00       		.byte	0
 3139 0114 00       		.byte	0
 3140 0115 18       		.uleb128 0x18
 3141 0116 2E       		.uleb128 0x2e
 3142 0117 01       		.byte	0x1
 3143 0118 03       		.uleb128 0x3
 3144 0119 0E       		.uleb128 0xe
 3145 011a 3A       		.uleb128 0x3a
 3146 011b 0B       		.uleb128 0xb
 3147 011c 3B       		.uleb128 0x3b
 3148 011d 05       		.uleb128 0x5
 3149 011e 27       		.uleb128 0x27
 3150 011f 19       		.uleb128 0x19
 3151 0120 49       		.uleb128 0x49
 3152 0121 13       		.uleb128 0x13
 3153 0122 20       		.uleb128 0x20
 3154 0123 0B       		.uleb128 0xb
 3155 0124 01       		.uleb128 0x1
 3156 0125 13       		.uleb128 0x13
 3157 0126 00       		.byte	0
 3158 0127 00       		.byte	0
 3159 0128 19       		.uleb128 0x19
 3160 0129 05       		.uleb128 0x5
 3161 012a 00       		.byte	0
 3162 012b 03       		.uleb128 0x3
 3163 012c 08       		.uleb128 0x8
 3164 012d 3A       		.uleb128 0x3a
 3165 012e 0B       		.uleb128 0xb
 3166 012f 3B       		.uleb128 0x3b
 3167 0130 05       		.uleb128 0x5
 3168 0131 49       		.uleb128 0x49
 3169 0132 13       		.uleb128 0x13
 3170 0133 00       		.byte	0
 3171 0134 00       		.byte	0
 3172 0135 1A       		.uleb128 0x1a
 3173 0136 2E       		.uleb128 0x2e
 3174 0137 01       		.byte	0x1
 3175 0138 03       		.uleb128 0x3
 3176 0139 0E       		.uleb128 0xe
 3177 013a 3A       		.uleb128 0x3a
 3178 013b 0B       		.uleb128 0xb
 3179 013c 3B       		.uleb128 0x3b
 3180 013d 05       		.uleb128 0x5
 3181 013e 27       		.uleb128 0x27
 3182 013f 19       		.uleb128 0x19
 3183 0140 20       		.uleb128 0x20
 3184 0141 0B       		.uleb128 0xb
 3185 0142 01       		.uleb128 0x1
 3186 0143 13       		.uleb128 0x13
 3187 0144 00       		.byte	0
 3188 0145 00       		.byte	0
 3189 0146 1B       		.uleb128 0x1b
 3190 0147 34       		.uleb128 0x34
 3191 0148 00       		.byte	0
 3192 0149 03       		.uleb128 0x3
ARM GAS  /tmp/cc4pbleD.s 			page 57


 3193 014a 08       		.uleb128 0x8
 3194 014b 3A       		.uleb128 0x3a
 3195 014c 0B       		.uleb128 0xb
 3196 014d 3B       		.uleb128 0x3b
 3197 014e 05       		.uleb128 0x5
 3198 014f 49       		.uleb128 0x49
 3199 0150 13       		.uleb128 0x13
 3200 0151 00       		.byte	0
 3201 0152 00       		.byte	0
 3202 0153 1C       		.uleb128 0x1c
 3203 0154 34       		.uleb128 0x34
 3204 0155 00       		.byte	0
 3205 0156 03       		.uleb128 0x3
 3206 0157 0E       		.uleb128 0xe
 3207 0158 49       		.uleb128 0x49
 3208 0159 13       		.uleb128 0x13
 3209 015a 34       		.uleb128 0x34
 3210 015b 19       		.uleb128 0x19
 3211 015c 1C       		.uleb128 0x1c
 3212 015d 0E       		.uleb128 0xe
 3213 015e 00       		.byte	0
 3214 015f 00       		.byte	0
 3215 0160 1D       		.uleb128 0x1d
 3216 0161 2E       		.uleb128 0x2e
 3217 0162 01       		.byte	0x1
 3218 0163 3F       		.uleb128 0x3f
 3219 0164 19       		.uleb128 0x19
 3220 0165 03       		.uleb128 0x3
 3221 0166 0E       		.uleb128 0xe
 3222 0167 3A       		.uleb128 0x3a
 3223 0168 0B       		.uleb128 0xb
 3224 0169 3B       		.uleb128 0x3b
 3225 016a 05       		.uleb128 0x5
 3226 016b 27       		.uleb128 0x27
 3227 016c 19       		.uleb128 0x19
 3228 016d 49       		.uleb128 0x49
 3229 016e 13       		.uleb128 0x13
 3230 016f 20       		.uleb128 0x20
 3231 0170 0B       		.uleb128 0xb
 3232 0171 01       		.uleb128 0x1
 3233 0172 13       		.uleb128 0x13
 3234 0173 00       		.byte	0
 3235 0174 00       		.byte	0
 3236 0175 1E       		.uleb128 0x1e
 3237 0176 2E       		.uleb128 0x2e
 3238 0177 01       		.byte	0x1
 3239 0178 03       		.uleb128 0x3
 3240 0179 0E       		.uleb128 0xe
 3241 017a 3A       		.uleb128 0x3a
 3242 017b 0B       		.uleb128 0xb
 3243 017c 3B       		.uleb128 0x3b
 3244 017d 0B       		.uleb128 0xb
 3245 017e 27       		.uleb128 0x27
 3246 017f 19       		.uleb128 0x19
 3247 0180 49       		.uleb128 0x49
 3248 0181 13       		.uleb128 0x13
 3249 0182 20       		.uleb128 0x20
ARM GAS  /tmp/cc4pbleD.s 			page 58


 3250 0183 0B       		.uleb128 0xb
 3251 0184 01       		.uleb128 0x1
 3252 0185 13       		.uleb128 0x13
 3253 0186 00       		.byte	0
 3254 0187 00       		.byte	0
 3255 0188 1F       		.uleb128 0x1f
 3256 0189 05       		.uleb128 0x5
 3257 018a 00       		.byte	0
 3258 018b 03       		.uleb128 0x3
 3259 018c 08       		.uleb128 0x8
 3260 018d 3A       		.uleb128 0x3a
 3261 018e 0B       		.uleb128 0xb
 3262 018f 3B       		.uleb128 0x3b
 3263 0190 0B       		.uleb128 0xb
 3264 0191 49       		.uleb128 0x49
 3265 0192 13       		.uleb128 0x13
 3266 0193 00       		.byte	0
 3267 0194 00       		.byte	0
 3268 0195 20       		.uleb128 0x20
 3269 0196 2E       		.uleb128 0x2e
 3270 0197 01       		.byte	0x1
 3271 0198 3F       		.uleb128 0x3f
 3272 0199 19       		.uleb128 0x19
 3273 019a 03       		.uleb128 0x3
 3274 019b 0E       		.uleb128 0xe
 3275 019c 3A       		.uleb128 0x3a
 3276 019d 0B       		.uleb128 0xb
 3277 019e 3B       		.uleb128 0x3b
 3278 019f 0B       		.uleb128 0xb
 3279 01a0 27       		.uleb128 0x27
 3280 01a1 19       		.uleb128 0x19
 3281 01a2 11       		.uleb128 0x11
 3282 01a3 01       		.uleb128 0x1
 3283 01a4 12       		.uleb128 0x12
 3284 01a5 06       		.uleb128 0x6
 3285 01a6 40       		.uleb128 0x40
 3286 01a7 18       		.uleb128 0x18
 3287 01a8 9742     		.uleb128 0x2117
 3288 01aa 19       		.uleb128 0x19
 3289 01ab 01       		.uleb128 0x1
 3290 01ac 13       		.uleb128 0x13
 3291 01ad 00       		.byte	0
 3292 01ae 00       		.byte	0
 3293 01af 21       		.uleb128 0x21
 3294 01b0 05       		.uleb128 0x5
 3295 01b1 00       		.byte	0
 3296 01b2 03       		.uleb128 0x3
 3297 01b3 08       		.uleb128 0x8
 3298 01b4 3A       		.uleb128 0x3a
 3299 01b5 0B       		.uleb128 0xb
 3300 01b6 3B       		.uleb128 0x3b
 3301 01b7 0B       		.uleb128 0xb
 3302 01b8 49       		.uleb128 0x49
 3303 01b9 13       		.uleb128 0x13
 3304 01ba 02       		.uleb128 0x2
 3305 01bb 18       		.uleb128 0x18
 3306 01bc 00       		.byte	0
ARM GAS  /tmp/cc4pbleD.s 			page 59


 3307 01bd 00       		.byte	0
 3308 01be 22       		.uleb128 0x22
 3309 01bf 34       		.uleb128 0x34
 3310 01c0 00       		.byte	0
 3311 01c1 03       		.uleb128 0x3
 3312 01c2 0E       		.uleb128 0xe
 3313 01c3 49       		.uleb128 0x49
 3314 01c4 13       		.uleb128 0x13
 3315 01c5 34       		.uleb128 0x34
 3316 01c6 19       		.uleb128 0x19
 3317 01c7 00       		.byte	0
 3318 01c8 00       		.byte	0
 3319 01c9 23       		.uleb128 0x23
 3320 01ca 1D       		.uleb128 0x1d
 3321 01cb 01       		.byte	0x1
 3322 01cc 31       		.uleb128 0x31
 3323 01cd 13       		.uleb128 0x13
 3324 01ce 11       		.uleb128 0x11
 3325 01cf 01       		.uleb128 0x1
 3326 01d0 12       		.uleb128 0x12
 3327 01d1 06       		.uleb128 0x6
 3328 01d2 58       		.uleb128 0x58
 3329 01d3 0B       		.uleb128 0xb
 3330 01d4 59       		.uleb128 0x59
 3331 01d5 0B       		.uleb128 0xb
 3332 01d6 00       		.byte	0
 3333 01d7 00       		.byte	0
 3334 01d8 24       		.uleb128 0x24
 3335 01d9 05       		.uleb128 0x5
 3336 01da 00       		.byte	0
 3337 01db 31       		.uleb128 0x31
 3338 01dc 13       		.uleb128 0x13
 3339 01dd 02       		.uleb128 0x2
 3340 01de 18       		.uleb128 0x18
 3341 01df 00       		.byte	0
 3342 01e0 00       		.byte	0
 3343 01e1 25       		.uleb128 0x25
 3344 01e2 05       		.uleb128 0x5
 3345 01e3 00       		.byte	0
 3346 01e4 03       		.uleb128 0x3
 3347 01e5 08       		.uleb128 0x8
 3348 01e6 3A       		.uleb128 0x3a
 3349 01e7 0B       		.uleb128 0xb
 3350 01e8 3B       		.uleb128 0x3b
 3351 01e9 0B       		.uleb128 0xb
 3352 01ea 49       		.uleb128 0x49
 3353 01eb 13       		.uleb128 0x13
 3354 01ec 02       		.uleb128 0x2
 3355 01ed 17       		.uleb128 0x17
 3356 01ee 00       		.byte	0
 3357 01ef 00       		.byte	0
 3358 01f0 26       		.uleb128 0x26
 3359 01f1 34       		.uleb128 0x34
 3360 01f2 00       		.byte	0
 3361 01f3 03       		.uleb128 0x3
 3362 01f4 08       		.uleb128 0x8
 3363 01f5 3A       		.uleb128 0x3a
ARM GAS  /tmp/cc4pbleD.s 			page 60


 3364 01f6 0B       		.uleb128 0xb
 3365 01f7 3B       		.uleb128 0x3b
 3366 01f8 0B       		.uleb128 0xb
 3367 01f9 49       		.uleb128 0x49
 3368 01fa 13       		.uleb128 0x13
 3369 01fb 02       		.uleb128 0x2
 3370 01fc 17       		.uleb128 0x17
 3371 01fd 00       		.byte	0
 3372 01fe 00       		.byte	0
 3373 01ff 27       		.uleb128 0x27
 3374 0200 0B       		.uleb128 0xb
 3375 0201 01       		.byte	0x1
 3376 0202 55       		.uleb128 0x55
 3377 0203 17       		.uleb128 0x17
 3378 0204 00       		.byte	0
 3379 0205 00       		.byte	0
 3380 0206 28       		.uleb128 0x28
 3381 0207 1D       		.uleb128 0x1d
 3382 0208 01       		.byte	0x1
 3383 0209 31       		.uleb128 0x31
 3384 020a 13       		.uleb128 0x13
 3385 020b 11       		.uleb128 0x11
 3386 020c 01       		.uleb128 0x1
 3387 020d 12       		.uleb128 0x12
 3388 020e 06       		.uleb128 0x6
 3389 020f 58       		.uleb128 0x58
 3390 0210 0B       		.uleb128 0xb
 3391 0211 59       		.uleb128 0x59
 3392 0212 0B       		.uleb128 0xb
 3393 0213 01       		.uleb128 0x1
 3394 0214 13       		.uleb128 0x13
 3395 0215 00       		.byte	0
 3396 0216 00       		.byte	0
 3397 0217 29       		.uleb128 0x29
 3398 0218 05       		.uleb128 0x5
 3399 0219 00       		.byte	0
 3400 021a 31       		.uleb128 0x31
 3401 021b 13       		.uleb128 0x13
 3402 021c 02       		.uleb128 0x2
 3403 021d 17       		.uleb128 0x17
 3404 021e 00       		.byte	0
 3405 021f 00       		.byte	0
 3406 0220 2A       		.uleb128 0x2a
 3407 0221 0B       		.uleb128 0xb
 3408 0222 01       		.byte	0x1
 3409 0223 11       		.uleb128 0x11
 3410 0224 01       		.uleb128 0x1
 3411 0225 12       		.uleb128 0x12
 3412 0226 06       		.uleb128 0x6
 3413 0227 00       		.byte	0
 3414 0228 00       		.byte	0
 3415 0229 2B       		.uleb128 0x2b
 3416 022a 34       		.uleb128 0x34
 3417 022b 00       		.byte	0
 3418 022c 31       		.uleb128 0x31
 3419 022d 13       		.uleb128 0x13
 3420 022e 02       		.uleb128 0x2
ARM GAS  /tmp/cc4pbleD.s 			page 61


 3421 022f 17       		.uleb128 0x17
 3422 0230 00       		.byte	0
 3423 0231 00       		.byte	0
 3424 0232 2C       		.uleb128 0x2c
 3425 0233 1D       		.uleb128 0x1d
 3426 0234 01       		.byte	0x1
 3427 0235 31       		.uleb128 0x31
 3428 0236 13       		.uleb128 0x13
 3429 0237 52       		.uleb128 0x52
 3430 0238 01       		.uleb128 0x1
 3431 0239 55       		.uleb128 0x55
 3432 023a 17       		.uleb128 0x17
 3433 023b 58       		.uleb128 0x58
 3434 023c 0B       		.uleb128 0xb
 3435 023d 59       		.uleb128 0x59
 3436 023e 0B       		.uleb128 0xb
 3437 023f 01       		.uleb128 0x1
 3438 0240 13       		.uleb128 0x13
 3439 0241 00       		.byte	0
 3440 0242 00       		.byte	0
 3441 0243 2D       		.uleb128 0x2d
 3442 0244 898201   		.uleb128 0x4109
 3443 0247 01       		.byte	0x1
 3444 0248 11       		.uleb128 0x11
 3445 0249 01       		.uleb128 0x1
 3446 024a 9542     		.uleb128 0x2115
 3447 024c 19       		.uleb128 0x19
 3448 024d 31       		.uleb128 0x31
 3449 024e 13       		.uleb128 0x13
 3450 024f 01       		.uleb128 0x1
 3451 0250 13       		.uleb128 0x13
 3452 0251 00       		.byte	0
 3453 0252 00       		.byte	0
 3454 0253 2E       		.uleb128 0x2e
 3455 0254 8A8201   		.uleb128 0x410a
 3456 0257 00       		.byte	0
 3457 0258 02       		.uleb128 0x2
 3458 0259 18       		.uleb128 0x18
 3459 025a 9142     		.uleb128 0x2111
 3460 025c 18       		.uleb128 0x18
 3461 025d 00       		.byte	0
 3462 025e 00       		.byte	0
 3463 025f 2F       		.uleb128 0x2f
 3464 0260 898201   		.uleb128 0x4109
 3465 0263 00       		.byte	0
 3466 0264 11       		.uleb128 0x11
 3467 0265 01       		.uleb128 0x1
 3468 0266 31       		.uleb128 0x31
 3469 0267 13       		.uleb128 0x13
 3470 0268 00       		.byte	0
 3471 0269 00       		.byte	0
 3472 026a 30       		.uleb128 0x30
 3473 026b 1D       		.uleb128 0x1d
 3474 026c 01       		.byte	0x1
 3475 026d 31       		.uleb128 0x31
 3476 026e 13       		.uleb128 0x13
 3477 026f 11       		.uleb128 0x11
ARM GAS  /tmp/cc4pbleD.s 			page 62


 3478 0270 01       		.uleb128 0x1
 3479 0271 12       		.uleb128 0x12
 3480 0272 06       		.uleb128 0x6
 3481 0273 58       		.uleb128 0x58
 3482 0274 0B       		.uleb128 0xb
 3483 0275 59       		.uleb128 0x59
 3484 0276 05       		.uleb128 0x5
 3485 0277 00       		.byte	0
 3486 0278 00       		.byte	0
 3487 0279 31       		.uleb128 0x31
 3488 027a 1D       		.uleb128 0x1d
 3489 027b 00       		.byte	0
 3490 027c 31       		.uleb128 0x31
 3491 027d 13       		.uleb128 0x13
 3492 027e 11       		.uleb128 0x11
 3493 027f 01       		.uleb128 0x1
 3494 0280 12       		.uleb128 0x12
 3495 0281 06       		.uleb128 0x6
 3496 0282 58       		.uleb128 0x58
 3497 0283 0B       		.uleb128 0xb
 3498 0284 59       		.uleb128 0x59
 3499 0285 05       		.uleb128 0x5
 3500 0286 00       		.byte	0
 3501 0287 00       		.byte	0
 3502 0288 32       		.uleb128 0x32
 3503 0289 34       		.uleb128 0x34
 3504 028a 00       		.byte	0
 3505 028b 31       		.uleb128 0x31
 3506 028c 13       		.uleb128 0x13
 3507 028d 00       		.byte	0
 3508 028e 00       		.byte	0
 3509 028f 33       		.uleb128 0x33
 3510 0290 898201   		.uleb128 0x4109
 3511 0293 01       		.byte	0x1
 3512 0294 11       		.uleb128 0x11
 3513 0295 01       		.uleb128 0x1
 3514 0296 31       		.uleb128 0x31
 3515 0297 13       		.uleb128 0x13
 3516 0298 00       		.byte	0
 3517 0299 00       		.byte	0
 3518 029a 34       		.uleb128 0x34
 3519 029b 2E       		.uleb128 0x2e
 3520 029c 01       		.byte	0x1
 3521 029d 3F       		.uleb128 0x3f
 3522 029e 19       		.uleb128 0x19
 3523 029f 03       		.uleb128 0x3
 3524 02a0 0E       		.uleb128 0xe
 3525 02a1 3A       		.uleb128 0x3a
 3526 02a2 0B       		.uleb128 0xb
 3527 02a3 3B       		.uleb128 0x3b
 3528 02a4 0B       		.uleb128 0xb
 3529 02a5 27       		.uleb128 0x27
 3530 02a6 19       		.uleb128 0x19
 3531 02a7 49       		.uleb128 0x49
 3532 02a8 13       		.uleb128 0x13
 3533 02a9 11       		.uleb128 0x11
 3534 02aa 01       		.uleb128 0x1
ARM GAS  /tmp/cc4pbleD.s 			page 63


 3535 02ab 12       		.uleb128 0x12
 3536 02ac 06       		.uleb128 0x6
 3537 02ad 40       		.uleb128 0x40
 3538 02ae 18       		.uleb128 0x18
 3539 02af 9742     		.uleb128 0x2117
 3540 02b1 19       		.uleb128 0x19
 3541 02b2 01       		.uleb128 0x1
 3542 02b3 13       		.uleb128 0x13
 3543 02b4 00       		.byte	0
 3544 02b5 00       		.byte	0
 3545 02b6 35       		.uleb128 0x35
 3546 02b7 1D       		.uleb128 0x1d
 3547 02b8 01       		.byte	0x1
 3548 02b9 31       		.uleb128 0x31
 3549 02ba 13       		.uleb128 0x13
 3550 02bb 11       		.uleb128 0x11
 3551 02bc 01       		.uleb128 0x1
 3552 02bd 12       		.uleb128 0x12
 3553 02be 06       		.uleb128 0x6
 3554 02bf 58       		.uleb128 0x58
 3555 02c0 0B       		.uleb128 0xb
 3556 02c1 59       		.uleb128 0x59
 3557 02c2 05       		.uleb128 0x5
 3558 02c3 01       		.uleb128 0x1
 3559 02c4 13       		.uleb128 0x13
 3560 02c5 00       		.byte	0
 3561 02c6 00       		.byte	0
 3562 02c7 36       		.uleb128 0x36
 3563 02c8 1D       		.uleb128 0x1d
 3564 02c9 01       		.byte	0x1
 3565 02ca 31       		.uleb128 0x31
 3566 02cb 13       		.uleb128 0x13
 3567 02cc 52       		.uleb128 0x52
 3568 02cd 01       		.uleb128 0x1
 3569 02ce 55       		.uleb128 0x55
 3570 02cf 17       		.uleb128 0x17
 3571 02d0 58       		.uleb128 0x58
 3572 02d1 0B       		.uleb128 0xb
 3573 02d2 59       		.uleb128 0x59
 3574 02d3 05       		.uleb128 0x5
 3575 02d4 01       		.uleb128 0x1
 3576 02d5 13       		.uleb128 0x13
 3577 02d6 00       		.byte	0
 3578 02d7 00       		.byte	0
 3579 02d8 37       		.uleb128 0x37
 3580 02d9 1D       		.uleb128 0x1d
 3581 02da 01       		.byte	0x1
 3582 02db 31       		.uleb128 0x31
 3583 02dc 13       		.uleb128 0x13
 3584 02dd 52       		.uleb128 0x52
 3585 02de 01       		.uleb128 0x1
 3586 02df 55       		.uleb128 0x55
 3587 02e0 17       		.uleb128 0x17
 3588 02e1 58       		.uleb128 0x58
 3589 02e2 0B       		.uleb128 0xb
 3590 02e3 59       		.uleb128 0x59
 3591 02e4 05       		.uleb128 0x5
ARM GAS  /tmp/cc4pbleD.s 			page 64


 3592 02e5 00       		.byte	0
 3593 02e6 00       		.byte	0
 3594 02e7 38       		.uleb128 0x38
 3595 02e8 1D       		.uleb128 0x1d
 3596 02e9 00       		.byte	0
 3597 02ea 31       		.uleb128 0x31
 3598 02eb 13       		.uleb128 0x13
 3599 02ec 52       		.uleb128 0x52
 3600 02ed 01       		.uleb128 0x1
 3601 02ee 55       		.uleb128 0x55
 3602 02ef 17       		.uleb128 0x17
 3603 02f0 58       		.uleb128 0x58
 3604 02f1 0B       		.uleb128 0xb
 3605 02f2 59       		.uleb128 0x59
 3606 02f3 05       		.uleb128 0x5
 3607 02f4 00       		.byte	0
 3608 02f5 00       		.byte	0
 3609 02f6 39       		.uleb128 0x39
 3610 02f7 2E       		.uleb128 0x2e
 3611 02f8 01       		.byte	0x1
 3612 02f9 31       		.uleb128 0x31
 3613 02fa 13       		.uleb128 0x13
 3614 02fb 11       		.uleb128 0x11
 3615 02fc 01       		.uleb128 0x1
 3616 02fd 12       		.uleb128 0x12
 3617 02fe 06       		.uleb128 0x6
 3618 02ff 40       		.uleb128 0x40
 3619 0300 18       		.uleb128 0x18
 3620 0301 9742     		.uleb128 0x2117
 3621 0303 19       		.uleb128 0x19
 3622 0304 01       		.uleb128 0x1
 3623 0305 13       		.uleb128 0x13
 3624 0306 00       		.byte	0
 3625 0307 00       		.byte	0
 3626 0308 3A       		.uleb128 0x3a
 3627 0309 2E       		.uleb128 0x2e
 3628 030a 01       		.byte	0x1
 3629 030b 3F       		.uleb128 0x3f
 3630 030c 19       		.uleb128 0x19
 3631 030d 03       		.uleb128 0x3
 3632 030e 0E       		.uleb128 0xe
 3633 030f 3A       		.uleb128 0x3a
 3634 0310 0B       		.uleb128 0xb
 3635 0311 3B       		.uleb128 0x3b
 3636 0312 05       		.uleb128 0x5
 3637 0313 27       		.uleb128 0x27
 3638 0314 19       		.uleb128 0x19
 3639 0315 11       		.uleb128 0x11
 3640 0316 01       		.uleb128 0x1
 3641 0317 12       		.uleb128 0x12
 3642 0318 06       		.uleb128 0x6
 3643 0319 40       		.uleb128 0x40
 3644 031a 18       		.uleb128 0x18
 3645 031b 9742     		.uleb128 0x2117
 3646 031d 19       		.uleb128 0x19
 3647 031e 01       		.uleb128 0x1
 3648 031f 13       		.uleb128 0x13
ARM GAS  /tmp/cc4pbleD.s 			page 65


 3649 0320 00       		.byte	0
 3650 0321 00       		.byte	0
 3651 0322 3B       		.uleb128 0x3b
 3652 0323 05       		.uleb128 0x5
 3653 0324 00       		.byte	0
 3654 0325 03       		.uleb128 0x3
 3655 0326 08       		.uleb128 0x8
 3656 0327 3A       		.uleb128 0x3a
 3657 0328 0B       		.uleb128 0xb
 3658 0329 3B       		.uleb128 0x3b
 3659 032a 05       		.uleb128 0x5
 3660 032b 49       		.uleb128 0x49
 3661 032c 13       		.uleb128 0x13
 3662 032d 02       		.uleb128 0x2
 3663 032e 17       		.uleb128 0x17
 3664 032f 00       		.byte	0
 3665 0330 00       		.byte	0
 3666 0331 3C       		.uleb128 0x3c
 3667 0332 34       		.uleb128 0x34
 3668 0333 00       		.byte	0
 3669 0334 03       		.uleb128 0x3
 3670 0335 08       		.uleb128 0x8
 3671 0336 3A       		.uleb128 0x3a
 3672 0337 0B       		.uleb128 0xb
 3673 0338 3B       		.uleb128 0x3b
 3674 0339 05       		.uleb128 0x5
 3675 033a 49       		.uleb128 0x49
 3676 033b 13       		.uleb128 0x13
 3677 033c 02       		.uleb128 0x2
 3678 033d 17       		.uleb128 0x17
 3679 033e 00       		.byte	0
 3680 033f 00       		.byte	0
 3681 0340 3D       		.uleb128 0x3d
 3682 0341 0B       		.uleb128 0xb
 3683 0342 01       		.byte	0x1
 3684 0343 11       		.uleb128 0x11
 3685 0344 01       		.uleb128 0x1
 3686 0345 12       		.uleb128 0x12
 3687 0346 06       		.uleb128 0x6
 3688 0347 01       		.uleb128 0x1
 3689 0348 13       		.uleb128 0x13
 3690 0349 00       		.byte	0
 3691 034a 00       		.byte	0
 3692 034b 3E       		.uleb128 0x3e
 3693 034c 34       		.uleb128 0x34
 3694 034d 00       		.byte	0
 3695 034e 03       		.uleb128 0x3
 3696 034f 0E       		.uleb128 0xe
 3697 0350 3A       		.uleb128 0x3a
 3698 0351 0B       		.uleb128 0xb
 3699 0352 3B       		.uleb128 0x3b
 3700 0353 05       		.uleb128 0x5
 3701 0354 49       		.uleb128 0x49
 3702 0355 13       		.uleb128 0x13
 3703 0356 02       		.uleb128 0x2
 3704 0357 17       		.uleb128 0x17
 3705 0358 00       		.byte	0
ARM GAS  /tmp/cc4pbleD.s 			page 66


 3706 0359 00       		.byte	0
 3707 035a 3F       		.uleb128 0x3f
 3708 035b 898201   		.uleb128 0x4109
 3709 035e 01       		.byte	0x1
 3710 035f 11       		.uleb128 0x11
 3711 0360 01       		.uleb128 0x1
 3712 0361 31       		.uleb128 0x31
 3713 0362 13       		.uleb128 0x13
 3714 0363 01       		.uleb128 0x1
 3715 0364 13       		.uleb128 0x13
 3716 0365 00       		.byte	0
 3717 0366 00       		.byte	0
 3718 0367 40       		.uleb128 0x40
 3719 0368 898201   		.uleb128 0x4109
 3720 036b 00       		.byte	0
 3721 036c 11       		.uleb128 0x11
 3722 036d 01       		.uleb128 0x1
 3723 036e 9542     		.uleb128 0x2115
 3724 0370 19       		.uleb128 0x19
 3725 0371 31       		.uleb128 0x31
 3726 0372 13       		.uleb128 0x13
 3727 0373 00       		.byte	0
 3728 0374 00       		.byte	0
 3729 0375 41       		.uleb128 0x41
 3730 0376 0B       		.uleb128 0xb
 3731 0377 01       		.byte	0x1
 3732 0378 55       		.uleb128 0x55
 3733 0379 17       		.uleb128 0x17
 3734 037a 01       		.uleb128 0x1
 3735 037b 13       		.uleb128 0x13
 3736 037c 00       		.byte	0
 3737 037d 00       		.byte	0
 3738 037e 42       		.uleb128 0x42
 3739 037f 34       		.uleb128 0x34
 3740 0380 00       		.byte	0
 3741 0381 03       		.uleb128 0x3
 3742 0382 0E       		.uleb128 0xe
 3743 0383 3A       		.uleb128 0x3a
 3744 0384 0B       		.uleb128 0xb
 3745 0385 3B       		.uleb128 0x3b
 3746 0386 05       		.uleb128 0x5
 3747 0387 49       		.uleb128 0x49
 3748 0388 13       		.uleb128 0x13
 3749 0389 3F       		.uleb128 0x3f
 3750 038a 19       		.uleb128 0x19
 3751 038b 3C       		.uleb128 0x3c
 3752 038c 19       		.uleb128 0x19
 3753 038d 00       		.byte	0
 3754 038e 00       		.byte	0
 3755 038f 43       		.uleb128 0x43
 3756 0390 34       		.uleb128 0x34
 3757 0391 00       		.byte	0
 3758 0392 03       		.uleb128 0x3
 3759 0393 08       		.uleb128 0x8
 3760 0394 3A       		.uleb128 0x3a
 3761 0395 0B       		.uleb128 0xb
 3762 0396 3B       		.uleb128 0x3b
ARM GAS  /tmp/cc4pbleD.s 			page 67


 3763 0397 05       		.uleb128 0x5
 3764 0398 49       		.uleb128 0x49
 3765 0399 13       		.uleb128 0x13
 3766 039a 3F       		.uleb128 0x3f
 3767 039b 19       		.uleb128 0x19
 3768 039c 3C       		.uleb128 0x3c
 3769 039d 19       		.uleb128 0x19
 3770 039e 00       		.byte	0
 3771 039f 00       		.byte	0
 3772 03a0 44       		.uleb128 0x44
 3773 03a1 2E       		.uleb128 0x2e
 3774 03a2 01       		.byte	0x1
 3775 03a3 3F       		.uleb128 0x3f
 3776 03a4 19       		.uleb128 0x19
 3777 03a5 03       		.uleb128 0x3
 3778 03a6 0E       		.uleb128 0xe
 3779 03a7 3A       		.uleb128 0x3a
 3780 03a8 0B       		.uleb128 0xb
 3781 03a9 3B       		.uleb128 0x3b
 3782 03aa 05       		.uleb128 0x5
 3783 03ab 27       		.uleb128 0x27
 3784 03ac 19       		.uleb128 0x19
 3785 03ad 3C       		.uleb128 0x3c
 3786 03ae 19       		.uleb128 0x19
 3787 03af 01       		.uleb128 0x1
 3788 03b0 13       		.uleb128 0x13
 3789 03b1 00       		.byte	0
 3790 03b2 00       		.byte	0
 3791 03b3 45       		.uleb128 0x45
 3792 03b4 2E       		.uleb128 0x2e
 3793 03b5 01       		.byte	0x1
 3794 03b6 3F       		.uleb128 0x3f
 3795 03b7 19       		.uleb128 0x19
 3796 03b8 03       		.uleb128 0x3
 3797 03b9 0E       		.uleb128 0xe
 3798 03ba 3A       		.uleb128 0x3a
 3799 03bb 0B       		.uleb128 0xb
 3800 03bc 3B       		.uleb128 0x3b
 3801 03bd 05       		.uleb128 0x5
 3802 03be 27       		.uleb128 0x27
 3803 03bf 19       		.uleb128 0x19
 3804 03c0 49       		.uleb128 0x49
 3805 03c1 13       		.uleb128 0x13
 3806 03c2 3C       		.uleb128 0x3c
 3807 03c3 19       		.uleb128 0x19
 3808 03c4 01       		.uleb128 0x1
 3809 03c5 13       		.uleb128 0x13
 3810 03c6 00       		.byte	0
 3811 03c7 00       		.byte	0
 3812 03c8 46       		.uleb128 0x46
 3813 03c9 2E       		.uleb128 0x2e
 3814 03ca 00       		.byte	0
 3815 03cb 3F       		.uleb128 0x3f
 3816 03cc 19       		.uleb128 0x19
 3817 03cd 03       		.uleb128 0x3
 3818 03ce 0E       		.uleb128 0xe
 3819 03cf 3A       		.uleb128 0x3a
ARM GAS  /tmp/cc4pbleD.s 			page 68


 3820 03d0 0B       		.uleb128 0xb
 3821 03d1 3B       		.uleb128 0x3b
 3822 03d2 05       		.uleb128 0x5
 3823 03d3 27       		.uleb128 0x27
 3824 03d4 19       		.uleb128 0x19
 3825 03d5 3C       		.uleb128 0x3c
 3826 03d6 19       		.uleb128 0x19
 3827 03d7 00       		.byte	0
 3828 03d8 00       		.byte	0
 3829 03d9 00       		.byte	0
 3830              		.section	.debug_loc,"",%progbits
 3831              	.Ldebug_loc0:
 3832              	.LLST0:
 3833 0000 00000000 		.4byte	.LVL1
 3834 0004 16000000 		.4byte	.LVL4
 3835 0008 0100     		.2byte	0x1
 3836 000a 50       		.byte	0x50
 3837 000b 16000000 		.4byte	.LVL4
 3838 000f 48000000 		.4byte	.LVL8
 3839 0013 0100     		.2byte	0x1
 3840 0015 55       		.byte	0x55
 3841 0016 48000000 		.4byte	.LVL8
 3842 001a 4B000000 		.4byte	.LVL9-1
 3843 001e 0500     		.2byte	0x5
 3844 0020 73       		.byte	0x73
 3845 0021 04       		.sleb128 4
 3846 0022 06       		.byte	0x6
 3847 0023 23       		.byte	0x23
 3848 0024 24       		.uleb128 0x24
 3849 0025 4B000000 		.4byte	.LVL9-1
 3850 0029 4C000000 		.4byte	.LVL9
 3851 002d 0400     		.2byte	0x4
 3852 002f F3       		.byte	0xf3
 3853 0030 01       		.uleb128 0x1
 3854 0031 50       		.byte	0x50
 3855 0032 9F       		.byte	0x9f
 3856 0033 4C000000 		.4byte	.LVL9
 3857 0037 B8000000 		.4byte	.LVL21
 3858 003b 0100     		.2byte	0x1
 3859 003d 55       		.byte	0x55
 3860 003e B8000000 		.4byte	.LVL21
 3861 0042 C8000000 		.4byte	.LFE221
 3862 0046 0100     		.2byte	0x1
 3863 0048 50       		.byte	0x50
 3864 0049 00000000 		.4byte	0
 3865 004d 00000000 		.4byte	0
 3866              	.LLST1:
 3867 0051 08000000 		.4byte	.LVL2
 3868 0055 48000000 		.4byte	.LVL8
 3869 0059 0100     		.2byte	0x1
 3870 005b 54       		.byte	0x54
 3871 005c 48000000 		.4byte	.LVL8
 3872 0060 4B000000 		.4byte	.LVL9-1
 3873 0064 0200     		.2byte	0x2
 3874 0066 73       		.byte	0x73
 3875 0067 04       		.sleb128 4
 3876 0068 4C000000 		.4byte	.LVL9
ARM GAS  /tmp/cc4pbleD.s 			page 69


 3877 006c C2000000 		.4byte	.LVL22
 3878 0070 0100     		.2byte	0x1
 3879 0072 54       		.byte	0x54
 3880 0073 00000000 		.4byte	0
 3881 0077 00000000 		.4byte	0
 3882              	.LLST2:
 3883 007b 14000000 		.4byte	.LVL3
 3884 007f 24000000 		.4byte	.LVL5
 3885 0083 0100     		.2byte	0x1
 3886 0085 52       		.byte	0x52
 3887 0086 4C000000 		.4byte	.LVL9
 3888 008a 5B000000 		.4byte	.LVL10-1
 3889 008e 0100     		.2byte	0x1
 3890 0090 52       		.byte	0x52
 3891 0091 5E000000 		.4byte	.LVL11
 3892 0095 B8000000 		.4byte	.LVL21
 3893 0099 0100     		.2byte	0x1
 3894 009b 52       		.byte	0x52
 3895 009c 00000000 		.4byte	0
 3896 00a0 00000000 		.4byte	0
 3897              	.LLST3:
 3898 00a4 24000000 		.4byte	.LVL5
 3899 00a8 48000000 		.4byte	.LVL8
 3900 00ac 0100     		.2byte	0x1
 3901 00ae 55       		.byte	0x55
 3902 00af 48000000 		.4byte	.LVL8
 3903 00b3 4B000000 		.4byte	.LVL9-1
 3904 00b7 0500     		.2byte	0x5
 3905 00b9 73       		.byte	0x73
 3906 00ba 04       		.sleb128 4
 3907 00bb 06       		.byte	0x6
 3908 00bc 23       		.byte	0x23
 3909 00bd 24       		.uleb128 0x24
 3910 00be 4B000000 		.4byte	.LVL9-1
 3911 00c2 4C000000 		.4byte	.LVL9
 3912 00c6 0400     		.2byte	0x4
 3913 00c8 F3       		.byte	0xf3
 3914 00c9 01       		.uleb128 0x1
 3915 00ca 50       		.byte	0x50
 3916 00cb 9F       		.byte	0x9f
 3917 00cc 00000000 		.4byte	0
 3918 00d0 00000000 		.4byte	0
 3919              	.LLST4:
 3920 00d4 24000000 		.4byte	.LVL5
 3921 00d8 48000000 		.4byte	.LVL8
 3922 00dc 0100     		.2byte	0x1
 3923 00de 54       		.byte	0x54
 3924 00df 48000000 		.4byte	.LVL8
 3925 00e3 4B000000 		.4byte	.LVL9-1
 3926 00e7 0200     		.2byte	0x2
 3927 00e9 73       		.byte	0x73
 3928 00ea 04       		.sleb128 4
 3929 00eb 00000000 		.4byte	0
 3930 00ef 00000000 		.4byte	0
 3931              	.LLST5:
 3932 00f3 24000000 		.4byte	.LVL5
 3933 00f7 28000000 		.4byte	.LVL6
ARM GAS  /tmp/cc4pbleD.s 			page 70


 3934 00fb 0100     		.2byte	0x1
 3935 00fd 55       		.byte	0x55
 3936 00fe 28000000 		.4byte	.LVL6
 3937 0102 4B000000 		.4byte	.LVL9-1
 3938 0106 0100     		.2byte	0x1
 3939 0108 53       		.byte	0x53
 3940 0109 00000000 		.4byte	0
 3941 010d 00000000 		.4byte	0
 3942              	.LLST6:
 3943 0111 4C000000 		.4byte	.LVL9
 3944 0115 5B000000 		.4byte	.LVL10-1
 3945 0119 0100     		.2byte	0x1
 3946 011b 52       		.byte	0x52
 3947 011c 00000000 		.4byte	0
 3948 0120 00000000 		.4byte	0
 3949              	.LLST7:
 3950 0124 5E000000 		.4byte	.LVL11
 3951 0128 86000000 		.4byte	.LVL15
 3952 012c 0100     		.2byte	0x1
 3953 012e 52       		.byte	0x52
 3954 012f 00000000 		.4byte	0
 3955 0133 00000000 		.4byte	0
 3956              	.LLST8:
 3957 0137 66000000 		.4byte	.LVL12
 3958 013b 86000000 		.4byte	.LVL15
 3959 013f 0100     		.2byte	0x1
 3960 0141 56       		.byte	0x56
 3961 0142 00000000 		.4byte	0
 3962 0146 00000000 		.4byte	0
 3963              	.LLST9:
 3964 014a 66000000 		.4byte	.LVL12
 3965 014e 86000000 		.4byte	.LVL15
 3966 0152 0100     		.2byte	0x1
 3967 0154 52       		.byte	0x52
 3968 0155 00000000 		.4byte	0
 3969 0159 00000000 		.4byte	0
 3970              	.LLST10:
 3971 015d 66000000 		.4byte	.LVL12
 3972 0161 6E000000 		.4byte	.LVL13
 3973 0165 0100     		.2byte	0x1
 3974 0167 56       		.byte	0x56
 3975 0168 6E000000 		.4byte	.LVL13
 3976 016c 86000000 		.4byte	.LVL15
 3977 0170 0100     		.2byte	0x1
 3978 0172 53       		.byte	0x53
 3979 0173 00000000 		.4byte	0
 3980 0177 00000000 		.4byte	0
 3981              	.LLST11:
 3982 017b 86000000 		.4byte	.LVL15
 3983 017f AE000000 		.4byte	.LVL19
 3984 0183 0100     		.2byte	0x1
 3985 0185 52       		.byte	0x52
 3986 0186 AE000000 		.4byte	.LVL19
 3987 018a B2000000 		.4byte	.LVL20
 3988 018e 0200     		.2byte	0x2
 3989 0190 73       		.byte	0x73
 3990 0191 04       		.sleb128 4
ARM GAS  /tmp/cc4pbleD.s 			page 71


 3991 0192 00000000 		.4byte	0
 3992 0196 00000000 		.4byte	0
 3993              	.LLST12:
 3994 019a 8E000000 		.4byte	.LVL16
 3995 019e B8000000 		.4byte	.LVL21
 3996 01a2 0100     		.2byte	0x1
 3997 01a4 56       		.byte	0x56
 3998 01a5 00000000 		.4byte	0
 3999 01a9 00000000 		.4byte	0
 4000              	.LLST13:
 4001 01ad 8E000000 		.4byte	.LVL16
 4002 01b1 AE000000 		.4byte	.LVL19
 4003 01b5 0100     		.2byte	0x1
 4004 01b7 52       		.byte	0x52
 4005 01b8 AE000000 		.4byte	.LVL19
 4006 01bc B2000000 		.4byte	.LVL20
 4007 01c0 0200     		.2byte	0x2
 4008 01c2 73       		.byte	0x73
 4009 01c3 04       		.sleb128 4
 4010 01c4 00000000 		.4byte	0
 4011 01c8 00000000 		.4byte	0
 4012              	.LLST14:
 4013 01cc 8E000000 		.4byte	.LVL16
 4014 01d0 96000000 		.4byte	.LVL17
 4015 01d4 0100     		.2byte	0x1
 4016 01d6 56       		.byte	0x56
 4017 01d7 96000000 		.4byte	.LVL17
 4018 01db B2000000 		.4byte	.LVL20
 4019 01df 0100     		.2byte	0x1
 4020 01e1 53       		.byte	0x53
 4021 01e2 00000000 		.4byte	0
 4022 01e6 00000000 		.4byte	0
 4023              	.LLST15:
 4024 01ea 00000000 		.4byte	.LVL23
 4025 01ee 07000000 		.4byte	.LVL24-1
 4026 01f2 0100     		.2byte	0x1
 4027 01f4 50       		.byte	0x50
 4028 01f5 07000000 		.4byte	.LVL24-1
 4029 01f9 0C000000 		.4byte	.LFE220
 4030 01fd 0400     		.2byte	0x4
 4031 01ff F3       		.byte	0xf3
 4032 0200 01       		.uleb128 0x1
 4033 0201 50       		.byte	0x50
 4034 0202 9F       		.byte	0x9f
 4035 0203 00000000 		.4byte	0
 4036 0207 00000000 		.4byte	0
 4037              	.LLST16:
 4038 020b 00000000 		.4byte	.LVL25
 4039 020f 08000000 		.4byte	.LVL27
 4040 0213 0100     		.2byte	0x1
 4041 0215 50       		.byte	0x50
 4042 0216 08000000 		.4byte	.LVL27
 4043 021a 24000000 		.4byte	.LFE222
 4044 021e 0100     		.2byte	0x1
 4045 0220 53       		.byte	0x53
 4046 0221 00000000 		.4byte	0
 4047 0225 00000000 		.4byte	0
ARM GAS  /tmp/cc4pbleD.s 			page 72


 4048              	.LLST17:
 4049 0229 04000000 		.4byte	.LVL26
 4050 022d 08000000 		.4byte	.LVL27
 4051 0231 0100     		.2byte	0x1
 4052 0233 50       		.byte	0x50
 4053 0234 08000000 		.4byte	.LVL27
 4054 0238 24000000 		.4byte	.LFE222
 4055 023c 0100     		.2byte	0x1
 4056 023e 53       		.byte	0x53
 4057 023f 00000000 		.4byte	0
 4058 0243 00000000 		.4byte	0
 4059              	.LLST18:
 4060 0247 00000000 		.4byte	.LVL29
 4061 024b 08000000 		.4byte	.LVL30
 4062 024f 0100     		.2byte	0x1
 4063 0251 50       		.byte	0x50
 4064 0252 08000000 		.4byte	.LVL30
 4065 0256 0A000000 		.4byte	.LVL31
 4066 025a 0100     		.2byte	0x1
 4067 025c 53       		.byte	0x53
 4068 025d 0A000000 		.4byte	.LVL31
 4069 0261 16000000 		.4byte	.LVL32
 4070 0265 0100     		.2byte	0x1
 4071 0267 50       		.byte	0x50
 4072 0268 16000000 		.4byte	.LVL32
 4073 026c 20000000 		.4byte	.LFE223
 4074 0270 0100     		.2byte	0x1
 4075 0272 53       		.byte	0x53
 4076 0273 00000000 		.4byte	0
 4077 0277 00000000 		.4byte	0
 4078              	.LLST19:
 4079 027b 0A000000 		.4byte	.LVL31
 4080 027f 16000000 		.4byte	.LVL32
 4081 0283 0100     		.2byte	0x1
 4082 0285 50       		.byte	0x50
 4083 0286 16000000 		.4byte	.LVL32
 4084 028a 20000000 		.4byte	.LFE223
 4085 028e 0100     		.2byte	0x1
 4086 0290 53       		.byte	0x53
 4087 0291 00000000 		.4byte	0
 4088 0295 00000000 		.4byte	0
 4089              	.LLST20:
 4090 0299 00000000 		.4byte	.LVL33
 4091 029d 34000000 		.4byte	.LVL42
 4092 02a1 0100     		.2byte	0x1
 4093 02a3 50       		.byte	0x50
 4094 02a4 34000000 		.4byte	.LVL42
 4095 02a8 41000000 		.4byte	.LVL43-1
 4096 02ac 0100     		.2byte	0x1
 4097 02ae 53       		.byte	0x53
 4098 02af 41000000 		.4byte	.LVL43-1
 4099 02b3 4A000000 		.4byte	.LVL45
 4100 02b7 0400     		.2byte	0x4
 4101 02b9 F3       		.byte	0xf3
 4102 02ba 01       		.uleb128 0x1
 4103 02bb 50       		.byte	0x50
 4104 02bc 9F       		.byte	0x9f
ARM GAS  /tmp/cc4pbleD.s 			page 73


 4105 02bd 4A000000 		.4byte	.LVL45
 4106 02c1 58000000 		.4byte	.LFE224
 4107 02c5 0100     		.2byte	0x1
 4108 02c7 50       		.byte	0x50
 4109 02c8 00000000 		.4byte	0
 4110 02cc 00000000 		.4byte	0
 4111              	.LLST21:
 4112 02d0 06000000 		.4byte	.LVL34
 4113 02d4 52000000 		.4byte	.LVL46
 4114 02d8 0100     		.2byte	0x1
 4115 02da 55       		.byte	0x55
 4116 02db 00000000 		.4byte	0
 4117 02df 00000000 		.4byte	0
 4118              	.LLST22:
 4119 02e3 14000000 		.4byte	.LVL36
 4120 02e7 2C000000 		.4byte	.LVL40
 4121 02eb 0100     		.2byte	0x1
 4122 02ed 53       		.byte	0x53
 4123 02ee 00000000 		.4byte	0
 4124 02f2 00000000 		.4byte	0
 4125              	.LLST23:
 4126 02f6 0E000000 		.4byte	.LVL35
 4127 02fa 34000000 		.4byte	.LVL42
 4128 02fe 0100     		.2byte	0x1
 4129 0300 50       		.byte	0x50
 4130 0301 34000000 		.4byte	.LVL42
 4131 0305 41000000 		.4byte	.LVL43-1
 4132 0309 0100     		.2byte	0x1
 4133 030b 53       		.byte	0x53
 4134 030c 41000000 		.4byte	.LVL43-1
 4135 0310 4A000000 		.4byte	.LVL45
 4136 0314 0400     		.2byte	0x4
 4137 0316 F3       		.byte	0xf3
 4138 0317 01       		.uleb128 0x1
 4139 0318 50       		.byte	0x50
 4140 0319 9F       		.byte	0x9f
 4141 031a 4A000000 		.4byte	.LVL45
 4142 031e 58000000 		.4byte	.LFE224
 4143 0322 0100     		.2byte	0x1
 4144 0324 50       		.byte	0x50
 4145 0325 00000000 		.4byte	0
 4146 0329 00000000 		.4byte	0
 4147              	.LLST25:
 4148 032d 14000000 		.4byte	.LVL36
 4149 0331 41000000 		.4byte	.LVL43-1
 4150 0335 0100     		.2byte	0x1
 4151 0337 51       		.byte	0x51
 4152 0338 00000000 		.4byte	0
 4153 033c 00000000 		.4byte	0
 4154              	.LLST26:
 4155 0340 16000000 		.4byte	.LVL37
 4156 0344 26000000 		.4byte	.LVL39
 4157 0348 0100     		.2byte	0x1
 4158 034a 53       		.byte	0x53
 4159 034b 00000000 		.4byte	0
 4160 034f 00000000 		.4byte	0
 4161              	.LLST28:
ARM GAS  /tmp/cc4pbleD.s 			page 74


 4162 0353 32000000 		.4byte	.LVL41
 4163 0357 41000000 		.4byte	.LVL43-1
 4164 035b 0100     		.2byte	0x1
 4165 035d 53       		.byte	0x53
 4166 035e 41000000 		.4byte	.LVL43-1
 4167 0362 4A000000 		.4byte	.LVL45
 4168 0366 0400     		.2byte	0x4
 4169 0368 F3       		.byte	0xf3
 4170 0369 01       		.uleb128 0x1
 4171 036a 50       		.byte	0x50
 4172 036b 9F       		.byte	0x9f
 4173 036c 00000000 		.4byte	0
 4174 0370 00000000 		.4byte	0
 4175              	.LLST29:
 4176 0374 32000000 		.4byte	.LVL41
 4177 0378 4A000000 		.4byte	.LVL45
 4178 037c 0100     		.2byte	0x1
 4179 037e 54       		.byte	0x54
 4180 037f 00000000 		.4byte	0
 4181 0383 00000000 		.4byte	0
 4182              	.LLST30:
 4183 0387 00000000 		.4byte	.LVL47
 4184 038b 0A000000 		.4byte	.LVL48
 4185 038f 0100     		.2byte	0x1
 4186 0391 50       		.byte	0x50
 4187 0392 0A000000 		.4byte	.LVL48
 4188 0396 3E000000 		.4byte	.LVL57
 4189 039a 0100     		.2byte	0x1
 4190 039c 54       		.byte	0x54
 4191 039d 3E000000 		.4byte	.LVL57
 4192 03a1 41000000 		.4byte	.LVL58-1
 4193 03a5 0200     		.2byte	0x2
 4194 03a7 70       		.byte	0x70
 4195 03a8 3C       		.sleb128 60
 4196 03a9 41000000 		.4byte	.LVL58-1
 4197 03ad 42000000 		.4byte	.LVL58
 4198 03b1 0400     		.2byte	0x4
 4199 03b3 F3       		.byte	0xf3
 4200 03b4 01       		.uleb128 0x1
 4201 03b5 50       		.byte	0x50
 4202 03b6 9F       		.byte	0x9f
 4203 03b7 42000000 		.4byte	.LVL58
 4204 03bb 48000000 		.4byte	.LVL59
 4205 03bf 0100     		.2byte	0x1
 4206 03c1 54       		.byte	0x54
 4207 03c2 48000000 		.4byte	.LVL59
 4208 03c6 50000000 		.4byte	.LFE225
 4209 03ca 0400     		.2byte	0x4
 4210 03cc F3       		.byte	0xf3
 4211 03cd 01       		.uleb128 0x1
 4212 03ce 50       		.byte	0x50
 4213 03cf 9F       		.byte	0x9f
 4214 03d0 00000000 		.4byte	0
 4215 03d4 00000000 		.4byte	0
 4216              	.LLST31:
 4217 03d8 0A000000 		.4byte	.LVL48
 4218 03dc 34000000 		.4byte	.LVL56
ARM GAS  /tmp/cc4pbleD.s 			page 75


 4219 03e0 0100     		.2byte	0x1
 4220 03e2 50       		.byte	0x50
 4221 03e3 42000000 		.4byte	.LVL58
 4222 03e7 50000000 		.4byte	.LFE225
 4223 03eb 0100     		.2byte	0x1
 4224 03ed 50       		.byte	0x50
 4225 03ee 00000000 		.4byte	0
 4226 03f2 00000000 		.4byte	0
 4227              	.LLST32:
 4228 03f6 14000000 		.4byte	.LVL50
 4229 03fa 2C000000 		.4byte	.LVL54
 4230 03fe 0100     		.2byte	0x1
 4231 0400 53       		.byte	0x53
 4232 0401 00000000 		.4byte	0
 4233 0405 00000000 		.4byte	0
 4234              	.LLST33:
 4235 0409 0E000000 		.4byte	.LVL49
 4236 040d 3E000000 		.4byte	.LVL57
 4237 0411 0100     		.2byte	0x1
 4238 0413 54       		.byte	0x54
 4239 0414 3E000000 		.4byte	.LVL57
 4240 0418 41000000 		.4byte	.LVL58-1
 4241 041c 0200     		.2byte	0x2
 4242 041e 70       		.byte	0x70
 4243 041f 3C       		.sleb128 60
 4244 0420 41000000 		.4byte	.LVL58-1
 4245 0424 42000000 		.4byte	.LVL58
 4246 0428 0400     		.2byte	0x4
 4247 042a F3       		.byte	0xf3
 4248 042b 01       		.uleb128 0x1
 4249 042c 50       		.byte	0x50
 4250 042d 9F       		.byte	0x9f
 4251 042e 42000000 		.4byte	.LVL58
 4252 0432 48000000 		.4byte	.LVL59
 4253 0436 0100     		.2byte	0x1
 4254 0438 54       		.byte	0x54
 4255 0439 48000000 		.4byte	.LVL59
 4256 043d 50000000 		.4byte	.LFE225
 4257 0441 0400     		.2byte	0x4
 4258 0443 F3       		.byte	0xf3
 4259 0444 01       		.uleb128 0x1
 4260 0445 50       		.byte	0x50
 4261 0446 9F       		.byte	0x9f
 4262 0447 00000000 		.4byte	0
 4263 044b 00000000 		.4byte	0
 4264              	.LLST35:
 4265 044f 14000000 		.4byte	.LVL50
 4266 0453 41000000 		.4byte	.LVL58-1
 4267 0457 0100     		.2byte	0x1
 4268 0459 51       		.byte	0x51
 4269 045a 00000000 		.4byte	0
 4270 045e 00000000 		.4byte	0
 4271              	.LLST36:
 4272 0462 16000000 		.4byte	.LVL51
 4273 0466 26000000 		.4byte	.LVL53
 4274 046a 0100     		.2byte	0x1
 4275 046c 53       		.byte	0x53
ARM GAS  /tmp/cc4pbleD.s 			page 76


 4276 046d 00000000 		.4byte	0
 4277 0471 00000000 		.4byte	0
 4278              	.LLST38:
 4279 0475 30000000 		.4byte	.LVL55
 4280 0479 3E000000 		.4byte	.LVL57
 4281 047d 0100     		.2byte	0x1
 4282 047f 54       		.byte	0x54
 4283 0480 3E000000 		.4byte	.LVL57
 4284 0484 41000000 		.4byte	.LVL58-1
 4285 0488 0200     		.2byte	0x2
 4286 048a 70       		.byte	0x70
 4287 048b 3C       		.sleb128 60
 4288 048c 41000000 		.4byte	.LVL58-1
 4289 0490 42000000 		.4byte	.LVL58
 4290 0494 0400     		.2byte	0x4
 4291 0496 F3       		.byte	0xf3
 4292 0497 01       		.uleb128 0x1
 4293 0498 50       		.byte	0x50
 4294 0499 9F       		.byte	0x9f
 4295 049a 00000000 		.4byte	0
 4296 049e 00000000 		.4byte	0
 4297              	.LLST39:
 4298 04a2 30000000 		.4byte	.LVL55
 4299 04a6 3E000000 		.4byte	.LVL57
 4300 04aa 0100     		.2byte	0x1
 4301 04ac 55       		.byte	0x55
 4302 04ad 3E000000 		.4byte	.LVL57
 4303 04b1 41000000 		.4byte	.LVL58-1
 4304 04b5 0100     		.2byte	0x1
 4305 04b7 50       		.byte	0x50
 4306 04b8 00000000 		.4byte	0
 4307 04bc 00000000 		.4byte	0
 4308              	.LLST40:
 4309 04c0 06000000 		.4byte	.LVL60
 4310 04c4 46000000 		.4byte	.LVL69
 4311 04c8 0100     		.2byte	0x1
 4312 04ca 54       		.byte	0x54
 4313 04cb 00000000 		.4byte	0
 4314 04cf 00000000 		.4byte	0
 4315              	.LLST41:
 4316 04d3 10000000 		.4byte	.LVL61
 4317 04d7 21000000 		.4byte	.LVL62-1
 4318 04db 0100     		.2byte	0x1
 4319 04dd 53       		.byte	0x53
 4320 04de 26000000 		.4byte	.LVL63
 4321 04e2 36000000 		.4byte	.LVL66
 4322 04e6 0100     		.2byte	0x1
 4323 04e8 53       		.byte	0x53
 4324 04e9 00000000 		.4byte	0
 4325 04ed 00000000 		.4byte	0
 4326              	.LLST43:
 4327 04f1 10000000 		.4byte	.LVL61
 4328 04f5 21000000 		.4byte	.LVL62-1
 4329 04f9 0100     		.2byte	0x1
 4330 04fb 50       		.byte	0x50
 4331 04fc 28000000 		.4byte	.LVL64
 4332 0500 3A000000 		.4byte	.LVL67
ARM GAS  /tmp/cc4pbleD.s 			page 77


 4333 0504 0100     		.2byte	0x1
 4334 0506 52       		.byte	0x52
 4335 0507 00000000 		.4byte	0
 4336 050b 00000000 		.4byte	0
 4337              	.LLST44:
 4338 050f 10000000 		.4byte	.LVL61
 4339 0513 21000000 		.4byte	.LVL62-1
 4340 0517 0100     		.2byte	0x1
 4341 0519 53       		.byte	0x53
 4342 051a 2C000000 		.4byte	.LVL65
 4343 051e 36000000 		.4byte	.LVL66
 4344 0522 0100     		.2byte	0x1
 4345 0524 53       		.byte	0x53
 4346 0525 00000000 		.4byte	0
 4347 0529 00000000 		.4byte	0
 4348              		.section	.debug_aranges,"",%progbits
 4349 0000 54000000 		.4byte	0x54
 4350 0004 0200     		.2byte	0x2
 4351 0006 00000000 		.4byte	.Ldebug_info0
 4352 000a 04       		.byte	0x4
 4353 000b 00       		.byte	0
 4354 000c 0000     		.2byte	0
 4355 000e 0000     		.2byte	0
 4356 0010 00000000 		.4byte	.LFB219
 4357 0014 0A000000 		.4byte	.LFE219-.LFB219
 4358 0018 00000000 		.4byte	.LFB221
 4359 001c C8000000 		.4byte	.LFE221-.LFB221
 4360 0020 00000000 		.4byte	.LFB220
 4361 0024 0C000000 		.4byte	.LFE220-.LFB220
 4362 0028 00000000 		.4byte	.LFB222
 4363 002c 24000000 		.4byte	.LFE222-.LFB222
 4364 0030 00000000 		.4byte	.LFB223
 4365 0034 20000000 		.4byte	.LFE223-.LFB223
 4366 0038 00000000 		.4byte	.LFB224
 4367 003c 58000000 		.4byte	.LFE224-.LFB224
 4368 0040 00000000 		.4byte	.LFB225
 4369 0044 50000000 		.4byte	.LFE225-.LFB225
 4370 0048 00000000 		.4byte	.LFB226
 4371 004c 4C000000 		.4byte	.LFE226-.LFB226
 4372 0050 00000000 		.4byte	0
 4373 0054 00000000 		.4byte	0
 4374              		.section	.debug_ranges,"",%progbits
 4375              	.Ldebug_ranges0:
 4376 0000 0C000000 		.4byte	.LBB105
 4377 0004 44000000 		.4byte	.LBE105
 4378 0008 48000000 		.4byte	.LBB124
 4379 000c B8000000 		.4byte	.LBE124
 4380 0010 00000000 		.4byte	0
 4381 0014 00000000 		.4byte	0
 4382 0018 4C000000 		.4byte	.LBB108
 4383 001c 54000000 		.4byte	.LBE108
 4384 0020 56000000 		.4byte	.LBB111
 4385 0024 58000000 		.4byte	.LBE111
 4386 0028 00000000 		.4byte	0
 4387 002c 00000000 		.4byte	0
 4388 0030 5E000000 		.4byte	.LBB112
 4389 0034 64000000 		.4byte	.LBE112
ARM GAS  /tmp/cc4pbleD.s 			page 78


 4390 0038 66000000 		.4byte	.LBB115
 4391 003c 6A000000 		.4byte	.LBE115
 4392 0040 00000000 		.4byte	0
 4393 0044 00000000 		.4byte	0
 4394 0048 86000000 		.4byte	.LBB118
 4395 004c 8C000000 		.4byte	.LBE118
 4396 0050 8E000000 		.4byte	.LBB121
 4397 0054 92000000 		.4byte	.LBE121
 4398 0058 00000000 		.4byte	0
 4399 005c 00000000 		.4byte	0
 4400 0060 04000000 		.4byte	.LBB151
 4401 0064 0A000000 		.4byte	.LBE151
 4402 0068 0E000000 		.4byte	.LBB165
 4403 006c 1C000000 		.4byte	.LBE165
 4404 0070 00000000 		.4byte	0
 4405 0074 00000000 		.4byte	0
 4406 0078 0A000000 		.4byte	.LBB156
 4407 007c 0C000000 		.4byte	.LBE156
 4408 0080 1C000000 		.4byte	.LBB166
 4409 0084 1E000000 		.4byte	.LBE166
 4410 0088 00000000 		.4byte	0
 4411 008c 00000000 		.4byte	0
 4412 0090 2C000000 		.4byte	.LBB184
 4413 0094 2E000000 		.4byte	.LBE184
 4414 0098 34000000 		.4byte	.LBB187
 4415 009c 38000000 		.4byte	.LBE187
 4416 00a0 00000000 		.4byte	0
 4417 00a4 00000000 		.4byte	0
 4418 00a8 46000000 		.4byte	.LBB188
 4419 00ac 4A000000 		.4byte	.LBE188
 4420 00b0 4E000000 		.4byte	.LBB197
 4421 00b4 58000000 		.4byte	.LBE197
 4422 00b8 00000000 		.4byte	0
 4423 00bc 00000000 		.4byte	0
 4424 00c0 12000000 		.4byte	.LBB202
 4425 00c4 3C000000 		.4byte	.LBE202
 4426 00c8 3E000000 		.4byte	.LBB213
 4427 00cc 42000000 		.4byte	.LBE213
 4428 00d0 00000000 		.4byte	0
 4429 00d4 00000000 		.4byte	0
 4430 00d8 2A000000 		.4byte	.LBB207
 4431 00dc 2C000000 		.4byte	.LBE207
 4432 00e0 30000000 		.4byte	.LBB211
 4433 00e4 32000000 		.4byte	.LBE211
 4434 00e8 34000000 		.4byte	.LBB212
 4435 00ec 36000000 		.4byte	.LBE212
 4436 00f0 00000000 		.4byte	0
 4437 00f4 00000000 		.4byte	0
 4438 00f8 0C000000 		.4byte	.LBB218
 4439 00fc 22000000 		.4byte	.LBE218
 4440 0100 26000000 		.4byte	.LBB229
 4441 0104 34000000 		.4byte	.LBE229
 4442 0108 00000000 		.4byte	0
 4443 010c 00000000 		.4byte	0
 4444 0110 10000000 		.4byte	.LBB219
 4445 0114 22000000 		.4byte	.LBE219
 4446 0118 2E000000 		.4byte	.LBB228
ARM GAS  /tmp/cc4pbleD.s 			page 79


 4447 011c 30000000 		.4byte	.LBE228
 4448 0120 00000000 		.4byte	0
 4449 0124 00000000 		.4byte	0
 4450 0128 10000000 		.4byte	.LBB220
 4451 012c 12000000 		.4byte	.LBE220
 4452 0130 14000000 		.4byte	.LBB223
 4453 0134 18000000 		.4byte	.LBE223
 4454 0138 00000000 		.4byte	0
 4455 013c 00000000 		.4byte	0
 4456 0140 00000000 		.4byte	.LFB219
 4457 0144 0A000000 		.4byte	.LFE219
 4458 0148 00000000 		.4byte	.LFB221
 4459 014c C8000000 		.4byte	.LFE221
 4460 0150 00000000 		.4byte	.LFB220
 4461 0154 0C000000 		.4byte	.LFE220
 4462 0158 00000000 		.4byte	.LFB222
 4463 015c 24000000 		.4byte	.LFE222
 4464 0160 00000000 		.4byte	.LFB223
 4465 0164 20000000 		.4byte	.LFE223
 4466 0168 00000000 		.4byte	.LFB224
 4467 016c 58000000 		.4byte	.LFE224
 4468 0170 00000000 		.4byte	.LFB225
 4469 0174 50000000 		.4byte	.LFE225
 4470 0178 00000000 		.4byte	.LFB226
 4471 017c 4C000000 		.4byte	.LFE226
 4472 0180 00000000 		.4byte	0
 4473 0184 00000000 		.4byte	0
 4474              		.section	.debug_line,"",%progbits
 4475              	.Ldebug_line0:
 4476 0000 20040000 		.section	.debug_str,"MS",%progbits,1
 4476      0200B701 
 4476      00000201 
 4476      FB0E0D00 
 4476      01010101 
 4477              	.LASF20:
 4478 0000 74726566 		.ascii	"trefs_t\000"
 4478      735F7400 
 4479              	.LASF53:
 4480 0008 72656164 		.ascii	"ready_list_t\000"
 4480      795F6C69 
 4480      73745F74 
 4480      00
 4481              	.LASF91:
 4482 0015 77747472 		.ascii	"wttrp\000"
 4482      7000
 4483              	.LASF88:
 4484 001b 7264796D 		.ascii	"rdymsg\000"
 4484      736700
 4485              	.LASF16:
 4486 0022 75696E74 		.ascii	"uint64_t\000"
 4486      36345F74 
 4486      00
 4487              	.LASF5:
 4488 002b 5F5F7569 		.ascii	"__uint8_t\000"
 4488      6E74385F 
 4488      7400
 4489              	.LASF85:
ARM GAS  /tmp/cc4pbleD.s 			page 80


 4490 0035 706F7274 		.ascii	"port_intctx\000"
 4490      5F696E74 
 4490      63747800 
 4491              	.LASF72:
 4492 0041 73797374 		.ascii	"system_debug_t\000"
 4492      656D5F64 
 4492      65627567 
 4492      5F7400
 4493              	.LASF111:
 4494 0050 71756575 		.ascii	"queue_init\000"
 4494      655F696E 
 4494      697400
 4495              	.LASF106:
 4496 005b 706F7274 		.ascii	"port_lock\000"
 4496      5F6C6F63 
 4496      6B00
 4497              	.LASF12:
 4498 0065 6C6F6E67 		.ascii	"long long unsigned int\000"
 4498      206C6F6E 
 4498      6720756E 
 4498      7369676E 
 4498      65642069 
 4499              	.LASF89:
 4500 007c 65786974 		.ascii	"exitcode\000"
 4500      636F6465 
 4500      00
 4501              	.LASF79:
 4502 0085 6D61696E 		.ascii	"mainthread\000"
 4502      74687265 
 4502      616400
 4503              	.LASF69:
 4504 0090 76697274 		.ascii	"virtual_timers_list_t\000"
 4504      75616C5F 
 4504      74696D65 
 4504      72735F6C 
 4504      6973745F 
 4505              	.LASF126:
 4506 00a6 49544D5F 		.ascii	"ITM_RxBuffer\000"
 4506      52784275 
 4506      66666572 
 4506      00
 4507              	.LASF52:
 4508 00b3 63685F74 		.ascii	"ch_threads_queue\000"
 4508      68726561 
 4508      64735F71 
 4508      75657565 
 4508      00
 4509              	.LASF30:
 4510 00c4 705F7072 		.ascii	"p_prio\000"
 4510      696F00
 4511              	.LASF103:
 4512 00cb 6D757465 		.ascii	"mutex_t\000"
 4512      785F7400 
 4513              	.LASF122:
 4514 00d3 63684D74 		.ascii	"chMtxUnlock\000"
 4514      78556E6C 
 4514      6F636B00 
ARM GAS  /tmp/cc4pbleD.s 			page 81


 4515              	.LASF1:
 4516 00df 7369676E 		.ascii	"signed char\000"
 4516      65642063 
 4516      68617200 
 4517              	.LASF130:
 4518 00eb 2F686F6D 		.ascii	"/home/benjamin/Skrivbord/SP-RCCar/Embedded/RC_Contr"
 4518      652F6265 
 4518      6E6A616D 
 4518      696E2F53 
 4518      6B726976 
 4519 011e 6F6C6C65 		.ascii	"oller/\000"
 4519      722F00
 4520              	.LASF46:
 4521 0125 705F6D70 		.ascii	"p_mpool\000"
 4521      6F6F6C00 
 4522              	.LASF99:
 4523 012d 6D5F7175 		.ascii	"m_queue\000"
 4523      65756500 
 4524              	.LASF78:
 4525 0135 76746C69 		.ascii	"vtlist\000"
 4525      737400
 4526              	.LASF107:
 4527 013c 706F7274 		.ascii	"port_unlock\000"
 4527      5F756E6C 
 4527      6F636B00 
 4528              	.LASF21:
 4529 0148 74736C69 		.ascii	"tslices_t\000"
 4529      6365735F 
 4529      7400
 4530              	.LASF76:
 4531 0152 63685F73 		.ascii	"ch_system\000"
 4531      79737465 
 4531      6D00
 4532              	.LASF7:
 4533 015c 6C6F6E67 		.ascii	"long int\000"
 4533      20696E74 
 4533      00
 4534              	.LASF110:
 4535 0165 71756575 		.ascii	"queue_dequeue\000"
 4535      655F6465 
 4535      71756575 
 4535      6500
 4536              	.LASF19:
 4537 0173 74737461 		.ascii	"tstate_t\000"
 4537      74655F74 
 4537      00
 4538              	.LASF109:
 4539 017c 71756575 		.ascii	"queue_notempty\000"
 4539      655F6E6F 
 4539      74656D70 
 4539      747900
 4540              	.LASF116:
 4541 018b 63684D74 		.ascii	"chMtxTryLockS\000"
 4541      78547279 
 4541      4C6F636B 
 4541      5300
 4542              	.LASF32:
ARM GAS  /tmp/cc4pbleD.s 			page 82


 4543 0199 705F6E65 		.ascii	"p_newer\000"
 4543      77657200 
 4544              	.LASF96:
 4545 01a1 735F7175 		.ascii	"s_queue\000"
 4545      65756500 
 4546              	.LASF133:
 4547 01a9 63685363 		.ascii	"chSchRescheduleS\000"
 4547      68526573 
 4547      63686564 
 4547      756C6553 
 4547      00
 4548              	.LASF58:
 4549 01ba 725F6E65 		.ascii	"r_newer\000"
 4549      77657200 
 4550              	.LASF82:
 4551 01c2 72656761 		.ascii	"regarm_t\000"
 4551      726D5F74 
 4551      00
 4552              	.LASF65:
 4553 01cb 76745F70 		.ascii	"vt_prev\000"
 4553      72657600 
 4554              	.LASF10:
 4555 01d3 6C6F6E67 		.ascii	"long long int\000"
 4555      206C6F6E 
 4555      6720696E 
 4555      7400
 4556              	.LASF80:
 4557 01e1 69646C65 		.ascii	"idle_thread_wa\000"
 4557      5F746872 
 4557      6561645F 
 4557      776100
 4558              	.LASF25:
 4559 01f0 636E745F 		.ascii	"cnt_t\000"
 4559      7400
 4560              	.LASF124:
 4561 01f6 63684D74 		.ascii	"chMtxUnlockS\000"
 4561      78556E6C 
 4561      6F636B53 
 4561      00
 4562              	.LASF0:
 4563 0203 756E7369 		.ascii	"unsigned int\000"
 4563      676E6564 
 4563      20696E74 
 4563      00
 4564              	.LASF64:
 4565 0210 76745F6E 		.ascii	"vt_next\000"
 4565      65787400 
 4566              	.LASF39:
 4567 0218 705F7469 		.ascii	"p_time\000"
 4567      6D6500
 4568              	.LASF92:
 4569 021f 77747365 		.ascii	"wtsemp\000"
 4569      6D7000
 4570              	.LASF66:
 4571 0226 76745F64 		.ascii	"vt_delta\000"
 4571      656C7461 
 4571      00
ARM GAS  /tmp/cc4pbleD.s 			page 83


 4572              	.LASF41:
 4573 022f 705F6D73 		.ascii	"p_msgqueue\000"
 4573      67717565 
 4573      756500
 4574              	.LASF97:
 4575 023a 735F636E 		.ascii	"s_cnt\000"
 4575      7400
 4576              	.LASF4:
 4577 0240 73686F72 		.ascii	"short unsigned int\000"
 4577      7420756E 
 4577      7369676E 
 4577      65642069 
 4577      6E7400
 4578              	.LASF49:
 4579 0253 63685F74 		.ascii	"ch_thread\000"
 4579      68726561 
 4579      6400
 4580              	.LASF23:
 4581 025d 6D73675F 		.ascii	"msg_t\000"
 4581      7400
 4582              	.LASF75:
 4583 0263 63685F73 		.ascii	"ch_system_t\000"
 4583      79737465 
 4583      6D5F7400 
 4584              	.LASF125:
 4585 026f 63684D74 		.ascii	"chMtxUnlockAll\000"
 4585      78556E6C 
 4585      6F636B41 
 4585      6C6C00
 4586              	.LASF123:
 4587 027e 6E657770 		.ascii	"newprio\000"
 4587      72696F00 
 4588              	.LASF18:
 4589 0286 746D6F64 		.ascii	"tmode_t\000"
 4589      655F7400 
 4590              	.LASF54:
 4591 028e 63685F72 		.ascii	"ch_ready_list\000"
 4591      65616479 
 4591      5F6C6973 
 4591      7400
 4592              	.LASF24:
 4593 029c 6576656E 		.ascii	"eventmask_t\000"
 4593      746D6173 
 4593      6B5F7400 
 4594              	.LASF131:
 4595 02a8 63684D74 		.ascii	"chMtxTryLock\000"
 4595      78547279 
 4595      4C6F636B 
 4595      00
 4596              	.LASF6:
 4597 02b5 5F5F696E 		.ascii	"__int32_t\000"
 4597      7433325F 
 4597      7400
 4598              	.LASF83:
 4599 02bf 73746B61 		.ascii	"stkalign_t\000"
 4599      6C69676E 
 4599      5F7400
ARM GAS  /tmp/cc4pbleD.s 			page 84


 4600              	.LASF48:
 4601 02ca 74687265 		.ascii	"threads_list_t\000"
 4601      6164735F 
 4601      6C697374 
 4601      5F7400
 4602              	.LASF40:
 4603 02d9 705F7761 		.ascii	"p_waiting\000"
 4603      6974696E 
 4603      6700
 4604              	.LASF81:
 4605 02e3 73697A65 		.ascii	"sizetype\000"
 4605      74797065 
 4605      00
 4606              	.LASF47:
 4607 02ec 74687265 		.ascii	"thread_reference_t\000"
 4607      61645F72 
 4607      65666572 
 4607      656E6365 
 4607      5F7400
 4608              	.LASF70:
 4609 02ff 63685F76 		.ascii	"ch_virtual_timers_list\000"
 4609      69727475 
 4609      616C5F74 
 4609      696D6572 
 4609      735F6C69 
 4610              	.LASF121:
 4611 0316 63684D74 		.ascii	"chMtxLock\000"
 4611      784C6F63 
 4611      6B00
 4612              	.LASF33:
 4613 0320 705F6F6C 		.ascii	"p_older\000"
 4613      64657200 
 4614              	.LASF57:
 4615 0328 725F6374 		.ascii	"r_ctx\000"
 4615      7800
 4616              	.LASF87:
 4617 032e 746D5F63 		.ascii	"tm_calibration_t\000"
 4617      616C6962 
 4617      72617469 
 4617      6F6E5F74 
 4617      00
 4618              	.LASF101:
 4619 033f 6D5F6E65 		.ascii	"m_next\000"
 4619      787400
 4620              	.LASF60:
 4621 0346 725F6375 		.ascii	"r_current\000"
 4621      7272656E 
 4621      7400
 4622              	.LASF59:
 4623 0350 725F6F6C 		.ascii	"r_older\000"
 4623      64657200 
 4624              	.LASF105:
 4625 0358 5F5F656E 		.ascii	"__enable_irq\000"
 4625      61626C65 
 4625      5F697271 
 4625      00
 4626              	.LASF11:
ARM GAS  /tmp/cc4pbleD.s 			page 85


 4627 0365 5F5F7569 		.ascii	"__uint64_t\000"
 4627      6E743634 
 4627      5F7400
 4628              	.LASF104:
 4629 0370 5F5F6469 		.ascii	"__disable_irq\000"
 4629      7361626C 
 4629      655F6972 
 4629      7100
 4630              	.LASF62:
 4631 037e 76697274 		.ascii	"virtual_timer_t\000"
 4631      75616C5F 
 4631      74696D65 
 4631      725F7400 
 4632              	.LASF29:
 4633 038e 705F7072 		.ascii	"p_prev\000"
 4633      657600
 4634              	.LASF22:
 4635 0395 74707269 		.ascii	"tprio_t\000"
 4635      6F5F7400 
 4636              	.LASF119:
 4637 039d 63684D74 		.ascii	"chMtxObjectInit\000"
 4637      784F626A 
 4637      65637449 
 4637      6E697400 
 4638              	.LASF73:
 4639 03ad 63685F73 		.ascii	"ch_system_debug\000"
 4639      79737465 
 4639      6D5F6465 
 4639      62756700 
 4640              	.LASF108:
 4641 03bd 5F426F6F 		.ascii	"_Bool\000"
 4641      6C00
 4642              	.LASF14:
 4643 03c3 696E7433 		.ascii	"int32_t\000"
 4643      325F7400 
 4644              	.LASF2:
 4645 03cb 756E7369 		.ascii	"unsigned char\000"
 4645      676E6564 
 4645      20636861 
 4645      7200
 4646              	.LASF35:
 4647 03d9 705F7374 		.ascii	"p_state\000"
 4647      61746500 
 4648              	.LASF44:
 4649 03e1 705F6D74 		.ascii	"p_mtxlist\000"
 4649      786C6973 
 4649      7400
 4650              	.LASF3:
 4651 03eb 73686F72 		.ascii	"short int\000"
 4651      7420696E 
 4651      7400
 4652              	.LASF38:
 4653 03f5 705F7072 		.ascii	"p_preempt\000"
 4653      65656D70 
 4653      7400
 4654              	.LASF56:
 4655 03ff 725F7072 		.ascii	"r_prio\000"
ARM GAS  /tmp/cc4pbleD.s 			page 86


 4655      696F00
 4656              	.LASF94:
 4657 0406 65776D61 		.ascii	"ewmask\000"
 4657      736B00
 4658              	.LASF28:
 4659 040d 705F6E65 		.ascii	"p_next\000"
 4659      787400
 4660              	.LASF36:
 4661 0414 705F666C 		.ascii	"p_flags\000"
 4661      61677300 
 4662              	.LASF115:
 4663 041c 5F5F6675 		.ascii	"__func__\000"
 4663      6E635F5F 
 4663      00
 4664              	.LASF113:
 4665 0425 63685379 		.ascii	"chSysLock\000"
 4665      734C6F63 
 4665      6B00
 4666              	.LASF63:
 4667 042f 63685F76 		.ascii	"ch_virtual_timer\000"
 4667      69727475 
 4667      616C5F74 
 4667      696D6572 
 4667      00
 4668              	.LASF95:
 4669 0440 63685F73 		.ascii	"ch_semaphore\000"
 4669      656D6170 
 4669      686F7265 
 4669      00
 4670              	.LASF132:
 4671 044d 63685363 		.ascii	"chSchGoSleepS\000"
 4671      68476F53 
 4671      6C656570 
 4671      5300
 4672              	.LASF43:
 4673 045b 705F6570 		.ascii	"p_epending\000"
 4673      656E6469 
 4673      6E6700
 4674              	.LASF15:
 4675 0466 75696E74 		.ascii	"uint32_t\000"
 4675      33325F74 
 4675      00
 4676              	.LASF93:
 4677 046f 77746D74 		.ascii	"wtmtxp\000"
 4677      787000
 4678              	.LASF55:
 4679 0476 725F7175 		.ascii	"r_queue\000"
 4679      65756500 
 4680              	.LASF127:
 4681 047e 63685363 		.ascii	"chSchReadyI\000"
 4681      68526561 
 4681      64794900 
 4682              	.LASF50:
 4683 048a 63685F74 		.ascii	"ch_threads_list\000"
 4683      68726561 
 4683      64735F6C 
 4683      69737400 
ARM GAS  /tmp/cc4pbleD.s 			page 87


 4684              	.LASF9:
 4685 049a 6C6F6E67 		.ascii	"long unsigned int\000"
 4685      20756E73 
 4685      69676E65 
 4685      6420696E 
 4685      7400
 4686              	.LASF102:
 4687 04ac 63686172 		.ascii	"char\000"
 4687      00
 4688              	.LASF128:
 4689 04b1 474E5520 		.ascii	"GNU C 4.9.3 20150529 (release) [ARM/embedded-4_9-br"
 4689      4320342E 
 4689      392E3320 
 4689      32303135 
 4689      30353239 
 4690 04e4 616E6368 		.ascii	"anch revision 227977] -mcpu=cortex-m4 -mfloat-abi=h"
 4690      20726576 
 4690      6973696F 
 4690      6E203232 
 4690      37393737 
 4691 0517 61726420 		.ascii	"ard -mfpu=fpv4-sp-d16 -mno-thumb-interwork -mthumb "
 4691      2D6D6670 
 4691      753D6670 
 4691      76342D73 
 4691      702D6431 
 4692 054a 2D676764 		.ascii	"-ggdb -O2 -std=gnu99 -fomit-frame-pointer -falign-f"
 4692      62202D4F 
 4692      32202D73 
 4692      74643D67 
 4692      6E753939 
 4693 057d 756E6374 		.ascii	"unctions=16 -ffunction-sections -fdata-sections -fn"
 4693      696F6E73 
 4693      3D313620 
 4693      2D666675 
 4693      6E637469 
 4694 05b0 6F2D636F 		.ascii	"o-common -fsingle-precision-constant\000"
 4694      6D6D6F6E 
 4694      202D6673 
 4694      696E676C 
 4694      652D7072 
 4695              	.LASF118:
 4696 05d5 71756575 		.ascii	"queue_fifo_remove\000"
 4696      655F6669 
 4696      666F5F72 
 4696      656D6F76 
 4696      6500
 4697              	.LASF26:
 4698 05e7 73797374 		.ascii	"systime_t\000"
 4698      696D655F 
 4698      7400
 4699              	.LASF45:
 4700 05f1 705F7265 		.ascii	"p_realprio\000"
 4700      616C7072 
 4700      696F00
 4701              	.LASF61:
 4702 05fc 76746675 		.ascii	"vtfunc_t\000"
 4702      6E635F74 
ARM GAS  /tmp/cc4pbleD.s 			page 88


 4702      00
 4703              	.LASF8:
 4704 0605 5F5F7569 		.ascii	"__uint32_t\000"
 4704      6E743332 
 4704      5F7400
 4705              	.LASF117:
 4706 0610 63684D74 		.ascii	"chMtxQueueNotEmptyS\000"
 4706      78517565 
 4706      75654E6F 
 4706      74456D70 
 4706      74795300 
 4707              	.LASF74:
 4708 0624 70616E69 		.ascii	"panic_msg\000"
 4708      635F6D73 
 4708      6700
 4709              	.LASF86:
 4710 062e 6F666673 		.ascii	"offset\000"
 4710      657400
 4711              	.LASF129:
 4712 0635 43686962 		.ascii	"ChibiOS_3.0.2/os/rt/src/chmtx.c\000"
 4712      694F535F 
 4712      332E302E 
 4712      322F6F73 
 4712      2F72742F 
 4713              	.LASF84:
 4714 0655 636F6E74 		.ascii	"context\000"
 4714      65787400 
 4715              	.LASF17:
 4716 065d 7274636E 		.ascii	"rtcnt_t\000"
 4716      745F7400 
 4717              	.LASF68:
 4718 0665 76745F70 		.ascii	"vt_par\000"
 4718      617200
 4719              	.LASF51:
 4720 066c 74687265 		.ascii	"threads_queue_t\000"
 4720      6164735F 
 4720      71756575 
 4720      655F7400 
 4721              	.LASF98:
 4722 067c 63685F6D 		.ascii	"ch_mutex\000"
 4722      75746578 
 4722      00
 4723              	.LASF37:
 4724 0685 705F7265 		.ascii	"p_refs\000"
 4724      667300
 4725              	.LASF27:
 4726 068c 74687265 		.ascii	"thread_t\000"
 4726      61645F74 
 4726      00
 4727              	.LASF77:
 4728 0695 726C6973 		.ascii	"rlist\000"
 4728      7400
 4729              	.LASF13:
 4730 069b 75696E74 		.ascii	"uint8_t\000"
 4730      385F7400 
 4731              	.LASF90:
 4732 06a3 77746F62 		.ascii	"wtobjp\000"
ARM GAS  /tmp/cc4pbleD.s 			page 89


 4732      6A7000
 4733              	.LASF34:
 4734 06aa 705F6E61 		.ascii	"p_name\000"
 4734      6D6500
 4735              	.LASF71:
 4736 06b1 76745F73 		.ascii	"vt_systime\000"
 4736      79737469 
 4736      6D6500
 4737              	.LASF114:
 4738 06bc 63685379 		.ascii	"chSysUnlock\000"
 4738      73556E6C 
 4738      6F636B00 
 4739              	.LASF42:
 4740 06c8 705F6D73 		.ascii	"p_msg\000"
 4740      6700
 4741              	.LASF120:
 4742 06ce 63684D74 		.ascii	"chMtxLockS\000"
 4742      784C6F63 
 4742      6B5300
 4743              	.LASF112:
 4744 06d9 71756575 		.ascii	"queue_prio_insert\000"
 4744      655F7072 
 4744      696F5F69 
 4744      6E736572 
 4744      7400
 4745              	.LASF100:
 4746 06eb 6D5F6F77 		.ascii	"m_owner\000"
 4746      6E657200 
 4747              	.LASF31:
 4748 06f3 705F6374 		.ascii	"p_ctx\000"
 4748      7800
 4749              	.LASF67:
 4750 06f9 76745F66 		.ascii	"vt_func\000"
 4750      756E6300 
 4751              		.ident	"GCC: (GNU Tools for ARM Embedded Processors) 4.9.3 20150529 (release) [ARM/embedded-4_9-br
ARM GAS  /tmp/cc4pbleD.s 			page 90


DEFINED SYMBOLS
                            *ABS*:0000000000000000 chmtx.c
     /tmp/cc4pbleD.s:21     .text.chMtxObjectInit:0000000000000000 $t
     /tmp/cc4pbleD.s:27     .text.chMtxObjectInit:0000000000000000 chMtxObjectInit
     /tmp/cc4pbleD.s:54     .text.chMtxLockS:0000000000000000 $t
     /tmp/cc4pbleD.s:60     .text.chMtxLockS:0000000000000000 chMtxLockS
     /tmp/cc4pbleD.s:303    .text.chMtxLockS:00000000000000c4 $d
     /tmp/cc4pbleD.s:308    .text.chMtxLock:0000000000000000 $t
     /tmp/cc4pbleD.s:314    .text.chMtxLock:0000000000000000 chMtxLock
     /tmp/cc4pbleD.s:362    .text.chMtxTryLock:0000000000000000 $t
     /tmp/cc4pbleD.s:368    .text.chMtxTryLock:0000000000000000 chMtxTryLock
     /tmp/cc4pbleD.s:460    .text.chMtxTryLock:0000000000000020 $d
     /tmp/cc4pbleD.s:465    .text.chMtxTryLockS:0000000000000000 $t
     /tmp/cc4pbleD.s:471    .text.chMtxTryLockS:0000000000000000 chMtxTryLockS
     /tmp/cc4pbleD.s:509    .text.chMtxTryLockS:000000000000001c $d
     /tmp/cc4pbleD.s:516    .text.chMtxUnlock:0000000000000000 $t
     /tmp/cc4pbleD.s:522    .text.chMtxUnlock:0000000000000000 chMtxUnlock
     /tmp/cc4pbleD.s:679    .text.chMtxUnlock:0000000000000054 $d
     /tmp/cc4pbleD.s:689    .text.chMtxUnlockS:0000000000000000 $t
     /tmp/cc4pbleD.s:695    .text.chMtxUnlockS:0000000000000000 chMtxUnlockS
     /tmp/cc4pbleD.s:828    .text.chMtxUnlockS:000000000000004c $d
     /tmp/cc4pbleD.s:833    .text.chMtxUnlockAll:0000000000000000 $t
     /tmp/cc4pbleD.s:839    .text.chMtxUnlockAll:0000000000000000 chMtxUnlockAll
     /tmp/cc4pbleD.s:968    .text.chMtxUnlockAll:0000000000000048 $d
                     .debug_frame:0000000000000010 $d

UNDEFINED SYMBOLS
chSchGoSleepS
chSchReadyI
ch
chSchRescheduleS
