ARM GAS  /tmp/cc4pbleD.s 			page 1


   1              		.syntax unified
   2              		.cpu cortex-m4
   3              		.eabi_attribute 27, 1
   4              		.eabi_attribute 28, 1
   5              		.fpu fpv4-sp-d16
   6              		.eabi_attribute 20, 1
   7              		.eabi_attribute 21, 1
   8              		.eabi_attribute 23, 3
   9              		.eabi_attribute 24, 1
  10              		.eabi_attribute 25, 1
  11              		.eabi_attribute 26, 1
  12              		.eabi_attribute 30, 2
  13              		.eabi_attribute 34, 1
  14              		.eabi_attribute 18, 4
  15              		.thumb
  16              		.file	"chmtx.c"
  17              		.text
  18              	.Ltext0:
  19              		.cfi_sections	.debug_frame
  20              		.section	.text.chMtxObjectInit,"ax",%progbits
  21              		.align	2
  22              		.p2align 4,,15
  23              		.global	chMtxObjectInit
  24              		.thumb
  25              		.thumb_func
  26              		.type	chMtxObjectInit, %function
  27              	chMtxObjectInit:
  28              	.LFB219:
  29              		.file 1 "ChibiOS_3.0.2/os/rt/src/chmtx.c"
  30              		.loc 1 103 0
  31              		.cfi_startproc
  32              		@ args = 0, pretend = 0, frame = 0
  33              		@ frame_needed = 0, uses_anonymous_args = 0
  34              		@ link register save eliminated.
  35              	.LVL0:
  36              		.loc 1 108 0
  37 0000 0023     		movs	r3, #0
  38              	.LBB103:
  39              	.LBB104:
  40              		.file 2 "ChibiOS_3.0.2/os/rt/include/chschd.h"
  41              		.loc 2 604 0
  42 0002 0060     		str	r0, [r0]
  43              		.loc 2 605 0
  44 0004 4060     		str	r0, [r0, #4]
  45              	.LBE104:
  46              	.LBE103:
  47              		.loc 1 108 0
  48 0006 8360     		str	r3, [r0, #8]
  49 0008 7047     		bx	lr
  50              		.cfi_endproc
  51              	.LFE219:
  52              		.size	chMtxObjectInit, .-chMtxObjectInit
  53 000a 00BF     		.section	.text.chMtxLockS,"ax",%progbits
  54              		.align	2
  55              		.p2align 4,,15
  56              		.global	chMtxLockS
  57              		.thumb
ARM GAS  /tmp/cc4pbleD.s 			page 2


  58              		.thumb_func
  59              		.type	chMtxLockS, %function
  60              	chMtxLockS:
  61              	.LFB221:
  62              		.loc 1 139 0
  63              		.cfi_startproc
  64              		@ args = 0, pretend = 0, frame = 0
  65              		@ frame_needed = 0, uses_anonymous_args = 0
  66              	.LVL1:
  67              		.loc 1 140 0
  68 0000 304B     		ldr	r3, .L28
  69              		.loc 1 146 0
  70 0002 8268     		ldr	r2, [r0, #8]
  71              		.loc 1 139 0
  72 0004 70B5     		push	{r4, r5, r6, lr}
  73              		.cfi_def_cfa_offset 16
  74              		.cfi_offset 4, -16
  75              		.cfi_offset 5, -12
  76              		.cfi_offset 6, -8
  77              		.cfi_offset 14, -4
  78              		.loc 1 140 0
  79 0006 9C69     		ldr	r4, [r3, #24]
  80              	.LVL2:
  81              		.loc 1 146 0
  82 0008 002A     		cmp	r2, #0
  83 000a 55D0     		beq	.L3
  84              	.LBB105:
  85              		.loc 1 165 0
  86 000c A168     		ldr	r1, [r4, #8]
  87 000e 9368     		ldr	r3, [r2, #8]
  88 0010 9942     		cmp	r1, r3
  89 0012 0546     		mov	r5, r0
  90              	.LVL3:
  91 0014 06D9     		bls	.L5
  92              	.LVL4:
  93              	.L10:
  94              		.loc 1 170 0
  95 0016 137F     		ldrb	r3, [r2, #28]	@ zero_extendqisi2
  96              		.loc 1 167 0
  97 0018 9160     		str	r1, [r2, #8]
  98              		.loc 1 170 0
  99 001a 062B     		cmp	r3, #6
 100 001c 33D0     		beq	.L6
 101 001e 072B     		cmp	r3, #7
 102 0020 1DD0     		beq	.L7
 103 0022 9BB1     		cbz	r3, .L27
 104              	.LVL5:
 105              	.L5:
 106              	.LBB106:
 107              	.LBB107:
 108              		.loc 2 653 0
 109 0024 2B46     		mov	r3, r5
 110 0026 03E0     		b	.L18
 111              	.LVL6:
 112              	.L17:
 113              		.loc 2 656 0
 114 0028 9968     		ldr	r1, [r3, #8]
ARM GAS  /tmp/cc4pbleD.s 			page 3


 115 002a A268     		ldr	r2, [r4, #8]
 116 002c 9142     		cmp	r1, r2
 117 002e 02D3     		bcc	.L19
 118              	.L18:
 119              		.loc 2 655 0
 120 0030 1B68     		ldr	r3, [r3]
 121              	.LVL7:
 122              		.loc 2 656 0
 123 0032 9D42     		cmp	r5, r3
 124 0034 F8D1     		bne	.L17
 125              	.L19:
 126              		.loc 2 658 0
 127 0036 5A68     		ldr	r2, [r3, #4]
 128 0038 6260     		str	r2, [r4, #4]
 129              		.loc 2 657 0
 130 003a 2360     		str	r3, [r4]
 131              		.loc 2 659 0
 132 003c 1460     		str	r4, [r2]
 133              		.loc 2 660 0
 134 003e 5C60     		str	r4, [r3, #4]
 135              	.LBE107:
 136              	.LBE106:
 137              		.loc 1 213 0
 138 0040 6562     		str	r5, [r4, #36]
 139              		.loc 1 214 0
 140 0042 0620     		movs	r0, #6
 141              	.LBE105:
 142              		.loc 1 236 0
 143 0044 BDE87040 		pop	{r4, r5, r6, lr}
 144              		.cfi_remember_state
 145              		.cfi_restore 14
 146              		.cfi_restore 6
 147              		.cfi_restore 5
 148              		.cfi_restore 4
 149              		.cfi_def_cfa_offset 0
 150              	.LVL8:
 151              	.LBB124:
 152              		.loc 1 214 0
 153 0048 FFF7FEBF 		b	chSchGoSleepS
 154              	.LVL9:
 155              	.L27:
 156              		.cfi_restore_state
 157              	.LBB108:
 158              	.LBB109:
 159              		.loc 2 691 0
 160 004c 92E80A00 		ldmia	r2, {r1, r3}
 161 0050 1960     		str	r1, [r3]
 162              		.loc 2 692 0
 163 0052 1168     		ldr	r1, [r2]
 164              	.LBE109:
 165              	.LBE108:
 166              		.loc 1 202 0
 167 0054 1046     		mov	r0, r2
 168              	.LBB111:
 169              	.LBB110:
 170              		.loc 2 692 0
 171 0056 4B60     		str	r3, [r1, #4]
ARM GAS  /tmp/cc4pbleD.s 			page 4


 172              	.LBE110:
 173              	.LBE111:
 174              		.loc 1 202 0
 175 0058 FFF7FEFF 		bl	chSchReadyI
 176              	.LVL10:
 177              		.loc 1 203 0
 178 005c E2E7     		b	.L5
 179              	.LVL11:
 180              	.L7:
 181              	.LBB112:
 182              	.LBB113:
 183              		.loc 2 691 0
 184 005e 92E80900 		ldmia	r2, {r0, r3}
 185 0062 1860     		str	r0, [r3]
 186              	.LBE113:
 187              	.LBE112:
 188              		.loc 1 193 0
 189 0064 566A     		ldr	r6, [r2, #36]
 190              	.LVL12:
 191              	.LBB115:
 192              	.LBB114:
 193              		.loc 2 692 0
 194 0066 1068     		ldr	r0, [r2]
 195 0068 4360     		str	r3, [r0, #4]
 196              	.LBE114:
 197              	.LBE115:
 198              	.LBB116:
 199              	.LBB117:
 200              		.loc 2 653 0
 201 006a 3346     		mov	r3, r6
 202 006c 02E0     		b	.L15
 203              	.LVL13:
 204              	.L14:
 205              		.loc 2 656 0
 206 006e 9868     		ldr	r0, [r3, #8]
 207 0070 8842     		cmp	r0, r1
 208 0072 02D3     		bcc	.L16
 209              	.L15:
 210              		.loc 2 655 0
 211 0074 1B68     		ldr	r3, [r3]
 212              	.LVL14:
 213              		.loc 2 656 0
 214 0076 9E42     		cmp	r6, r3
 215 0078 F9D1     		bne	.L14
 216              	.L16:
 217              		.loc 2 658 0
 218 007a 5968     		ldr	r1, [r3, #4]
 219 007c 5160     		str	r1, [r2, #4]
 220              		.loc 2 657 0
 221 007e 1360     		str	r3, [r2]
 222              		.loc 2 659 0
 223 0080 0A60     		str	r2, [r1]
 224              		.loc 2 660 0
 225 0082 5A60     		str	r2, [r3, #4]
 226 0084 CEE7     		b	.L5
 227              	.LVL15:
 228              	.L6:
ARM GAS  /tmp/cc4pbleD.s 			page 5


 229              	.LBE117:
 230              	.LBE116:
 231              	.LBB118:
 232              	.LBB119:
 233              		.loc 2 691 0
 234 0086 92E80900 		ldmia	r2, {r0, r3}
 235 008a 1860     		str	r0, [r3]
 236              	.LBE119:
 237              	.LBE118:
 238              		.loc 1 173 0
 239 008c 566A     		ldr	r6, [r2, #36]
 240              	.LVL16:
 241              	.LBB121:
 242              	.LBB120:
 243              		.loc 2 692 0
 244 008e 1068     		ldr	r0, [r2]
 245 0090 4360     		str	r3, [r0, #4]
 246              	.LBE120:
 247              	.LBE121:
 248              	.LBB122:
 249              	.LBB123:
 250              		.loc 2 653 0
 251 0092 3346     		mov	r3, r6
 252 0094 02E0     		b	.L12
 253              	.LVL17:
 254              	.L9:
 255              		.loc 2 656 0
 256 0096 9868     		ldr	r0, [r3, #8]
 257 0098 8842     		cmp	r0, r1
 258 009a 02D3     		bcc	.L13
 259              	.L12:
 260              		.loc 2 655 0
 261 009c 1B68     		ldr	r3, [r3]
 262              	.LVL18:
 263              		.loc 2 656 0
 264 009e 9E42     		cmp	r6, r3
 265 00a0 F9D1     		bne	.L9
 266              	.L13:
 267              		.loc 2 658 0
 268 00a2 5968     		ldr	r1, [r3, #4]
 269 00a4 5160     		str	r1, [r2, #4]
 270              		.loc 2 657 0
 271 00a6 1360     		str	r3, [r2]
 272              		.loc 2 659 0
 273 00a8 0A60     		str	r2, [r1]
 274              		.loc 2 660 0
 275 00aa 5A60     		str	r2, [r3, #4]
 276              	.LBE123:
 277              	.LBE122:
 278              		.loc 1 174 0
 279 00ac B268     		ldr	r2, [r6, #8]
 280              	.LVL19:
 281              		.loc 1 165 0
 282 00ae A168     		ldr	r1, [r4, #8]
 283 00b0 9368     		ldr	r3, [r2, #8]
 284              	.LVL20:
 285 00b2 8B42     		cmp	r3, r1
ARM GAS  /tmp/cc4pbleD.s 			page 6


 286 00b4 AFD3     		bcc	.L10
 287 00b6 B5E7     		b	.L5
 288              	.LVL21:
 289              	.L3:
 290              	.LBE124:
 291              		.loc 1 233 0
 292 00b8 E36B     		ldr	r3, [r4, #60]
 293 00ba C360     		str	r3, [r0, #12]
 294              		.loc 1 232 0
 295 00bc 8460     		str	r4, [r0, #8]
 296              		.loc 1 234 0
 297 00be E063     		str	r0, [r4, #60]
 298 00c0 70BD     		pop	{r4, r5, r6, pc}
 299              	.LVL22:
 300              	.L29:
 301 00c2 00BF     		.align	2
 302              	.L28:
 303 00c4 00000000 		.word	ch
 304              		.cfi_endproc
 305              	.LFE221:
 306              		.size	chMtxLockS, .-chMtxLockS
 307              		.section	.text.chMtxLock,"ax",%progbits
 308              		.align	2
 309              		.p2align 4,,15
 310              		.global	chMtxLock
 311              		.thumb
 312              		.thumb_func
 313              		.type	chMtxLock, %function
 314              	chMtxLock:
 315              	.LFB220:
 316              		.loc 1 123 0
 317              		.cfi_startproc
 318              		@ args = 0, pretend = 0, frame = 0
 319              		@ frame_needed = 0, uses_anonymous_args = 0
 320              	.LVL23:
 321 0000 08B5     		push	{r3, lr}
 322              		.cfi_def_cfa_offset 8
 323              		.cfi_offset 3, -8
 324              		.cfi_offset 14, -4
 325              	.LBB125:
 326              	.LBB126:
 327              	.LBB127:
 328              	.LBB128:
 329              		.file 3 "ChibiOS_3.0.2/os/ext/CMSIS/include/core_cmFunc.h"
 330              		.loc 3 342 0
 331              	@ 342 "ChibiOS_3.0.2/os/ext/CMSIS/include/core_cmFunc.h" 1
 332 0002 72B6     		cpsid i
 333              	@ 0 "" 2
 334              		.thumb
 335              	.LBE128:
 336              	.LBE127:
 337              	.LBE126:
 338              	.LBE125:
 339              		.loc 1 126 0
 340 0004 FFF7FEFF 		bl	chMtxLockS
 341              	.LVL24:
 342              	.LBB129:
ARM GAS  /tmp/cc4pbleD.s 			page 7


 343              	.LBB130:
 344              	.LBB131:
 345              	.LBB132:
 346              	.LBB133:
 347              		.loc 3 331 0
 348              	@ 331 "ChibiOS_3.0.2/os/ext/CMSIS/include/core_cmFunc.h" 1
 349 0008 62B6     		cpsie i
 350              	@ 0 "" 2
 351              		.thumb
 352 000a 08BD     		pop	{r3, pc}
 353              	.LBE133:
 354              	.LBE132:
 355              	.LBE131:
 356              	.LBE130:
 357              	.LBE129:
 358              		.cfi_endproc
 359              	.LFE220:
 360              		.size	chMtxLock, .-chMtxLock
 361              		.section	.text.chMtxTryLock,"ax",%progbits
 362              		.align	2
 363              		.p2align 4,,15
 364              		.global	chMtxTryLock
 365              		.thumb
 366              		.thumb_func
 367              		.type	chMtxTryLock, %function
 368              	chMtxTryLock:
 369              	.LFB222:
 370              		.loc 1 255 0
 371              		.cfi_startproc
 372              		@ args = 0, pretend = 0, frame = 0
 373              		@ frame_needed = 0, uses_anonymous_args = 0
 374              		@ link register save eliminated.
 375              	.LVL25:
 376              		.loc 1 255 0
 377 0000 0346     		mov	r3, r0
 378              	.LBB147:
 379              	.LBB148:
 380              	.LBB149:
 381              	.LBB150:
 382              		.loc 3 342 0
 383              	@ 342 "ChibiOS_3.0.2/os/ext/CMSIS/include/core_cmFunc.h" 1
 384 0002 72B6     		cpsid i
 385              	@ 0 "" 2
 386              	.LVL26:
 387              		.thumb
 388              	.LBE150:
 389              	.LBE149:
 390              	.LBE148:
 391              	.LBE147:
 392              	.LBB151:
 393              	.LBB152:
 394              		.loc 1 287 0
 395 0004 8268     		ldr	r2, [r0, #8]
 396              		.loc 1 297 0
 397 0006 0020     		movs	r0, #0
 398              	.LVL27:
 399              		.loc 1 287 0
ARM GAS  /tmp/cc4pbleD.s 			page 8


 400 0008 0AB1     		cbz	r2, .L35
 401              	.LBE152:
 402              	.LBE151:
 403              	.LBB156:
 404              	.LBB157:
 405              	.LBB158:
 406              	.LBB159:
 407              	.LBB160:
 408              		.loc 3 331 0
 409              	@ 331 "ChibiOS_3.0.2/os/ext/CMSIS/include/core_cmFunc.h" 1
 410 000a 62B6     		cpsie i
 411              	@ 0 "" 2
 412              		.thumb
 413              	.LBE160:
 414              	.LBE159:
 415              	.LBE158:
 416              	.LBE157:
 417              	.LBE156:
 418              		.loc 1 263 0
 419 000c 7047     		bx	lr
 420              	.L35:
 421              	.LVL28:
 422              	.LBB165:
 423              	.LBB155:
 424              	.LBB153:
 425              	.LBB154:
 426              		.loc 1 305 0
 427 000e 044A     		ldr	r2, .L36
 428 0010 9269     		ldr	r2, [r2, #24]
 429 0012 9A60     		str	r2, [r3, #8]
 430              		.loc 1 306 0
 431 0014 D16B     		ldr	r1, [r2, #60]
 432 0016 D960     		str	r1, [r3, #12]
 433              		.loc 1 307 0
 434 0018 0120     		movs	r0, #1
 435 001a D363     		str	r3, [r2, #60]
 436              	.LBE154:
 437              	.LBE153:
 438              	.LBE155:
 439              	.LBE165:
 440              	.LBB166:
 441              	.LBB164:
 442              	.LBB163:
 443              	.LBB162:
 444              	.LBB161:
 445              		.loc 3 331 0
 446              	@ 331 "ChibiOS_3.0.2/os/ext/CMSIS/include/core_cmFunc.h" 1
 447 001c 62B6     		cpsie i
 448              	@ 0 "" 2
 449              		.thumb
 450              	.LBE161:
 451              	.LBE162:
 452              	.LBE163:
 453              	.LBE164:
 454              	.LBE166:
 455              		.loc 1 263 0
 456 001e 7047     		bx	lr
ARM GAS  /tmp/cc4pbleD.s 			page 9


 457              	.L37:
 458              		.align	2
 459              	.L36:
 460 0020 00000000 		.word	ch
 461              		.cfi_endproc
 462              	.LFE222:
 463              		.size	chMtxTryLock, .-chMtxTryLock
 464              		.section	.text.chMtxTryLockS,"ax",%progbits
 465              		.align	2
 466              		.p2align 4,,15
 467              		.global	chMtxTryLockS
 468              		.thumb
 469              		.thumb_func
 470              		.type	chMtxTryLockS, %function
 471              	chMtxTryLockS:
 472              	.LFB223:
 473              		.loc 1 282 0
 474              		.cfi_startproc
 475              		@ args = 0, pretend = 0, frame = 0
 476              		@ frame_needed = 0, uses_anonymous_args = 0
 477              		@ link register save eliminated.
 478              	.LVL29:
 479              		.loc 1 287 0
 480 0000 8268     		ldr	r2, [r0, #8]
 481              		.loc 1 282 0
 482 0002 0346     		mov	r3, r0
 483              		.loc 1 287 0
 484 0004 0AB1     		cbz	r2, .L41
 485              		.loc 1 297 0
 486 0006 0020     		movs	r0, #0
 487              	.LVL30:
 488              		.loc 1 309 0
 489 0008 7047     		bx	lr
 490              	.LVL31:
 491              	.L41:
 492              	.LBB169:
 493              	.LBB170:
 494              		.loc 1 305 0
 495 000a 044A     		ldr	r2, .L42
 496 000c 9269     		ldr	r2, [r2, #24]
 497 000e 8260     		str	r2, [r0, #8]
 498              		.loc 1 306 0
 499 0010 D16B     		ldr	r1, [r2, #60]
 500 0012 C160     		str	r1, [r0, #12]
 501              		.loc 1 307 0
 502 0014 0120     		movs	r0, #1
 503              	.LVL32:
 504 0016 D363     		str	r3, [r2, #60]
 505 0018 7047     		bx	lr
 506              	.L43:
 507 001a 00BF     		.align	2
 508              	.L42:
 509 001c 00000000 		.word	ch
 510              	.LBE170:
 511              	.LBE169:
 512              		.cfi_endproc
 513              	.LFE223:
ARM GAS  /tmp/cc4pbleD.s 			page 10


 514              		.size	chMtxTryLockS, .-chMtxTryLockS
 515              		.section	.text.chMtxUnlock,"ax",%progbits
 516              		.align	2
 517              		.p2align 4,,15
 518              		.global	chMtxUnlock
 519              		.thumb
 520              		.thumb_func
 521              		.type	chMtxUnlock, %function
 522              	chMtxUnlock:
 523              	.LFB224:
 524              		.loc 1 323 0
 525              		.cfi_startproc
 526              		@ args = 0, pretend = 0, frame = 0
 527              		@ frame_needed = 0, uses_anonymous_args = 0
 528              	.LVL33:
 529              		.loc 1 324 0
 530 0000 144B     		ldr	r3, .L55
 531              		.loc 1 323 0
 532 0002 70B5     		push	{r4, r5, r6, lr}
 533              		.cfi_def_cfa_offset 16
 534              		.cfi_offset 4, -16
 535              		.cfi_offset 5, -12
 536              		.cfi_offset 6, -8
 537              		.cfi_offset 14, -4
 538              		.loc 1 324 0
 539 0004 9D69     		ldr	r5, [r3, #24]
 540              	.LVL34:
 541              	.LBB171:
 542              	.LBB172:
 543              	.LBB173:
 544              	.LBB174:
 545              		.loc 3 342 0
 546              	@ 342 "ChibiOS_3.0.2/os/ext/CMSIS/include/core_cmFunc.h" 1
 547 0006 72B6     		cpsid i
 548              	@ 0 "" 2
 549              		.thumb
 550              	.LBE174:
 551              	.LBE173:
 552              	.LBE172:
 553              	.LBE171:
 554              	.LBB175:
 555              	.LBB176:
 556              	.LBB177:
 557              	.LBB178:
 558              		.loc 2 631 0
 559 0008 0468     		ldr	r4, [r0]
 560              	.LBE178:
 561              	.LBE177:
 562              	.LBE176:
 563              	.LBE175:
 564              		.loc 1 344 0
 565 000a C368     		ldr	r3, [r0, #12]
 566 000c EB63     		str	r3, [r5, #60]
 567              	.LVL35:
 568              		.loc 1 347 0
 569 000e A042     		cmp	r0, r4
 570 0010 1BD0     		beq	.L45
ARM GAS  /tmp/cc4pbleD.s 			page 11


 571              	.LBB179:
 572              		.loc 1 352 0
 573 0012 296C     		ldr	r1, [r5, #64]
 574              	.LVL36:
 575              		.loc 1 354 0
 576 0014 4BB1     		cbz	r3, .L46
 577              	.L48:
 578              	.LVL37:
 579              	.LBB180:
 580              	.LBB181:
 581              	.LBB182:
 582              	.LBB183:
 583              		.loc 2 631 0
 584 0016 1A68     		ldr	r2, [r3]
 585              	.LBE183:
 586              	.LBE182:
 587              	.LBE181:
 588              	.LBE180:
 589              		.loc 1 358 0
 590 0018 9342     		cmp	r3, r2
 591 001a 03D0     		beq	.L47
 592              		.loc 1 359 0 discriminator 1
 593 001c 9268     		ldr	r2, [r2, #8]
 594 001e 9142     		cmp	r1, r2
 595 0020 38BF     		it	cc
 596 0022 1146     		movcc	r1, r2
 597              	.LVL38:
 598              	.L47:
 599              		.loc 1 362 0
 600 0024 DB68     		ldr	r3, [r3, #12]
 601              	.LVL39:
 602              		.loc 1 354 0
 603 0026 002B     		cmp	r3, #0
 604 0028 F5D1     		bne	.L48
 605              	.L46:
 606 002a 0346     		mov	r3, r0
 607              	.LVL40:
 608              	.LBB184:
 609              	.LBB185:
 610              		.loc 2 674 0
 611 002c 2268     		ldr	r2, [r4]
 612              	.LBE185:
 613              	.LBE184:
 614              		.loc 1 376 0
 615 002e E66B     		ldr	r6, [r4, #60]
 616              		.loc 1 367 0
 617 0030 A960     		str	r1, [r5, #8]
 618              	.LVL41:
 619              		.loc 1 383 0
 620 0032 2046     		mov	r0, r4
 621              	.LVL42:
 622              	.LBB187:
 623              	.LBB186:
 624              		.loc 2 674 0
 625 0034 1A60     		str	r2, [r3]
 626              		.loc 2 675 0
 627 0036 5360     		str	r3, [r2, #4]
ARM GAS  /tmp/cc4pbleD.s 			page 12


 628              	.LBE186:
 629              	.LBE187:
 630              		.loc 1 375 0
 631 0038 9C60     		str	r4, [r3, #8]
 632              		.loc 1 376 0
 633 003a DE60     		str	r6, [r3, #12]
 634              		.loc 1 377 0
 635 003c E363     		str	r3, [r4, #60]
 636              		.loc 1 383 0
 637 003e FFF7FEFF 		bl	chSchReadyI
 638              	.LVL43:
 639              		.loc 1 384 0
 640 0042 FFF7FEFF 		bl	chSchRescheduleS
 641              	.LVL44:
 642              	.LBE179:
 643              	.LBB188:
 644              	.LBB189:
 645              	.LBB190:
 646              	.LBB191:
 647              	.LBB192:
 648              		.loc 3 331 0
 649              	@ 331 "ChibiOS_3.0.2/os/ext/CMSIS/include/core_cmFunc.h" 1
 650 0046 62B6     		cpsie i
 651              	@ 0 "" 2
 652              		.thumb
 653 0048 70BD     		pop	{r4, r5, r6, pc}
 654              	.LVL45:
 655              	.L45:
 656              	.LBE192:
 657              	.LBE191:
 658              	.LBE190:
 659              	.LBE189:
 660              	.LBE188:
 661              		.loc 1 387 0
 662 004a 0023     		movs	r3, #0
 663 004c 8360     		str	r3, [r0, #8]
 664              	.LBB197:
 665              	.LBB196:
 666              	.LBB195:
 667              	.LBB194:
 668              	.LBB193:
 669              		.loc 3 331 0
 670              	@ 331 "ChibiOS_3.0.2/os/ext/CMSIS/include/core_cmFunc.h" 1
 671 004e 62B6     		cpsie i
 672              	@ 0 "" 2
 673              		.thumb
 674 0050 70BD     		pop	{r4, r5, r6, pc}
 675              	.LVL46:
 676              	.L56:
 677 0052 00BF     		.align	2
 678              	.L55:
 679 0054 00000000 		.word	ch
 680              	.LBE193:
 681              	.LBE194:
 682              	.LBE195:
 683              	.LBE196:
 684              	.LBE197:
ARM GAS  /tmp/cc4pbleD.s 			page 13


 685              		.cfi_endproc
 686              	.LFE224:
 687              		.size	chMtxUnlock, .-chMtxUnlock
 688              		.section	.text.chMtxUnlockS,"ax",%progbits
 689              		.align	2
 690              		.p2align 4,,15
 691              		.global	chMtxUnlockS
 692              		.thumb
 693              		.thumb_func
 694              		.type	chMtxUnlockS, %function
 695              	chMtxUnlockS:
 696              	.LFB225:
 697              		.loc 1 410 0
 698              		.cfi_startproc
 699              		@ args = 0, pretend = 0, frame = 0
 700              		@ frame_needed = 0, uses_anonymous_args = 0
 701              		@ link register save eliminated.
 702              	.LVL47:
 703              		.loc 1 411 0
 704 0000 124B     		ldr	r3, .L67
 705              		.loc 1 410 0
 706 0002 30B4     		push	{r4, r5}
 707              		.cfi_def_cfa_offset 8
 708              		.cfi_offset 4, -8
 709              		.cfi_offset 5, -4
 710              		.loc 1 410 0
 711 0004 0446     		mov	r4, r0
 712              	.LBB198:
 713              	.LBB199:
 714              	.LBB200:
 715              	.LBB201:
 716              		.loc 2 631 0
 717 0006 0568     		ldr	r5, [r0]
 718              	.LBE201:
 719              	.LBE200:
 720              	.LBE199:
 721              	.LBE198:
 722              		.loc 1 411 0
 723 0008 9869     		ldr	r0, [r3, #24]
 724              	.LVL48:
 725              		.loc 1 430 0
 726 000a E368     		ldr	r3, [r4, #12]
 727 000c C363     		str	r3, [r0, #60]
 728              	.LVL49:
 729              		.loc 1 433 0
 730 000e AC42     		cmp	r4, r5
 731 0010 17D0     		beq	.L58
 732              	.LBB202:
 733              		.loc 1 438 0
 734 0012 016C     		ldr	r1, [r0, #64]
 735              	.LVL50:
 736              		.loc 1 440 0
 737 0014 4BB1     		cbz	r3, .L59
 738              	.L61:
 739              	.LVL51:
 740              	.LBB203:
 741              	.LBB204:
ARM GAS  /tmp/cc4pbleD.s 			page 14


 742              	.LBB205:
 743              	.LBB206:
 744              		.loc 2 631 0
 745 0016 1A68     		ldr	r2, [r3]
 746              	.LBE206:
 747              	.LBE205:
 748              	.LBE204:
 749              	.LBE203:
 750              		.loc 1 444 0
 751 0018 9342     		cmp	r3, r2
 752 001a 03D0     		beq	.L60
 753              		.loc 1 445 0 discriminator 1
 754 001c 9268     		ldr	r2, [r2, #8]
 755 001e 9142     		cmp	r1, r2
 756 0020 38BF     		it	cc
 757 0022 1146     		movcc	r1, r2
 758              	.LVL52:
 759              	.L60:
 760              		.loc 1 448 0
 761 0024 DB68     		ldr	r3, [r3, #12]
 762              	.LVL53:
 763              		.loc 1 440 0
 764 0026 002B     		cmp	r3, #0
 765 0028 F5D1     		bne	.L61
 766              	.L59:
 767              	.LBB207:
 768              	.LBB208:
 769              		.loc 2 674 0
 770 002a 2B68     		ldr	r3, [r5]
 771              	.LVL54:
 772              	.LBE208:
 773              	.LBE207:
 774              		.loc 1 462 0
 775 002c EA6B     		ldr	r2, [r5, #60]
 776              		.loc 1 453 0
 777 002e 8160     		str	r1, [r0, #8]
 778              	.LVL55:
 779              	.LBB211:
 780              	.LBB209:
 781              		.loc 2 674 0
 782 0030 2360     		str	r3, [r4]
 783              	.LBE209:
 784              	.LBE211:
 785              		.loc 1 464 0
 786 0032 2846     		mov	r0, r5
 787              	.LVL56:
 788              	.LBB212:
 789              	.LBB210:
 790              		.loc 2 675 0
 791 0034 5C60     		str	r4, [r3, #4]
 792              	.LBE210:
 793              	.LBE212:
 794              		.loc 1 461 0
 795 0036 A560     		str	r5, [r4, #8]
 796              		.loc 1 462 0
 797 0038 E260     		str	r2, [r4, #12]
 798              		.loc 1 463 0
ARM GAS  /tmp/cc4pbleD.s 			page 15


 799 003a EC63     		str	r4, [r5, #60]
 800              	.LBE202:
 801              		.loc 1 472 0
 802 003c 30BC     		pop	{r4, r5}
 803              		.cfi_remember_state
 804              		.cfi_restore 5
 805              		.cfi_restore 4
 806              		.cfi_def_cfa_offset 0
 807              	.LVL57:
 808              	.LBB213:
 809              		.loc 1 464 0
 810 003e FFF7FEBF 		b	chSchReadyI
 811              	.LVL58:
 812              	.L58:
 813              		.cfi_restore_state
 814              	.LBE213:
 815              		.loc 1 467 0
 816 0042 0023     		movs	r3, #0
 817 0044 A360     		str	r3, [r4, #8]
 818              		.loc 1 472 0
 819 0046 30BC     		pop	{r4, r5}
 820              		.cfi_restore 5
 821              		.cfi_restore 4
 822              		.cfi_def_cfa_offset 0
 823              	.LVL59:
 824 0048 7047     		bx	lr
 825              	.L68:
 826 004a 00BF     		.align	2
 827              	.L67:
 828 004c 00000000 		.word	ch
 829              		.cfi_endproc
 830              	.LFE225:
 831              		.size	chMtxUnlockS, .-chMtxUnlockS
 832              		.section	.text.chMtxUnlockAll,"ax",%progbits
 833              		.align	2
 834              		.p2align 4,,15
 835              		.global	chMtxUnlockAll
 836              		.thumb
 837              		.thumb_func
 838              		.type	chMtxUnlockAll, %function
 839              	chMtxUnlockAll:
 840              	.LFB226:
 841              		.loc 1 485 0
 842              		.cfi_startproc
 843              		@ args = 0, pretend = 0, frame = 0
 844              		@ frame_needed = 0, uses_anonymous_args = 0
 845              		.loc 1 486 0
 846 0000 114B     		ldr	r3, .L81
 847              		.loc 1 485 0
 848 0002 70B5     		push	{r4, r5, r6, lr}
 849              		.cfi_def_cfa_offset 16
 850              		.cfi_offset 4, -16
 851              		.cfi_offset 5, -12
 852              		.cfi_offset 6, -8
 853              		.cfi_offset 14, -4
 854              		.loc 1 486 0
 855 0004 9C69     		ldr	r4, [r3, #24]
ARM GAS  /tmp/cc4pbleD.s 			page 16


 856              	.LVL60:
 857              	.LBB214:
 858              	.LBB215:
 859              	.LBB216:
 860              	.LBB217:
 861              		.loc 3 342 0
 862              	@ 342 "ChibiOS_3.0.2/os/ext/CMSIS/include/core_cmFunc.h" 1
 863 0006 72B6     		cpsid i
 864              	@ 0 "" 2
 865              		.thumb
 866              	.LBE217:
 867              	.LBE216:
 868              	.LBE215:
 869              	.LBE214:
 870              		.loc 1 489 0
 871 0008 E36B     		ldr	r3, [r4, #60]
 872 000a D3B1     		cbz	r3, .L70
 873              	.LBB218:
 874              		.loc 1 507 0
 875 000c 0026     		movs	r6, #0
 876 000e 0AE0     		b	.L73
 877              	.LVL61:
 878              	.L80:
 879              	.LBB219:
 880              	.LBB220:
 881              	.LBB221:
 882              		.loc 2 674 0
 883 0010 1168     		ldr	r1, [r2]
 884              	.LBE221:
 885              	.LBE220:
 886              		.loc 1 499 0
 887 0012 D56B     		ldr	r5, [r2, #60]
 888              	.LBB223:
 889              	.LBB222:
 890              		.loc 2 674 0
 891 0014 1960     		str	r1, [r3]
 892              		.loc 2 675 0
 893 0016 4B60     		str	r3, [r1, #4]
 894              	.LBE222:
 895              	.LBE223:
 896              		.loc 1 498 0
 897 0018 9A60     		str	r2, [r3, #8]
 898              		.loc 1 499 0
 899 001a DD60     		str	r5, [r3, #12]
 900              		.loc 1 500 0
 901 001c D363     		str	r3, [r2, #60]
 902              		.loc 1 501 0
 903 001e FFF7FEFF 		bl	chSchReadyI
 904              	.LVL62:
 905              	.LBE219:
 906              	.LBE218:
 907              		.loc 1 509 0
 908 0022 E36B     		ldr	r3, [r4, #60]
 909 0024 4BB1     		cbz	r3, .L79
 910              	.L73:
 911              	.LVL63:
 912              	.LBB229:
ARM GAS  /tmp/cc4pbleD.s 			page 17


 913              	.LBB224:
 914              	.LBB225:
 915              	.LBB226:
 916              	.LBB227:
 917              		.loc 2 631 0
 918 0026 1A68     		ldr	r2, [r3]
 919              	.LVL64:
 920              	.LBE227:
 921              	.LBE226:
 922              	.LBE225:
 923              	.LBE224:
 924              		.loc 1 492 0
 925 0028 D968     		ldr	r1, [r3, #12]
 926 002a E163     		str	r1, [r4, #60]
 927              	.LVL65:
 928              		.loc 1 493 0
 929 002c 9342     		cmp	r3, r2
 930              	.LBB228:
 931              		.loc 1 501 0
 932 002e 1046     		mov	r0, r2
 933              	.LBE228:
 934              		.loc 1 493 0
 935 0030 EED1     		bne	.L80
 936              		.loc 1 507 0
 937 0032 9E60     		str	r6, [r3, #8]
 938              	.LBE229:
 939              		.loc 1 509 0
 940 0034 E36B     		ldr	r3, [r4, #60]
 941              	.LVL66:
 942 0036 002B     		cmp	r3, #0
 943 0038 F5D1     		bne	.L73
 944              	.LVL67:
 945              	.L79:
 946              		.loc 1 510 0
 947 003a 236C     		ldr	r3, [r4, #64]
 948 003c A360     		str	r3, [r4, #8]
 949              		.loc 1 511 0
 950 003e FFF7FEFF 		bl	chSchRescheduleS
 951              	.LVL68:
 952              	.L70:
 953              	.LBB230:
 954              	.LBB231:
 955              	.LBB232:
 956              	.LBB233:
 957              	.LBB234:
 958              		.loc 3 331 0
 959              	@ 331 "ChibiOS_3.0.2/os/ext/CMSIS/include/core_cmFunc.h" 1
 960 0042 62B6     		cpsie i
 961              	@ 0 "" 2
 962              		.thumb
 963 0044 70BD     		pop	{r4, r5, r6, pc}
 964              	.LVL69:
 965              	.L82:
 966 0046 00BF     		.align	2
 967              	.L81:
 968 0048 00000000 		.word	ch
 969              	.LBE234:
ARM GAS  /tmp/cc4pbleD.s 			page 18


 970              	.LBE233:
 971              	.LBE232:
 972              	.LBE231:
 973              	.LBE230:
 974              		.cfi_endproc
 975              	.LFE226:
 976              		.size	chMtxUnlockAll, .-chMtxUnlockAll
 977              		.text
 978              	.Letext0:
 979              		.file 4 "/usr/arm-none-eabi/include/machine/_default_types.h"
 980              		.file 5 "/usr/arm-none-eabi/include/sys/_stdint.h"
 981              		.file 6 "ChibiOS_3.0.2/os/rt/ports/ARMCMx/compilers/GCC/chtypes.h"
 982              		.file 7 "ChibiOS_3.0.2/os/rt/include/chsystypes.h"
 983              		.file 8 "ChibiOS_3.0.2/os/rt/ports/ARMCMx/chcore.h"
 984              		.file 9 "ChibiOS_3.0.2/os/rt/ports/ARMCMx/chcore_v7m.h"
 985              		.file 10 "ChibiOS_3.0.2/os/rt/include/chtm.h"
 986              		.file 11 "ChibiOS_3.0.2/os/rt/include/chsem.h"
 987              		.file 12 "ChibiOS_3.0.2/os/rt/include/chmtx.h"
 988              		.file 13 "ChibiOS_3.0.2/os/rt/include/chsys.h"
 989              		.file 14 "ChibiOS_3.0.2/os/ext/CMSIS/include/core_cm4.h"