ARM GAS  /tmp/ccajsr7N.s 			page 1


   1              		.syntax unified
   2              		.cpu cortex-m4
   3              		.eabi_attribute 27, 1
   4              		.eabi_attribute 28, 1
   5              		.fpu fpv4-sp-d16
   6              		.eabi_attribute 20, 1
   7              		.eabi_attribute 21, 1
   8              		.eabi_attribute 23, 3
   9              		.eabi_attribute 24, 1
  10              		.eabi_attribute 25, 1
  11              		.eabi_attribute 26, 1
  12              		.eabi_attribute 30, 2
  13              		.eabi_attribute 34, 1
  14              		.eabi_attribute 18, 4
  15              		.thumb
  16              		.file	"chthreads.c"
  17              		.text
  18              	.Ltext0:
  19              		.cfi_sections	.debug_frame
  20              		.section	.text._thread_init,"ax",%progbits
  21              		.align	2
  22              		.p2align 4,,15
  23              		.global	_thread_init
  24              		.thumb
  25              		.thumb_func
  26              		.type	_thread_init, %function
  27              	_thread_init:
  28              	.LFB219:
  29              		.file 1 "ChibiOS_3.0.2/os/rt/src/chthreads.c"
  30              		.loc 1 91 0
  31              		.cfi_startproc
  32              		@ args = 0, pretend = 0, frame = 0
  33              		@ frame_needed = 0, uses_anonymous_args = 0
  34              	.LVL0:
  35 0000 2DE9F041 		push	{r4, r5, r6, r7, r8, lr}
  36              		.cfi_def_cfa_offset 24
  37              		.cfi_offset 4, -24
  38              		.cfi_offset 5, -20
  39              		.cfi_offset 6, -16
  40              		.cfi_offset 7, -12
  41              		.cfi_offset 8, -8
  42              		.cfi_offset 14, -4
  43              		.loc 1 114 0
  44 0004 114C     		ldr	r4, .L3
  45              		.loc 1 100 0
  46 0006 0164     		str	r1, [r0, #64]
  47              		.loc 1 114 0
  48 0008 6669     		ldr	r6, [r4, #20]
  49 000a 4661     		str	r6, [r0, #20]
  50              		.loc 1 95 0
  51 000c 0022     		movs	r2, #0
  52              		.loc 1 120 0
  53 000e 00F12C05 		add	r5, r0, #44
  54              		.loc 1 94 0
  55 0012 4FF00208 		mov	r8, #2
  56              		.loc 1 97 0
  57 0016 4FF0040C 		mov	ip, #4
ARM GAS  /tmp/ccajsr7N.s 			page 2


  58              		.loc 1 110 0
  59 001a 4FF0010E 		mov	lr, #1
  60              		.loc 1 117 0
  61 001e 00F12807 		add	r7, r0, #40
  62              		.loc 1 93 0
  63 0022 8160     		str	r1, [r0, #8]
  64              		.loc 1 114 0
  65 0024 0461     		str	r4, [r0, #16]
  66              		.loc 1 94 0
  67 0026 80F81C80 		strb	r8, [r0, #28]
  68              		.loc 1 97 0
  69 002a 80F81FC0 		strb	ip, [r0, #31]
  70              		.loc 1 110 0
  71 002e 80F81EE0 		strb	lr, [r0, #30]
  72              		.loc 1 95 0
  73 0032 4277     		strb	r2, [r0, #29]
  74              		.loc 1 101 0
  75 0034 C263     		str	r2, [r0, #60]
  76              		.loc 1 104 0
  77 0036 8263     		str	r2, [r0, #56]
  78              		.loc 1 107 0
  79 0038 0262     		str	r2, [r0, #32]
  80              		.loc 1 113 0
  81 003a 8261     		str	r2, [r0, #24]
  82              		.loc 1 114 0
  83 003c 3061     		str	r0, [r6, #16]
  84 003e 6061     		str	r0, [r4, #20]
  85              	.LVL1:
  86              	.LBB184:
  87              	.LBB185:
  88              		.file 2 "ChibiOS_3.0.2/os/rt/include/chschd.h"
  89              		.loc 2 566 0
  90 0040 8762     		str	r7, [r0, #40]
  91              	.LBE185:
  92              	.LBE184:
  93              	.LBB186:
  94              	.LBB187:
  95              		.loc 2 604 0
  96 0042 C562     		str	r5, [r0, #44]
  97              		.loc 2 605 0
  98 0044 0563     		str	r5, [r0, #48]
  99              	.LBE187:
 100              	.LBE186:
 101              		.loc 1 133 0
 102 0046 BDE8F081 		pop	{r4, r5, r6, r7, r8, pc}
 103              	.LVL2:
 104              	.L4:
 105 004a 00BF     		.align	2
 106              	.L3:
 107 004c 00000000 		.word	ch
 108              		.cfi_endproc
 109              	.LFE219:
 110              		.size	_thread_init, .-_thread_init
 111              		.section	.text.chThdCreateI,"ax",%progbits
 112              		.align	2
 113              		.p2align 4,,15
 114              		.global	chThdCreateI
ARM GAS  /tmp/ccajsr7N.s 			page 3


 115              		.thumb
 116              		.thumb_func
 117              		.type	chThdCreateI, %function
 118              	chThdCreateI:
 119              	.LFB220:
 120              		.loc 1 178 0
 121              		.cfi_startproc
 122              		@ args = 4, pretend = 0, frame = 0
 123              		@ frame_needed = 0, uses_anonymous_args = 0
 124              	.LVL3:
 125 0000 2DE9F04F 		push	{r4, r5, r6, r7, r8, r9, r10, fp, lr}
 126              		.cfi_def_cfa_offset 36
 127              		.cfi_offset 4, -36
 128              		.cfi_offset 5, -32
 129              		.cfi_offset 6, -28
 130              		.cfi_offset 7, -24
 131              		.cfi_offset 8, -20
 132              		.cfi_offset 9, -16
 133              		.cfi_offset 10, -12
 134              		.cfi_offset 11, -8
 135              		.cfi_offset 14, -4
 136              		.loc 1 187 0
 137 0004 6439     		subs	r1, r1, #100
 138              	.LVL4:
 139              	.LBB188:
 140              	.LBB189:
 141              		.loc 1 114 0
 142 0006 184F     		ldr	r7, .L7
 143              	.LBE189:
 144              	.LBE188:
 145              		.loc 1 187 0
 146 0008 DFF86090 		ldr	r9, .L7+4
 147              	.LBB199:
 148              	.LBB194:
 149              		.loc 1 114 0
 150 000c D7F814E0 		ldr	lr, [r7, #20]
 151              	.LBE194:
 152              	.LBE199:
 153              		.loc 1 187 0
 154 0010 099E     		ldr	r6, [sp, #36]
 155 0012 0144     		add	r1, r1, r0
 156              	.LVL5:
 157              	.LBB200:
 158              	.LBB195:
 159              		.loc 1 95 0
 160 0014 0025     		movs	r5, #0
 161              	.LBE195:
 162              	.LBE200:
 163              		.loc 1 187 0
 164 0016 C160     		str	r1, [r0, #12]
 165              	.LBB201:
 166              	.LBB196:
 167              		.loc 1 94 0
 168 0018 4FF0020B 		mov	fp, #2
 169              	.LBE196:
 170              	.LBE201:
 171              		.loc 1 187 0
ARM GAS  /tmp/ccajsr7N.s 			page 4


 172 001c 0B64     		str	r3, [r1, #64]
 173              	.LBB202:
 174              	.LBB197:
 175              		.loc 1 97 0
 176 001e 4FF0040A 		mov	r10, #4
 177              		.loc 1 120 0
 178 0022 00F12C03 		add	r3, r0, #44
 179              	.LVL6:
 180              		.loc 1 110 0
 181 0026 4FF00108 		mov	r8, #1
 182              		.loc 1 117 0
 183 002a 00F1280C 		add	ip, r0, #40
 184              	.LBE197:
 185              	.LBE202:
 186              		.loc 1 187 0
 187 002e 4E64     		str	r6, [r1, #68]
 188 0030 C1F86090 		str	r9, [r1, #96]
 189              	.LVL7:
 190              	.LBB203:
 191              	.LBB198:
 192              		.loc 1 93 0
 193 0034 8260     		str	r2, [r0, #8]
 194              		.loc 1 114 0
 195 0036 0761     		str	r7, [r0, #16]
 196 0038 C0F814E0 		str	lr, [r0, #20]
 197              		.loc 1 100 0
 198 003c 0264     		str	r2, [r0, #64]
 199              		.loc 1 94 0
 200 003e 80F81CB0 		strb	fp, [r0, #28]
 201              	.LVL8:
 202              		.loc 1 97 0
 203 0042 80F81FA0 		strb	r10, [r0, #31]
 204              		.loc 1 110 0
 205 0046 80F81E80 		strb	r8, [r0, #30]
 206              		.loc 1 95 0
 207 004a 4577     		strb	r5, [r0, #29]
 208              		.loc 1 101 0
 209 004c C563     		str	r5, [r0, #60]
 210              		.loc 1 104 0
 211 004e 8563     		str	r5, [r0, #56]
 212              		.loc 1 107 0
 213 0050 0562     		str	r5, [r0, #32]
 214              		.loc 1 113 0
 215 0052 8561     		str	r5, [r0, #24]
 216              		.loc 1 114 0
 217 0054 CEF81000 		str	r0, [lr, #16]
 218              	.LBB190:
 219              	.LBB191:
 220              		.loc 2 566 0
 221 0058 C0F828C0 		str	ip, [r0, #40]
 222              	.LBE191:
 223              	.LBE190:
 224              		.loc 1 114 0
 225 005c 7861     		str	r0, [r7, #20]
 226              	.LVL9:
 227              	.LBB192:
 228              	.LBB193:
ARM GAS  /tmp/ccajsr7N.s 			page 5


 229              		.loc 2 604 0
 230 005e C362     		str	r3, [r0, #44]
 231              		.loc 2 605 0
 232 0060 0363     		str	r3, [r0, #48]
 233              	.LBE193:
 234              	.LBE192:
 235              	.LBE198:
 236              	.LBE203:
 237              		.loc 1 190 0
 238 0062 BDE8F08F 		pop	{r4, r5, r6, r7, r8, r9, r10, fp, pc}
 239              	.LVL10:
 240              	.L8:
 241 0066 00BF     		.align	2
 242              	.L7:
 243 0068 00000000 		.word	ch
 244 006c 00000000 		.word	_port_thread_start
 245              		.cfi_endproc
 246              	.LFE220:
 247              		.size	chThdCreateI, .-chThdCreateI
 248              		.section	.text.chThdCreateStatic,"ax",%progbits
 249              		.align	2
 250              		.p2align 4,,15
 251              		.global	chThdCreateStatic
 252              		.thumb
 253              		.thumb_func
 254              		.type	chThdCreateStatic, %function
 255              	chThdCreateStatic:
 256              	.LFB221:
 257              		.loc 1 209 0
 258              		.cfi_startproc
 259              		@ args = 4, pretend = 0, frame = 0
 260              		@ frame_needed = 0, uses_anonymous_args = 0
 261              	.LVL11:
 262 0000 2DE9F84F 		push	{r3, r4, r5, r6, r7, r8, r9, r10, fp, lr}
 263              		.cfi_def_cfa_offset 40
 264              		.cfi_offset 3, -40
 265              		.cfi_offset 4, -36
 266              		.cfi_offset 5, -32
 267              		.cfi_offset 6, -28
 268              		.cfi_offset 7, -24
 269              		.cfi_offset 8, -20
 270              		.cfi_offset 9, -16
 271              		.cfi_offset 10, -12
 272              		.cfi_offset 11, -8
 273              		.cfi_offset 14, -4
 274              		.loc 1 209 0
 275 0004 0446     		mov	r4, r0
 276              	.LBB204:
 277              	.LBB205:
 278              	.LBB206:
 279              	.LBB207:
 280              		.file 3 "ChibiOS_3.0.2/os/ext/CMSIS/include/core_cmFunc.h"
 281              		.loc 3 342 0
 282              	@ 342 "ChibiOS_3.0.2/os/ext/CMSIS/include/core_cmFunc.h" 1
 283 0006 72B6     		cpsid i
 284              	@ 0 "" 2
 285              	.LVL12:
ARM GAS  /tmp/ccajsr7N.s 			page 6


 286              		.thumb
 287              	.LBE207:
 288              	.LBE206:
 289              	.LBE205:
 290              	.LBE204:
 291              	.LBB208:
 292              	.LBB209:
 293              	.LBB210:
 294              	.LBB211:
 295              		.loc 1 114 0
 296 0008 1A4E     		ldr	r6, .L11
 297              	.LBE211:
 298              	.LBE210:
 299              		.loc 1 187 0
 300 000a DFF86CA0 		ldr	r10, .L11+4
 301              	.LBB222:
 302              	.LBB216:
 303              		.loc 1 114 0
 304 000e 7769     		ldr	r7, [r6, #20]
 305              	.LBE216:
 306              	.LBE222:
 307              		.loc 1 187 0
 308 0010 6439     		subs	r1, r1, #100
 309              	.LVL13:
 310 0012 0144     		add	r1, r1, r0
 311              	.LVL14:
 312 0014 C160     		str	r1, [r0, #12]
 313              	.LBB223:
 314              	.LBB217:
 315              		.loc 1 95 0
 316 0016 0025     		movs	r5, #0
 317              	.LBE217:
 318              	.LBE223:
 319              		.loc 1 187 0
 320 0018 0B64     		str	r3, [r1, #64]
 321              	.LBB224:
 322              	.LBB218:
 323              		.loc 1 120 0
 324 001a 00F12C0B 		add	fp, r0, #44
 325              		.loc 1 110 0
 326 001e 4FF0010C 		mov	ip, #1
 327              		.loc 1 117 0
 328 0022 00F1280E 		add	lr, r0, #40
 329              	.LBE218:
 330              	.LBE224:
 331              		.loc 1 187 0
 332 0026 0A9B     		ldr	r3, [sp, #40]
 333              	.LVL15:
 334 0028 4B64     		str	r3, [r1, #68]
 335              	.LBB225:
 336              	.LBB219:
 337              		.loc 1 94 0
 338 002a 4FF00209 		mov	r9, #2
 339              		.loc 1 97 0
 340 002e 4FF00408 		mov	r8, #4
 341              	.LBE219:
 342              	.LBE225:
ARM GAS  /tmp/ccajsr7N.s 			page 7


 343              		.loc 1 187 0
 344 0032 C1F860A0 		str	r10, [r1, #96]
 345              	.LVL16:
 346              	.LBB226:
 347              	.LBB220:
 348              		.loc 1 93 0
 349 0036 8260     		str	r2, [r0, #8]
 350              		.loc 1 114 0
 351 0038 0661     		str	r6, [r0, #16]
 352 003a 4761     		str	r7, [r0, #20]
 353              		.loc 1 100 0
 354 003c 0264     		str	r2, [r0, #64]
 355              		.loc 1 94 0
 356 003e 80F81C90 		strb	r9, [r0, #28]
 357              	.LVL17:
 358              		.loc 1 97 0
 359 0042 80F81F80 		strb	r8, [r0, #31]
 360              		.loc 1 110 0
 361 0046 80F81EC0 		strb	ip, [r0, #30]
 362              		.loc 1 95 0
 363 004a 4577     		strb	r5, [r0, #29]
 364              		.loc 1 101 0
 365 004c C563     		str	r5, [r0, #60]
 366              		.loc 1 104 0
 367 004e 8563     		str	r5, [r0, #56]
 368              		.loc 1 107 0
 369 0050 0562     		str	r5, [r0, #32]
 370              		.loc 1 113 0
 371 0052 8561     		str	r5, [r0, #24]
 372              	.LBE220:
 373              	.LBE226:
 374              	.LBE209:
 375              	.LBE208:
 376              		.loc 1 223 0
 377 0054 2946     		mov	r1, r5
 378              	.LBB229:
 379              	.LBB228:
 380              	.LBB227:
 381              	.LBB221:
 382              		.loc 1 114 0
 383 0056 3861     		str	r0, [r7, #16]
 384              	.LBB212:
 385              	.LBB213:
 386              		.loc 2 566 0
 387 0058 C0F828E0 		str	lr, [r0, #40]
 388              	.LBE213:
 389              	.LBE212:
 390              	.LBB214:
 391              	.LBB215:
 392              		.loc 2 604 0
 393 005c C0F82CB0 		str	fp, [r0, #44]
 394              		.loc 2 605 0
 395 0060 C0F830B0 		str	fp, [r0, #48]
 396              	.LBE215:
 397              	.LBE214:
 398              		.loc 1 114 0
 399 0064 7061     		str	r0, [r6, #20]
ARM GAS  /tmp/ccajsr7N.s 			page 8


 400              	.LVL18:
 401              	.LBE221:
 402              	.LBE227:
 403              	.LBE228:
 404              	.LBE229:
 405              		.loc 1 223 0
 406 0066 FFF7FEFF 		bl	chSchWakeupS
 407              	.LVL19:
 408              	.LBB230:
 409              	.LBB231:
 410              	.LBB232:
 411              	.LBB233:
 412              	.LBB234:
 413              		.loc 3 331 0
 414              	@ 331 "ChibiOS_3.0.2/os/ext/CMSIS/include/core_cmFunc.h" 1
 415 006a 62B6     		cpsie i
 416              	@ 0 "" 2
 417              		.thumb
 418              	.LBE234:
 419              	.LBE233:
 420              	.LBE232:
 421              	.LBE231:
 422              	.LBE230:
 423              		.loc 1 227 0
 424 006c 2046     		mov	r0, r4
 425 006e BDE8F88F 		pop	{r3, r4, r5, r6, r7, r8, r9, r10, fp, pc}
 426              	.LVL20:
 427              	.L12:
 428 0072 00BF     		.align	2
 429              	.L11:
 430 0074 00000000 		.word	ch
 431 0078 00000000 		.word	_port_thread_start
 432              		.cfi_endproc
 433              	.LFE221:
 434              		.size	chThdCreateStatic, .-chThdCreateStatic
 435              		.section	.text.chThdStart,"ax",%progbits
 436              		.align	2
 437              		.p2align 4,,15
 438              		.global	chThdStart
 439              		.thumb
 440              		.thumb_func
 441              		.type	chThdStart, %function
 442              	chThdStart:
 443              	.LFB222:
 444              		.loc 1 238 0
 445              		.cfi_startproc
 446              		@ args = 0, pretend = 0, frame = 0
 447              		@ frame_needed = 0, uses_anonymous_args = 0
 448              	.LVL21:
 449 0000 08B5     		push	{r3, lr}
 450              		.cfi_def_cfa_offset 8
 451              		.cfi_offset 3, -8
 452              		.cfi_offset 14, -4
 453              	.LBB235:
 454              	.LBB236:
 455              	.LBB237:
 456              	.LBB238:
ARM GAS  /tmp/ccajsr7N.s 			page 9


 457              		.loc 3 342 0
 458              	@ 342 "ChibiOS_3.0.2/os/ext/CMSIS/include/core_cmFunc.h" 1
 459 0002 72B6     		cpsid i
 460              	@ 0 "" 2
 461              	.LVL22:
 462              		.thumb
 463              	.LBE238:
 464              	.LBE237:
 465              	.LBE236:
 466              	.LBE235:
 467              	.LBB239:
 468              	.LBB240:
 469              		.file 4 "ChibiOS_3.0.2/os/rt/include/chthreads.h"
 470              		.loc 4 249 0
 471 0004 FFF7FEFF 		bl	chSchReadyI
 472              	.LVL23:
 473              	.LBE240:
 474              	.LBE239:
 475              	.LBB241:
 476              	.LBB242:
 477              	.LBB243:
 478              	.LBB244:
 479              	.LBB245:
 480              		.loc 3 331 0
 481              	@ 331 "ChibiOS_3.0.2/os/ext/CMSIS/include/core_cmFunc.h" 1
 482 0008 62B6     		cpsie i
 483              	@ 0 "" 2
 484              		.thumb
 485              	.LBE245:
 486              	.LBE244:
 487              	.LBE243:
 488              	.LBE242:
 489              	.LBE241:
 490              		.loc 1 245 0
 491 000a 08BD     		pop	{r3, pc}
 492              		.cfi_endproc
 493              	.LFE222:
 494              		.size	chThdStart, .-chThdStart
 495              		.section	.text.chThdSetPriority,"ax",%progbits
 496              		.align	2
 497              		.p2align 4,,15
 498              		.global	chThdSetPriority
 499              		.thumb
 500              		.thumb_func
 501              		.type	chThdSetPriority, %function
 502              	chThdSetPriority:
 503              	.LFB223:
 504              		.loc 1 259 0
 505              		.cfi_startproc
 506              		@ args = 0, pretend = 0, frame = 0
 507              		@ frame_needed = 0, uses_anonymous_args = 0
 508              	.LVL24:
 509 0000 10B5     		push	{r4, lr}
 510              		.cfi_def_cfa_offset 8
 511              		.cfi_offset 4, -8
 512              		.cfi_offset 14, -4
 513              	.LBB246:
ARM GAS  /tmp/ccajsr7N.s 			page 10


 514              	.LBB247:
 515              	.LBB248:
 516              	.LBB249:
 517              		.loc 3 342 0
 518              	@ 342 "ChibiOS_3.0.2/os/ext/CMSIS/include/core_cmFunc.h" 1
 519 0002 72B6     		cpsid i
 520              	@ 0 "" 2
 521              		.thumb
 522              	.LBE249:
 523              	.LBE248:
 524              	.LBE247:
 525              	.LBE246:
 526              		.loc 1 266 0
 527 0004 074B     		ldr	r3, .L20
 528 0006 9B69     		ldr	r3, [r3, #24]
 529 0008 1C6C     		ldr	r4, [r3, #64]
 530              	.LVL25:
 531              		.loc 1 267 0
 532 000a 9968     		ldr	r1, [r3, #8]
 533 000c 8C42     		cmp	r4, r1
 534 000e 01D0     		beq	.L16
 535              		.loc 1 267 0 is_stmt 0 discriminator 1
 536 0010 8142     		cmp	r1, r0
 537 0012 00D2     		bcs	.L17
 538              	.L16:
 539              		.loc 1 268 0 is_stmt 1
 540 0014 9860     		str	r0, [r3, #8]
 541              	.L17:
 542              		.loc 1 270 0
 543 0016 1864     		str	r0, [r3, #64]
 544              		.loc 1 275 0
 545 0018 FFF7FEFF 		bl	chSchRescheduleS
 546              	.LVL26:
 547              	.LBB250:
 548              	.LBB251:
 549              	.LBB252:
 550              	.LBB253:
 551              	.LBB254:
 552              		.loc 3 331 0
 553              	@ 331 "ChibiOS_3.0.2/os/ext/CMSIS/include/core_cmFunc.h" 1
 554 001c 62B6     		cpsie i
 555              	@ 0 "" 2
 556              		.thumb
 557              	.LBE254:
 558              	.LBE253:
 559              	.LBE252:
 560              	.LBE251:
 561              	.LBE250:
 562              		.loc 1 279 0
 563 001e 2046     		mov	r0, r4
 564 0020 10BD     		pop	{r4, pc}
 565              	.LVL27:
 566              	.L21:
 567 0022 00BF     		.align	2
 568              	.L20:
 569 0024 00000000 		.word	ch
 570              		.cfi_endproc
ARM GAS  /tmp/ccajsr7N.s 			page 11


 571              	.LFE223:
 572              		.size	chThdSetPriority, .-chThdSetPriority
 573              		.section	.text.chThdTerminate,"ax",%progbits
 574              		.align	2
 575              		.p2align 4,,15
 576              		.global	chThdTerminate
 577              		.thumb
 578              		.thumb_func
 579              		.type	chThdTerminate, %function
 580              	chThdTerminate:
 581              	.LFB224:
 582              		.loc 1 293 0
 583              		.cfi_startproc
 584              		@ args = 0, pretend = 0, frame = 0
 585              		@ frame_needed = 0, uses_anonymous_args = 0
 586              		@ link register save eliminated.
 587              	.LVL28:
 588              	.LBB255:
 589              	.LBB256:
 590              	.LBB257:
 591              	.LBB258:
 592              		.loc 3 342 0
 593              	@ 342 "ChibiOS_3.0.2/os/ext/CMSIS/include/core_cmFunc.h" 1
 594 0000 72B6     		cpsid i
 595              	@ 0 "" 2
 596              		.thumb
 597              	.LBE258:
 598              	.LBE257:
 599              	.LBE256:
 600              	.LBE255:
 601              		.loc 1 296 0
 602 0002 437F     		ldrb	r3, [r0, #29]	@ zero_extendqisi2
 603 0004 43F00403 		orr	r3, r3, #4
 604 0008 4377     		strb	r3, [r0, #29]
 605              	.LBB259:
 606              	.LBB260:
 607              	.LBB261:
 608              	.LBB262:
 609              	.LBB263:
 610              		.loc 3 331 0
 611              	@ 331 "ChibiOS_3.0.2/os/ext/CMSIS/include/core_cmFunc.h" 1
 612 000a 62B6     		cpsie i
 613              	@ 0 "" 2
 614              		.thumb
 615 000c 7047     		bx	lr
 616              	.LBE263:
 617              	.LBE262:
 618              	.LBE261:
 619              	.LBE260:
 620              	.LBE259:
 621              		.cfi_endproc
 622              	.LFE224:
 623              		.size	chThdTerminate, .-chThdTerminate
 624 000e 00BF     		.section	.text.chThdSleep,"ax",%progbits
 625              		.align	2
 626              		.p2align 4,,15
 627              		.global	chThdSleep
ARM GAS  /tmp/ccajsr7N.s 			page 12


 628              		.thumb
 629              		.thumb_func
 630              		.type	chThdSleep, %function
 631              	chThdSleep:
 632              	.LFB225:
 633              		.loc 1 312 0
 634              		.cfi_startproc
 635              		@ args = 0, pretend = 0, frame = 0
 636              		@ frame_needed = 0, uses_anonymous_args = 0
 637              	.LVL29:
 638 0000 08B5     		push	{r3, lr}
 639              		.cfi_def_cfa_offset 8
 640              		.cfi_offset 3, -8
 641              		.cfi_offset 14, -4
 642              		.loc 1 312 0
 643 0002 0146     		mov	r1, r0
 644              	.LBB264:
 645              	.LBB265:
 646              	.LBB266:
 647              	.LBB267:
 648              		.loc 3 342 0
 649              	@ 342 "ChibiOS_3.0.2/os/ext/CMSIS/include/core_cmFunc.h" 1
 650 0004 72B6     		cpsid i
 651              	@ 0 "" 2
 652              	.LVL30:
 653              		.thumb
 654              	.LBE267:
 655              	.LBE266:
 656              	.LBE265:
 657              	.LBE264:
 658              	.LBB268:
 659              	.LBB269:
 660              		.loc 4 268 0
 661 0006 0820     		movs	r0, #8
 662              	.LVL31:
 663 0008 FFF7FEFF 		bl	chSchGoSleepTimeoutS
 664              	.LVL32:
 665              	.LBE269:
 666              	.LBE268:
 667              	.LBB270:
 668              	.LBB271:
 669              	.LBB272:
 670              	.LBB273:
 671              	.LBB274:
 672              		.loc 3 331 0
 673              	@ 331 "ChibiOS_3.0.2/os/ext/CMSIS/include/core_cmFunc.h" 1
 674 000c 62B6     		cpsie i
 675              	@ 0 "" 2
 676              		.thumb
 677 000e 08BD     		pop	{r3, pc}
 678              	.LBE274:
 679              	.LBE273:
 680              	.LBE272:
 681              	.LBE271:
 682              	.LBE270:
 683              		.cfi_endproc
 684              	.LFE225:
ARM GAS  /tmp/ccajsr7N.s 			page 13


 685              		.size	chThdSleep, .-chThdSleep
 686              		.section	.text.chThdSleepUntil,"ax",%progbits
 687              		.align	2
 688              		.p2align 4,,15
 689              		.global	chThdSleepUntil
 690              		.thumb
 691              		.thumb_func
 692              		.type	chThdSleepUntil, %function
 693              	chThdSleepUntil:
 694              	.LFB226:
 695              		.loc 1 332 0
 696              		.cfi_startproc
 697              		@ args = 0, pretend = 0, frame = 0
 698              		@ frame_needed = 0, uses_anonymous_args = 0
 699              	.LVL33:
 700 0000 08B5     		push	{r3, lr}
 701              		.cfi_def_cfa_offset 8
 702              		.cfi_offset 3, -8
 703              		.cfi_offset 14, -4
 704              	.LBB275:
 705              	.LBB276:
 706              	.LBB277:
 707              	.LBB278:
 708              		.loc 3 342 0
 709              	@ 342 "ChibiOS_3.0.2/os/ext/CMSIS/include/core_cmFunc.h" 1
 710 0002 72B6     		cpsid i
 711              	@ 0 "" 2
 712              		.thumb
 713              	.LBE278:
 714              	.LBE277:
 715              	.LBE276:
 716              	.LBE275:
 717              	.LBB279:
 718              	.LBB280:
 719              		.file 5 "ChibiOS_3.0.2/os/rt/include/chvt.h"
 720              		.loc 5 231 0
 721 0004 044B     		ldr	r3, .L31
 722 0006 996A     		ldr	r1, [r3, #40]
 723              	.LVL34:
 724              	.LBE280:
 725              	.LBE279:
 726              		.loc 1 336 0
 727 0008 411A     		subs	r1, r0, r1
 728              	.LVL35:
 729 000a 02D0     		beq	.L26
 730              	.LVL36:
 731              	.LBB281:
 732              	.LBB282:
 733              		.loc 4 268 0
 734 000c 0820     		movs	r0, #8
 735 000e FFF7FEFF 		bl	chSchGoSleepTimeoutS
 736              	.LVL37:
 737              	.L26:
 738              	.LBE282:
 739              	.LBE281:
 740              	.LBB283:
 741              	.LBB284:
ARM GAS  /tmp/ccajsr7N.s 			page 14


 742              	.LBB285:
 743              	.LBB286:
 744              	.LBB287:
 745              		.loc 3 331 0
 746              	@ 331 "ChibiOS_3.0.2/os/ext/CMSIS/include/core_cmFunc.h" 1
 747 0012 62B6     		cpsie i
 748              	@ 0 "" 2
 749              		.thumb
 750 0014 08BD     		pop	{r3, pc}
 751              	.L32:
 752 0016 00BF     		.align	2
 753              	.L31:
 754 0018 00000000 		.word	ch
 755              	.LBE287:
 756              	.LBE286:
 757              	.LBE285:
 758              	.LBE284:
 759              	.LBE283:
 760              		.cfi_endproc
 761              	.LFE226:
 762              		.size	chThdSleepUntil, .-chThdSleepUntil
 763              		.section	.text.chThdSleepUntilWindowed,"ax",%progbits
 764              		.align	2
 765              		.p2align 4,,15
 766              		.global	chThdSleepUntilWindowed
 767              		.thumb
 768              		.thumb_func
 769              		.type	chThdSleepUntilWindowed, %function
 770              	chThdSleepUntilWindowed:
 771              	.LFB227:
 772              		.loc 1 356 0
 773              		.cfi_startproc
 774              		@ args = 0, pretend = 0, frame = 0
 775              		@ frame_needed = 0, uses_anonymous_args = 0
 776              	.LVL38:
 777 0000 10B5     		push	{r4, lr}
 778              		.cfi_def_cfa_offset 8
 779              		.cfi_offset 4, -8
 780              		.cfi_offset 14, -4
 781              		.loc 1 356 0
 782 0002 0C46     		mov	r4, r1
 783              	.LBB288:
 784              	.LBB289:
 785              	.LBB290:
 786              	.LBB291:
 787              		.loc 3 342 0
 788              	@ 342 "ChibiOS_3.0.2/os/ext/CMSIS/include/core_cmFunc.h" 1
 789 0004 72B6     		cpsid i
 790              	@ 0 "" 2
 791              		.thumb
 792              	.LBE291:
 793              	.LBE290:
 794              	.LBE289:
 795              	.LBE288:
 796              	.LBB292:
 797              	.LBB293:
 798              		.loc 5 231 0
ARM GAS  /tmp/ccajsr7N.s 			page 15


 799 0006 064B     		ldr	r3, .L36
 800 0008 996A     		ldr	r1, [r3, #40]
 801              	.LVL39:
 802              	.LBE293:
 803              	.LBE292:
 804              	.LBB294:
 805              	.LBB295:
 806              		.loc 5 288 0
 807 000a 231A     		subs	r3, r4, r0
 808 000c 081A     		subs	r0, r1, r0
 809              	.LVL40:
 810              	.LBE295:
 811              	.LBE294:
 812              		.loc 1 361 0
 813 000e 9842     		cmp	r0, r3
 814 0010 03D2     		bcs	.L34
 815              	.LVL41:
 816              	.LBB296:
 817              	.LBB297:
 818              		.loc 4 268 0
 819 0012 611A     		subs	r1, r4, r1
 820              	.LVL42:
 821 0014 0820     		movs	r0, #8
 822 0016 FFF7FEFF 		bl	chSchGoSleepTimeoutS
 823              	.LVL43:
 824              	.L34:
 825              	.LBE297:
 826              	.LBE296:
 827              	.LBB298:
 828              	.LBB299:
 829              	.LBB300:
 830              	.LBB301:
 831              	.LBB302:
 832              		.loc 3 331 0
 833              	@ 331 "ChibiOS_3.0.2/os/ext/CMSIS/include/core_cmFunc.h" 1
 834 001a 62B6     		cpsie i
 835              	@ 0 "" 2
 836              		.thumb
 837              	.LBE302:
 838              	.LBE301:
 839              	.LBE300:
 840              	.LBE299:
 841              	.LBE298:
 842              		.loc 1 367 0
 843 001c 2046     		mov	r0, r4
 844 001e 10BD     		pop	{r4, pc}
 845              	.LVL44:
 846              	.L37:
 847              		.align	2
 848              	.L36:
 849 0020 00000000 		.word	ch
 850              		.cfi_endproc
 851              	.LFE227:
 852              		.size	chThdSleepUntilWindowed, .-chThdSleepUntilWindowed
 853              		.section	.text.chThdYield,"ax",%progbits
 854              		.align	2
 855              		.p2align 4,,15
ARM GAS  /tmp/ccajsr7N.s 			page 16


 856              		.global	chThdYield
 857              		.thumb
 858              		.thumb_func
 859              		.type	chThdYield, %function
 860              	chThdYield:
 861              	.LFB228:
 862              		.loc 1 376 0
 863              		.cfi_startproc
 864              		@ args = 0, pretend = 0, frame = 0
 865              		@ frame_needed = 0, uses_anonymous_args = 0
 866 0000 08B5     		push	{r3, lr}
 867              		.cfi_def_cfa_offset 8
 868              		.cfi_offset 3, -8
 869              		.cfi_offset 14, -4
 870              	.LBB316:
 871              	.LBB317:
 872              	.LBB318:
 873              	.LBB319:
 874              		.loc 3 342 0
 875              	@ 342 "ChibiOS_3.0.2/os/ext/CMSIS/include/core_cmFunc.h" 1
 876 0002 72B6     		cpsid i
 877              	@ 0 "" 2
 878              		.thumb
 879              	.LBE319:
 880              	.LBE318:
 881              	.LBE317:
 882              	.LBE316:
 883              	.LBB320:
 884              	.LBB321:
 885              	.LBB322:
 886              	.LBB323:
 887              		.loc 2 731 0
 888 0004 054B     		ldr	r3, .L41
 889 0006 1A68     		ldr	r2, [r3]
 890 0008 9B69     		ldr	r3, [r3, #24]
 891              	.LBE323:
 892              	.LBE322:
 893              		.loc 2 745 0
 894 000a 9268     		ldr	r2, [r2, #8]
 895 000c 9B68     		ldr	r3, [r3, #8]
 896 000e 9A42     		cmp	r2, r3
 897 0010 01D3     		bcc	.L39
 898              		.loc 2 746 0
 899 0012 FFF7FEFF 		bl	chSchDoRescheduleBehind
 900              	.LVL45:
 901              	.L39:
 902              	.LBE321:
 903              	.LBE320:
 904              	.LBB324:
 905              	.LBB325:
 906              	.LBB326:
 907              	.LBB327:
 908              	.LBB328:
 909              		.loc 3 331 0
 910              	@ 331 "ChibiOS_3.0.2/os/ext/CMSIS/include/core_cmFunc.h" 1
 911 0016 62B6     		cpsie i
 912              	@ 0 "" 2
ARM GAS  /tmp/ccajsr7N.s 			page 17


 913              		.thumb
 914 0018 08BD     		pop	{r3, pc}
 915              	.L42:
 916 001a 00BF     		.align	2
 917              	.L41:
 918 001c 00000000 		.word	ch
 919              	.LBE328:
 920              	.LBE327:
 921              	.LBE326:
 922              	.LBE325:
 923              	.LBE324:
 924              		.cfi_endproc
 925              	.LFE228:
 926              		.size	chThdYield, .-chThdYield
 927              		.section	.text.chThdExitS,"ax",%progbits
 928              		.align	2
 929              		.p2align 4,,15
 930              		.global	chThdExitS
 931              		.thumb
 932              		.thumb_func
 933              		.type	chThdExitS, %function
 934              	chThdExitS:
 935              	.LFB230:
 936              		.loc 1 418 0
 937              		.cfi_startproc
 938              		@ args = 0, pretend = 0, frame = 0
 939              		@ frame_needed = 0, uses_anonymous_args = 0
 940              	.LVL46:
 941 0000 38B5     		push	{r3, r4, r5, lr}
 942              		.cfi_def_cfa_offset 16
 943              		.cfi_offset 3, -16
 944              		.cfi_offset 4, -12
 945              		.cfi_offset 5, -8
 946              		.cfi_offset 14, -4
 947              		.loc 1 419 0
 948 0002 0E4B     		ldr	r3, .L51
 949 0004 9C69     		ldr	r4, [r3, #24]
 950              	.LVL47:
 951              	.LBB329:
 952              	.LBB330:
 953              		.loc 2 592 0
 954 0006 A36A     		ldr	r3, [r4, #40]
 955              	.LBE330:
 956              	.LBE329:
 957              		.loc 1 421 0
 958 0008 6062     		str	r0, [r4, #36]
 959              		.loc 1 426 0
 960 000a 04F12805 		add	r5, r4, #40
 961              	.LVL48:
 962 000e 9D42     		cmp	r5, r3
 963 0010 07D0     		beq	.L48
 964              	.LVL49:
 965              	.L47:
 966              	.LBB332:
 967              	.LBB333:
 968              		.loc 2 646 0
 969 0012 1A68     		ldr	r2, [r3]
ARM GAS  /tmp/ccajsr7N.s 			page 18


 970 0014 A262     		str	r2, [r4, #40]
 971              	.LBE333:
 972              	.LBE332:
 973              		.loc 1 427 0
 974 0016 1846     		mov	r0, r3
 975 0018 FFF7FEFF 		bl	chSchReadyI
 976              	.LVL50:
 977              	.LBB334:
 978              	.LBB331:
 979              		.loc 2 592 0
 980 001c A36A     		ldr	r3, [r4, #40]
 981              	.LBE331:
 982              	.LBE334:
 983              		.loc 1 426 0
 984 001e AB42     		cmp	r3, r5
 985 0020 F7D1     		bne	.L47
 986              	.LVL51:
 987              	.L48:
 988              		.loc 1 433 0
 989 0022 637F     		ldrb	r3, [r4, #29]	@ zero_extendqisi2
 990 0024 9B07     		lsls	r3, r3, #30
 991 0026 04D1     		bne	.L46
 992              		.loc 1 434 0
 993 0028 6369     		ldr	r3, [r4, #20]
 994 002a 2269     		ldr	r2, [r4, #16]
 995 002c 1A61     		str	r2, [r3, #16]
 996 002e 2269     		ldr	r2, [r4, #16]
 997 0030 5361     		str	r3, [r2, #20]
 998              	.L46:
 999              		.loc 1 437 0
 1000 0032 0F20     		movs	r0, #15
 1001              		.loc 1 441 0
 1002 0034 BDE83840 		pop	{r3, r4, r5, lr}
 1003              		.cfi_restore 14
 1004              		.cfi_restore 5
 1005              		.cfi_restore 4
 1006              		.cfi_restore 3
 1007              		.cfi_def_cfa_offset 0
 1008              	.LVL52:
 1009              		.loc 1 437 0
 1010 0038 FFF7FEBF 		b	chSchGoSleepS
 1011              	.LVL53:
 1012              	.L52:
 1013              		.align	2
 1014              	.L51:
 1015 003c 00000000 		.word	ch
 1016              		.cfi_endproc
 1017              	.LFE230:
 1018              		.size	chThdExitS, .-chThdExitS
 1019              		.section	.text.chThdExit,"ax",%progbits
 1020              		.align	2
 1021              		.p2align 4,,15
 1022              		.global	chThdExit
 1023              		.thumb
 1024              		.thumb_func
 1025              		.type	chThdExit, %function
 1026              	chThdExit:
ARM GAS  /tmp/ccajsr7N.s 			page 19


 1027              	.LFB229:
 1028              		.loc 1 397 0
 1029              		.cfi_startproc
 1030              		@ args = 0, pretend = 0, frame = 0
 1031              		@ frame_needed = 0, uses_anonymous_args = 0
 1032              		@ link register save eliminated.
 1033              	.LVL54:
 1034              	.LBB335:
 1035              	.LBB336:
 1036              	.LBB337:
 1037              	.LBB338:
 1038              		.loc 3 342 0
 1039              	@ 342 "ChibiOS_3.0.2/os/ext/CMSIS/include/core_cmFunc.h" 1
 1040 0000 72B6     		cpsid i
 1041              	@ 0 "" 2
 1042              		.thumb
 1043              	.LBE338:
 1044              	.LBE337:
 1045              	.LBE336:
 1046              	.LBE335:
 1047              		.loc 1 400 0
 1048 0002 FFF7FEBF 		b	chThdExitS
 1049              	.LVL55:
 1050              		.cfi_endproc
 1051              	.LFE229:
 1052              		.size	chThdExit, .-chThdExit
 1053 0006 00BF     		.section	.text.chThdWait,"ax",%progbits
 1054              		.align	2
 1055              		.p2align 4,,15
 1056              		.global	chThdWait
 1057              		.thumb
 1058              		.thumb_func
 1059              		.type	chThdWait, %function
 1060              	chThdWait:
 1061              	.LFB231:
 1062              		.loc 1 475 0
 1063              		.cfi_startproc
 1064              		@ args = 0, pretend = 0, frame = 0
 1065              		@ frame_needed = 0, uses_anonymous_args = 0
 1066              	.LVL56:
 1067 0000 38B5     		push	{r3, r4, r5, lr}
 1068              		.cfi_def_cfa_offset 16
 1069              		.cfi_offset 3, -16
 1070              		.cfi_offset 4, -12
 1071              		.cfi_offset 5, -8
 1072              		.cfi_offset 14, -4
 1073              		.loc 1 475 0
 1074 0002 0446     		mov	r4, r0
 1075              	.LBB339:
 1076              	.LBB340:
 1077              	.LBB341:
 1078              	.LBB342:
 1079              		.loc 3 342 0
 1080              	@ 342 "ChibiOS_3.0.2/os/ext/CMSIS/include/core_cmFunc.h" 1
 1081 0004 72B6     		cpsid i
 1082              	@ 0 "" 2
 1083              		.thumb
ARM GAS  /tmp/ccajsr7N.s 			page 20


 1084              	.LBE342:
 1085              	.LBE341:
 1086              	.LBE340:
 1087              	.LBE339:
 1088              		.loc 1 485 0
 1089 0006 037F     		ldrb	r3, [r0, #28]	@ zero_extendqisi2
 1090 0008 0F2B     		cmp	r3, #15
 1091 000a 07D0     		beq	.L55
 1092              		.loc 1 486 0
 1093 000c 074B     		ldr	r3, .L60
 1094              	.LBB343:
 1095              	.LBB344:
 1096              		.loc 2 639 0
 1097 000e 826A     		ldr	r2, [r0, #40]
 1098              	.LBE344:
 1099              	.LBE343:
 1100              		.loc 1 486 0
 1101 0010 9B69     		ldr	r3, [r3, #24]
 1102              	.LVL57:
 1103              		.loc 1 487 0
 1104 0012 0920     		movs	r0, #9
 1105              	.LVL58:
 1106              	.LBB346:
 1107              	.LBB345:
 1108              		.loc 2 639 0
 1109 0014 1A60     		str	r2, [r3]
 1110              		.loc 2 640 0
 1111 0016 A362     		str	r3, [r4, #40]
 1112              	.LBE345:
 1113              	.LBE346:
 1114              		.loc 1 487 0
 1115 0018 FFF7FEFF 		bl	chSchGoSleepS
 1116              	.LVL59:
 1117              	.L55:
 1118              		.loc 1 489 0
 1119 001c 656A     		ldr	r5, [r4, #36]
 1120              	.LVL60:
 1121              	.LBB347:
 1122              	.LBB348:
 1123              	.LBB349:
 1124              	.LBB350:
 1125              	.LBB351:
 1126              		.loc 3 331 0
 1127              	@ 331 "ChibiOS_3.0.2/os/ext/CMSIS/include/core_cmFunc.h" 1
 1128 001e 62B6     		cpsie i
 1129              	@ 0 "" 2
 1130              		.thumb
 1131              	.LBE351:
 1132              	.LBE350:
 1133              	.LBE349:
 1134              	.LBE348:
 1135              	.LBE347:
 1136              		.loc 1 494 0
 1137 0020 2046     		mov	r0, r4
 1138 0022 FFF7FEFF 		bl	chThdRelease
 1139              	.LVL61:
 1140              		.loc 1 498 0
ARM GAS  /tmp/ccajsr7N.s 			page 21


 1141 0026 2846     		mov	r0, r5
 1142 0028 38BD     		pop	{r3, r4, r5, pc}
 1143              	.LVL62:
 1144              	.L61:
 1145 002a 00BF     		.align	2
 1146              	.L60:
 1147 002c 00000000 		.word	ch
 1148              		.cfi_endproc
 1149              	.LFE231:
 1150              		.size	chThdWait, .-chThdWait
 1151              		.section	.text.chThdSuspendS,"ax",%progbits
 1152              		.align	2
 1153              		.p2align 4,,15
 1154              		.global	chThdSuspendS
 1155              		.thumb
 1156              		.thumb_func
 1157              		.type	chThdSuspendS, %function
 1158              	chThdSuspendS:
 1159              	.LFB232:
 1160              		.loc 1 511 0
 1161              		.cfi_startproc
 1162              		@ args = 0, pretend = 0, frame = 0
 1163              		@ frame_needed = 0, uses_anonymous_args = 0
 1164              	.LVL63:
 1165 0000 10B5     		push	{r4, lr}
 1166              		.cfi_def_cfa_offset 8
 1167              		.cfi_offset 4, -8
 1168              		.cfi_offset 14, -4
 1169              	.LBB352:
 1170              	.LBB353:
 1171              		.loc 4 176 0
 1172 0002 054C     		ldr	r4, .L64
 1173 0004 A369     		ldr	r3, [r4, #24]
 1174              	.LBE353:
 1175              	.LBE352:
 1176              		.loc 1 516 0
 1177 0006 0360     		str	r3, [r0]
 1178              		.loc 1 511 0
 1179 0008 0246     		mov	r2, r0
 1180              		.loc 1 517 0
 1181 000a 5A62     		str	r2, [r3, #36]
 1182              		.loc 1 518 0
 1183 000c 0320     		movs	r0, #3
 1184              	.LVL64:
 1185 000e FFF7FEFF 		bl	chSchGoSleepS
 1186              	.LVL65:
 1187              		.loc 1 520 0
 1188 0012 A369     		ldr	r3, [r4, #24]
 1189              		.loc 1 521 0
 1190 0014 586A     		ldr	r0, [r3, #36]
 1191 0016 10BD     		pop	{r4, pc}
 1192              	.L65:
 1193              		.align	2
 1194              	.L64:
 1195 0018 00000000 		.word	ch
 1196              		.cfi_endproc
 1197              	.LFE232:
ARM GAS  /tmp/ccajsr7N.s 			page 22


 1198              		.size	chThdSuspendS, .-chThdSuspendS
 1199              		.section	.text.chThdSuspendTimeoutS,"ax",%progbits
 1200              		.align	2
 1201              		.p2align 4,,15
 1202              		.global	chThdSuspendTimeoutS
 1203              		.thumb
 1204              		.thumb_func
 1205              		.type	chThdSuspendTimeoutS, %function
 1206              	chThdSuspendTimeoutS:
 1207              	.LFB233:
 1208              		.loc 1 542 0
 1209              		.cfi_startproc
 1210              		@ args = 0, pretend = 0, frame = 0
 1211              		@ frame_needed = 0, uses_anonymous_args = 0
 1212              		@ link register save eliminated.
 1213              	.LVL66:
 1214              	.LBB354:
 1215              	.LBB355:
 1216              		.loc 4 176 0
 1217 0000 054B     		ldr	r3, .L68
 1218              	.LBE355:
 1219              	.LBE354:
 1220              		.loc 1 542 0
 1221 0002 0246     		mov	r2, r0
 1222              	.LBB357:
 1223              	.LBB356:
 1224              		.loc 4 176 0
 1225 0004 9B69     		ldr	r3, [r3, #24]
 1226              	.LBE356:
 1227              	.LBE357:
 1228              		.loc 1 547 0
 1229 0006 21B1     		cbz	r1, .L67
 1230              		.loc 1 551 0
 1231 0008 0360     		str	r3, [r0]
 1232              		.loc 1 554 0
 1233 000a 0320     		movs	r0, #3
 1234              	.LVL67:
 1235              		.loc 1 552 0
 1236 000c 5A62     		str	r2, [r3, #36]
 1237              		.loc 1 554 0
 1238 000e FFF7FEBF 		b	chSchGoSleepTimeoutS
 1239              	.LVL68:
 1240              	.L67:
 1241              		.loc 1 555 0
 1242 0012 4FF0FF30 		mov	r0, #-1
 1243              	.LVL69:
 1244 0016 7047     		bx	lr
 1245              	.L69:
 1246              		.align	2
 1247              	.L68:
 1248 0018 00000000 		.word	ch
 1249              		.cfi_endproc
 1250              	.LFE233:
 1251              		.size	chThdSuspendTimeoutS, .-chThdSuspendTimeoutS
 1252              		.section	.text.chThdResumeI,"ax",%progbits
 1253              		.align	2
 1254              		.p2align 4,,15
ARM GAS  /tmp/ccajsr7N.s 			page 23


 1255              		.global	chThdResumeI
 1256              		.thumb
 1257              		.thumb_func
 1258              		.type	chThdResumeI, %function
 1259              	chThdResumeI:
 1260              	.LFB234:
 1261              		.loc 1 567 0
 1262              		.cfi_startproc
 1263              		@ args = 0, pretend = 0, frame = 0
 1264              		@ frame_needed = 0, uses_anonymous_args = 0
 1265              		@ link register save eliminated.
 1266              	.LVL70:
 1267              		.loc 1 569 0
 1268 0000 0368     		ldr	r3, [r0]
 1269 0002 2BB1     		cbz	r3, .L70
 1270              	.LVL71:
 1271              	.LBB358:
 1272              		.loc 1 575 0
 1273 0004 0022     		movs	r2, #0
 1274 0006 0260     		str	r2, [r0]
 1275              		.loc 1 577 0
 1276 0008 1846     		mov	r0, r3
 1277              	.LVL72:
 1278              		.loc 1 576 0
 1279 000a 5962     		str	r1, [r3, #36]
 1280              		.loc 1 577 0
 1281 000c FFF7FEBF 		b	chSchReadyI
 1282              	.LVL73:
 1283              	.L70:
 1284 0010 7047     		bx	lr
 1285              	.LBE358:
 1286              		.cfi_endproc
 1287              	.LFE234:
 1288              		.size	chThdResumeI, .-chThdResumeI
 1289 0012 00BF     		.section	.text.chThdResumeS,"ax",%progbits
 1290              		.align	2
 1291              		.p2align 4,,15
 1292              		.global	chThdResumeS
 1293              		.thumb
 1294              		.thumb_func
 1295              		.type	chThdResumeS, %function
 1296              	chThdResumeS:
 1297              	.LFB235:
 1298              		.loc 1 591 0
 1299              		.cfi_startproc
 1300              		@ args = 0, pretend = 0, frame = 0
 1301              		@ frame_needed = 0, uses_anonymous_args = 0
 1302              		@ link register save eliminated.
 1303              	.LVL74:
 1304              		.loc 1 591 0
 1305 0000 0346     		mov	r3, r0
 1306              		.loc 1 593 0
 1307 0002 0068     		ldr	r0, [r0]
 1308              	.LVL75:
 1309 0004 18B1     		cbz	r0, .L72
 1310              	.LVL76:
 1311              	.LBB359:
ARM GAS  /tmp/ccajsr7N.s 			page 24


 1312              		.loc 1 599 0
 1313 0006 0022     		movs	r2, #0
 1314 0008 1A60     		str	r2, [r3]
 1315              		.loc 1 600 0
 1316 000a FFF7FEBF 		b	chSchWakeupS
 1317              	.LVL77:
 1318              	.L72:
 1319 000e 7047     		bx	lr
 1320              	.LBE359:
 1321              		.cfi_endproc
 1322              	.LFE235:
 1323              		.size	chThdResumeS, .-chThdResumeS
 1324              		.section	.text.chThdResume,"ax",%progbits
 1325              		.align	2
 1326              		.p2align 4,,15
 1327              		.global	chThdResume
 1328              		.thumb
 1329              		.thumb_func
 1330              		.type	chThdResume, %function
 1331              	chThdResume:
 1332              	.LFB236:
 1333              		.loc 1 614 0
 1334              		.cfi_startproc
 1335              		@ args = 0, pretend = 0, frame = 0
 1336              		@ frame_needed = 0, uses_anonymous_args = 0
 1337              	.LVL78:
 1338              	.LBB360:
 1339              	.LBB361:
 1340              	.LBB362:
 1341              	.LBB363:
 1342              		.loc 3 342 0
 1343              	@ 342 "ChibiOS_3.0.2/os/ext/CMSIS/include/core_cmFunc.h" 1
 1344 0000 72B6     		cpsid i
 1345              	@ 0 "" 2
 1346              	.LVL79:
 1347              		.thumb
 1348              	.LBE363:
 1349              	.LBE362:
 1350              	.LBE361:
 1351              	.LBE360:
 1352              	.LBB364:
 1353              	.LBB365:
 1354              		.loc 1 593 0
 1355 0002 0268     		ldr	r2, [r0]
 1356 0004 42B1     		cbz	r2, .L80
 1357 0006 0346     		mov	r3, r0
 1358              	.LVL80:
 1359              	.LBE365:
 1360              	.LBE364:
 1361              		.loc 1 614 0
 1362 0008 10B5     		push	{r4, lr}
 1363              		.cfi_def_cfa_offset 8
 1364              		.cfi_offset 4, -8
 1365              		.cfi_offset 14, -4
 1366              	.LBB368:
 1367              	.LBB367:
 1368              	.LBB366:
ARM GAS  /tmp/ccajsr7N.s 			page 25


 1369              		.loc 1 599 0
 1370 000a 0024     		movs	r4, #0
 1371              		.loc 1 600 0
 1372 000c 1046     		mov	r0, r2
 1373              	.LVL81:
 1374              		.loc 1 599 0
 1375 000e 1C60     		str	r4, [r3]
 1376              		.loc 1 600 0
 1377 0010 FFF7FEFF 		bl	chSchWakeupS
 1378              	.LVL82:
 1379              	.LBE366:
 1380              	.LBE367:
 1381              	.LBE368:
 1382              	.LBB369:
 1383              	.LBB370:
 1384              	.LBB371:
 1385              	.LBB372:
 1386              	.LBB373:
 1387              		.loc 3 331 0
 1388              	@ 331 "ChibiOS_3.0.2/os/ext/CMSIS/include/core_cmFunc.h" 1
 1389 0014 62B6     		cpsie i
 1390              	@ 0 "" 2
 1391              		.thumb
 1392 0016 10BD     		pop	{r4, pc}
 1393              	.LVL83:
 1394              	.L80:
 1395              		.cfi_def_cfa_offset 0
 1396              		.cfi_restore 4
 1397              		.cfi_restore 14
 1398              	@ 331 "ChibiOS_3.0.2/os/ext/CMSIS/include/core_cmFunc.h" 1
 1399 0018 62B6     		cpsie i
 1400              	@ 0 "" 2
 1401              		.thumb
 1402 001a 7047     		bx	lr
 1403              	.LBE373:
 1404              	.LBE372:
 1405              	.LBE371:
 1406              	.LBE370:
 1407              	.LBE369:
 1408              		.cfi_endproc
 1409              	.LFE236:
 1410              		.size	chThdResume, .-chThdResume
 1411              		.section	.text.chThdEnqueueTimeoutS,"ax",%progbits
 1412              		.align	2
 1413              		.p2align 4,,15
 1414              		.global	chThdEnqueueTimeoutS
 1415              		.thumb
 1416              		.thumb_func
 1417              		.type	chThdEnqueueTimeoutS, %function
 1418              	chThdEnqueueTimeoutS:
 1419              	.LFB237:
 1420              		.loc 1 644 0
 1421              		.cfi_startproc
 1422              		@ args = 0, pretend = 0, frame = 0
 1423              		@ frame_needed = 0, uses_anonymous_args = 0
 1424              		@ link register save eliminated.
 1425              	.LVL84:
ARM GAS  /tmp/ccajsr7N.s 			page 26


 1426              		.loc 1 646 0
 1427 0000 69B1     		cbz	r1, .L82
 1428              		.loc 1 650 0
 1429 0002 084B     		ldr	r3, .L84
 1430              		.loc 1 644 0
 1431 0004 10B4     		push	{r4}
 1432              		.cfi_def_cfa_offset 4
 1433              		.cfi_offset 4, -4
 1434 0006 0246     		mov	r2, r0
 1435              	.LBB374:
 1436              	.LBB375:
 1437              		.loc 2 666 0
 1438 0008 4468     		ldr	r4, [r0, #4]
 1439              	.LBE375:
 1440              	.LBE374:
 1441              		.loc 1 650 0
 1442 000a 9B69     		ldr	r3, [r3, #24]
 1443              	.LVL85:
 1444              		.loc 1 652 0
 1445 000c 0420     		movs	r0, #4
 1446              	.LVL86:
 1447              	.LBB377:
 1448              	.LBB376:
 1449              		.loc 2 666 0
 1450 000e 83E81400 		stmia	r3, {r2, r4}
 1451              		.loc 2 667 0
 1452 0012 2360     		str	r3, [r4]
 1453              		.loc 2 668 0
 1454 0014 5360     		str	r3, [r2, #4]
 1455              	.LBE376:
 1456              	.LBE377:
 1457              		.loc 1 653 0
 1458 0016 5DF8044B 		ldr	r4, [sp], #4
 1459              		.cfi_restore 4
 1460              		.cfi_def_cfa_offset 0
 1461              		.loc 1 652 0
 1462 001a FFF7FEBF 		b	chSchGoSleepTimeoutS
 1463              	.LVL87:
 1464              	.L82:
 1465              		.loc 1 653 0
 1466 001e 4FF0FF30 		mov	r0, #-1
 1467              	.LVL88:
 1468 0022 7047     		bx	lr
 1469              	.L85:
 1470              		.align	2
 1471              	.L84:
 1472 0024 00000000 		.word	ch
 1473              		.cfi_endproc
 1474              	.LFE237:
 1475              		.size	chThdEnqueueTimeoutS, .-chThdEnqueueTimeoutS
 1476              		.section	.text.chThdDequeueNextI,"ax",%progbits
 1477              		.align	2
 1478              		.p2align 4,,15
 1479              		.global	chThdDequeueNextI
 1480              		.thumb
 1481              		.thumb_func
 1482              		.type	chThdDequeueNextI, %function
ARM GAS  /tmp/ccajsr7N.s 			page 27


 1483              	chThdDequeueNextI:
 1484              	.LFB238:
 1485              		.loc 1 664 0
 1486              		.cfi_startproc
 1487              		@ args = 0, pretend = 0, frame = 0
 1488              		@ frame_needed = 0, uses_anonymous_args = 0
 1489              		@ link register save eliminated.
 1490              	.LVL89:
 1491              	.LBB378:
 1492              	.LBB379:
 1493              		.loc 2 631 0
 1494 0000 0268     		ldr	r2, [r0]
 1495              	.LBE379:
 1496              	.LBE378:
 1497              		.loc 1 666 0
 1498 0002 9042     		cmp	r0, r2
 1499              		.loc 1 664 0
 1500 0004 0346     		mov	r3, r0
 1501              	.LVL90:
 1502              		.loc 1 666 0
 1503 0006 09D0     		beq	.L89
 1504              	.LVL91:
 1505              		.loc 1 664 0
 1506 0008 10B4     		push	{r4}
 1507              		.cfi_def_cfa_offset 4
 1508              		.cfi_offset 4, -4
 1509              	.LBB380:
 1510              	.LBB381:
 1511              	.LBB382:
 1512              	.LBB383:
 1513              		.loc 2 674 0
 1514 000a 1468     		ldr	r4, [r2]
 1515 000c 0460     		str	r4, [r0]
 1516              		.loc 2 675 0
 1517 000e 6360     		str	r3, [r4, #4]
 1518              	.LBE383:
 1519              	.LBE382:
 1520              		.loc 4 321 0
 1521 0010 5162     		str	r1, [r2, #36]
 1522              		.loc 4 322 0
 1523 0012 1046     		mov	r0, r2
 1524              	.LVL92:
 1525              	.LBE381:
 1526              	.LBE380:
 1527              		.loc 1 669 0
 1528 0014 5DF8044B 		ldr	r4, [sp], #4
 1529              		.cfi_restore 4
 1530              		.cfi_def_cfa_offset 0
 1531              	.LBB385:
 1532              	.LBB384:
 1533              		.loc 4 322 0
 1534 0018 FFF7FEBF 		b	chSchReadyI
 1535              	.LVL93:
 1536              	.L89:
 1537 001c 7047     		bx	lr
 1538              	.LBE384:
 1539              	.LBE385:
ARM GAS  /tmp/ccajsr7N.s 			page 28


 1540              		.cfi_endproc
 1541              	.LFE238:
 1542              		.size	chThdDequeueNextI, .-chThdDequeueNextI
 1543 001e 00BF     		.section	.text.chThdDequeueAllI,"ax",%progbits
 1544              		.align	2
 1545              		.p2align 4,,15
 1546              		.global	chThdDequeueAllI
 1547              		.thumb
 1548              		.thumb_func
 1549              		.type	chThdDequeueAllI, %function
 1550              	chThdDequeueAllI:
 1551              	.LFB239:
 1552              		.loc 1 679 0
 1553              		.cfi_startproc
 1554              		@ args = 0, pretend = 0, frame = 0
 1555              		@ frame_needed = 0, uses_anonymous_args = 0
 1556              	.LVL94:
 1557 0000 38B5     		push	{r3, r4, r5, lr}
 1558              		.cfi_def_cfa_offset 16
 1559              		.cfi_offset 3, -16
 1560              		.cfi_offset 4, -12
 1561              		.cfi_offset 5, -8
 1562              		.cfi_offset 14, -4
 1563              	.LBB386:
 1564              	.LBB387:
 1565              		.loc 2 631 0
 1566 0002 0368     		ldr	r3, [r0]
 1567              	.LBE387:
 1568              	.LBE386:
 1569              		.loc 1 681 0
 1570 0004 9842     		cmp	r0, r3
 1571              		.loc 1 679 0
 1572 0006 0446     		mov	r4, r0
 1573              	.LVL95:
 1574 0008 0D46     		mov	r5, r1
 1575              		.loc 1 681 0
 1576 000a 09D0     		beq	.L90
 1577              	.LVL96:
 1578              	.L92:
 1579              	.LBB389:
 1580              	.LBB390:
 1581              	.LBB391:
 1582              	.LBB392:
 1583              		.loc 2 674 0
 1584 000c 1A68     		ldr	r2, [r3]
 1585 000e 2260     		str	r2, [r4]
 1586              	.LBE392:
 1587              	.LBE391:
 1588              		.loc 4 322 0
 1589 0010 1846     		mov	r0, r3
 1590              	.LBB394:
 1591              	.LBB393:
 1592              		.loc 2 675 0
 1593 0012 5460     		str	r4, [r2, #4]
 1594              	.LBE393:
 1595              	.LBE394:
 1596              		.loc 4 321 0
ARM GAS  /tmp/ccajsr7N.s 			page 29


 1597 0014 5D62     		str	r5, [r3, #36]
 1598              		.loc 4 322 0
 1599 0016 FFF7FEFF 		bl	chSchReadyI
 1600              	.LVL97:
 1601              	.LBE390:
 1602              	.LBE389:
 1603              	.LBB395:
 1604              	.LBB388:
 1605              		.loc 2 631 0
 1606 001a 2368     		ldr	r3, [r4]
 1607              	.LBE388:
 1608              	.LBE395:
 1609              		.loc 1 681 0
 1610 001c 9C42     		cmp	r4, r3
 1611 001e F5D1     		bne	.L92
 1612              	.LVL98:
 1613              	.L90:
 1614 0020 38BD     		pop	{r3, r4, r5, pc}
 1615              		.cfi_endproc
 1616              	.LFE239:
 1617              		.size	chThdDequeueAllI, .-chThdDequeueAllI
 1618              		.text
 1619              	.Letext0:
 1620              		.file 6 "/usr/lib/gcc/arm-none-eabi/4.9.3/include/stddef.h"
 1621              		.file 7 "/usr/arm-none-eabi/include/machine/_default_types.h"
 1622              		.file 8 "/usr/arm-none-eabi/include/sys/_stdint.h"
 1623              		.file 9 "ChibiOS_3.0.2/os/rt/ports/ARMCMx/compilers/GCC/chtypes.h"
 1624              		.file 10 "ChibiOS_3.0.2/os/rt/include/chsystypes.h"
 1625              		.file 11 "ChibiOS_3.0.2/os/rt/ports/ARMCMx/chcore.h"
 1626              		.file 12 "ChibiOS_3.0.2/os/rt/ports/ARMCMx/chcore_v7m.h"
 1627              		.file 13 "ChibiOS_3.0.2/os/rt/include/chtm.h"
 1628              		.file 14 "ChibiOS_3.0.2/os/rt/include/chsem.h"
 1629              		.file 15 "ChibiOS_3.0.2/os/rt/include/chmtx.h"
 1630              		.file 16 "ChibiOS_3.0.2/os/rt/include/chsys.h"
 1631              		.file 17 "ChibiOS_3.0.2/os/ext/CMSIS/include/core_cm4.h"
 1632              		.file 18 "ChibiOS_3.0.2/os/rt/include/chdynamic.h"