ARM GAS  /tmp/ccdRBHfg.s 			page 1


   1              		.syntax unified
   2              		.cpu cortex-m4
   3              		.eabi_attribute 27, 1
   4              		.eabi_attribute 28, 1
   5              		.fpu fpv4-sp-d16
   6              		.eabi_attribute 20, 1
   7              		.eabi_attribute 21, 1
   8              		.eabi_attribute 23, 3
   9              		.eabi_attribute 24, 1
  10              		.eabi_attribute 25, 1
  11              		.eabi_attribute 26, 1
  12              		.eabi_attribute 30, 2
  13              		.eabi_attribute 34, 1
  14              		.eabi_attribute 18, 4
  15              		.thumb
  16              		.file	"commands.c"
  17              		.text
  18              	.Ltext0:
  19              		.cfi_sections	.debug_frame
  20              		.section	.text.commands_set_send_func,"ax",%progbits
  21              		.align	2
  22              		.p2align 4,,15
  23              		.global	commands_set_send_func
  24              		.thumb
  25              		.thumb_func
  26              		.type	commands_set_send_func, %function
  27              	commands_set_send_func:
  28              	.LFB0:
  29              		.file 1 "commands.c"
  30              		.loc 1 43 0
  31              		.cfi_startproc
  32              		@ args = 0, pretend = 0, frame = 0
  33              		@ frame_needed = 0, uses_anonymous_args = 0
  34              		@ link register save eliminated.
  35              	.LVL0:
  36              		.loc 1 44 0
  37 0000 014B     		ldr	r3, .L2
  38 0002 1860     		str	r0, [r3]
  39 0004 7047     		bx	lr
  40              	.L3:
  41 0006 00BF     		.align	2
  42              	.L2:
  43 0008 00000000 		.word	.LANCHOR0
  44              		.cfi_endproc
  45              	.LFE0:
  46              		.size	commands_set_send_func, .-commands_set_send_func
  47              		.section	.text.commands_send_packet,"ax",%progbits
  48              		.align	2
  49              		.p2align 4,,15
  50              		.global	commands_send_packet
  51              		.thumb
  52              		.thumb_func
  53              		.type	commands_send_packet, %function
  54              	commands_send_packet:
  55              	.LFB1:
  56              		.loc 1 56 0
  57              		.cfi_startproc
ARM GAS  /tmp/ccdRBHfg.s 			page 2


  58              		@ args = 0, pretend = 0, frame = 0
  59              		@ frame_needed = 0, uses_anonymous_args = 0
  60              		@ link register save eliminated.
  61              	.LVL1:
  62              		.loc 1 57 0
  63 0000 024B     		ldr	r3, .L7
  64 0002 1B68     		ldr	r3, [r3]
  65 0004 03B1     		cbz	r3, .L4
  66              		.loc 1 58 0
  67 0006 1847     		bx	r3	@ indirect register sibling call
  68              	.LVL2:
  69              	.L4:
  70 0008 7047     		bx	lr
  71              	.L8:
  72 000a 00BF     		.align	2
  73              	.L7:
  74 000c 00000000 		.word	.LANCHOR0
  75              		.cfi_endproc
  76              	.LFE1:
  77              		.size	commands_send_packet, .-commands_send_packet
  78              		.section	.text.commands_process_packet,"ax",%progbits
  79              		.align	2
  80              		.p2align 4,,15
  81              		.global	commands_process_packet
  82              		.thumb
  83              		.thumb_func
  84              		.type	commands_process_packet, %function
  85              	commands_process_packet:
  86              	.LFB2:
  87              		.loc 1 71 0
  88              		.cfi_startproc
  89              		@ args = 0, pretend = 0, frame = 0
  90              		@ frame_needed = 0, uses_anonymous_args = 0
  91              		@ link register save eliminated.
  92              	.LVL3:
  93 0000 7047     		bx	lr
  94              		.cfi_endproc
  95              	.LFE2:
  96              		.size	commands_process_packet, .-commands_process_packet
  97 0002 00BF     		.section	.text.commands_printf,"ax",%progbits
  98              		.align	2
  99              		.p2align 4,,15
 100              		.global	commands_printf
 101              		.thumb
 102              		.thumb_func
 103              		.type	commands_printf, %function
 104              	commands_printf:
 105              	.LFB3:
 106              		.loc 1 100 0
 107              		.cfi_startproc
 108              		@ args = 4, pretend = 16, frame = 8
 109              		@ frame_needed = 0, uses_anonymous_args = 1
 110              	.LVL4:
 111              		.loc 1 100 0
 112 0000 0FB4     		push	{r0, r1, r2, r3}
 113              		.cfi_def_cfa_offset 16
 114              		.cfi_offset 0, -16
ARM GAS  /tmp/ccdRBHfg.s 			page 3


 115              		.cfi_offset 1, -12
 116              		.cfi_offset 2, -8
 117              		.cfi_offset 3, -4
 118 0002 70B5     		push	{r4, r5, r6, lr}
 119              		.cfi_def_cfa_offset 32
 120              		.cfi_offset 4, -32
 121              		.cfi_offset 5, -28
 122              		.cfi_offset 6, -24
 123              		.cfi_offset 14, -20
 124 0004 82B0     		sub	sp, sp, #8
 125              		.cfi_def_cfa_offset 40
 126              		.loc 1 100 0
 127 0006 06AB     		add	r3, sp, #24
 128              		.loc 1 106 0
 129 0008 0E4C     		ldr	r4, .L18
 130 000a 0F49     		ldr	r1, .L18+4
 131              		.loc 1 100 0
 132 000c 53F8042B 		ldr	r2, [r3], #4
 133              		.loc 1 106 0
 134 0010 0E68     		ldr	r6, [r1]
 135              		.loc 1 102 0
 136 0012 0193     		str	r3, [sp, #4]
 137              		.loc 1 107 0
 138 0014 0025     		movs	r5, #0
 139              		.loc 1 108 0
 140 0016 A01C     		adds	r0, r4, #2
 141 0018 FD21     		movs	r1, #253
 142              		.loc 1 106 0
 143 001a 2670     		strb	r6, [r4]
 144              		.loc 1 107 0
 145 001c 6570     		strb	r5, [r4, #1]
 146              		.loc 1 108 0
 147 001e FFF7FEFF 		bl	vsnprintf
 148              	.LVL5:
 149              		.loc 1 111 0
 150 0022 0028     		cmp	r0, #0
 151 0024 08DD     		ble	.L10
 152              	.LVL6:
 153              	.LBB4:
 154              	.LBB5:
 155              		.loc 1 57 0
 156 0026 094B     		ldr	r3, .L18+8
 157 0028 1B68     		ldr	r3, [r3]
 158              	.LBE5:
 159              	.LBE4:
 160              		.loc 1 112 0
 161 002a FC28     		cmp	r0, #252
 162 002c D4BF     		ite	le
 163 002e 811C     		addle	r1, r0, #2
 164 0030 FF21     		movgt	r1, #255
 165              	.LVL7:
 166              	.LBB7:
 167              	.LBB6:
 168              		.loc 1 57 0
 169 0032 0BB1     		cbz	r3, .L10
 170              		.loc 1 58 0
 171 0034 0348     		ldr	r0, .L18
ARM GAS  /tmp/ccdRBHfg.s 			page 4


 172              	.LVL8:
 173 0036 9847     		blx	r3
 174              	.LVL9:
 175              	.L10:
 176              	.LBE6:
 177              	.LBE7:
 178              		.loc 1 114 0
 179 0038 02B0     		add	sp, sp, #8
 180              		.cfi_def_cfa_offset 32
 181              		@ sp needed
 182 003a BDE87040 		pop	{r4, r5, r6, lr}
 183              		.cfi_restore 14
 184              		.cfi_restore 6
 185              		.cfi_restore 5
 186              		.cfi_restore 4
 187              		.cfi_def_cfa_offset 16
 188 003e 04B0     		add	sp, sp, #16
 189              		.cfi_restore 3
 190              		.cfi_restore 2
 191              		.cfi_restore 1
 192              		.cfi_restore 0
 193              		.cfi_def_cfa_offset 0
 194 0040 7047     		bx	lr
 195              	.L19:
 196 0042 00BF     		.align	2
 197              	.L18:
 198 0044 00000000 		.word	.LANCHOR1
 199 0048 00000000 		.word	main_config
 200 004c 00000000 		.word	.LANCHOR0
 201              		.cfi_endproc
 202              	.LFE3:
 203              		.size	commands_printf, .-commands_printf
 204              		.section	.bss.send_func,"aw",%nobits
 205              		.align	2
 206              		.set	.LANCHOR0,. + 0
 207              		.type	send_func, %object
 208              		.size	send_func, 4
 209              	send_func:
 210 0000 00000000 		.space	4
 211              		.section	.bss.print_buffer.5821,"aw",%nobits
 212              		.align	2
 213              		.set	.LANCHOR1,. + 0
 214              		.type	print_buffer.5821, %object
 215              		.size	print_buffer.5821, 255
 216              	print_buffer.5821:
 217 0000 00000000 		.space	255
 217      00000000 
 217      00000000 
 217      00000000 
 217      00000000 
 218              		.text
 219              	.Letext0:
 220              		.file 2 "/usr/arm-none-eabi/include/machine/_default_types.h"
 221              		.file 3 "/usr/arm-none-eabi/include/sys/_stdint.h"
 222              		.file 4 "datatypes.h"
 223              		.file 5 "/usr/lib/gcc/arm-none-eabi/4.9.3/include/stddef.h"
 224              		.file 6 "/usr/lib/gcc/arm-none-eabi/4.9.3/include/stdarg.h"
ARM GAS  /tmp/ccdRBHfg.s 			page 5


 225              		.file 7 "/usr/arm-none-eabi/include/stdio.h"
 226              		.file 8 "<built-in>"
 227              		.file 9 "conf_general.h"
 228              		.section	.debug_info,"",%progbits
 229              	.Ldebug_info0:
 230 0000 3E030000 		.4byte	0x33e
 231 0004 0400     		.2byte	0x4
 232 0006 00000000 		.4byte	.Ldebug_abbrev0
 233 000a 04       		.byte	0x4
 234 000b 01       		.uleb128 0x1
 235 000c D8000000 		.4byte	.LASF37
 236 0010 01       		.byte	0x1
 237 0011 6C000000 		.4byte	.LASF38
 238 0015 AF020000 		.4byte	.LASF39
 239 0019 18000000 		.4byte	.Ldebug_ranges0+0x18
 240 001d 00000000 		.4byte	0
 241 0021 00000000 		.4byte	.Ldebug_line0
 242 0025 02       		.uleb128 0x2
 243 0026 01       		.byte	0x1
 244 0027 06       		.byte	0x6
 245 0028 FE020000 		.4byte	.LASF0
 246 002c 03       		.uleb128 0x3
 247 002d 15000000 		.4byte	.LASF4
 248 0031 02       		.byte	0x2
 249 0032 1D       		.byte	0x1d
 250 0033 37000000 		.4byte	0x37
 251 0037 02       		.uleb128 0x2
 252 0038 01       		.byte	0x1
 253 0039 08       		.byte	0x8
 254 003a 5E000000 		.4byte	.LASF1
 255 003e 02       		.uleb128 0x2
 256 003f 02       		.byte	0x2
 257 0040 05       		.byte	0x5
 258 0041 BF000000 		.4byte	.LASF2
 259 0045 02       		.uleb128 0x2
 260 0046 02       		.byte	0x2
 261 0047 07       		.byte	0x7
 262 0048 89000000 		.4byte	.LASF3
 263 004c 03       		.uleb128 0x3
 264 004d 35000000 		.4byte	.LASF5
 265 0051 02       		.byte	0x2
 266 0052 3F       		.byte	0x3f
 267 0053 57000000 		.4byte	0x57
 268 0057 02       		.uleb128 0x2
 269 0058 04       		.byte	0x4
 270 0059 05       		.byte	0x5
 271 005a E9020000 		.4byte	.LASF6
 272 005e 02       		.uleb128 0x2
 273 005f 04       		.byte	0x4
 274 0060 07       		.byte	0x7
 275 0061 77000000 		.4byte	.LASF7
 276 0065 02       		.uleb128 0x2
 277 0066 08       		.byte	0x8
 278 0067 05       		.byte	0x5
 279 0068 84020000 		.4byte	.LASF8
 280 006c 02       		.uleb128 0x2
 281 006d 08       		.byte	0x8
ARM GAS  /tmp/ccdRBHfg.s 			page 6


 282 006e 07       		.byte	0x7
 283 006f 1F020000 		.4byte	.LASF9
 284 0073 04       		.uleb128 0x4
 285 0074 04       		.byte	0x4
 286 0075 05       		.byte	0x5
 287 0076 696E7400 		.ascii	"int\000"
 288 007a 02       		.uleb128 0x2
 289 007b 04       		.byte	0x4
 290 007c 07       		.byte	0x7
 291 007d 03020000 		.4byte	.LASF10
 292 0081 03       		.uleb128 0x3
 293 0082 36020000 		.4byte	.LASF11
 294 0086 03       		.byte	0x3
 295 0087 14       		.byte	0x14
 296 0088 2C000000 		.4byte	0x2c
 297 008c 03       		.uleb128 0x3
 298 008d 69020000 		.4byte	.LASF12
 299 0091 03       		.byte	0x3
 300 0092 1F       		.byte	0x1f
 301 0093 4C000000 		.4byte	0x4c
 302 0097 02       		.uleb128 0x2
 303 0098 04       		.byte	0x4
 304 0099 04       		.byte	0x4
 305 009a 4B000000 		.4byte	.LASF13
 306 009e 05       		.uleb128 0x5
 307 009f 01       		.byte	0x1
 308 00a0 04       		.byte	0x4
 309 00a1 33       		.byte	0x33
 310 00a2 B3000000 		.4byte	0xb3
 311 00a6 06       		.uleb128 0x6
 312 00a7 1F000000 		.4byte	.LASF14
 313 00ab 00       		.sleb128 0
 314 00ac 06       		.uleb128 0x6
 315 00ad 4D020000 		.4byte	.LASF15
 316 00b1 01       		.sleb128 1
 317 00b2 00       		.byte	0
 318 00b3 03       		.uleb128 0x3
 319 00b4 10020000 		.4byte	.LASF16
 320 00b8 04       		.byte	0x4
 321 00b9 36       		.byte	0x36
 322 00ba 9E000000 		.4byte	0x9e
 323 00be 07       		.uleb128 0x7
 324 00bf 04       		.byte	0x4
 325 00c0 04       		.byte	0x4
 326 00c1 38       		.byte	0x38
 327 00c2 D2000000 		.4byte	0xd2
 328 00c6 08       		.uleb128 0x8
 329 00c7 696400   		.ascii	"id\000"
 330 00ca 04       		.byte	0x4
 331 00cb 39       		.byte	0x39
 332 00cc 73000000 		.4byte	0x73
 333 00d0 00       		.byte	0
 334 00d1 00       		.byte	0
 335 00d2 03       		.uleb128 0x3
 336 00d3 A3020000 		.4byte	.LASF17
 337 00d7 04       		.byte	0x4
 338 00d8 3A       		.byte	0x3a
ARM GAS  /tmp/ccdRBHfg.s 			page 7


 339 00d9 BE000000 		.4byte	0xbe
 340 00dd 03       		.uleb128 0x3
 341 00de 9C000000 		.4byte	.LASF18
 342 00e2 05       		.byte	0x5
 343 00e3 D4       		.byte	0xd4
 344 00e4 7A000000 		.4byte	0x7a
 345 00e8 02       		.uleb128 0x2
 346 00e9 04       		.byte	0x4
 347 00ea 07       		.byte	0x7
 348 00eb 71020000 		.4byte	.LASF19
 349 00ef 09       		.uleb128 0x9
 350 00f0 04       		.byte	0x4
 351 00f1 0A       		.uleb128 0xa
 352 00f2 04       		.byte	0x4
 353 00f3 37000000 		.4byte	0x37
 354 00f7 0A       		.uleb128 0xa
 355 00f8 04       		.byte	0x4
 356 00f9 FD000000 		.4byte	0xfd
 357 00fd 02       		.uleb128 0x2
 358 00fe 01       		.byte	0x1
 359 00ff 08       		.byte	0x8
 360 0100 92020000 		.4byte	.LASF20
 361 0104 0A       		.uleb128 0xa
 362 0105 04       		.byte	0x4
 363 0106 0A010000 		.4byte	0x10a
 364 010a 0B       		.uleb128 0xb
 365 010b FD000000 		.4byte	0xfd
 366 010f 02       		.uleb128 0x2
 367 0110 08       		.byte	0x8
 368 0111 04       		.byte	0x4
 369 0112 A3000000 		.4byte	.LASF21
 370 0116 02       		.uleb128 0x2
 371 0117 08       		.byte	0x8
 372 0118 04       		.byte	0x4
 373 0119 F2020000 		.4byte	.LASF22
 374 011d 03       		.uleb128 0x3
 375 011e C9000000 		.4byte	.LASF23
 376 0122 06       		.byte	0x6
 377 0123 28       		.byte	0x28
 378 0124 28010000 		.4byte	0x128
 379 0128 0C       		.uleb128 0xc
 380 0129 7A020000 		.4byte	.LASF40
 381 012d 04       		.byte	0x4
 382 012e 08       		.byte	0x8
 383 012f 00       		.byte	0
 384 0130 3F010000 		.4byte	0x13f
 385 0134 0D       		.uleb128 0xd
 386 0135 3E020000 		.4byte	.LASF41
 387 0139 EF000000 		.4byte	0xef
 388 013d 00       		.byte	0
 389 013e 00       		.byte	0
 390 013f 03       		.uleb128 0x3
 391 0140 56000000 		.4byte	.LASF24
 392 0144 06       		.byte	0x6
 393 0145 62       		.byte	0x62
 394 0146 1D010000 		.4byte	0x11d
 395 014a 0E       		.uleb128 0xe
ARM GAS  /tmp/ccdRBHfg.s 			page 8


 396 014b 00000000 		.4byte	.LASF35
 397 014f 01       		.byte	0x1
 398 0150 38       		.byte	0x38
 399 0151 01       		.byte	0x1
 400 0152 6D010000 		.4byte	0x16d
 401 0156 0F       		.uleb128 0xf
 402 0157 51000000 		.4byte	.LASF25
 403 015b 01       		.byte	0x1
 404 015c 38       		.byte	0x38
 405 015d F1000000 		.4byte	0xf1
 406 0161 10       		.uleb128 0x10
 407 0162 6C656E00 		.ascii	"len\000"
 408 0166 01       		.byte	0x1
 409 0167 38       		.byte	0x38
 410 0168 7A000000 		.4byte	0x7a
 411 016c 00       		.byte	0
 412 016d 11       		.uleb128 0x11
 413 016e 0A030000 		.4byte	.LASF26
 414 0172 01       		.byte	0x1
 415 0173 2B       		.byte	0x2b
 416 0174 00000000 		.4byte	.LFB0
 417 0178 0C000000 		.4byte	.LFE0-.LFB0
 418 017c 01       		.uleb128 0x1
 419 017d 9C       		.byte	0x9c
 420 017e 90010000 		.4byte	0x190
 421 0182 12       		.uleb128 0x12
 422 0183 BA000000 		.4byte	.LASF28
 423 0187 01       		.byte	0x1
 424 0188 2B       		.byte	0x2b
 425 0189 A0010000 		.4byte	0x1a0
 426 018d 01       		.uleb128 0x1
 427 018e 50       		.byte	0x50
 428 018f 00       		.byte	0
 429 0190 13       		.uleb128 0x13
 430 0191 A0010000 		.4byte	0x1a0
 431 0195 14       		.uleb128 0x14
 432 0196 F1000000 		.4byte	0xf1
 433 019a 14       		.uleb128 0x14
 434 019b 7A000000 		.4byte	0x7a
 435 019f 00       		.byte	0
 436 01a0 0A       		.uleb128 0xa
 437 01a1 04       		.byte	0x4
 438 01a2 90010000 		.4byte	0x190
 439 01a6 15       		.uleb128 0x15
 440 01a7 4A010000 		.4byte	0x14a
 441 01ab 00000000 		.4byte	.LFB1
 442 01af 10000000 		.4byte	.LFE1-.LFB1
 443 01b3 01       		.uleb128 0x1
 444 01b4 9C       		.byte	0x9c
 445 01b5 E0010000 		.4byte	0x1e0
 446 01b9 16       		.uleb128 0x16
 447 01ba 56010000 		.4byte	0x156
 448 01be 00000000 		.4byte	.LLST0
 449 01c2 16       		.uleb128 0x16
 450 01c3 61010000 		.4byte	0x161
 451 01c7 2C000000 		.4byte	.LLST1
 452 01cb 17       		.uleb128 0x17
ARM GAS  /tmp/ccdRBHfg.s 			page 9


 453 01cc 08000000 		.4byte	.LVL2
 454 01d0 18       		.uleb128 0x18
 455 01d1 01       		.uleb128 0x1
 456 01d2 51       		.byte	0x51
 457 01d3 03       		.uleb128 0x3
 458 01d4 F3       		.byte	0xf3
 459 01d5 01       		.uleb128 0x1
 460 01d6 51       		.byte	0x51
 461 01d7 18       		.uleb128 0x18
 462 01d8 01       		.uleb128 0x1
 463 01d9 50       		.byte	0x50
 464 01da 03       		.uleb128 0x3
 465 01db F3       		.byte	0xf3
 466 01dc 01       		.uleb128 0x1
 467 01dd 50       		.byte	0x50
 468 01de 00       		.byte	0
 469 01df 00       		.byte	0
 470 01e0 11       		.uleb128 0x11
 471 01e1 2E030000 		.4byte	.LASF27
 472 01e5 01       		.byte	0x1
 473 01e6 47       		.byte	0x47
 474 01e7 00000000 		.4byte	.LFB2
 475 01eb 02000000 		.4byte	.LFE2-.LFB2
 476 01ef 01       		.uleb128 0x1
 477 01f0 9C       		.byte	0x9c
 478 01f1 30020000 		.4byte	0x230
 479 01f5 12       		.uleb128 0x12
 480 01f6 51000000 		.4byte	.LASF25
 481 01fa 01       		.byte	0x1
 482 01fb 47       		.byte	0x47
 483 01fc F1000000 		.4byte	0xf1
 484 0200 01       		.uleb128 0x1
 485 0201 50       		.byte	0x50
 486 0202 19       		.uleb128 0x19
 487 0203 6C656E00 		.ascii	"len\000"
 488 0207 01       		.byte	0x1
 489 0208 47       		.byte	0x47
 490 0209 7A000000 		.4byte	0x7a
 491 020d 01       		.uleb128 0x1
 492 020e 51       		.byte	0x51
 493 020f 1A       		.uleb128 0x1a
 494 0210 43020000 		.4byte	.LASF29
 495 0214 01       		.byte	0x1
 496 0215 4C       		.byte	0x4c
 497 0216 B3000000 		.4byte	0xb3
 498 021a 1B       		.uleb128 0x1b
 499 021b 696E6400 		.ascii	"ind\000"
 500 021f 01       		.byte	0x1
 501 0220 4D       		.byte	0x4d
 502 0221 8C000000 		.4byte	0x8c
 503 0225 1B       		.uleb128 0x1b
 504 0226 696400   		.ascii	"id\000"
 505 0229 01       		.byte	0x1
 506 022a 4E       		.byte	0x4e
 507 022b 81000000 		.4byte	0x81
 508 022f 00       		.byte	0
 509 0230 11       		.uleb128 0x11
ARM GAS  /tmp/ccdRBHfg.s 			page 10


 510 0231 AA000000 		.4byte	.LASF30
 511 0235 01       		.byte	0x1
 512 0236 64       		.byte	0x64
 513 0237 00000000 		.4byte	.LFB3
 514 023b 50000000 		.4byte	.LFE3-.LFB3
 515 023f 01       		.uleb128 0x1
 516 0240 9C       		.byte	0x9c
 517 0241 D8020000 		.4byte	0x2d8
 518 0245 12       		.uleb128 0x12
 519 0246 FC010000 		.4byte	.LASF31
 520 024a 01       		.byte	0x1
 521 024b 64       		.byte	0x64
 522 024c F7000000 		.4byte	0xf7
 523 0250 02       		.uleb128 0x2
 524 0251 91       		.byte	0x91
 525 0252 70       		.sleb128 -16
 526 0253 1C       		.uleb128 0x1c
 527 0254 1D       		.uleb128 0x1d
 528 0255 61726700 		.ascii	"arg\000"
 529 0259 01       		.byte	0x1
 530 025a 65       		.byte	0x65
 531 025b 3F010000 		.4byte	0x13f
 532 025f 02       		.uleb128 0x2
 533 0260 91       		.byte	0x91
 534 0261 5C       		.sleb128 -36
 535 0262 1E       		.uleb128 0x1e
 536 0263 6C656E00 		.ascii	"len\000"
 537 0267 01       		.byte	0x1
 538 0268 67       		.byte	0x67
 539 0269 73000000 		.4byte	0x73
 540 026d 58000000 		.4byte	.LLST2
 541 0271 1F       		.uleb128 0x1f
 542 0272 21030000 		.4byte	.LASF32
 543 0276 01       		.byte	0x1
 544 0277 68       		.byte	0x68
 545 0278 D8020000 		.4byte	0x2d8
 546 027c 05       		.uleb128 0x5
 547 027d 03       		.byte	0x3
 548 027e 00000000 		.4byte	print_buffer.5821
 549 0282 20       		.uleb128 0x20
 550 0283 4A010000 		.4byte	0x14a
 551 0287 26000000 		.4byte	.LBB4
 552 028b 00000000 		.4byte	.Ldebug_ranges0+0
 553 028f 01       		.byte	0x1
 554 0290 70       		.byte	0x70
 555 0291 B4020000 		.4byte	0x2b4
 556 0295 16       		.uleb128 0x16
 557 0296 61010000 		.4byte	0x161
 558 029a 6B000000 		.4byte	.LLST3
 559 029e 16       		.uleb128 0x16
 560 029f 56010000 		.4byte	0x156
 561 02a3 7E000000 		.4byte	.LLST4
 562 02a7 21       		.uleb128 0x21
 563 02a8 38000000 		.4byte	.LVL9
 564 02ac 18       		.uleb128 0x18
 565 02ad 01       		.uleb128 0x1
 566 02ae 50       		.byte	0x50
ARM GAS  /tmp/ccdRBHfg.s 			page 11


 567 02af 02       		.uleb128 0x2
 568 02b0 74       		.byte	0x74
 569 02b1 00       		.sleb128 0
 570 02b2 00       		.byte	0
 571 02b3 00       		.byte	0
 572 02b4 22       		.uleb128 0x22
 573 02b5 22000000 		.4byte	.LVL5
 574 02b9 20030000 		.4byte	0x320
 575 02bd 18       		.uleb128 0x18
 576 02be 01       		.uleb128 0x1
 577 02bf 53       		.byte	0x53
 578 02c0 02       		.uleb128 0x2
 579 02c1 91       		.byte	0x91
 580 02c2 54       		.sleb128 -44
 581 02c3 18       		.uleb128 0x18
 582 02c4 01       		.uleb128 0x1
 583 02c5 52       		.byte	0x52
 584 02c6 03       		.uleb128 0x3
 585 02c7 91       		.byte	0x91
 586 02c8 50       		.sleb128 -48
 587 02c9 06       		.byte	0x6
 588 02ca 18       		.uleb128 0x18
 589 02cb 01       		.uleb128 0x1
 590 02cc 51       		.byte	0x51
 591 02cd 02       		.uleb128 0x2
 592 02ce 08       		.byte	0x8
 593 02cf FD       		.byte	0xfd
 594 02d0 18       		.uleb128 0x18
 595 02d1 01       		.uleb128 0x1
 596 02d2 50       		.byte	0x50
 597 02d3 02       		.uleb128 0x2
 598 02d4 74       		.byte	0x74
 599 02d5 02       		.sleb128 2
 600 02d6 00       		.byte	0
 601 02d7 00       		.byte	0
 602 02d8 23       		.uleb128 0x23
 603 02d9 FD000000 		.4byte	0xfd
 604 02dd E8020000 		.4byte	0x2e8
 605 02e1 24       		.uleb128 0x24
 606 02e2 E8000000 		.4byte	0xe8
 607 02e6 FE       		.byte	0xfe
 608 02e7 00       		.byte	0
 609 02e8 23       		.uleb128 0x23
 610 02e9 81000000 		.4byte	0x81
 611 02ed F9020000 		.4byte	0x2f9
 612 02f1 25       		.uleb128 0x25
 613 02f2 E8000000 		.4byte	0xe8
 614 02f6 FF03     		.2byte	0x3ff
 615 02f8 00       		.byte	0
 616 02f9 1A       		.uleb128 0x1a
 617 02fa 3F000000 		.4byte	.LASF33
 618 02fe 01       		.byte	0x1
 619 02ff 22       		.byte	0x22
 620 0300 E8020000 		.4byte	0x2e8
 621 0304 1F       		.uleb128 0x1f
 622 0305 5F020000 		.4byte	.LASF34
 623 0309 01       		.byte	0x1
ARM GAS  /tmp/ccdRBHfg.s 			page 12


 624 030a 23       		.byte	0x23
 625 030b A0010000 		.4byte	0x1a0
 626 030f 05       		.uleb128 0x5
 627 0310 03       		.byte	0x3
 628 0311 00000000 		.4byte	send_func
 629 0315 26       		.uleb128 0x26
 630 0316 97020000 		.4byte	.LASF42
 631 031a 09       		.byte	0x9
 632 031b 2D       		.byte	0x2d
 633 031c D2000000 		.4byte	0xd2
 634 0320 27       		.uleb128 0x27
 635 0321 2B000000 		.4byte	.LASF36
 636 0325 07       		.byte	0x7
 637 0326 2F01     		.2byte	0x12f
 638 0328 73000000 		.4byte	0x73
 639 032c 14       		.uleb128 0x14
 640 032d F7000000 		.4byte	0xf7
 641 0331 14       		.uleb128 0x14
 642 0332 DD000000 		.4byte	0xdd
 643 0336 14       		.uleb128 0x14
 644 0337 04010000 		.4byte	0x104
 645 033b 14       		.uleb128 0x14
 646 033c 1D010000 		.4byte	0x11d
 647 0340 00       		.byte	0
 648 0341 00       		.byte	0
 649              		.section	.debug_abbrev,"",%progbits
 650              	.Ldebug_abbrev0:
 651 0000 01       		.uleb128 0x1
 652 0001 11       		.uleb128 0x11
 653 0002 01       		.byte	0x1
 654 0003 25       		.uleb128 0x25
 655 0004 0E       		.uleb128 0xe
 656 0005 13       		.uleb128 0x13
 657 0006 0B       		.uleb128 0xb
 658 0007 03       		.uleb128 0x3
 659 0008 0E       		.uleb128 0xe
 660 0009 1B       		.uleb128 0x1b
 661 000a 0E       		.uleb128 0xe
 662 000b 55       		.uleb128 0x55
 663 000c 17       		.uleb128 0x17
 664 000d 11       		.uleb128 0x11
 665 000e 01       		.uleb128 0x1
 666 000f 10       		.uleb128 0x10
 667 0010 17       		.uleb128 0x17
 668 0011 00       		.byte	0
 669 0012 00       		.byte	0
 670 0013 02       		.uleb128 0x2
 671 0014 24       		.uleb128 0x24
 672 0015 00       		.byte	0
 673 0016 0B       		.uleb128 0xb
 674 0017 0B       		.uleb128 0xb
 675 0018 3E       		.uleb128 0x3e
 676 0019 0B       		.uleb128 0xb
 677 001a 03       		.uleb128 0x3
 678 001b 0E       		.uleb128 0xe
 679 001c 00       		.byte	0
 680 001d 00       		.byte	0
ARM GAS  /tmp/ccdRBHfg.s 			page 13


 681 001e 03       		.uleb128 0x3
 682 001f 16       		.uleb128 0x16
 683 0020 00       		.byte	0
 684 0021 03       		.uleb128 0x3
 685 0022 0E       		.uleb128 0xe
 686 0023 3A       		.uleb128 0x3a
 687 0024 0B       		.uleb128 0xb
 688 0025 3B       		.uleb128 0x3b
 689 0026 0B       		.uleb128 0xb
 690 0027 49       		.uleb128 0x49
 691 0028 13       		.uleb128 0x13
 692 0029 00       		.byte	0
 693 002a 00       		.byte	0
 694 002b 04       		.uleb128 0x4
 695 002c 24       		.uleb128 0x24
 696 002d 00       		.byte	0
 697 002e 0B       		.uleb128 0xb
 698 002f 0B       		.uleb128 0xb
 699 0030 3E       		.uleb128 0x3e
 700 0031 0B       		.uleb128 0xb
 701 0032 03       		.uleb128 0x3
 702 0033 08       		.uleb128 0x8
 703 0034 00       		.byte	0
 704 0035 00       		.byte	0
 705 0036 05       		.uleb128 0x5
 706 0037 04       		.uleb128 0x4
 707 0038 01       		.byte	0x1
 708 0039 0B       		.uleb128 0xb
 709 003a 0B       		.uleb128 0xb
 710 003b 3A       		.uleb128 0x3a
 711 003c 0B       		.uleb128 0xb
 712 003d 3B       		.uleb128 0x3b
 713 003e 0B       		.uleb128 0xb
 714 003f 01       		.uleb128 0x1
 715 0040 13       		.uleb128 0x13
 716 0041 00       		.byte	0
 717 0042 00       		.byte	0
 718 0043 06       		.uleb128 0x6
 719 0044 28       		.uleb128 0x28
 720 0045 00       		.byte	0
 721 0046 03       		.uleb128 0x3
 722 0047 0E       		.uleb128 0xe
 723 0048 1C       		.uleb128 0x1c
 724 0049 0D       		.uleb128 0xd
 725 004a 00       		.byte	0
 726 004b 00       		.byte	0
 727 004c 07       		.uleb128 0x7
 728 004d 13       		.uleb128 0x13
 729 004e 01       		.byte	0x1
 730 004f 0B       		.uleb128 0xb
 731 0050 0B       		.uleb128 0xb
 732 0051 3A       		.uleb128 0x3a
 733 0052 0B       		.uleb128 0xb
 734 0053 3B       		.uleb128 0x3b
 735 0054 0B       		.uleb128 0xb
 736 0055 01       		.uleb128 0x1
 737 0056 13       		.uleb128 0x13
ARM GAS  /tmp/ccdRBHfg.s 			page 14


 738 0057 00       		.byte	0
 739 0058 00       		.byte	0
 740 0059 08       		.uleb128 0x8
 741 005a 0D       		.uleb128 0xd
 742 005b 00       		.byte	0
 743 005c 03       		.uleb128 0x3
 744 005d 08       		.uleb128 0x8
 745 005e 3A       		.uleb128 0x3a
 746 005f 0B       		.uleb128 0xb
 747 0060 3B       		.uleb128 0x3b
 748 0061 0B       		.uleb128 0xb
 749 0062 49       		.uleb128 0x49
 750 0063 13       		.uleb128 0x13
 751 0064 38       		.uleb128 0x38
 752 0065 0B       		.uleb128 0xb
 753 0066 00       		.byte	0
 754 0067 00       		.byte	0
 755 0068 09       		.uleb128 0x9
 756 0069 0F       		.uleb128 0xf
 757 006a 00       		.byte	0
 758 006b 0B       		.uleb128 0xb
 759 006c 0B       		.uleb128 0xb
 760 006d 00       		.byte	0
 761 006e 00       		.byte	0
 762 006f 0A       		.uleb128 0xa
 763 0070 0F       		.uleb128 0xf
 764 0071 00       		.byte	0
 765 0072 0B       		.uleb128 0xb
 766 0073 0B       		.uleb128 0xb
 767 0074 49       		.uleb128 0x49
 768 0075 13       		.uleb128 0x13
 769 0076 00       		.byte	0
 770 0077 00       		.byte	0
 771 0078 0B       		.uleb128 0xb
 772 0079 26       		.uleb128 0x26
 773 007a 00       		.byte	0
 774 007b 49       		.uleb128 0x49
 775 007c 13       		.uleb128 0x13
 776 007d 00       		.byte	0
 777 007e 00       		.byte	0
 778 007f 0C       		.uleb128 0xc
 779 0080 13       		.uleb128 0x13
 780 0081 01       		.byte	0x1
 781 0082 03       		.uleb128 0x3
 782 0083 0E       		.uleb128 0xe
 783 0084 0B       		.uleb128 0xb
 784 0085 0B       		.uleb128 0xb
 785 0086 3A       		.uleb128 0x3a
 786 0087 0B       		.uleb128 0xb
 787 0088 3B       		.uleb128 0x3b
 788 0089 0B       		.uleb128 0xb
 789 008a 01       		.uleb128 0x1
 790 008b 13       		.uleb128 0x13
 791 008c 00       		.byte	0
 792 008d 00       		.byte	0
 793 008e 0D       		.uleb128 0xd
 794 008f 0D       		.uleb128 0xd
ARM GAS  /tmp/ccdRBHfg.s 			page 15


 795 0090 00       		.byte	0
 796 0091 03       		.uleb128 0x3
 797 0092 0E       		.uleb128 0xe
 798 0093 49       		.uleb128 0x49
 799 0094 13       		.uleb128 0x13
 800 0095 38       		.uleb128 0x38
 801 0096 0B       		.uleb128 0xb
 802 0097 34       		.uleb128 0x34
 803 0098 19       		.uleb128 0x19
 804 0099 00       		.byte	0
 805 009a 00       		.byte	0
 806 009b 0E       		.uleb128 0xe
 807 009c 2E       		.uleb128 0x2e
 808 009d 01       		.byte	0x1
 809 009e 3F       		.uleb128 0x3f
 810 009f 19       		.uleb128 0x19
 811 00a0 03       		.uleb128 0x3
 812 00a1 0E       		.uleb128 0xe
 813 00a2 3A       		.uleb128 0x3a
 814 00a3 0B       		.uleb128 0xb
 815 00a4 3B       		.uleb128 0x3b
 816 00a5 0B       		.uleb128 0xb
 817 00a6 27       		.uleb128 0x27
 818 00a7 19       		.uleb128 0x19
 819 00a8 20       		.uleb128 0x20
 820 00a9 0B       		.uleb128 0xb
 821 00aa 01       		.uleb128 0x1
 822 00ab 13       		.uleb128 0x13
 823 00ac 00       		.byte	0
 824 00ad 00       		.byte	0
 825 00ae 0F       		.uleb128 0xf
 826 00af 05       		.uleb128 0x5
 827 00b0 00       		.byte	0
 828 00b1 03       		.uleb128 0x3
 829 00b2 0E       		.uleb128 0xe
 830 00b3 3A       		.uleb128 0x3a
 831 00b4 0B       		.uleb128 0xb
 832 00b5 3B       		.uleb128 0x3b
 833 00b6 0B       		.uleb128 0xb
 834 00b7 49       		.uleb128 0x49
 835 00b8 13       		.uleb128 0x13
 836 00b9 00       		.byte	0
 837 00ba 00       		.byte	0
 838 00bb 10       		.uleb128 0x10
 839 00bc 05       		.uleb128 0x5
 840 00bd 00       		.byte	0
 841 00be 03       		.uleb128 0x3
 842 00bf 08       		.uleb128 0x8
 843 00c0 3A       		.uleb128 0x3a
 844 00c1 0B       		.uleb128 0xb
 845 00c2 3B       		.uleb128 0x3b
 846 00c3 0B       		.uleb128 0xb
 847 00c4 49       		.uleb128 0x49
 848 00c5 13       		.uleb128 0x13
 849 00c6 00       		.byte	0
 850 00c7 00       		.byte	0
 851 00c8 11       		.uleb128 0x11
ARM GAS  /tmp/ccdRBHfg.s 			page 16


 852 00c9 2E       		.uleb128 0x2e
 853 00ca 01       		.byte	0x1
 854 00cb 3F       		.uleb128 0x3f
 855 00cc 19       		.uleb128 0x19
 856 00cd 03       		.uleb128 0x3
 857 00ce 0E       		.uleb128 0xe
 858 00cf 3A       		.uleb128 0x3a
 859 00d0 0B       		.uleb128 0xb
 860 00d1 3B       		.uleb128 0x3b
 861 00d2 0B       		.uleb128 0xb
 862 00d3 27       		.uleb128 0x27
 863 00d4 19       		.uleb128 0x19
 864 00d5 11       		.uleb128 0x11
 865 00d6 01       		.uleb128 0x1
 866 00d7 12       		.uleb128 0x12
 867 00d8 06       		.uleb128 0x6
 868 00d9 40       		.uleb128 0x40
 869 00da 18       		.uleb128 0x18
 870 00db 9742     		.uleb128 0x2117
 871 00dd 19       		.uleb128 0x19
 872 00de 01       		.uleb128 0x1
 873 00df 13       		.uleb128 0x13
 874 00e0 00       		.byte	0
 875 00e1 00       		.byte	0
 876 00e2 12       		.uleb128 0x12
 877 00e3 05       		.uleb128 0x5
 878 00e4 00       		.byte	0
 879 00e5 03       		.uleb128 0x3
 880 00e6 0E       		.uleb128 0xe
 881 00e7 3A       		.uleb128 0x3a
 882 00e8 0B       		.uleb128 0xb
 883 00e9 3B       		.uleb128 0x3b
 884 00ea 0B       		.uleb128 0xb
 885 00eb 49       		.uleb128 0x49
 886 00ec 13       		.uleb128 0x13
 887 00ed 02       		.uleb128 0x2
 888 00ee 18       		.uleb128 0x18
 889 00ef 00       		.byte	0
 890 00f0 00       		.byte	0
 891 00f1 13       		.uleb128 0x13
 892 00f2 15       		.uleb128 0x15
 893 00f3 01       		.byte	0x1
 894 00f4 27       		.uleb128 0x27
 895 00f5 19       		.uleb128 0x19
 896 00f6 01       		.uleb128 0x1
 897 00f7 13       		.uleb128 0x13
 898 00f8 00       		.byte	0
 899 00f9 00       		.byte	0
 900 00fa 14       		.uleb128 0x14
 901 00fb 05       		.uleb128 0x5
 902 00fc 00       		.byte	0
 903 00fd 49       		.uleb128 0x49
 904 00fe 13       		.uleb128 0x13
 905 00ff 00       		.byte	0
 906 0100 00       		.byte	0
 907 0101 15       		.uleb128 0x15
 908 0102 2E       		.uleb128 0x2e
ARM GAS  /tmp/ccdRBHfg.s 			page 17


 909 0103 01       		.byte	0x1
 910 0104 31       		.uleb128 0x31
 911 0105 13       		.uleb128 0x13
 912 0106 11       		.uleb128 0x11
 913 0107 01       		.uleb128 0x1
 914 0108 12       		.uleb128 0x12
 915 0109 06       		.uleb128 0x6
 916 010a 40       		.uleb128 0x40
 917 010b 18       		.uleb128 0x18
 918 010c 9742     		.uleb128 0x2117
 919 010e 19       		.uleb128 0x19
 920 010f 01       		.uleb128 0x1
 921 0110 13       		.uleb128 0x13
 922 0111 00       		.byte	0
 923 0112 00       		.byte	0
 924 0113 16       		.uleb128 0x16
 925 0114 05       		.uleb128 0x5
 926 0115 00       		.byte	0
 927 0116 31       		.uleb128 0x31
 928 0117 13       		.uleb128 0x13
 929 0118 02       		.uleb128 0x2
 930 0119 17       		.uleb128 0x17
 931 011a 00       		.byte	0
 932 011b 00       		.byte	0
 933 011c 17       		.uleb128 0x17
 934 011d 898201   		.uleb128 0x4109
 935 0120 01       		.byte	0x1
 936 0121 11       		.uleb128 0x11
 937 0122 01       		.uleb128 0x1
 938 0123 9542     		.uleb128 0x2115
 939 0125 19       		.uleb128 0x19
 940 0126 00       		.byte	0
 941 0127 00       		.byte	0
 942 0128 18       		.uleb128 0x18
 943 0129 8A8201   		.uleb128 0x410a
 944 012c 00       		.byte	0
 945 012d 02       		.uleb128 0x2
 946 012e 18       		.uleb128 0x18
 947 012f 9142     		.uleb128 0x2111
 948 0131 18       		.uleb128 0x18
 949 0132 00       		.byte	0
 950 0133 00       		.byte	0
 951 0134 19       		.uleb128 0x19
 952 0135 05       		.uleb128 0x5
 953 0136 00       		.byte	0
 954 0137 03       		.uleb128 0x3
 955 0138 08       		.uleb128 0x8
 956 0139 3A       		.uleb128 0x3a
 957 013a 0B       		.uleb128 0xb
 958 013b 3B       		.uleb128 0x3b
 959 013c 0B       		.uleb128 0xb
 960 013d 49       		.uleb128 0x49
 961 013e 13       		.uleb128 0x13
 962 013f 02       		.uleb128 0x2
 963 0140 18       		.uleb128 0x18
 964 0141 00       		.byte	0
 965 0142 00       		.byte	0
ARM GAS  /tmp/ccdRBHfg.s 			page 18


 966 0143 1A       		.uleb128 0x1a
 967 0144 34       		.uleb128 0x34
 968 0145 00       		.byte	0
 969 0146 03       		.uleb128 0x3
 970 0147 0E       		.uleb128 0xe
 971 0148 3A       		.uleb128 0x3a
 972 0149 0B       		.uleb128 0xb
 973 014a 3B       		.uleb128 0x3b
 974 014b 0B       		.uleb128 0xb
 975 014c 49       		.uleb128 0x49
 976 014d 13       		.uleb128 0x13
 977 014e 00       		.byte	0
 978 014f 00       		.byte	0
 979 0150 1B       		.uleb128 0x1b
 980 0151 34       		.uleb128 0x34
 981 0152 00       		.byte	0
 982 0153 03       		.uleb128 0x3
 983 0154 08       		.uleb128 0x8
 984 0155 3A       		.uleb128 0x3a
 985 0156 0B       		.uleb128 0xb
 986 0157 3B       		.uleb128 0x3b
 987 0158 0B       		.uleb128 0xb
 988 0159 49       		.uleb128 0x49
 989 015a 13       		.uleb128 0x13
 990 015b 00       		.byte	0
 991 015c 00       		.byte	0
 992 015d 1C       		.uleb128 0x1c
 993 015e 18       		.uleb128 0x18
 994 015f 00       		.byte	0
 995 0160 00       		.byte	0
 996 0161 00       		.byte	0
 997 0162 1D       		.uleb128 0x1d
 998 0163 34       		.uleb128 0x34
 999 0164 00       		.byte	0
 1000 0165 03       		.uleb128 0x3
 1001 0166 08       		.uleb128 0x8
 1002 0167 3A       		.uleb128 0x3a
 1003 0168 0B       		.uleb128 0xb
 1004 0169 3B       		.uleb128 0x3b
 1005 016a 0B       		.uleb128 0xb
 1006 016b 49       		.uleb128 0x49
 1007 016c 13       		.uleb128 0x13
 1008 016d 02       		.uleb128 0x2
 1009 016e 18       		.uleb128 0x18
 1010 016f 00       		.byte	0
 1011 0170 00       		.byte	0
 1012 0171 1E       		.uleb128 0x1e
 1013 0172 34       		.uleb128 0x34
 1014 0173 00       		.byte	0
 1015 0174 03       		.uleb128 0x3
 1016 0175 08       		.uleb128 0x8
 1017 0176 3A       		.uleb128 0x3a
 1018 0177 0B       		.uleb128 0xb
 1019 0178 3B       		.uleb128 0x3b
 1020 0179 0B       		.uleb128 0xb
 1021 017a 49       		.uleb128 0x49
 1022 017b 13       		.uleb128 0x13
ARM GAS  /tmp/ccdRBHfg.s 			page 19


 1023 017c 02       		.uleb128 0x2
 1024 017d 17       		.uleb128 0x17
 1025 017e 00       		.byte	0
 1026 017f 00       		.byte	0
 1027 0180 1F       		.uleb128 0x1f
 1028 0181 34       		.uleb128 0x34
 1029 0182 00       		.byte	0
 1030 0183 03       		.uleb128 0x3
 1031 0184 0E       		.uleb128 0xe
 1032 0185 3A       		.uleb128 0x3a
 1033 0186 0B       		.uleb128 0xb
 1034 0187 3B       		.uleb128 0x3b
 1035 0188 0B       		.uleb128 0xb
 1036 0189 49       		.uleb128 0x49
 1037 018a 13       		.uleb128 0x13
 1038 018b 02       		.uleb128 0x2
 1039 018c 18       		.uleb128 0x18
 1040 018d 00       		.byte	0
 1041 018e 00       		.byte	0
 1042 018f 20       		.uleb128 0x20
 1043 0190 1D       		.uleb128 0x1d
 1044 0191 01       		.byte	0x1
 1045 0192 31       		.uleb128 0x31
 1046 0193 13       		.uleb128 0x13
 1047 0194 52       		.uleb128 0x52
 1048 0195 01       		.uleb128 0x1
 1049 0196 55       		.uleb128 0x55
 1050 0197 17       		.uleb128 0x17
 1051 0198 58       		.uleb128 0x58
 1052 0199 0B       		.uleb128 0xb
 1053 019a 59       		.uleb128 0x59
 1054 019b 0B       		.uleb128 0xb
 1055 019c 01       		.uleb128 0x1
 1056 019d 13       		.uleb128 0x13
 1057 019e 00       		.byte	0
 1058 019f 00       		.byte	0
 1059 01a0 21       		.uleb128 0x21
 1060 01a1 898201   		.uleb128 0x4109
 1061 01a4 01       		.byte	0x1
 1062 01a5 11       		.uleb128 0x11
 1063 01a6 01       		.uleb128 0x1
 1064 01a7 00       		.byte	0
 1065 01a8 00       		.byte	0
 1066 01a9 22       		.uleb128 0x22
 1067 01aa 898201   		.uleb128 0x4109
 1068 01ad 01       		.byte	0x1
 1069 01ae 11       		.uleb128 0x11
 1070 01af 01       		.uleb128 0x1
 1071 01b0 31       		.uleb128 0x31
 1072 01b1 13       		.uleb128 0x13
 1073 01b2 00       		.byte	0
 1074 01b3 00       		.byte	0
 1075 01b4 23       		.uleb128 0x23
 1076 01b5 01       		.uleb128 0x1
 1077 01b6 01       		.byte	0x1
 1078 01b7 49       		.uleb128 0x49
 1079 01b8 13       		.uleb128 0x13
ARM GAS  /tmp/ccdRBHfg.s 			page 20


 1080 01b9 01       		.uleb128 0x1
 1081 01ba 13       		.uleb128 0x13
 1082 01bb 00       		.byte	0
 1083 01bc 00       		.byte	0
 1084 01bd 24       		.uleb128 0x24
 1085 01be 21       		.uleb128 0x21
 1086 01bf 00       		.byte	0
 1087 01c0 49       		.uleb128 0x49
 1088 01c1 13       		.uleb128 0x13
 1089 01c2 2F       		.uleb128 0x2f
 1090 01c3 0B       		.uleb128 0xb
 1091 01c4 00       		.byte	0
 1092 01c5 00       		.byte	0
 1093 01c6 25       		.uleb128 0x25
 1094 01c7 21       		.uleb128 0x21
 1095 01c8 00       		.byte	0
 1096 01c9 49       		.uleb128 0x49
 1097 01ca 13       		.uleb128 0x13
 1098 01cb 2F       		.uleb128 0x2f
 1099 01cc 05       		.uleb128 0x5
 1100 01cd 00       		.byte	0
 1101 01ce 00       		.byte	0
 1102 01cf 26       		.uleb128 0x26
 1103 01d0 34       		.uleb128 0x34
 1104 01d1 00       		.byte	0
 1105 01d2 03       		.uleb128 0x3
 1106 01d3 0E       		.uleb128 0xe
 1107 01d4 3A       		.uleb128 0x3a
 1108 01d5 0B       		.uleb128 0xb
 1109 01d6 3B       		.uleb128 0x3b
 1110 01d7 0B       		.uleb128 0xb
 1111 01d8 49       		.uleb128 0x49
 1112 01d9 13       		.uleb128 0x13
 1113 01da 3F       		.uleb128 0x3f
 1114 01db 19       		.uleb128 0x19
 1115 01dc 3C       		.uleb128 0x3c
 1116 01dd 19       		.uleb128 0x19
 1117 01de 00       		.byte	0
 1118 01df 00       		.byte	0
 1119 01e0 27       		.uleb128 0x27
 1120 01e1 2E       		.uleb128 0x2e
 1121 01e2 01       		.byte	0x1
 1122 01e3 3F       		.uleb128 0x3f
 1123 01e4 19       		.uleb128 0x19
 1124 01e5 03       		.uleb128 0x3
 1125 01e6 0E       		.uleb128 0xe
 1126 01e7 3A       		.uleb128 0x3a
 1127 01e8 0B       		.uleb128 0xb
 1128 01e9 3B       		.uleb128 0x3b
 1129 01ea 05       		.uleb128 0x5
 1130 01eb 27       		.uleb128 0x27
 1131 01ec 19       		.uleb128 0x19
 1132 01ed 49       		.uleb128 0x49
 1133 01ee 13       		.uleb128 0x13
 1134 01ef 3C       		.uleb128 0x3c
 1135 01f0 19       		.uleb128 0x19
 1136 01f1 00       		.byte	0
ARM GAS  /tmp/ccdRBHfg.s 			page 21


 1137 01f2 00       		.byte	0
 1138 01f3 00       		.byte	0
 1139              		.section	.debug_loc,"",%progbits
 1140              	.Ldebug_loc0:
 1141              	.LLST0:
 1142 0000 00000000 		.4byte	.LVL1
 1143 0004 07000000 		.4byte	.LVL2-1
 1144 0008 0100     		.2byte	0x1
 1145 000a 50       		.byte	0x50
 1146 000b 07000000 		.4byte	.LVL2-1
 1147 000f 08000000 		.4byte	.LVL2
 1148 0013 0400     		.2byte	0x4
 1149 0015 F3       		.byte	0xf3
 1150 0016 01       		.uleb128 0x1
 1151 0017 50       		.byte	0x50
 1152 0018 9F       		.byte	0x9f
 1153 0019 08000000 		.4byte	.LVL2
 1154 001d 10000000 		.4byte	.LFE1
 1155 0021 0100     		.2byte	0x1
 1156 0023 50       		.byte	0x50
 1157 0024 00000000 		.4byte	0
 1158 0028 00000000 		.4byte	0
 1159              	.LLST1:
 1160 002c 00000000 		.4byte	.LVL1
 1161 0030 07000000 		.4byte	.LVL2-1
 1162 0034 0100     		.2byte	0x1
 1163 0036 51       		.byte	0x51
 1164 0037 07000000 		.4byte	.LVL2-1
 1165 003b 08000000 		.4byte	.LVL2
 1166 003f 0400     		.2byte	0x4
 1167 0041 F3       		.byte	0xf3
 1168 0042 01       		.uleb128 0x1
 1169 0043 51       		.byte	0x51
 1170 0044 9F       		.byte	0x9f
 1171 0045 08000000 		.4byte	.LVL2
 1172 0049 10000000 		.4byte	.LFE1
 1173 004d 0100     		.2byte	0x1
 1174 004f 51       		.byte	0x51
 1175 0050 00000000 		.4byte	0
 1176 0054 00000000 		.4byte	0
 1177              	.LLST2:
 1178 0058 22000000 		.4byte	.LVL5
 1179 005c 36000000 		.4byte	.LVL8
 1180 0060 0100     		.2byte	0x1
 1181 0062 50       		.byte	0x50
 1182 0063 00000000 		.4byte	0
 1183 0067 00000000 		.4byte	0
 1184              	.LLST3:
 1185 006b 32000000 		.4byte	.LVL7
 1186 006f 37000000 		.4byte	.LVL9-1
 1187 0073 0100     		.2byte	0x1
 1188 0075 51       		.byte	0x51
 1189 0076 00000000 		.4byte	0
 1190 007a 00000000 		.4byte	0
 1191              	.LLST4:
 1192 007e 26000000 		.4byte	.LVL6
 1193 0082 38000000 		.4byte	.LVL9
ARM GAS  /tmp/ccdRBHfg.s 			page 22


 1194 0086 0600     		.2byte	0x6
 1195 0088 03       		.byte	0x3
 1196 0089 00000000 		.4byte	print_buffer.5821
 1197 008d 9F       		.byte	0x9f
 1198 008e 00000000 		.4byte	0
 1199 0092 00000000 		.4byte	0
 1200              		.section	.debug_aranges,"",%progbits
 1201 0000 34000000 		.4byte	0x34
 1202 0004 0200     		.2byte	0x2
 1203 0006 00000000 		.4byte	.Ldebug_info0
 1204 000a 04       		.byte	0x4
 1205 000b 00       		.byte	0
 1206 000c 0000     		.2byte	0
 1207 000e 0000     		.2byte	0
 1208 0010 00000000 		.4byte	.LFB0
 1209 0014 0C000000 		.4byte	.LFE0-.LFB0
 1210 0018 00000000 		.4byte	.LFB1
 1211 001c 10000000 		.4byte	.LFE1-.LFB1
 1212 0020 00000000 		.4byte	.LFB2
 1213 0024 02000000 		.4byte	.LFE2-.LFB2
 1214 0028 00000000 		.4byte	.LFB3
 1215 002c 50000000 		.4byte	.LFE3-.LFB3
 1216 0030 00000000 		.4byte	0
 1217 0034 00000000 		.4byte	0
 1218              		.section	.debug_ranges,"",%progbits
 1219              	.Ldebug_ranges0:
 1220 0000 26000000 		.4byte	.LBB4
 1221 0004 2A000000 		.4byte	.LBE4
 1222 0008 32000000 		.4byte	.LBB7
 1223 000c 38000000 		.4byte	.LBE7
 1224 0010 00000000 		.4byte	0
 1225 0014 00000000 		.4byte	0
 1226 0018 00000000 		.4byte	.LFB0
 1227 001c 0C000000 		.4byte	.LFE0
 1228 0020 00000000 		.4byte	.LFB1
 1229 0024 10000000 		.4byte	.LFE1
 1230 0028 00000000 		.4byte	.LFB2
 1231 002c 02000000 		.4byte	.LFE2
 1232 0030 00000000 		.4byte	.LFB3
 1233 0034 50000000 		.4byte	.LFE3
 1234 0038 00000000 		.4byte	0
 1235 003c 00000000 		.4byte	0
 1236              		.section	.debug_line,"",%progbits
 1237              	.Ldebug_line0:
 1238 0000 7C010000 		.section	.debug_str,"MS",%progbits,1
 1238      02001A01 
 1238      00000201 
 1238      FB0E0D00 
 1238      01010101 
 1239              	.LASF35:
 1240 0000 636F6D6D 		.ascii	"commands_send_packet\000"
 1240      616E6473 
 1240      5F73656E 
 1240      645F7061 
 1240      636B6574 
 1241              	.LASF4:
 1242 0015 5F5F7569 		.ascii	"__uint8_t\000"
ARM GAS  /tmp/ccdRBHfg.s 			page 23


 1242      6E74385F 
 1242      7400
 1243              	.LASF14:
 1244 001f 434F4D4D 		.ascii	"COMM_PRINTF\000"
 1244      5F505249 
 1244      4E544600 
 1245              	.LASF36:
 1246 002b 76736E70 		.ascii	"vsnprintf\000"
 1246      72696E74 
 1246      6600
 1247              	.LASF5:
 1248 0035 5F5F696E 		.ascii	"__int32_t\000"
 1248      7433325F 
 1248      7400
 1249              	.LASF33:
 1250 003f 73656E64 		.ascii	"send_buffer\000"
 1250      5F627566 
 1250      66657200 
 1251              	.LASF13:
 1252 004b 666C6F61 		.ascii	"float\000"
 1252      7400
 1253              	.LASF25:
 1254 0051 64617461 		.ascii	"data\000"
 1254      00
 1255              	.LASF24:
 1256 0056 76615F6C 		.ascii	"va_list\000"
 1256      69737400 
 1257              	.LASF1:
 1258 005e 756E7369 		.ascii	"unsigned char\000"
 1258      676E6564 
 1258      20636861 
 1258      7200
 1259              	.LASF38:
 1260 006c 636F6D6D 		.ascii	"commands.c\000"
 1260      616E6473 
 1260      2E6300
 1261              	.LASF7:
 1262 0077 6C6F6E67 		.ascii	"long unsigned int\000"
 1262      20756E73 
 1262      69676E65 
 1262      6420696E 
 1262      7400
 1263              	.LASF3:
 1264 0089 73686F72 		.ascii	"short unsigned int\000"
 1264      7420756E 
 1264      7369676E 
 1264      65642069 
 1264      6E7400
 1265              	.LASF18:
 1266 009c 73697A65 		.ascii	"size_t\000"
 1266      5F7400
 1267              	.LASF21:
 1268 00a3 646F7562 		.ascii	"double\000"
 1268      6C6500
 1269              	.LASF30:
 1270 00aa 636F6D6D 		.ascii	"commands_printf\000"
 1270      616E6473 
ARM GAS  /tmp/ccdRBHfg.s 			page 24


 1270      5F707269 
 1270      6E746600 
 1271              	.LASF28:
 1272 00ba 66756E63 		.ascii	"func\000"
 1272      00
 1273              	.LASF2:
 1274 00bf 73686F72 		.ascii	"short int\000"
 1274      7420696E 
 1274      7400
 1275              	.LASF23:
 1276 00c9 5F5F676E 		.ascii	"__gnuc_va_list\000"
 1276      75635F76 
 1276      615F6C69 
 1276      737400
 1277              	.LASF37:
 1278 00d8 474E5520 		.ascii	"GNU C 4.9.3 20150529 (release) [ARM/embedded-4_9-br"
 1278      4320342E 
 1278      392E3320 
 1278      32303135 
 1278      30353239 
 1279 010b 616E6368 		.ascii	"anch revision 227977] -mcpu=cortex-m4 -mfloat-abi=h"
 1279      20726576 
 1279      6973696F 
 1279      6E203232 
 1279      37393737 
 1280 013e 61726420 		.ascii	"ard -mfpu=fpv4-sp-d16 -mno-thumb-interwork -mthumb "
 1280      2D6D6670 
 1280      753D6670 
 1280      76342D73 
 1280      702D6431 
 1281 0171 2D676764 		.ascii	"-ggdb -O2 -std=gnu99 -fomit-frame-pointer -falign-f"
 1281      62202D4F 
 1281      32202D73 
 1281      74643D67 
 1281      6E753939 
 1282 01a4 756E6374 		.ascii	"unctions=16 -ffunction-sections -fdata-sections -fn"
 1282      696F6E73 
 1282      3D313620 
 1282      2D666675 
 1282      6E637469 
 1283 01d7 6F2D636F 		.ascii	"o-common -fsingle-precision-constant\000"
 1283      6D6D6F6E 
 1283      202D6673 
 1283      696E676C 
 1283      652D7072 
 1284              	.LASF31:
 1285 01fc 666F726D 		.ascii	"format\000"
 1285      617400
 1286              	.LASF10:
 1287 0203 756E7369 		.ascii	"unsigned int\000"
 1287      676E6564 
 1287      20696E74 
 1287      00
 1288              	.LASF16:
 1289 0210 434F4D4D 		.ascii	"COMM_PACKET_ID\000"
 1289      5F504143 
 1289      4B45545F 
ARM GAS  /tmp/ccdRBHfg.s 			page 25


 1289      494400
 1290              	.LASF9:
 1291 021f 6C6F6E67 		.ascii	"long long unsigned int\000"
 1291      206C6F6E 
 1291      6720756E 
 1291      7369676E 
 1291      65642069 
 1292              	.LASF11:
 1293 0236 75696E74 		.ascii	"uint8_t\000"
 1293      385F7400 
 1294              	.LASF41:
 1295 023e 5F5F6170 		.ascii	"__ap\000"
 1295      00
 1296              	.LASF29:
 1297 0243 7061636B 		.ascii	"packet_id\000"
 1297      65745F69 
 1297      6400
 1298              	.LASF15:
 1299 024d 434F4D4D 		.ascii	"COMM_GET_ATTITUDE\000"
 1299      5F474554 
 1299      5F415454 
 1299      49545544 
 1299      4500
 1300              	.LASF34:
 1301 025f 73656E64 		.ascii	"send_func\000"
 1301      5F66756E 
 1301      6300
 1302              	.LASF12:
 1303 0269 696E7433 		.ascii	"int32_t\000"
 1303      325F7400 
 1304              	.LASF19:
 1305 0271 73697A65 		.ascii	"sizetype\000"
 1305      74797065 
 1305      00
 1306              	.LASF40:
 1307 027a 5F5F7661 		.ascii	"__va_list\000"
 1307      5F6C6973 
 1307      7400
 1308              	.LASF8:
 1309 0284 6C6F6E67 		.ascii	"long long int\000"
 1309      206C6F6E 
 1309      6720696E 
 1309      7400
 1310              	.LASF20:
 1311 0292 63686172 		.ascii	"char\000"
 1311      00
 1312              	.LASF42:
 1313 0297 6D61696E 		.ascii	"main_config\000"
 1313      5F636F6E 
 1313      66696700 
 1314              	.LASF17:
 1315 02a3 4D41494E 		.ascii	"MAIN_CONFIG\000"
 1315      5F434F4E 
 1315      46494700 
 1316              	.LASF39:
 1317 02af 2F686F6D 		.ascii	"/home/benjamin/Skrivbord/SP-RCCar/Embedded/RC_Contr"
 1317      652F6265 
ARM GAS  /tmp/ccdRBHfg.s 			page 26


 1317      6E6A616D 
 1317      696E2F53 
 1317      6B726976 
 1318 02e2 6F6C6C65 		.ascii	"oller/\000"
 1318      722F00
 1319              	.LASF6:
 1320 02e9 6C6F6E67 		.ascii	"long int\000"
 1320      20696E74 
 1320      00
 1321              	.LASF22:
 1322 02f2 6C6F6E67 		.ascii	"long double\000"
 1322      20646F75 
 1322      626C6500 
 1323              	.LASF0:
 1324 02fe 7369676E 		.ascii	"signed char\000"
 1324      65642063 
 1324      68617200 
 1325              	.LASF26:
 1326 030a 636F6D6D 		.ascii	"commands_set_send_func\000"
 1326      616E6473 
 1326      5F736574 
 1326      5F73656E 
 1326      645F6675 
 1327              	.LASF32:
 1328 0321 7072696E 		.ascii	"print_buffer\000"
 1328      745F6275 
 1328      66666572 
 1328      00
 1329              	.LASF27:
 1330 032e 636F6D6D 		.ascii	"commands_process_packet\000"
 1330      616E6473 
 1330      5F70726F 
 1330      63657373 
 1330      5F706163 
 1331              		.ident	"GCC: (GNU Tools for ARM Embedded Processors) 4.9.3 20150529 (release) [ARM/embedded-4_9-br
ARM GAS  /tmp/ccdRBHfg.s 			page 27


DEFINED SYMBOLS
                            *ABS*:0000000000000000 commands.c
     /tmp/ccdRBHfg.s:21     .text.commands_set_send_func:0000000000000000 $t
     /tmp/ccdRBHfg.s:27     .text.commands_set_send_func:0000000000000000 commands_set_send_func
     /tmp/ccdRBHfg.s:43     .text.commands_set_send_func:0000000000000008 $d
     /tmp/ccdRBHfg.s:48     .text.commands_send_packet:0000000000000000 $t
     /tmp/ccdRBHfg.s:54     .text.commands_send_packet:0000000000000000 commands_send_packet
     /tmp/ccdRBHfg.s:74     .text.commands_send_packet:000000000000000c $d
     /tmp/ccdRBHfg.s:79     .text.commands_process_packet:0000000000000000 $t
     /tmp/ccdRBHfg.s:85     .text.commands_process_packet:0000000000000000 commands_process_packet
     /tmp/ccdRBHfg.s:98     .text.commands_printf:0000000000000000 $t
     /tmp/ccdRBHfg.s:104    .text.commands_printf:0000000000000000 commands_printf
     /tmp/ccdRBHfg.s:198    .text.commands_printf:0000000000000044 $d
     /tmp/ccdRBHfg.s:205    .bss.send_func:0000000000000000 $d
     /tmp/ccdRBHfg.s:209    .bss.send_func:0000000000000000 send_func
     /tmp/ccdRBHfg.s:212    .bss.print_buffer.5821:0000000000000000 $d
     /tmp/ccdRBHfg.s:216    .bss.print_buffer.5821:0000000000000000 print_buffer.5821
                     .debug_frame:0000000000000010 $d

UNDEFINED SYMBOLS
vsnprintf
main_config
