ARM GAS  /tmp/ccdRBHfg.s 			page 1


   1              		.syntax unified
   2              		.cpu cortex-m4
   3              		.eabi_attribute 27, 1
   4              		.eabi_attribute 28, 1
   5              		.fpu fpv4-sp-d16
   6              		.eabi_attribute 20, 1
   7              		.eabi_attribute 21, 1
   8              		.eabi_attribute 23, 3
   9              		.eabi_attribute 24, 1
  10              		.eabi_attribute 25, 1
  11              		.eabi_attribute 26, 1
  12              		.eabi_attribute 30, 2
  13              		.eabi_attribute 34, 1
  14              		.eabi_attribute 18, 4
  15              		.thumb
  16              		.file	"commands.c"
  17              		.text
  18              	.Ltext0:
  19              		.cfi_sections	.debug_frame
  20              		.section	.text.commands_set_send_func,"ax",%progbits
  21              		.align	2
  22              		.p2align 4,,15
  23              		.global	commands_set_send_func
  24              		.thumb
  25              		.thumb_func
  26              		.type	commands_set_send_func, %function
  27              	commands_set_send_func:
  28              	.LFB0:
  29              		.file 1 "commands.c"
  30              		.loc 1 43 0
  31              		.cfi_startproc
  32              		@ args = 0, pretend = 0, frame = 0
  33              		@ frame_needed = 0, uses_anonymous_args = 0
  34              		@ link register save eliminated.
  35              	.LVL0:
  36              		.loc 1 44 0
  37 0000 014B     		ldr	r3, .L2
  38 0002 1860     		str	r0, [r3]
  39 0004 7047     		bx	lr
  40              	.L3:
  41 0006 00BF     		.align	2
  42              	.L2:
  43 0008 00000000 		.word	.LANCHOR0
  44              		.cfi_endproc
  45              	.LFE0:
  46              		.size	commands_set_send_func, .-commands_set_send_func
  47              		.section	.text.commands_send_packet,"ax",%progbits
  48              		.align	2
  49              		.p2align 4,,15
  50              		.global	commands_send_packet
  51              		.thumb
  52              		.thumb_func
  53              		.type	commands_send_packet, %function
  54              	commands_send_packet:
  55              	.LFB1:
  56              		.loc 1 56 0
  57              		.cfi_startproc
ARM GAS  /tmp/ccdRBHfg.s 			page 2


  58              		@ args = 0, pretend = 0, frame = 0
  59              		@ frame_needed = 0, uses_anonymous_args = 0
  60              		@ link register save eliminated.
  61              	.LVL1:
  62              		.loc 1 57 0
  63 0000 024B     		ldr	r3, .L7
  64 0002 1B68     		ldr	r3, [r3]
  65 0004 03B1     		cbz	r3, .L4
  66              		.loc 1 58 0
  67 0006 1847     		bx	r3	@ indirect register sibling call
  68              	.LVL2:
  69              	.L4:
  70 0008 7047     		bx	lr
  71              	.L8:
  72 000a 00BF     		.align	2
  73              	.L7:
  74 000c 00000000 		.word	.LANCHOR0
  75              		.cfi_endproc
  76              	.LFE1:
  77              		.size	commands_send_packet, .-commands_send_packet
  78              		.section	.text.commands_process_packet,"ax",%progbits
  79              		.align	2
  80              		.p2align 4,,15
  81              		.global	commands_process_packet
  82              		.thumb
  83              		.thumb_func
  84              		.type	commands_process_packet, %function
  85              	commands_process_packet:
  86              	.LFB2:
  87              		.loc 1 71 0
  88              		.cfi_startproc
  89              		@ args = 0, pretend = 0, frame = 0
  90              		@ frame_needed = 0, uses_anonymous_args = 0
  91              		@ link register save eliminated.
  92              	.LVL3:
  93 0000 7047     		bx	lr
  94              		.cfi_endproc
  95              	.LFE2:
  96              		.size	commands_process_packet, .-commands_process_packet
  97 0002 00BF     		.section	.text.commands_printf,"ax",%progbits
  98              		.align	2
  99              		.p2align 4,,15
 100              		.global	commands_printf
 101              		.thumb
 102              		.thumb_func
 103              		.type	commands_printf, %function
 104              	commands_printf:
 105              	.LFB3:
 106              		.loc 1 100 0
 107              		.cfi_startproc
 108              		@ args = 4, pretend = 16, frame = 8
 109              		@ frame_needed = 0, uses_anonymous_args = 1
 110              	.LVL4:
 111              		.loc 1 100 0
 112 0000 0FB4     		push	{r0, r1, r2, r3}
 113              		.cfi_def_cfa_offset 16
 114              		.cfi_offset 0, -16
ARM GAS  /tmp/ccdRBHfg.s 			page 3


 115              		.cfi_offset 1, -12
 116              		.cfi_offset 2, -8
 117              		.cfi_offset 3, -4
 118 0002 70B5     		push	{r4, r5, r6, lr}
 119              		.cfi_def_cfa_offset 32
 120              		.cfi_offset 4, -32
 121              		.cfi_offset 5, -28
 122              		.cfi_offset 6, -24
 123              		.cfi_offset 14, -20
 124 0004 82B0     		sub	sp, sp, #8
 125              		.cfi_def_cfa_offset 40
 126              		.loc 1 100 0
 127 0006 06AB     		add	r3, sp, #24
 128              		.loc 1 106 0
 129 0008 0E4C     		ldr	r4, .L18
 130 000a 0F49     		ldr	r1, .L18+4
 131              		.loc 1 100 0
 132 000c 53F8042B 		ldr	r2, [r3], #4
 133              		.loc 1 106 0
 134 0010 0E68     		ldr	r6, [r1]
 135              		.loc 1 102 0
 136 0012 0193     		str	r3, [sp, #4]
 137              		.loc 1 107 0
 138 0014 0025     		movs	r5, #0
 139              		.loc 1 108 0
 140 0016 A01C     		adds	r0, r4, #2
 141 0018 FD21     		movs	r1, #253
 142              		.loc 1 106 0
 143 001a 2670     		strb	r6, [r4]
 144              		.loc 1 107 0
 145 001c 6570     		strb	r5, [r4, #1]
 146              		.loc 1 108 0
 147 001e FFF7FEFF 		bl	vsnprintf
 148              	.LVL5:
 149              		.loc 1 111 0
 150 0022 0028     		cmp	r0, #0
 151 0024 08DD     		ble	.L10
 152              	.LVL6:
 153              	.LBB4:
 154              	.LBB5:
 155              		.loc 1 57 0
 156 0026 094B     		ldr	r3, .L18+8
 157 0028 1B68     		ldr	r3, [r3]
 158              	.LBE5:
 159              	.LBE4:
 160              		.loc 1 112 0
 161 002a FC28     		cmp	r0, #252
 162 002c D4BF     		ite	le
 163 002e 811C     		addle	r1, r0, #2
 164 0030 FF21     		movgt	r1, #255
 165              	.LVL7:
 166              	.LBB7:
 167              	.LBB6:
 168              		.loc 1 57 0
 169 0032 0BB1     		cbz	r3, .L10
 170              		.loc 1 58 0
 171 0034 0348     		ldr	r0, .L18
ARM GAS  /tmp/ccdRBHfg.s 			page 4


 172              	.LVL8:
 173 0036 9847     		blx	r3
 174              	.LVL9:
 175              	.L10:
 176              	.LBE6:
 177              	.LBE7:
 178              		.loc 1 114 0
 179 0038 02B0     		add	sp, sp, #8
 180              		.cfi_def_cfa_offset 32
 181              		@ sp needed
 182 003a BDE87040 		pop	{r4, r5, r6, lr}
 183              		.cfi_restore 14
 184              		.cfi_restore 6
 185              		.cfi_restore 5
 186              		.cfi_restore 4
 187              		.cfi_def_cfa_offset 16
 188 003e 04B0     		add	sp, sp, #16
 189              		.cfi_restore 3
 190              		.cfi_restore 2
 191              		.cfi_restore 1
 192              		.cfi_restore 0
 193              		.cfi_def_cfa_offset 0
 194 0040 7047     		bx	lr
 195              	.L19:
 196 0042 00BF     		.align	2
 197              	.L18:
 198 0044 00000000 		.word	.LANCHOR1
 199 0048 00000000 		.word	main_config
 200 004c 00000000 		.word	.LANCHOR0
 201              		.cfi_endproc
 202              	.LFE3:
 203              		.size	commands_printf, .-commands_printf
 204              		.section	.bss.send_func,"aw",%nobits
 205              		.align	2
 206              		.set	.LANCHOR0,. + 0
 207              		.type	send_func, %object
 208              		.size	send_func, 4
 209              	send_func:
 210 0000 00000000 		.space	4
 211              		.section	.bss.print_buffer.5821,"aw",%nobits
 212              		.align	2
 213              		.set	.LANCHOR1,. + 0
 214              		.type	print_buffer.5821, %object
 215              		.size	print_buffer.5821, 255
 216              	print_buffer.5821:
 217 0000 00000000 		.space	255
 217      00000000 
 217      00000000 
 217      00000000 
 217      00000000 
 218              		.text
 219              	.Letext0:
 220              		.file 2 "/usr/arm-none-eabi/include/machine/_default_types.h"
 221              		.file 3 "/usr/arm-none-eabi/include/sys/_stdint.h"
 222              		.file 4 "datatypes.h"
 223              		.file 5 "/usr/lib/gcc/arm-none-eabi/4.9.3/include/stddef.h"
 224              		.file 6 "/usr/lib/gcc/arm-none-eabi/4.9.3/include/stdarg.h"
ARM GAS  /tmp/ccdRBHfg.s 			page 5


 225              		.file 7 "/usr/arm-none-eabi/include/stdio.h"
 226              		.file 8 "<built-in>"
 227              		.file 9 "conf_general.h"