ARM GAS  /tmp/ccmHtIkH.s 			page 1


   1              		.syntax unified
   2              		.cpu cortex-m4
   3              		.eabi_attribute 27, 1
   4              		.eabi_attribute 28, 1
   5              		.fpu fpv4-sp-d16
   6              		.eabi_attribute 20, 1
   7              		.eabi_attribute 21, 1
   8              		.eabi_attribute 23, 3
   9              		.eabi_attribute 24, 1
  10              		.eabi_attribute 25, 1
  11              		.eabi_attribute 26, 1
  12              		.eabi_attribute 30, 2
  13              		.eabi_attribute 34, 1
  14              		.eabi_attribute 18, 4
  15              		.thumb
  16              		.file	"comm_cc2520.c"
  17              		.text
  18              	.Ltext0:
  19              		.cfi_sections	.debug_frame
  20              		.section	.text.tx_thread,"ax",%progbits
  21              		.align	2
  22              		.p2align 4,,15
  23              		.thumb
  24              		.thumb_func
  25              		.type	tx_thread, %function
  26              	tx_thread:
  27              	.LFB260:
  28              		.file 1 "comm_cc2520.c"
  29              		.loc 1 233 0
  30              		.cfi_startproc
  31              		@ Volatile: function does not return.
  32              		@ args = 0, pretend = 0, frame = 0
  33              		@ frame_needed = 0, uses_anonymous_args = 0
  34              	.LVL0:
  35              	.LBB71:
  36              	.LBB72:
  37              		.file 2 "ChibiOS_3.0.2/os/rt/include/chregistry.h"
  38              		.loc 2 135 0
  39 0000 144B     		ldr	r3, .L9
  40              	.LBE72:
  41              	.LBE71:
  42              		.loc 1 238 0
  43 0002 154A     		ldr	r2, .L9+4
  44              	.LBB75:
  45              	.LBB73:
  46              		.loc 2 135 0
  47 0004 9B69     		ldr	r3, [r3, #24]
  48 0006 154C     		ldr	r4, .L9+8
  49 0008 1549     		ldr	r1, .L9+12
  50 000a 164D     		ldr	r5, .L9+16
  51 000c 164E     		ldr	r6, .L9+20
  52 000e DFF85C80 		ldr	r8, .L9+24
  53              	.LBE73:
  54              	.LBE75:
  55              		.loc 1 233 0
  56 0012 80B5     		push	{r7, lr}
  57              		.cfi_def_cfa_offset 8
ARM GAS  /tmp/ccmHtIkH.s 			page 2


  58              		.cfi_offset 7, -8
  59              		.cfi_offset 14, -4
  60              	.LBB76:
  61              	.LBB74:
  62              		.loc 2 135 0
  63 0014 9961     		str	r1, [r3, #24]
  64              	.LBE74:
  65              	.LBE76:
  66              		.loc 1 238 0
  67 0016 1360     		str	r3, [r2]
  68              		.loc 1 247 0
  69 0018 2746     		mov	r7, r4
  70              	.LVL1:
  71              	.L5:
  72              		.loc 1 241 0
  73 001a 0120     		movs	r0, #1
  74 001c FFF7FEFF 		bl	chEvtWaitAny
  75              	.LVL2:
  76              	.L2:
  77 0020 2368     		ldr	r3, [r4]
  78              	.L3:
  79              		.loc 1 243 0
  80 0022 D8F80020 		ldr	r2, [r8]
  81              		.loc 1 244 0
  82 0026 03EB8311 		add	r1, r3, r3, lsl #6
  83              		.loc 1 243 0
  84 002a 9A42     		cmp	r2, r3
  85              		.loc 1 244 0
  86 002c 05EB4101 		add	r1, r5, r1, lsl #1
  87 0030 4FF6FF70 		movw	r0, #65535
  88              		.loc 1 243 0
  89 0034 F1D0     		beq	.L5
  90              		.loc 1 244 0
  91 0036 F25C     		ldrb	r2, [r6, r3]	@ zero_extendqisi2
  92 0038 FFF7FEFF 		bl	basicRfSendPacket
  93              	.LVL3:
  94              		.loc 1 245 0
  95 003c 0120     		movs	r0, #1
  96 003e FFF7FEFF 		bl	led_toggle
  97              	.LVL4:
  98              		.loc 1 247 0
  99 0042 2368     		ldr	r3, [r4]
 100 0044 0133     		adds	r3, r3, #1
 101              		.loc 1 248 0
 102 0046 092B     		cmp	r3, #9
 103              		.loc 1 247 0
 104 0048 2360     		str	r3, [r4]
 105              		.loc 1 248 0
 106 004a EADD     		ble	.L3
 107              		.loc 1 249 0
 108 004c 0023     		movs	r3, #0
 109 004e 3B60     		str	r3, [r7]
 110 0050 E6E7     		b	.L2
 111              	.L10:
 112 0052 00BF     		.align	2
 113              	.L9:
 114 0054 00000000 		.word	ch
ARM GAS  /tmp/ccmHtIkH.s 			page 3


 115 0058 00000000 		.word	.LANCHOR0
 116 005c 00000000 		.word	.LANCHOR3
 117 0060 00000000 		.word	.LC0
 118 0064 00000000 		.word	.LANCHOR1
 119 0068 00000000 		.word	.LANCHOR2
 120 006c 00000000 		.word	.LANCHOR4
 121              		.cfi_endproc
 122              	.LFE260:
 123              		.size	tx_thread, .-tx_thread
 124              		.section	.text.rx_thread,"ax",%progbits
 125              		.align	2
 126              		.p2align 4,,15
 127              		.thumb
 128              		.thumb_func
 129              		.type	rx_thread, %function
 130              	rx_thread:
 131              	.LFB259:
 132              		.loc 1 165 0
 133              		.cfi_startproc
 134              		@ args = 0, pretend = 0, frame = 0
 135              		@ frame_needed = 0, uses_anonymous_args = 0
 136              	.LVL5:
 137 0000 2DE9F843 		push	{r3, r4, r5, r6, r7, r8, r9, lr}
 138              		.cfi_def_cfa_offset 32
 139              		.cfi_offset 3, -32
 140              		.cfi_offset 4, -28
 141              		.cfi_offset 5, -24
 142              		.cfi_offset 6, -20
 143              		.cfi_offset 7, -16
 144              		.cfi_offset 8, -12
 145              		.cfi_offset 9, -8
 146              		.cfi_offset 14, -4
 147              	.LBB77:
 148              	.LBB78:
 149              		.loc 2 135 0
 150 0004 2E4B     		ldr	r3, .L22
 151 0006 2F4D     		ldr	r5, .L22+4
 152 0008 9B69     		ldr	r3, [r3, #24]
 153 000a 2F4A     		ldr	r2, .L22+8
 154 000c 2F4F     		ldr	r7, .L22+12
 155 000e 9A61     		str	r2, [r3, #24]
 156              	.LBE78:
 157              	.LBE77:
 158              	.LBB79:
 159              		.loc 1 176 0
 160 0010 A846     		mov	r8, r5
 161 0012 02E0     		b	.L20
 162              	.LVL6:
 163              	.L13:
 164              	.LBE79:
 165              		.loc 1 229 0
 166 0014 0120     		movs	r0, #1
 167 0016 FFF7FEFF 		bl	chThdSleep
 168              	.LVL7:
 169              	.L20:
 170              		.loc 1 171 0
 171 001a FFF7FEFF 		bl	basicRfPacketIsReady
ARM GAS  /tmp/ccmHtIkH.s 			page 4


 172              	.LVL8:
 173 001e 0028     		cmp	r0, #0
 174 0020 F8D0     		beq	.L13
 175              	.LVL9:
 176              	.LBB82:
 177              		.loc 1 176 0
 178 0022 2848     		ldr	r0, .L22+4
 179 0024 8221     		movs	r1, #130
 180 0026 0022     		movs	r2, #0
 181 0028 FFF7FEFF 		bl	basicRfReceive
 182              	.LVL10:
 183              		.loc 1 177 0
 184 002c 2C78     		ldrb	r4, [r5]	@ zero_extendqisi2
 185              		.loc 1 176 0
 186 002e 0646     		mov	r6, r0
 187              	.LVL11:
 188              		.loc 1 179 0
 189 0030 0020     		movs	r0, #0
 190              	.LVL12:
 191 0032 FFF7FEFF 		bl	led_toggle
 192              	.LVL13:
 193              		.loc 1 181 0
 194 0036 032C     		cmp	r4, #3
 195 0038 ECD8     		bhi	.L13
 196 003a DFE804F0 		tbb	[pc, r4]
 197              	.L15:
 198 003e 39       		.byte	(.L14-.L15)/2
 199 003f 2C       		.byte	(.L16-.L15)/2
 200 0040 0A       		.byte	(.L17-.L15)/2
 201 0041 02       		.byte	(.L18-.L15)/2
 202              		.p2align 1
 203              	.L18:
 204              		.loc 1 220 0
 205 0042 2348     		ldr	r0, .L22+16
 206 0044 FFF7FEFF 		bl	commands_set_send_func
 207              	.LVL14:
 208              		.loc 1 221 0
 209 0048 711E     		subs	r1, r6, #1
 210 004a 2248     		ldr	r0, .L22+20
 211 004c FFF7FEFF 		bl	commands_process_packet
 212              	.LVL15:
 213              		.loc 1 222 0
 214 0050 E0E7     		b	.L13
 215              	.L17:
 216              	.LVL16:
 217              	.LBB80:
 218              		.loc 1 197 0
 219 0052 6C78     		ldrb	r4, [r5, #1]	@ zero_extendqisi2
 220              	.LVL17:
 221              		.loc 1 198 0
 222 0054 AB78     		ldrb	r3, [r5, #2]	@ zero_extendqisi2
 223 0056 43EA0424 		orr	r4, r3, r4, lsl #8
 224              	.LVL18:
 225              		.loc 1 200 0
 226 005a B4F5806F 		cmp	r4, #1024
 227 005e D9D8     		bhi	.L13
 228              	.LVL19:
ARM GAS  /tmp/ccmHtIkH.s 			page 5


 229 0060 601D     		adds	r0, r4, #5
 230              		.loc 1 207 0
 231 0062 801B     		subs	r0, r0, r6
 232 0064 721F     		subs	r2, r6, #5
 233 0066 1C49     		ldr	r1, .L22+24
 234              		.loc 1 204 0
 235 0068 98F80390 		ldrb	r9, [r8, #3]	@ zero_extendqisi2
 236              	.LVL20:
 237              		.loc 1 205 0
 238 006c 98F80460 		ldrb	r6, [r8, #4]	@ zero_extendqisi2
 239              	.LVL21:
 240              		.loc 1 207 0
 241 0070 3844     		add	r0, r0, r7
 242 0072 FFF7FEFF 		bl	memcpy
 243              	.LVL22:
 244              		.loc 1 209 0
 245 0076 1548     		ldr	r0, .L22+12
 246 0078 2146     		mov	r1, r4
 247 007a FFF7FEFF 		bl	crc16
 248              	.LVL23:
 249              		.loc 1 211 0
 250 007e 46EA0926 		orr	r6, r6, r9, lsl #8
 251              	.LVL24:
 252              		.loc 1 209 0
 253 0082 B042     		cmp	r0, r6
 254 0084 C6D1     		bne	.L13
 255              		.loc 1 213 0
 256 0086 1248     		ldr	r0, .L22+16
 257 0088 FFF7FEFF 		bl	commands_set_send_func
 258              	.LVL25:
 259              		.loc 1 214 0
 260 008c 2146     		mov	r1, r4
 261 008e 0F48     		ldr	r0, .L22+12
 262 0090 FFF7FEFF 		bl	commands_process_packet
 263              	.LVL26:
 264 0094 BEE7     		b	.L13
 265              	.LVL27:
 266              	.L16:
 267              	.LBE80:
 268              	.LBB81:
 269              		.loc 1 187 0
 270 0096 6878     		ldrb	r0, [r5, #1]	@ zero_extendqisi2
 271              	.LVL28:
 272              		.loc 1 188 0
 273 0098 AB78     		ldrb	r3, [r5, #2]	@ zero_extendqisi2
 274 009a 43EA0020 		orr	r0, r3, r0, lsl #8
 275              	.LVL29:
 276              		.loc 1 189 0
 277 009e B0F5806F 		cmp	r0, #1024
 278 00a2 B7DA     		bge	.L13
 279              		.loc 1 190 0
 280 00a4 3844     		add	r0, r0, r7
 281              	.LVL30:
 282 00a6 F21E     		subs	r2, r6, #3
 283 00a8 0C49     		ldr	r1, .L22+28
 284 00aa FFF7FEFF 		bl	memcpy
 285              	.LVL31:
ARM GAS  /tmp/ccmHtIkH.s 			page 6


 286 00ae B1E7     		b	.L13
 287              	.L14:
 288              	.LBE81:
 289              		.loc 1 183 0
 290 00b0 6878     		ldrb	r0, [r5, #1]	@ zero_extendqisi2
 291 00b2 0B49     		ldr	r1, .L22+32
 292 00b4 B21E     		subs	r2, r6, #2
 293 00b6 3844     		add	r0, r0, r7
 294 00b8 FFF7FEFF 		bl	memcpy
 295              	.LVL32:
 296              		.loc 1 184 0
 297 00bc AAE7     		b	.L13
 298              	.L23:
 299 00be 00BF     		.align	2
 300              	.L22:
 301 00c0 00000000 		.word	ch
 302 00c4 00000000 		.word	.LANCHOR5
 303 00c8 0C000000 		.word	.LC1
 304 00cc 00000000 		.word	.LANCHOR6
 305 00d0 00000000 		.word	comm_cc2520_send_buffer
 306 00d4 01000000 		.word	.LANCHOR5+1
 307 00d8 05000000 		.word	.LANCHOR5+5
 308 00dc 03000000 		.word	.LANCHOR5+3
 309 00e0 02000000 		.word	.LANCHOR5+2
 310              	.LBE82:
 311              		.cfi_endproc
 312              	.LFE259:
 313              		.size	rx_thread, .-rx_thread
 314              		.section	.text.wakeup_tx,"ax",%progbits
 315              		.align	2
 316              		.p2align 4,,15
 317              		.thumb
 318              		.thumb_func
 319              		.type	wakeup_tx, %function
 320              	wakeup_tx:
 321              	.LFB261:
 322              		.loc 1 255 0
 323              		.cfi_startproc
 324              		@ args = 0, pretend = 0, frame = 0
 325              		@ frame_needed = 0, uses_anonymous_args = 0
 326              	.LVL33:
 327 0000 08B5     		push	{r3, lr}
 328              		.cfi_def_cfa_offset 8
 329              		.cfi_offset 3, -8
 330              		.cfi_offset 14, -4
 331              	.LBB83:
 332              	.LBB84:
 333              	.LBB85:
 334              	.LBB86:
 335              	.LBB87:
 336              		.file 3 "ChibiOS_3.0.2/os/ext/CMSIS/include/core_cmFunc.h"
 337              		.loc 3 342 0
 338              	@ 342 "ChibiOS_3.0.2/os/ext/CMSIS/include/core_cmFunc.h" 1
 339 0002 72B6     		cpsid i
 340              	@ 0 "" 2
 341              		.thumb
 342              	.LBE87:
ARM GAS  /tmp/ccmHtIkH.s 			page 7


 343              	.LBE86:
 344              	.LBE85:
 345              	.LBE84:
 346              	.LBE83:
 347              		.loc 1 259 0
 348 0004 034B     		ldr	r3, .L26
 349 0006 0121     		movs	r1, #1
 350 0008 1868     		ldr	r0, [r3]
 351              	.LVL34:
 352 000a FFF7FEFF 		bl	chEvtSignalI
 353              	.LVL35:
 354              	.LBB88:
 355              	.LBB89:
 356              	.LBB90:
 357              	.LBB91:
 358              	.LBB92:
 359              		.loc 3 331 0
 360              	@ 331 "ChibiOS_3.0.2/os/ext/CMSIS/include/core_cmFunc.h" 1
 361 000e 62B6     		cpsie i
 362              	@ 0 "" 2
 363              		.thumb
 364 0010 08BD     		pop	{r3, pc}
 365              	.L27:
 366 0012 00BF     		.align	2
 367              	.L26:
 368 0014 00000000 		.word	.LANCHOR0
 369              	.LBE92:
 370              	.LBE91:
 371              	.LBE90:
 372              	.LBE89:
 373              	.LBE88:
 374              		.cfi_endproc
 375              	.LFE261:
 376              		.size	wakeup_tx, .-wakeup_tx
 377              		.section	.text.comm_cc2520_init,"ax",%progbits
 378              		.align	2
 379              		.p2align 4,,15
 380              		.global	comm_cc2520_init
 381              		.thumb
 382              		.thumb_func
 383              		.type	comm_cc2520_init, %function
 384              	comm_cc2520_init:
 385              	.LFB256:
 386              		.loc 1 53 0
 387              		.cfi_startproc
 388              		@ args = 0, pretend = 0, frame = 0
 389              		@ frame_needed = 0, uses_anonymous_args = 0
 390 0000 30B5     		push	{r4, r5, lr}
 391              		.cfi_def_cfa_offset 12
 392              		.cfi_offset 4, -12
 393              		.cfi_offset 5, -8
 394              		.cfi_offset 14, -4
 395              		.loc 1 54 0
 396 0002 154A     		ldr	r2, .L32
 397              		.loc 1 55 0
 398 0004 154B     		ldr	r3, .L32+4
 399              		.loc 1 54 0
ARM GAS  /tmp/ccmHtIkH.s 			page 8


 400 0006 0024     		movs	r4, #0
 401              		.loc 1 53 0
 402 0008 83B0     		sub	sp, sp, #12
 403              		.cfi_def_cfa_offset 24
 404              		.loc 1 54 0
 405 000a 1460     		str	r4, [r2]
 406              		.loc 1 55 0
 407 000c 1C60     		str	r4, [r3]
 408              		.loc 1 58 0
 409 000e FFF7FEFF 		bl	halAssyInit
 410              	.LVL36:
 411              		.loc 1 59 0
 412 0012 134B     		ldr	r3, .L32+8
 413              		.loc 1 60 0
 414 0014 0C21     		movs	r1, #12
 415              		.loc 1 62 0
 416 0016 0122     		movs	r2, #1
 417              		.loc 1 59 0
 418 0018 4FF61125 		movw	r5, #64017
 419              		.loc 1 67 0
 420 001c 1846     		mov	r0, r3
 421              		.loc 1 61 0
 422 001e 5C71     		strb	r4, [r3, #5]
 423              		.loc 1 59 0
 424 0020 5D80     		strh	r5, [r3, #2]	@ movhi
 425              		.loc 1 60 0
 426 0022 1971     		strb	r1, [r3, #4]
 427              		.loc 1 62 0
 428 0024 1A80     		strh	r2, [r3]	@ movhi
 429              		.loc 1 67 0
 430 0026 FFF7FEFF 		bl	basicRfInit
 431              	.LVL37:
 432 002a 0128     		cmp	r0, #1
 433 002c 00D1     		bne	.L29
 434              	.L30:
 435              		.loc 1 68 0 discriminator 1
 436 002e FEE7     		b	.L30
 437              	.L29:
 438              		.loc 1 71 0
 439 0030 FFF7FEFF 		bl	basicRfReceiveOn
 440              	.LVL38:
 441              		.loc 1 73 0
 442 0034 0094     		str	r4, [sp]
 443 0036 0B4B     		ldr	r3, .L32+12
 444 0038 0B48     		ldr	r0, .L32+16
 445 003a 40F69811 		movw	r1, #2456
 446 003e 4022     		movs	r2, #64
 447 0040 FFF7FEFF 		bl	chThdCreateStatic
 448              	.LVL39:
 449              		.loc 1 75 0
 450 0044 0094     		str	r4, [sp]
 451 0046 094B     		ldr	r3, .L32+20
 452 0048 0948     		ldr	r0, .L32+24
 453 004a 4FF46671 		mov	r1, #920
 454 004e 4022     		movs	r2, #64
 455 0050 FFF7FEFF 		bl	chThdCreateStatic
 456              	.LVL40:
ARM GAS  /tmp/ccmHtIkH.s 			page 9


 457              		.loc 1 77 0
 458 0054 03B0     		add	sp, sp, #12
 459              		.cfi_def_cfa_offset 12
 460              		@ sp needed
 461 0056 30BD     		pop	{r4, r5, pc}
 462              	.L33:
 463              		.align	2
 464              	.L32:
 465 0058 00000000 		.word	.LANCHOR3
 466 005c 00000000 		.word	.LANCHOR4
 467 0060 00000000 		.word	.LANCHOR7
 468 0064 00000000 		.word	rx_thread
 469 0068 00000000 		.word	.LANCHOR8
 470 006c 00000000 		.word	tx_thread
 471 0070 00000000 		.word	.LANCHOR9
 472              		.cfi_endproc
 473              	.LFE256:
 474              		.size	comm_cc2520_init, .-comm_cc2520_init
 475              		.section	.text.comm_cc2520_send_packet,"ax",%progbits
 476              		.align	2
 477              		.p2align 4,,15
 478              		.global	comm_cc2520_send_packet
 479              		.thumb
 480              		.thumb_func
 481              		.type	comm_cc2520_send_packet, %function
 482              	comm_cc2520_send_packet:
 483              	.LFB258:
 484              		.loc 1 149 0
 485              		.cfi_startproc
 486              		@ args = 0, pretend = 0, frame = 0
 487              		@ frame_needed = 0, uses_anonymous_args = 0
 488              	.LVL41:
 489 0000 70B5     		push	{r4, r5, r6, lr}
 490              		.cfi_def_cfa_offset 16
 491              		.cfi_offset 4, -16
 492              		.cfi_offset 5, -12
 493              		.cfi_offset 6, -8
 494              		.cfi_offset 14, -4
 495              		.loc 1 150 0
 496 0002 0F4D     		ldr	r5, .L41
 497 0004 0F4B     		ldr	r3, .L41+4
 498 0006 2C68     		ldr	r4, [r5]
 499              		.loc 1 149 0
 500 0008 0E46     		mov	r6, r1
 501              		.loc 1 150 0
 502 000a 04EB8412 		add	r2, r4, r4, lsl #6
 503 000e 0146     		mov	r1, r0
 504              	.LVL42:
 505 0010 03EB4200 		add	r0, r3, r2, lsl #1
 506              	.LVL43:
 507 0014 3246     		mov	r2, r6
 508 0016 FFF7FEFF 		bl	memcpy
 509              	.LVL44:
 510              		.loc 1 153 0
 511 001a 631C     		adds	r3, r4, #1
 512              		.loc 1 151 0
 513 001c 0A4A     		ldr	r2, .L41+8
ARM GAS  /tmp/ccmHtIkH.s 			page 10


 514              		.loc 1 154 0
 515 001e 092B     		cmp	r3, #9
 516              		.loc 1 155 0
 517 0020 C8BF     		it	gt
 518 0022 0023     		movgt	r3, #0
 519              		.loc 1 151 0
 520 0024 1655     		strb	r6, [r2, r4]
 521              		.loc 1 155 0
 522 0026 2B60     		str	r3, [r5]
 523              	.LBB106:
 524              	.LBB107:
 525              	.LBB108:
 526              	.LBB109:
 527              		.loc 3 342 0
 528              	@ 342 "ChibiOS_3.0.2/os/ext/CMSIS/include/core_cmFunc.h" 1
 529 0028 72B6     		cpsid i
 530              	@ 0 "" 2
 531              	.LVL45:
 532              		.thumb
 533 002a 0848     		ldr	r0, .L41+12
 534              	.LBE109:
 535              	.LBE108:
 536              	.LBE107:
 537              	.LBE106:
 538              		.loc 1 159 0
 539 002c C368     		ldr	r3, [r0, #12]
 540 002e 0BB1     		cbz	r3, .L40
 541              	.LBB110:
 542              	.LBB111:
 543              	.LBB112:
 544              	.LBB113:
 545              	.LBB114:
 546              		.loc 3 331 0
 547              	@ 331 "ChibiOS_3.0.2/os/ext/CMSIS/include/core_cmFunc.h" 1
 548 0030 62B6     		cpsie i
 549              	@ 0 "" 2
 550              		.thumb
 551 0032 70BD     		pop	{r4, r5, r6, pc}
 552              	.L40:
 553              	.LVL46:
 554              	.LBE114:
 555              	.LBE113:
 556              	.LBE112:
 557              	.LBE111:
 558              	.LBE110:
 559              	.LBB119:
 560              	.LBB120:
 561              		.file 4 "ChibiOS_3.0.2/os/rt/include/chvt.h"
 562              		.loc 4 424 0
 563 0034 3221     		movs	r1, #50
 564 0036 064A     		ldr	r2, .L41+16
 565 0038 FFF7FEFF 		bl	chVTDoSetI
 566              	.LVL47:
 567              	.LBE120:
 568              	.LBE119:
 569              	.LBB121:
 570              	.LBB118:
ARM GAS  /tmp/ccmHtIkH.s 			page 11


 571              	.LBB117:
 572              	.LBB116:
 573              	.LBB115:
 574              		.loc 3 331 0
 575              	@ 331 "ChibiOS_3.0.2/os/ext/CMSIS/include/core_cmFunc.h" 1
 576 003c 62B6     		cpsie i
 577              	@ 0 "" 2
 578              		.thumb
 579 003e 70BD     		pop	{r4, r5, r6, pc}
 580              	.L42:
 581              		.align	2
 582              	.L41:
 583 0040 00000000 		.word	.LANCHOR4
 584 0044 00000000 		.word	.LANCHOR1
 585 0048 00000000 		.word	.LANCHOR2
 586 004c 00000000 		.word	.LANCHOR10
 587 0050 00000000 		.word	wakeup_tx
 588              	.LBE115:
 589              	.LBE116:
 590              	.LBE117:
 591              	.LBE118:
 592              	.LBE121:
 593              		.cfi_endproc
 594              	.LFE258:
 595              		.size	comm_cc2520_send_packet, .-comm_cc2520_send_packet
 596              		.section	.text.comm_cc2520_send_buffer,"ax",%progbits
 597              		.align	2
 598              		.p2align 4,,15
 599              		.global	comm_cc2520_send_buffer
 600              		.thumb
 601              		.thumb_func
 602              		.type	comm_cc2520_send_buffer, %function
 603              	comm_cc2520_send_buffer:
 604              	.LFB257:
 605              		.loc 1 79 0
 606              		.cfi_startproc
 607              		@ args = 0, pretend = 0, frame = 112
 608              		@ frame_needed = 0, uses_anonymous_args = 0
 609              	.LVL48:
 610 0000 2DE9F04F 		push	{r4, r5, r6, r7, r8, r9, r10, fp, lr}
 611              		.cfi_def_cfa_offset 36
 612              		.cfi_offset 4, -36
 613              		.cfi_offset 5, -32
 614              		.cfi_offset 6, -28
 615              		.cfi_offset 7, -24
 616              		.cfi_offset 8, -20
 617              		.cfi_offset 9, -16
 618              		.cfi_offset 10, -12
 619              		.cfi_offset 11, -8
 620              		.cfi_offset 14, -4
 621              		.loc 1 82 0
 622 0004 6D29     		cmp	r1, #109
 623              		.loc 1 79 0
 624 0006 9DB0     		sub	sp, sp, #116
 625              		.cfi_def_cfa_offset 152
 626              		.loc 1 79 0
 627 0008 8946     		mov	r9, r1
ARM GAS  /tmp/ccmHtIkH.s 			page 12


 628 000a 8246     		mov	r10, r0
 629              		.loc 1 82 0
 630 000c 70D9     		bls	.L57
 631              	.LVL49:
 632              	.LBB122:
 633              		.loc 1 90 0
 634 000e A1F16907 		sub	r7, r1, #105
 635              	.LVL50:
 636 0012 FDB2     		uxtb	r5, r7
 637 0014 AE1C     		adds	r6, r5, #2
 638              		.loc 1 89 0
 639 0016 0024     		movs	r4, #0
 640 0018 F6B2     		uxtb	r6, r6
 641              	.LBB123:
 642              	.LBB124:
 643              		.loc 1 100 0
 644 001a A346     		mov	fp, r4
 645 001c 8046     		mov	r8, r0
 646              	.LVL51:
 647              	.L46:
 648              		.loc 1 97 0
 649 001e 6C34     		adds	r4, r4, #108
 650              	.LVL52:
 651 0020 A4F16C03 		sub	r3, r4, #108
 652              		.loc 1 103 0
 653 0024 A742     		cmp	r7, r4
 654              		.loc 1 100 0
 655 0026 8DF800B0 		strb	fp, [sp]
 656              		.loc 1 101 0
 657 002a 8DF80130 		strb	r3, [sp, #1]
 658              		.loc 1 104 0
 659 002e 0DF10200 		add	r0, sp, #2
 660 0032 4146     		mov	r1, r8
 661 0034 4FF06C02 		mov	r2, #108
 662              		.loc 1 103 0
 663 0038 6DD3     		bcc	.L48
 664              		.loc 1 104 0
 665 003a FFF7FEFF 		bl	memcpy
 666              	.LVL53:
 667 003e 6E21     		movs	r1, #110
 668              	.LVL54:
 669              	.L49:
 670              		.loc 1 110 0 discriminator 2
 671 0040 6846     		mov	r0, sp
 672 0042 FFF7FEFF 		bl	comm_cc2520_send_packet
 673              	.LVL55:
 674 0046 6C3E     		subs	r6, r6, #108
 675              	.LBE124:
 676              		.loc 1 92 0 discriminator 2
 677 0048 A742     		cmp	r7, r4
 678 004a F6B2     		uxtb	r6, r6
 679 004c 08F16C08 		add	r8, r8, #108
 680 0050 2DD9     		bls	.L54
 681              	.LBB125:
 682              		.loc 1 93 0
 683 0052 B4F5A27F 		cmp	r4, #324
 684 0056 E2D1     		bne	.L46
ARM GAS  /tmp/ccmHtIkH.s 			page 13


 685              	.LVL56:
 686 0058 413D     		subs	r5, r5, #65
 687 005a EDB2     		uxtb	r5, r5
 688 005c 0AF5A276 		add	r6, r10, #324
 689              	.LBE125:
 690              	.LBE123:
 691              	.LBB127:
 692              	.LBB128:
 693              		.loc 1 115 0
 694 0060 4FF00108 		mov	r8, #1
 695 0064 0BE0     		b	.L53
 696              	.LVL57:
 697              	.L58:
 698              		.loc 1 120 0
 699 0066 FFF7FEFF 		bl	memcpy
 700              	.LVL58:
 701 006a 6E21     		movs	r1, #110
 702              	.L52:
 703              	.LVL59:
 704              		.loc 1 126 0 discriminator 2
 705 006c 6846     		mov	r0, sp
 706 006e FFF7FEFF 		bl	comm_cc2520_send_packet
 707              	.LVL60:
 708 0072 6B3D     		subs	r5, r5, #107
 709              	.LBE128:
 710              		.loc 1 113 0 discriminator 2
 711 0074 A742     		cmp	r7, r4
 712 0076 06F16B06 		add	r6, r6, #107
 713 007a EDB2     		uxtb	r5, r5
 714 007c 17D9     		bls	.L54
 715              	.LVL61:
 716              	.L53:
 717              	.LBB129:
 718              		.loc 1 116 0
 719 007e 230A     		lsrs	r3, r4, #8
 720              		.loc 1 117 0
 721 0080 8DF80240 		strb	r4, [sp, #2]
 722              		.loc 1 119 0
 723 0084 6B34     		adds	r4, r4, #107
 724              	.LVL62:
 725 0086 A742     		cmp	r7, r4
 726              		.loc 1 115 0
 727 0088 8DF80080 		strb	r8, [sp]
 728              		.loc 1 116 0
 729 008c 8DF80130 		strb	r3, [sp, #1]
 730              		.loc 1 120 0
 731 0090 0DF10300 		add	r0, sp, #3
 732 0094 3146     		mov	r1, r6
 733 0096 4FF06B02 		mov	r2, #107
 734              		.loc 1 119 0
 735 009a E4D2     		bcs	.L58
 736 009c EA1E     		subs	r2, r5, #3
 737              		.loc 1 123 0
 738 009e 3146     		mov	r1, r6
 739 00a0 D2B2     		uxtb	r2, r2
 740 00a2 0DF10300 		add	r0, sp, #3
 741 00a6 FFF7FEFF 		bl	memcpy
ARM GAS  /tmp/ccmHtIkH.s 			page 14


 742              	.LVL63:
 743 00aa 2946     		mov	r1, r5
 744 00ac DEE7     		b	.L52
 745              	.LVL64:
 746              	.L54:
 747              	.LBE129:
 748              	.LBE127:
 749              		.loc 1 131 0
 750 00ae 4FEA1923 		lsr	r3, r9, #8
 751              		.loc 1 130 0
 752 00b2 0222     		movs	r2, #2
 753              		.loc 1 133 0
 754 00b4 4946     		mov	r1, r9
 755 00b6 5046     		mov	r0, r10
 756              		.loc 1 130 0
 757 00b8 8DF80020 		strb	r2, [sp]
 758              	.LVL65:
 759              		.loc 1 131 0
 760 00bc 8DF80130 		strb	r3, [sp, #1]
 761              	.LVL66:
 762              		.loc 1 132 0
 763 00c0 8DF80290 		strb	r9, [sp, #2]
 764              		.loc 1 133 0
 765 00c4 FFF7FEFF 		bl	crc16
 766              	.LVL67:
 767              		.loc 1 136 0
 768 00c8 0AEB0701 		add	r1, r10, r7
 769              		.loc 1 133 0
 770 00cc 0346     		mov	r3, r0
 771              	.LVL68:
 772              		.loc 1 134 0
 773 00ce 040A     		lsrs	r4, r0, #8
 774              		.loc 1 136 0
 775 00d0 6922     		movs	r2, #105
 776 00d2 0DF10500 		add	r0, sp, #5
 777              	.LVL69:
 778              		.loc 1 135 0
 779 00d6 8DF80430 		strb	r3, [sp, #4]
 780              		.loc 1 134 0
 781 00da 8DF80340 		strb	r4, [sp, #3]
 782              	.LVL70:
 783              		.loc 1 136 0
 784 00de FFF7FEFF 		bl	memcpy
 785              	.LVL71:
 786              		.loc 1 139 0
 787 00e2 6846     		mov	r0, sp
 788 00e4 6E21     		movs	r1, #110
 789 00e6 FFF7FEFF 		bl	comm_cc2520_send_packet
 790              	.LVL72:
 791              	.LBE122:
 792              		.loc 1 141 0
 793 00ea 1DB0     		add	sp, sp, #116
 794              		.cfi_remember_state
 795              		.cfi_def_cfa_offset 36
 796              		@ sp needed
 797 00ec BDE8F08F 		pop	{r4, r5, r6, r7, r8, r9, r10, fp, pc}
 798              	.LVL73:
ARM GAS  /tmp/ccmHtIkH.s 			page 15


 799              	.L57:
 800              		.cfi_restore_state
 801              	.LBB131:
 802              		.loc 1 84 0
 803 00f0 1CAC     		add	r4, sp, #112
 804 00f2 0323     		movs	r3, #3
 805 00f4 04F8703D 		strb	r3, [r4, #-112]!
 806              		.loc 1 85 0
 807 00f8 0146     		mov	r1, r0
 808              	.LVL74:
 809 00fa 4A46     		mov	r2, r9
 810 00fc 0DF10100 		add	r0, sp, #1
 811              	.LVL75:
 812 0100 FFF7FEFF 		bl	memcpy
 813              	.LVL76:
 814              		.loc 1 86 0
 815 0104 09F10101 		add	r1, r9, #1
 816              	.LVL77:
 817              		.loc 1 87 0
 818 0108 2046     		mov	r0, r4
 819 010a C9B2     		uxtb	r1, r1
 820              	.LVL78:
 821 010c FFF7FEFF 		bl	comm_cc2520_send_packet
 822              	.LVL79:
 823              	.LBE131:
 824              		.loc 1 141 0
 825 0110 1DB0     		add	sp, sp, #116
 826              		.cfi_remember_state
 827              		.cfi_def_cfa_offset 36
 828              		@ sp needed
 829 0112 BDE8F08F 		pop	{r4, r5, r6, r7, r8, r9, r10, fp, pc}
 830              	.LVL80:
 831              	.L48:
 832              		.cfi_restore_state
 833 0116 B21E     		subs	r2, r6, #2
 834              	.LBB132:
 835              	.LBB130:
 836              	.LBB126:
 837              		.loc 1 107 0
 838 0118 4146     		mov	r1, r8
 839 011a D2B2     		uxtb	r2, r2
 840 011c 0DF10200 		add	r0, sp, #2
 841 0120 FFF7FEFF 		bl	memcpy
 842              	.LVL81:
 843 0124 3146     		mov	r1, r6
 844 0126 8BE7     		b	.L49
 845              	.LBE126:
 846              	.LBE130:
 847              	.LBE132:
 848              		.cfi_endproc
 849              	.LFE257:
 850              		.size	comm_cc2520_send_buffer, .-comm_cc2520_send_buffer
 851              		.section	.bss.tx_buffer,"aw",%nobits
 852              		.align	2
 853              		.set	.LANCHOR1,. + 0
 854              		.type	tx_buffer, %object
 855              		.size	tx_buffer, 1300
ARM GAS  /tmp/ccmHtIkH.s 			page 16


 856              	tx_buffer:
 857 0000 00000000 		.space	1300
 857      00000000 
 857      00000000 
 857      00000000 
 857      00000000 
 858              		.section	.bss.rx_buffer,"aw",%nobits
 859              		.align	2
 860              		.set	.LANCHOR6,. + 0
 861              		.type	rx_buffer, %object
 862              		.size	rx_buffer, 1024
 863              	rx_buffer:
 864 0000 00000000 		.space	1024
 864      00000000 
 864      00000000 
 864      00000000 
 864      00000000 
 865              		.section	.bss.tx_tp,"aw",%nobits
 866              		.align	2
 867              		.set	.LANCHOR0,. + 0
 868              		.type	tx_tp, %object
 869              		.size	tx_tp, 4
 870              	tx_tp:
 871 0000 00000000 		.space	4
 872              		.section	.bss.tx_slot_write,"aw",%nobits
 873              		.align	2
 874              		.set	.LANCHOR4,. + 0
 875              		.type	tx_slot_write, %object
 876              		.size	tx_slot_write, 4
 877              	tx_slot_write:
 878 0000 00000000 		.space	4
 879              		.section	.bss.tx_slot_len,"aw",%nobits
 880              		.align	2
 881              		.set	.LANCHOR2,. + 0
 882              		.type	tx_slot_len, %object
 883              		.size	tx_slot_len, 10
 884              	tx_slot_len:
 885 0000 00000000 		.space	10
 885      00000000 
 885      0000
 886              		.section	.rodata.str1.4,"aMS",%progbits,1
 887              		.align	2
 888              	.LC0:
 889 0000 43433235 		.ascii	"CC2520 Tx\000"
 889      32302054 
 889      7800
 890 000a 0000     		.space	2
 891              	.LC1:
 892 000c 43433235 		.ascii	"CC2520 RX\000"
 892      32302052 
 892      5800
 893              		.section	.bss.buf.8608,"aw",%nobits
 894              		.align	2
 895              		.set	.LANCHOR5,. + 0
 896              		.type	buf.8608, %object
 897              		.size	buf.8608, 130
 898              	buf.8608:
ARM GAS  /tmp/ccmHtIkH.s 			page 17


 899 0000 00000000 		.space	130
 899      00000000 
 899      00000000 
 899      00000000 
 899      00000000 
 900              		.section	.bss.vt,"aw",%nobits
 901              		.align	2
 902              		.set	.LANCHOR10,. + 0
 903              		.type	vt, %object
 904              		.size	vt, 20
 905              	vt:
 906 0000 00000000 		.space	20
 906      00000000 
 906      00000000 
 906      00000000 
 906      00000000 
 907              		.section	.bss.rx_thread_wa,"aw",%nobits
 908              		.align	3
 909              		.set	.LANCHOR8,. + 0
 910              		.type	rx_thread_wa, %object
 911              		.size	rx_thread_wa, 2456
 912              	rx_thread_wa:
 913 0000 00000000 		.space	2456
 913      00000000 
 913      00000000 
 913      00000000 
 913      00000000 
 914              		.section	.bss.basicRfConfig,"aw",%nobits
 915              		.align	2
 916              		.set	.LANCHOR7,. + 0
 917              		.type	basicRfConfig, %object
 918              		.size	basicRfConfig, 6
 919              	basicRfConfig:
 920 0000 00000000 		.space	6
 920      0000
 921              		.section	.bss.tx_slot_read,"aw",%nobits
 922              		.align	2
 923              		.set	.LANCHOR3,. + 0
 924              		.type	tx_slot_read, %object
 925              		.size	tx_slot_read, 4
 926              	tx_slot_read:
 927 0000 00000000 		.space	4
 928              		.section	.bss.tx_thread_wa,"aw",%nobits
 929              		.align	3
 930              		.set	.LANCHOR9,. + 0
 931              		.type	tx_thread_wa, %object
 932              		.size	tx_thread_wa, 920
 933              	tx_thread_wa:
 934 0000 00000000 		.space	920
 934      00000000 
 934      00000000 
 934      00000000 
 934      00000000 
 935              		.text
 936              	.Letext0:
 937              		.file 5 "/usr/arm-none-eabi/include/machine/_default_types.h"
 938              		.file 6 "/usr/arm-none-eabi/include/sys/_stdint.h"
ARM GAS  /tmp/ccmHtIkH.s 			page 18


 939              		.file 7 "datatypes.h"
 940              		.file 8 "/usr/lib/gcc/arm-none-eabi/4.9.3/include/stddef.h"
 941              		.file 9 "ChibiOS_3.0.2/os/rt/ports/ARMCMx/compilers/GCC/chtypes.h"
 942              		.file 10 "ChibiOS_3.0.2/os/rt/include/chsystypes.h"
 943              		.file 11 "ChibiOS_3.0.2/os/rt/include/chschd.h"
 944              		.file 12 "ChibiOS_3.0.2/os/rt/ports/ARMCMx/chcore.h"
 945              		.file 13 "ChibiOS_3.0.2/os/rt/ports/ARMCMx/chcore_v7m.h"
 946              		.file 14 "ChibiOS_3.0.2/os/rt/include/chtm.h"
 947              		.file 15 "ChibiOS_3.0.2/os/rt/include/chsem.h"
 948              		.file 16 "ChibiOS_3.0.2/os/rt/include/chmtx.h"
 949              		.file 17 "ChibiOS_3.0.2/os/rt/include/chthreads.h"
 950              		.file 18 "cc2520/driver/hal_types.h"
 951              		.file 19 "cc2520/basicrf/basic_rf.h"
 952              		.file 20 "ChibiOS_3.0.2/os/rt/include/chsys.h"
 953              		.file 21 "ChibiOS_3.0.2/os/rt/include/chevents.h"
 954              		.file 22 "crc.h"
 955              		.file 23 "led.h"
 956              		.file 24 "commands.h"
 957              		.file 25 "cc2520/driver/stm32_hw.h"
 958              		.file 26 "ChibiOS_3.0.2/os/ext/CMSIS/include/core_cm4.h"