ARM GAS  /tmp/ccq5Y1v0.s 			page 1


   1              		.syntax unified
   2              		.cpu cortex-m4
   3              		.eabi_attribute 27, 1
   4              		.eabi_attribute 28, 1
   5              		.fpu fpv4-sp-d16
   6              		.eabi_attribute 20, 1
   7              		.eabi_attribute 21, 1
   8              		.eabi_attribute 23, 3
   9              		.eabi_attribute 24, 1
  10              		.eabi_attribute 25, 1
  11              		.eabi_attribute 26, 1
  12              		.eabi_attribute 30, 2
  13              		.eabi_attribute 34, 1
  14              		.eabi_attribute 18, 4
  15              		.thumb
  16              		.file	"ext.c"
  17              		.text
  18              	.Ltext0:
  19              		.cfi_sections	.debug_frame
  20              		.section	.text.extInit,"ax",%progbits
  21              		.align	2
  22              		.p2align 4,,15
  23              		.global	extInit
  24              		.thumb
  25              		.thumb_func
  26              		.type	extInit, %function
  27              	extInit:
  28              	.LFB256:
  29              		.file 1 "ChibiOS_3.0.2/os/hal/src/ext.c"
  30              		.loc 1 56 0
  31              		.cfi_startproc
  32              		@ args = 0, pretend = 0, frame = 0
  33              		@ frame_needed = 0, uses_anonymous_args = 0
  34              		@ link register save eliminated.
  35              		.loc 1 58 0
  36 0000 FFF7FEBF 		b	ext_lld_init
  37              	.LVL0:
  38              		.cfi_endproc
  39              	.LFE256:
  40              		.size	extInit, .-extInit
  41              		.section	.text.extObjectInit,"ax",%progbits
  42              		.align	2
  43              		.p2align 4,,15
  44              		.global	extObjectInit
  45              		.thumb
  46              		.thumb_func
  47              		.type	extObjectInit, %function
  48              	extObjectInit:
  49              	.LFB257:
  50              		.loc 1 68 0
  51              		.cfi_startproc
  52              		@ args = 0, pretend = 0, frame = 0
  53              		@ frame_needed = 0, uses_anonymous_args = 0
  54              		@ link register save eliminated.
  55              	.LVL1:
  56              		.loc 1 70 0
  57 0000 0122     		movs	r2, #1
ARM GAS  /tmp/ccq5Y1v0.s 			page 2


  58              		.loc 1 71 0
  59 0002 0023     		movs	r3, #0
  60              		.loc 1 70 0
  61 0004 0270     		strb	r2, [r0]
  62              		.loc 1 71 0
  63 0006 4360     		str	r3, [r0, #4]
  64 0008 7047     		bx	lr
  65              		.cfi_endproc
  66              	.LFE257:
  67              		.size	extObjectInit, .-extObjectInit
  68 000a 00BF     		.section	.text.extStart,"ax",%progbits
  69              		.align	2
  70              		.p2align 4,,15
  71              		.global	extStart
  72              		.thumb
  73              		.thumb_func
  74              		.type	extStart, %function
  75              	extStart:
  76              	.LFB258:
  77              		.loc 1 84 0
  78              		.cfi_startproc
  79              		@ args = 0, pretend = 0, frame = 0
  80              		@ frame_needed = 0, uses_anonymous_args = 0
  81              	.LVL2:
  82 0000 10B5     		push	{r4, lr}
  83              		.cfi_def_cfa_offset 8
  84              		.cfi_offset 4, -8
  85              		.cfi_offset 14, -4
  86              		.loc 1 84 0
  87 0002 0446     		mov	r4, r0
  88              	.LBB76:
  89              	.LBB77:
  90              	.LBB78:
  91              	.LBB79:
  92              	.LBB80:
  93              		.file 2 "ChibiOS_3.0.2/os/ext/CMSIS/include/core_cmFunc.h"
  94              		.loc 2 342 0
  95              	@ 342 "ChibiOS_3.0.2/os/ext/CMSIS/include/core_cmFunc.h" 1
  96 0004 72B6     		cpsid i
  97              	@ 0 "" 2
  98              		.thumb
  99              	.LBE80:
 100              	.LBE79:
 101              	.LBE78:
 102              	.LBE77:
 103              	.LBE76:
 104              		.loc 1 91 0
 105 0006 4160     		str	r1, [r0, #4]
 106              		.loc 1 92 0
 107 0008 FFF7FEFF 		bl	ext_lld_start
 108              	.LVL3:
 109              		.loc 1 93 0
 110 000c 0223     		movs	r3, #2
 111 000e 2370     		strb	r3, [r4]
 112              	.LBB81:
 113              	.LBB82:
 114              	.LBB83:
ARM GAS  /tmp/ccq5Y1v0.s 			page 3


 115              	.LBB84:
 116              	.LBB85:
 117              	.LBB86:
 118              		.loc 2 331 0
 119              	@ 331 "ChibiOS_3.0.2/os/ext/CMSIS/include/core_cmFunc.h" 1
 120 0010 62B6     		cpsie i
 121              	@ 0 "" 2
 122              		.thumb
 123 0012 10BD     		pop	{r4, pc}
 124              	.LBE86:
 125              	.LBE85:
 126              	.LBE84:
 127              	.LBE83:
 128              	.LBE82:
 129              	.LBE81:
 130              		.cfi_endproc
 131              	.LFE258:
 132              		.size	extStart, .-extStart
 133              		.section	.text.extStop,"ax",%progbits
 134              		.align	2
 135              		.p2align 4,,15
 136              		.global	extStop
 137              		.thumb
 138              		.thumb_func
 139              		.type	extStop, %function
 140              	extStop:
 141              	.LFB259:
 142              		.loc 1 104 0
 143              		.cfi_startproc
 144              		@ args = 0, pretend = 0, frame = 0
 145              		@ frame_needed = 0, uses_anonymous_args = 0
 146              	.LVL4:
 147 0000 10B5     		push	{r4, lr}
 148              		.cfi_def_cfa_offset 8
 149              		.cfi_offset 4, -8
 150              		.cfi_offset 14, -4
 151              		.loc 1 104 0
 152 0002 0446     		mov	r4, r0
 153              	.LBB87:
 154              	.LBB88:
 155              	.LBB89:
 156              	.LBB90:
 157              	.LBB91:
 158              		.loc 2 342 0
 159              	@ 342 "ChibiOS_3.0.2/os/ext/CMSIS/include/core_cmFunc.h" 1
 160 0004 72B6     		cpsid i
 161              	@ 0 "" 2
 162              		.thumb
 163              	.LBE91:
 164              	.LBE90:
 165              	.LBE89:
 166              	.LBE88:
 167              	.LBE87:
 168              		.loc 1 111 0
 169 0006 FFF7FEFF 		bl	ext_lld_stop
 170              	.LVL5:
 171              		.loc 1 112 0
ARM GAS  /tmp/ccq5Y1v0.s 			page 4


 172 000a 0123     		movs	r3, #1
 173 000c 2370     		strb	r3, [r4]
 174              	.LBB92:
 175              	.LBB93:
 176              	.LBB94:
 177              	.LBB95:
 178              	.LBB96:
 179              	.LBB97:
 180              		.loc 2 331 0
 181              	@ 331 "ChibiOS_3.0.2/os/ext/CMSIS/include/core_cmFunc.h" 1
 182 000e 62B6     		cpsie i
 183              	@ 0 "" 2
 184              		.thumb
 185 0010 10BD     		pop	{r4, pc}
 186              	.LBE97:
 187              	.LBE96:
 188              	.LBE95:
 189              	.LBE94:
 190              	.LBE93:
 191              	.LBE92:
 192              		.cfi_endproc
 193              	.LFE259:
 194              		.size	extStop, .-extStop
 195 0012 00BF     		.section	.text.extChannelEnable,"ax",%progbits
 196              		.align	2
 197              		.p2align 4,,15
 198              		.global	extChannelEnable
 199              		.thumb
 200              		.thumb_func
 201              		.type	extChannelEnable, %function
 202              	extChannelEnable:
 203              	.LFB260:
 204              		.loc 1 125 0
 205              		.cfi_startproc
 206              		@ args = 0, pretend = 0, frame = 0
 207              		@ frame_needed = 0, uses_anonymous_args = 0
 208              	.LVL6:
 209 0000 08B5     		push	{r3, lr}
 210              		.cfi_def_cfa_offset 8
 211              		.cfi_offset 3, -8
 212              		.cfi_offset 14, -4
 213              	.LBB98:
 214              	.LBB99:
 215              	.LBB100:
 216              	.LBB101:
 217              	.LBB102:
 218              		.loc 2 342 0
 219              	@ 342 "ChibiOS_3.0.2/os/ext/CMSIS/include/core_cmFunc.h" 1
 220 0002 72B6     		cpsid i
 221              	@ 0 "" 2
 222              		.thumb
 223              	.LBE102:
 224              	.LBE101:
 225              	.LBE100:
 226              	.LBE99:
 227              	.LBE98:
 228              		.loc 1 134 0
ARM GAS  /tmp/ccq5Y1v0.s 			page 5


 229 0004 FFF7FEFF 		bl	ext_lld_channel_enable
 230              	.LVL7:
 231              	.LBB103:
 232              	.LBB104:
 233              	.LBB105:
 234              	.LBB106:
 235              	.LBB107:
 236              	.LBB108:
 237              		.loc 2 331 0
 238              	@ 331 "ChibiOS_3.0.2/os/ext/CMSIS/include/core_cmFunc.h" 1
 239 0008 62B6     		cpsie i
 240              	@ 0 "" 2
 241              		.thumb
 242 000a 08BD     		pop	{r3, pc}
 243              	.LBE108:
 244              	.LBE107:
 245              	.LBE106:
 246              	.LBE105:
 247              	.LBE104:
 248              	.LBE103:
 249              		.cfi_endproc
 250              	.LFE260:
 251              		.size	extChannelEnable, .-extChannelEnable
 252              		.section	.text.extChannelDisable,"ax",%progbits
 253              		.align	2
 254              		.p2align 4,,15
 255              		.global	extChannelDisable
 256              		.thumb
 257              		.thumb_func
 258              		.type	extChannelDisable, %function
 259              	extChannelDisable:
 260              	.LFB261:
 261              		.loc 1 147 0
 262              		.cfi_startproc
 263              		@ args = 0, pretend = 0, frame = 0
 264              		@ frame_needed = 0, uses_anonymous_args = 0
 265              	.LVL8:
 266 0000 08B5     		push	{r3, lr}
 267              		.cfi_def_cfa_offset 8
 268              		.cfi_offset 3, -8
 269              		.cfi_offset 14, -4
 270              	.LBB109:
 271              	.LBB110:
 272              	.LBB111:
 273              	.LBB112:
 274              	.LBB113:
 275              		.loc 2 342 0
 276              	@ 342 "ChibiOS_3.0.2/os/ext/CMSIS/include/core_cmFunc.h" 1
 277 0002 72B6     		cpsid i
 278              	@ 0 "" 2
 279              		.thumb
 280              	.LBE113:
 281              	.LBE112:
 282              	.LBE111:
 283              	.LBE110:
 284              	.LBE109:
 285              		.loc 1 156 0
ARM GAS  /tmp/ccq5Y1v0.s 			page 6


 286 0004 FFF7FEFF 		bl	ext_lld_channel_disable
 287              	.LVL9:
 288              	.LBB114:
 289              	.LBB115:
 290              	.LBB116:
 291              	.LBB117:
 292              	.LBB118:
 293              	.LBB119:
 294              		.loc 2 331 0
 295              	@ 331 "ChibiOS_3.0.2/os/ext/CMSIS/include/core_cmFunc.h" 1
 296 0008 62B6     		cpsie i
 297              	@ 0 "" 2
 298              		.thumb
 299 000a 08BD     		pop	{r3, pc}
 300              	.LBE119:
 301              	.LBE118:
 302              	.LBE117:
 303              	.LBE116:
 304              	.LBE115:
 305              	.LBE114:
 306              		.cfi_endproc
 307              	.LFE261:
 308              		.size	extChannelDisable, .-extChannelDisable
 309              		.section	.text.extSetChannelModeI,"ax",%progbits
 310              		.align	2
 311              		.p2align 4,,15
 312              		.global	extSetChannelModeI
 313              		.thumb
 314              		.thumb_func
 315              		.type	extSetChannelModeI, %function
 316              	extSetChannelModeI:
 317              	.LFB262:
 318              		.loc 1 179 0
 319              		.cfi_startproc
 320              		@ args = 0, pretend = 0, frame = 0
 321              		@ frame_needed = 0, uses_anonymous_args = 0
 322              		@ link register save eliminated.
 323              	.LVL10:
 324 0000 30B4     		push	{r4, r5}
 325              		.cfi_def_cfa_offset 8
 326              		.cfi_offset 4, -8
 327              		.cfi_offset 5, -4
 328              		.loc 1 196 0
 329 0002 4368     		ldr	r3, [r0, #4]
 330              		.loc 1 179 0
 331 0004 0C46     		mov	r4, r1
 332              	.LVL11:
 333 0006 0546     		mov	r5, r0
 334              		.loc 1 196 0
 335 0008 92E80300 		ldmia	r2, {r0, r1}
 336              	.LVL12:
 337 000c 03EBC403 		add	r3, r3, r4, lsl #3
 338              	.LVL13:
 339 0010 83E80300 		stmia	r3, {r0, r1}
 340              		.loc 1 197 0
 341 0014 2846     		mov	r0, r5
 342 0016 2146     		mov	r1, r4
ARM GAS  /tmp/ccq5Y1v0.s 			page 7


 343              		.loc 1 198 0
 344 0018 30BC     		pop	{r4, r5}
 345              		.cfi_restore 5
 346              		.cfi_restore 4
 347              		.cfi_def_cfa_offset 0
 348              	.LVL14:
 349              		.loc 1 197 0
 350 001a FFF7FEBF 		b	ext_lld_channel_enable
 351              	.LVL15:
 352              		.cfi_endproc
 353              	.LFE262:
 354              		.size	extSetChannelModeI, .-extSetChannelModeI
 355 001e 00BF     		.text
 356              	.Letext0:
 357              		.file 3 "/usr/arm-none-eabi/include/machine/_default_types.h"
 358              		.file 4 "/usr/arm-none-eabi/include/sys/_stdint.h"
 359              		.file 5 "ChibiOS_3.0.2/os/rt/ports/ARMCMx/compilers/GCC/chtypes.h"
 360              		.file 6 "ChibiOS_3.0.2/os/rt/include/chsystypes.h"
 361              		.file 7 "ChibiOS_3.0.2/os/rt/include/chschd.h"
 362              		.file 8 "ChibiOS_3.0.2/os/rt/ports/ARMCMx/chcore.h"
 363              		.file 9 "ChibiOS_3.0.2/os/rt/ports/ARMCMx/chcore_v7m.h"
 364              		.file 10 "ChibiOS_3.0.2/os/rt/include/chtm.h"
 365              		.file 11 "ChibiOS_3.0.2/os/rt/include/chsem.h"
 366              		.file 12 "ChibiOS_3.0.2/os/rt/include/chmtx.h"
 367              		.file 13 "ChibiOS_3.0.2/os/hal/include/ext.h"
 368              		.file 14 "ChibiOS_3.0.2/os/hal/ports/STM32/LLD/ext_lld.h"
 369              		.file 15 "ChibiOS_3.0.2/os/rt/include/chsys.h"
 370              		.file 16 "ChibiOS_3.0.2/os/hal/osal/rt/osal.h"
 371              		.file 17 "ChibiOS_3.0.2/os/ext/CMSIS/include/core_cm4.h"