ARM GAS  /tmp/ccmGO9T8.s 			page 1


   1              		.syntax unified
   2              		.cpu cortex-m4
   3              		.eabi_attribute 27, 1
   4              		.eabi_attribute 28, 1
   5              		.fpu fpv4-sp-d16
   6              		.eabi_attribute 20, 1
   7              		.eabi_attribute 21, 1
   8              		.eabi_attribute 23, 3
   9              		.eabi_attribute 24, 1
  10              		.eabi_attribute 25, 1
  11              		.eabi_attribute 26, 1
  12              		.eabi_attribute 30, 2
  13              		.eabi_attribute 34, 1
  14              		.eabi_attribute 18, 4
  15              		.thumb
  16              		.file	"ext_lld_isr.c"
  17              		.text
  18              	.Ltext0:
  19              		.cfi_sections	.debug_frame
  20              		.section	.text.Vector58,"ax",%progbits
  21              		.align	2
  22              		.p2align 4,,15
  23              		.global	Vector58
  24              		.thumb
  25              		.thumb_func
  26              		.type	Vector58, %function
  27              	Vector58:
  28              	.LFB256:
  29              		.file 1 "ChibiOS_3.0.2/os/hal/ports/STM32/STM32F4xx/ext_lld_isr.c"
  30              		.loc 1 56 0
  31              		.cfi_startproc
  32              		@ args = 0, pretend = 0, frame = 0
  33              		@ frame_needed = 0, uses_anonymous_args = 0
  34 0000 08B5     		push	{r3, lr}
  35              		.cfi_def_cfa_offset 8
  36              		.cfi_offset 3, -8
  37              		.cfi_offset 14, -4
  38              		.loc 1 61 0
  39 0002 0648     		ldr	r0, .L3
  40              		.loc 1 60 0
  41 0004 064A     		ldr	r2, .L3+4
  42              		.loc 1 61 0
  43 0006 4368     		ldr	r3, [r0, #4]
  44              		.loc 1 60 0
  45 0008 0121     		movs	r1, #1
  46              		.loc 1 61 0
  47 000a 5B68     		ldr	r3, [r3, #4]
  48              		.loc 1 60 0
  49 000c 5161     		str	r1, [r2, #20]
  50              		.loc 1 61 0
  51 000e 0021     		movs	r1, #0
  52 0010 9847     		blx	r3
  53              	.LVL0:
  54              		.loc 1 64 0
  55 0012 BDE80840 		pop	{r3, lr}
  56              		.cfi_restore 14
  57              		.cfi_restore 3
ARM GAS  /tmp/ccmGO9T8.s 			page 2


  58              		.cfi_def_cfa_offset 0
  59              		.loc 1 63 0
  60 0016 FFF7FEBF 		b	_port_irq_epilogue
  61              	.LVL1:
  62              	.L4:
  63 001a 00BF     		.align	2
  64              	.L3:
  65 001c 00000000 		.word	EXTD1
  66 0020 003C0140 		.word	1073822720
  67              		.cfi_endproc
  68              	.LFE256:
  69              		.size	Vector58, .-Vector58
  70              		.section	.text.Vector5C,"ax",%progbits
  71              		.align	2
  72              		.p2align 4,,15
  73              		.global	Vector5C
  74              		.thumb
  75              		.thumb_func
  76              		.type	Vector5C, %function
  77              	Vector5C:
  78              	.LFB257:
  79              		.loc 1 71 0
  80              		.cfi_startproc
  81              		@ args = 0, pretend = 0, frame = 0
  82              		@ frame_needed = 0, uses_anonymous_args = 0
  83 0000 08B5     		push	{r3, lr}
  84              		.cfi_def_cfa_offset 8
  85              		.cfi_offset 3, -8
  86              		.cfi_offset 14, -4
  87              		.loc 1 76 0
  88 0002 0648     		ldr	r0, .L7
  89              		.loc 1 75 0
  90 0004 064A     		ldr	r2, .L7+4
  91              		.loc 1 76 0
  92 0006 4368     		ldr	r3, [r0, #4]
  93              		.loc 1 75 0
  94 0008 0221     		movs	r1, #2
  95              		.loc 1 76 0
  96 000a DB68     		ldr	r3, [r3, #12]
  97              		.loc 1 75 0
  98 000c 5161     		str	r1, [r2, #20]
  99              		.loc 1 76 0
 100 000e 0121     		movs	r1, #1
 101 0010 9847     		blx	r3
 102              	.LVL2:
 103              		.loc 1 79 0
 104 0012 BDE80840 		pop	{r3, lr}
 105              		.cfi_restore 14
 106              		.cfi_restore 3
 107              		.cfi_def_cfa_offset 0
 108              		.loc 1 78 0
 109 0016 FFF7FEBF 		b	_port_irq_epilogue
 110              	.LVL3:
 111              	.L8:
 112 001a 00BF     		.align	2
 113              	.L7:
 114 001c 00000000 		.word	EXTD1
ARM GAS  /tmp/ccmGO9T8.s 			page 3


 115 0020 003C0140 		.word	1073822720
 116              		.cfi_endproc
 117              	.LFE257:
 118              		.size	Vector5C, .-Vector5C
 119              		.section	.text.Vector60,"ax",%progbits
 120              		.align	2
 121              		.p2align 4,,15
 122              		.global	Vector60
 123              		.thumb
 124              		.thumb_func
 125              		.type	Vector60, %function
 126              	Vector60:
 127              	.LFB258:
 128              		.loc 1 86 0
 129              		.cfi_startproc
 130              		@ args = 0, pretend = 0, frame = 0
 131              		@ frame_needed = 0, uses_anonymous_args = 0
 132 0000 08B5     		push	{r3, lr}
 133              		.cfi_def_cfa_offset 8
 134              		.cfi_offset 3, -8
 135              		.cfi_offset 14, -4
 136              		.loc 1 91 0
 137 0002 0648     		ldr	r0, .L11
 138              		.loc 1 90 0
 139 0004 064A     		ldr	r2, .L11+4
 140              		.loc 1 91 0
 141 0006 4368     		ldr	r3, [r0, #4]
 142              		.loc 1 90 0
 143 0008 0421     		movs	r1, #4
 144              		.loc 1 91 0
 145 000a 5B69     		ldr	r3, [r3, #20]
 146              		.loc 1 90 0
 147 000c 5161     		str	r1, [r2, #20]
 148              		.loc 1 91 0
 149 000e 0221     		movs	r1, #2
 150 0010 9847     		blx	r3
 151              	.LVL4:
 152              		.loc 1 94 0
 153 0012 BDE80840 		pop	{r3, lr}
 154              		.cfi_restore 14
 155              		.cfi_restore 3
 156              		.cfi_def_cfa_offset 0
 157              		.loc 1 93 0
 158 0016 FFF7FEBF 		b	_port_irq_epilogue
 159              	.LVL5:
 160              	.L12:
 161 001a 00BF     		.align	2
 162              	.L11:
 163 001c 00000000 		.word	EXTD1
 164 0020 003C0140 		.word	1073822720
 165              		.cfi_endproc
 166              	.LFE258:
 167              		.size	Vector60, .-Vector60
 168              		.section	.text.Vector64,"ax",%progbits
 169              		.align	2
 170              		.p2align 4,,15
 171              		.global	Vector64
ARM GAS  /tmp/ccmGO9T8.s 			page 4


 172              		.thumb
 173              		.thumb_func
 174              		.type	Vector64, %function
 175              	Vector64:
 176              	.LFB259:
 177              		.loc 1 101 0
 178              		.cfi_startproc
 179              		@ args = 0, pretend = 0, frame = 0
 180              		@ frame_needed = 0, uses_anonymous_args = 0
 181 0000 08B5     		push	{r3, lr}
 182              		.cfi_def_cfa_offset 8
 183              		.cfi_offset 3, -8
 184              		.cfi_offset 14, -4
 185              		.loc 1 106 0
 186 0002 0648     		ldr	r0, .L15
 187              		.loc 1 105 0
 188 0004 064A     		ldr	r2, .L15+4
 189              		.loc 1 106 0
 190 0006 4368     		ldr	r3, [r0, #4]
 191              		.loc 1 105 0
 192 0008 0821     		movs	r1, #8
 193              		.loc 1 106 0
 194 000a DB69     		ldr	r3, [r3, #28]
 195              		.loc 1 105 0
 196 000c 5161     		str	r1, [r2, #20]
 197              		.loc 1 106 0
 198 000e 0321     		movs	r1, #3
 199 0010 9847     		blx	r3
 200              	.LVL6:
 201              		.loc 1 109 0
 202 0012 BDE80840 		pop	{r3, lr}
 203              		.cfi_restore 14
 204              		.cfi_restore 3
 205              		.cfi_def_cfa_offset 0
 206              		.loc 1 108 0
 207 0016 FFF7FEBF 		b	_port_irq_epilogue
 208              	.LVL7:
 209              	.L16:
 210 001a 00BF     		.align	2
 211              	.L15:
 212 001c 00000000 		.word	EXTD1
 213 0020 003C0140 		.word	1073822720
 214              		.cfi_endproc
 215              	.LFE259:
 216              		.size	Vector64, .-Vector64
 217              		.section	.text.Vector68,"ax",%progbits
 218              		.align	2
 219              		.p2align 4,,15
 220              		.global	Vector68
 221              		.thumb
 222              		.thumb_func
 223              		.type	Vector68, %function
 224              	Vector68:
 225              	.LFB260:
 226              		.loc 1 116 0
 227              		.cfi_startproc
 228              		@ args = 0, pretend = 0, frame = 0
ARM GAS  /tmp/ccmGO9T8.s 			page 5


 229              		@ frame_needed = 0, uses_anonymous_args = 0
 230 0000 08B5     		push	{r3, lr}
 231              		.cfi_def_cfa_offset 8
 232              		.cfi_offset 3, -8
 233              		.cfi_offset 14, -4
 234              		.loc 1 121 0
 235 0002 0648     		ldr	r0, .L19
 236              		.loc 1 120 0
 237 0004 064A     		ldr	r2, .L19+4
 238              		.loc 1 121 0
 239 0006 4368     		ldr	r3, [r0, #4]
 240              		.loc 1 120 0
 241 0008 1021     		movs	r1, #16
 242              		.loc 1 121 0
 243 000a 5B6A     		ldr	r3, [r3, #36]
 244              		.loc 1 120 0
 245 000c 5161     		str	r1, [r2, #20]
 246              		.loc 1 121 0
 247 000e 0421     		movs	r1, #4
 248 0010 9847     		blx	r3
 249              	.LVL8:
 250              		.loc 1 124 0
 251 0012 BDE80840 		pop	{r3, lr}
 252              		.cfi_restore 14
 253              		.cfi_restore 3
 254              		.cfi_def_cfa_offset 0
 255              		.loc 1 123 0
 256 0016 FFF7FEBF 		b	_port_irq_epilogue
 257              	.LVL9:
 258              	.L20:
 259 001a 00BF     		.align	2
 260              	.L19:
 261 001c 00000000 		.word	EXTD1
 262 0020 003C0140 		.word	1073822720
 263              		.cfi_endproc
 264              	.LFE260:
 265              		.size	Vector68, .-Vector68
 266              		.section	.text.Vector9C,"ax",%progbits
 267              		.align	2
 268              		.p2align 4,,15
 269              		.global	Vector9C
 270              		.thumb
 271              		.thumb_func
 272              		.type	Vector9C, %function
 273              	Vector9C:
 274              	.LFB261:
 275              		.loc 1 131 0
 276              		.cfi_startproc
 277              		@ args = 0, pretend = 0, frame = 0
 278              		@ frame_needed = 0, uses_anonymous_args = 0
 279              		.loc 1 136 0
 280 0000 184B     		ldr	r3, .L48
 281              		.loc 1 131 0
 282 0002 10B5     		push	{r4, lr}
 283              		.cfi_def_cfa_offset 8
 284              		.cfi_offset 4, -8
 285              		.cfi_offset 14, -4
ARM GAS  /tmp/ccmGO9T8.s 			page 6


 286              		.loc 1 136 0
 287 0004 5C69     		ldr	r4, [r3, #20]
 288 0006 04F47872 		and	r2, r4, #992
 289              	.LVL10:
 290              		.loc 1 137 0
 291 000a 5A61     		str	r2, [r3, #20]
 292              		.loc 1 138 0
 293 000c A306     		lsls	r3, r4, #26
 294 000e 22D4     		bmi	.L44
 295              	.LVL11:
 296              	.L22:
 297              		.loc 1 140 0
 298 0010 6006     		lsls	r0, r4, #25
 299 0012 1AD4     		bmi	.L45
 300              	.L23:
 301              		.loc 1 142 0
 302 0014 2106     		lsls	r1, r4, #24
 303 0016 12D4     		bmi	.L46
 304              	.L24:
 305              		.loc 1 144 0
 306 0018 E205     		lsls	r2, r4, #23
 307 001a 0AD4     		bmi	.L47
 308              	.L25:
 309              		.loc 1 146 0
 310 001c A305     		lsls	r3, r4, #22
 311 001e 04D5     		bpl	.L26
 312              		.loc 1 147 0
 313 0020 1148     		ldr	r0, .L48+4
 314 0022 4368     		ldr	r3, [r0, #4]
 315 0024 0921     		movs	r1, #9
 316 0026 DB6C     		ldr	r3, [r3, #76]
 317 0028 9847     		blx	r3
 318              	.LVL12:
 319              	.L26:
 320              		.loc 1 150 0
 321 002a BDE81040 		pop	{r4, lr}
 322              		.cfi_remember_state
 323              		.cfi_restore 14
 324              		.cfi_restore 4
 325              		.cfi_def_cfa_offset 0
 326              	.LVL13:
 327              		.loc 1 149 0
 328 002e FFF7FEBF 		b	_port_irq_epilogue
 329              	.LVL14:
 330              	.L47:
 331              		.cfi_restore_state
 332              		.loc 1 145 0
 333 0032 0D48     		ldr	r0, .L48+4
 334 0034 4368     		ldr	r3, [r0, #4]
 335 0036 0821     		movs	r1, #8
 336 0038 5B6C     		ldr	r3, [r3, #68]
 337 003a 9847     		blx	r3
 338              	.LVL15:
 339 003c EEE7     		b	.L25
 340              	.L46:
 341              		.loc 1 143 0
 342 003e 0A48     		ldr	r0, .L48+4
ARM GAS  /tmp/ccmGO9T8.s 			page 7


 343 0040 4368     		ldr	r3, [r0, #4]
 344 0042 0721     		movs	r1, #7
 345 0044 DB6B     		ldr	r3, [r3, #60]
 346 0046 9847     		blx	r3
 347              	.LVL16:
 348 0048 E6E7     		b	.L24
 349              	.L45:
 350              		.loc 1 141 0
 351 004a 0748     		ldr	r0, .L48+4
 352 004c 4368     		ldr	r3, [r0, #4]
 353 004e 0621     		movs	r1, #6
 354 0050 5B6B     		ldr	r3, [r3, #52]
 355 0052 9847     		blx	r3
 356              	.LVL17:
 357 0054 DEE7     		b	.L23
 358              	.LVL18:
 359              	.L44:
 360              		.loc 1 139 0
 361 0056 0448     		ldr	r0, .L48+4
 362 0058 4368     		ldr	r3, [r0, #4]
 363 005a 0521     		movs	r1, #5
 364 005c DB6A     		ldr	r3, [r3, #44]
 365 005e 9847     		blx	r3
 366              	.LVL19:
 367 0060 D6E7     		b	.L22
 368              	.L49:
 369 0062 00BF     		.align	2
 370              	.L48:
 371 0064 003C0140 		.word	1073822720
 372 0068 00000000 		.word	EXTD1
 373              		.cfi_endproc
 374              	.LFE261:
 375              		.size	Vector9C, .-Vector9C
 376              		.section	.text.VectorE0,"ax",%progbits
 377              		.align	2
 378              		.p2align 4,,15
 379              		.global	VectorE0
 380              		.thumb
 381              		.thumb_func
 382              		.type	VectorE0, %function
 383              	VectorE0:
 384              	.LFB262:
 385              		.loc 1 157 0
 386              		.cfi_startproc
 387              		@ args = 0, pretend = 0, frame = 0
 388              		@ frame_needed = 0, uses_anonymous_args = 0
 389              		.loc 1 162 0
 390 0000 1C4B     		ldr	r3, .L81
 391              		.loc 1 157 0
 392 0002 10B5     		push	{r4, lr}
 393              		.cfi_def_cfa_offset 8
 394              		.cfi_offset 4, -8
 395              		.cfi_offset 14, -4
 396              		.loc 1 162 0
 397 0004 5C69     		ldr	r4, [r3, #20]
 398 0006 04F47C42 		and	r2, r4, #64512
 399              	.LVL20:
ARM GAS  /tmp/ccmGO9T8.s 			page 8


 400              		.loc 1 164 0
 401 000a 5A61     		str	r2, [r3, #20]
 402              		.loc 1 165 0
 403 000c 6205     		lsls	r2, r4, #21
 404              	.LVL21:
 405 000e 2AD4     		bmi	.L76
 406              	.LVL22:
 407              	.L51:
 408              		.loc 1 167 0
 409 0010 2305     		lsls	r3, r4, #20
 410 0012 22D4     		bmi	.L77
 411              	.L52:
 412              		.loc 1 169 0
 413 0014 E004     		lsls	r0, r4, #19
 414 0016 1AD4     		bmi	.L78
 415              	.L53:
 416              		.loc 1 171 0
 417 0018 A104     		lsls	r1, r4, #18
 418 001a 12D4     		bmi	.L79
 419              	.L54:
 420              		.loc 1 173 0
 421 001c 6204     		lsls	r2, r4, #17
 422 001e 0AD4     		bmi	.L80
 423              	.L55:
 424              		.loc 1 175 0
 425 0020 2304     		lsls	r3, r4, #16
 426 0022 04D5     		bpl	.L56
 427              		.loc 1 176 0
 428 0024 1448     		ldr	r0, .L81+4
 429 0026 4368     		ldr	r3, [r0, #4]
 430 0028 0F21     		movs	r1, #15
 431 002a DB6F     		ldr	r3, [r3, #124]
 432 002c 9847     		blx	r3
 433              	.LVL23:
 434              	.L56:
 435              		.loc 1 179 0
 436 002e BDE81040 		pop	{r4, lr}
 437              		.cfi_remember_state
 438              		.cfi_restore 14
 439              		.cfi_restore 4
 440              		.cfi_def_cfa_offset 0
 441              	.LVL24:
 442              		.loc 1 178 0
 443 0032 FFF7FEBF 		b	_port_irq_epilogue
 444              	.LVL25:
 445              	.L80:
 446              		.cfi_restore_state
 447              		.loc 1 174 0
 448 0036 1048     		ldr	r0, .L81+4
 449 0038 4368     		ldr	r3, [r0, #4]
 450 003a 0E21     		movs	r1, #14
 451 003c 5B6F     		ldr	r3, [r3, #116]
 452 003e 9847     		blx	r3
 453              	.LVL26:
 454 0040 EEE7     		b	.L55
 455              	.L79:
 456              		.loc 1 172 0
ARM GAS  /tmp/ccmGO9T8.s 			page 9


 457 0042 0D48     		ldr	r0, .L81+4
 458 0044 4368     		ldr	r3, [r0, #4]
 459 0046 0D21     		movs	r1, #13
 460 0048 DB6E     		ldr	r3, [r3, #108]
 461 004a 9847     		blx	r3
 462              	.LVL27:
 463 004c E6E7     		b	.L54
 464              	.L78:
 465              		.loc 1 170 0
 466 004e 0A48     		ldr	r0, .L81+4
 467 0050 4368     		ldr	r3, [r0, #4]
 468 0052 0C21     		movs	r1, #12
 469 0054 5B6E     		ldr	r3, [r3, #100]
 470 0056 9847     		blx	r3
 471              	.LVL28:
 472 0058 DEE7     		b	.L53
 473              	.L77:
 474              		.loc 1 168 0
 475 005a 0748     		ldr	r0, .L81+4
 476 005c 4368     		ldr	r3, [r0, #4]
 477 005e 0B21     		movs	r1, #11
 478 0060 DB6D     		ldr	r3, [r3, #92]
 479 0062 9847     		blx	r3
 480              	.LVL29:
 481 0064 D6E7     		b	.L52
 482              	.LVL30:
 483              	.L76:
 484              		.loc 1 166 0
 485 0066 0448     		ldr	r0, .L81+4
 486 0068 4368     		ldr	r3, [r0, #4]
 487              	.LVL31:
 488 006a 0A21     		movs	r1, #10
 489 006c 5B6D     		ldr	r3, [r3, #84]
 490 006e 9847     		blx	r3
 491              	.LVL32:
 492 0070 CEE7     		b	.L51
 493              	.L82:
 494 0072 00BF     		.align	2
 495              	.L81:
 496 0074 003C0140 		.word	1073822720
 497 0078 00000000 		.word	EXTD1
 498              		.cfi_endproc
 499              	.LFE262:
 500              		.size	VectorE0, .-VectorE0
 501              		.section	.text.Vector44,"ax",%progbits
 502              		.align	2
 503              		.p2align 4,,15
 504              		.global	Vector44
 505              		.thumb
 506              		.thumb_func
 507              		.type	Vector44, %function
 508              	Vector44:
 509              	.LFB263:
 510              		.loc 1 186 0
 511              		.cfi_startproc
 512              		@ args = 0, pretend = 0, frame = 0
 513              		@ frame_needed = 0, uses_anonymous_args = 0
ARM GAS  /tmp/ccmGO9T8.s 			page 10


 514 0000 08B5     		push	{r3, lr}
 515              		.cfi_def_cfa_offset 8
 516              		.cfi_offset 3, -8
 517              		.cfi_offset 14, -4
 518              		.loc 1 191 0
 519 0002 0748     		ldr	r0, .L85
 520              		.loc 1 190 0
 521 0004 074A     		ldr	r2, .L85+4
 522              		.loc 1 191 0
 523 0006 4368     		ldr	r3, [r0, #4]
 524              		.loc 1 190 0
 525 0008 4FF48031 		mov	r1, #65536
 526              		.loc 1 191 0
 527 000c D3F88430 		ldr	r3, [r3, #132]
 528              		.loc 1 190 0
 529 0010 5161     		str	r1, [r2, #20]
 530              		.loc 1 191 0
 531 0012 1021     		movs	r1, #16
 532 0014 9847     		blx	r3
 533              	.LVL33:
 534              		.loc 1 194 0
 535 0016 BDE80840 		pop	{r3, lr}
 536              		.cfi_restore 14
 537              		.cfi_restore 3
 538              		.cfi_def_cfa_offset 0
 539              		.loc 1 193 0
 540 001a FFF7FEBF 		b	_port_irq_epilogue
 541              	.LVL34:
 542              	.L86:
 543 001e 00BF     		.align	2
 544              	.L85:
 545 0020 00000000 		.word	EXTD1
 546 0024 003C0140 		.word	1073822720
 547              		.cfi_endproc
 548              	.LFE263:
 549              		.size	Vector44, .-Vector44
 550              		.section	.text.VectorE4,"ax",%progbits
 551              		.align	2
 552              		.p2align 4,,15
 553              		.global	VectorE4
 554              		.thumb
 555              		.thumb_func
 556              		.type	VectorE4, %function
 557              	VectorE4:
 558              	.LFB264:
 559              		.loc 1 201 0
 560              		.cfi_startproc
 561              		@ args = 0, pretend = 0, frame = 0
 562              		@ frame_needed = 0, uses_anonymous_args = 0
 563 0000 08B5     		push	{r3, lr}
 564              		.cfi_def_cfa_offset 8
 565              		.cfi_offset 3, -8
 566              		.cfi_offset 14, -4
 567              		.loc 1 206 0
 568 0002 0748     		ldr	r0, .L89
 569              		.loc 1 205 0
 570 0004 074A     		ldr	r2, .L89+4
ARM GAS  /tmp/ccmGO9T8.s 			page 11


 571              		.loc 1 206 0
 572 0006 4368     		ldr	r3, [r0, #4]
 573              		.loc 1 205 0
 574 0008 4FF40031 		mov	r1, #131072
 575              		.loc 1 206 0
 576 000c D3F88C30 		ldr	r3, [r3, #140]
 577              		.loc 1 205 0
 578 0010 5161     		str	r1, [r2, #20]
 579              		.loc 1 206 0
 580 0012 1121     		movs	r1, #17
 581 0014 9847     		blx	r3
 582              	.LVL35:
 583              		.loc 1 209 0
 584 0016 BDE80840 		pop	{r3, lr}
 585              		.cfi_restore 14
 586              		.cfi_restore 3
 587              		.cfi_def_cfa_offset 0
 588              		.loc 1 208 0
 589 001a FFF7FEBF 		b	_port_irq_epilogue
 590              	.LVL36:
 591              	.L90:
 592 001e 00BF     		.align	2
 593              	.L89:
 594 0020 00000000 		.word	EXTD1
 595 0024 003C0140 		.word	1073822720
 596              		.cfi_endproc
 597              	.LFE264:
 598              		.size	VectorE4, .-VectorE4
 599              		.section	.text.VectorE8,"ax",%progbits
 600              		.align	2
 601              		.p2align 4,,15
 602              		.global	VectorE8
 603              		.thumb
 604              		.thumb_func
 605              		.type	VectorE8, %function
 606              	VectorE8:
 607              	.LFB265:
 608              		.loc 1 216 0
 609              		.cfi_startproc
 610              		@ args = 0, pretend = 0, frame = 0
 611              		@ frame_needed = 0, uses_anonymous_args = 0
 612 0000 08B5     		push	{r3, lr}
 613              		.cfi_def_cfa_offset 8
 614              		.cfi_offset 3, -8
 615              		.cfi_offset 14, -4
 616              		.loc 1 221 0
 617 0002 0748     		ldr	r0, .L93
 618              		.loc 1 220 0
 619 0004 074A     		ldr	r2, .L93+4
 620              		.loc 1 221 0
 621 0006 4368     		ldr	r3, [r0, #4]
 622              		.loc 1 220 0
 623 0008 4FF48021 		mov	r1, #262144
 624              		.loc 1 221 0
 625 000c D3F89430 		ldr	r3, [r3, #148]
 626              		.loc 1 220 0
 627 0010 5161     		str	r1, [r2, #20]
ARM GAS  /tmp/ccmGO9T8.s 			page 12


 628              		.loc 1 221 0
 629 0012 1221     		movs	r1, #18
 630 0014 9847     		blx	r3
 631              	.LVL37:
 632              		.loc 1 224 0
 633 0016 BDE80840 		pop	{r3, lr}
 634              		.cfi_restore 14
 635              		.cfi_restore 3
 636              		.cfi_def_cfa_offset 0
 637              		.loc 1 223 0
 638 001a FFF7FEBF 		b	_port_irq_epilogue
 639              	.LVL38:
 640              	.L94:
 641 001e 00BF     		.align	2
 642              	.L93:
 643 0020 00000000 		.word	EXTD1
 644 0024 003C0140 		.word	1073822720
 645              		.cfi_endproc
 646              	.LFE265:
 647              		.size	VectorE8, .-VectorE8
 648              		.section	.text.Vector138,"ax",%progbits
 649              		.align	2
 650              		.p2align 4,,15
 651              		.global	Vector138
 652              		.thumb
 653              		.thumb_func
 654              		.type	Vector138, %function
 655              	Vector138:
 656              	.LFB266:
 657              		.loc 1 232 0
 658              		.cfi_startproc
 659              		@ args = 0, pretend = 0, frame = 0
 660              		@ frame_needed = 0, uses_anonymous_args = 0
 661 0000 08B5     		push	{r3, lr}
 662              		.cfi_def_cfa_offset 8
 663              		.cfi_offset 3, -8
 664              		.cfi_offset 14, -4
 665              		.loc 1 237 0
 666 0002 0748     		ldr	r0, .L97
 667              		.loc 1 236 0
 668 0004 074A     		ldr	r2, .L97+4
 669              		.loc 1 237 0
 670 0006 4368     		ldr	r3, [r0, #4]
 671              		.loc 1 236 0
 672 0008 4FF40021 		mov	r1, #524288
 673              		.loc 1 237 0
 674 000c D3F89C30 		ldr	r3, [r3, #156]
 675              		.loc 1 236 0
 676 0010 5161     		str	r1, [r2, #20]
 677              		.loc 1 237 0
 678 0012 1321     		movs	r1, #19
 679 0014 9847     		blx	r3
 680              	.LVL39:
 681              		.loc 1 240 0
 682 0016 BDE80840 		pop	{r3, lr}
 683              		.cfi_restore 14
 684              		.cfi_restore 3
ARM GAS  /tmp/ccmGO9T8.s 			page 13


 685              		.cfi_def_cfa_offset 0
 686              		.loc 1 239 0
 687 001a FFF7FEBF 		b	_port_irq_epilogue
 688              	.LVL40:
 689              	.L98:
 690 001e 00BF     		.align	2
 691              	.L97:
 692 0020 00000000 		.word	EXTD1
 693 0024 003C0140 		.word	1073822720
 694              		.cfi_endproc
 695              	.LFE266:
 696              		.size	Vector138, .-Vector138
 697              		.section	.text.Vector170,"ax",%progbits
 698              		.align	2
 699              		.p2align 4,,15
 700              		.global	Vector170
 701              		.thumb
 702              		.thumb_func
 703              		.type	Vector170, %function
 704              	Vector170:
 705              	.LFB267:
 706              		.loc 1 249 0
 707              		.cfi_startproc
 708              		@ args = 0, pretend = 0, frame = 0
 709              		@ frame_needed = 0, uses_anonymous_args = 0
 710 0000 08B5     		push	{r3, lr}
 711              		.cfi_def_cfa_offset 8
 712              		.cfi_offset 3, -8
 713              		.cfi_offset 14, -4
 714              		.loc 1 254 0
 715 0002 0748     		ldr	r0, .L101
 716              		.loc 1 253 0
 717 0004 074A     		ldr	r2, .L101+4
 718              		.loc 1 254 0
 719 0006 4368     		ldr	r3, [r0, #4]
 720              		.loc 1 253 0
 721 0008 4FF48011 		mov	r1, #1048576
 722              		.loc 1 254 0
 723 000c D3F8A430 		ldr	r3, [r3, #164]
 724              		.loc 1 253 0
 725 0010 5161     		str	r1, [r2, #20]
 726              		.loc 1 254 0
 727 0012 1421     		movs	r1, #20
 728 0014 9847     		blx	r3
 729              	.LVL41:
 730              		.loc 1 257 0
 731 0016 BDE80840 		pop	{r3, lr}
 732              		.cfi_restore 14
 733              		.cfi_restore 3
 734              		.cfi_def_cfa_offset 0
 735              		.loc 1 256 0
 736 001a FFF7FEBF 		b	_port_irq_epilogue
 737              	.LVL42:
 738              	.L102:
 739 001e 00BF     		.align	2
 740              	.L101:
 741 0020 00000000 		.word	EXTD1
ARM GAS  /tmp/ccmGO9T8.s 			page 14


 742 0024 003C0140 		.word	1073822720
 743              		.cfi_endproc
 744              	.LFE267:
 745              		.size	Vector170, .-Vector170
 746              		.section	.text.Vector48,"ax",%progbits
 747              		.align	2
 748              		.p2align 4,,15
 749              		.global	Vector48
 750              		.thumb
 751              		.thumb_func
 752              		.type	Vector48, %function
 753              	Vector48:
 754              	.LFB268:
 755              		.loc 1 266 0
 756              		.cfi_startproc
 757              		@ args = 0, pretend = 0, frame = 0
 758              		@ frame_needed = 0, uses_anonymous_args = 0
 759 0000 08B5     		push	{r3, lr}
 760              		.cfi_def_cfa_offset 8
 761              		.cfi_offset 3, -8
 762              		.cfi_offset 14, -4
 763              		.loc 1 271 0
 764 0002 0748     		ldr	r0, .L105
 765              		.loc 1 270 0
 766 0004 074A     		ldr	r2, .L105+4
 767              		.loc 1 271 0
 768 0006 4368     		ldr	r3, [r0, #4]
 769              		.loc 1 270 0
 770 0008 4FF40011 		mov	r1, #2097152
 771              		.loc 1 271 0
 772 000c D3F8AC30 		ldr	r3, [r3, #172]
 773              		.loc 1 270 0
 774 0010 5161     		str	r1, [r2, #20]
 775              		.loc 1 271 0
 776 0012 1521     		movs	r1, #21
 777 0014 9847     		blx	r3
 778              	.LVL43:
 779              		.loc 1 274 0
 780 0016 BDE80840 		pop	{r3, lr}
 781              		.cfi_restore 14
 782              		.cfi_restore 3
 783              		.cfi_def_cfa_offset 0
 784              		.loc 1 273 0
 785 001a FFF7FEBF 		b	_port_irq_epilogue
 786              	.LVL44:
 787              	.L106:
 788 001e 00BF     		.align	2
 789              	.L105:
 790 0020 00000000 		.word	EXTD1
 791 0024 003C0140 		.word	1073822720
 792              		.cfi_endproc
 793              	.LFE268:
 794              		.size	Vector48, .-Vector48
 795              		.section	.text.Vector4C,"ax",%progbits
 796              		.align	2
 797              		.p2align 4,,15
 798              		.global	Vector4C
ARM GAS  /tmp/ccmGO9T8.s 			page 15


 799              		.thumb
 800              		.thumb_func
 801              		.type	Vector4C, %function
 802              	Vector4C:
 803              	.LFB269:
 804              		.loc 1 282 0
 805              		.cfi_startproc
 806              		@ args = 0, pretend = 0, frame = 0
 807              		@ frame_needed = 0, uses_anonymous_args = 0
 808 0000 08B5     		push	{r3, lr}
 809              		.cfi_def_cfa_offset 8
 810              		.cfi_offset 3, -8
 811              		.cfi_offset 14, -4
 812              		.loc 1 287 0
 813 0002 0748     		ldr	r0, .L109
 814              		.loc 1 286 0
 815 0004 074A     		ldr	r2, .L109+4
 816              		.loc 1 287 0
 817 0006 4368     		ldr	r3, [r0, #4]
 818              		.loc 1 286 0
 819 0008 4FF48001 		mov	r1, #4194304
 820              		.loc 1 287 0
 821 000c D3F8B430 		ldr	r3, [r3, #180]
 822              		.loc 1 286 0
 823 0010 5161     		str	r1, [r2, #20]
 824              		.loc 1 287 0
 825 0012 1621     		movs	r1, #22
 826 0014 9847     		blx	r3
 827              	.LVL45:
 828              		.loc 1 290 0
 829 0016 BDE80840 		pop	{r3, lr}
 830              		.cfi_restore 14
 831              		.cfi_restore 3
 832              		.cfi_def_cfa_offset 0
 833              		.loc 1 289 0
 834 001a FFF7FEBF 		b	_port_irq_epilogue
 835              	.LVL46:
 836              	.L110:
 837 001e 00BF     		.align	2
 838              	.L109:
 839 0020 00000000 		.word	EXTD1
 840 0024 003C0140 		.word	1073822720
 841              		.cfi_endproc
 842              	.LFE269:
 843              		.size	Vector4C, .-Vector4C
 844              		.section	.text.ext_lld_exti_irq_enable,"ax",%progbits
 845              		.align	2
 846              		.p2align 4,,15
 847              		.global	ext_lld_exti_irq_enable
 848              		.thumb
 849              		.thumb_func
 850              		.type	ext_lld_exti_irq_enable, %function
 851              	ext_lld_exti_irq_enable:
 852              	.LFB270:
 853              		.loc 1 301 0
 854              		.cfi_startproc
 855              		@ args = 0, pretend = 0, frame = 0
ARM GAS  /tmp/ccmGO9T8.s 			page 16


 856              		@ frame_needed = 0, uses_anonymous_args = 0
 857              		.loc 1 303 0
 858 0000 0620     		movs	r0, #6
 859              		.loc 1 301 0
 860 0002 08B5     		push	{r3, lr}
 861              		.cfi_def_cfa_offset 8
 862              		.cfi_offset 3, -8
 863              		.cfi_offset 14, -4
 864              		.loc 1 303 0
 865 0004 0146     		mov	r1, r0
 866 0006 FFF7FEFF 		bl	nvicEnableVector
 867              	.LVL47:
 868              		.loc 1 304 0
 869 000a 0720     		movs	r0, #7
 870 000c 0621     		movs	r1, #6
 871 000e FFF7FEFF 		bl	nvicEnableVector
 872              	.LVL48:
 873              		.loc 1 305 0
 874 0012 0820     		movs	r0, #8
 875 0014 0621     		movs	r1, #6
 876 0016 FFF7FEFF 		bl	nvicEnableVector
 877              	.LVL49:
 878              		.loc 1 306 0
 879 001a 0920     		movs	r0, #9
 880 001c 0621     		movs	r1, #6
 881 001e FFF7FEFF 		bl	nvicEnableVector
 882              	.LVL50:
 883              		.loc 1 307 0
 884 0022 0A20     		movs	r0, #10
 885 0024 0621     		movs	r1, #6
 886 0026 FFF7FEFF 		bl	nvicEnableVector
 887              	.LVL51:
 888              		.loc 1 308 0
 889 002a 1720     		movs	r0, #23
 890 002c 0621     		movs	r1, #6
 891 002e FFF7FEFF 		bl	nvicEnableVector
 892              	.LVL52:
 893              		.loc 1 309 0
 894 0032 2820     		movs	r0, #40
 895 0034 0621     		movs	r1, #6
 896 0036 FFF7FEFF 		bl	nvicEnableVector
 897              	.LVL53:
 898              		.loc 1 310 0
 899 003a 0120     		movs	r0, #1
 900 003c 0621     		movs	r1, #6
 901 003e FFF7FEFF 		bl	nvicEnableVector
 902              	.LVL54:
 903              		.loc 1 311 0
 904 0042 2920     		movs	r0, #41
 905 0044 0F21     		movs	r1, #15
 906 0046 FFF7FEFF 		bl	nvicEnableVector
 907              	.LVL55:
 908              		.loc 1 312 0
 909 004a 2A20     		movs	r0, #42
 910 004c 0621     		movs	r1, #6
 911 004e FFF7FEFF 		bl	nvicEnableVector
 912              	.LVL56:
ARM GAS  /tmp/ccmGO9T8.s 			page 17


 913              		.loc 1 314 0
 914 0052 3E20     		movs	r0, #62
 915 0054 0621     		movs	r1, #6
 916 0056 FFF7FEFF 		bl	nvicEnableVector
 917              	.LVL57:
 918              		.loc 1 317 0
 919 005a 4C20     		movs	r0, #76
 920 005c 0621     		movs	r1, #6
 921 005e FFF7FEFF 		bl	nvicEnableVector
 922              	.LVL58:
 923              		.loc 1 320 0
 924 0062 0220     		movs	r0, #2
 925 0064 0F21     		movs	r1, #15
 926 0066 FFF7FEFF 		bl	nvicEnableVector
 927              	.LVL59:
 928              		.loc 1 322 0
 929 006a 0320     		movs	r0, #3
 930 006c 0F21     		movs	r1, #15
 931              		.loc 1 323 0
 932 006e BDE80840 		pop	{r3, lr}
 933              		.cfi_restore 14
 934              		.cfi_restore 3
 935              		.cfi_def_cfa_offset 0
 936              		.loc 1 322 0
 937 0072 FFF7FEBF 		b	nvicEnableVector
 938              	.LVL60:
 939              		.cfi_endproc
 940              	.LFE270:
 941              		.size	ext_lld_exti_irq_enable, .-ext_lld_exti_irq_enable
 942 0076 00BF     		.section	.text.ext_lld_exti_irq_disable,"ax",%progbits
 943              		.align	2
 944              		.p2align 4,,15
 945              		.global	ext_lld_exti_irq_disable
 946              		.thumb
 947              		.thumb_func
 948              		.type	ext_lld_exti_irq_disable, %function
 949              	ext_lld_exti_irq_disable:
 950              	.LFB271:
 951              		.loc 1 330 0
 952              		.cfi_startproc
 953              		@ args = 0, pretend = 0, frame = 0
 954              		@ frame_needed = 0, uses_anonymous_args = 0
 955 0000 08B5     		push	{r3, lr}
 956              		.cfi_def_cfa_offset 8
 957              		.cfi_offset 3, -8
 958              		.cfi_offset 14, -4
 959              		.loc 1 332 0
 960 0002 0620     		movs	r0, #6
 961 0004 FFF7FEFF 		bl	nvicDisableVector
 962              	.LVL61:
 963              		.loc 1 333 0
 964 0008 0720     		movs	r0, #7
 965 000a FFF7FEFF 		bl	nvicDisableVector
 966              	.LVL62:
 967              		.loc 1 334 0
 968 000e 0820     		movs	r0, #8
 969 0010 FFF7FEFF 		bl	nvicDisableVector
ARM GAS  /tmp/ccmGO9T8.s 			page 18


 970              	.LVL63:
 971              		.loc 1 335 0
 972 0014 0920     		movs	r0, #9
 973 0016 FFF7FEFF 		bl	nvicDisableVector
 974              	.LVL64:
 975              		.loc 1 336 0
 976 001a 0A20     		movs	r0, #10
 977 001c FFF7FEFF 		bl	nvicDisableVector
 978              	.LVL65:
 979              		.loc 1 337 0
 980 0020 1720     		movs	r0, #23
 981 0022 FFF7FEFF 		bl	nvicDisableVector
 982              	.LVL66:
 983              		.loc 1 338 0
 984 0026 2820     		movs	r0, #40
 985 0028 FFF7FEFF 		bl	nvicDisableVector
 986              	.LVL67:
 987              		.loc 1 339 0
 988 002c 0120     		movs	r0, #1
 989 002e FFF7FEFF 		bl	nvicDisableVector
 990              	.LVL68:
 991              		.loc 1 340 0
 992 0032 2920     		movs	r0, #41
 993 0034 FFF7FEFF 		bl	nvicDisableVector
 994              	.LVL69:
 995              		.loc 1 341 0
 996 0038 2A20     		movs	r0, #42
 997 003a FFF7FEFF 		bl	nvicDisableVector
 998              	.LVL70:
 999              		.loc 1 343 0
 1000 003e 3E20     		movs	r0, #62
 1001 0040 FFF7FEFF 		bl	nvicDisableVector
 1002              	.LVL71:
 1003              		.loc 1 346 0
 1004 0044 4C20     		movs	r0, #76
 1005 0046 FFF7FEFF 		bl	nvicDisableVector
 1006              	.LVL72:
 1007              		.loc 1 349 0
 1008 004a 0220     		movs	r0, #2
 1009 004c FFF7FEFF 		bl	nvicDisableVector
 1010              	.LVL73:
 1011              		.loc 1 351 0
 1012 0050 0320     		movs	r0, #3
 1013              		.loc 1 352 0
 1014 0052 BDE80840 		pop	{r3, lr}
 1015              		.cfi_restore 14
 1016              		.cfi_restore 3
 1017              		.cfi_def_cfa_offset 0
 1018              		.loc 1 351 0
 1019 0056 FFF7FEBF 		b	nvicDisableVector
 1020              	.LVL74:
 1021              		.cfi_endproc
 1022              	.LFE271:
 1023              		.size	ext_lld_exti_irq_disable, .-ext_lld_exti_irq_disable
 1024              		.text
 1025              	.Letext0:
 1026              		.file 2 "/usr/arm-none-eabi/include/machine/_default_types.h"
ARM GAS  /tmp/ccmGO9T8.s 			page 19


 1027              		.file 3 "/usr/arm-none-eabi/include/sys/_stdint.h"
 1028              		.file 4 "ChibiOS_3.0.2/os/rt/ports/ARMCMx/compilers/GCC/chtypes.h"
 1029              		.file 5 "ChibiOS_3.0.2/os/rt/include/chsystypes.h"
 1030              		.file 6 "ChibiOS_3.0.2/os/rt/include/chschd.h"
 1031              		.file 7 "ChibiOS_3.0.2/os/ext/CMSIS/ST/stm32f407xx.h"
 1032              		.file 8 "ChibiOS_3.0.2/os/rt/ports/ARMCMx/chcore.h"
 1033              		.file 9 "ChibiOS_3.0.2/os/rt/ports/ARMCMx/chcore_v7m.h"
 1034              		.file 10 "ChibiOS_3.0.2/os/rt/include/chtm.h"
 1035              		.file 11 "ChibiOS_3.0.2/os/rt/include/chsem.h"
 1036              		.file 12 "ChibiOS_3.0.2/os/rt/include/chmtx.h"
 1037              		.file 13 "ChibiOS_3.0.2/os/hal/include/ext.h"
 1038              		.file 14 "ChibiOS_3.0.2/os/hal/ports/STM32/LLD/ext_lld.h"
 1039              		.file 15 "ChibiOS_3.0.2/os/ext/CMSIS/include/core_cm4.h"
 1040              		.file 16 "ChibiOS_3.0.2/os/hal/ports/common/ARMCMx/nvic.h"
 1041              		.section	.debug_info,"",%progbits
 1042              	.Ldebug_info0:
 1043 0000 8B100000 		.4byte	0x108b
 1044 0004 0400     		.2byte	0x4
 1045 0006 00000000 		.4byte	.Ldebug_abbrev0
 1046 000a 04       		.byte	0x4
 1047 000b 01       		.uleb128 0x1
 1048 000c 18020000 		.4byte	.LASF229
 1049 0010 01       		.byte	0x1
 1050 0011 C80B0000 		.4byte	.LASF230
 1051 0015 340B0000 		.4byte	.LASF231
 1052 0019 00000000 		.4byte	.Ldebug_ranges0+0
 1053 001d 00000000 		.4byte	0
 1054 0021 00000000 		.4byte	.Ldebug_line0
 1055 0025 02       		.uleb128 0x2
 1056 0026 04       		.byte	0x4
 1057 0027 05       		.byte	0x5
 1058 0028 696E7400 		.ascii	"int\000"
 1059 002c 03       		.uleb128 0x3
 1060 002d 04       		.byte	0x4
 1061 002e 07       		.byte	0x7
 1062 002f 5A070000 		.4byte	.LASF0
 1063 0033 03       		.uleb128 0x3
 1064 0034 01       		.byte	0x1
 1065 0035 06       		.byte	0x6
 1066 0036 47030000 		.4byte	.LASF1
 1067 003a 04       		.uleb128 0x4
 1068 003b 48010000 		.4byte	.LASF5
 1069 003f 02       		.byte	0x2
 1070 0040 1D       		.byte	0x1d
 1071 0041 45000000 		.4byte	0x45
 1072 0045 03       		.uleb128 0x3
 1073 0046 01       		.byte	0x1
 1074 0047 08       		.byte	0x8
 1075 0048 91030000 		.4byte	.LASF2
 1076 004c 03       		.uleb128 0x3
 1077 004d 02       		.byte	0x2
 1078 004e 05       		.byte	0x5
 1079 004f 020A0000 		.4byte	.LASF3
 1080 0053 03       		.uleb128 0x3
 1081 0054 02       		.byte	0x2
 1082 0055 07       		.byte	0x7
 1083 0056 0A0B0000 		.4byte	.LASF4
ARM GAS  /tmp/ccmGO9T8.s 			page 20


 1084 005a 04       		.uleb128 0x4
 1085 005b 010C0000 		.4byte	.LASF6
 1086 005f 02       		.byte	0x2
 1087 0060 3F       		.byte	0x3f
 1088 0061 65000000 		.4byte	0x65
 1089 0065 03       		.uleb128 0x3
 1090 0066 04       		.byte	0x4
 1091 0067 05       		.byte	0x5
 1092 0068 89010000 		.4byte	.LASF7
 1093 006c 04       		.uleb128 0x4
 1094 006d 8F060000 		.4byte	.LASF8
 1095 0071 02       		.byte	0x2
 1096 0072 41       		.byte	0x41
 1097 0073 77000000 		.4byte	0x77
 1098 0077 03       		.uleb128 0x3
 1099 0078 04       		.byte	0x4
 1100 0079 07       		.byte	0x7
 1101 007a 76050000 		.4byte	.LASF9
 1102 007e 03       		.uleb128 0x3
 1103 007f 08       		.byte	0x8
 1104 0080 05       		.byte	0x5
 1105 0081 A4060000 		.4byte	.LASF10
 1106 0085 04       		.uleb128 0x4
 1107 0086 56050000 		.4byte	.LASF11
 1108 008a 02       		.byte	0x2
 1109 008b 5B       		.byte	0x5b
 1110 008c 90000000 		.4byte	0x90
 1111 0090 03       		.uleb128 0x3
 1112 0091 08       		.byte	0x8
 1113 0092 07       		.byte	0x7
 1114 0093 B4080000 		.4byte	.LASF12
 1115 0097 04       		.uleb128 0x4
 1116 0098 5D030000 		.4byte	.LASF13
 1117 009c 03       		.byte	0x3
 1118 009d 14       		.byte	0x14
 1119 009e 3A000000 		.4byte	0x3a
 1120 00a2 04       		.uleb128 0x4
 1121 00a3 80000000 		.4byte	.LASF14
 1122 00a7 03       		.byte	0x3
 1123 00a8 1F       		.byte	0x1f
 1124 00a9 5A000000 		.4byte	0x5a
 1125 00ad 04       		.uleb128 0x4
 1126 00ae D40A0000 		.4byte	.LASF15
 1127 00b2 03       		.byte	0x3
 1128 00b3 20       		.byte	0x20
 1129 00b4 6C000000 		.4byte	0x6c
 1130 00b8 04       		.uleb128 0x4
 1131 00b9 0C0A0000 		.4byte	.LASF16
 1132 00bd 03       		.byte	0x3
 1133 00be 26       		.byte	0x26
 1134 00bf 85000000 		.4byte	0x85
 1135 00c3 05       		.uleb128 0x5
 1136 00c4 A2000000 		.4byte	0xa2
 1137 00c8 05       		.uleb128 0x5
 1138 00c9 AD000000 		.4byte	0xad
 1139 00cd 04       		.uleb128 0x4
 1140 00ce 67070000 		.4byte	.LASF17
ARM GAS  /tmp/ccmGO9T8.s 			page 21


 1141 00d2 04       		.byte	0x4
 1142 00d3 45       		.byte	0x45
 1143 00d4 AD000000 		.4byte	0xad
 1144 00d8 04       		.uleb128 0x4
 1145 00d9 75090000 		.4byte	.LASF18
 1146 00dd 04       		.byte	0x4
 1147 00de 48       		.byte	0x48
 1148 00df 97000000 		.4byte	0x97
 1149 00e3 04       		.uleb128 0x4
 1150 00e4 B2010000 		.4byte	.LASF19
 1151 00e8 04       		.byte	0x4
 1152 00e9 49       		.byte	0x49
 1153 00ea 97000000 		.4byte	0x97
 1154 00ee 04       		.uleb128 0x4
 1155 00ef 8E0A0000 		.4byte	.LASF20
 1156 00f3 04       		.byte	0x4
 1157 00f4 4A       		.byte	0x4a
 1158 00f5 97000000 		.4byte	0x97
 1159 00f9 04       		.uleb128 0x4
 1160 00fa 00090000 		.4byte	.LASF21
 1161 00fe 04       		.byte	0x4
 1162 00ff 4B       		.byte	0x4b
 1163 0100 97000000 		.4byte	0x97
 1164 0104 04       		.uleb128 0x4
 1165 0105 5E000000 		.4byte	.LASF22
 1166 0109 04       		.byte	0x4
 1167 010a 4C       		.byte	0x4c
 1168 010b AD000000 		.4byte	0xad
 1169 010f 04       		.uleb128 0x4
 1170 0110 D3080000 		.4byte	.LASF23
 1171 0114 04       		.byte	0x4
 1172 0115 4D       		.byte	0x4d
 1173 0116 A2000000 		.4byte	0xa2
 1174 011a 04       		.uleb128 0x4
 1175 011b 65030000 		.4byte	.LASF24
 1176 011f 04       		.byte	0x4
 1177 0120 4F       		.byte	0x4f
 1178 0121 AD000000 		.4byte	0xad
 1179 0125 04       		.uleb128 0x4
 1180 0126 68040000 		.4byte	.LASF25
 1181 012a 04       		.byte	0x4
 1182 012b 51       		.byte	0x51
 1183 012c A2000000 		.4byte	0xa2
 1184 0130 04       		.uleb128 0x4
 1185 0131 4E000000 		.4byte	.LASF26
 1186 0135 05       		.byte	0x5
 1187 0136 33       		.byte	0x33
 1188 0137 AD000000 		.4byte	0xad
 1189 013b 04       		.uleb128 0x4
 1190 013c 0C080000 		.4byte	.LASF27
 1191 0140 05       		.byte	0x5
 1192 0141 3F       		.byte	0x3f
 1193 0142 46010000 		.4byte	0x146
 1194 0146 06       		.uleb128 0x6
 1195 0147 D7050000 		.4byte	.LASF49
 1196 014b 48       		.byte	0x48
 1197 014c 06       		.byte	0x6
ARM GAS  /tmp/ccmGO9T8.s 			page 22


 1198 014d C2       		.byte	0xc2
 1199 014e 4B020000 		.4byte	0x24b
 1200 0152 07       		.uleb128 0x7
 1201 0153 92010000 		.4byte	.LASF28
 1202 0157 06       		.byte	0x6
 1203 0158 C3       		.byte	0xc3
 1204 0159 56020000 		.4byte	0x256
 1205 015d 00       		.byte	0
 1206 015e 07       		.uleb128 0x7
 1207 015f 99010000 		.4byte	.LASF29
 1208 0163 06       		.byte	0x6
 1209 0164 C5       		.byte	0xc5
 1210 0165 56020000 		.4byte	0x256
 1211 0169 04       		.byte	0x4
 1212 016a 07       		.uleb128 0x7
 1213 016b 2B040000 		.4byte	.LASF30
 1214 016f 06       		.byte	0x6
 1215 0170 C7       		.byte	0xc7
 1216 0171 04010000 		.4byte	0x104
 1217 0175 08       		.byte	0x8
 1218 0176 07       		.uleb128 0x7
 1219 0177 58000000 		.4byte	.LASF31
 1220 017b 06       		.byte	0x6
 1221 017c C8       		.byte	0xc8
 1222 017d 19070000 		.4byte	0x719
 1223 0181 0C       		.byte	0xc
 1224 0182 07       		.uleb128 0x7
 1225 0183 81010000 		.4byte	.LASF32
 1226 0187 06       		.byte	0x6
 1227 0188 CA       		.byte	0xca
 1228 0189 56020000 		.4byte	0x256
 1229 018d 10       		.byte	0x10
 1230 018e 07       		.uleb128 0x7
 1231 018f CB080000 		.4byte	.LASF33
 1232 0193 06       		.byte	0x6
 1233 0194 CB       		.byte	0xcb
 1234 0195 56020000 		.4byte	0x256
 1235 0199 14       		.byte	0x14
 1236 019a 07       		.uleb128 0x7
 1237 019b 150C0000 		.4byte	.LASF34
 1238 019f 06       		.byte	0x6
 1239 01a0 D2       		.byte	0xd2
 1240 01a1 5E090000 		.4byte	0x95e
 1241 01a5 18       		.byte	0x18
 1242 01a6 07       		.uleb128 0x7
 1243 01a7 490C0000 		.4byte	.LASF35
 1244 01ab 06       		.byte	0x6
 1245 01ac DD       		.byte	0xdd
 1246 01ad E3000000 		.4byte	0xe3
 1247 01b1 1C       		.byte	0x1c
 1248 01b2 07       		.uleb128 0x7
 1249 01b3 3A070000 		.4byte	.LASF36
 1250 01b7 06       		.byte	0x6
 1251 01b8 E1       		.byte	0xe1
 1252 01b9 D8000000 		.4byte	0xd8
 1253 01bd 1D       		.byte	0x1d
 1254 01be 07       		.uleb128 0x7
ARM GAS  /tmp/ccmGO9T8.s 			page 23


 1255 01bf 84070000 		.4byte	.LASF37
 1256 01c3 06       		.byte	0x6
 1257 01c4 E6       		.byte	0xe6
 1258 01c5 EE000000 		.4byte	0xee
 1259 01c9 1E       		.byte	0x1e
 1260 01ca 07       		.uleb128 0x7
 1261 01cb 53030000 		.4byte	.LASF38
 1262 01cf 06       		.byte	0x6
 1263 01d0 EC       		.byte	0xec
 1264 01d1 F9000000 		.4byte	0xf9
 1265 01d5 1F       		.byte	0x1f
 1266 01d6 07       		.uleb128 0x7
 1267 01d7 DF070000 		.4byte	.LASF39
 1268 01db 06       		.byte	0x6
 1269 01dc F3       		.byte	0xf3
 1270 01dd 70090000 		.4byte	0x970
 1271 01e1 20       		.byte	0x20
 1272 01e2 08       		.uleb128 0x8
 1273 01e3 705F7500 		.ascii	"p_u\000"
 1274 01e7 06       		.byte	0x6
 1275 01e8 3101     		.2byte	0x131
 1276 01ea 99080000 		.4byte	0x899
 1277 01ee 24       		.byte	0x24
 1278 01ef 09       		.uleb128 0x9
 1279 01f0 1F070000 		.4byte	.LASF40
 1280 01f4 06       		.byte	0x6
 1281 01f5 3601     		.2byte	0x136
 1282 01f7 5C020000 		.4byte	0x25c
 1283 01fb 28       		.byte	0x28
 1284 01fc 09       		.uleb128 0x9
 1285 01fd 6F000000 		.4byte	.LASF41
 1286 0201 06       		.byte	0x6
 1287 0202 3C01     		.2byte	0x13c
 1288 0204 80020000 		.4byte	0x280
 1289 0208 2C       		.byte	0x2c
 1290 0209 09       		.uleb128 0x9
 1291 020a 430C0000 		.4byte	.LASF42
 1292 020e 06       		.byte	0x6
 1293 020f 4001     		.2byte	0x140
 1294 0211 0F010000 		.4byte	0x10f
 1295 0215 34       		.byte	0x34
 1296 0216 09       		.uleb128 0x9
 1297 0217 83040000 		.4byte	.LASF43
 1298 021b 06       		.byte	0x6
 1299 021c 4601     		.2byte	0x146
 1300 021e 1A010000 		.4byte	0x11a
 1301 0222 38       		.byte	0x38
 1302 0223 09       		.uleb128 0x9
 1303 0224 CB010000 		.4byte	.LASF44
 1304 0228 06       		.byte	0x6
 1305 0229 4D01     		.2byte	0x14d
 1306 022b 58090000 		.4byte	0x958
 1307 022f 3C       		.byte	0x3c
 1308 0230 09       		.uleb128 0x9
 1309 0231 3A080000 		.4byte	.LASF45
 1310 0235 06       		.byte	0x6
 1311 0236 5101     		.2byte	0x151
ARM GAS  /tmp/ccmGO9T8.s 			page 24


 1312 0238 04010000 		.4byte	0x104
 1313 023c 40       		.byte	0x40
 1314 023d 09       		.uleb128 0x9
 1315 023e 6F070000 		.4byte	.LASF46
 1316 0242 06       		.byte	0x6
 1317 0243 5801     		.2byte	0x158
 1318 0245 33030000 		.4byte	0x333
 1319 0249 44       		.byte	0x44
 1320 024a 00       		.byte	0
 1321 024b 04       		.uleb128 0x4
 1322 024c 27080000 		.4byte	.LASF47
 1323 0250 05       		.byte	0x5
 1324 0251 44       		.byte	0x44
 1325 0252 56020000 		.4byte	0x256
 1326 0256 0A       		.uleb128 0xa
 1327 0257 04       		.byte	0x4
 1328 0258 3B010000 		.4byte	0x13b
 1329 025c 04       		.uleb128 0x4
 1330 025d AA0A0000 		.4byte	.LASF48
 1331 0261 05       		.byte	0x5
 1332 0262 49       		.byte	0x49
 1333 0263 67020000 		.4byte	0x267
 1334 0267 06       		.uleb128 0x6
 1335 0268 53060000 		.4byte	.LASF50
 1336 026c 04       		.byte	0x4
 1337 026d 06       		.byte	0x6
 1338 026e B0       		.byte	0xb0
 1339 026f 80020000 		.4byte	0x280
 1340 0273 07       		.uleb128 0x7
 1341 0274 92010000 		.4byte	.LASF28
 1342 0278 06       		.byte	0x6
 1343 0279 B1       		.byte	0xb1
 1344 027a 56020000 		.4byte	0x256
 1345 027e 00       		.byte	0
 1346 027f 00       		.byte	0
 1347 0280 04       		.uleb128 0x4
 1348 0281 BB010000 		.4byte	.LASF51
 1349 0285 05       		.byte	0x5
 1350 0286 50       		.byte	0x50
 1351 0287 8B020000 		.4byte	0x28b
 1352 028b 06       		.uleb128 0x6
 1353 028c D9080000 		.4byte	.LASF52
 1354 0290 08       		.byte	0x8
 1355 0291 06       		.byte	0x6
 1356 0292 B7       		.byte	0xb7
 1357 0293 B0020000 		.4byte	0x2b0
 1358 0297 07       		.uleb128 0x7
 1359 0298 92010000 		.4byte	.LASF28
 1360 029c 06       		.byte	0x6
 1361 029d B8       		.byte	0xb8
 1362 029e 56020000 		.4byte	0x256
 1363 02a2 00       		.byte	0
 1364 02a3 07       		.uleb128 0x7
 1365 02a4 99010000 		.4byte	.LASF29
 1366 02a8 06       		.byte	0x6
 1367 02a9 B9       		.byte	0xb9
 1368 02aa 56020000 		.4byte	0x256
ARM GAS  /tmp/ccmGO9T8.s 			page 25


 1369 02ae 04       		.byte	0x4
 1370 02af 00       		.byte	0
 1371 02b0 04       		.uleb128 0x4
 1372 02b1 30060000 		.4byte	.LASF53
 1373 02b5 05       		.byte	0x5
 1374 02b6 57       		.byte	0x57
 1375 02b7 BB020000 		.4byte	0x2bb
 1376 02bb 0B       		.uleb128 0xb
 1377 02bc 95040000 		.4byte	.LASF54
 1378 02c0 1C       		.byte	0x1c
 1379 02c1 06       		.byte	0x6
 1380 02c2 9001     		.2byte	0x190
 1381 02c4 17030000 		.4byte	0x317
 1382 02c8 09       		.uleb128 0x9
 1383 02c9 49090000 		.4byte	.LASF55
 1384 02cd 06       		.byte	0x6
 1385 02ce 9101     		.2byte	0x191
 1386 02d0 80020000 		.4byte	0x280
 1387 02d4 00       		.byte	0
 1388 02d5 09       		.uleb128 0x9
 1389 02d6 2C0A0000 		.4byte	.LASF56
 1390 02da 06       		.byte	0x6
 1391 02db 9201     		.2byte	0x192
 1392 02dd 04010000 		.4byte	0x104
 1393 02e1 08       		.byte	0x8
 1394 02e2 09       		.uleb128 0x9
 1395 02e3 7A000000 		.4byte	.LASF57
 1396 02e7 06       		.byte	0x6
 1397 02e8 9401     		.2byte	0x194
 1398 02ea 19070000 		.4byte	0x719
 1399 02ee 0C       		.byte	0xc
 1400 02ef 09       		.uleb128 0x9
 1401 02f0 E1030000 		.4byte	.LASF58
 1402 02f4 06       		.byte	0x6
 1403 02f5 9701     		.2byte	0x197
 1404 02f7 56020000 		.4byte	0x256
 1405 02fb 10       		.byte	0x10
 1406 02fc 09       		.uleb128 0x9
 1407 02fd D8090000 		.4byte	.LASF59
 1408 0301 06       		.byte	0x6
 1409 0302 9801     		.2byte	0x198
 1410 0304 56020000 		.4byte	0x256
 1411 0308 14       		.byte	0x14
 1412 0309 09       		.uleb128 0x9
 1413 030a 13090000 		.4byte	.LASF60
 1414 030e 06       		.byte	0x6
 1415 030f 9B01     		.2byte	0x19b
 1416 0311 56020000 		.4byte	0x256
 1417 0315 18       		.byte	0x18
 1418 0316 00       		.byte	0
 1419 0317 04       		.uleb128 0x4
 1420 0318 91000000 		.4byte	.LASF61
 1421 031c 05       		.byte	0x5
 1422 031d 5C       		.byte	0x5c
 1423 031e 22030000 		.4byte	0x322
 1424 0322 0A       		.uleb128 0xa
 1425 0323 04       		.byte	0x4
ARM GAS  /tmp/ccmGO9T8.s 			page 26


 1426 0324 28030000 		.4byte	0x328
 1427 0328 0C       		.uleb128 0xc
 1428 0329 33030000 		.4byte	0x333
 1429 032d 0D       		.uleb128 0xd
 1430 032e 33030000 		.4byte	0x333
 1431 0332 00       		.byte	0
 1432 0333 0E       		.uleb128 0xe
 1433 0334 04       		.byte	0x4
 1434 0335 04       		.uleb128 0x4
 1435 0336 20060000 		.4byte	.LASF62
 1436 033a 05       		.byte	0x5
 1437 033b 61       		.byte	0x61
 1438 033c 40030000 		.4byte	0x340
 1439 0340 0B       		.uleb128 0xb
 1440 0341 72080000 		.4byte	.LASF63
 1441 0345 14       		.byte	0x14
 1442 0346 06       		.byte	0x6
 1443 0347 6B01     		.2byte	0x16b
 1444 0349 8F030000 		.4byte	0x38f
 1445 034d 09       		.uleb128 0x9
 1446 034e DF060000 		.4byte	.LASF64
 1447 0352 06       		.byte	0x6
 1448 0353 6C01     		.2byte	0x16c
 1449 0355 75090000 		.4byte	0x975
 1450 0359 00       		.byte	0
 1451 035a 09       		.uleb128 0x9
 1452 035b F7060000 		.4byte	.LASF65
 1453 035f 06       		.byte	0x6
 1454 0360 6D01     		.2byte	0x16d
 1455 0362 75090000 		.4byte	0x975
 1456 0366 04       		.byte	0x4
 1457 0367 09       		.uleb128 0x9
 1458 0368 51080000 		.4byte	.LASF66
 1459 036c 06       		.byte	0x6
 1460 036d 6E01     		.2byte	0x16e
 1461 036f 30010000 		.4byte	0x130
 1462 0373 08       		.byte	0x8
 1463 0374 09       		.uleb128 0x9
 1464 0375 7B040000 		.4byte	.LASF67
 1465 0379 06       		.byte	0x6
 1466 037a 6F01     		.2byte	0x16f
 1467 037c 17030000 		.4byte	0x317
 1468 0380 0C       		.byte	0xc
 1469 0381 09       		.uleb128 0x9
 1470 0382 38010000 		.4byte	.LASF68
 1471 0386 06       		.byte	0x6
 1472 0387 7101     		.2byte	0x171
 1473 0389 33030000 		.4byte	0x333
 1474 038d 10       		.byte	0x10
 1475 038e 00       		.byte	0
 1476 038f 04       		.uleb128 0x4
 1477 0390 EF050000 		.4byte	.LASF69
 1478 0394 05       		.byte	0x5
 1479 0395 66       		.byte	0x66
 1480 0396 9A030000 		.4byte	0x39a
 1481 039a 0B       		.uleb128 0xb
 1482 039b 9A000000 		.4byte	.LASF70
ARM GAS  /tmp/ccmGO9T8.s 			page 27


 1483 039f 10       		.byte	0x10
 1484 03a0 06       		.byte	0x6
 1485 03a1 7B01     		.2byte	0x17b
 1486 03a3 DC030000 		.4byte	0x3dc
 1487 03a7 09       		.uleb128 0x9
 1488 03a8 DF060000 		.4byte	.LASF64
 1489 03ac 06       		.byte	0x6
 1490 03ad 7C01     		.2byte	0x17c
 1491 03af 75090000 		.4byte	0x975
 1492 03b3 00       		.byte	0
 1493 03b4 09       		.uleb128 0x9
 1494 03b5 F7060000 		.4byte	.LASF65
 1495 03b9 06       		.byte	0x6
 1496 03ba 7E01     		.2byte	0x17e
 1497 03bc 75090000 		.4byte	0x975
 1498 03c0 04       		.byte	0x4
 1499 03c1 09       		.uleb128 0x9
 1500 03c2 51080000 		.4byte	.LASF66
 1501 03c6 06       		.byte	0x6
 1502 03c7 8001     		.2byte	0x180
 1503 03c9 30010000 		.4byte	0x130
 1504 03cd 08       		.byte	0x8
 1505 03ce 09       		.uleb128 0x9
 1506 03cf C0090000 		.4byte	.LASF71
 1507 03d3 06       		.byte	0x6
 1508 03d4 8201     		.2byte	0x182
 1509 03d6 70090000 		.4byte	0x970
 1510 03da 0C       		.byte	0xc
 1511 03db 00       		.byte	0
 1512 03dc 04       		.uleb128 0x4
 1513 03dd E9030000 		.4byte	.LASF72
 1514 03e1 05       		.byte	0x5
 1515 03e2 6B       		.byte	0x6b
 1516 03e3 E7030000 		.4byte	0x3e7
 1517 03e7 0B       		.uleb128 0xb
 1518 03e8 450A0000 		.4byte	.LASF73
 1519 03ec 04       		.byte	0x4
 1520 03ed 06       		.byte	0x6
 1521 03ee A201     		.2byte	0x1a2
 1522 03f0 02040000 		.4byte	0x402
 1523 03f4 09       		.uleb128 0x9
 1524 03f5 CA030000 		.4byte	.LASF74
 1525 03f9 06       		.byte	0x6
 1526 03fa AA01     		.2byte	0x1aa
 1527 03fc 7B090000 		.4byte	0x97b
 1528 0400 00       		.byte	0
 1529 0401 00       		.byte	0
 1530 0402 04       		.uleb128 0x4
 1531 0403 6E0B0000 		.4byte	.LASF75
 1532 0407 05       		.byte	0x5
 1533 0408 70       		.byte	0x70
 1534 0409 0D040000 		.4byte	0x40d
 1535 040d 0F       		.uleb128 0xf
 1536 040e B90A0000 		.4byte	.LASF76
 1537 0412 5802     		.2byte	0x258
 1538 0414 06       		.byte	0x6
 1539 0415 C201     		.2byte	0x1c2
ARM GAS  /tmp/ccmGO9T8.s 			page 28


 1540 0417 69040000 		.4byte	0x469
 1541 041b 09       		.uleb128 0x9
 1542 041c 6F090000 		.4byte	.LASF77
 1543 0420 06       		.byte	0x6
 1544 0421 C601     		.2byte	0x1c6
 1545 0423 B0020000 		.4byte	0x2b0
 1546 0427 00       		.byte	0
 1547 0428 09       		.uleb128 0x9
 1548 0429 750A0000 		.4byte	.LASF78
 1549 042d 06       		.byte	0x6
 1550 042e CA01     		.2byte	0x1ca
 1551 0430 8F030000 		.4byte	0x38f
 1552 0434 1C       		.byte	0x1c
 1553 0435 08       		.uleb128 0x8
 1554 0436 64626700 		.ascii	"dbg\000"
 1555 043a 06       		.byte	0x6
 1556 043b CE01     		.2byte	0x1ce
 1557 043d DC030000 		.4byte	0x3dc
 1558 0441 2C       		.byte	0x2c
 1559 0442 09       		.uleb128 0x9
 1560 0443 34090000 		.4byte	.LASF79
 1561 0447 06       		.byte	0x6
 1562 0448 D201     		.2byte	0x1d2
 1563 044a 3B010000 		.4byte	0x13b
 1564 044e 30       		.byte	0x30
 1565 044f 08       		.uleb128 0x8
 1566 0450 746D00   		.ascii	"tm\000"
 1567 0453 06       		.byte	0x6
 1568 0454 D701     		.2byte	0x1d7
 1569 0456 8E080000 		.4byte	0x88e
 1570 045a 78       		.byte	0x78
 1571 045b 09       		.uleb128 0x9
 1572 045c 4B070000 		.4byte	.LASF80
 1573 0460 06       		.byte	0x6
 1574 0461 E301     		.2byte	0x1e3
 1575 0463 80090000 		.4byte	0x980
 1576 0467 80       		.byte	0x80
 1577 0468 00       		.byte	0
 1578 0469 10       		.uleb128 0x10
 1579 046a 01       		.byte	0x1
 1580 046b 07       		.byte	0x7
 1581 046c 56       		.byte	0x56
 1582 046d 99060000 		.4byte	0x699
 1583 0471 11       		.uleb128 0x11
 1584 0472 42050000 		.4byte	.LASF81
 1585 0476 72       		.sleb128 -14
 1586 0477 11       		.uleb128 0x11
 1587 0478 91050000 		.4byte	.LASF82
 1588 047c 74       		.sleb128 -12
 1589 047d 11       		.uleb128 0x11
 1590 047e 63060000 		.4byte	.LASF83
 1591 0482 75       		.sleb128 -11
 1592 0483 11       		.uleb128 0x11
 1593 0484 16040000 		.4byte	.LASF84
 1594 0488 76       		.sleb128 -10
 1595 0489 11       		.uleb128 0x11
 1596 048a FF060000 		.4byte	.LASF85
ARM GAS  /tmp/ccmGO9T8.s 			page 29


 1597 048e 7B       		.sleb128 -5
 1598 048f 11       		.uleb128 0x11
 1599 0490 AE090000 		.4byte	.LASF86
 1600 0494 7C       		.sleb128 -4
 1601 0495 11       		.uleb128 0x11
 1602 0496 970B0000 		.4byte	.LASF87
 1603 049a 7E       		.sleb128 -2
 1604 049b 11       		.uleb128 0x11
 1605 049c FF010000 		.4byte	.LASF88
 1606 04a0 7F       		.sleb128 -1
 1607 04a1 11       		.uleb128 0x11
 1608 04a2 6C050000 		.4byte	.LASF89
 1609 04a6 00       		.sleb128 0
 1610 04a7 11       		.uleb128 0x11
 1611 04a8 51090000 		.4byte	.LASF90
 1612 04ac 01       		.sleb128 1
 1613 04ad 11       		.uleb128 0x11
 1614 04ae BD050000 		.4byte	.LASF91
 1615 04b2 02       		.sleb128 2
 1616 04b3 11       		.uleb128 0x11
 1617 04b4 00000000 		.4byte	.LASF92
 1618 04b8 03       		.sleb128 3
 1619 04b9 11       		.uleb128 0x11
 1620 04ba D4000000 		.4byte	.LASF93
 1621 04be 04       		.sleb128 4
 1622 04bf 11       		.uleb128 0x11
 1623 04c0 150A0000 		.4byte	.LASF94
 1624 04c4 05       		.sleb128 5
 1625 04c5 11       		.uleb128 0x11
 1626 04c6 64090000 		.4byte	.LASF95
 1627 04ca 06       		.sleb128 6
 1628 04cb 11       		.uleb128 0x11
 1629 04cc D9040000 		.4byte	.LASF96
 1630 04d0 07       		.sleb128 7
 1631 04d1 11       		.uleb128 0x11
 1632 04d2 0E000000 		.4byte	.LASF97
 1633 04d6 08       		.sleb128 8
 1634 04d7 11       		.uleb128 0x11
 1635 04d8 8C0B0000 		.4byte	.LASF98
 1636 04dc 09       		.sleb128 9
 1637 04dd 11       		.uleb128 0x11
 1638 04de FF0A0000 		.4byte	.LASF99
 1639 04e2 0A       		.sleb128 10
 1640 04e3 11       		.uleb128 0x11
 1641 04e4 5A080000 		.4byte	.LASF100
 1642 04e8 0B       		.sleb128 11
 1643 04e9 11       		.uleb128 0x11
 1644 04ea A5070000 		.4byte	.LASF101
 1645 04ee 0C       		.sleb128 12
 1646 04ef 11       		.uleb128 0x11
 1647 04f0 7F030000 		.4byte	.LASF102
 1648 04f4 0D       		.sleb128 13
 1649 04f5 11       		.uleb128 0x11
 1650 04f6 330A0000 		.4byte	.LASF103
 1651 04fa 0E       		.sleb128 14
 1652 04fb 11       		.uleb128 0x11
 1653 04fc 7D090000 		.4byte	.LASF104
ARM GAS  /tmp/ccmGO9T8.s 			page 30


 1654 0500 0F       		.sleb128 15
 1655 0501 11       		.uleb128 0x11
 1656 0502 FA040000 		.4byte	.LASF105
 1657 0506 10       		.sleb128 16
 1658 0507 11       		.uleb128 0x11
 1659 0508 19000000 		.4byte	.LASF106
 1660 050c 11       		.sleb128 17
 1661 050d 11       		.uleb128 0x11
 1662 050e 2B090000 		.4byte	.LASF107
 1663 0512 12       		.sleb128 18
 1664 0513 11       		.uleb128 0x11
 1665 0514 ED040000 		.4byte	.LASF108
 1666 0518 13       		.sleb128 19
 1667 0519 11       		.uleb128 0x11
 1668 051a 39040000 		.4byte	.LASF109
 1669 051e 14       		.sleb128 20
 1670 051f 11       		.uleb128 0x11
 1671 0520 DD0A0000 		.4byte	.LASF110
 1672 0524 15       		.sleb128 21
 1673 0525 11       		.uleb128 0x11
 1674 0526 E1050000 		.4byte	.LASF111
 1675 052a 16       		.sleb128 22
 1676 052b 11       		.uleb128 0x11
 1677 052c EB0A0000 		.4byte	.LASF112
 1678 0530 17       		.sleb128 23
 1679 0531 11       		.uleb128 0x11
 1680 0532 7C060000 		.4byte	.LASF113
 1681 0536 18       		.sleb128 24
 1682 0537 11       		.uleb128 0x11
 1683 0538 550A0000 		.4byte	.LASF114
 1684 053c 19       		.sleb128 25
 1685 053d 11       		.uleb128 0x11
 1686 053e D5010000 		.4byte	.LASF115
 1687 0542 1A       		.sleb128 26
 1688 0543 11       		.uleb128 0x11
 1689 0544 BE040000 		.4byte	.LASF116
 1690 0548 1B       		.sleb128 27
 1691 0549 11       		.uleb128 0x11
 1692 054a F6000000 		.4byte	.LASF117
 1693 054e 1C       		.sleb128 28
 1694 054f 11       		.uleb128 0x11
 1695 0550 EA080000 		.4byte	.LASF118
 1696 0554 1D       		.sleb128 29
 1697 0555 11       		.uleb128 0x11
 1698 0556 52040000 		.4byte	.LASF119
 1699 055a 1E       		.sleb128 30
 1700 055b 11       		.uleb128 0x11
 1701 055c 6E040000 		.4byte	.LASF120
 1702 0560 1F       		.sleb128 31
 1703 0561 11       		.uleb128 0x11
 1704 0562 D4030000 		.4byte	.LASF121
 1705 0566 20       		.sleb128 32
 1706 0567 11       		.uleb128 0x11
 1707 0568 77070000 		.4byte	.LASF122
 1708 056c 21       		.sleb128 33
 1709 056d 11       		.uleb128 0x11
 1710 056e 46060000 		.4byte	.LASF123
ARM GAS  /tmp/ccmGO9T8.s 			page 31


 1711 0572 22       		.sleb128 34
 1712 0573 11       		.uleb128 0x11
 1713 0574 E7060000 		.4byte	.LASF124
 1714 0578 23       		.sleb128 35
 1715 0579 11       		.uleb128 0x11
 1716 057a 63010000 		.4byte	.LASF125
 1717 057e 24       		.sleb128 36
 1718 057f 11       		.uleb128 0x11
 1719 0580 F4080000 		.4byte	.LASF126
 1720 0584 25       		.sleb128 37
 1721 0585 11       		.uleb128 0x11
 1722 0586 5C040000 		.4byte	.LASF127
 1723 058a 26       		.sleb128 38
 1724 058b 11       		.uleb128 0x11
 1725 058c 0C020000 		.4byte	.LASF128
 1726 0590 27       		.sleb128 39
 1727 0591 11       		.uleb128 0x11
 1728 0592 A5080000 		.4byte	.LASF129
 1729 0596 28       		.sleb128 40
 1730 0597 11       		.uleb128 0x11
 1731 0598 83080000 		.4byte	.LASF130
 1732 059c 29       		.sleb128 41
 1733 059d 11       		.uleb128 0x11
 1734 059e 29070000 		.4byte	.LASF131
 1735 05a2 2A       		.sleb128 42
 1736 05a3 11       		.uleb128 0x11
 1737 05a4 6D010000 		.4byte	.LASF132
 1738 05a8 2B       		.sleb128 43
 1739 05a9 11       		.uleb128 0x11
 1740 05aa 2B000000 		.4byte	.LASF133
 1741 05ae 2C       		.sleb128 44
 1742 05af 11       		.uleb128 0x11
 1743 05b0 0C050000 		.4byte	.LASF134
 1744 05b4 2D       		.sleb128 45
 1745 05b5 11       		.uleb128 0x11
 1746 05b6 1D0B0000 		.4byte	.LASF135
 1747 05ba 2E       		.sleb128 46
 1748 05bb 11       		.uleb128 0x11
 1749 05bc B60B0000 		.4byte	.LASF136
 1750 05c0 2F       		.sleb128 47
 1751 05c1 11       		.uleb128 0x11
 1752 05c2 5A090000 		.4byte	.LASF137
 1753 05c6 30       		.sleb128 48
 1754 05c7 11       		.uleb128 0x11
 1755 05c8 2A0B0000 		.4byte	.LASF138
 1756 05cc 31       		.sleb128 49
 1757 05cd 11       		.uleb128 0x11
 1758 05ce 0C040000 		.4byte	.LASF139
 1759 05d2 32       		.sleb128 50
 1760 05d3 11       		.uleb128 0x11
 1761 05d4 CA000000 		.4byte	.LASF140
 1762 05d8 33       		.sleb128 51
 1763 05d9 11       		.uleb128 0x11
 1764 05da 14070000 		.4byte	.LASF141
 1765 05de 34       		.sleb128 52
 1766 05df 11       		.uleb128 0x11
 1767 05e0 71060000 		.4byte	.LASF142
ARM GAS  /tmp/ccmGO9T8.s 			page 32


 1768 05e4 35       		.sleb128 53
 1769 05e5 11       		.uleb128 0x11
 1770 05e6 230C0000 		.4byte	.LASF143
 1771 05ea 36       		.sleb128 54
 1772 05eb 11       		.uleb128 0x11
 1773 05ec 9A060000 		.4byte	.LASF144
 1774 05f0 37       		.sleb128 55
 1775 05f1 11       		.uleb128 0x11
 1776 05f2 05060000 		.4byte	.LASF145
 1777 05f6 38       		.sleb128 56
 1778 05f7 11       		.uleb128 0x11
 1779 05f8 B8000000 		.4byte	.LASF146
 1780 05fc 39       		.sleb128 57
 1781 05fd 11       		.uleb128 0x11
 1782 05fe 310C0000 		.4byte	.LASF147
 1783 0602 3A       		.sleb128 58
 1784 0603 11       		.uleb128 0x11
 1785 0604 B7070000 		.4byte	.LASF148
 1786 0608 3B       		.sleb128 59
 1787 0609 11       		.uleb128 0x11
 1788 060a 9F030000 		.4byte	.LASF149
 1789 060e 3C       		.sleb128 60
 1790 060f 11       		.uleb128 0x11
 1791 0610 F1090000 		.4byte	.LASF150
 1792 0614 3D       		.sleb128 61
 1793 0615 11       		.uleb128 0x11
 1794 0616 B2060000 		.4byte	.LASF151
 1795 061a 3E       		.sleb128 62
 1796 061b 11       		.uleb128 0x11
 1797 061c C9070000 		.4byte	.LASF152
 1798 0620 3F       		.sleb128 63
 1799 0621 11       		.uleb128 0x11
 1800 0622 16010000 		.4byte	.LASF153
 1801 0626 C000     		.sleb128 64
 1802 0628 11       		.uleb128 0x11
 1803 0629 1D090000 		.4byte	.LASF154
 1804 062d C100     		.sleb128 65
 1805 062f 11       		.uleb128 0x11
 1806 0630 F8030000 		.4byte	.LASF155
 1807 0634 C200     		.sleb128 66
 1808 0636 11       		.uleb128 0x11
 1809 0637 36050000 		.4byte	.LASF156
 1810 063b C300     		.sleb128 67
 1811 063d 11       		.uleb128 0x11
 1812 063e A0010000 		.4byte	.LASF157
 1813 0642 C400     		.sleb128 68
 1814 0644 11       		.uleb128 0x11
 1815 0645 9C090000 		.4byte	.LASF158
 1816 0649 C500     		.sleb128 69
 1817 064b 11       		.uleb128 0x11
 1818 064c 24050000 		.4byte	.LASF159
 1819 0650 C600     		.sleb128 70
 1820 0652 11       		.uleb128 0x11
 1821 0653 24010000 		.4byte	.LASF160
 1822 0657 C700     		.sleb128 71
 1823 0659 11       		.uleb128 0x11
 1824 065a CB090000 		.4byte	.LASF161
ARM GAS  /tmp/ccmGO9T8.s 			page 33


 1825 065e C800     		.sleb128 72
 1826 0660 11       		.uleb128 0x11
 1827 0661 98080000 		.4byte	.LASF162
 1828 0665 C900     		.sleb128 73
 1829 0667 11       		.uleb128 0x11
 1830 0668 960A0000 		.4byte	.LASF163
 1831 066c CA00     		.sleb128 74
 1832 066e 11       		.uleb128 0x11
 1833 066f A30B0000 		.4byte	.LASF164
 1834 0673 CB00     		.sleb128 75
 1835 0675 11       		.uleb128 0x11
 1836 0676 52010000 		.4byte	.LASF165
 1837 067a CC00     		.sleb128 76
 1838 067c 11       		.uleb128 0x11
 1839 067d C0060000 		.4byte	.LASF166
 1840 0681 CD00     		.sleb128 77
 1841 0683 11       		.uleb128 0x11
 1842 0684 DF000000 		.4byte	.LASF167
 1843 0688 CE00     		.sleb128 78
 1844 068a 11       		.uleb128 0x11
 1845 068b CB040000 		.4byte	.LASF168
 1846 068f D000     		.sleb128 80
 1847 0691 11       		.uleb128 0x11
 1848 0692 0B070000 		.4byte	.LASF169
 1849 0696 D100     		.sleb128 81
 1850 0698 00       		.byte	0
 1851 0699 03       		.uleb128 0x3
 1852 069a 04       		.byte	0x4
 1853 069b 07       		.byte	0x7
 1854 069c 3E000000 		.4byte	.LASF170
 1855 06a0 12       		.uleb128 0x12
 1856 06a1 18       		.byte	0x18
 1857 06a2 07       		.byte	0x7
 1858 06a3 CC01     		.2byte	0x1cc
 1859 06a5 F7060000 		.4byte	0x6f7
 1860 06a9 08       		.uleb128 0x8
 1861 06aa 494D5200 		.ascii	"IMR\000"
 1862 06ae 07       		.byte	0x7
 1863 06af CE01     		.2byte	0x1ce
 1864 06b1 C8000000 		.4byte	0xc8
 1865 06b5 00       		.byte	0
 1866 06b6 08       		.uleb128 0x8
 1867 06b7 454D5200 		.ascii	"EMR\000"
 1868 06bb 07       		.byte	0x7
 1869 06bc CF01     		.2byte	0x1cf
 1870 06be C8000000 		.4byte	0xc8
 1871 06c2 04       		.byte	0x4
 1872 06c3 09       		.uleb128 0x9
 1873 06c4 ED010000 		.4byte	.LASF171
 1874 06c8 07       		.byte	0x7
 1875 06c9 D001     		.2byte	0x1d0
 1876 06cb C8000000 		.4byte	0xc8
 1877 06cf 08       		.byte	0x8
 1878 06d0 09       		.uleb128 0x9
 1879 06d1 11010000 		.4byte	.LASF172
 1880 06d5 07       		.byte	0x7
 1881 06d6 D101     		.2byte	0x1d1
ARM GAS  /tmp/ccmGO9T8.s 			page 34


 1882 06d8 C8000000 		.4byte	0xc8
 1883 06dc 0C       		.byte	0xc
 1884 06dd 09       		.uleb128 0x9
 1885 06de 6C080000 		.4byte	.LASF173
 1886 06e2 07       		.byte	0x7
 1887 06e3 D201     		.2byte	0x1d2
 1888 06e5 C8000000 		.4byte	0xc8
 1889 06e9 10       		.byte	0x10
 1890 06ea 08       		.uleb128 0x8
 1891 06eb 505200   		.ascii	"PR\000"
 1892 06ee 07       		.byte	0x7
 1893 06ef D301     		.2byte	0x1d3
 1894 06f1 C8000000 		.4byte	0xc8
 1895 06f5 14       		.byte	0x14
 1896 06f6 00       		.byte	0
 1897 06f7 13       		.uleb128 0x13
 1898 06f8 F2010000 		.4byte	.LASF174
 1899 06fc 07       		.byte	0x7
 1900 06fd D401     		.2byte	0x1d4
 1901 06ff A0060000 		.4byte	0x6a0
 1902 0703 04       		.uleb128 0x4
 1903 0704 D6070000 		.4byte	.LASF175
 1904 0708 08       		.byte	0x8
 1905 0709 65       		.byte	0x65
 1906 070a 33030000 		.4byte	0x333
 1907 070e 04       		.uleb128 0x4
 1908 070f 47040000 		.4byte	.LASF176
 1909 0713 08       		.byte	0x8
 1910 0714 6D       		.byte	0x6d
 1911 0715 B8000000 		.4byte	0xb8
 1912 0719 06       		.uleb128 0x6
 1913 071a 71030000 		.4byte	.LASF177
 1914 071e 04       		.byte	0x4
 1915 071f 08       		.byte	0x8
 1916 0720 89       		.byte	0x89
 1917 0721 32070000 		.4byte	0x732
 1918 0725 14       		.uleb128 0x14
 1919 0726 72313300 		.ascii	"r13\000"
 1920 072a 08       		.byte	0x8
 1921 072b 8A       		.byte	0x8a
 1922 072c 73080000 		.4byte	0x873
 1923 0730 00       		.byte	0
 1924 0731 00       		.byte	0
 1925 0732 06       		.uleb128 0x6
 1926 0733 45080000 		.4byte	.LASF178
 1927 0737 64       		.byte	0x64
 1928 0738 09       		.byte	0x9
 1929 0739 F4       		.byte	0xf4
 1930 073a 73080000 		.4byte	0x873
 1931 073e 14       		.uleb128 0x14
 1932 073f 73313600 		.ascii	"s16\000"
 1933 0743 09       		.byte	0x9
 1934 0744 F6       		.byte	0xf6
 1935 0745 03070000 		.4byte	0x703
 1936 0749 00       		.byte	0
 1937 074a 14       		.uleb128 0x14
 1938 074b 73313700 		.ascii	"s17\000"
ARM GAS  /tmp/ccmGO9T8.s 			page 35


 1939 074f 09       		.byte	0x9
 1940 0750 F7       		.byte	0xf7
 1941 0751 03070000 		.4byte	0x703
 1942 0755 04       		.byte	0x4
 1943 0756 14       		.uleb128 0x14
 1944 0757 73313800 		.ascii	"s18\000"
 1945 075b 09       		.byte	0x9
 1946 075c F8       		.byte	0xf8
 1947 075d 03070000 		.4byte	0x703
 1948 0761 08       		.byte	0x8
 1949 0762 14       		.uleb128 0x14
 1950 0763 73313900 		.ascii	"s19\000"
 1951 0767 09       		.byte	0x9
 1952 0768 F9       		.byte	0xf9
 1953 0769 03070000 		.4byte	0x703
 1954 076d 0C       		.byte	0xc
 1955 076e 14       		.uleb128 0x14
 1956 076f 73323000 		.ascii	"s20\000"
 1957 0773 09       		.byte	0x9
 1958 0774 FA       		.byte	0xfa
 1959 0775 03070000 		.4byte	0x703
 1960 0779 10       		.byte	0x10
 1961 077a 14       		.uleb128 0x14
 1962 077b 73323100 		.ascii	"s21\000"
 1963 077f 09       		.byte	0x9
 1964 0780 FB       		.byte	0xfb
 1965 0781 03070000 		.4byte	0x703
 1966 0785 14       		.byte	0x14
 1967 0786 14       		.uleb128 0x14
 1968 0787 73323200 		.ascii	"s22\000"
 1969 078b 09       		.byte	0x9
 1970 078c FC       		.byte	0xfc
 1971 078d 03070000 		.4byte	0x703
 1972 0791 18       		.byte	0x18
 1973 0792 14       		.uleb128 0x14
 1974 0793 73323300 		.ascii	"s23\000"
 1975 0797 09       		.byte	0x9
 1976 0798 FD       		.byte	0xfd
 1977 0799 03070000 		.4byte	0x703
 1978 079d 1C       		.byte	0x1c
 1979 079e 14       		.uleb128 0x14
 1980 079f 73323400 		.ascii	"s24\000"
 1981 07a3 09       		.byte	0x9
 1982 07a4 FE       		.byte	0xfe
 1983 07a5 03070000 		.4byte	0x703
 1984 07a9 20       		.byte	0x20
 1985 07aa 14       		.uleb128 0x14
 1986 07ab 73323500 		.ascii	"s25\000"
 1987 07af 09       		.byte	0x9
 1988 07b0 FF       		.byte	0xff
 1989 07b1 03070000 		.4byte	0x703
 1990 07b5 24       		.byte	0x24
 1991 07b6 08       		.uleb128 0x8
 1992 07b7 73323600 		.ascii	"s26\000"
 1993 07bb 09       		.byte	0x9
 1994 07bc 0001     		.2byte	0x100
 1995 07be 03070000 		.4byte	0x703
ARM GAS  /tmp/ccmGO9T8.s 			page 36


 1996 07c2 28       		.byte	0x28
 1997 07c3 08       		.uleb128 0x8
 1998 07c4 73323700 		.ascii	"s27\000"
 1999 07c8 09       		.byte	0x9
 2000 07c9 0101     		.2byte	0x101
 2001 07cb 03070000 		.4byte	0x703
 2002 07cf 2C       		.byte	0x2c
 2003 07d0 08       		.uleb128 0x8
 2004 07d1 73323800 		.ascii	"s28\000"
 2005 07d5 09       		.byte	0x9
 2006 07d6 0201     		.2byte	0x102
 2007 07d8 03070000 		.4byte	0x703
 2008 07dc 30       		.byte	0x30
 2009 07dd 08       		.uleb128 0x8
 2010 07de 73323900 		.ascii	"s29\000"
 2011 07e2 09       		.byte	0x9
 2012 07e3 0301     		.2byte	0x103
 2013 07e5 03070000 		.4byte	0x703
 2014 07e9 34       		.byte	0x34
 2015 07ea 08       		.uleb128 0x8
 2016 07eb 73333000 		.ascii	"s30\000"
 2017 07ef 09       		.byte	0x9
 2018 07f0 0401     		.2byte	0x104
 2019 07f2 03070000 		.4byte	0x703
 2020 07f6 38       		.byte	0x38
 2021 07f7 08       		.uleb128 0x8
 2022 07f8 73333100 		.ascii	"s31\000"
 2023 07fc 09       		.byte	0x9
 2024 07fd 0501     		.2byte	0x105
 2025 07ff 03070000 		.4byte	0x703
 2026 0803 3C       		.byte	0x3c
 2027 0804 08       		.uleb128 0x8
 2028 0805 723400   		.ascii	"r4\000"
 2029 0808 09       		.byte	0x9
 2030 0809 0701     		.2byte	0x107
 2031 080b 03070000 		.4byte	0x703
 2032 080f 40       		.byte	0x40
 2033 0810 08       		.uleb128 0x8
 2034 0811 723500   		.ascii	"r5\000"
 2035 0814 09       		.byte	0x9
 2036 0815 0801     		.2byte	0x108
 2037 0817 03070000 		.4byte	0x703
 2038 081b 44       		.byte	0x44
 2039 081c 08       		.uleb128 0x8
 2040 081d 723600   		.ascii	"r6\000"
 2041 0820 09       		.byte	0x9
 2042 0821 0901     		.2byte	0x109
 2043 0823 03070000 		.4byte	0x703
 2044 0827 48       		.byte	0x48
 2045 0828 08       		.uleb128 0x8
 2046 0829 723700   		.ascii	"r7\000"
 2047 082c 09       		.byte	0x9
 2048 082d 0A01     		.2byte	0x10a
 2049 082f 03070000 		.4byte	0x703
 2050 0833 4C       		.byte	0x4c
 2051 0834 08       		.uleb128 0x8
 2052 0835 723800   		.ascii	"r8\000"
ARM GAS  /tmp/ccmGO9T8.s 			page 37


 2053 0838 09       		.byte	0x9
 2054 0839 0B01     		.2byte	0x10b
 2055 083b 03070000 		.4byte	0x703
 2056 083f 50       		.byte	0x50
 2057 0840 08       		.uleb128 0x8
 2058 0841 723900   		.ascii	"r9\000"
 2059 0844 09       		.byte	0x9
 2060 0845 0C01     		.2byte	0x10c
 2061 0847 03070000 		.4byte	0x703
 2062 084b 54       		.byte	0x54
 2063 084c 08       		.uleb128 0x8
 2064 084d 72313000 		.ascii	"r10\000"
 2065 0851 09       		.byte	0x9
 2066 0852 0D01     		.2byte	0x10d
 2067 0854 03070000 		.4byte	0x703
 2068 0858 58       		.byte	0x58
 2069 0859 08       		.uleb128 0x8
 2070 085a 72313100 		.ascii	"r11\000"
 2071 085e 09       		.byte	0x9
 2072 085f 0E01     		.2byte	0x10e
 2073 0861 03070000 		.4byte	0x703
 2074 0865 5C       		.byte	0x5c
 2075 0866 08       		.uleb128 0x8
 2076 0867 6C7200   		.ascii	"lr\000"
 2077 086a 09       		.byte	0x9
 2078 086b 0F01     		.2byte	0x10f
 2079 086d 03070000 		.4byte	0x703
 2080 0871 60       		.byte	0x60
 2081 0872 00       		.byte	0
 2082 0873 0A       		.uleb128 0xa
 2083 0874 04       		.byte	0x4
 2084 0875 32070000 		.4byte	0x732
 2085 0879 15       		.uleb128 0x15
 2086 087a 04       		.byte	0x4
 2087 087b 0A       		.byte	0xa
 2088 087c 38       		.byte	0x38
 2089 087d 8E080000 		.4byte	0x88e
 2090 0881 07       		.uleb128 0x7
 2091 0882 9E070000 		.4byte	.LASF179
 2092 0886 0A       		.byte	0xa
 2093 0887 3C       		.byte	0x3c
 2094 0888 CD000000 		.4byte	0xcd
 2095 088c 00       		.byte	0
 2096 088d 00       		.byte	0
 2097 088e 04       		.uleb128 0x4
 2098 088f E0090000 		.4byte	.LASF180
 2099 0893 0A       		.byte	0xa
 2100 0894 3D       		.byte	0x3d
 2101 0895 79080000 		.4byte	0x879
 2102 0899 16       		.uleb128 0x16
 2103 089a 04       		.byte	0x4
 2104 089b 06       		.byte	0x6
 2105 089c FA       		.byte	0xfa
 2106 089d F6080000 		.4byte	0x8f6
 2107 08a1 17       		.uleb128 0x17
 2108 08a2 F80A0000 		.4byte	.LASF181
 2109 08a6 06       		.byte	0x6
ARM GAS  /tmp/ccmGO9T8.s 			page 38


 2110 08a7 0101     		.2byte	0x101
 2111 08a9 0F010000 		.4byte	0x10f
 2112 08ad 17       		.uleb128 0x17
 2113 08ae 3F010000 		.4byte	.LASF182
 2114 08b2 06       		.byte	0x6
 2115 08b3 0801     		.2byte	0x108
 2116 08b5 0F010000 		.4byte	0x10f
 2117 08b9 17       		.uleb128 0x17
 2118 08ba 32040000 		.4byte	.LASF183
 2119 08be 06       		.byte	0x6
 2120 08bf 0F01     		.2byte	0x10f
 2121 08c1 33030000 		.4byte	0x333
 2122 08c5 17       		.uleb128 0x17
 2123 08c6 79030000 		.4byte	.LASF184
 2124 08ca 06       		.byte	0x6
 2125 08cb 1601     		.2byte	0x116
 2126 08cd F6080000 		.4byte	0x8f6
 2127 08d1 17       		.uleb128 0x17
 2128 08d2 47000000 		.4byte	.LASF185
 2129 08d6 06       		.byte	0x6
 2130 08d7 1E01     		.2byte	0x11e
 2131 08d9 21090000 		.4byte	0x921
 2132 08dd 17       		.uleb128 0x17
 2133 08de 8E040000 		.4byte	.LASF186
 2134 08e2 06       		.byte	0x6
 2135 08e3 2701     		.2byte	0x127
 2136 08e5 58090000 		.4byte	0x958
 2137 08e9 17       		.uleb128 0x17
 2138 08ea B1000000 		.4byte	.LASF187
 2139 08ee 06       		.byte	0x6
 2140 08ef 2F01     		.2byte	0x12f
 2141 08f1 1A010000 		.4byte	0x11a
 2142 08f5 00       		.byte	0
 2143 08f6 0A       		.uleb128 0xa
 2144 08f7 04       		.byte	0x4
 2145 08f8 4B020000 		.4byte	0x24b
 2146 08fc 06       		.uleb128 0x6
 2147 08fd B0050000 		.4byte	.LASF188
 2148 0901 0C       		.byte	0xc
 2149 0902 0B       		.byte	0xb
 2150 0903 34       		.byte	0x34
 2151 0904 21090000 		.4byte	0x921
 2152 0908 07       		.uleb128 0x7
 2153 0909 FA090000 		.4byte	.LASF189
 2154 090d 0B       		.byte	0xb
 2155 090e 35       		.byte	0x35
 2156 090f 80020000 		.4byte	0x280
 2157 0913 00       		.byte	0
 2158 0914 07       		.uleb128 0x7
 2159 0915 92080000 		.4byte	.LASF190
 2160 0919 0B       		.byte	0xb
 2161 091a 37       		.byte	0x37
 2162 091b 25010000 		.4byte	0x125
 2163 091f 08       		.byte	0x8
 2164 0920 00       		.byte	0
 2165 0921 0A       		.uleb128 0xa
 2166 0922 04       		.byte	0x4
ARM GAS  /tmp/ccmGO9T8.s 			page 39


 2167 0923 FC080000 		.4byte	0x8fc
 2168 0927 06       		.uleb128 0x6
 2169 0928 230A0000 		.4byte	.LASF191
 2170 092c 10       		.byte	0x10
 2171 092d 0C       		.byte	0xc
 2172 092e 39       		.byte	0x39
 2173 092f 58090000 		.4byte	0x958
 2174 0933 07       		.uleb128 0x7
 2175 0934 CC060000 		.4byte	.LASF192
 2176 0938 0C       		.byte	0xc
 2177 0939 3A       		.byte	0x3a
 2178 093a 80020000 		.4byte	0x280
 2179 093e 00       		.byte	0
 2180 093f 07       		.uleb128 0x7
 2181 0940 30010000 		.4byte	.LASF193
 2182 0944 0C       		.byte	0xc
 2183 0945 3C       		.byte	0x3c
 2184 0946 56020000 		.4byte	0x256
 2185 094a 08       		.byte	0x8
 2186 094b 07       		.uleb128 0x7
 2187 094c 1C0C0000 		.4byte	.LASF194
 2188 0950 0C       		.byte	0xc
 2189 0951 3E       		.byte	0x3e
 2190 0952 9B090000 		.4byte	0x99b
 2191 0956 0C       		.byte	0xc
 2192 0957 00       		.byte	0
 2193 0958 0A       		.uleb128 0xa
 2194 0959 04       		.byte	0x4
 2195 095a 27090000 		.4byte	0x927
 2196 095e 0A       		.uleb128 0xa
 2197 095f 04       		.byte	0x4
 2198 0960 64090000 		.4byte	0x964
 2199 0964 18       		.uleb128 0x18
 2200 0965 69090000 		.4byte	0x969
 2201 0969 03       		.uleb128 0x3
 2202 096a 01       		.byte	0x1
 2203 096b 08       		.byte	0x8
 2204 096c 26040000 		.4byte	.LASF195
 2205 0970 05       		.uleb128 0x5
 2206 0971 30010000 		.4byte	0x130
 2207 0975 0A       		.uleb128 0xa
 2208 0976 04       		.byte	0x4
 2209 0977 35030000 		.4byte	0x335
 2210 097b 05       		.uleb128 0x5
 2211 097c 5E090000 		.4byte	0x95e
 2212 0980 19       		.uleb128 0x19
 2213 0981 0E070000 		.4byte	0x70e
 2214 0985 90090000 		.4byte	0x990
 2215 0989 1A       		.uleb128 0x1a
 2216 098a 99060000 		.4byte	0x699
 2217 098e 3A       		.byte	0x3a
 2218 098f 00       		.byte	0
 2219 0990 04       		.uleb128 0x4
 2220 0991 860A0000 		.4byte	.LASF196
 2221 0995 0C       		.byte	0xc
 2222 0996 34       		.byte	0x34
 2223 0997 27090000 		.4byte	0x927
ARM GAS  /tmp/ccmGO9T8.s 			page 40


 2224 099b 0A       		.uleb128 0xa
 2225 099c 04       		.byte	0x4
 2226 099d 90090000 		.4byte	0x990
 2227 09a1 03       		.uleb128 0x3
 2228 09a2 01       		.byte	0x1
 2229 09a3 02       		.byte	0x2
 2230 09a4 06040000 		.4byte	.LASF197
 2231 09a8 10       		.uleb128 0x10
 2232 09a9 01       		.byte	0x1
 2233 09aa 0D       		.byte	0xd
 2234 09ab 3F       		.byte	0x3f
 2235 09ac C3090000 		.4byte	0x9c3
 2236 09b0 11       		.uleb128 0x11
 2237 09b1 61050000 		.4byte	.LASF198
 2238 09b5 00       		.sleb128 0
 2239 09b6 11       		.uleb128 0x11
 2240 09b7 A3040000 		.4byte	.LASF199
 2241 09bb 01       		.sleb128 1
 2242 09bc 11       		.uleb128 0x11
 2243 09bd D4060000 		.4byte	.LASF200
 2244 09c1 02       		.sleb128 2
 2245 09c2 00       		.byte	0
 2246 09c3 04       		.uleb128 0x4
 2247 09c4 3C030000 		.4byte	.LASF201
 2248 09c8 0D       		.byte	0xd
 2249 09c9 43       		.byte	0x43
 2250 09ca A8090000 		.4byte	0x9a8
 2251 09ce 04       		.uleb128 0x4
 2252 09cf 0B0C0000 		.4byte	.LASF202
 2253 09d3 0D       		.byte	0xd
 2254 09d4 48       		.byte	0x48
 2255 09d5 D9090000 		.4byte	0x9d9
 2256 09d9 06       		.uleb128 0x6
 2257 09da 0B0C0000 		.4byte	.LASF202
 2258 09de 08       		.byte	0x8
 2259 09df 0E       		.byte	0xe
 2260 09e0 71       		.byte	0x71
 2261 09e1 FE090000 		.4byte	0x9fe
 2262 09e5 07       		.uleb128 0x7
 2263 09e6 F0000000 		.4byte	.LASF203
 2264 09ea 0E       		.byte	0xe
 2265 09eb 75       		.byte	0x75
 2266 09ec C3090000 		.4byte	0x9c3
 2267 09f0 00       		.byte	0
 2268 09f1 07       		.uleb128 0x7
 2269 09f2 E9000000 		.4byte	.LASF204
 2270 09f6 0E       		.byte	0xe
 2271 09f7 79       		.byte	0x79
 2272 09f8 8B0A0000 		.4byte	0xa8b
 2273 09fc 04       		.byte	0x4
 2274 09fd 00       		.byte	0
 2275 09fe 04       		.uleb128 0x4
 2276 09ff 8F090000 		.4byte	.LASF205
 2277 0a03 0E       		.byte	0xe
 2278 0a04 47       		.byte	0x47
 2279 0a05 AD000000 		.4byte	0xad
 2280 0a09 04       		.uleb128 0x4
ARM GAS  /tmp/ccmGO9T8.s 			page 41


 2281 0a0a FE070000 		.4byte	.LASF206
 2282 0a0e 0E       		.byte	0xe
 2283 0a0f 4F       		.byte	0x4f
 2284 0a10 140A0000 		.4byte	0xa14
 2285 0a14 0A       		.uleb128 0xa
 2286 0a15 04       		.byte	0x4
 2287 0a16 1A0A0000 		.4byte	0xa1a
 2288 0a1a 0C       		.uleb128 0xc
 2289 0a1b 2A0A0000 		.4byte	0xa2a
 2290 0a1f 0D       		.uleb128 0xd
 2291 0a20 2A0A0000 		.4byte	0xa2a
 2292 0a24 0D       		.uleb128 0xd
 2293 0a25 FE090000 		.4byte	0x9fe
 2294 0a29 00       		.byte	0
 2295 0a2a 0A       		.uleb128 0xa
 2296 0a2b 04       		.byte	0x4
 2297 0a2c CE090000 		.4byte	0x9ce
 2298 0a30 15       		.uleb128 0x15
 2299 0a31 08       		.byte	0x8
 2300 0a32 0E       		.byte	0xe
 2301 0a33 54       		.byte	0x54
 2302 0a34 500A0000 		.4byte	0xa50
 2303 0a38 07       		.uleb128 0x7
 2304 0a39 1E0A0000 		.4byte	.LASF207
 2305 0a3d 0E       		.byte	0xe
 2306 0a3e 58       		.byte	0x58
 2307 0a3f AD000000 		.4byte	0xad
 2308 0a43 00       		.byte	0
 2309 0a44 14       		.uleb128 0x14
 2310 0a45 636200   		.ascii	"cb\000"
 2311 0a48 0E       		.byte	0xe
 2312 0a49 5F       		.byte	0x5f
 2313 0a4a 090A0000 		.4byte	0xa09
 2314 0a4e 04       		.byte	0x4
 2315 0a4f 00       		.byte	0
 2316 0a50 04       		.uleb128 0x4
 2317 0a51 00010000 		.4byte	.LASF208
 2318 0a55 0E       		.byte	0xe
 2319 0a56 60       		.byte	0x60
 2320 0a57 300A0000 		.4byte	0xa30
 2321 0a5b 15       		.uleb128 0x15
 2322 0a5c B8       		.byte	0xb8
 2323 0a5d 0E       		.byte	0xe
 2324 0a5e 66       		.byte	0x66
 2325 0a5f 700A0000 		.4byte	0xa70
 2326 0a63 07       		.uleb128 0x7
 2327 0a64 0A090000 		.4byte	.LASF209
 2328 0a68 0E       		.byte	0xe
 2329 0a69 6A       		.byte	0x6a
 2330 0a6a 700A0000 		.4byte	0xa70
 2331 0a6e 00       		.byte	0
 2332 0a6f 00       		.byte	0
 2333 0a70 19       		.uleb128 0x19
 2334 0a71 500A0000 		.4byte	0xa50
 2335 0a75 800A0000 		.4byte	0xa80
 2336 0a79 1A       		.uleb128 0x1a
 2337 0a7a 99060000 		.4byte	0x699
ARM GAS  /tmp/ccmGO9T8.s 			page 42


 2338 0a7e 16       		.byte	0x16
 2339 0a7f 00       		.byte	0
 2340 0a80 04       		.uleb128 0x4
 2341 0a81 CD050000 		.4byte	.LASF210
 2342 0a85 0E       		.byte	0xe
 2343 0a86 6C       		.byte	0x6c
 2344 0a87 5B0A0000 		.4byte	0xa5b
 2345 0a8b 0A       		.uleb128 0xa
 2346 0a8c 04       		.byte	0x4
 2347 0a8d 910A0000 		.4byte	0xa91
 2348 0a91 18       		.uleb128 0x18
 2349 0a92 800A0000 		.4byte	0xa80
 2350 0a96 1B       		.uleb128 0x1b
 2351 0a97 88050000 		.4byte	.LASF211
 2352 0a9b 01       		.byte	0x1
 2353 0a9c 38       		.byte	0x38
 2354 0a9d 00000000 		.4byte	.LFB256
 2355 0aa1 24000000 		.4byte	.LFE256-.LFB256
 2356 0aa5 01       		.uleb128 0x1
 2357 0aa6 9C       		.byte	0x9c
 2358 0aa7 C40A0000 		.4byte	0xac4
 2359 0aab 1C       		.uleb128 0x1c
 2360 0aac 12000000 		.4byte	.LVL0
 2361 0ab0 BA0A0000 		.4byte	0xaba
 2362 0ab4 1D       		.uleb128 0x1d
 2363 0ab5 01       		.uleb128 0x1
 2364 0ab6 51       		.byte	0x51
 2365 0ab7 01       		.uleb128 0x1
 2366 0ab8 30       		.byte	0x30
 2367 0ab9 00       		.byte	0
 2368 0aba 1E       		.uleb128 0x1e
 2369 0abb 1A000000 		.4byte	.LVL1
 2370 0abf 63100000 		.4byte	0x1063
 2371 0ac3 00       		.byte	0
 2372 0ac4 1B       		.uleb128 0x1b
 2373 0ac5 A7050000 		.4byte	.LASF212
 2374 0ac9 01       		.byte	0x1
 2375 0aca 47       		.byte	0x47
 2376 0acb 00000000 		.4byte	.LFB257
 2377 0acf 24000000 		.4byte	.LFE257-.LFB257
 2378 0ad3 01       		.uleb128 0x1
 2379 0ad4 9C       		.byte	0x9c
 2380 0ad5 F20A0000 		.4byte	0xaf2
 2381 0ad9 1C       		.uleb128 0x1c
 2382 0ada 12000000 		.4byte	.LVL2
 2383 0ade E80A0000 		.4byte	0xae8
 2384 0ae2 1D       		.uleb128 0x1d
 2385 0ae3 01       		.uleb128 0x1
 2386 0ae4 51       		.byte	0x51
 2387 0ae5 01       		.uleb128 0x1
 2388 0ae6 31       		.byte	0x31
 2389 0ae7 00       		.byte	0
 2390 0ae8 1E       		.uleb128 0x1e
 2391 0ae9 1A000000 		.4byte	.LVL3
 2392 0aed 63100000 		.4byte	0x1063
 2393 0af1 00       		.byte	0
 2394 0af2 1B       		.uleb128 0x1b
ARM GAS  /tmp/ccmGO9T8.s 			page 43


 2395 0af3 17060000 		.4byte	.LASF213
 2396 0af7 01       		.byte	0x1
 2397 0af8 56       		.byte	0x56
 2398 0af9 00000000 		.4byte	.LFB258
 2399 0afd 24000000 		.4byte	.LFE258-.LFB258
 2400 0b01 01       		.uleb128 0x1
 2401 0b02 9C       		.byte	0x9c
 2402 0b03 200B0000 		.4byte	0xb20
 2403 0b07 1C       		.uleb128 0x1c
 2404 0b08 12000000 		.4byte	.LVL4
 2405 0b0c 160B0000 		.4byte	0xb16
 2406 0b10 1D       		.uleb128 0x1d
 2407 0b11 01       		.uleb128 0x1
 2408 0b12 51       		.byte	0x51
 2409 0b13 01       		.uleb128 0x1
 2410 0b14 32       		.byte	0x32
 2411 0b15 00       		.byte	0
 2412 0b16 1E       		.uleb128 0x1e
 2413 0b17 1A000000 		.4byte	.LVL5
 2414 0b1b 63100000 		.4byte	0x1063
 2415 0b1f 00       		.byte	0
 2416 0b20 1B       		.uleb128 0x1b
 2417 0b21 88000000 		.4byte	.LASF214
 2418 0b25 01       		.byte	0x1
 2419 0b26 65       		.byte	0x65
 2420 0b27 00000000 		.4byte	.LFB259
 2421 0b2b 24000000 		.4byte	.LFE259-.LFB259
 2422 0b2f 01       		.uleb128 0x1
 2423 0b30 9C       		.byte	0x9c
 2424 0b31 4E0B0000 		.4byte	0xb4e
 2425 0b35 1C       		.uleb128 0x1c
 2426 0b36 12000000 		.4byte	.LVL6
 2427 0b3a 440B0000 		.4byte	0xb44
 2428 0b3e 1D       		.uleb128 0x1d
 2429 0b3f 01       		.uleb128 0x1
 2430 0b40 51       		.byte	0x51
 2431 0b41 01       		.uleb128 0x1
 2432 0b42 33       		.byte	0x33
 2433 0b43 00       		.byte	0
 2434 0b44 1E       		.uleb128 0x1e
 2435 0b45 1A000000 		.4byte	.LVL7
 2436 0b49 63100000 		.4byte	0x1063
 2437 0b4d 00       		.byte	0
 2438 0b4e 1B       		.uleb128 0x1b
 2439 0b4f 3D060000 		.4byte	.LASF215
 2440 0b53 01       		.byte	0x1
 2441 0b54 74       		.byte	0x74
 2442 0b55 00000000 		.4byte	.LFB260
 2443 0b59 24000000 		.4byte	.LFE260-.LFB260
 2444 0b5d 01       		.uleb128 0x1
 2445 0b5e 9C       		.byte	0x9c
 2446 0b5f 7C0B0000 		.4byte	0xb7c
 2447 0b63 1C       		.uleb128 0x1c
 2448 0b64 12000000 		.4byte	.LVL8
 2449 0b68 720B0000 		.4byte	0xb72
 2450 0b6c 1D       		.uleb128 0x1d
 2451 0b6d 01       		.uleb128 0x1
ARM GAS  /tmp/ccmGO9T8.s 			page 44


 2452 0b6e 51       		.byte	0x51
 2453 0b6f 01       		.uleb128 0x1
 2454 0b70 34       		.byte	0x34
 2455 0b71 00       		.byte	0
 2456 0b72 1E       		.uleb128 0x1e
 2457 0b73 1A000000 		.4byte	.LVL9
 2458 0b77 63100000 		.4byte	0x1063
 2459 0b7b 00       		.byte	0
 2460 0b7c 1B       		.uleb128 0x1b
 2461 0b7d 42070000 		.4byte	.LASF216
 2462 0b81 01       		.byte	0x1
 2463 0b82 83       		.byte	0x83
 2464 0b83 00000000 		.4byte	.LFB261
 2465 0b87 6C000000 		.4byte	.LFE261-.LFB261
 2466 0b8b 01       		.uleb128 0x1
 2467 0b8c 9C       		.byte	0x9c
 2468 0b8d F00B0000 		.4byte	0xbf0
 2469 0b91 1F       		.uleb128 0x1f
 2470 0b92 707200   		.ascii	"pr\000"
 2471 0b95 01       		.byte	0x1
 2472 0b96 84       		.byte	0x84
 2473 0b97 AD000000 		.4byte	0xad
 2474 0b9b 00000000 		.4byte	.LLST0
 2475 0b9f 1C       		.uleb128 0x1c
 2476 0ba0 2A000000 		.4byte	.LVL12
 2477 0ba4 AE0B0000 		.4byte	0xbae
 2478 0ba8 1D       		.uleb128 0x1d
 2479 0ba9 01       		.uleb128 0x1
 2480 0baa 51       		.byte	0x51
 2481 0bab 01       		.uleb128 0x1
 2482 0bac 39       		.byte	0x39
 2483 0bad 00       		.byte	0
 2484 0bae 1E       		.uleb128 0x1e
 2485 0baf 32000000 		.4byte	.LVL14
 2486 0bb3 63100000 		.4byte	0x1063
 2487 0bb7 1C       		.uleb128 0x1c
 2488 0bb8 3C000000 		.4byte	.LVL15
 2489 0bbc C60B0000 		.4byte	0xbc6
 2490 0bc0 1D       		.uleb128 0x1d
 2491 0bc1 01       		.uleb128 0x1
 2492 0bc2 51       		.byte	0x51
 2493 0bc3 01       		.uleb128 0x1
 2494 0bc4 38       		.byte	0x38
 2495 0bc5 00       		.byte	0
 2496 0bc6 1C       		.uleb128 0x1c
 2497 0bc7 48000000 		.4byte	.LVL16
 2498 0bcb D50B0000 		.4byte	0xbd5
 2499 0bcf 1D       		.uleb128 0x1d
 2500 0bd0 01       		.uleb128 0x1
 2501 0bd1 51       		.byte	0x51
 2502 0bd2 01       		.uleb128 0x1
 2503 0bd3 37       		.byte	0x37
 2504 0bd4 00       		.byte	0
 2505 0bd5 1C       		.uleb128 0x1c
 2506 0bd6 54000000 		.4byte	.LVL17
 2507 0bda E40B0000 		.4byte	0xbe4
 2508 0bde 1D       		.uleb128 0x1d
ARM GAS  /tmp/ccmGO9T8.s 			page 45


 2509 0bdf 01       		.uleb128 0x1
 2510 0be0 51       		.byte	0x51
 2511 0be1 01       		.uleb128 0x1
 2512 0be2 36       		.byte	0x36
 2513 0be3 00       		.byte	0
 2514 0be4 20       		.uleb128 0x20
 2515 0be5 60000000 		.4byte	.LVL19
 2516 0be9 1D       		.uleb128 0x1d
 2517 0bea 01       		.uleb128 0x1
 2518 0beb 51       		.byte	0x51
 2519 0bec 01       		.uleb128 0x1
 2520 0bed 35       		.byte	0x35
 2521 0bee 00       		.byte	0
 2522 0bef 00       		.byte	0
 2523 0bf0 1B       		.uleb128 0x1b
 2524 0bf1 7A0B0000 		.4byte	.LASF217
 2525 0bf5 01       		.byte	0x1
 2526 0bf6 9D       		.byte	0x9d
 2527 0bf7 00000000 		.4byte	.LFB262
 2528 0bfb 7C000000 		.4byte	.LFE262-.LFB262
 2529 0bff 01       		.uleb128 0x1
 2530 0c00 9C       		.byte	0x9c
 2531 0c01 730C0000 		.4byte	0xc73
 2532 0c05 1F       		.uleb128 0x1f
 2533 0c06 707200   		.ascii	"pr\000"
 2534 0c09 01       		.byte	0x1
 2535 0c0a 9E       		.byte	0x9e
 2536 0c0b AD000000 		.4byte	0xad
 2537 0c0f 51000000 		.4byte	.LLST1
 2538 0c13 1C       		.uleb128 0x1c
 2539 0c14 2E000000 		.4byte	.LVL23
 2540 0c18 220C0000 		.4byte	0xc22
 2541 0c1c 1D       		.uleb128 0x1d
 2542 0c1d 01       		.uleb128 0x1
 2543 0c1e 51       		.byte	0x51
 2544 0c1f 01       		.uleb128 0x1
 2545 0c20 3F       		.byte	0x3f
 2546 0c21 00       		.byte	0
 2547 0c22 1E       		.uleb128 0x1e
 2548 0c23 36000000 		.4byte	.LVL25
 2549 0c27 63100000 		.4byte	0x1063
 2550 0c2b 1C       		.uleb128 0x1c
 2551 0c2c 40000000 		.4byte	.LVL26
 2552 0c30 3A0C0000 		.4byte	0xc3a
 2553 0c34 1D       		.uleb128 0x1d
 2554 0c35 01       		.uleb128 0x1
 2555 0c36 51       		.byte	0x51
 2556 0c37 01       		.uleb128 0x1
 2557 0c38 3E       		.byte	0x3e
 2558 0c39 00       		.byte	0
 2559 0c3a 1C       		.uleb128 0x1c
 2560 0c3b 4C000000 		.4byte	.LVL27
 2561 0c3f 490C0000 		.4byte	0xc49
 2562 0c43 1D       		.uleb128 0x1d
 2563 0c44 01       		.uleb128 0x1
 2564 0c45 51       		.byte	0x51
 2565 0c46 01       		.uleb128 0x1
ARM GAS  /tmp/ccmGO9T8.s 			page 46


 2566 0c47 3D       		.byte	0x3d
 2567 0c48 00       		.byte	0
 2568 0c49 1C       		.uleb128 0x1c
 2569 0c4a 58000000 		.4byte	.LVL28
 2570 0c4e 580C0000 		.4byte	0xc58
 2571 0c52 1D       		.uleb128 0x1d
 2572 0c53 01       		.uleb128 0x1
 2573 0c54 51       		.byte	0x51
 2574 0c55 01       		.uleb128 0x1
 2575 0c56 3C       		.byte	0x3c
 2576 0c57 00       		.byte	0
 2577 0c58 1C       		.uleb128 0x1c
 2578 0c59 64000000 		.4byte	.LVL29
 2579 0c5d 670C0000 		.4byte	0xc67
 2580 0c61 1D       		.uleb128 0x1d
 2581 0c62 01       		.uleb128 0x1
 2582 0c63 51       		.byte	0x51
 2583 0c64 01       		.uleb128 0x1
 2584 0c65 3B       		.byte	0x3b
 2585 0c66 00       		.byte	0
 2586 0c67 20       		.uleb128 0x20
 2587 0c68 70000000 		.4byte	.LVL32
 2588 0c6c 1D       		.uleb128 0x1d
 2589 0c6d 01       		.uleb128 0x1
 2590 0c6e 51       		.byte	0x51
 2591 0c6f 01       		.uleb128 0x1
 2592 0c70 3A       		.byte	0x3a
 2593 0c71 00       		.byte	0
 2594 0c72 00       		.byte	0
 2595 0c73 1B       		.uleb128 0x1b
 2596 0c74 AC040000 		.4byte	.LASF218
 2597 0c78 01       		.byte	0x1
 2598 0c79 BA       		.byte	0xba
 2599 0c7a 00000000 		.4byte	.LFB263
 2600 0c7e 28000000 		.4byte	.LFE263-.LFB263
 2601 0c82 01       		.uleb128 0x1
 2602 0c83 9C       		.byte	0x9c
 2603 0c84 A10C0000 		.4byte	0xca1
 2604 0c88 1C       		.uleb128 0x1c
 2605 0c89 16000000 		.4byte	.LVL33
 2606 0c8d 970C0000 		.4byte	0xc97
 2607 0c91 1D       		.uleb128 0x1d
 2608 0c92 01       		.uleb128 0x1
 2609 0c93 51       		.byte	0x51
 2610 0c94 01       		.uleb128 0x1
 2611 0c95 40       		.byte	0x40
 2612 0c96 00       		.byte	0
 2613 0c97 1E       		.uleb128 0x1e
 2614 0c98 1E000000 		.4byte	.LVL34
 2615 0c9c 63100000 		.4byte	0x1063
 2616 0ca0 00       		.byte	0
 2617 0ca1 1B       		.uleb128 0x1b
 2618 0ca2 830B0000 		.4byte	.LASF219
 2619 0ca6 01       		.byte	0x1
 2620 0ca7 C9       		.byte	0xc9
 2621 0ca8 00000000 		.4byte	.LFB264
 2622 0cac 28000000 		.4byte	.LFE264-.LFB264
ARM GAS  /tmp/ccmGO9T8.s 			page 47


 2623 0cb0 01       		.uleb128 0x1
 2624 0cb1 9C       		.byte	0x9c
 2625 0cb2 CF0C0000 		.4byte	0xccf
 2626 0cb6 1C       		.uleb128 0x1c
 2627 0cb7 16000000 		.4byte	.LVL35
 2628 0cbb C50C0000 		.4byte	0xcc5
 2629 0cbf 1D       		.uleb128 0x1d
 2630 0cc0 01       		.uleb128 0x1
 2631 0cc1 51       		.byte	0x51
 2632 0cc2 01       		.uleb128 0x1
 2633 0cc3 41       		.byte	0x41
 2634 0cc4 00       		.byte	0
 2635 0cc5 1E       		.uleb128 0x1e
 2636 0cc6 1E000000 		.4byte	.LVL36
 2637 0cca 63100000 		.4byte	0x1063
 2638 0cce 00       		.byte	0
 2639 0ccf 1B       		.uleb128 0x1b
 2640 0cd0 66000000 		.4byte	.LASF220
 2641 0cd4 01       		.byte	0x1
 2642 0cd5 D8       		.byte	0xd8
 2643 0cd6 00000000 		.4byte	.LFB265
 2644 0cda 28000000 		.4byte	.LFE265-.LFB265
 2645 0cde 01       		.uleb128 0x1
 2646 0cdf 9C       		.byte	0x9c
 2647 0ce0 FD0C0000 		.4byte	0xcfd
 2648 0ce4 1C       		.uleb128 0x1c
 2649 0ce5 16000000 		.4byte	.LVL37
 2650 0ce9 F30C0000 		.4byte	0xcf3
 2651 0ced 1D       		.uleb128 0x1d
 2652 0cee 01       		.uleb128 0x1
 2653 0cef 51       		.byte	0x51
 2654 0cf0 01       		.uleb128 0x1
 2655 0cf1 42       		.byte	0x42
 2656 0cf2 00       		.byte	0
 2657 0cf3 1E       		.uleb128 0x1e
 2658 0cf4 1E000000 		.4byte	.LVL38
 2659 0cf8 63100000 		.4byte	0x1063
 2660 0cfc 00       		.byte	0
 2661 0cfd 1B       		.uleb128 0x1b
 2662 0cfe 3F090000 		.4byte	.LASF221
 2663 0d02 01       		.byte	0x1
 2664 0d03 E8       		.byte	0xe8
 2665 0d04 00000000 		.4byte	.LFB266
 2666 0d08 28000000 		.4byte	.LFE266-.LFB266
 2667 0d0c 01       		.uleb128 0x1
 2668 0d0d 9C       		.byte	0x9c
 2669 0d0e 2B0D0000 		.4byte	0xd2b
 2670 0d12 1C       		.uleb128 0x1c
 2671 0d13 16000000 		.4byte	.LVL39
 2672 0d17 210D0000 		.4byte	0xd21
 2673 0d1b 1D       		.uleb128 0x1d
 2674 0d1c 01       		.uleb128 0x1
 2675 0d1d 51       		.byte	0x51
 2676 0d1e 01       		.uleb128 0x1
 2677 0d1f 43       		.byte	0x43
 2678 0d20 00       		.byte	0
 2679 0d21 1E       		.uleb128 0x1e
ARM GAS  /tmp/ccmGO9T8.s 			page 48


 2680 0d22 1E000000 		.4byte	.LVL40
 2681 0d26 63100000 		.4byte	0x1063
 2682 0d2a 00       		.byte	0
 2683 0d2b 1B       		.uleb128 0x1b
 2684 0d2c 7C0A0000 		.4byte	.LASF222
 2685 0d30 01       		.byte	0x1
 2686 0d31 F9       		.byte	0xf9
 2687 0d32 00000000 		.4byte	.LFB267
 2688 0d36 28000000 		.4byte	.LFE267-.LFB267
 2689 0d3a 01       		.uleb128 0x1
 2690 0d3b 9C       		.byte	0x9c
 2691 0d3c 590D0000 		.4byte	0xd59
 2692 0d40 1C       		.uleb128 0x1c
 2693 0d41 16000000 		.4byte	.LVL41
 2694 0d45 4F0D0000 		.4byte	0xd4f
 2695 0d49 1D       		.uleb128 0x1d
 2696 0d4a 01       		.uleb128 0x1
 2697 0d4b 51       		.byte	0x51
 2698 0d4c 01       		.uleb128 0x1
 2699 0d4d 44       		.byte	0x44
 2700 0d4e 00       		.byte	0
 2701 0d4f 1E       		.uleb128 0x1e
 2702 0d50 1E000000 		.4byte	.LVL42
 2703 0d54 63100000 		.4byte	0x1063
 2704 0d58 00       		.byte	0
 2705 0d59 21       		.uleb128 0x21
 2706 0d5a B5040000 		.4byte	.LASF223
 2707 0d5e 01       		.byte	0x1
 2708 0d5f 0A01     		.2byte	0x10a
 2709 0d61 00000000 		.4byte	.LFB268
 2710 0d65 28000000 		.4byte	.LFE268-.LFB268
 2711 0d69 01       		.uleb128 0x1
 2712 0d6a 9C       		.byte	0x9c
 2713 0d6b 880D0000 		.4byte	0xd88
 2714 0d6f 1C       		.uleb128 0x1c
 2715 0d70 16000000 		.4byte	.LVL43
 2716 0d74 7E0D0000 		.4byte	0xd7e
 2717 0d78 1D       		.uleb128 0x1d
 2718 0d79 01       		.uleb128 0x1
 2719 0d7a 51       		.byte	0x51
 2720 0d7b 01       		.uleb128 0x1
 2721 0d7c 45       		.byte	0x45
 2722 0d7d 00       		.byte	0
 2723 0d7e 1E       		.uleb128 0x1e
 2724 0d7f 1E000000 		.4byte	.LVL44
 2725 0d83 63100000 		.4byte	0x1063
 2726 0d87 00       		.byte	0
 2727 0d88 21       		.uleb128 0x21
 2728 0d89 E4040000 		.4byte	.LASF224
 2729 0d8d 01       		.byte	0x1
 2730 0d8e 1A01     		.2byte	0x11a
 2731 0d90 00000000 		.4byte	.LFB269
 2732 0d94 28000000 		.4byte	.LFE269-.LFB269
 2733 0d98 01       		.uleb128 0x1
 2734 0d99 9C       		.byte	0x9c
 2735 0d9a B70D0000 		.4byte	0xdb7
 2736 0d9e 1C       		.uleb128 0x1c
ARM GAS  /tmp/ccmGO9T8.s 			page 49


 2737 0d9f 16000000 		.4byte	.LVL45
 2738 0da3 AD0D0000 		.4byte	0xdad
 2739 0da7 1D       		.uleb128 0x1d
 2740 0da8 01       		.uleb128 0x1
 2741 0da9 51       		.byte	0x51
 2742 0daa 01       		.uleb128 0x1
 2743 0dab 46       		.byte	0x46
 2744 0dac 00       		.byte	0
 2745 0dad 1E       		.uleb128 0x1e
 2746 0dae 1E000000 		.4byte	.LVL46
 2747 0db2 63100000 		.4byte	0x1063
 2748 0db6 00       		.byte	0
 2749 0db7 21       		.uleb128 0x21
 2750 0db8 E6070000 		.4byte	.LASF225
 2751 0dbc 01       		.byte	0x1
 2752 0dbd 2D01     		.2byte	0x12d
 2753 0dbf 00000000 		.4byte	.LFB270
 2754 0dc3 76000000 		.4byte	.LFE270-.LFB270
 2755 0dc7 01       		.uleb128 0x1
 2756 0dc8 9C       		.byte	0x9c
 2757 0dc9 1F0F0000 		.4byte	0xf1f
 2758 0dcd 22       		.uleb128 0x22
 2759 0dce 0A000000 		.4byte	.LVL47
 2760 0dd2 6B100000 		.4byte	0x106b
 2761 0dd6 E50D0000 		.4byte	0xde5
 2762 0dda 1D       		.uleb128 0x1d
 2763 0ddb 01       		.uleb128 0x1
 2764 0ddc 51       		.byte	0x51
 2765 0ddd 01       		.uleb128 0x1
 2766 0dde 36       		.byte	0x36
 2767 0ddf 1D       		.uleb128 0x1d
 2768 0de0 01       		.uleb128 0x1
 2769 0de1 50       		.byte	0x50
 2770 0de2 01       		.uleb128 0x1
 2771 0de3 36       		.byte	0x36
 2772 0de4 00       		.byte	0
 2773 0de5 22       		.uleb128 0x22
 2774 0de6 12000000 		.4byte	.LVL48
 2775 0dea 6B100000 		.4byte	0x106b
 2776 0dee FD0D0000 		.4byte	0xdfd
 2777 0df2 1D       		.uleb128 0x1d
 2778 0df3 01       		.uleb128 0x1
 2779 0df4 51       		.byte	0x51
 2780 0df5 01       		.uleb128 0x1
 2781 0df6 36       		.byte	0x36
 2782 0df7 1D       		.uleb128 0x1d
 2783 0df8 01       		.uleb128 0x1
 2784 0df9 50       		.byte	0x50
 2785 0dfa 01       		.uleb128 0x1
 2786 0dfb 37       		.byte	0x37
 2787 0dfc 00       		.byte	0
 2788 0dfd 22       		.uleb128 0x22
 2789 0dfe 1A000000 		.4byte	.LVL49
 2790 0e02 6B100000 		.4byte	0x106b
 2791 0e06 150E0000 		.4byte	0xe15
 2792 0e0a 1D       		.uleb128 0x1d
 2793 0e0b 01       		.uleb128 0x1
ARM GAS  /tmp/ccmGO9T8.s 			page 50


 2794 0e0c 51       		.byte	0x51
 2795 0e0d 01       		.uleb128 0x1
 2796 0e0e 36       		.byte	0x36
 2797 0e0f 1D       		.uleb128 0x1d
 2798 0e10 01       		.uleb128 0x1
 2799 0e11 50       		.byte	0x50
 2800 0e12 01       		.uleb128 0x1
 2801 0e13 38       		.byte	0x38
 2802 0e14 00       		.byte	0
 2803 0e15 22       		.uleb128 0x22
 2804 0e16 22000000 		.4byte	.LVL50
 2805 0e1a 6B100000 		.4byte	0x106b
 2806 0e1e 2D0E0000 		.4byte	0xe2d
 2807 0e22 1D       		.uleb128 0x1d
 2808 0e23 01       		.uleb128 0x1
 2809 0e24 51       		.byte	0x51
 2810 0e25 01       		.uleb128 0x1
 2811 0e26 36       		.byte	0x36
 2812 0e27 1D       		.uleb128 0x1d
 2813 0e28 01       		.uleb128 0x1
 2814 0e29 50       		.byte	0x50
 2815 0e2a 01       		.uleb128 0x1
 2816 0e2b 39       		.byte	0x39
 2817 0e2c 00       		.byte	0
 2818 0e2d 22       		.uleb128 0x22
 2819 0e2e 2A000000 		.4byte	.LVL51
 2820 0e32 6B100000 		.4byte	0x106b
 2821 0e36 450E0000 		.4byte	0xe45
 2822 0e3a 1D       		.uleb128 0x1d
 2823 0e3b 01       		.uleb128 0x1
 2824 0e3c 51       		.byte	0x51
 2825 0e3d 01       		.uleb128 0x1
 2826 0e3e 36       		.byte	0x36
 2827 0e3f 1D       		.uleb128 0x1d
 2828 0e40 01       		.uleb128 0x1
 2829 0e41 50       		.byte	0x50
 2830 0e42 01       		.uleb128 0x1
 2831 0e43 3A       		.byte	0x3a
 2832 0e44 00       		.byte	0
 2833 0e45 22       		.uleb128 0x22
 2834 0e46 32000000 		.4byte	.LVL52
 2835 0e4a 6B100000 		.4byte	0x106b
 2836 0e4e 5D0E0000 		.4byte	0xe5d
 2837 0e52 1D       		.uleb128 0x1d
 2838 0e53 01       		.uleb128 0x1
 2839 0e54 51       		.byte	0x51
 2840 0e55 01       		.uleb128 0x1
 2841 0e56 36       		.byte	0x36
 2842 0e57 1D       		.uleb128 0x1d
 2843 0e58 01       		.uleb128 0x1
 2844 0e59 50       		.byte	0x50
 2845 0e5a 01       		.uleb128 0x1
 2846 0e5b 47       		.byte	0x47
 2847 0e5c 00       		.byte	0
 2848 0e5d 22       		.uleb128 0x22
 2849 0e5e 3A000000 		.4byte	.LVL53
 2850 0e62 6B100000 		.4byte	0x106b
ARM GAS  /tmp/ccmGO9T8.s 			page 51


 2851 0e66 760E0000 		.4byte	0xe76
 2852 0e6a 1D       		.uleb128 0x1d
 2853 0e6b 01       		.uleb128 0x1
 2854 0e6c 51       		.byte	0x51
 2855 0e6d 01       		.uleb128 0x1
 2856 0e6e 36       		.byte	0x36
 2857 0e6f 1D       		.uleb128 0x1d
 2858 0e70 01       		.uleb128 0x1
 2859 0e71 50       		.byte	0x50
 2860 0e72 02       		.uleb128 0x2
 2861 0e73 08       		.byte	0x8
 2862 0e74 28       		.byte	0x28
 2863 0e75 00       		.byte	0
 2864 0e76 22       		.uleb128 0x22
 2865 0e77 42000000 		.4byte	.LVL54
 2866 0e7b 6B100000 		.4byte	0x106b
 2867 0e7f 8E0E0000 		.4byte	0xe8e
 2868 0e83 1D       		.uleb128 0x1d
 2869 0e84 01       		.uleb128 0x1
 2870 0e85 51       		.byte	0x51
 2871 0e86 01       		.uleb128 0x1
 2872 0e87 36       		.byte	0x36
 2873 0e88 1D       		.uleb128 0x1d
 2874 0e89 01       		.uleb128 0x1
 2875 0e8a 50       		.byte	0x50
 2876 0e8b 01       		.uleb128 0x1
 2877 0e8c 31       		.byte	0x31
 2878 0e8d 00       		.byte	0
 2879 0e8e 22       		.uleb128 0x22
 2880 0e8f 4A000000 		.4byte	.LVL55
 2881 0e93 6B100000 		.4byte	0x106b
 2882 0e97 A70E0000 		.4byte	0xea7
 2883 0e9b 1D       		.uleb128 0x1d
 2884 0e9c 01       		.uleb128 0x1
 2885 0e9d 51       		.byte	0x51
 2886 0e9e 01       		.uleb128 0x1
 2887 0e9f 3F       		.byte	0x3f
 2888 0ea0 1D       		.uleb128 0x1d
 2889 0ea1 01       		.uleb128 0x1
 2890 0ea2 50       		.byte	0x50
 2891 0ea3 02       		.uleb128 0x2
 2892 0ea4 08       		.byte	0x8
 2893 0ea5 29       		.byte	0x29
 2894 0ea6 00       		.byte	0
 2895 0ea7 22       		.uleb128 0x22
 2896 0ea8 52000000 		.4byte	.LVL56
 2897 0eac 6B100000 		.4byte	0x106b
 2898 0eb0 C00E0000 		.4byte	0xec0
 2899 0eb4 1D       		.uleb128 0x1d
 2900 0eb5 01       		.uleb128 0x1
 2901 0eb6 51       		.byte	0x51
 2902 0eb7 01       		.uleb128 0x1
 2903 0eb8 36       		.byte	0x36
 2904 0eb9 1D       		.uleb128 0x1d
 2905 0eba 01       		.uleb128 0x1
 2906 0ebb 50       		.byte	0x50
 2907 0ebc 02       		.uleb128 0x2
ARM GAS  /tmp/ccmGO9T8.s 			page 52


 2908 0ebd 08       		.byte	0x8
 2909 0ebe 2A       		.byte	0x2a
 2910 0ebf 00       		.byte	0
 2911 0ec0 22       		.uleb128 0x22
 2912 0ec1 5A000000 		.4byte	.LVL57
 2913 0ec5 6B100000 		.4byte	0x106b
 2914 0ec9 D90E0000 		.4byte	0xed9
 2915 0ecd 1D       		.uleb128 0x1d
 2916 0ece 01       		.uleb128 0x1
 2917 0ecf 51       		.byte	0x51
 2918 0ed0 01       		.uleb128 0x1
 2919 0ed1 36       		.byte	0x36
 2920 0ed2 1D       		.uleb128 0x1d
 2921 0ed3 01       		.uleb128 0x1
 2922 0ed4 50       		.byte	0x50
 2923 0ed5 02       		.uleb128 0x2
 2924 0ed6 08       		.byte	0x8
 2925 0ed7 3E       		.byte	0x3e
 2926 0ed8 00       		.byte	0
 2927 0ed9 22       		.uleb128 0x22
 2928 0eda 62000000 		.4byte	.LVL58
 2929 0ede 6B100000 		.4byte	0x106b
 2930 0ee2 F20E0000 		.4byte	0xef2
 2931 0ee6 1D       		.uleb128 0x1d
 2932 0ee7 01       		.uleb128 0x1
 2933 0ee8 51       		.byte	0x51
 2934 0ee9 01       		.uleb128 0x1
 2935 0eea 36       		.byte	0x36
 2936 0eeb 1D       		.uleb128 0x1d
 2937 0eec 01       		.uleb128 0x1
 2938 0eed 50       		.byte	0x50
 2939 0eee 02       		.uleb128 0x2
 2940 0eef 08       		.byte	0x8
 2941 0ef0 4C       		.byte	0x4c
 2942 0ef1 00       		.byte	0
 2943 0ef2 22       		.uleb128 0x22
 2944 0ef3 6A000000 		.4byte	.LVL59
 2945 0ef7 6B100000 		.4byte	0x106b
 2946 0efb 0A0F0000 		.4byte	0xf0a
 2947 0eff 1D       		.uleb128 0x1d
 2948 0f00 01       		.uleb128 0x1
 2949 0f01 51       		.byte	0x51
 2950 0f02 01       		.uleb128 0x1
 2951 0f03 3F       		.byte	0x3f
 2952 0f04 1D       		.uleb128 0x1d
 2953 0f05 01       		.uleb128 0x1
 2954 0f06 50       		.byte	0x50
 2955 0f07 01       		.uleb128 0x1
 2956 0f08 32       		.byte	0x32
 2957 0f09 00       		.byte	0
 2958 0f0a 23       		.uleb128 0x23
 2959 0f0b 76000000 		.4byte	.LVL60
 2960 0f0f 6B100000 		.4byte	0x106b
 2961 0f13 1D       		.uleb128 0x1d
 2962 0f14 01       		.uleb128 0x1
 2963 0f15 51       		.byte	0x51
 2964 0f16 01       		.uleb128 0x1
ARM GAS  /tmp/ccmGO9T8.s 			page 53


 2965 0f17 3F       		.byte	0x3f
 2966 0f18 1D       		.uleb128 0x1d
 2967 0f19 01       		.uleb128 0x1
 2968 0f1a 50       		.byte	0x50
 2969 0f1b 01       		.uleb128 0x1
 2970 0f1c 33       		.byte	0x33
 2971 0f1d 00       		.byte	0
 2972 0f1e 00       		.byte	0
 2973 0f1f 21       		.uleb128 0x21
 2974 0f20 B1030000 		.4byte	.LASF226
 2975 0f24 01       		.byte	0x1
 2976 0f25 4A01     		.2byte	0x14a
 2977 0f27 00000000 		.4byte	.LFB271
 2978 0f2b 5A000000 		.4byte	.LFE271-.LFB271
 2979 0f2f 01       		.uleb128 0x1
 2980 0f30 9C       		.byte	0x9c
 2981 0f31 41100000 		.4byte	0x1041
 2982 0f35 22       		.uleb128 0x22
 2983 0f36 08000000 		.4byte	.LVL61
 2984 0f3a 81100000 		.4byte	0x1081
 2985 0f3e 480F0000 		.4byte	0xf48
 2986 0f42 1D       		.uleb128 0x1d
 2987 0f43 01       		.uleb128 0x1
 2988 0f44 50       		.byte	0x50
 2989 0f45 01       		.uleb128 0x1
 2990 0f46 36       		.byte	0x36
 2991 0f47 00       		.byte	0
 2992 0f48 22       		.uleb128 0x22
 2993 0f49 0E000000 		.4byte	.LVL62
 2994 0f4d 81100000 		.4byte	0x1081
 2995 0f51 5B0F0000 		.4byte	0xf5b
 2996 0f55 1D       		.uleb128 0x1d
 2997 0f56 01       		.uleb128 0x1
 2998 0f57 50       		.byte	0x50
 2999 0f58 01       		.uleb128 0x1
 3000 0f59 37       		.byte	0x37
 3001 0f5a 00       		.byte	0
 3002 0f5b 22       		.uleb128 0x22
 3003 0f5c 14000000 		.4byte	.LVL63
 3004 0f60 81100000 		.4byte	0x1081
 3005 0f64 6E0F0000 		.4byte	0xf6e
 3006 0f68 1D       		.uleb128 0x1d
 3007 0f69 01       		.uleb128 0x1
 3008 0f6a 50       		.byte	0x50
 3009 0f6b 01       		.uleb128 0x1
 3010 0f6c 38       		.byte	0x38
 3011 0f6d 00       		.byte	0
 3012 0f6e 22       		.uleb128 0x22
 3013 0f6f 1A000000 		.4byte	.LVL64
 3014 0f73 81100000 		.4byte	0x1081
 3015 0f77 810F0000 		.4byte	0xf81
 3016 0f7b 1D       		.uleb128 0x1d
 3017 0f7c 01       		.uleb128 0x1
 3018 0f7d 50       		.byte	0x50
 3019 0f7e 01       		.uleb128 0x1
 3020 0f7f 39       		.byte	0x39
 3021 0f80 00       		.byte	0
ARM GAS  /tmp/ccmGO9T8.s 			page 54


 3022 0f81 22       		.uleb128 0x22
 3023 0f82 20000000 		.4byte	.LVL65
 3024 0f86 81100000 		.4byte	0x1081
 3025 0f8a 940F0000 		.4byte	0xf94
 3026 0f8e 1D       		.uleb128 0x1d
 3027 0f8f 01       		.uleb128 0x1
 3028 0f90 50       		.byte	0x50
 3029 0f91 01       		.uleb128 0x1
 3030 0f92 3A       		.byte	0x3a
 3031 0f93 00       		.byte	0
 3032 0f94 22       		.uleb128 0x22
 3033 0f95 26000000 		.4byte	.LVL66
 3034 0f99 81100000 		.4byte	0x1081
 3035 0f9d A70F0000 		.4byte	0xfa7
 3036 0fa1 1D       		.uleb128 0x1d
 3037 0fa2 01       		.uleb128 0x1
 3038 0fa3 50       		.byte	0x50
 3039 0fa4 01       		.uleb128 0x1
 3040 0fa5 47       		.byte	0x47
 3041 0fa6 00       		.byte	0
 3042 0fa7 22       		.uleb128 0x22
 3043 0fa8 2C000000 		.4byte	.LVL67
 3044 0fac 81100000 		.4byte	0x1081
 3045 0fb0 BB0F0000 		.4byte	0xfbb
 3046 0fb4 1D       		.uleb128 0x1d
 3047 0fb5 01       		.uleb128 0x1
 3048 0fb6 50       		.byte	0x50
 3049 0fb7 02       		.uleb128 0x2
 3050 0fb8 08       		.byte	0x8
 3051 0fb9 28       		.byte	0x28
 3052 0fba 00       		.byte	0
 3053 0fbb 22       		.uleb128 0x22
 3054 0fbc 32000000 		.4byte	.LVL68
 3055 0fc0 81100000 		.4byte	0x1081
 3056 0fc4 CE0F0000 		.4byte	0xfce
 3057 0fc8 1D       		.uleb128 0x1d
 3058 0fc9 01       		.uleb128 0x1
 3059 0fca 50       		.byte	0x50
 3060 0fcb 01       		.uleb128 0x1
 3061 0fcc 31       		.byte	0x31
 3062 0fcd 00       		.byte	0
 3063 0fce 22       		.uleb128 0x22
 3064 0fcf 38000000 		.4byte	.LVL69
 3065 0fd3 81100000 		.4byte	0x1081
 3066 0fd7 E20F0000 		.4byte	0xfe2
 3067 0fdb 1D       		.uleb128 0x1d
 3068 0fdc 01       		.uleb128 0x1
 3069 0fdd 50       		.byte	0x50
 3070 0fde 02       		.uleb128 0x2
 3071 0fdf 08       		.byte	0x8
 3072 0fe0 29       		.byte	0x29
 3073 0fe1 00       		.byte	0
 3074 0fe2 22       		.uleb128 0x22
 3075 0fe3 3E000000 		.4byte	.LVL70
 3076 0fe7 81100000 		.4byte	0x1081
 3077 0feb F60F0000 		.4byte	0xff6
 3078 0fef 1D       		.uleb128 0x1d
ARM GAS  /tmp/ccmGO9T8.s 			page 55


 3079 0ff0 01       		.uleb128 0x1
 3080 0ff1 50       		.byte	0x50
 3081 0ff2 02       		.uleb128 0x2
 3082 0ff3 08       		.byte	0x8
 3083 0ff4 2A       		.byte	0x2a
 3084 0ff5 00       		.byte	0
 3085 0ff6 22       		.uleb128 0x22
 3086 0ff7 44000000 		.4byte	.LVL71
 3087 0ffb 81100000 		.4byte	0x1081
 3088 0fff 0A100000 		.4byte	0x100a
 3089 1003 1D       		.uleb128 0x1d
 3090 1004 01       		.uleb128 0x1
 3091 1005 50       		.byte	0x50
 3092 1006 02       		.uleb128 0x2
 3093 1007 08       		.byte	0x8
 3094 1008 3E       		.byte	0x3e
 3095 1009 00       		.byte	0
 3096 100a 22       		.uleb128 0x22
 3097 100b 4A000000 		.4byte	.LVL72
 3098 100f 81100000 		.4byte	0x1081
 3099 1013 1E100000 		.4byte	0x101e
 3100 1017 1D       		.uleb128 0x1d
 3101 1018 01       		.uleb128 0x1
 3102 1019 50       		.byte	0x50
 3103 101a 02       		.uleb128 0x2
 3104 101b 08       		.byte	0x8
 3105 101c 4C       		.byte	0x4c
 3106 101d 00       		.byte	0
 3107 101e 22       		.uleb128 0x22
 3108 101f 50000000 		.4byte	.LVL73
 3109 1023 81100000 		.4byte	0x1081
 3110 1027 31100000 		.4byte	0x1031
 3111 102b 1D       		.uleb128 0x1d
 3112 102c 01       		.uleb128 0x1
 3113 102d 50       		.byte	0x50
 3114 102e 01       		.uleb128 0x1
 3115 102f 32       		.byte	0x32
 3116 1030 00       		.byte	0
 3117 1031 23       		.uleb128 0x23
 3118 1032 5A000000 		.4byte	.LVL74
 3119 1036 81100000 		.4byte	0x1081
 3120 103a 1D       		.uleb128 0x1d
 3121 103b 01       		.uleb128 0x1
 3122 103c 50       		.byte	0x50
 3123 103d 01       		.uleb128 0x1
 3124 103e 33       		.byte	0x33
 3125 103f 00       		.byte	0
 3126 1040 00       		.byte	0
 3127 1041 24       		.uleb128 0x24
 3128 1042 680A0000 		.4byte	.LASF227
 3129 1046 0F       		.byte	0xf
 3130 1047 A706     		.2byte	0x6a7
 3131 1049 C3000000 		.4byte	0xc3
 3132 104d 25       		.uleb128 0x25
 3133 104e 636800   		.ascii	"ch\000"
 3134 1051 06       		.byte	0x6
 3135 1052 0902     		.2byte	0x209
ARM GAS  /tmp/ccmGO9T8.s 			page 56


 3136 1054 02040000 		.4byte	0x402
 3137 1058 26       		.uleb128 0x26
 3138 1059 F1060000 		.4byte	.LASF228
 3139 105d 0E       		.byte	0xe
 3140 105e 86       		.byte	0x86
 3141 105f CE090000 		.4byte	0x9ce
 3142 1063 27       		.uleb128 0x27
 3143 1064 8B070000 		.4byte	.LASF232
 3144 1068 09       		.byte	0x9
 3145 1069 6601     		.2byte	0x166
 3146 106b 28       		.uleb128 0x28
 3147 106c C30A0000 		.4byte	.LASF233
 3148 1070 10       		.byte	0x10
 3149 1071 4E       		.byte	0x4e
 3150 1072 81100000 		.4byte	0x1081
 3151 1076 0D       		.uleb128 0xd
 3152 1077 AD000000 		.4byte	0xad
 3153 107b 0D       		.uleb128 0xd
 3154 107c AD000000 		.4byte	0xad
 3155 1080 00       		.byte	0
 3156 1081 29       		.uleb128 0x29
 3157 1082 15080000 		.4byte	.LASF234
 3158 1086 10       		.byte	0x10
 3159 1087 4F       		.byte	0x4f
 3160 1088 0D       		.uleb128 0xd
 3161 1089 AD000000 		.4byte	0xad
 3162 108d 00       		.byte	0
 3163 108e 00       		.byte	0
 3164              		.section	.debug_abbrev,"",%progbits
 3165              	.Ldebug_abbrev0:
 3166 0000 01       		.uleb128 0x1
 3167 0001 11       		.uleb128 0x11
 3168 0002 01       		.byte	0x1
 3169 0003 25       		.uleb128 0x25
 3170 0004 0E       		.uleb128 0xe
 3171 0005 13       		.uleb128 0x13
 3172 0006 0B       		.uleb128 0xb
 3173 0007 03       		.uleb128 0x3
 3174 0008 0E       		.uleb128 0xe
 3175 0009 1B       		.uleb128 0x1b
 3176 000a 0E       		.uleb128 0xe
 3177 000b 55       		.uleb128 0x55
 3178 000c 17       		.uleb128 0x17
 3179 000d 11       		.uleb128 0x11
 3180 000e 01       		.uleb128 0x1
 3181 000f 10       		.uleb128 0x10
 3182 0010 17       		.uleb128 0x17
 3183 0011 00       		.byte	0
 3184 0012 00       		.byte	0
 3185 0013 02       		.uleb128 0x2
 3186 0014 24       		.uleb128 0x24
 3187 0015 00       		.byte	0
 3188 0016 0B       		.uleb128 0xb
 3189 0017 0B       		.uleb128 0xb
 3190 0018 3E       		.uleb128 0x3e
 3191 0019 0B       		.uleb128 0xb
 3192 001a 03       		.uleb128 0x3
ARM GAS  /tmp/ccmGO9T8.s 			page 57


 3193 001b 08       		.uleb128 0x8
 3194 001c 00       		.byte	0
 3195 001d 00       		.byte	0
 3196 001e 03       		.uleb128 0x3
 3197 001f 24       		.uleb128 0x24
 3198 0020 00       		.byte	0
 3199 0021 0B       		.uleb128 0xb
 3200 0022 0B       		.uleb128 0xb
 3201 0023 3E       		.uleb128 0x3e
 3202 0024 0B       		.uleb128 0xb
 3203 0025 03       		.uleb128 0x3
 3204 0026 0E       		.uleb128 0xe
 3205 0027 00       		.byte	0
 3206 0028 00       		.byte	0
 3207 0029 04       		.uleb128 0x4
 3208 002a 16       		.uleb128 0x16
 3209 002b 00       		.byte	0
 3210 002c 03       		.uleb128 0x3
 3211 002d 0E       		.uleb128 0xe
 3212 002e 3A       		.uleb128 0x3a
 3213 002f 0B       		.uleb128 0xb
 3214 0030 3B       		.uleb128 0x3b
 3215 0031 0B       		.uleb128 0xb
 3216 0032 49       		.uleb128 0x49
 3217 0033 13       		.uleb128 0x13
 3218 0034 00       		.byte	0
 3219 0035 00       		.byte	0
 3220 0036 05       		.uleb128 0x5
 3221 0037 35       		.uleb128 0x35
 3222 0038 00       		.byte	0
 3223 0039 49       		.uleb128 0x49
 3224 003a 13       		.uleb128 0x13
 3225 003b 00       		.byte	0
 3226 003c 00       		.byte	0
 3227 003d 06       		.uleb128 0x6
 3228 003e 13       		.uleb128 0x13
 3229 003f 01       		.byte	0x1
 3230 0040 03       		.uleb128 0x3
 3231 0041 0E       		.uleb128 0xe
 3232 0042 0B       		.uleb128 0xb
 3233 0043 0B       		.uleb128 0xb
 3234 0044 3A       		.uleb128 0x3a
 3235 0045 0B       		.uleb128 0xb
 3236 0046 3B       		.uleb128 0x3b
 3237 0047 0B       		.uleb128 0xb
 3238 0048 01       		.uleb128 0x1
 3239 0049 13       		.uleb128 0x13
 3240 004a 00       		.byte	0
 3241 004b 00       		.byte	0
 3242 004c 07       		.uleb128 0x7
 3243 004d 0D       		.uleb128 0xd
 3244 004e 00       		.byte	0
 3245 004f 03       		.uleb128 0x3
 3246 0050 0E       		.uleb128 0xe
 3247 0051 3A       		.uleb128 0x3a
 3248 0052 0B       		.uleb128 0xb
 3249 0053 3B       		.uleb128 0x3b
ARM GAS  /tmp/ccmGO9T8.s 			page 58


 3250 0054 0B       		.uleb128 0xb
 3251 0055 49       		.uleb128 0x49
 3252 0056 13       		.uleb128 0x13
 3253 0057 38       		.uleb128 0x38
 3254 0058 0B       		.uleb128 0xb
 3255 0059 00       		.byte	0
 3256 005a 00       		.byte	0
 3257 005b 08       		.uleb128 0x8
 3258 005c 0D       		.uleb128 0xd
 3259 005d 00       		.byte	0
 3260 005e 03       		.uleb128 0x3
 3261 005f 08       		.uleb128 0x8
 3262 0060 3A       		.uleb128 0x3a
 3263 0061 0B       		.uleb128 0xb
 3264 0062 3B       		.uleb128 0x3b
 3265 0063 05       		.uleb128 0x5
 3266 0064 49       		.uleb128 0x49
 3267 0065 13       		.uleb128 0x13
 3268 0066 38       		.uleb128 0x38
 3269 0067 0B       		.uleb128 0xb
 3270 0068 00       		.byte	0
 3271 0069 00       		.byte	0
 3272 006a 09       		.uleb128 0x9
 3273 006b 0D       		.uleb128 0xd
 3274 006c 00       		.byte	0
 3275 006d 03       		.uleb128 0x3
 3276 006e 0E       		.uleb128 0xe
 3277 006f 3A       		.uleb128 0x3a
 3278 0070 0B       		.uleb128 0xb
 3279 0071 3B       		.uleb128 0x3b
 3280 0072 05       		.uleb128 0x5
 3281 0073 49       		.uleb128 0x49
 3282 0074 13       		.uleb128 0x13
 3283 0075 38       		.uleb128 0x38
 3284 0076 0B       		.uleb128 0xb
 3285 0077 00       		.byte	0
 3286 0078 00       		.byte	0
 3287 0079 0A       		.uleb128 0xa
 3288 007a 0F       		.uleb128 0xf
 3289 007b 00       		.byte	0
 3290 007c 0B       		.uleb128 0xb
 3291 007d 0B       		.uleb128 0xb
 3292 007e 49       		.uleb128 0x49
 3293 007f 13       		.uleb128 0x13
 3294 0080 00       		.byte	0
 3295 0081 00       		.byte	0
 3296 0082 0B       		.uleb128 0xb
 3297 0083 13       		.uleb128 0x13
 3298 0084 01       		.byte	0x1
 3299 0085 03       		.uleb128 0x3
 3300 0086 0E       		.uleb128 0xe
 3301 0087 0B       		.uleb128 0xb
 3302 0088 0B       		.uleb128 0xb
 3303 0089 3A       		.uleb128 0x3a
 3304 008a 0B       		.uleb128 0xb
 3305 008b 3B       		.uleb128 0x3b
 3306 008c 05       		.uleb128 0x5
ARM GAS  /tmp/ccmGO9T8.s 			page 59


 3307 008d 01       		.uleb128 0x1
 3308 008e 13       		.uleb128 0x13
 3309 008f 00       		.byte	0
 3310 0090 00       		.byte	0
 3311 0091 0C       		.uleb128 0xc
 3312 0092 15       		.uleb128 0x15
 3313 0093 01       		.byte	0x1
 3314 0094 27       		.uleb128 0x27
 3315 0095 19       		.uleb128 0x19
 3316 0096 01       		.uleb128 0x1
 3317 0097 13       		.uleb128 0x13
 3318 0098 00       		.byte	0
 3319 0099 00       		.byte	0
 3320 009a 0D       		.uleb128 0xd
 3321 009b 05       		.uleb128 0x5
 3322 009c 00       		.byte	0
 3323 009d 49       		.uleb128 0x49
 3324 009e 13       		.uleb128 0x13
 3325 009f 00       		.byte	0
 3326 00a0 00       		.byte	0
 3327 00a1 0E       		.uleb128 0xe
 3328 00a2 0F       		.uleb128 0xf
 3329 00a3 00       		.byte	0
 3330 00a4 0B       		.uleb128 0xb
 3331 00a5 0B       		.uleb128 0xb
 3332 00a6 00       		.byte	0
 3333 00a7 00       		.byte	0
 3334 00a8 0F       		.uleb128 0xf
 3335 00a9 13       		.uleb128 0x13
 3336 00aa 01       		.byte	0x1
 3337 00ab 03       		.uleb128 0x3
 3338 00ac 0E       		.uleb128 0xe
 3339 00ad 0B       		.uleb128 0xb
 3340 00ae 05       		.uleb128 0x5
 3341 00af 3A       		.uleb128 0x3a
 3342 00b0 0B       		.uleb128 0xb
 3343 00b1 3B       		.uleb128 0x3b
 3344 00b2 05       		.uleb128 0x5
 3345 00b3 01       		.uleb128 0x1
 3346 00b4 13       		.uleb128 0x13
 3347 00b5 00       		.byte	0
 3348 00b6 00       		.byte	0
 3349 00b7 10       		.uleb128 0x10
 3350 00b8 04       		.uleb128 0x4
 3351 00b9 01       		.byte	0x1
 3352 00ba 0B       		.uleb128 0xb
 3353 00bb 0B       		.uleb128 0xb
 3354 00bc 3A       		.uleb128 0x3a
 3355 00bd 0B       		.uleb128 0xb
 3356 00be 3B       		.uleb128 0x3b
 3357 00bf 0B       		.uleb128 0xb
 3358 00c0 01       		.uleb128 0x1
 3359 00c1 13       		.uleb128 0x13
 3360 00c2 00       		.byte	0
 3361 00c3 00       		.byte	0
 3362 00c4 11       		.uleb128 0x11
 3363 00c5 28       		.uleb128 0x28
ARM GAS  /tmp/ccmGO9T8.s 			page 60


 3364 00c6 00       		.byte	0
 3365 00c7 03       		.uleb128 0x3
 3366 00c8 0E       		.uleb128 0xe
 3367 00c9 1C       		.uleb128 0x1c
 3368 00ca 0D       		.uleb128 0xd
 3369 00cb 00       		.byte	0
 3370 00cc 00       		.byte	0
 3371 00cd 12       		.uleb128 0x12
 3372 00ce 13       		.uleb128 0x13
 3373 00cf 01       		.byte	0x1
 3374 00d0 0B       		.uleb128 0xb
 3375 00d1 0B       		.uleb128 0xb
 3376 00d2 3A       		.uleb128 0x3a
 3377 00d3 0B       		.uleb128 0xb
 3378 00d4 3B       		.uleb128 0x3b
 3379 00d5 05       		.uleb128 0x5
 3380 00d6 01       		.uleb128 0x1
 3381 00d7 13       		.uleb128 0x13
 3382 00d8 00       		.byte	0
 3383 00d9 00       		.byte	0
 3384 00da 13       		.uleb128 0x13
 3385 00db 16       		.uleb128 0x16
 3386 00dc 00       		.byte	0
 3387 00dd 03       		.uleb128 0x3
 3388 00de 0E       		.uleb128 0xe
 3389 00df 3A       		.uleb128 0x3a
 3390 00e0 0B       		.uleb128 0xb
 3391 00e1 3B       		.uleb128 0x3b
 3392 00e2 05       		.uleb128 0x5
 3393 00e3 49       		.uleb128 0x49
 3394 00e4 13       		.uleb128 0x13
 3395 00e5 00       		.byte	0
 3396 00e6 00       		.byte	0
 3397 00e7 14       		.uleb128 0x14
 3398 00e8 0D       		.uleb128 0xd
 3399 00e9 00       		.byte	0
 3400 00ea 03       		.uleb128 0x3
 3401 00eb 08       		.uleb128 0x8
 3402 00ec 3A       		.uleb128 0x3a
 3403 00ed 0B       		.uleb128 0xb
 3404 00ee 3B       		.uleb128 0x3b
 3405 00ef 0B       		.uleb128 0xb
 3406 00f0 49       		.uleb128 0x49
 3407 00f1 13       		.uleb128 0x13
 3408 00f2 38       		.uleb128 0x38
 3409 00f3 0B       		.uleb128 0xb
 3410 00f4 00       		.byte	0
 3411 00f5 00       		.byte	0
 3412 00f6 15       		.uleb128 0x15
 3413 00f7 13       		.uleb128 0x13
 3414 00f8 01       		.byte	0x1
 3415 00f9 0B       		.uleb128 0xb
 3416 00fa 0B       		.uleb128 0xb
 3417 00fb 3A       		.uleb128 0x3a
 3418 00fc 0B       		.uleb128 0xb
 3419 00fd 3B       		.uleb128 0x3b
 3420 00fe 0B       		.uleb128 0xb
ARM GAS  /tmp/ccmGO9T8.s 			page 61


 3421 00ff 01       		.uleb128 0x1
 3422 0100 13       		.uleb128 0x13
 3423 0101 00       		.byte	0
 3424 0102 00       		.byte	0
 3425 0103 16       		.uleb128 0x16
 3426 0104 17       		.uleb128 0x17
 3427 0105 01       		.byte	0x1
 3428 0106 0B       		.uleb128 0xb
 3429 0107 0B       		.uleb128 0xb
 3430 0108 3A       		.uleb128 0x3a
 3431 0109 0B       		.uleb128 0xb
 3432 010a 3B       		.uleb128 0x3b
 3433 010b 0B       		.uleb128 0xb
 3434 010c 01       		.uleb128 0x1
 3435 010d 13       		.uleb128 0x13
 3436 010e 00       		.byte	0
 3437 010f 00       		.byte	0
 3438 0110 17       		.uleb128 0x17
 3439 0111 0D       		.uleb128 0xd
 3440 0112 00       		.byte	0
 3441 0113 03       		.uleb128 0x3
 3442 0114 0E       		.uleb128 0xe
 3443 0115 3A       		.uleb128 0x3a
 3444 0116 0B       		.uleb128 0xb
 3445 0117 3B       		.uleb128 0x3b
 3446 0118 05       		.uleb128 0x5
 3447 0119 49       		.uleb128 0x49
 3448 011a 13       		.uleb128 0x13
 3449 011b 00       		.byte	0
 3450 011c 00       		.byte	0
 3451 011d 18       		.uleb128 0x18
 3452 011e 26       		.uleb128 0x26
 3453 011f 00       		.byte	0
 3454 0120 49       		.uleb128 0x49
 3455 0121 13       		.uleb128 0x13
 3456 0122 00       		.byte	0
 3457 0123 00       		.byte	0
 3458 0124 19       		.uleb128 0x19
 3459 0125 01       		.uleb128 0x1
 3460 0126 01       		.byte	0x1
 3461 0127 49       		.uleb128 0x49
 3462 0128 13       		.uleb128 0x13
 3463 0129 01       		.uleb128 0x1
 3464 012a 13       		.uleb128 0x13
 3465 012b 00       		.byte	0
 3466 012c 00       		.byte	0
 3467 012d 1A       		.uleb128 0x1a
 3468 012e 21       		.uleb128 0x21
 3469 012f 00       		.byte	0
 3470 0130 49       		.uleb128 0x49
 3471 0131 13       		.uleb128 0x13
 3472 0132 2F       		.uleb128 0x2f
 3473 0133 0B       		.uleb128 0xb
 3474 0134 00       		.byte	0
 3475 0135 00       		.byte	0
 3476 0136 1B       		.uleb128 0x1b
 3477 0137 2E       		.uleb128 0x2e
ARM GAS  /tmp/ccmGO9T8.s 			page 62


 3478 0138 01       		.byte	0x1
 3479 0139 3F       		.uleb128 0x3f
 3480 013a 19       		.uleb128 0x19
 3481 013b 03       		.uleb128 0x3
 3482 013c 0E       		.uleb128 0xe
 3483 013d 3A       		.uleb128 0x3a
 3484 013e 0B       		.uleb128 0xb
 3485 013f 3B       		.uleb128 0x3b
 3486 0140 0B       		.uleb128 0xb
 3487 0141 27       		.uleb128 0x27
 3488 0142 19       		.uleb128 0x19
 3489 0143 11       		.uleb128 0x11
 3490 0144 01       		.uleb128 0x1
 3491 0145 12       		.uleb128 0x12
 3492 0146 06       		.uleb128 0x6
 3493 0147 40       		.uleb128 0x40
 3494 0148 18       		.uleb128 0x18
 3495 0149 9742     		.uleb128 0x2117
 3496 014b 19       		.uleb128 0x19
 3497 014c 01       		.uleb128 0x1
 3498 014d 13       		.uleb128 0x13
 3499 014e 00       		.byte	0
 3500 014f 00       		.byte	0
 3501 0150 1C       		.uleb128 0x1c
 3502 0151 898201   		.uleb128 0x4109
 3503 0154 01       		.byte	0x1
 3504 0155 11       		.uleb128 0x11
 3505 0156 01       		.uleb128 0x1
 3506 0157 01       		.uleb128 0x1
 3507 0158 13       		.uleb128 0x13
 3508 0159 00       		.byte	0
 3509 015a 00       		.byte	0
 3510 015b 1D       		.uleb128 0x1d
 3511 015c 8A8201   		.uleb128 0x410a
 3512 015f 00       		.byte	0
 3513 0160 02       		.uleb128 0x2
 3514 0161 18       		.uleb128 0x18
 3515 0162 9142     		.uleb128 0x2111
 3516 0164 18       		.uleb128 0x18
 3517 0165 00       		.byte	0
 3518 0166 00       		.byte	0
 3519 0167 1E       		.uleb128 0x1e
 3520 0168 898201   		.uleb128 0x4109
 3521 016b 00       		.byte	0
 3522 016c 11       		.uleb128 0x11
 3523 016d 01       		.uleb128 0x1
 3524 016e 9542     		.uleb128 0x2115
 3525 0170 19       		.uleb128 0x19
 3526 0171 31       		.uleb128 0x31
 3527 0172 13       		.uleb128 0x13
 3528 0173 00       		.byte	0
 3529 0174 00       		.byte	0
 3530 0175 1F       		.uleb128 0x1f
 3531 0176 34       		.uleb128 0x34
 3532 0177 00       		.byte	0
 3533 0178 03       		.uleb128 0x3
 3534 0179 08       		.uleb128 0x8
ARM GAS  /tmp/ccmGO9T8.s 			page 63


 3535 017a 3A       		.uleb128 0x3a
 3536 017b 0B       		.uleb128 0xb
 3537 017c 3B       		.uleb128 0x3b
 3538 017d 0B       		.uleb128 0xb
 3539 017e 49       		.uleb128 0x49
 3540 017f 13       		.uleb128 0x13
 3541 0180 02       		.uleb128 0x2
 3542 0181 17       		.uleb128 0x17
 3543 0182 00       		.byte	0
 3544 0183 00       		.byte	0
 3545 0184 20       		.uleb128 0x20
 3546 0185 898201   		.uleb128 0x4109
 3547 0188 01       		.byte	0x1
 3548 0189 11       		.uleb128 0x11
 3549 018a 01       		.uleb128 0x1
 3550 018b 00       		.byte	0
 3551 018c 00       		.byte	0
 3552 018d 21       		.uleb128 0x21
 3553 018e 2E       		.uleb128 0x2e
 3554 018f 01       		.byte	0x1
 3555 0190 3F       		.uleb128 0x3f
 3556 0191 19       		.uleb128 0x19
 3557 0192 03       		.uleb128 0x3
 3558 0193 0E       		.uleb128 0xe
 3559 0194 3A       		.uleb128 0x3a
 3560 0195 0B       		.uleb128 0xb
 3561 0196 3B       		.uleb128 0x3b
 3562 0197 05       		.uleb128 0x5
 3563 0198 27       		.uleb128 0x27
 3564 0199 19       		.uleb128 0x19
 3565 019a 11       		.uleb128 0x11
 3566 019b 01       		.uleb128 0x1
 3567 019c 12       		.uleb128 0x12
 3568 019d 06       		.uleb128 0x6
 3569 019e 40       		.uleb128 0x40
 3570 019f 18       		.uleb128 0x18
 3571 01a0 9742     		.uleb128 0x2117
 3572 01a2 19       		.uleb128 0x19
 3573 01a3 01       		.uleb128 0x1
 3574 01a4 13       		.uleb128 0x13
 3575 01a5 00       		.byte	0
 3576 01a6 00       		.byte	0
 3577 01a7 22       		.uleb128 0x22
 3578 01a8 898201   		.uleb128 0x4109
 3579 01ab 01       		.byte	0x1
 3580 01ac 11       		.uleb128 0x11
 3581 01ad 01       		.uleb128 0x1
 3582 01ae 31       		.uleb128 0x31
 3583 01af 13       		.uleb128 0x13
 3584 01b0 01       		.uleb128 0x1
 3585 01b1 13       		.uleb128 0x13
 3586 01b2 00       		.byte	0
 3587 01b3 00       		.byte	0
 3588 01b4 23       		.uleb128 0x23
 3589 01b5 898201   		.uleb128 0x4109
 3590 01b8 01       		.byte	0x1
 3591 01b9 11       		.uleb128 0x11
ARM GAS  /tmp/ccmGO9T8.s 			page 64


 3592 01ba 01       		.uleb128 0x1
 3593 01bb 9542     		.uleb128 0x2115
 3594 01bd 19       		.uleb128 0x19
 3595 01be 31       		.uleb128 0x31
 3596 01bf 13       		.uleb128 0x13
 3597 01c0 00       		.byte	0
 3598 01c1 00       		.byte	0
 3599 01c2 24       		.uleb128 0x24
 3600 01c3 34       		.uleb128 0x34
 3601 01c4 00       		.byte	0
 3602 01c5 03       		.uleb128 0x3
 3603 01c6 0E       		.uleb128 0xe
 3604 01c7 3A       		.uleb128 0x3a
 3605 01c8 0B       		.uleb128 0xb
 3606 01c9 3B       		.uleb128 0x3b
 3607 01ca 05       		.uleb128 0x5
 3608 01cb 49       		.uleb128 0x49
 3609 01cc 13       		.uleb128 0x13
 3610 01cd 3F       		.uleb128 0x3f
 3611 01ce 19       		.uleb128 0x19
 3612 01cf 3C       		.uleb128 0x3c
 3613 01d0 19       		.uleb128 0x19
 3614 01d1 00       		.byte	0
 3615 01d2 00       		.byte	0
 3616 01d3 25       		.uleb128 0x25
 3617 01d4 34       		.uleb128 0x34
 3618 01d5 00       		.byte	0
 3619 01d6 03       		.uleb128 0x3
 3620 01d7 08       		.uleb128 0x8
 3621 01d8 3A       		.uleb128 0x3a
 3622 01d9 0B       		.uleb128 0xb
 3623 01da 3B       		.uleb128 0x3b
 3624 01db 05       		.uleb128 0x5
 3625 01dc 49       		.uleb128 0x49
 3626 01dd 13       		.uleb128 0x13
 3627 01de 3F       		.uleb128 0x3f
 3628 01df 19       		.uleb128 0x19
 3629 01e0 3C       		.uleb128 0x3c
 3630 01e1 19       		.uleb128 0x19
 3631 01e2 00       		.byte	0
 3632 01e3 00       		.byte	0
 3633 01e4 26       		.uleb128 0x26
 3634 01e5 34       		.uleb128 0x34
 3635 01e6 00       		.byte	0
 3636 01e7 03       		.uleb128 0x3
 3637 01e8 0E       		.uleb128 0xe
 3638 01e9 3A       		.uleb128 0x3a
 3639 01ea 0B       		.uleb128 0xb
 3640 01eb 3B       		.uleb128 0x3b
 3641 01ec 0B       		.uleb128 0xb
 3642 01ed 49       		.uleb128 0x49
 3643 01ee 13       		.uleb128 0x13
 3644 01ef 3F       		.uleb128 0x3f
 3645 01f0 19       		.uleb128 0x19
 3646 01f1 3C       		.uleb128 0x3c
 3647 01f2 19       		.uleb128 0x19
 3648 01f3 00       		.byte	0
ARM GAS  /tmp/ccmGO9T8.s 			page 65


 3649 01f4 00       		.byte	0
 3650 01f5 27       		.uleb128 0x27
 3651 01f6 2E       		.uleb128 0x2e
 3652 01f7 00       		.byte	0
 3653 01f8 3F       		.uleb128 0x3f
 3654 01f9 19       		.uleb128 0x19
 3655 01fa 03       		.uleb128 0x3
 3656 01fb 0E       		.uleb128 0xe
 3657 01fc 3A       		.uleb128 0x3a
 3658 01fd 0B       		.uleb128 0xb
 3659 01fe 3B       		.uleb128 0x3b
 3660 01ff 05       		.uleb128 0x5
 3661 0200 27       		.uleb128 0x27
 3662 0201 19       		.uleb128 0x19
 3663 0202 3C       		.uleb128 0x3c
 3664 0203 19       		.uleb128 0x19
 3665 0204 00       		.byte	0
 3666 0205 00       		.byte	0
 3667 0206 28       		.uleb128 0x28
 3668 0207 2E       		.uleb128 0x2e
 3669 0208 01       		.byte	0x1
 3670 0209 3F       		.uleb128 0x3f
 3671 020a 19       		.uleb128 0x19
 3672 020b 03       		.uleb128 0x3
 3673 020c 0E       		.uleb128 0xe
 3674 020d 3A       		.uleb128 0x3a
 3675 020e 0B       		.uleb128 0xb
 3676 020f 3B       		.uleb128 0x3b
 3677 0210 0B       		.uleb128 0xb
 3678 0211 27       		.uleb128 0x27
 3679 0212 19       		.uleb128 0x19
 3680 0213 3C       		.uleb128 0x3c
 3681 0214 19       		.uleb128 0x19
 3682 0215 01       		.uleb128 0x1
 3683 0216 13       		.uleb128 0x13
 3684 0217 00       		.byte	0
 3685 0218 00       		.byte	0
 3686 0219 29       		.uleb128 0x29
 3687 021a 2E       		.uleb128 0x2e
 3688 021b 01       		.byte	0x1
 3689 021c 3F       		.uleb128 0x3f
 3690 021d 19       		.uleb128 0x19
 3691 021e 03       		.uleb128 0x3
 3692 021f 0E       		.uleb128 0xe
 3693 0220 3A       		.uleb128 0x3a
 3694 0221 0B       		.uleb128 0xb
 3695 0222 3B       		.uleb128 0x3b
 3696 0223 0B       		.uleb128 0xb
 3697 0224 27       		.uleb128 0x27
 3698 0225 19       		.uleb128 0x19
 3699 0226 3C       		.uleb128 0x3c
 3700 0227 19       		.uleb128 0x19
 3701 0228 00       		.byte	0
 3702 0229 00       		.byte	0
 3703 022a 00       		.byte	0
 3704              		.section	.debug_loc,"",%progbits
 3705              	.Ldebug_loc0:
ARM GAS  /tmp/ccmGO9T8.s 			page 66


 3706              	.LLST0:
 3707 0000 0A000000 		.4byte	.LVL10
 3708 0004 10000000 		.4byte	.LVL11
 3709 0008 0100     		.2byte	0x1
 3710 000a 52       		.byte	0x52
 3711 000b 10000000 		.4byte	.LVL11
 3712 000f 2E000000 		.4byte	.LVL13
 3713 0013 0700     		.2byte	0x7
 3714 0015 74       		.byte	0x74
 3715 0016 00       		.sleb128 0
 3716 0017 0A       		.byte	0xa
 3717 0018 E003     		.2byte	0x3e0
 3718 001a 1A       		.byte	0x1a
 3719 001b 9F       		.byte	0x9f
 3720 001c 32000000 		.4byte	.LVL14
 3721 0020 56000000 		.4byte	.LVL18
 3722 0024 0700     		.2byte	0x7
 3723 0026 74       		.byte	0x74
 3724 0027 00       		.sleb128 0
 3725 0028 0A       		.byte	0xa
 3726 0029 E003     		.2byte	0x3e0
 3727 002b 1A       		.byte	0x1a
 3728 002c 9F       		.byte	0x9f
 3729 002d 56000000 		.4byte	.LVL18
 3730 0031 5F000000 		.4byte	.LVL19-1
 3731 0035 0100     		.2byte	0x1
 3732 0037 52       		.byte	0x52
 3733 0038 5F000000 		.4byte	.LVL19-1
 3734 003c 6C000000 		.4byte	.LFE261
 3735 0040 0700     		.2byte	0x7
 3736 0042 74       		.byte	0x74
 3737 0043 00       		.sleb128 0
 3738 0044 0A       		.byte	0xa
 3739 0045 E003     		.2byte	0x3e0
 3740 0047 1A       		.byte	0x1a
 3741 0048 9F       		.byte	0x9f
 3742 0049 00000000 		.4byte	0
 3743 004d 00000000 		.4byte	0
 3744              	.LLST1:
 3745 0051 0A000000 		.4byte	.LVL20
 3746 0055 0E000000 		.4byte	.LVL21
 3747 0059 0100     		.2byte	0x1
 3748 005b 52       		.byte	0x52
 3749 005c 0E000000 		.4byte	.LVL21
 3750 0060 10000000 		.4byte	.LVL22
 3751 0064 0200     		.2byte	0x2
 3752 0066 73       		.byte	0x73
 3753 0067 14       		.sleb128 20
 3754 0068 10000000 		.4byte	.LVL22
 3755 006c 32000000 		.4byte	.LVL24
 3756 0070 0700     		.2byte	0x7
 3757 0072 74       		.byte	0x74
 3758 0073 00       		.sleb128 0
 3759 0074 0A       		.byte	0xa
 3760 0075 00FC     		.2byte	0xfc00
 3761 0077 1A       		.byte	0x1a
 3762 0078 9F       		.byte	0x9f
ARM GAS  /tmp/ccmGO9T8.s 			page 67


 3763 0079 36000000 		.4byte	.LVL25
 3764 007d 66000000 		.4byte	.LVL30
 3765 0081 0700     		.2byte	0x7
 3766 0083 74       		.byte	0x74
 3767 0084 00       		.sleb128 0
 3768 0085 0A       		.byte	0xa
 3769 0086 00FC     		.2byte	0xfc00
 3770 0088 1A       		.byte	0x1a
 3771 0089 9F       		.byte	0x9f
 3772 008a 66000000 		.4byte	.LVL30
 3773 008e 6A000000 		.4byte	.LVL31
 3774 0092 0200     		.2byte	0x2
 3775 0094 73       		.byte	0x73
 3776 0095 14       		.sleb128 20
 3777 0096 6A000000 		.4byte	.LVL31
 3778 009a 6F000000 		.4byte	.LVL32-1
 3779 009e 0500     		.2byte	0x5
 3780 00a0 0C       		.byte	0xc
 3781 00a1 143C0140 		.4byte	0x40013c14
 3782 00a5 6F000000 		.4byte	.LVL32-1
 3783 00a9 7C000000 		.4byte	.LFE262
 3784 00ad 0700     		.2byte	0x7
 3785 00af 74       		.byte	0x74
 3786 00b0 00       		.sleb128 0
 3787 00b1 0A       		.byte	0xa
 3788 00b2 00FC     		.2byte	0xfc00
 3789 00b4 1A       		.byte	0x1a
 3790 00b5 9F       		.byte	0x9f
 3791 00b6 00000000 		.4byte	0
 3792 00ba 00000000 		.4byte	0
 3793              		.section	.debug_aranges,"",%progbits
 3794 0000 94000000 		.4byte	0x94
 3795 0004 0200     		.2byte	0x2
 3796 0006 00000000 		.4byte	.Ldebug_info0
 3797 000a 04       		.byte	0x4
 3798 000b 00       		.byte	0
 3799 000c 0000     		.2byte	0
 3800 000e 0000     		.2byte	0
 3801 0010 00000000 		.4byte	.LFB256
 3802 0014 24000000 		.4byte	.LFE256-.LFB256
 3803 0018 00000000 		.4byte	.LFB257
 3804 001c 24000000 		.4byte	.LFE257-.LFB257
 3805 0020 00000000 		.4byte	.LFB258
 3806 0024 24000000 		.4byte	.LFE258-.LFB258
 3807 0028 00000000 		.4byte	.LFB259
 3808 002c 24000000 		.4byte	.LFE259-.LFB259
 3809 0030 00000000 		.4byte	.LFB260
 3810 0034 24000000 		.4byte	.LFE260-.LFB260
 3811 0038 00000000 		.4byte	.LFB261
 3812 003c 6C000000 		.4byte	.LFE261-.LFB261
 3813 0040 00000000 		.4byte	.LFB262
 3814 0044 7C000000 		.4byte	.LFE262-.LFB262
 3815 0048 00000000 		.4byte	.LFB263
 3816 004c 28000000 		.4byte	.LFE263-.LFB263
 3817 0050 00000000 		.4byte	.LFB264
 3818 0054 28000000 		.4byte	.LFE264-.LFB264
 3819 0058 00000000 		.4byte	.LFB265
ARM GAS  /tmp/ccmGO9T8.s 			page 68


 3820 005c 28000000 		.4byte	.LFE265-.LFB265
 3821 0060 00000000 		.4byte	.LFB266
 3822 0064 28000000 		.4byte	.LFE266-.LFB266
 3823 0068 00000000 		.4byte	.LFB267
 3824 006c 28000000 		.4byte	.LFE267-.LFB267
 3825 0070 00000000 		.4byte	.LFB268
 3826 0074 28000000 		.4byte	.LFE268-.LFB268
 3827 0078 00000000 		.4byte	.LFB269
 3828 007c 28000000 		.4byte	.LFE269-.LFB269
 3829 0080 00000000 		.4byte	.LFB270
 3830 0084 76000000 		.4byte	.LFE270-.LFB270
 3831 0088 00000000 		.4byte	.LFB271
 3832 008c 5A000000 		.4byte	.LFE271-.LFB271
 3833 0090 00000000 		.4byte	0
 3834 0094 00000000 		.4byte	0
 3835              		.section	.debug_ranges,"",%progbits
 3836              	.Ldebug_ranges0:
 3837 0000 00000000 		.4byte	.LFB256
 3838 0004 24000000 		.4byte	.LFE256
 3839 0008 00000000 		.4byte	.LFB257
 3840 000c 24000000 		.4byte	.LFE257
 3841 0010 00000000 		.4byte	.LFB258
 3842 0014 24000000 		.4byte	.LFE258
 3843 0018 00000000 		.4byte	.LFB259
 3844 001c 24000000 		.4byte	.LFE259
 3845 0020 00000000 		.4byte	.LFB260
 3846 0024 24000000 		.4byte	.LFE260
 3847 0028 00000000 		.4byte	.LFB261
 3848 002c 6C000000 		.4byte	.LFE261
 3849 0030 00000000 		.4byte	.LFB262
 3850 0034 7C000000 		.4byte	.LFE262
 3851 0038 00000000 		.4byte	.LFB263
 3852 003c 28000000 		.4byte	.LFE263
 3853 0040 00000000 		.4byte	.LFB264
 3854 0044 28000000 		.4byte	.LFE264
 3855 0048 00000000 		.4byte	.LFB265
 3856 004c 28000000 		.4byte	.LFE265
 3857 0050 00000000 		.4byte	.LFB266
 3858 0054 28000000 		.4byte	.LFE266
 3859 0058 00000000 		.4byte	.LFB267
 3860 005c 28000000 		.4byte	.LFE267
 3861 0060 00000000 		.4byte	.LFB268
 3862 0064 28000000 		.4byte	.LFE268
 3863 0068 00000000 		.4byte	.LFB269
 3864 006c 28000000 		.4byte	.LFE269
 3865 0070 00000000 		.4byte	.LFB270
 3866 0074 76000000 		.4byte	.LFE270
 3867 0078 00000000 		.4byte	.LFB271
 3868 007c 5A000000 		.4byte	.LFE271
 3869 0080 00000000 		.4byte	0
 3870 0084 00000000 		.4byte	0
 3871              		.section	.debug_line,"",%progbits
 3872              	.Ldebug_line0:
 3873 0000 23040000 		.section	.debug_str,"MS",%progbits,1
 3873      02006E02 
 3873      00000201 
 3873      FB0E0D00 
ARM GAS  /tmp/ccmGO9T8.s 			page 69


 3873      01010101 
 3874              	.LASF92:
 3875 0000 5254435F 		.ascii	"RTC_WKUP_IRQn\000"
 3875      574B5550 
 3875      5F495251 
 3875      6E00
 3876              	.LASF97:
 3877 000e 45585449 		.ascii	"EXTI2_IRQn\000"
 3877      325F4952 
 3877      516E00
 3878              	.LASF106:
 3879 0019 444D4131 		.ascii	"DMA1_Stream6_IRQn\000"
 3879      5F537472 
 3879      65616D36 
 3879      5F495251 
 3879      6E00
 3880              	.LASF133:
 3881 002b 54494D38 		.ascii	"TIM8_UP_TIM13_IRQn\000"
 3881      5F55505F 
 3881      54494D31 
 3881      335F4952 
 3881      516E00
 3882              	.LASF170:
 3883 003e 73697A65 		.ascii	"sizetype\000"
 3883      74797065 
 3883      00
 3884              	.LASF185:
 3885 0047 77747365 		.ascii	"wtsemp\000"
 3885      6D7000
 3886              	.LASF26:
 3887 004e 73797374 		.ascii	"systime_t\000"
 3887      696D655F 
 3887      7400
 3888              	.LASF31:
 3889 0058 705F6374 		.ascii	"p_ctx\000"
 3889      7800
 3890              	.LASF22:
 3891 005e 74707269 		.ascii	"tprio_t\000"
 3891      6F5F7400 
 3892              	.LASF220:
 3893 0066 56656374 		.ascii	"VectorE8\000"
 3893      6F724538 
 3893      00
 3894              	.LASF41:
 3895 006f 705F6D73 		.ascii	"p_msgqueue\000"
 3895      67717565 
 3895      756500
 3896              	.LASF57:
 3897 007a 725F6374 		.ascii	"r_ctx\000"
 3897      7800
 3898              	.LASF14:
 3899 0080 696E7433 		.ascii	"int32_t\000"
 3899      325F7400 
 3900              	.LASF214:
 3901 0088 56656374 		.ascii	"Vector64\000"
 3901      6F723634 
 3901      00
ARM GAS  /tmp/ccmGO9T8.s 			page 70


 3902              	.LASF61:
 3903 0091 76746675 		.ascii	"vtfunc_t\000"
 3903      6E635F74 
 3903      00
 3904              	.LASF70:
 3905 009a 63685F76 		.ascii	"ch_virtual_timers_list\000"
 3905      69727475 
 3905      616C5F74 
 3905      696D6572 
 3905      735F6C69 
 3906              	.LASF187:
 3907 00b1 65776D61 		.ascii	"ewmask\000"
 3907      736B00
 3908              	.LASF146:
 3909 00b8 444D4132 		.ascii	"DMA2_Stream1_IRQn\000"
 3909      5F537472 
 3909      65616D31 
 3909      5F495251 
 3909      6E00
 3910              	.LASF140:
 3911 00ca 53504933 		.ascii	"SPI3_IRQn\000"
 3911      5F495251 
 3911      6E00
 3912              	.LASF93:
 3913 00d4 464C4153 		.ascii	"FLASH_IRQn\000"
 3913      485F4952 
 3913      516E00
 3914              	.LASF167:
 3915 00df 44434D49 		.ascii	"DCMI_IRQn\000"
 3915      5F495251 
 3915      6E00
 3916              	.LASF204:
 3917 00e9 636F6E66 		.ascii	"config\000"
 3917      696700
 3918              	.LASF203:
 3919 00f0 73746174 		.ascii	"state\000"
 3919      6500
 3920              	.LASF117:
 3921 00f6 54494D32 		.ascii	"TIM2_IRQn\000"
 3921      5F495251 
 3921      6E00
 3922              	.LASF208:
 3923 0100 45585443 		.ascii	"EXTChannelConfig\000"
 3923      68616E6E 
 3923      656C436F 
 3923      6E666967 
 3923      00
 3924              	.LASF172:
 3925 0111 46545352 		.ascii	"FTSR\000"
 3925      00
 3926              	.LASF153:
 3927 0116 43414E32 		.ascii	"CAN2_RX0_IRQn\000"
 3927      5F525830 
 3927      5F495251 
 3927      6E00
 3928              	.LASF160:
 3929 0124 55534152 		.ascii	"USART6_IRQn\000"
ARM GAS  /tmp/ccmGO9T8.s 			page 71


 3929      54365F49 
 3929      52516E00 
 3930              	.LASF193:
 3931 0130 6D5F6F77 		.ascii	"m_owner\000"
 3931      6E657200 
 3932              	.LASF68:
 3933 0138 76745F70 		.ascii	"vt_par\000"
 3933      617200
 3934              	.LASF182:
 3935 013f 65786974 		.ascii	"exitcode\000"
 3935      636F6465 
 3935      00
 3936              	.LASF5:
 3937 0148 5F5F7569 		.ascii	"__uint8_t\000"
 3937      6E74385F 
 3937      7400
 3938              	.LASF165:
 3939 0152 4F54475F 		.ascii	"OTG_HS_WKUP_IRQn\000"
 3939      48535F57 
 3939      4B55505F 
 3939      4952516E 
 3939      00
 3940              	.LASF125:
 3941 0163 53504932 		.ascii	"SPI2_IRQn\000"
 3941      5F495251 
 3941      6E00
 3942              	.LASF132:
 3943 016d 54494D38 		.ascii	"TIM8_BRK_TIM12_IRQn\000"
 3943      5F42524B 
 3943      5F54494D 
 3943      31325F49 
 3943      52516E00 
 3944              	.LASF32:
 3945 0181 705F6E65 		.ascii	"p_newer\000"
 3945      77657200 
 3946              	.LASF7:
 3947 0189 6C6F6E67 		.ascii	"long int\000"
 3947      20696E74 
 3947      00
 3948              	.LASF28:
 3949 0192 705F6E65 		.ascii	"p_next\000"
 3949      787400
 3950              	.LASF29:
 3951 0199 705F7072 		.ascii	"p_prev\000"
 3951      657600
 3952              	.LASF157:
 3953 01a0 444D4132 		.ascii	"DMA2_Stream5_IRQn\000"
 3953      5F537472 
 3953      65616D35 
 3953      5F495251 
 3953      6E00
 3954              	.LASF19:
 3955 01b2 74737461 		.ascii	"tstate_t\000"
 3955      74655F74 
 3955      00
 3956              	.LASF51:
 3957 01bb 74687265 		.ascii	"threads_queue_t\000"
ARM GAS  /tmp/ccmGO9T8.s 			page 72


 3957      6164735F 
 3957      71756575 
 3957      655F7400 
 3958              	.LASF44:
 3959 01cb 705F6D74 		.ascii	"p_mtxlist\000"
 3959      786C6973 
 3959      7400
 3960              	.LASF115:
 3961 01d5 54494D31 		.ascii	"TIM1_TRG_COM_TIM11_IRQn\000"
 3961      5F545247 
 3961      5F434F4D 
 3961      5F54494D 
 3961      31315F49 
 3962              	.LASF171:
 3963 01ed 52545352 		.ascii	"RTSR\000"
 3963      00
 3964              	.LASF174:
 3965 01f2 45585449 		.ascii	"EXTI_TypeDef\000"
 3965      5F547970 
 3965      65446566 
 3965      00
 3966              	.LASF88:
 3967 01ff 53797354 		.ascii	"SysTick_IRQn\000"
 3967      69636B5F 
 3967      4952516E 
 3967      00
 3968              	.LASF128:
 3969 020c 55534152 		.ascii	"USART3_IRQn\000"
 3969      54335F49 
 3969      52516E00 
 3970              	.LASF229:
 3971 0218 474E5520 		.ascii	"GNU C 4.9.3 20150529 (release) [ARM/embedded-4_9-br"
 3971      4320342E 
 3971      392E3320 
 3971      32303135 
 3971      30353239 
 3972 024b 616E6368 		.ascii	"anch revision 227977] -mcpu=cortex-m4 -mfloat-abi=h"
 3972      20726576 
 3972      6973696F 
 3972      6E203232 
 3972      37393737 
 3973 027e 61726420 		.ascii	"ard -mfpu=fpv4-sp-d16 -mno-thumb-interwork -mthumb "
 3973      2D6D6670 
 3973      753D6670 
 3973      76342D73 
 3973      702D6431 
 3974 02b1 2D676764 		.ascii	"-ggdb -O2 -std=gnu99 -fomit-frame-pointer -falign-f"
 3974      62202D4F 
 3974      32202D73 
 3974      74643D67 
 3974      6E753939 
 3975 02e4 756E6374 		.ascii	"unctions=16 -ffunction-sections -fdata-sections -fn"
 3975      696F6E73 
 3975      3D313620 
 3975      2D666675 
 3975      6E637469 
 3976 0317 6F2D636F 		.ascii	"o-common -fsingle-precision-constant\000"
ARM GAS  /tmp/ccmGO9T8.s 			page 73


 3976      6D6D6F6E 
 3976      202D6673 
 3976      696E676C 
 3976      652D7072 
 3977              	.LASF201:
 3978 033c 65787473 		.ascii	"extstate_t\000"
 3978      74617465 
 3978      5F7400
 3979              	.LASF1:
 3980 0347 7369676E 		.ascii	"signed char\000"
 3980      65642063 
 3980      68617200 
 3981              	.LASF38:
 3982 0353 705F7072 		.ascii	"p_preempt\000"
 3982      65656D70 
 3982      7400
 3983              	.LASF13:
 3984 035d 75696E74 		.ascii	"uint8_t\000"
 3984      385F7400 
 3985              	.LASF24:
 3986 0365 6576656E 		.ascii	"eventmask_t\000"
 3986      746D6173 
 3986      6B5F7400 
 3987              	.LASF177:
 3988 0371 636F6E74 		.ascii	"context\000"
 3988      65787400 
 3989              	.LASF184:
 3990 0379 77747472 		.ascii	"wttrp\000"
 3990      7000
 3991              	.LASF102:
 3992 037f 444D4131 		.ascii	"DMA1_Stream2_IRQn\000"
 3992      5F537472 
 3992      65616D32 
 3992      5F495251 
 3992      6E00
 3993              	.LASF2:
 3994 0391 756E7369 		.ascii	"unsigned char\000"
 3994      676E6564 
 3994      20636861 
 3994      7200
 3995              	.LASF149:
 3996 039f 444D4132 		.ascii	"DMA2_Stream4_IRQn\000"
 3996      5F537472 
 3996      65616D34 
 3996      5F495251 
 3996      6E00
 3997              	.LASF226:
 3998 03b1 6578745F 		.ascii	"ext_lld_exti_irq_disable\000"
 3998      6C6C645F 
 3998      65787469 
 3998      5F697271 
 3998      5F646973 
 3999              	.LASF74:
 4000 03ca 70616E69 		.ascii	"panic_msg\000"
 4000      635F6D73 
 4000      6700
 4001              	.LASF121:
ARM GAS  /tmp/ccmGO9T8.s 			page 74


 4002 03d4 49324331 		.ascii	"I2C1_ER_IRQn\000"
 4002      5F45525F 
 4002      4952516E 
 4002      00
 4003              	.LASF58:
 4004 03e1 725F6E65 		.ascii	"r_newer\000"
 4004      77657200 
 4005              	.LASF72:
 4006 03e9 73797374 		.ascii	"system_debug_t\000"
 4006      656D5F64 
 4006      65627567 
 4006      5F7400
 4007              	.LASF155:
 4008 03f8 43414E32 		.ascii	"CAN2_SCE_IRQn\000"
 4008      5F534345 
 4008      5F495251 
 4008      6E00
 4009              	.LASF197:
 4010 0406 5F426F6F 		.ascii	"_Bool\000"
 4010      6C00
 4011              	.LASF139:
 4012 040c 54494D35 		.ascii	"TIM5_IRQn\000"
 4012      5F495251 
 4012      6E00
 4013              	.LASF84:
 4014 0416 55736167 		.ascii	"UsageFault_IRQn\000"
 4014      65466175 
 4014      6C745F49 
 4014      52516E00 
 4015              	.LASF195:
 4016 0426 63686172 		.ascii	"char\000"
 4016      00
 4017              	.LASF30:
 4018 042b 705F7072 		.ascii	"p_prio\000"
 4018      696F00
 4019              	.LASF183:
 4020 0432 77746F62 		.ascii	"wtobjp\000"
 4020      6A7000
 4021              	.LASF109:
 4022 0439 43414E31 		.ascii	"CAN1_RX0_IRQn\000"
 4022      5F525830 
 4022      5F495251 
 4022      6E00
 4023              	.LASF176:
 4024 0447 73746B61 		.ascii	"stkalign_t\000"
 4024      6C69676E 
 4024      5F7400
 4025              	.LASF119:
 4026 0452 54494D34 		.ascii	"TIM4_IRQn\000"
 4026      5F495251 
 4026      6E00
 4027              	.LASF127:
 4028 045c 55534152 		.ascii	"USART2_IRQn\000"
 4028      54325F49 
 4028      52516E00 
 4029              	.LASF25:
 4030 0468 636E745F 		.ascii	"cnt_t\000"
ARM GAS  /tmp/ccmGO9T8.s 			page 75


 4030      7400
 4031              	.LASF120:
 4032 046e 49324331 		.ascii	"I2C1_EV_IRQn\000"
 4032      5F45565F 
 4032      4952516E 
 4032      00
 4033              	.LASF67:
 4034 047b 76745F66 		.ascii	"vt_func\000"
 4034      756E6300 
 4035              	.LASF43:
 4036 0483 705F6570 		.ascii	"p_epending\000"
 4036      656E6469 
 4036      6E6700
 4037              	.LASF186:
 4038 048e 77746D74 		.ascii	"wtmtxp\000"
 4038      787000
 4039              	.LASF54:
 4040 0495 63685F72 		.ascii	"ch_ready_list\000"
 4040      65616479 
 4040      5F6C6973 
 4040      7400
 4041              	.LASF199:
 4042 04a3 4558545F 		.ascii	"EXT_STOP\000"
 4042      53544F50 
 4042      00
 4043              	.LASF218:
 4044 04ac 56656374 		.ascii	"Vector44\000"
 4044      6F723434 
 4044      00
 4045              	.LASF223:
 4046 04b5 56656374 		.ascii	"Vector48\000"
 4046      6F723438 
 4046      00
 4047              	.LASF116:
 4048 04be 54494D31 		.ascii	"TIM1_CC_IRQn\000"
 4048      5F43435F 
 4048      4952516E 
 4048      00
 4049              	.LASF168:
 4050 04cb 48415348 		.ascii	"HASH_RNG_IRQn\000"
 4050      5F524E47 
 4050      5F495251 
 4050      6E00
 4051              	.LASF96:
 4052 04d9 45585449 		.ascii	"EXTI1_IRQn\000"
 4052      315F4952 
 4052      516E00
 4053              	.LASF224:
 4054 04e4 56656374 		.ascii	"Vector4C\000"
 4054      6F723443 
 4054      00
 4055              	.LASF108:
 4056 04ed 43414E31 		.ascii	"CAN1_TX_IRQn\000"
 4056      5F54585F 
 4056      4952516E 
 4056      00
 4057              	.LASF105:
ARM GAS  /tmp/ccmGO9T8.s 			page 76


 4058 04fa 444D4131 		.ascii	"DMA1_Stream5_IRQn\000"
 4058      5F537472 
 4058      65616D35 
 4058      5F495251 
 4058      6E00
 4059              	.LASF134:
 4060 050c 54494D38 		.ascii	"TIM8_TRG_COM_TIM14_IRQn\000"
 4060      5F545247 
 4060      5F434F4D 
 4060      5F54494D 
 4060      31345F49 
 4061              	.LASF159:
 4062 0524 444D4132 		.ascii	"DMA2_Stream7_IRQn\000"
 4062      5F537472 
 4062      65616D37 
 4062      5F495251 
 4062      6E00
 4063              	.LASF156:
 4064 0536 4F54475F 		.ascii	"OTG_FS_IRQn\000"
 4064      46535F49 
 4064      52516E00 
 4065              	.LASF81:
 4066 0542 4E6F6E4D 		.ascii	"NonMaskableInt_IRQn\000"
 4066      61736B61 
 4066      626C6549 
 4066      6E745F49 
 4066      52516E00 
 4067              	.LASF11:
 4068 0556 5F5F7569 		.ascii	"__uint64_t\000"
 4068      6E743634 
 4068      5F7400
 4069              	.LASF198:
 4070 0561 4558545F 		.ascii	"EXT_UNINIT\000"
 4070      554E494E 
 4070      495400
 4071              	.LASF89:
 4072 056c 57574447 		.ascii	"WWDG_IRQn\000"
 4072      5F495251 
 4072      6E00
 4073              	.LASF9:
 4074 0576 6C6F6E67 		.ascii	"long unsigned int\000"
 4074      20756E73 
 4074      69676E65 
 4074      6420696E 
 4074      7400
 4075              	.LASF211:
 4076 0588 56656374 		.ascii	"Vector58\000"
 4076      6F723538 
 4076      00
 4077              	.LASF82:
 4078 0591 4D656D6F 		.ascii	"MemoryManagement_IRQn\000"
 4078      72794D61 
 4078      6E616765 
 4078      6D656E74 
 4078      5F495251 
 4079              	.LASF212:
 4080 05a7 56656374 		.ascii	"Vector5C\000"
ARM GAS  /tmp/ccmGO9T8.s 			page 77


 4080      6F723543 
 4080      00
 4081              	.LASF188:
 4082 05b0 63685F73 		.ascii	"ch_semaphore\000"
 4082      656D6170 
 4082      686F7265 
 4082      00
 4083              	.LASF91:
 4084 05bd 54414D50 		.ascii	"TAMP_STAMP_IRQn\000"
 4084      5F535441 
 4084      4D505F49 
 4084      52516E00 
 4085              	.LASF210:
 4086 05cd 45585443 		.ascii	"EXTConfig\000"
 4086      6F6E6669 
 4086      6700
 4087              	.LASF49:
 4088 05d7 63685F74 		.ascii	"ch_thread\000"
 4088      68726561 
 4088      6400
 4089              	.LASF111:
 4090 05e1 43414E31 		.ascii	"CAN1_SCE_IRQn\000"
 4090      5F534345 
 4090      5F495251 
 4090      6E00
 4091              	.LASF69:
 4092 05ef 76697274 		.ascii	"virtual_timers_list_t\000"
 4092      75616C5F 
 4092      74696D65 
 4092      72735F6C 
 4092      6973745F 
 4093              	.LASF145:
 4094 0605 444D4132 		.ascii	"DMA2_Stream0_IRQn\000"
 4094      5F537472 
 4094      65616D30 
 4094      5F495251 
 4094      6E00
 4095              	.LASF213:
 4096 0617 56656374 		.ascii	"Vector60\000"
 4096      6F723630 
 4096      00
 4097              	.LASF62:
 4098 0620 76697274 		.ascii	"virtual_timer_t\000"
 4098      75616C5F 
 4098      74696D65 
 4098      725F7400 
 4099              	.LASF53:
 4100 0630 72656164 		.ascii	"ready_list_t\000"
 4100      795F6C69 
 4100      73745F74 
 4100      00
 4101              	.LASF215:
 4102 063d 56656374 		.ascii	"Vector68\000"
 4102      6F723638 
 4102      00
 4103              	.LASF123:
 4104 0646 49324332 		.ascii	"I2C2_ER_IRQn\000"
ARM GAS  /tmp/ccmGO9T8.s 			page 78


 4104      5F45525F 
 4104      4952516E 
 4104      00
 4105              	.LASF50:
 4106 0653 63685F74 		.ascii	"ch_threads_list\000"
 4106      68726561 
 4106      64735F6C 
 4106      69737400 
 4107              	.LASF83:
 4108 0663 42757346 		.ascii	"BusFault_IRQn\000"
 4108      61756C74 
 4108      5F495251 
 4108      6E00
 4109              	.LASF142:
 4110 0671 55415254 		.ascii	"UART5_IRQn\000"
 4110      355F4952 
 4110      516E00
 4111              	.LASF113:
 4112 067c 54494D31 		.ascii	"TIM1_BRK_TIM9_IRQn\000"
 4112      5F42524B 
 4112      5F54494D 
 4112      395F4952 
 4112      516E00
 4113              	.LASF8:
 4114 068f 5F5F7569 		.ascii	"__uint32_t\000"
 4114      6E743332 
 4114      5F7400
 4115              	.LASF144:
 4116 069a 54494D37 		.ascii	"TIM7_IRQn\000"
 4116      5F495251 
 4116      6E00
 4117              	.LASF10:
 4118 06a4 6C6F6E67 		.ascii	"long long int\000"
 4118      206C6F6E 
 4118      6720696E 
 4118      7400
 4119              	.LASF151:
 4120 06b2 4554485F 		.ascii	"ETH_WKUP_IRQn\000"
 4120      574B5550 
 4120      5F495251 
 4120      6E00
 4121              	.LASF166:
 4122 06c0 4F54475F 		.ascii	"OTG_HS_IRQn\000"
 4122      48535F49 
 4122      52516E00 
 4123              	.LASF192:
 4124 06cc 6D5F7175 		.ascii	"m_queue\000"
 4124      65756500 
 4125              	.LASF200:
 4126 06d4 4558545F 		.ascii	"EXT_ACTIVE\000"
 4126      41435449 
 4126      564500
 4127              	.LASF64:
 4128 06df 76745F6E 		.ascii	"vt_next\000"
 4128      65787400 
 4129              	.LASF124:
 4130 06e7 53504931 		.ascii	"SPI1_IRQn\000"
ARM GAS  /tmp/ccmGO9T8.s 			page 79


 4130      5F495251 
 4130      6E00
 4131              	.LASF228:
 4132 06f1 45585444 		.ascii	"EXTD1\000"
 4132      3100
 4133              	.LASF65:
 4134 06f7 76745F70 		.ascii	"vt_prev\000"
 4134      72657600 
 4135              	.LASF85:
 4136 06ff 53564361 		.ascii	"SVCall_IRQn\000"
 4136      6C6C5F49 
 4136      52516E00 
 4137              	.LASF169:
 4138 070b 4650555F 		.ascii	"FPU_IRQn\000"
 4138      4952516E 
 4138      00
 4139              	.LASF141:
 4140 0714 55415254 		.ascii	"UART4_IRQn\000"
 4140      345F4952 
 4140      516E00
 4141              	.LASF40:
 4142 071f 705F7761 		.ascii	"p_waiting\000"
 4142      6974696E 
 4142      6700
 4143              	.LASF131:
 4144 0729 4F54475F 		.ascii	"OTG_FS_WKUP_IRQn\000"
 4144      46535F57 
 4144      4B55505F 
 4144      4952516E 
 4144      00
 4145              	.LASF36:
 4146 073a 705F666C 		.ascii	"p_flags\000"
 4146      61677300 
 4147              	.LASF216:
 4148 0742 56656374 		.ascii	"Vector9C\000"
 4148      6F723943 
 4148      00
 4149              	.LASF80:
 4150 074b 69646C65 		.ascii	"idle_thread_wa\000"
 4150      5F746872 
 4150      6561645F 
 4150      776100
 4151              	.LASF0:
 4152 075a 756E7369 		.ascii	"unsigned int\000"
 4152      676E6564 
 4152      20696E74 
 4152      00
 4153              	.LASF17:
 4154 0767 7274636E 		.ascii	"rtcnt_t\000"
 4154      745F7400 
 4155              	.LASF46:
 4156 076f 705F6D70 		.ascii	"p_mpool\000"
 4156      6F6F6C00 
 4157              	.LASF122:
 4158 0777 49324332 		.ascii	"I2C2_EV_IRQn\000"
 4158      5F45565F 
 4158      4952516E 
ARM GAS  /tmp/ccmGO9T8.s 			page 80


 4158      00
 4159              	.LASF37:
 4160 0784 705F7265 		.ascii	"p_refs\000"
 4160      667300
 4161              	.LASF232:
 4162 078b 5F706F72 		.ascii	"_port_irq_epilogue\000"
 4162      745F6972 
 4162      715F6570 
 4162      696C6F67 
 4162      756500
 4163              	.LASF179:
 4164 079e 6F666673 		.ascii	"offset\000"
 4164      657400
 4165              	.LASF101:
 4166 07a5 444D4131 		.ascii	"DMA1_Stream1_IRQn\000"
 4166      5F537472 
 4166      65616D31 
 4166      5F495251 
 4166      6E00
 4167              	.LASF148:
 4168 07b7 444D4132 		.ascii	"DMA2_Stream3_IRQn\000"
 4168      5F537472 
 4168      65616D33 
 4168      5F495251 
 4168      6E00
 4169              	.LASF152:
 4170 07c9 43414E32 		.ascii	"CAN2_TX_IRQn\000"
 4170      5F54585F 
 4170      4952516E 
 4170      00
 4171              	.LASF175:
 4172 07d6 72656761 		.ascii	"regarm_t\000"
 4172      726D5F74 
 4172      00
 4173              	.LASF39:
 4174 07df 705F7469 		.ascii	"p_time\000"
 4174      6D6500
 4175              	.LASF225:
 4176 07e6 6578745F 		.ascii	"ext_lld_exti_irq_enable\000"
 4176      6C6C645F 
 4176      65787469 
 4176      5F697271 
 4176      5F656E61 
 4177              	.LASF206:
 4178 07fe 65787463 		.ascii	"extcallback_t\000"
 4178      616C6C62 
 4178      61636B5F 
 4178      7400
 4179              	.LASF27:
 4180 080c 74687265 		.ascii	"thread_t\000"
 4180      61645F74 
 4180      00
 4181              	.LASF234:
 4182 0815 6E766963 		.ascii	"nvicDisableVector\000"
 4182      44697361 
 4182      626C6556 
 4182      6563746F 
ARM GAS  /tmp/ccmGO9T8.s 			page 81


 4182      7200
 4183              	.LASF47:
 4184 0827 74687265 		.ascii	"thread_reference_t\000"
 4184      61645F72 
 4184      65666572 
 4184      656E6365 
 4184      5F7400
 4185              	.LASF45:
 4186 083a 705F7265 		.ascii	"p_realprio\000"
 4186      616C7072 
 4186      696F00
 4187              	.LASF178:
 4188 0845 706F7274 		.ascii	"port_intctx\000"
 4188      5F696E74 
 4188      63747800 
 4189              	.LASF66:
 4190 0851 76745F64 		.ascii	"vt_delta\000"
 4190      656C7461 
 4190      00
 4191              	.LASF100:
 4192 085a 444D4131 		.ascii	"DMA1_Stream0_IRQn\000"
 4192      5F537472 
 4192      65616D30 
 4192      5F495251 
 4192      6E00
 4193              	.LASF173:
 4194 086c 53574945 		.ascii	"SWIER\000"
 4194      5200
 4195              	.LASF63:
 4196 0872 63685F76 		.ascii	"ch_virtual_timer\000"
 4196      69727475 
 4196      616C5F74 
 4196      696D6572 
 4196      00
 4197              	.LASF130:
 4198 0883 5254435F 		.ascii	"RTC_Alarm_IRQn\000"
 4198      416C6172 
 4198      6D5F4952 
 4198      516E00
 4199              	.LASF190:
 4200 0892 735F636E 		.ascii	"s_cnt\000"
 4200      7400
 4201              	.LASF162:
 4202 0898 49324333 		.ascii	"I2C3_ER_IRQn\000"
 4202      5F45525F 
 4202      4952516E 
 4202      00
 4203              	.LASF129:
 4204 08a5 45585449 		.ascii	"EXTI15_10_IRQn\000"
 4204      31355F31 
 4204      305F4952 
 4204      516E00
 4205              	.LASF12:
 4206 08b4 6C6F6E67 		.ascii	"long long unsigned int\000"
 4206      206C6F6E 
 4206      6720756E 
 4206      7369676E 
ARM GAS  /tmp/ccmGO9T8.s 			page 82


 4206      65642069 
 4207              	.LASF33:
 4208 08cb 705F6F6C 		.ascii	"p_older\000"
 4208      64657200 
 4209              	.LASF23:
 4210 08d3 6D73675F 		.ascii	"msg_t\000"
 4210      7400
 4211              	.LASF52:
 4212 08d9 63685F74 		.ascii	"ch_threads_queue\000"
 4212      68726561 
 4212      64735F71 
 4212      75657565 
 4212      00
 4213              	.LASF118:
 4214 08ea 54494D33 		.ascii	"TIM3_IRQn\000"
 4214      5F495251 
 4214      6E00
 4215              	.LASF126:
 4216 08f4 55534152 		.ascii	"USART1_IRQn\000"
 4216      54315F49 
 4216      52516E00 
 4217              	.LASF21:
 4218 0900 74736C69 		.ascii	"tslices_t\000"
 4218      6365735F 
 4218      7400
 4219              	.LASF209:
 4220 090a 6368616E 		.ascii	"channels\000"
 4220      6E656C73 
 4220      00
 4221              	.LASF60:
 4222 0913 725F6375 		.ascii	"r_current\000"
 4222      7272656E 
 4222      7400
 4223              	.LASF154:
 4224 091d 43414E32 		.ascii	"CAN2_RX1_IRQn\000"
 4224      5F525831 
 4224      5F495251 
 4224      6E00
 4225              	.LASF107:
 4226 092b 4144435F 		.ascii	"ADC_IRQn\000"
 4226      4952516E 
 4226      00
 4227              	.LASF79:
 4228 0934 6D61696E 		.ascii	"mainthread\000"
 4228      74687265 
 4228      616400
 4229              	.LASF221:
 4230 093f 56656374 		.ascii	"Vector138\000"
 4230      6F723133 
 4230      3800
 4231              	.LASF55:
 4232 0949 725F7175 		.ascii	"r_queue\000"
 4232      65756500 
 4233              	.LASF90:
 4234 0951 5056445F 		.ascii	"PVD_IRQn\000"
 4234      4952516E 
 4234      00
ARM GAS  /tmp/ccmGO9T8.s 			page 83


 4235              	.LASF137:
 4236 095a 46534D43 		.ascii	"FSMC_IRQn\000"
 4236      5F495251 
 4236      6E00
 4237              	.LASF95:
 4238 0964 45585449 		.ascii	"EXTI0_IRQn\000"
 4238      305F4952 
 4238      516E00
 4239              	.LASF77:
 4240 096f 726C6973 		.ascii	"rlist\000"
 4240      7400
 4241              	.LASF18:
 4242 0975 746D6F64 		.ascii	"tmode_t\000"
 4242      655F7400 
 4243              	.LASF104:
 4244 097d 444D4131 		.ascii	"DMA1_Stream4_IRQn\000"
 4244      5F537472 
 4244      65616D34 
 4244      5F495251 
 4244      6E00
 4245              	.LASF205:
 4246 098f 65787063 		.ascii	"expchannel_t\000"
 4246      68616E6E 
 4246      656C5F74 
 4246      00
 4247              	.LASF158:
 4248 099c 444D4132 		.ascii	"DMA2_Stream6_IRQn\000"
 4248      5F537472 
 4248      65616D36 
 4248      5F495251 
 4248      6E00
 4249              	.LASF86:
 4250 09ae 44656275 		.ascii	"DebugMonitor_IRQn\000"
 4250      674D6F6E 
 4250      69746F72 
 4250      5F495251 
 4250      6E00
 4251              	.LASF71:
 4252 09c0 76745F73 		.ascii	"vt_systime\000"
 4252      79737469 
 4252      6D6500
 4253              	.LASF161:
 4254 09cb 49324333 		.ascii	"I2C3_EV_IRQn\000"
 4254      5F45565F 
 4254      4952516E 
 4254      00
 4255              	.LASF59:
 4256 09d8 725F6F6C 		.ascii	"r_older\000"
 4256      64657200 
 4257              	.LASF180:
 4258 09e0 746D5F63 		.ascii	"tm_calibration_t\000"
 4258      616C6962 
 4258      72617469 
 4258      6F6E5F74 
 4258      00
 4259              	.LASF150:
 4260 09f1 4554485F 		.ascii	"ETH_IRQn\000"
ARM GAS  /tmp/ccmGO9T8.s 			page 84


 4260      4952516E 
 4260      00
 4261              	.LASF189:
 4262 09fa 735F7175 		.ascii	"s_queue\000"
 4262      65756500 
 4263              	.LASF3:
 4264 0a02 73686F72 		.ascii	"short int\000"
 4264      7420696E 
 4264      7400
 4265              	.LASF16:
 4266 0a0c 75696E74 		.ascii	"uint64_t\000"
 4266      36345F74 
 4266      00
 4267              	.LASF94:
 4268 0a15 5243435F 		.ascii	"RCC_IRQn\000"
 4268      4952516E 
 4268      00
 4269              	.LASF207:
 4270 0a1e 6D6F6465 		.ascii	"mode\000"
 4270      00
 4271              	.LASF191:
 4272 0a23 63685F6D 		.ascii	"ch_mutex\000"
 4272      75746578 
 4272      00
 4273              	.LASF56:
 4274 0a2c 725F7072 		.ascii	"r_prio\000"
 4274      696F00
 4275              	.LASF103:
 4276 0a33 444D4131 		.ascii	"DMA1_Stream3_IRQn\000"
 4276      5F537472 
 4276      65616D33 
 4276      5F495251 
 4276      6E00
 4277              	.LASF73:
 4278 0a45 63685F73 		.ascii	"ch_system_debug\000"
 4278      79737465 
 4278      6D5F6465 
 4278      62756700 
 4279              	.LASF114:
 4280 0a55 54494D31 		.ascii	"TIM1_UP_TIM10_IRQn\000"
 4280      5F55505F 
 4280      54494D31 
 4280      305F4952 
 4280      516E00
 4281              	.LASF227:
 4282 0a68 49544D5F 		.ascii	"ITM_RxBuffer\000"
 4282      52784275 
 4282      66666572 
 4282      00
 4283              	.LASF78:
 4284 0a75 76746C69 		.ascii	"vtlist\000"
 4284      737400
 4285              	.LASF222:
 4286 0a7c 56656374 		.ascii	"Vector170\000"
 4286      6F723137 
 4286      3000
 4287              	.LASF196:
ARM GAS  /tmp/ccmGO9T8.s 			page 85


 4288 0a86 6D757465 		.ascii	"mutex_t\000"
 4288      785F7400 
 4289              	.LASF20:
 4290 0a8e 74726566 		.ascii	"trefs_t\000"
 4290      735F7400 
 4291              	.LASF163:
 4292 0a96 4F54475F 		.ascii	"OTG_HS_EP1_OUT_IRQn\000"
 4292      48535F45 
 4292      50315F4F 
 4292      55545F49 
 4292      52516E00 
 4293              	.LASF48:
 4294 0aaa 74687265 		.ascii	"threads_list_t\000"
 4294      6164735F 
 4294      6C697374 
 4294      5F7400
 4295              	.LASF76:
 4296 0ab9 63685F73 		.ascii	"ch_system\000"
 4296      79737465 
 4296      6D00
 4297              	.LASF233:
 4298 0ac3 6E766963 		.ascii	"nvicEnableVector\000"
 4298      456E6162 
 4298      6C655665 
 4298      63746F72 
 4298      00
 4299              	.LASF15:
 4300 0ad4 75696E74 		.ascii	"uint32_t\000"
 4300      33325F74 
 4300      00
 4301              	.LASF110:
 4302 0add 43414E31 		.ascii	"CAN1_RX1_IRQn\000"
 4302      5F525831 
 4302      5F495251 
 4302      6E00
 4303              	.LASF112:
 4304 0aeb 45585449 		.ascii	"EXTI9_5_IRQn\000"
 4304      395F355F 
 4304      4952516E 
 4304      00
 4305              	.LASF181:
 4306 0af8 7264796D 		.ascii	"rdymsg\000"
 4306      736700
 4307              	.LASF99:
 4308 0aff 45585449 		.ascii	"EXTI4_IRQn\000"
 4308      345F4952 
 4308      516E00
 4309              	.LASF4:
 4310 0b0a 73686F72 		.ascii	"short unsigned int\000"
 4310      7420756E 
 4310      7369676E 
 4310      65642069 
 4310      6E7400
 4311              	.LASF135:
 4312 0b1d 54494D38 		.ascii	"TIM8_CC_IRQn\000"
 4312      5F43435F 
 4312      4952516E 
ARM GAS  /tmp/ccmGO9T8.s 			page 86


 4312      00
 4313              	.LASF138:
 4314 0b2a 5344494F 		.ascii	"SDIO_IRQn\000"
 4314      5F495251 
 4314      6E00
 4315              	.LASF231:
 4316 0b34 2F686F6D 		.ascii	"/home/benjamin/Skrivbord/SP-RCCar/Embedded/RC_Contr"
 4316      652F6265 
 4316      6E6A616D 
 4316      696E2F53 
 4316      6B726976 
 4317 0b67 6F6C6C65 		.ascii	"oller/\000"
 4317      722F00
 4318              	.LASF75:
 4319 0b6e 63685F73 		.ascii	"ch_system_t\000"
 4319      79737465 
 4319      6D5F7400 
 4320              	.LASF217:
 4321 0b7a 56656374 		.ascii	"VectorE0\000"
 4321      6F724530 
 4321      00
 4322              	.LASF219:
 4323 0b83 56656374 		.ascii	"VectorE4\000"
 4323      6F724534 
 4323      00
 4324              	.LASF98:
 4325 0b8c 45585449 		.ascii	"EXTI3_IRQn\000"
 4325      335F4952 
 4325      516E00
 4326              	.LASF87:
 4327 0b97 50656E64 		.ascii	"PendSV_IRQn\000"
 4327      53565F49 
 4327      52516E00 
 4328              	.LASF164:
 4329 0ba3 4F54475F 		.ascii	"OTG_HS_EP1_IN_IRQn\000"
 4329      48535F45 
 4329      50315F49 
 4329      4E5F4952 
 4329      516E00
 4330              	.LASF136:
 4331 0bb6 444D4131 		.ascii	"DMA1_Stream7_IRQn\000"
 4331      5F537472 
 4331      65616D37 
 4331      5F495251 
 4331      6E00
 4332              	.LASF230:
 4333 0bc8 43686962 		.ascii	"ChibiOS_3.0.2/os/hal/ports/STM32/STM32F4xx/ext_lld_"
 4333      694F535F 
 4333      332E302E 
 4333      322F6F73 
 4333      2F68616C 
 4334 0bfb 6973722E 		.ascii	"isr.c\000"
 4334      6300
 4335              	.LASF6:
 4336 0c01 5F5F696E 		.ascii	"__int32_t\000"
 4336      7433325F 
 4336      7400
ARM GAS  /tmp/ccmGO9T8.s 			page 87


 4337              	.LASF202:
 4338 0c0b 45585444 		.ascii	"EXTDriver\000"
 4338      72697665 
 4338      7200
 4339              	.LASF34:
 4340 0c15 705F6E61 		.ascii	"p_name\000"
 4340      6D6500
 4341              	.LASF194:
 4342 0c1c 6D5F6E65 		.ascii	"m_next\000"
 4342      787400
 4343              	.LASF143:
 4344 0c23 54494D36 		.ascii	"TIM6_DAC_IRQn\000"
 4344      5F444143 
 4344      5F495251 
 4344      6E00
 4345              	.LASF147:
 4346 0c31 444D4132 		.ascii	"DMA2_Stream2_IRQn\000"
 4346      5F537472 
 4346      65616D32 
 4346      5F495251 
 4346      6E00
 4347              	.LASF42:
 4348 0c43 705F6D73 		.ascii	"p_msg\000"
 4348      6700
 4349              	.LASF35:
 4350 0c49 705F7374 		.ascii	"p_state\000"
 4350      61746500 
 4351              		.ident	"GCC: (GNU Tools for ARM Embedded Processors) 4.9.3 20150529 (release) [ARM/embedded-4_9-br
ARM GAS  /tmp/ccmGO9T8.s 			page 88


DEFINED SYMBOLS
                            *ABS*:0000000000000000 ext_lld_isr.c
     /tmp/ccmGO9T8.s:21     .text.Vector58:0000000000000000 $t
     /tmp/ccmGO9T8.s:27     .text.Vector58:0000000000000000 Vector58
     /tmp/ccmGO9T8.s:65     .text.Vector58:000000000000001c $d
     /tmp/ccmGO9T8.s:71     .text.Vector5C:0000000000000000 $t
     /tmp/ccmGO9T8.s:77     .text.Vector5C:0000000000000000 Vector5C
     /tmp/ccmGO9T8.s:114    .text.Vector5C:000000000000001c $d
     /tmp/ccmGO9T8.s:120    .text.Vector60:0000000000000000 $t
     /tmp/ccmGO9T8.s:126    .text.Vector60:0000000000000000 Vector60
     /tmp/ccmGO9T8.s:163    .text.Vector60:000000000000001c $d
     /tmp/ccmGO9T8.s:169    .text.Vector64:0000000000000000 $t
     /tmp/ccmGO9T8.s:175    .text.Vector64:0000000000000000 Vector64
     /tmp/ccmGO9T8.s:212    .text.Vector64:000000000000001c $d
     /tmp/ccmGO9T8.s:218    .text.Vector68:0000000000000000 $t
     /tmp/ccmGO9T8.s:224    .text.Vector68:0000000000000000 Vector68
     /tmp/ccmGO9T8.s:261    .text.Vector68:000000000000001c $d
     /tmp/ccmGO9T8.s:267    .text.Vector9C:0000000000000000 $t
     /tmp/ccmGO9T8.s:273    .text.Vector9C:0000000000000000 Vector9C
     /tmp/ccmGO9T8.s:371    .text.Vector9C:0000000000000064 $d
     /tmp/ccmGO9T8.s:377    .text.VectorE0:0000000000000000 $t
     /tmp/ccmGO9T8.s:383    .text.VectorE0:0000000000000000 VectorE0
     /tmp/ccmGO9T8.s:496    .text.VectorE0:0000000000000074 $d
     /tmp/ccmGO9T8.s:502    .text.Vector44:0000000000000000 $t
     /tmp/ccmGO9T8.s:508    .text.Vector44:0000000000000000 Vector44
     /tmp/ccmGO9T8.s:545    .text.Vector44:0000000000000020 $d
     /tmp/ccmGO9T8.s:551    .text.VectorE4:0000000000000000 $t
     /tmp/ccmGO9T8.s:557    .text.VectorE4:0000000000000000 VectorE4
     /tmp/ccmGO9T8.s:594    .text.VectorE4:0000000000000020 $d
     /tmp/ccmGO9T8.s:600    .text.VectorE8:0000000000000000 $t
     /tmp/ccmGO9T8.s:606    .text.VectorE8:0000000000000000 VectorE8
     /tmp/ccmGO9T8.s:643    .text.VectorE8:0000000000000020 $d
     /tmp/ccmGO9T8.s:649    .text.Vector138:0000000000000000 $t
     /tmp/ccmGO9T8.s:655    .text.Vector138:0000000000000000 Vector138
     /tmp/ccmGO9T8.s:692    .text.Vector138:0000000000000020 $d
     /tmp/ccmGO9T8.s:698    .text.Vector170:0000000000000000 $t
     /tmp/ccmGO9T8.s:704    .text.Vector170:0000000000000000 Vector170
     /tmp/ccmGO9T8.s:741    .text.Vector170:0000000000000020 $d
     /tmp/ccmGO9T8.s:747    .text.Vector48:0000000000000000 $t
     /tmp/ccmGO9T8.s:753    .text.Vector48:0000000000000000 Vector48
     /tmp/ccmGO9T8.s:790    .text.Vector48:0000000000000020 $d
     /tmp/ccmGO9T8.s:796    .text.Vector4C:0000000000000000 $t
     /tmp/ccmGO9T8.s:802    .text.Vector4C:0000000000000000 Vector4C
     /tmp/ccmGO9T8.s:839    .text.Vector4C:0000000000000020 $d
     /tmp/ccmGO9T8.s:845    .text.ext_lld_exti_irq_enable:0000000000000000 $t
     /tmp/ccmGO9T8.s:851    .text.ext_lld_exti_irq_enable:0000000000000000 ext_lld_exti_irq_enable
     /tmp/ccmGO9T8.s:943    .text.ext_lld_exti_irq_disable:0000000000000000 $t
     /tmp/ccmGO9T8.s:949    .text.ext_lld_exti_irq_disable:0000000000000000 ext_lld_exti_irq_disable
                     .debug_frame:0000000000000010 $d

UNDEFINED SYMBOLS
_port_irq_epilogue
EXTD1
nvicEnableVector
nvicDisableVector
