ARM GAS  /tmp/ccmGO9T8.s 			page 1


   1              		.syntax unified
   2              		.cpu cortex-m4
   3              		.eabi_attribute 27, 1
   4              		.eabi_attribute 28, 1
   5              		.fpu fpv4-sp-d16
   6              		.eabi_attribute 20, 1
   7              		.eabi_attribute 21, 1
   8              		.eabi_attribute 23, 3
   9              		.eabi_attribute 24, 1
  10              		.eabi_attribute 25, 1
  11              		.eabi_attribute 26, 1
  12              		.eabi_attribute 30, 2
  13              		.eabi_attribute 34, 1
  14              		.eabi_attribute 18, 4
  15              		.thumb
  16              		.file	"ext_lld_isr.c"
  17              		.text
  18              	.Ltext0:
  19              		.cfi_sections	.debug_frame
  20              		.section	.text.Vector58,"ax",%progbits
  21              		.align	2
  22              		.p2align 4,,15
  23              		.global	Vector58
  24              		.thumb
  25              		.thumb_func
  26              		.type	Vector58, %function
  27              	Vector58:
  28              	.LFB256:
  29              		.file 1 "ChibiOS_3.0.2/os/hal/ports/STM32/STM32F4xx/ext_lld_isr.c"
  30              		.loc 1 56 0
  31              		.cfi_startproc
  32              		@ args = 0, pretend = 0, frame = 0
  33              		@ frame_needed = 0, uses_anonymous_args = 0
  34 0000 08B5     		push	{r3, lr}
  35              		.cfi_def_cfa_offset 8
  36              		.cfi_offset 3, -8
  37              		.cfi_offset 14, -4
  38              		.loc 1 61 0
  39 0002 0648     		ldr	r0, .L3
  40              		.loc 1 60 0
  41 0004 064A     		ldr	r2, .L3+4
  42              		.loc 1 61 0
  43 0006 4368     		ldr	r3, [r0, #4]
  44              		.loc 1 60 0
  45 0008 0121     		movs	r1, #1
  46              		.loc 1 61 0
  47 000a 5B68     		ldr	r3, [r3, #4]
  48              		.loc 1 60 0
  49 000c 5161     		str	r1, [r2, #20]
  50              		.loc 1 61 0
  51 000e 0021     		movs	r1, #0
  52 0010 9847     		blx	r3
  53              	.LVL0:
  54              		.loc 1 64 0
  55 0012 BDE80840 		pop	{r3, lr}
  56              		.cfi_restore 14
  57              		.cfi_restore 3
ARM GAS  /tmp/ccmGO9T8.s 			page 2


  58              		.cfi_def_cfa_offset 0
  59              		.loc 1 63 0
  60 0016 FFF7FEBF 		b	_port_irq_epilogue
  61              	.LVL1:
  62              	.L4:
  63 001a 00BF     		.align	2
  64              	.L3:
  65 001c 00000000 		.word	EXTD1
  66 0020 003C0140 		.word	1073822720
  67              		.cfi_endproc
  68              	.LFE256:
  69              		.size	Vector58, .-Vector58
  70              		.section	.text.Vector5C,"ax",%progbits
  71              		.align	2
  72              		.p2align 4,,15
  73              		.global	Vector5C
  74              		.thumb
  75              		.thumb_func
  76              		.type	Vector5C, %function
  77              	Vector5C:
  78              	.LFB257:
  79              		.loc 1 71 0
  80              		.cfi_startproc
  81              		@ args = 0, pretend = 0, frame = 0
  82              		@ frame_needed = 0, uses_anonymous_args = 0
  83 0000 08B5     		push	{r3, lr}
  84              		.cfi_def_cfa_offset 8
  85              		.cfi_offset 3, -8
  86              		.cfi_offset 14, -4
  87              		.loc 1 76 0
  88 0002 0648     		ldr	r0, .L7
  89              		.loc 1 75 0
  90 0004 064A     		ldr	r2, .L7+4
  91              		.loc 1 76 0
  92 0006 4368     		ldr	r3, [r0, #4]
  93              		.loc 1 75 0
  94 0008 0221     		movs	r1, #2
  95              		.loc 1 76 0
  96 000a DB68     		ldr	r3, [r3, #12]
  97              		.loc 1 75 0
  98 000c 5161     		str	r1, [r2, #20]
  99              		.loc 1 76 0
 100 000e 0121     		movs	r1, #1
 101 0010 9847     		blx	r3
 102              	.LVL2:
 103              		.loc 1 79 0
 104 0012 BDE80840 		pop	{r3, lr}
 105              		.cfi_restore 14
 106              		.cfi_restore 3
 107              		.cfi_def_cfa_offset 0
 108              		.loc 1 78 0
 109 0016 FFF7FEBF 		b	_port_irq_epilogue
 110              	.LVL3:
 111              	.L8:
 112 001a 00BF     		.align	2
 113              	.L7:
 114 001c 00000000 		.word	EXTD1
ARM GAS  /tmp/ccmGO9T8.s 			page 3


 115 0020 003C0140 		.word	1073822720
 116              		.cfi_endproc
 117              	.LFE257:
 118              		.size	Vector5C, .-Vector5C
 119              		.section	.text.Vector60,"ax",%progbits
 120              		.align	2
 121              		.p2align 4,,15
 122              		.global	Vector60
 123              		.thumb
 124              		.thumb_func
 125              		.type	Vector60, %function
 126              	Vector60:
 127              	.LFB258:
 128              		.loc 1 86 0
 129              		.cfi_startproc
 130              		@ args = 0, pretend = 0, frame = 0
 131              		@ frame_needed = 0, uses_anonymous_args = 0
 132 0000 08B5     		push	{r3, lr}
 133              		.cfi_def_cfa_offset 8
 134              		.cfi_offset 3, -8
 135              		.cfi_offset 14, -4
 136              		.loc 1 91 0
 137 0002 0648     		ldr	r0, .L11
 138              		.loc 1 90 0
 139 0004 064A     		ldr	r2, .L11+4
 140              		.loc 1 91 0
 141 0006 4368     		ldr	r3, [r0, #4]
 142              		.loc 1 90 0
 143 0008 0421     		movs	r1, #4
 144              		.loc 1 91 0
 145 000a 5B69     		ldr	r3, [r3, #20]
 146              		.loc 1 90 0
 147 000c 5161     		str	r1, [r2, #20]
 148              		.loc 1 91 0
 149 000e 0221     		movs	r1, #2
 150 0010 9847     		blx	r3
 151              	.LVL4:
 152              		.loc 1 94 0
 153 0012 BDE80840 		pop	{r3, lr}
 154              		.cfi_restore 14
 155              		.cfi_restore 3
 156              		.cfi_def_cfa_offset 0
 157              		.loc 1 93 0
 158 0016 FFF7FEBF 		b	_port_irq_epilogue
 159              	.LVL5:
 160              	.L12:
 161 001a 00BF     		.align	2
 162              	.L11:
 163 001c 00000000 		.word	EXTD1
 164 0020 003C0140 		.word	1073822720
 165              		.cfi_endproc
 166              	.LFE258:
 167              		.size	Vector60, .-Vector60
 168              		.section	.text.Vector64,"ax",%progbits
 169              		.align	2
 170              		.p2align 4,,15
 171              		.global	Vector64
ARM GAS  /tmp/ccmGO9T8.s 			page 4


 172              		.thumb
 173              		.thumb_func
 174              		.type	Vector64, %function
 175              	Vector64:
 176              	.LFB259:
 177              		.loc 1 101 0
 178              		.cfi_startproc
 179              		@ args = 0, pretend = 0, frame = 0
 180              		@ frame_needed = 0, uses_anonymous_args = 0
 181 0000 08B5     		push	{r3, lr}
 182              		.cfi_def_cfa_offset 8
 183              		.cfi_offset 3, -8
 184              		.cfi_offset 14, -4
 185              		.loc 1 106 0
 186 0002 0648     		ldr	r0, .L15
 187              		.loc 1 105 0
 188 0004 064A     		ldr	r2, .L15+4
 189              		.loc 1 106 0
 190 0006 4368     		ldr	r3, [r0, #4]
 191              		.loc 1 105 0
 192 0008 0821     		movs	r1, #8
 193              		.loc 1 106 0
 194 000a DB69     		ldr	r3, [r3, #28]
 195              		.loc 1 105 0
 196 000c 5161     		str	r1, [r2, #20]
 197              		.loc 1 106 0
 198 000e 0321     		movs	r1, #3
 199 0010 9847     		blx	r3
 200              	.LVL6:
 201              		.loc 1 109 0
 202 0012 BDE80840 		pop	{r3, lr}
 203              		.cfi_restore 14
 204              		.cfi_restore 3
 205              		.cfi_def_cfa_offset 0
 206              		.loc 1 108 0
 207 0016 FFF7FEBF 		b	_port_irq_epilogue
 208              	.LVL7:
 209              	.L16:
 210 001a 00BF     		.align	2
 211              	.L15:
 212 001c 00000000 		.word	EXTD1
 213 0020 003C0140 		.word	1073822720
 214              		.cfi_endproc
 215              	.LFE259:
 216              		.size	Vector64, .-Vector64
 217              		.section	.text.Vector68,"ax",%progbits
 218              		.align	2
 219              		.p2align 4,,15
 220              		.global	Vector68
 221              		.thumb
 222              		.thumb_func
 223              		.type	Vector68, %function
 224              	Vector68:
 225              	.LFB260:
 226              		.loc 1 116 0
 227              		.cfi_startproc
 228              		@ args = 0, pretend = 0, frame = 0
ARM GAS  /tmp/ccmGO9T8.s 			page 5


 229              		@ frame_needed = 0, uses_anonymous_args = 0
 230 0000 08B5     		push	{r3, lr}
 231              		.cfi_def_cfa_offset 8
 232              		.cfi_offset 3, -8
 233              		.cfi_offset 14, -4
 234              		.loc 1 121 0
 235 0002 0648     		ldr	r0, .L19
 236              		.loc 1 120 0
 237 0004 064A     		ldr	r2, .L19+4
 238              		.loc 1 121 0
 239 0006 4368     		ldr	r3, [r0, #4]
 240              		.loc 1 120 0
 241 0008 1021     		movs	r1, #16
 242              		.loc 1 121 0
 243 000a 5B6A     		ldr	r3, [r3, #36]
 244              		.loc 1 120 0
 245 000c 5161     		str	r1, [r2, #20]
 246              		.loc 1 121 0
 247 000e 0421     		movs	r1, #4
 248 0010 9847     		blx	r3
 249              	.LVL8:
 250              		.loc 1 124 0
 251 0012 BDE80840 		pop	{r3, lr}
 252              		.cfi_restore 14
 253              		.cfi_restore 3
 254              		.cfi_def_cfa_offset 0
 255              		.loc 1 123 0
 256 0016 FFF7FEBF 		b	_port_irq_epilogue
 257              	.LVL9:
 258              	.L20:
 259 001a 00BF     		.align	2
 260              	.L19:
 261 001c 00000000 		.word	EXTD1
 262 0020 003C0140 		.word	1073822720
 263              		.cfi_endproc
 264              	.LFE260:
 265              		.size	Vector68, .-Vector68
 266              		.section	.text.Vector9C,"ax",%progbits
 267              		.align	2
 268              		.p2align 4,,15
 269              		.global	Vector9C
 270              		.thumb
 271              		.thumb_func
 272              		.type	Vector9C, %function
 273              	Vector9C:
 274              	.LFB261:
 275              		.loc 1 131 0
 276              		.cfi_startproc
 277              		@ args = 0, pretend = 0, frame = 0
 278              		@ frame_needed = 0, uses_anonymous_args = 0
 279              		.loc 1 136 0
 280 0000 184B     		ldr	r3, .L48
 281              		.loc 1 131 0
 282 0002 10B5     		push	{r4, lr}
 283              		.cfi_def_cfa_offset 8
 284              		.cfi_offset 4, -8
 285              		.cfi_offset 14, -4
ARM GAS  /tmp/ccmGO9T8.s 			page 6


 286              		.loc 1 136 0
 287 0004 5C69     		ldr	r4, [r3, #20]
 288 0006 04F47872 		and	r2, r4, #992
 289              	.LVL10:
 290              		.loc 1 137 0
 291 000a 5A61     		str	r2, [r3, #20]
 292              		.loc 1 138 0
 293 000c A306     		lsls	r3, r4, #26
 294 000e 22D4     		bmi	.L44
 295              	.LVL11:
 296              	.L22:
 297              		.loc 1 140 0
 298 0010 6006     		lsls	r0, r4, #25
 299 0012 1AD4     		bmi	.L45
 300              	.L23:
 301              		.loc 1 142 0
 302 0014 2106     		lsls	r1, r4, #24
 303 0016 12D4     		bmi	.L46
 304              	.L24:
 305              		.loc 1 144 0
 306 0018 E205     		lsls	r2, r4, #23
 307 001a 0AD4     		bmi	.L47
 308              	.L25:
 309              		.loc 1 146 0
 310 001c A305     		lsls	r3, r4, #22
 311 001e 04D5     		bpl	.L26
 312              		.loc 1 147 0
 313 0020 1148     		ldr	r0, .L48+4
 314 0022 4368     		ldr	r3, [r0, #4]
 315 0024 0921     		movs	r1, #9
 316 0026 DB6C     		ldr	r3, [r3, #76]
 317 0028 9847     		blx	r3
 318              	.LVL12:
 319              	.L26:
 320              		.loc 1 150 0
 321 002a BDE81040 		pop	{r4, lr}
 322              		.cfi_remember_state
 323              		.cfi_restore 14
 324              		.cfi_restore 4
 325              		.cfi_def_cfa_offset 0
 326              	.LVL13:
 327              		.loc 1 149 0
 328 002e FFF7FEBF 		b	_port_irq_epilogue
 329              	.LVL14:
 330              	.L47:
 331              		.cfi_restore_state
 332              		.loc 1 145 0
 333 0032 0D48     		ldr	r0, .L48+4
 334 0034 4368     		ldr	r3, [r0, #4]
 335 0036 0821     		movs	r1, #8
 336 0038 5B6C     		ldr	r3, [r3, #68]
 337 003a 9847     		blx	r3
 338              	.LVL15:
 339 003c EEE7     		b	.L25
 340              	.L46:
 341              		.loc 1 143 0
 342 003e 0A48     		ldr	r0, .L48+4
ARM GAS  /tmp/ccmGO9T8.s 			page 7


 343 0040 4368     		ldr	r3, [r0, #4]
 344 0042 0721     		movs	r1, #7
 345 0044 DB6B     		ldr	r3, [r3, #60]
 346 0046 9847     		blx	r3
 347              	.LVL16:
 348 0048 E6E7     		b	.L24
 349              	.L45:
 350              		.loc 1 141 0
 351 004a 0748     		ldr	r0, .L48+4
 352 004c 4368     		ldr	r3, [r0, #4]
 353 004e 0621     		movs	r1, #6
 354 0050 5B6B     		ldr	r3, [r3, #52]
 355 0052 9847     		blx	r3
 356              	.LVL17:
 357 0054 DEE7     		b	.L23
 358              	.LVL18:
 359              	.L44:
 360              		.loc 1 139 0
 361 0056 0448     		ldr	r0, .L48+4
 362 0058 4368     		ldr	r3, [r0, #4]
 363 005a 0521     		movs	r1, #5
 364 005c DB6A     		ldr	r3, [r3, #44]
 365 005e 9847     		blx	r3
 366              	.LVL19:
 367 0060 D6E7     		b	.L22
 368              	.L49:
 369 0062 00BF     		.align	2
 370              	.L48:
 371 0064 003C0140 		.word	1073822720
 372 0068 00000000 		.word	EXTD1
 373              		.cfi_endproc
 374              	.LFE261:
 375              		.size	Vector9C, .-Vector9C
 376              		.section	.text.VectorE0,"ax",%progbits
 377              		.align	2
 378              		.p2align 4,,15
 379              		.global	VectorE0
 380              		.thumb
 381              		.thumb_func
 382              		.type	VectorE0, %function
 383              	VectorE0:
 384              	.LFB262:
 385              		.loc 1 157 0
 386              		.cfi_startproc
 387              		@ args = 0, pretend = 0, frame = 0
 388              		@ frame_needed = 0, uses_anonymous_args = 0
 389              		.loc 1 162 0
 390 0000 1C4B     		ldr	r3, .L81
 391              		.loc 1 157 0
 392 0002 10B5     		push	{r4, lr}
 393              		.cfi_def_cfa_offset 8
 394              		.cfi_offset 4, -8
 395              		.cfi_offset 14, -4
 396              		.loc 1 162 0
 397 0004 5C69     		ldr	r4, [r3, #20]
 398 0006 04F47C42 		and	r2, r4, #64512
 399              	.LVL20:
ARM GAS  /tmp/ccmGO9T8.s 			page 8


 400              		.loc 1 164 0
 401 000a 5A61     		str	r2, [r3, #20]
 402              		.loc 1 165 0
 403 000c 6205     		lsls	r2, r4, #21
 404              	.LVL21:
 405 000e 2AD4     		bmi	.L76
 406              	.LVL22:
 407              	.L51:
 408              		.loc 1 167 0
 409 0010 2305     		lsls	r3, r4, #20
 410 0012 22D4     		bmi	.L77
 411              	.L52:
 412              		.loc 1 169 0
 413 0014 E004     		lsls	r0, r4, #19
 414 0016 1AD4     		bmi	.L78
 415              	.L53:
 416              		.loc 1 171 0
 417 0018 A104     		lsls	r1, r4, #18
 418 001a 12D4     		bmi	.L79
 419              	.L54:
 420              		.loc 1 173 0
 421 001c 6204     		lsls	r2, r4, #17
 422 001e 0AD4     		bmi	.L80
 423              	.L55:
 424              		.loc 1 175 0
 425 0020 2304     		lsls	r3, r4, #16
 426 0022 04D5     		bpl	.L56
 427              		.loc 1 176 0
 428 0024 1448     		ldr	r0, .L81+4
 429 0026 4368     		ldr	r3, [r0, #4]
 430 0028 0F21     		movs	r1, #15
 431 002a DB6F     		ldr	r3, [r3, #124]
 432 002c 9847     		blx	r3
 433              	.LVL23:
 434              	.L56:
 435              		.loc 1 179 0
 436 002e BDE81040 		pop	{r4, lr}
 437              		.cfi_remember_state
 438              		.cfi_restore 14
 439              		.cfi_restore 4
 440              		.cfi_def_cfa_offset 0
 441              	.LVL24:
 442              		.loc 1 178 0
 443 0032 FFF7FEBF 		b	_port_irq_epilogue
 444              	.LVL25:
 445              	.L80:
 446              		.cfi_restore_state
 447              		.loc 1 174 0
 448 0036 1048     		ldr	r0, .L81+4
 449 0038 4368     		ldr	r3, [r0, #4]
 450 003a 0E21     		movs	r1, #14
 451 003c 5B6F     		ldr	r3, [r3, #116]
 452 003e 9847     		blx	r3
 453              	.LVL26:
 454 0040 EEE7     		b	.L55
 455              	.L79:
 456              		.loc 1 172 0
ARM GAS  /tmp/ccmGO9T8.s 			page 9


 457 0042 0D48     		ldr	r0, .L81+4
 458 0044 4368     		ldr	r3, [r0, #4]
 459 0046 0D21     		movs	r1, #13
 460 0048 DB6E     		ldr	r3, [r3, #108]
 461 004a 9847     		blx	r3
 462              	.LVL27:
 463 004c E6E7     		b	.L54
 464              	.L78:
 465              		.loc 1 170 0
 466 004e 0A48     		ldr	r0, .L81+4
 467 0050 4368     		ldr	r3, [r0, #4]
 468 0052 0C21     		movs	r1, #12
 469 0054 5B6E     		ldr	r3, [r3, #100]
 470 0056 9847     		blx	r3
 471              	.LVL28:
 472 0058 DEE7     		b	.L53
 473              	.L77:
 474              		.loc 1 168 0
 475 005a 0748     		ldr	r0, .L81+4
 476 005c 4368     		ldr	r3, [r0, #4]
 477 005e 0B21     		movs	r1, #11
 478 0060 DB6D     		ldr	r3, [r3, #92]
 479 0062 9847     		blx	r3
 480              	.LVL29:
 481 0064 D6E7     		b	.L52
 482              	.LVL30:
 483              	.L76:
 484              		.loc 1 166 0
 485 0066 0448     		ldr	r0, .L81+4
 486 0068 4368     		ldr	r3, [r0, #4]
 487              	.LVL31:
 488 006a 0A21     		movs	r1, #10
 489 006c 5B6D     		ldr	r3, [r3, #84]
 490 006e 9847     		blx	r3
 491              	.LVL32:
 492 0070 CEE7     		b	.L51
 493              	.L82:
 494 0072 00BF     		.align	2
 495              	.L81:
 496 0074 003C0140 		.word	1073822720
 497 0078 00000000 		.word	EXTD1
 498              		.cfi_endproc
 499              	.LFE262:
 500              		.size	VectorE0, .-VectorE0
 501              		.section	.text.Vector44,"ax",%progbits
 502              		.align	2
 503              		.p2align 4,,15
 504              		.global	Vector44
 505              		.thumb
 506              		.thumb_func
 507              		.type	Vector44, %function
 508              	Vector44:
 509              	.LFB263:
 510              		.loc 1 186 0
 511              		.cfi_startproc
 512              		@ args = 0, pretend = 0, frame = 0
 513              		@ frame_needed = 0, uses_anonymous_args = 0
ARM GAS  /tmp/ccmGO9T8.s 			page 10


 514 0000 08B5     		push	{r3, lr}
 515              		.cfi_def_cfa_offset 8
 516              		.cfi_offset 3, -8
 517              		.cfi_offset 14, -4
 518              		.loc 1 191 0
 519 0002 0748     		ldr	r0, .L85
 520              		.loc 1 190 0
 521 0004 074A     		ldr	r2, .L85+4
 522              		.loc 1 191 0
 523 0006 4368     		ldr	r3, [r0, #4]
 524              		.loc 1 190 0
 525 0008 4FF48031 		mov	r1, #65536
 526              		.loc 1 191 0
 527 000c D3F88430 		ldr	r3, [r3, #132]
 528              		.loc 1 190 0
 529 0010 5161     		str	r1, [r2, #20]
 530              		.loc 1 191 0
 531 0012 1021     		movs	r1, #16
 532 0014 9847     		blx	r3
 533              	.LVL33:
 534              		.loc 1 194 0
 535 0016 BDE80840 		pop	{r3, lr}
 536              		.cfi_restore 14
 537              		.cfi_restore 3
 538              		.cfi_def_cfa_offset 0
 539              		.loc 1 193 0
 540 001a FFF7FEBF 		b	_port_irq_epilogue
 541              	.LVL34:
 542              	.L86:
 543 001e 00BF     		.align	2
 544              	.L85:
 545 0020 00000000 		.word	EXTD1
 546 0024 003C0140 		.word	1073822720
 547              		.cfi_endproc
 548              	.LFE263:
 549              		.size	Vector44, .-Vector44
 550              		.section	.text.VectorE4,"ax",%progbits
 551              		.align	2
 552              		.p2align 4,,15
 553              		.global	VectorE4
 554              		.thumb
 555              		.thumb_func
 556              		.type	VectorE4, %function
 557              	VectorE4:
 558              	.LFB264:
 559              		.loc 1 201 0
 560              		.cfi_startproc
 561              		@ args = 0, pretend = 0, frame = 0
 562              		@ frame_needed = 0, uses_anonymous_args = 0
 563 0000 08B5     		push	{r3, lr}
 564              		.cfi_def_cfa_offset 8
 565              		.cfi_offset 3, -8
 566              		.cfi_offset 14, -4
 567              		.loc 1 206 0
 568 0002 0748     		ldr	r0, .L89
 569              		.loc 1 205 0
 570 0004 074A     		ldr	r2, .L89+4
ARM GAS  /tmp/ccmGO9T8.s 			page 11


 571              		.loc 1 206 0
 572 0006 4368     		ldr	r3, [r0, #4]
 573              		.loc 1 205 0
 574 0008 4FF40031 		mov	r1, #131072
 575              		.loc 1 206 0
 576 000c D3F88C30 		ldr	r3, [r3, #140]
 577              		.loc 1 205 0
 578 0010 5161     		str	r1, [r2, #20]
 579              		.loc 1 206 0
 580 0012 1121     		movs	r1, #17
 581 0014 9847     		blx	r3
 582              	.LVL35:
 583              		.loc 1 209 0
 584 0016 BDE80840 		pop	{r3, lr}
 585              		.cfi_restore 14
 586              		.cfi_restore 3
 587              		.cfi_def_cfa_offset 0
 588              		.loc 1 208 0
 589 001a FFF7FEBF 		b	_port_irq_epilogue
 590              	.LVL36:
 591              	.L90:
 592 001e 00BF     		.align	2
 593              	.L89:
 594 0020 00000000 		.word	EXTD1
 595 0024 003C0140 		.word	1073822720
 596              		.cfi_endproc
 597              	.LFE264:
 598              		.size	VectorE4, .-VectorE4
 599              		.section	.text.VectorE8,"ax",%progbits
 600              		.align	2
 601              		.p2align 4,,15
 602              		.global	VectorE8
 603              		.thumb
 604              		.thumb_func
 605              		.type	VectorE8, %function
 606              	VectorE8:
 607              	.LFB265:
 608              		.loc 1 216 0
 609              		.cfi_startproc
 610              		@ args = 0, pretend = 0, frame = 0
 611              		@ frame_needed = 0, uses_anonymous_args = 0
 612 0000 08B5     		push	{r3, lr}
 613              		.cfi_def_cfa_offset 8
 614              		.cfi_offset 3, -8
 615              		.cfi_offset 14, -4
 616              		.loc 1 221 0
 617 0002 0748     		ldr	r0, .L93
 618              		.loc 1 220 0
 619 0004 074A     		ldr	r2, .L93+4
 620              		.loc 1 221 0
 621 0006 4368     		ldr	r3, [r0, #4]
 622              		.loc 1 220 0
 623 0008 4FF48021 		mov	r1, #262144
 624              		.loc 1 221 0
 625 000c D3F89430 		ldr	r3, [r3, #148]
 626              		.loc 1 220 0
 627 0010 5161     		str	r1, [r2, #20]
ARM GAS  /tmp/ccmGO9T8.s 			page 12


 628              		.loc 1 221 0
 629 0012 1221     		movs	r1, #18
 630 0014 9847     		blx	r3
 631              	.LVL37:
 632              		.loc 1 224 0
 633 0016 BDE80840 		pop	{r3, lr}
 634              		.cfi_restore 14
 635              		.cfi_restore 3
 636              		.cfi_def_cfa_offset 0
 637              		.loc 1 223 0
 638 001a FFF7FEBF 		b	_port_irq_epilogue
 639              	.LVL38:
 640              	.L94:
 641 001e 00BF     		.align	2
 642              	.L93:
 643 0020 00000000 		.word	EXTD1
 644 0024 003C0140 		.word	1073822720
 645              		.cfi_endproc
 646              	.LFE265:
 647              		.size	VectorE8, .-VectorE8
 648              		.section	.text.Vector138,"ax",%progbits
 649              		.align	2
 650              		.p2align 4,,15
 651              		.global	Vector138
 652              		.thumb
 653              		.thumb_func
 654              		.type	Vector138, %function
 655              	Vector138:
 656              	.LFB266:
 657              		.loc 1 232 0
 658              		.cfi_startproc
 659              		@ args = 0, pretend = 0, frame = 0
 660              		@ frame_needed = 0, uses_anonymous_args = 0
 661 0000 08B5     		push	{r3, lr}
 662              		.cfi_def_cfa_offset 8
 663              		.cfi_offset 3, -8
 664              		.cfi_offset 14, -4
 665              		.loc 1 237 0
 666 0002 0748     		ldr	r0, .L97
 667              		.loc 1 236 0
 668 0004 074A     		ldr	r2, .L97+4
 669              		.loc 1 237 0
 670 0006 4368     		ldr	r3, [r0, #4]
 671              		.loc 1 236 0
 672 0008 4FF40021 		mov	r1, #524288
 673              		.loc 1 237 0
 674 000c D3F89C30 		ldr	r3, [r3, #156]
 675              		.loc 1 236 0
 676 0010 5161     		str	r1, [r2, #20]
 677              		.loc 1 237 0
 678 0012 1321     		movs	r1, #19
 679 0014 9847     		blx	r3
 680              	.LVL39:
 681              		.loc 1 240 0
 682 0016 BDE80840 		pop	{r3, lr}
 683              		.cfi_restore 14
 684              		.cfi_restore 3
ARM GAS  /tmp/ccmGO9T8.s 			page 13


 685              		.cfi_def_cfa_offset 0
 686              		.loc 1 239 0
 687 001a FFF7FEBF 		b	_port_irq_epilogue
 688              	.LVL40:
 689              	.L98:
 690 001e 00BF     		.align	2
 691              	.L97:
 692 0020 00000000 		.word	EXTD1
 693 0024 003C0140 		.word	1073822720
 694              		.cfi_endproc
 695              	.LFE266:
 696              		.size	Vector138, .-Vector138
 697              		.section	.text.Vector170,"ax",%progbits
 698              		.align	2
 699              		.p2align 4,,15
 700              		.global	Vector170
 701              		.thumb
 702              		.thumb_func
 703              		.type	Vector170, %function
 704              	Vector170:
 705              	.LFB267:
 706              		.loc 1 249 0
 707              		.cfi_startproc
 708              		@ args = 0, pretend = 0, frame = 0
 709              		@ frame_needed = 0, uses_anonymous_args = 0
 710 0000 08B5     		push	{r3, lr}
 711              		.cfi_def_cfa_offset 8
 712              		.cfi_offset 3, -8
 713              		.cfi_offset 14, -4
 714              		.loc 1 254 0
 715 0002 0748     		ldr	r0, .L101
 716              		.loc 1 253 0
 717 0004 074A     		ldr	r2, .L101+4
 718              		.loc 1 254 0
 719 0006 4368     		ldr	r3, [r0, #4]
 720              		.loc 1 253 0
 721 0008 4FF48011 		mov	r1, #1048576
 722              		.loc 1 254 0
 723 000c D3F8A430 		ldr	r3, [r3, #164]
 724              		.loc 1 253 0
 725 0010 5161     		str	r1, [r2, #20]
 726              		.loc 1 254 0
 727 0012 1421     		movs	r1, #20
 728 0014 9847     		blx	r3
 729              	.LVL41:
 730              		.loc 1 257 0
 731 0016 BDE80840 		pop	{r3, lr}
 732              		.cfi_restore 14
 733              		.cfi_restore 3
 734              		.cfi_def_cfa_offset 0
 735              		.loc 1 256 0
 736 001a FFF7FEBF 		b	_port_irq_epilogue
 737              	.LVL42:
 738              	.L102:
 739 001e 00BF     		.align	2
 740              	.L101:
 741 0020 00000000 		.word	EXTD1
ARM GAS  /tmp/ccmGO9T8.s 			page 14


 742 0024 003C0140 		.word	1073822720
 743              		.cfi_endproc
 744              	.LFE267:
 745              		.size	Vector170, .-Vector170
 746              		.section	.text.Vector48,"ax",%progbits
 747              		.align	2
 748              		.p2align 4,,15
 749              		.global	Vector48
 750              		.thumb
 751              		.thumb_func
 752              		.type	Vector48, %function
 753              	Vector48:
 754              	.LFB268:
 755              		.loc 1 266 0
 756              		.cfi_startproc
 757              		@ args = 0, pretend = 0, frame = 0
 758              		@ frame_needed = 0, uses_anonymous_args = 0
 759 0000 08B5     		push	{r3, lr}
 760              		.cfi_def_cfa_offset 8
 761              		.cfi_offset 3, -8
 762              		.cfi_offset 14, -4
 763              		.loc 1 271 0
 764 0002 0748     		ldr	r0, .L105
 765              		.loc 1 270 0
 766 0004 074A     		ldr	r2, .L105+4
 767              		.loc 1 271 0
 768 0006 4368     		ldr	r3, [r0, #4]
 769              		.loc 1 270 0
 770 0008 4FF40011 		mov	r1, #2097152
 771              		.loc 1 271 0
 772 000c D3F8AC30 		ldr	r3, [r3, #172]
 773              		.loc 1 270 0
 774 0010 5161     		str	r1, [r2, #20]
 775              		.loc 1 271 0
 776 0012 1521     		movs	r1, #21
 777 0014 9847     		blx	r3
 778              	.LVL43:
 779              		.loc 1 274 0
 780 0016 BDE80840 		pop	{r3, lr}
 781              		.cfi_restore 14
 782              		.cfi_restore 3
 783              		.cfi_def_cfa_offset 0
 784              		.loc 1 273 0
 785 001a FFF7FEBF 		b	_port_irq_epilogue
 786              	.LVL44:
 787              	.L106:
 788 001e 00BF     		.align	2
 789              	.L105:
 790 0020 00000000 		.word	EXTD1
 791 0024 003C0140 		.word	1073822720
 792              		.cfi_endproc
 793              	.LFE268:
 794              		.size	Vector48, .-Vector48
 795              		.section	.text.Vector4C,"ax",%progbits
 796              		.align	2
 797              		.p2align 4,,15
 798              		.global	Vector4C
ARM GAS  /tmp/ccmGO9T8.s 			page 15


 799              		.thumb
 800              		.thumb_func
 801              		.type	Vector4C, %function
 802              	Vector4C:
 803              	.LFB269:
 804              		.loc 1 282 0
 805              		.cfi_startproc
 806              		@ args = 0, pretend = 0, frame = 0
 807              		@ frame_needed = 0, uses_anonymous_args = 0
 808 0000 08B5     		push	{r3, lr}
 809              		.cfi_def_cfa_offset 8
 810              		.cfi_offset 3, -8
 811              		.cfi_offset 14, -4
 812              		.loc 1 287 0
 813 0002 0748     		ldr	r0, .L109
 814              		.loc 1 286 0
 815 0004 074A     		ldr	r2, .L109+4
 816              		.loc 1 287 0
 817 0006 4368     		ldr	r3, [r0, #4]
 818              		.loc 1 286 0
 819 0008 4FF48001 		mov	r1, #4194304
 820              		.loc 1 287 0
 821 000c D3F8B430 		ldr	r3, [r3, #180]
 822              		.loc 1 286 0
 823 0010 5161     		str	r1, [r2, #20]
 824              		.loc 1 287 0
 825 0012 1621     		movs	r1, #22
 826 0014 9847     		blx	r3
 827              	.LVL45:
 828              		.loc 1 290 0
 829 0016 BDE80840 		pop	{r3, lr}
 830              		.cfi_restore 14
 831              		.cfi_restore 3
 832              		.cfi_def_cfa_offset 0
 833              		.loc 1 289 0
 834 001a FFF7FEBF 		b	_port_irq_epilogue
 835              	.LVL46:
 836              	.L110:
 837 001e 00BF     		.align	2
 838              	.L109:
 839 0020 00000000 		.word	EXTD1
 840 0024 003C0140 		.word	1073822720
 841              		.cfi_endproc
 842              	.LFE269:
 843              		.size	Vector4C, .-Vector4C
 844              		.section	.text.ext_lld_exti_irq_enable,"ax",%progbits
 845              		.align	2
 846              		.p2align 4,,15
 847              		.global	ext_lld_exti_irq_enable
 848              		.thumb
 849              		.thumb_func
 850              		.type	ext_lld_exti_irq_enable, %function
 851              	ext_lld_exti_irq_enable:
 852              	.LFB270:
 853              		.loc 1 301 0
 854              		.cfi_startproc
 855              		@ args = 0, pretend = 0, frame = 0
ARM GAS  /tmp/ccmGO9T8.s 			page 16


 856              		@ frame_needed = 0, uses_anonymous_args = 0
 857              		.loc 1 303 0
 858 0000 0620     		movs	r0, #6
 859              		.loc 1 301 0
 860 0002 08B5     		push	{r3, lr}
 861              		.cfi_def_cfa_offset 8
 862              		.cfi_offset 3, -8
 863              		.cfi_offset 14, -4
 864              		.loc 1 303 0
 865 0004 0146     		mov	r1, r0
 866 0006 FFF7FEFF 		bl	nvicEnableVector
 867              	.LVL47:
 868              		.loc 1 304 0
 869 000a 0720     		movs	r0, #7
 870 000c 0621     		movs	r1, #6
 871 000e FFF7FEFF 		bl	nvicEnableVector
 872              	.LVL48:
 873              		.loc 1 305 0
 874 0012 0820     		movs	r0, #8
 875 0014 0621     		movs	r1, #6
 876 0016 FFF7FEFF 		bl	nvicEnableVector
 877              	.LVL49:
 878              		.loc 1 306 0
 879 001a 0920     		movs	r0, #9
 880 001c 0621     		movs	r1, #6
 881 001e FFF7FEFF 		bl	nvicEnableVector
 882              	.LVL50:
 883              		.loc 1 307 0
 884 0022 0A20     		movs	r0, #10
 885 0024 0621     		movs	r1, #6
 886 0026 FFF7FEFF 		bl	nvicEnableVector
 887              	.LVL51:
 888              		.loc 1 308 0
 889 002a 1720     		movs	r0, #23
 890 002c 0621     		movs	r1, #6
 891 002e FFF7FEFF 		bl	nvicEnableVector
 892              	.LVL52:
 893              		.loc 1 309 0
 894 0032 2820     		movs	r0, #40
 895 0034 0621     		movs	r1, #6
 896 0036 FFF7FEFF 		bl	nvicEnableVector
 897              	.LVL53:
 898              		.loc 1 310 0
 899 003a 0120     		movs	r0, #1
 900 003c 0621     		movs	r1, #6
 901 003e FFF7FEFF 		bl	nvicEnableVector
 902              	.LVL54:
 903              		.loc 1 311 0
 904 0042 2920     		movs	r0, #41
 905 0044 0F21     		movs	r1, #15
 906 0046 FFF7FEFF 		bl	nvicEnableVector
 907              	.LVL55:
 908              		.loc 1 312 0
 909 004a 2A20     		movs	r0, #42
 910 004c 0621     		movs	r1, #6
 911 004e FFF7FEFF 		bl	nvicEnableVector
 912              	.LVL56:
ARM GAS  /tmp/ccmGO9T8.s 			page 17


 913              		.loc 1 314 0
 914 0052 3E20     		movs	r0, #62
 915 0054 0621     		movs	r1, #6
 916 0056 FFF7FEFF 		bl	nvicEnableVector
 917              	.LVL57:
 918              		.loc 1 317 0
 919 005a 4C20     		movs	r0, #76
 920 005c 0621     		movs	r1, #6
 921 005e FFF7FEFF 		bl	nvicEnableVector
 922              	.LVL58:
 923              		.loc 1 320 0
 924 0062 0220     		movs	r0, #2
 925 0064 0F21     		movs	r1, #15
 926 0066 FFF7FEFF 		bl	nvicEnableVector
 927              	.LVL59:
 928              		.loc 1 322 0
 929 006a 0320     		movs	r0, #3
 930 006c 0F21     		movs	r1, #15
 931              		.loc 1 323 0
 932 006e BDE80840 		pop	{r3, lr}
 933              		.cfi_restore 14
 934              		.cfi_restore 3
 935              		.cfi_def_cfa_offset 0
 936              		.loc 1 322 0
 937 0072 FFF7FEBF 		b	nvicEnableVector
 938              	.LVL60:
 939              		.cfi_endproc
 940              	.LFE270:
 941              		.size	ext_lld_exti_irq_enable, .-ext_lld_exti_irq_enable
 942 0076 00BF     		.section	.text.ext_lld_exti_irq_disable,"ax",%progbits
 943              		.align	2
 944              		.p2align 4,,15
 945              		.global	ext_lld_exti_irq_disable
 946              		.thumb
 947              		.thumb_func
 948              		.type	ext_lld_exti_irq_disable, %function
 949              	ext_lld_exti_irq_disable:
 950              	.LFB271:
 951              		.loc 1 330 0
 952              		.cfi_startproc
 953              		@ args = 0, pretend = 0, frame = 0
 954              		@ frame_needed = 0, uses_anonymous_args = 0
 955 0000 08B5     		push	{r3, lr}
 956              		.cfi_def_cfa_offset 8
 957              		.cfi_offset 3, -8
 958              		.cfi_offset 14, -4
 959              		.loc 1 332 0
 960 0002 0620     		movs	r0, #6
 961 0004 FFF7FEFF 		bl	nvicDisableVector
 962              	.LVL61:
 963              		.loc 1 333 0
 964 0008 0720     		movs	r0, #7
 965 000a FFF7FEFF 		bl	nvicDisableVector
 966              	.LVL62:
 967              		.loc 1 334 0
 968 000e 0820     		movs	r0, #8
 969 0010 FFF7FEFF 		bl	nvicDisableVector
ARM GAS  /tmp/ccmGO9T8.s 			page 18


 970              	.LVL63:
 971              		.loc 1 335 0
 972 0014 0920     		movs	r0, #9
 973 0016 FFF7FEFF 		bl	nvicDisableVector
 974              	.LVL64:
 975              		.loc 1 336 0
 976 001a 0A20     		movs	r0, #10
 977 001c FFF7FEFF 		bl	nvicDisableVector
 978              	.LVL65:
 979              		.loc 1 337 0
 980 0020 1720     		movs	r0, #23
 981 0022 FFF7FEFF 		bl	nvicDisableVector
 982              	.LVL66:
 983              		.loc 1 338 0
 984 0026 2820     		movs	r0, #40
 985 0028 FFF7FEFF 		bl	nvicDisableVector
 986              	.LVL67:
 987              		.loc 1 339 0
 988 002c 0120     		movs	r0, #1
 989 002e FFF7FEFF 		bl	nvicDisableVector
 990              	.LVL68:
 991              		.loc 1 340 0
 992 0032 2920     		movs	r0, #41
 993 0034 FFF7FEFF 		bl	nvicDisableVector
 994              	.LVL69:
 995              		.loc 1 341 0
 996 0038 2A20     		movs	r0, #42
 997 003a FFF7FEFF 		bl	nvicDisableVector
 998              	.LVL70:
 999              		.loc 1 343 0
 1000 003e 3E20     		movs	r0, #62
 1001 0040 FFF7FEFF 		bl	nvicDisableVector
 1002              	.LVL71:
 1003              		.loc 1 346 0
 1004 0044 4C20     		movs	r0, #76
 1005 0046 FFF7FEFF 		bl	nvicDisableVector
 1006              	.LVL72:
 1007              		.loc 1 349 0
 1008 004a 0220     		movs	r0, #2
 1009 004c FFF7FEFF 		bl	nvicDisableVector
 1010              	.LVL73:
 1011              		.loc 1 351 0
 1012 0050 0320     		movs	r0, #3
 1013              		.loc 1 352 0
 1014 0052 BDE80840 		pop	{r3, lr}
 1015              		.cfi_restore 14
 1016              		.cfi_restore 3
 1017              		.cfi_def_cfa_offset 0
 1018              		.loc 1 351 0
 1019 0056 FFF7FEBF 		b	nvicDisableVector
 1020              	.LVL74:
 1021              		.cfi_endproc
 1022              	.LFE271:
 1023              		.size	ext_lld_exti_irq_disable, .-ext_lld_exti_irq_disable
 1024              		.text
 1025              	.Letext0:
 1026              		.file 2 "/usr/arm-none-eabi/include/machine/_default_types.h"
ARM GAS  /tmp/ccmGO9T8.s 			page 19


 1027              		.file 3 "/usr/arm-none-eabi/include/sys/_stdint.h"
 1028              		.file 4 "ChibiOS_3.0.2/os/rt/ports/ARMCMx/compilers/GCC/chtypes.h"
 1029              		.file 5 "ChibiOS_3.0.2/os/rt/include/chsystypes.h"
 1030              		.file 6 "ChibiOS_3.0.2/os/rt/include/chschd.h"
 1031              		.file 7 "ChibiOS_3.0.2/os/ext/CMSIS/ST/stm32f407xx.h"
 1032              		.file 8 "ChibiOS_3.0.2/os/rt/ports/ARMCMx/chcore.h"
 1033              		.file 9 "ChibiOS_3.0.2/os/rt/ports/ARMCMx/chcore_v7m.h"
 1034              		.file 10 "ChibiOS_3.0.2/os/rt/include/chtm.h"
 1035              		.file 11 "ChibiOS_3.0.2/os/rt/include/chsem.h"
 1036              		.file 12 "ChibiOS_3.0.2/os/rt/include/chmtx.h"
 1037              		.file 13 "ChibiOS_3.0.2/os/hal/include/ext.h"
 1038              		.file 14 "ChibiOS_3.0.2/os/hal/ports/STM32/LLD/ext_lld.h"
 1039              		.file 15 "ChibiOS_3.0.2/os/ext/CMSIS/include/core_cm4.h"
 1040              		.file 16 "ChibiOS_3.0.2/os/hal/ports/common/ARMCMx/nvic.h"