ARM GAS  /tmp/cctBdhRt.s 			page 1


   1              		.syntax unified
   2              		.cpu cortex-m4
   3              		.eabi_attribute 27, 1
   4              		.eabi_attribute 28, 1
   5              		.fpu fpv4-sp-d16
   6              		.eabi_attribute 20, 1
   7              		.eabi_attribute 21, 1
   8              		.eabi_attribute 23, 3
   9              		.eabi_attribute 24, 1
  10              		.eabi_attribute 25, 1
  11              		.eabi_attribute 26, 1
  12              		.eabi_attribute 30, 2
  13              		.eabi_attribute 34, 1
  14              		.eabi_attribute 18, 4
  15              		.thumb
  16              		.file	"hal_cc2520.c"
  17              		.text
  18              	.Ltext0:
  19              		.cfi_sections	.debug_frame
  20              		.section	.text.CC2520_INS_MEMCP_COMMON,"ax",%progbits
  21              		.align	2
  22              		.p2align 4,,15
  23              		.thumb
  24              		.thumb_func
  25              		.type	CC2520_INS_MEMCP_COMMON, %function
  26              	CC2520_INS_MEMCP_COMMON:
  27              	.LFB256:
  28              		.file 1 "cc2520/driver/hal_cc2520.c"
  29              		.loc 1 127 0
  30              		.cfi_startproc
  31              		@ args = 4, pretend = 0, frame = 0
  32              		@ frame_needed = 0, uses_anonymous_args = 0
  33              	.LVL0:
  34 0000 2DE9F843 		push	{r3, r4, r5, r6, r7, r8, r9, lr}
  35              		.cfi_def_cfa_offset 32
  36              		.cfi_offset 3, -32
  37              		.cfi_offset 4, -28
  38              		.cfi_offset 5, -24
  39              		.cfi_offset 6, -20
  40              		.cfi_offset 7, -16
  41              		.cfi_offset 8, -12
  42              		.cfi_offset 9, -8
  43              		.cfi_offset 14, -4
  44              		.loc 1 129 0
  45 0004 124C     		ldr	r4, .L3
  46              		.loc 1 127 0
  47 0006 BDF82050 		ldrh	r5, [sp, #32]
  48 000a 0F46     		mov	r7, r1
  49 000c 8146     		mov	r9, r0
  50              		.loc 1 129 0
  51 000e 2046     		mov	r0, r4
  52              	.LVL1:
  53              		.loc 1 127 0
  54 0010 9046     		mov	r8, r2
  55 0012 1E46     		mov	r6, r3
  56              		.loc 1 129 0
  57 0014 FFF7FEFF 		bl	spiSelect
ARM GAS  /tmp/cctBdhRt.s 			page 2


  58              	.LVL2:
  59              		.loc 1 130 0
  60 0018 49EA0700 		orr	r0, r9, r7
  61 001c FFF7FEFF 		bl	halSpiExc
  62              	.LVL3:
  63 0020 0746     		mov	r7, r0
  64              	.LVL4:
  65              		.loc 1 131 0
  66 0022 5FFA88F0 		uxtb	r0, r8
  67 0026 FFF7FEFF 		bl	halSpiExc
  68              	.LVL5:
  69              		.loc 1 132 0
  70 002a 2B0A     		lsrs	r3, r5, #8
  71 002c 300A     		lsrs	r0, r6, #8
  72 002e 43EA0010 		orr	r0, r3, r0, lsl #4
  73 0032 C0B2     		uxtb	r0, r0
  74 0034 FFF7FEFF 		bl	halSpiExc
  75              	.LVL6:
  76              		.loc 1 133 0
  77 0038 F0B2     		uxtb	r0, r6
  78 003a FFF7FEFF 		bl	halSpiExc
  79              	.LVL7:
  80              		.loc 1 134 0
  81 003e E8B2     		uxtb	r0, r5
  82 0040 FFF7FEFF 		bl	halSpiExc
  83              	.LVL8:
  84              		.loc 1 135 0
  85 0044 2046     		mov	r0, r4
  86 0046 FFF7FEFF 		bl	spiUnselect
  87              	.LVL9:
  88              		.loc 1 137 0
  89 004a 3846     		mov	r0, r7
  90 004c BDE8F883 		pop	{r3, r4, r5, r6, r7, r8, r9, pc}
  91              	.LVL10:
  92              	.L4:
  93              		.align	2
  94              	.L3:
  95 0050 00000000 		.word	SPID2
  96              		.cfi_endproc
  97              	.LFE256:
  98              		.size	CC2520_INS_MEMCP_COMMON, .-CC2520_INS_MEMCP_COMMON
  99              		.section	.text.CC2520_INS_STROBE,"ax",%progbits
 100              		.align	2
 101              		.p2align 4,,15
 102              		.global	CC2520_INS_STROBE
 103              		.thumb
 104              		.thumb_func
 105              		.type	CC2520_INS_STROBE, %function
 106              	CC2520_INS_STROBE:
 107              	.LFB258:
 108              		.loc 1 162 0
 109              		.cfi_startproc
 110              		@ args = 0, pretend = 0, frame = 0
 111              		@ frame_needed = 0, uses_anonymous_args = 0
 112              	.LVL11:
 113 0000 38B5     		push	{r3, r4, r5, lr}
 114              		.cfi_def_cfa_offset 16
ARM GAS  /tmp/cctBdhRt.s 			page 3


 115              		.cfi_offset 3, -16
 116              		.cfi_offset 4, -12
 117              		.cfi_offset 5, -8
 118              		.cfi_offset 14, -4
 119              		.loc 1 164 0
 120 0002 074C     		ldr	r4, .L7
 121              		.loc 1 162 0
 122 0004 0546     		mov	r5, r0
 123              		.loc 1 164 0
 124 0006 2046     		mov	r0, r4
 125              	.LVL12:
 126 0008 FFF7FEFF 		bl	spiSelect
 127              	.LVL13:
 128              		.loc 1 165 0
 129 000c 2846     		mov	r0, r5
 130 000e FFF7FEFF 		bl	halSpiExc
 131              	.LVL14:
 132 0012 0546     		mov	r5, r0
 133              	.LVL15:
 134              		.loc 1 166 0
 135 0014 2046     		mov	r0, r4
 136 0016 FFF7FEFF 		bl	spiUnselect
 137              	.LVL16:
 138              		.loc 1 168 0
 139 001a 2846     		mov	r0, r5
 140 001c 38BD     		pop	{r3, r4, r5, pc}
 141              	.LVL17:
 142              	.L8:
 143 001e 00BF     		.align	2
 144              	.L7:
 145 0020 00000000 		.word	SPID2
 146              		.cfi_endproc
 147              	.LFE258:
 148              		.size	CC2520_INS_STROBE, .-CC2520_INS_STROBE
 149              		.section	.text.WAIT_DPU_DONE_H,"ax",%progbits
 150              		.align	2
 151              		.p2align 4,,15
 152              		.global	WAIT_DPU_DONE_H
 153              		.thumb
 154              		.thumb_func
 155              		.type	WAIT_DPU_DONE_H, %function
 156              	WAIT_DPU_DONE_H:
 157              	.LFB257:
 158              		.loc 1 139 0
 159              		.cfi_startproc
 160              		@ args = 0, pretend = 0, frame = 0
 161              		@ frame_needed = 0, uses_anonymous_args = 0
 162              	.LVL18:
 163 0000 10B5     		push	{r4, lr}
 164              		.cfi_def_cfa_offset 8
 165              		.cfi_offset 4, -8
 166              		.cfi_offset 14, -4
 167              		.loc 1 142 0
 168 0002 42F21174 		movw	r4, #10001
 169 0006 01E0     		b	.L10
 170              	.LVL19:
 171              	.L12:
ARM GAS  /tmp/cctBdhRt.s 			page 4


 172              		.loc 1 144 0
 173 0008 013C     		subs	r4, r4, #1
 174              	.LVL20:
 175 000a 06D0     		beq	.L13
 176              	.LVL21:
 177              	.L10:
 178              		.loc 1 142 0
 179 000c 0020     		movs	r0, #0
 180 000e FFF7FEFF 		bl	CC2520_INS_STROBE
 181              	.LVL22:
 182 0012 0307     		lsls	r3, r0, #28
 183 0014 F8D4     		bmi	.L12
 184              		.loc 1 149 0
 185 0016 0120     		movs	r0, #1
 186 0018 10BD     		pop	{r4, pc}
 187              	.LVL23:
 188              	.L13:
 189              		.loc 1 145 0
 190 001a 2046     		mov	r0, r4
 191              		.loc 1 150 0
 192 001c 10BD     		pop	{r4, pc}
 193              		.cfi_endproc
 194              	.LFE257:
 195              		.size	WAIT_DPU_DONE_H, .-WAIT_DPU_DONE_H
 196 001e 00BF     		.section	.text.CC2520_SNOP,"ax",%progbits
 197              		.align	2
 198              		.p2align 4,,15
 199              		.global	CC2520_SNOP
 200              		.thumb
 201              		.thumb_func
 202              		.type	CC2520_SNOP, %function
 203              	CC2520_SNOP:
 204              	.LFB259:
 205              		.loc 1 181 0
 206              		.cfi_startproc
 207              		@ args = 0, pretend = 0, frame = 0
 208              		@ frame_needed = 0, uses_anonymous_args = 0
 209              		@ link register save eliminated.
 210              		.loc 1 182 0
 211 0000 0020     		movs	r0, #0
 212 0002 FFF7FEBF 		b	CC2520_INS_STROBE
 213              	.LVL24:
 214              		.cfi_endproc
 215              	.LFE259:
 216              		.size	CC2520_SNOP, .-CC2520_SNOP
 217 0006 00BF     		.section	.text.CC2520_SIBUFEX,"ax",%progbits
 218              		.align	2
 219              		.p2align 4,,15
 220              		.global	CC2520_SIBUFEX
 221              		.thumb
 222              		.thumb_func
 223              		.type	CC2520_SIBUFEX, %function
 224              	CC2520_SIBUFEX:
 225              	.LFB260:
 226              		.loc 1 196 0
 227              		.cfi_startproc
 228              		@ args = 0, pretend = 0, frame = 0
ARM GAS  /tmp/cctBdhRt.s 			page 5


 229              		@ frame_needed = 0, uses_anonymous_args = 0
 230              		@ link register save eliminated.
 231              		.loc 1 197 0
 232 0000 0320     		movs	r0, #3
 233 0002 FFF7FEBF 		b	CC2520_INS_STROBE
 234              	.LVL25:
 235              		.cfi_endproc
 236              	.LFE260:
 237              		.size	CC2520_SIBUFEX, .-CC2520_SIBUFEX
 238 0006 00BF     		.section	.text.CC2520_SSAMPLECCA,"ax",%progbits
 239              		.align	2
 240              		.p2align 4,,15
 241              		.global	CC2520_SSAMPLECCA
 242              		.thumb
 243              		.thumb_func
 244              		.type	CC2520_SSAMPLECCA, %function
 245              	CC2520_SSAMPLECCA:
 246              	.LFB261:
 247              		.loc 1 211 0
 248              		.cfi_startproc
 249              		@ args = 0, pretend = 0, frame = 0
 250              		@ frame_needed = 0, uses_anonymous_args = 0
 251              		@ link register save eliminated.
 252              		.loc 1 212 0
 253 0000 0420     		movs	r0, #4
 254 0002 FFF7FEBF 		b	CC2520_INS_STROBE
 255              	.LVL26:
 256              		.cfi_endproc
 257              	.LFE261:
 258              		.size	CC2520_SSAMPLECCA, .-CC2520_SSAMPLECCA
 259 0006 00BF     		.section	.text.CC2520_SXOSCON,"ax",%progbits
 260              		.align	2
 261              		.p2align 4,,15
 262              		.global	CC2520_SXOSCON
 263              		.thumb
 264              		.thumb_func
 265              		.type	CC2520_SXOSCON, %function
 266              	CC2520_SXOSCON:
 267              	.LFB262:
 268              		.loc 1 226 0
 269              		.cfi_startproc
 270              		@ args = 0, pretend = 0, frame = 0
 271              		@ frame_needed = 0, uses_anonymous_args = 0
 272              		@ link register save eliminated.
 273              		.loc 1 227 0
 274 0000 4020     		movs	r0, #64
 275 0002 FFF7FEBF 		b	CC2520_INS_STROBE
 276              	.LVL27:
 277              		.cfi_endproc
 278              	.LFE262:
 279              		.size	CC2520_SXOSCON, .-CC2520_SXOSCON
 280 0006 00BF     		.section	.text.CC2520_STXCAL,"ax",%progbits
 281              		.align	2
 282              		.p2align 4,,15
 283              		.global	CC2520_STXCAL
 284              		.thumb
 285              		.thumb_func
ARM GAS  /tmp/cctBdhRt.s 			page 6


 286              		.type	CC2520_STXCAL, %function
 287              	CC2520_STXCAL:
 288              	.LFB263:
 289              		.loc 1 241 0
 290              		.cfi_startproc
 291              		@ args = 0, pretend = 0, frame = 0
 292              		@ frame_needed = 0, uses_anonymous_args = 0
 293              		@ link register save eliminated.
 294              		.loc 1 242 0
 295 0000 4120     		movs	r0, #65
 296 0002 FFF7FEBF 		b	CC2520_INS_STROBE
 297              	.LVL28:
 298              		.cfi_endproc
 299              	.LFE263:
 300              		.size	CC2520_STXCAL, .-CC2520_STXCAL
 301 0006 00BF     		.section	.text.CC2520_SRXON,"ax",%progbits
 302              		.align	2
 303              		.p2align 4,,15
 304              		.global	CC2520_SRXON
 305              		.thumb
 306              		.thumb_func
 307              		.type	CC2520_SRXON, %function
 308              	CC2520_SRXON:
 309              	.LFB264:
 310              		.loc 1 256 0
 311              		.cfi_startproc
 312              		@ args = 0, pretend = 0, frame = 0
 313              		@ frame_needed = 0, uses_anonymous_args = 0
 314              		@ link register save eliminated.
 315              		.loc 1 257 0
 316 0000 4220     		movs	r0, #66
 317 0002 FFF7FEBF 		b	CC2520_INS_STROBE
 318              	.LVL29:
 319              		.cfi_endproc
 320              	.LFE264:
 321              		.size	CC2520_SRXON, .-CC2520_SRXON
 322 0006 00BF     		.section	.text.CC2520_STXON,"ax",%progbits
 323              		.align	2
 324              		.p2align 4,,15
 325              		.global	CC2520_STXON
 326              		.thumb
 327              		.thumb_func
 328              		.type	CC2520_STXON, %function
 329              	CC2520_STXON:
 330              	.LFB265:
 331              		.loc 1 271 0
 332              		.cfi_startproc
 333              		@ args = 0, pretend = 0, frame = 0
 334              		@ frame_needed = 0, uses_anonymous_args = 0
 335              		@ link register save eliminated.
 336              		.loc 1 272 0
 337 0000 4320     		movs	r0, #67
 338 0002 FFF7FEBF 		b	CC2520_INS_STROBE
 339              	.LVL30:
 340              		.cfi_endproc
 341              	.LFE265:
 342              		.size	CC2520_STXON, .-CC2520_STXON
ARM GAS  /tmp/cctBdhRt.s 			page 7


 343 0006 00BF     		.section	.text.CC2520_STXONCCA,"ax",%progbits
 344              		.align	2
 345              		.p2align 4,,15
 346              		.global	CC2520_STXONCCA
 347              		.thumb
 348              		.thumb_func
 349              		.type	CC2520_STXONCCA, %function
 350              	CC2520_STXONCCA:
 351              	.LFB266:
 352              		.loc 1 286 0
 353              		.cfi_startproc
 354              		@ args = 0, pretend = 0, frame = 0
 355              		@ frame_needed = 0, uses_anonymous_args = 0
 356              		@ link register save eliminated.
 357              		.loc 1 287 0
 358 0000 4420     		movs	r0, #68
 359 0002 FFF7FEBF 		b	CC2520_INS_STROBE
 360              	.LVL31:
 361              		.cfi_endproc
 362              	.LFE266:
 363              		.size	CC2520_STXONCCA, .-CC2520_STXONCCA
 364 0006 00BF     		.section	.text.CC2520_SRFOFF,"ax",%progbits
 365              		.align	2
 366              		.p2align 4,,15
 367              		.global	CC2520_SRFOFF
 368              		.thumb
 369              		.thumb_func
 370              		.type	CC2520_SRFOFF, %function
 371              	CC2520_SRFOFF:
 372              	.LFB267:
 373              		.loc 1 301 0
 374              		.cfi_startproc
 375              		@ args = 0, pretend = 0, frame = 0
 376              		@ frame_needed = 0, uses_anonymous_args = 0
 377              		@ link register save eliminated.
 378              		.loc 1 302 0
 379 0000 4520     		movs	r0, #69
 380 0002 FFF7FEBF 		b	CC2520_INS_STROBE
 381              	.LVL32:
 382              		.cfi_endproc
 383              	.LFE267:
 384              		.size	CC2520_SRFOFF, .-CC2520_SRFOFF
 385 0006 00BF     		.section	.text.CC2520_SXOSCOFF,"ax",%progbits
 386              		.align	2
 387              		.p2align 4,,15
 388              		.global	CC2520_SXOSCOFF
 389              		.thumb
 390              		.thumb_func
 391              		.type	CC2520_SXOSCOFF, %function
 392              	CC2520_SXOSCOFF:
 393              	.LFB268:
 394              		.loc 1 316 0
 395              		.cfi_startproc
 396              		@ args = 0, pretend = 0, frame = 0
 397              		@ frame_needed = 0, uses_anonymous_args = 0
 398              		@ link register save eliminated.
 399              		.loc 1 317 0
ARM GAS  /tmp/cctBdhRt.s 			page 8


 400 0000 4620     		movs	r0, #70
 401 0002 FFF7FEBF 		b	CC2520_INS_STROBE
 402              	.LVL33:
 403              		.cfi_endproc
 404              	.LFE268:
 405              		.size	CC2520_SXOSCOFF, .-CC2520_SXOSCOFF
 406 0006 00BF     		.section	.text.CC2520_SFLUSHRX,"ax",%progbits
 407              		.align	2
 408              		.p2align 4,,15
 409              		.global	CC2520_SFLUSHRX
 410              		.thumb
 411              		.thumb_func
 412              		.type	CC2520_SFLUSHRX, %function
 413              	CC2520_SFLUSHRX:
 414              	.LFB269:
 415              		.loc 1 331 0
 416              		.cfi_startproc
 417              		@ args = 0, pretend = 0, frame = 0
 418              		@ frame_needed = 0, uses_anonymous_args = 0
 419              		@ link register save eliminated.
 420              		.loc 1 332 0
 421 0000 4720     		movs	r0, #71
 422 0002 FFF7FEBF 		b	CC2520_INS_STROBE
 423              	.LVL34:
 424              		.cfi_endproc
 425              	.LFE269:
 426              		.size	CC2520_SFLUSHRX, .-CC2520_SFLUSHRX
 427 0006 00BF     		.section	.text.CC2520_SFLUSHTX,"ax",%progbits
 428              		.align	2
 429              		.p2align 4,,15
 430              		.global	CC2520_SFLUSHTX
 431              		.thumb
 432              		.thumb_func
 433              		.type	CC2520_SFLUSHTX, %function
 434              	CC2520_SFLUSHTX:
 435              	.LFB270:
 436              		.loc 1 346 0
 437              		.cfi_startproc
 438              		@ args = 0, pretend = 0, frame = 0
 439              		@ frame_needed = 0, uses_anonymous_args = 0
 440              		@ link register save eliminated.
 441              		.loc 1 347 0
 442 0000 4820     		movs	r0, #72
 443 0002 FFF7FEBF 		b	CC2520_INS_STROBE
 444              	.LVL35:
 445              		.cfi_endproc
 446              	.LFE270:
 447              		.size	CC2520_SFLUSHTX, .-CC2520_SFLUSHTX
 448 0006 00BF     		.section	.text.CC2520_SACK,"ax",%progbits
 449              		.align	2
 450              		.p2align 4,,15
 451              		.global	CC2520_SACK
 452              		.thumb
 453              		.thumb_func
 454              		.type	CC2520_SACK, %function
 455              	CC2520_SACK:
 456              	.LFB271:
ARM GAS  /tmp/cctBdhRt.s 			page 9


 457              		.loc 1 361 0
 458              		.cfi_startproc
 459              		@ args = 0, pretend = 0, frame = 0
 460              		@ frame_needed = 0, uses_anonymous_args = 0
 461              		@ link register save eliminated.
 462              		.loc 1 362 0
 463 0000 4920     		movs	r0, #73
 464 0002 FFF7FEBF 		b	CC2520_INS_STROBE
 465              	.LVL36:
 466              		.cfi_endproc
 467              	.LFE271:
 468              		.size	CC2520_SACK, .-CC2520_SACK
 469 0006 00BF     		.section	.text.CC2520_SACKPEND,"ax",%progbits
 470              		.align	2
 471              		.p2align 4,,15
 472              		.global	CC2520_SACKPEND
 473              		.thumb
 474              		.thumb_func
 475              		.type	CC2520_SACKPEND, %function
 476              	CC2520_SACKPEND:
 477              	.LFB272:
 478              		.loc 1 376 0
 479              		.cfi_startproc
 480              		@ args = 0, pretend = 0, frame = 0
 481              		@ frame_needed = 0, uses_anonymous_args = 0
 482              		@ link register save eliminated.
 483              		.loc 1 377 0
 484 0000 4A20     		movs	r0, #74
 485 0002 FFF7FEBF 		b	CC2520_INS_STROBE
 486              	.LVL37:
 487              		.cfi_endproc
 488              	.LFE272:
 489              		.size	CC2520_SACKPEND, .-CC2520_SACKPEND
 490 0006 00BF     		.section	.text.CC2520_SNACK,"ax",%progbits
 491              		.align	2
 492              		.p2align 4,,15
 493              		.global	CC2520_SNACK
 494              		.thumb
 495              		.thumb_func
 496              		.type	CC2520_SNACK, %function
 497              	CC2520_SNACK:
 498              	.LFB273:
 499              		.loc 1 391 0
 500              		.cfi_startproc
 501              		@ args = 0, pretend = 0, frame = 0
 502              		@ frame_needed = 0, uses_anonymous_args = 0
 503              		@ link register save eliminated.
 504              		.loc 1 392 0
 505 0000 4B20     		movs	r0, #75
 506 0002 FFF7FEBF 		b	CC2520_INS_STROBE
 507              	.LVL38:
 508              		.cfi_endproc
 509              	.LFE273:
 510              		.size	CC2520_SNACK, .-CC2520_SNACK
 511 0006 00BF     		.section	.text.CC2520_SRXMASKBITSET,"ax",%progbits
 512              		.align	2
 513              		.p2align 4,,15
ARM GAS  /tmp/cctBdhRt.s 			page 10


 514              		.global	CC2520_SRXMASKBITSET
 515              		.thumb
 516              		.thumb_func
 517              		.type	CC2520_SRXMASKBITSET, %function
 518              	CC2520_SRXMASKBITSET:
 519              	.LFB274:
 520              		.loc 1 406 0
 521              		.cfi_startproc
 522              		@ args = 0, pretend = 0, frame = 0
 523              		@ frame_needed = 0, uses_anonymous_args = 0
 524              		@ link register save eliminated.
 525              		.loc 1 407 0
 526 0000 4C20     		movs	r0, #76
 527 0002 FFF7FEBF 		b	CC2520_INS_STROBE
 528              	.LVL39:
 529              		.cfi_endproc
 530              	.LFE274:
 531              		.size	CC2520_SRXMASKBITSET, .-CC2520_SRXMASKBITSET
 532 0006 00BF     		.section	.text.CC2520_SRXMASKBITCLR,"ax",%progbits
 533              		.align	2
 534              		.p2align 4,,15
 535              		.global	CC2520_SRXMASKBITCLR
 536              		.thumb
 537              		.thumb_func
 538              		.type	CC2520_SRXMASKBITCLR, %function
 539              	CC2520_SRXMASKBITCLR:
 540              	.LFB275:
 541              		.loc 1 421 0
 542              		.cfi_startproc
 543              		@ args = 0, pretend = 0, frame = 0
 544              		@ frame_needed = 0, uses_anonymous_args = 0
 545              		@ link register save eliminated.
 546              		.loc 1 422 0
 547 0000 4D20     		movs	r0, #77
 548 0002 FFF7FEBF 		b	CC2520_INS_STROBE
 549              	.LVL40:
 550              		.cfi_endproc
 551              	.LFE275:
 552              		.size	CC2520_SRXMASKBITCLR, .-CC2520_SRXMASKBITCLR
 553 0006 00BF     		.section	.text.CC2520_IBUFLD,"ax",%progbits
 554              		.align	2
 555              		.p2align 4,,15
 556              		.global	CC2520_IBUFLD
 557              		.thumb
 558              		.thumb_func
 559              		.type	CC2520_IBUFLD, %function
 560              	CC2520_IBUFLD:
 561              	.LFB276:
 562              		.loc 1 436 0
 563              		.cfi_startproc
 564              		@ args = 0, pretend = 0, frame = 0
 565              		@ frame_needed = 0, uses_anonymous_args = 0
 566              	.LVL41:
 567 0000 70B5     		push	{r4, r5, r6, lr}
 568              		.cfi_def_cfa_offset 16
 569              		.cfi_offset 4, -16
 570              		.cfi_offset 5, -12
ARM GAS  /tmp/cctBdhRt.s 			page 11


 571              		.cfi_offset 6, -8
 572              		.cfi_offset 14, -4
 573              		.loc 1 438 0
 574 0002 084C     		ldr	r4, .L35
 575              		.loc 1 436 0
 576 0004 0646     		mov	r6, r0
 577              		.loc 1 438 0
 578 0006 2046     		mov	r0, r4
 579              	.LVL42:
 580 0008 FFF7FEFF 		bl	spiSelect
 581              	.LVL43:
 582              		.loc 1 439 0
 583 000c 0220     		movs	r0, #2
 584 000e FFF7FEFF 		bl	halSpiExc
 585              	.LVL44:
 586 0012 0546     		mov	r5, r0
 587              	.LVL45:
 588              		.loc 1 440 0
 589 0014 3046     		mov	r0, r6
 590 0016 FFF7FEFF 		bl	halSpiExc
 591              	.LVL46:
 592              		.loc 1 441 0
 593 001a 2046     		mov	r0, r4
 594 001c FFF7FEFF 		bl	spiUnselect
 595              	.LVL47:
 596              		.loc 1 443 0
 597 0020 2846     		mov	r0, r5
 598 0022 70BD     		pop	{r4, r5, r6, pc}
 599              	.LVL48:
 600              	.L36:
 601              		.align	2
 602              	.L35:
 603 0024 00000000 		.word	SPID2
 604              		.cfi_endproc
 605              	.LFE276:
 606              		.size	CC2520_IBUFLD, .-CC2520_IBUFLD
 607              		.section	.text.CC2520_SRES,"ax",%progbits
 608              		.align	2
 609              		.p2align 4,,15
 610              		.global	CC2520_SRES
 611              		.thumb
 612              		.thumb_func
 613              		.type	CC2520_SRES, %function
 614              	CC2520_SRES:
 615              	.LFB277:
 616              		.loc 1 456 0
 617              		.cfi_startproc
 618              		@ args = 0, pretend = 0, frame = 0
 619              		@ frame_needed = 0, uses_anonymous_args = 0
 620 0000 38B5     		push	{r3, r4, r5, lr}
 621              		.cfi_def_cfa_offset 16
 622              		.cfi_offset 3, -16
 623              		.cfi_offset 4, -12
 624              		.cfi_offset 5, -8
 625              		.cfi_offset 14, -4
 626              		.loc 1 458 0
 627 0002 084C     		ldr	r4, .L39
ARM GAS  /tmp/cctBdhRt.s 			page 12


 628 0004 2046     		mov	r0, r4
 629 0006 FFF7FEFF 		bl	spiSelect
 630              	.LVL49:
 631              		.loc 1 459 0
 632 000a 0F20     		movs	r0, #15
 633 000c FFF7FEFF 		bl	halSpiExc
 634              	.LVL50:
 635 0010 0546     		mov	r5, r0
 636              	.LVL51:
 637              		.loc 1 460 0
 638 0012 0020     		movs	r0, #0
 639 0014 FFF7FEFF 		bl	halSpiExc
 640              	.LVL52:
 641              		.loc 1 461 0
 642 0018 2046     		mov	r0, r4
 643 001a FFF7FEFF 		bl	spiUnselect
 644              	.LVL53:
 645              		.loc 1 463 0
 646 001e 2846     		mov	r0, r5
 647 0020 38BD     		pop	{r3, r4, r5, pc}
 648              	.LVL54:
 649              	.L40:
 650 0022 00BF     		.align	2
 651              	.L39:
 652 0024 00000000 		.word	SPID2
 653              		.cfi_endproc
 654              	.LFE277:
 655              		.size	CC2520_SRES, .-CC2520_SRES
 656              		.section	.text.CC2520_MEMRD,"ax",%progbits
 657              		.align	2
 658              		.p2align 4,,15
 659              		.global	CC2520_MEMRD
 660              		.thumb
 661              		.thumb_func
 662              		.type	CC2520_MEMRD, %function
 663              	CC2520_MEMRD:
 664              	.LFB278:
 665              		.loc 1 478 0
 666              		.cfi_startproc
 667              		@ args = 0, pretend = 0, frame = 0
 668              		@ frame_needed = 0, uses_anonymous_args = 0
 669              	.LVL55:
 670 0000 F8B5     		push	{r3, r4, r5, r6, r7, lr}
 671              		.cfi_def_cfa_offset 24
 672              		.cfi_offset 3, -24
 673              		.cfi_offset 4, -20
 674              		.cfi_offset 5, -16
 675              		.cfi_offset 6, -12
 676              		.cfi_offset 7, -8
 677              		.cfi_offset 14, -4
 678              		.loc 1 478 0
 679 0002 0446     		mov	r4, r0
 680              		.loc 1 480 0
 681 0004 0C48     		ldr	r0, .L47
 682              	.LVL56:
 683              		.loc 1 478 0
 684 0006 0D46     		mov	r5, r1
ARM GAS  /tmp/cctBdhRt.s 			page 13


 685 0008 1746     		mov	r7, r2
 686              		.loc 1 480 0
 687 000a FFF7FEFF 		bl	spiSelect
 688              	.LVL57:
 689              		.loc 1 481 0
 690 000e 200A     		lsrs	r0, r4, #8
 691 0010 40F01000 		orr	r0, r0, #16
 692 0014 FFF7FEFF 		bl	halSpiExc
 693              	.LVL58:
 694 0018 0646     		mov	r6, r0
 695              	.LVL59:
 696              		.loc 1 482 0
 697 001a E0B2     		uxtb	r0, r4
 698 001c FFF7FEFF 		bl	halSpiExc
 699              	.LVL60:
 700              		.loc 1 483 0
 701 0020 25B1     		cbz	r5, .L42
 702              		.loc 1 483 0 is_stmt 0 discriminator 1
 703 0022 2946     		mov	r1, r5
 704 0024 3A46     		mov	r2, r7
 705 0026 0448     		ldr	r0, .L47
 706 0028 FFF7FEFF 		bl	spiReceive
 707              	.LVL61:
 708              	.L42:
 709              		.loc 1 484 0 is_stmt 1
 710 002c 0248     		ldr	r0, .L47
 711 002e FFF7FEFF 		bl	spiUnselect
 712              	.LVL62:
 713              		.loc 1 486 0
 714 0032 3046     		mov	r0, r6
 715 0034 F8BD     		pop	{r3, r4, r5, r6, r7, pc}
 716              	.LVL63:
 717              	.L48:
 718 0036 00BF     		.align	2
 719              	.L47:
 720 0038 00000000 		.word	SPID2
 721              		.cfi_endproc
 722              	.LFE278:
 723              		.size	CC2520_MEMRD, .-CC2520_MEMRD
 724              		.section	.text.CC2520_MEMRD8,"ax",%progbits
 725              		.align	2
 726              		.p2align 4,,15
 727              		.global	CC2520_MEMRD8
 728              		.thumb
 729              		.thumb_func
 730              		.type	CC2520_MEMRD8, %function
 731              	CC2520_MEMRD8:
 732              	.LFB279:
 733              		.loc 1 499 0
 734              		.cfi_startproc
 735              		@ args = 0, pretend = 0, frame = 0
 736              		@ frame_needed = 0, uses_anonymous_args = 0
 737              	.LVL64:
 738 0000 38B5     		push	{r3, r4, r5, lr}
 739              		.cfi_def_cfa_offset 16
 740              		.cfi_offset 3, -16
 741              		.cfi_offset 4, -12
ARM GAS  /tmp/cctBdhRt.s 			page 14


 742              		.cfi_offset 5, -8
 743              		.cfi_offset 14, -4
 744              		.loc 1 501 0
 745 0002 0B4C     		ldr	r4, .L51
 746              		.loc 1 499 0
 747 0004 0546     		mov	r5, r0
 748              		.loc 1 501 0
 749 0006 2046     		mov	r0, r4
 750              	.LVL65:
 751 0008 FFF7FEFF 		bl	spiSelect
 752              	.LVL66:
 753              		.loc 1 502 0
 754 000c 280A     		lsrs	r0, r5, #8
 755 000e 40F01000 		orr	r0, r0, #16
 756 0012 FFF7FEFF 		bl	halSpiExc
 757              	.LVL67:
 758              		.loc 1 503 0
 759 0016 E8B2     		uxtb	r0, r5
 760 0018 FFF7FEFF 		bl	halSpiExc
 761              	.LVL68:
 762              		.loc 1 504 0
 763 001c 0020     		movs	r0, #0
 764 001e FFF7FEFF 		bl	halSpiExc
 765              	.LVL69:
 766 0022 0546     		mov	r5, r0
 767              	.LVL70:
 768              		.loc 1 505 0
 769 0024 2046     		mov	r0, r4
 770 0026 FFF7FEFF 		bl	spiUnselect
 771              	.LVL71:
 772              		.loc 1 507 0
 773 002a 2846     		mov	r0, r5
 774 002c 38BD     		pop	{r3, r4, r5, pc}
 775              	.LVL72:
 776              	.L52:
 777 002e 00BF     		.align	2
 778              	.L51:
 779 0030 00000000 		.word	SPID2
 780              		.cfi_endproc
 781              	.LFE279:
 782              		.size	CC2520_MEMRD8, .-CC2520_MEMRD8
 783              		.section	.text.CC2520_MEMRD16,"ax",%progbits
 784              		.align	2
 785              		.p2align 4,,15
 786              		.global	CC2520_MEMRD16
 787              		.thumb
 788              		.thumb_func
 789              		.type	CC2520_MEMRD16, %function
 790              	CC2520_MEMRD16:
 791              	.LFB280:
 792              		.loc 1 520 0
 793              		.cfi_startproc
 794              		@ args = 0, pretend = 0, frame = 0
 795              		@ frame_needed = 0, uses_anonymous_args = 0
 796              	.LVL73:
 797 0000 38B5     		push	{r3, r4, r5, lr}
 798              		.cfi_def_cfa_offset 16
ARM GAS  /tmp/cctBdhRt.s 			page 15


 799              		.cfi_offset 3, -16
 800              		.cfi_offset 4, -12
 801              		.cfi_offset 5, -8
 802              		.cfi_offset 14, -4
 803              		.loc 1 522 0
 804 0002 0F4D     		ldr	r5, .L55
 805              		.loc 1 520 0
 806 0004 0446     		mov	r4, r0
 807              		.loc 1 522 0
 808 0006 2846     		mov	r0, r5
 809              	.LVL74:
 810 0008 FFF7FEFF 		bl	spiSelect
 811              	.LVL75:
 812              		.loc 1 523 0
 813 000c 200A     		lsrs	r0, r4, #8
 814 000e 40F01000 		orr	r0, r0, #16
 815 0012 FFF7FEFF 		bl	halSpiExc
 816              	.LVL76:
 817              		.loc 1 524 0
 818 0016 E0B2     		uxtb	r0, r4
 819 0018 FFF7FEFF 		bl	halSpiExc
 820              	.LVL77:
 821              		.loc 1 525 0
 822 001c 0020     		movs	r0, #0
 823 001e FFF7FEFF 		bl	halSpiExc
 824              	.LVL78:
 825 0022 4FF00004 		mov	r4, #0	@ movhi
 826              	.LVL79:
 827 0026 60F30704 		bfi	r4, r0, #0, #8
 828              	.LVL80:
 829              		.loc 1 526 0
 830 002a 0020     		movs	r0, #0
 831 002c FFF7FEFF 		bl	halSpiExc
 832              	.LVL81:
 833 0030 60F30F24 		bfi	r4, r0, #8, #8
 834              		.loc 1 527 0
 835 0034 2846     		mov	r0, r5
 836 0036 FFF7FEFF 		bl	spiUnselect
 837              	.LVL82:
 838              		.loc 1 529 0
 839 003a A0B2     		uxth	r0, r4
 840 003c 38BD     		pop	{r3, r4, r5, pc}
 841              	.LVL83:
 842              	.L56:
 843 003e 00BF     		.align	2
 844              	.L55:
 845 0040 00000000 		.word	SPID2
 846              		.cfi_endproc
 847              	.LFE280:
 848              		.size	CC2520_MEMRD16, .-CC2520_MEMRD16
 849              		.section	.text.CC2520_MEMRD24,"ax",%progbits
 850              		.align	2
 851              		.p2align 4,,15
 852              		.global	CC2520_MEMRD24
 853              		.thumb
 854              		.thumb_func
 855              		.type	CC2520_MEMRD24, %function
ARM GAS  /tmp/cctBdhRt.s 			page 16


 856              	CC2520_MEMRD24:
 857              	.LFB281:
 858              		.loc 1 542 0
 859              		.cfi_startproc
 860              		@ args = 0, pretend = 0, frame = 0
 861              		@ frame_needed = 0, uses_anonymous_args = 0
 862              	.LVL84:
 863 0000 38B5     		push	{r3, r4, r5, lr}
 864              		.cfi_def_cfa_offset 16
 865              		.cfi_offset 3, -16
 866              		.cfi_offset 4, -12
 867              		.cfi_offset 5, -8
 868              		.cfi_offset 14, -4
 869              		.loc 1 544 0
 870 0002 124D     		ldr	r5, .L59
 871              		.loc 1 542 0
 872 0004 0446     		mov	r4, r0
 873              		.loc 1 544 0
 874 0006 2846     		mov	r0, r5
 875              	.LVL85:
 876 0008 FFF7FEFF 		bl	spiSelect
 877              	.LVL86:
 878              		.loc 1 545 0
 879 000c 200A     		lsrs	r0, r4, #8
 880 000e 40F01000 		orr	r0, r0, #16
 881 0012 FFF7FEFF 		bl	halSpiExc
 882              	.LVL87:
 883              		.loc 1 546 0
 884 0016 E0B2     		uxtb	r0, r4
 885 0018 FFF7FEFF 		bl	halSpiExc
 886              	.LVL88:
 887              		.loc 1 547 0
 888 001c 0020     		movs	r0, #0
 889 001e FFF7FEFF 		bl	halSpiExc
 890              	.LVL89:
 891 0022 0024     		movs	r4, #0
 892              	.LVL90:
 893 0024 60F30704 		bfi	r4, r0, #0, #8
 894              	.LVL91:
 895              		.loc 1 548 0
 896 0028 0020     		movs	r0, #0
 897 002a FFF7FEFF 		bl	halSpiExc
 898              	.LVL92:
 899 002e 60F30F24 		bfi	r4, r0, #8, #8
 900              		.loc 1 549 0
 901 0032 0020     		movs	r0, #0
 902 0034 FFF7FEFF 		bl	halSpiExc
 903              	.LVL93:
 904 0038 60F31744 		bfi	r4, r0, #16, #8
 905              		.loc 1 550 0
 906 003c 6FF31F64 		bfc	r4, #24, #8
 907              		.loc 1 551 0
 908 0040 2846     		mov	r0, r5
 909 0042 FFF7FEFF 		bl	spiUnselect
 910              	.LVL94:
 911              		.loc 1 553 0
 912 0046 2046     		mov	r0, r4
ARM GAS  /tmp/cctBdhRt.s 			page 17


 913 0048 38BD     		pop	{r3, r4, r5, pc}
 914              	.LVL95:
 915              	.L60:
 916 004a 00BF     		.align	2
 917              	.L59:
 918 004c 00000000 		.word	SPID2
 919              		.cfi_endproc
 920              	.LFE281:
 921              		.size	CC2520_MEMRD24, .-CC2520_MEMRD24
 922              		.section	.text.CC2520_MEMWR,"ax",%progbits
 923              		.align	2
 924              		.p2align 4,,15
 925              		.global	CC2520_MEMWR
 926              		.thumb
 927              		.thumb_func
 928              		.type	CC2520_MEMWR, %function
 929              	CC2520_MEMWR:
 930              	.LFB282:
 931              		.loc 1 568 0
 932              		.cfi_startproc
 933              		@ args = 0, pretend = 0, frame = 0
 934              		@ frame_needed = 0, uses_anonymous_args = 0
 935              	.LVL96:
 936 0000 F8B5     		push	{r3, r4, r5, r6, r7, lr}
 937              		.cfi_def_cfa_offset 24
 938              		.cfi_offset 3, -24
 939              		.cfi_offset 4, -20
 940              		.cfi_offset 5, -16
 941              		.cfi_offset 6, -12
 942              		.cfi_offset 7, -8
 943              		.cfi_offset 14, -4
 944              		.loc 1 568 0
 945 0002 0446     		mov	r4, r0
 946              		.loc 1 570 0
 947 0004 0C48     		ldr	r0, .L67
 948              	.LVL97:
 949              		.loc 1 568 0
 950 0006 0D46     		mov	r5, r1
 951 0008 1746     		mov	r7, r2
 952              		.loc 1 570 0
 953 000a FFF7FEFF 		bl	spiSelect
 954              	.LVL98:
 955              		.loc 1 571 0
 956 000e 200A     		lsrs	r0, r4, #8
 957 0010 40F02000 		orr	r0, r0, #32
 958 0014 FFF7FEFF 		bl	halSpiExc
 959              	.LVL99:
 960 0018 0646     		mov	r6, r0
 961              	.LVL100:
 962              		.loc 1 572 0
 963 001a E0B2     		uxtb	r0, r4
 964 001c FFF7FEFF 		bl	halSpiExc
 965              	.LVL101:
 966              		.loc 1 573 0
 967 0020 25B1     		cbz	r5, .L62
 968              		.loc 1 573 0 is_stmt 0 discriminator 1
 969 0022 2946     		mov	r1, r5
ARM GAS  /tmp/cctBdhRt.s 			page 18


 970 0024 3A46     		mov	r2, r7
 971 0026 0448     		ldr	r0, .L67
 972 0028 FFF7FEFF 		bl	spiSend
 973              	.LVL102:
 974              	.L62:
 975              		.loc 1 574 0 is_stmt 1
 976 002c 0248     		ldr	r0, .L67
 977 002e FFF7FEFF 		bl	spiUnselect
 978              	.LVL103:
 979              		.loc 1 576 0
 980 0032 3046     		mov	r0, r6
 981 0034 F8BD     		pop	{r3, r4, r5, r6, r7, pc}
 982              	.LVL104:
 983              	.L68:
 984 0036 00BF     		.align	2
 985              	.L67:
 986 0038 00000000 		.word	SPID2
 987              		.cfi_endproc
 988              	.LFE282:
 989              		.size	CC2520_MEMWR, .-CC2520_MEMWR
 990              		.section	.text.CC2520_MEMWR8,"ax",%progbits
 991              		.align	2
 992              		.p2align 4,,15
 993              		.global	CC2520_MEMWR8
 994              		.thumb
 995              		.thumb_func
 996              		.type	CC2520_MEMWR8, %function
 997              	CC2520_MEMWR8:
 998              	.LFB283:
 999              		.loc 1 590 0
 1000              		.cfi_startproc
 1001              		@ args = 0, pretend = 0, frame = 0
 1002              		@ frame_needed = 0, uses_anonymous_args = 0
 1003              	.LVL105:
 1004 0000 F8B5     		push	{r3, r4, r5, r6, r7, lr}
 1005              		.cfi_def_cfa_offset 24
 1006              		.cfi_offset 3, -24
 1007              		.cfi_offset 4, -20
 1008              		.cfi_offset 5, -16
 1009              		.cfi_offset 6, -12
 1010              		.cfi_offset 7, -8
 1011              		.cfi_offset 14, -4
 1012              		.loc 1 592 0
 1013 0002 0B4C     		ldr	r4, .L71
 1014              		.loc 1 590 0
 1015 0004 0546     		mov	r5, r0
 1016              		.loc 1 592 0
 1017 0006 2046     		mov	r0, r4
 1018              	.LVL106:
 1019              		.loc 1 590 0
 1020 0008 0F46     		mov	r7, r1
 1021              		.loc 1 592 0
 1022 000a FFF7FEFF 		bl	spiSelect
 1023              	.LVL107:
 1024              		.loc 1 593 0
 1025 000e 280A     		lsrs	r0, r5, #8
 1026 0010 40F02000 		orr	r0, r0, #32
ARM GAS  /tmp/cctBdhRt.s 			page 19


 1027 0014 FFF7FEFF 		bl	halSpiExc
 1028              	.LVL108:
 1029 0018 0646     		mov	r6, r0
 1030              	.LVL109:
 1031              		.loc 1 594 0
 1032 001a E8B2     		uxtb	r0, r5
 1033 001c FFF7FEFF 		bl	halSpiExc
 1034              	.LVL110:
 1035              		.loc 1 595 0
 1036 0020 3846     		mov	r0, r7
 1037 0022 FFF7FEFF 		bl	halSpiExc
 1038              	.LVL111:
 1039              		.loc 1 596 0
 1040 0026 2046     		mov	r0, r4
 1041 0028 FFF7FEFF 		bl	spiUnselect
 1042              	.LVL112:
 1043              		.loc 1 598 0
 1044 002c 3046     		mov	r0, r6
 1045 002e F8BD     		pop	{r3, r4, r5, r6, r7, pc}
 1046              	.LVL113:
 1047              	.L72:
 1048              		.align	2
 1049              	.L71:
 1050 0030 00000000 		.word	SPID2
 1051              		.cfi_endproc
 1052              	.LFE283:
 1053              		.size	CC2520_MEMWR8, .-CC2520_MEMWR8
 1054              		.section	.text.CC2520_MEMWR16,"ax",%progbits
 1055              		.align	2
 1056              		.p2align 4,,15
 1057              		.global	CC2520_MEMWR16
 1058              		.thumb
 1059              		.thumb_func
 1060              		.type	CC2520_MEMWR16, %function
 1061              	CC2520_MEMWR16:
 1062              	.LFB284:
 1063              		.loc 1 612 0
 1064              		.cfi_startproc
 1065              		@ args = 0, pretend = 0, frame = 0
 1066              		@ frame_needed = 0, uses_anonymous_args = 0
 1067              	.LVL114:
 1068 0000 F8B5     		push	{r3, r4, r5, r6, r7, lr}
 1069              		.cfi_def_cfa_offset 24
 1070              		.cfi_offset 3, -24
 1071              		.cfi_offset 4, -20
 1072              		.cfi_offset 5, -16
 1073              		.cfi_offset 6, -12
 1074              		.cfi_offset 7, -8
 1075              		.cfi_offset 14, -4
 1076              		.loc 1 614 0
 1077 0002 0D4C     		ldr	r4, .L75
 1078              		.loc 1 612 0
 1079 0004 0646     		mov	r6, r0
 1080              		.loc 1 614 0
 1081 0006 2046     		mov	r0, r4
 1082              	.LVL115:
 1083              		.loc 1 612 0
ARM GAS  /tmp/cctBdhRt.s 			page 20


 1084 0008 0D46     		mov	r5, r1
 1085              		.loc 1 614 0
 1086 000a FFF7FEFF 		bl	spiSelect
 1087              	.LVL116:
 1088              		.loc 1 615 0
 1089 000e 300A     		lsrs	r0, r6, #8
 1090 0010 40F02000 		orr	r0, r0, #32
 1091 0014 FFF7FEFF 		bl	halSpiExc
 1092              	.LVL117:
 1093 0018 0746     		mov	r7, r0
 1094              	.LVL118:
 1095              		.loc 1 616 0
 1096 001a F0B2     		uxtb	r0, r6
 1097 001c FFF7FEFF 		bl	halSpiExc
 1098              	.LVL119:
 1099              		.loc 1 617 0
 1100 0020 E8B2     		uxtb	r0, r5
 1101 0022 FFF7FEFF 		bl	halSpiExc
 1102              	.LVL120:
 1103              		.loc 1 618 0
 1104 0026 280A     		lsrs	r0, r5, #8
 1105 0028 FFF7FEFF 		bl	halSpiExc
 1106              	.LVL121:
 1107              		.loc 1 619 0
 1108 002c 2046     		mov	r0, r4
 1109 002e FFF7FEFF 		bl	spiUnselect
 1110              	.LVL122:
 1111              		.loc 1 621 0
 1112 0032 3846     		mov	r0, r7
 1113 0034 F8BD     		pop	{r3, r4, r5, r6, r7, pc}
 1114              	.LVL123:
 1115              	.L76:
 1116 0036 00BF     		.align	2
 1117              	.L75:
 1118 0038 00000000 		.word	SPID2
 1119              		.cfi_endproc
 1120              	.LFE284:
 1121              		.size	CC2520_MEMWR16, .-CC2520_MEMWR16
 1122              		.section	.text.CC2520_MEMWR24,"ax",%progbits
 1123              		.align	2
 1124              		.p2align 4,,15
 1125              		.global	CC2520_MEMWR24
 1126              		.thumb
 1127              		.thumb_func
 1128              		.type	CC2520_MEMWR24, %function
 1129              	CC2520_MEMWR24:
 1130              	.LFB285:
 1131              		.loc 1 635 0
 1132              		.cfi_startproc
 1133              		@ args = 0, pretend = 0, frame = 0
 1134              		@ frame_needed = 0, uses_anonymous_args = 0
 1135              	.LVL124:
 1136 0000 F8B5     		push	{r3, r4, r5, r6, r7, lr}
 1137              		.cfi_def_cfa_offset 24
 1138              		.cfi_offset 3, -24
 1139              		.cfi_offset 4, -20
 1140              		.cfi_offset 5, -16
ARM GAS  /tmp/cctBdhRt.s 			page 21


 1141              		.cfi_offset 6, -12
 1142              		.cfi_offset 7, -8
 1143              		.cfi_offset 14, -4
 1144              		.loc 1 637 0
 1145 0002 0F4D     		ldr	r5, .L79
 1146              		.loc 1 635 0
 1147 0004 0646     		mov	r6, r0
 1148              		.loc 1 637 0
 1149 0006 2846     		mov	r0, r5
 1150              	.LVL125:
 1151              		.loc 1 635 0
 1152 0008 0C46     		mov	r4, r1
 1153              		.loc 1 637 0
 1154 000a FFF7FEFF 		bl	spiSelect
 1155              	.LVL126:
 1156              		.loc 1 638 0
 1157 000e 300A     		lsrs	r0, r6, #8
 1158 0010 40F02000 		orr	r0, r0, #32
 1159 0014 FFF7FEFF 		bl	halSpiExc
 1160              	.LVL127:
 1161 0018 0746     		mov	r7, r0
 1162              	.LVL128:
 1163              		.loc 1 639 0
 1164 001a F0B2     		uxtb	r0, r6
 1165 001c FFF7FEFF 		bl	halSpiExc
 1166              	.LVL129:
 1167              		.loc 1 640 0
 1168 0020 E0B2     		uxtb	r0, r4
 1169 0022 FFF7FEFF 		bl	halSpiExc
 1170              	.LVL130:
 1171              		.loc 1 641 0
 1172 0026 C4F30720 		ubfx	r0, r4, #8, #8
 1173 002a FFF7FEFF 		bl	halSpiExc
 1174              	.LVL131:
 1175              		.loc 1 642 0
 1176 002e C4F30740 		ubfx	r0, r4, #16, #8
 1177 0032 FFF7FEFF 		bl	halSpiExc
 1178              	.LVL132:
 1179              		.loc 1 643 0
 1180 0036 2846     		mov	r0, r5
 1181 0038 FFF7FEFF 		bl	spiUnselect
 1182              	.LVL133:
 1183              		.loc 1 645 0
 1184 003c 3846     		mov	r0, r7
 1185 003e F8BD     		pop	{r3, r4, r5, r6, r7, pc}
 1186              	.LVL134:
 1187              	.L80:
 1188              		.align	2
 1189              	.L79:
 1190 0040 00000000 		.word	SPID2
 1191              		.cfi_endproc
 1192              	.LFE285:
 1193              		.size	CC2520_MEMWR24, .-CC2520_MEMWR24
 1194              		.section	.text.CC2520_RXBUF,"ax",%progbits
 1195              		.align	2
 1196              		.p2align 4,,15
 1197              		.global	CC2520_RXBUF
ARM GAS  /tmp/cctBdhRt.s 			page 22


 1198              		.thumb
 1199              		.thumb_func
 1200              		.type	CC2520_RXBUF, %function
 1201              	CC2520_RXBUF:
 1202              	.LFB286:
 1203              		.loc 1 659 0
 1204              		.cfi_startproc
 1205              		@ args = 0, pretend = 0, frame = 0
 1206              		@ frame_needed = 0, uses_anonymous_args = 0
 1207              	.LVL135:
 1208 0000 70B5     		push	{r4, r5, r6, lr}
 1209              		.cfi_def_cfa_offset 16
 1210              		.cfi_offset 4, -16
 1211              		.cfi_offset 5, -12
 1212              		.cfi_offset 6, -8
 1213              		.cfi_offset 14, -4
 1214              		.loc 1 659 0
 1215 0002 0446     		mov	r4, r0
 1216              		.loc 1 661 0
 1217 0004 0948     		ldr	r0, .L87
 1218              	.LVL136:
 1219              		.loc 1 659 0
 1220 0006 0E46     		mov	r6, r1
 1221              		.loc 1 661 0
 1222 0008 FFF7FEFF 		bl	spiSelect
 1223              	.LVL137:
 1224              		.loc 1 662 0
 1225 000c 3020     		movs	r0, #48
 1226 000e FFF7FEFF 		bl	halSpiExc
 1227              	.LVL138:
 1228 0012 0546     		mov	r5, r0
 1229              	.LVL139:
 1230              		.loc 1 663 0
 1231 0014 24B1     		cbz	r4, .L82
 1232              		.loc 1 663 0 is_stmt 0 discriminator 1
 1233 0016 2146     		mov	r1, r4
 1234 0018 3246     		mov	r2, r6
 1235 001a 0448     		ldr	r0, .L87
 1236 001c FFF7FEFF 		bl	spiReceive
 1237              	.LVL140:
 1238              	.L82:
 1239              		.loc 1 664 0 is_stmt 1
 1240 0020 0248     		ldr	r0, .L87
 1241 0022 FFF7FEFF 		bl	spiUnselect
 1242              	.LVL141:
 1243              		.loc 1 666 0
 1244 0026 2846     		mov	r0, r5
 1245 0028 70BD     		pop	{r4, r5, r6, pc}
 1246              	.LVL142:
 1247              	.L88:
 1248 002a 00BF     		.align	2
 1249              	.L87:
 1250 002c 00000000 		.word	SPID2
 1251              		.cfi_endproc
 1252              	.LFE286:
 1253              		.size	CC2520_RXBUF, .-CC2520_RXBUF
 1254              		.section	.text.CC2520_RXBUF8,"ax",%progbits
ARM GAS  /tmp/cctBdhRt.s 			page 23


 1255              		.align	2
 1256              		.p2align 4,,15
 1257              		.global	CC2520_RXBUF8
 1258              		.thumb
 1259              		.thumb_func
 1260              		.type	CC2520_RXBUF8, %function
 1261              	CC2520_RXBUF8:
 1262              	.LFB287:
 1263              		.loc 1 679 0
 1264              		.cfi_startproc
 1265              		@ args = 0, pretend = 0, frame = 0
 1266              		@ frame_needed = 0, uses_anonymous_args = 0
 1267 0000 38B5     		push	{r3, r4, r5, lr}
 1268              		.cfi_def_cfa_offset 16
 1269              		.cfi_offset 3, -16
 1270              		.cfi_offset 4, -12
 1271              		.cfi_offset 5, -8
 1272              		.cfi_offset 14, -4
 1273              		.loc 1 681 0
 1274 0002 084C     		ldr	r4, .L91
 1275 0004 2046     		mov	r0, r4
 1276 0006 FFF7FEFF 		bl	spiSelect
 1277              	.LVL143:
 1278              		.loc 1 682 0
 1279 000a 3020     		movs	r0, #48
 1280 000c FFF7FEFF 		bl	halSpiExc
 1281              	.LVL144:
 1282              		.loc 1 683 0
 1283 0010 0020     		movs	r0, #0
 1284 0012 FFF7FEFF 		bl	halSpiExc
 1285              	.LVL145:
 1286 0016 0546     		mov	r5, r0
 1287              	.LVL146:
 1288              		.loc 1 684 0
 1289 0018 2046     		mov	r0, r4
 1290 001a FFF7FEFF 		bl	spiUnselect
 1291              	.LVL147:
 1292              		.loc 1 686 0
 1293 001e 2846     		mov	r0, r5
 1294 0020 38BD     		pop	{r3, r4, r5, pc}
 1295              	.LVL148:
 1296              	.L92:
 1297 0022 00BF     		.align	2
 1298              	.L91:
 1299 0024 00000000 		.word	SPID2
 1300              		.cfi_endproc
 1301              	.LFE287:
 1302              		.size	CC2520_RXBUF8, .-CC2520_RXBUF8
 1303              		.section	.text.CC2520_RXBUF16,"ax",%progbits
 1304              		.align	2
 1305              		.p2align 4,,15
 1306              		.global	CC2520_RXBUF16
 1307              		.thumb
 1308              		.thumb_func
 1309              		.type	CC2520_RXBUF16, %function
 1310              	CC2520_RXBUF16:
 1311              	.LFB288:
ARM GAS  /tmp/cctBdhRt.s 			page 24


 1312              		.loc 1 699 0
 1313              		.cfi_startproc
 1314              		@ args = 0, pretend = 0, frame = 0
 1315              		@ frame_needed = 0, uses_anonymous_args = 0
 1316 0000 38B5     		push	{r3, r4, r5, lr}
 1317              		.cfi_def_cfa_offset 16
 1318              		.cfi_offset 3, -16
 1319              		.cfi_offset 4, -12
 1320              		.cfi_offset 5, -8
 1321              		.cfi_offset 14, -4
 1322              		.loc 1 701 0
 1323 0002 0C4D     		ldr	r5, .L95
 1324 0004 2846     		mov	r0, r5
 1325 0006 FFF7FEFF 		bl	spiSelect
 1326              	.LVL149:
 1327              		.loc 1 702 0
 1328 000a 3020     		movs	r0, #48
 1329 000c FFF7FEFF 		bl	halSpiExc
 1330              	.LVL150:
 1331              		.loc 1 703 0
 1332 0010 0020     		movs	r0, #0
 1333 0012 FFF7FEFF 		bl	halSpiExc
 1334              	.LVL151:
 1335 0016 4FF00004 		mov	r4, #0	@ movhi
 1336              	.LVL152:
 1337 001a 60F30704 		bfi	r4, r0, #0, #8
 1338              	.LVL153:
 1339              		.loc 1 704 0
 1340 001e 0020     		movs	r0, #0
 1341 0020 FFF7FEFF 		bl	halSpiExc
 1342              	.LVL154:
 1343 0024 60F30F24 		bfi	r4, r0, #8, #8
 1344              		.loc 1 705 0
 1345 0028 2846     		mov	r0, r5
 1346 002a FFF7FEFF 		bl	spiUnselect
 1347              	.LVL155:
 1348              		.loc 1 707 0
 1349 002e A0B2     		uxth	r0, r4
 1350 0030 38BD     		pop	{r3, r4, r5, pc}
 1351              	.LVL156:
 1352              	.L96:
 1353 0032 00BF     		.align	2
 1354              	.L95:
 1355 0034 00000000 		.word	SPID2
 1356              		.cfi_endproc
 1357              	.LFE288:
 1358              		.size	CC2520_RXBUF16, .-CC2520_RXBUF16
 1359              		.section	.text.CC2520_RXBUFCP_BEGIN,"ax",%progbits
 1360              		.align	2
 1361              		.p2align 4,,15
 1362              		.global	CC2520_RXBUFCP_BEGIN
 1363              		.thumb
 1364              		.thumb_func
 1365              		.type	CC2520_RXBUFCP_BEGIN, %function
 1366              	CC2520_RXBUFCP_BEGIN:
 1367              	.LFB289:
 1368              		.loc 1 721 0
ARM GAS  /tmp/cctBdhRt.s 			page 25


 1369              		.cfi_startproc
 1370              		@ args = 0, pretend = 0, frame = 0
 1371              		@ frame_needed = 0, uses_anonymous_args = 0
 1372              	.LVL157:
 1373 0000 70B5     		push	{r4, r5, r6, lr}
 1374              		.cfi_def_cfa_offset 16
 1375              		.cfi_offset 4, -16
 1376              		.cfi_offset 5, -12
 1377              		.cfi_offset 6, -8
 1378              		.cfi_offset 14, -4
 1379              		.loc 1 721 0
 1380 0002 0646     		mov	r6, r0
 1381              		.loc 1 723 0
 1382 0004 0948     		ldr	r0, .L101
 1383              	.LVL158:
 1384              		.loc 1 721 0
 1385 0006 0C46     		mov	r4, r1
 1386              		.loc 1 723 0
 1387 0008 FFF7FEFF 		bl	spiSelect
 1388              	.LVL159:
 1389              		.loc 1 724 0
 1390 000c 3820     		movs	r0, #56
 1391 000e FFF7FEFF 		bl	halSpiExc
 1392              	.LVL160:
 1393 0012 0546     		mov	r5, r0
 1394              	.LVL161:
 1395              		.loc 1 726 0
 1396 0014 300A     		lsrs	r0, r6, #8
 1397              		.loc 1 725 0
 1398 0016 24B1     		cbz	r4, .L98
 1399              		.loc 1 726 0
 1400 0018 FFF7FEFF 		bl	halSpiExc
 1401              	.LVL162:
 1402 001c 2070     		strb	r0, [r4]
 1403              		.loc 1 731 0
 1404 001e 2846     		mov	r0, r5
 1405 0020 70BD     		pop	{r4, r5, r6, pc}
 1406              	.LVL163:
 1407              	.L98:
 1408              		.loc 1 728 0
 1409 0022 FFF7FEFF 		bl	halSpiExc
 1410              	.LVL164:
 1411              		.loc 1 731 0
 1412 0026 2846     		mov	r0, r5
 1413 0028 70BD     		pop	{r4, r5, r6, pc}
 1414              	.LVL165:
 1415              	.L102:
 1416 002a 00BF     		.align	2
 1417              	.L101:
 1418 002c 00000000 		.word	SPID2
 1419              		.cfi_endproc
 1420              	.LFE289:
 1421              		.size	CC2520_RXBUFCP_BEGIN, .-CC2520_RXBUFCP_BEGIN
 1422              		.section	.text.CC2520_RXBUFCP_END,"ax",%progbits
 1423              		.align	2
 1424              		.p2align 4,,15
 1425              		.global	CC2520_RXBUFCP_END
ARM GAS  /tmp/cctBdhRt.s 			page 26


 1426              		.thumb
 1427              		.thumb_func
 1428              		.type	CC2520_RXBUFCP_END, %function
 1429              	CC2520_RXBUFCP_END:
 1430              	.LFB290:
 1431              		.loc 1 747 0
 1432              		.cfi_startproc
 1433              		@ args = 0, pretend = 0, frame = 0
 1434              		@ frame_needed = 0, uses_anonymous_args = 0
 1435              	.LVL166:
 1436 0000 70B5     		push	{r4, r5, r6, lr}
 1437              		.cfi_def_cfa_offset 16
 1438              		.cfi_offset 4, -16
 1439              		.cfi_offset 5, -12
 1440              		.cfi_offset 6, -8
 1441              		.cfi_offset 14, -4
 1442              		.loc 1 749 0
 1443 0002 C0B2     		uxtb	r0, r0
 1444              	.LVL167:
 1445              		.loc 1 747 0
 1446 0004 0C46     		mov	r4, r1
 1447 0006 1646     		mov	r6, r2
 1448              		.loc 1 749 0
 1449 0008 FFF7FEFF 		bl	halSpiExc
 1450              	.LVL168:
 1451 000c 0546     		mov	r5, r0
 1452              	.LVL169:
 1453              		.loc 1 750 0
 1454 000e 24B1     		cbz	r4, .L104
 1455              		.loc 1 750 0 is_stmt 0 discriminator 1
 1456 0010 2146     		mov	r1, r4
 1457 0012 3246     		mov	r2, r6
 1458 0014 0348     		ldr	r0, .L109
 1459 0016 FFF7FEFF 		bl	spiReceive
 1460              	.LVL170:
 1461              	.L104:
 1462              		.loc 1 751 0 is_stmt 1
 1463 001a 0248     		ldr	r0, .L109
 1464 001c FFF7FEFF 		bl	spiUnselect
 1465              	.LVL171:
 1466              		.loc 1 753 0
 1467 0020 2846     		mov	r0, r5
 1468 0022 70BD     		pop	{r4, r5, r6, pc}
 1469              	.LVL172:
 1470              	.L110:
 1471              		.align	2
 1472              	.L109:
 1473 0024 00000000 		.word	SPID2
 1474              		.cfi_endproc
 1475              	.LFE290:
 1476              		.size	CC2520_RXBUFCP_END, .-CC2520_RXBUFCP_END
 1477              		.section	.text.CC2520_RXBUFMOV,"ax",%progbits
 1478              		.align	2
 1479              		.p2align 4,,15
 1480              		.global	CC2520_RXBUFMOV
 1481              		.thumb
 1482              		.thumb_func
ARM GAS  /tmp/cctBdhRt.s 			page 27


 1483              		.type	CC2520_RXBUFMOV, %function
 1484              	CC2520_RXBUFMOV:
 1485              	.LFB291:
 1486              		.loc 1 770 0
 1487              		.cfi_startproc
 1488              		@ args = 0, pretend = 0, frame = 0
 1489              		@ frame_needed = 0, uses_anonymous_args = 0
 1490              	.LVL173:
 1491 0000 F8B5     		push	{r3, r4, r5, r6, r7, lr}
 1492              		.cfi_def_cfa_offset 24
 1493              		.cfi_offset 3, -24
 1494              		.cfi_offset 4, -20
 1495              		.cfi_offset 5, -16
 1496              		.cfi_offset 6, -12
 1497              		.cfi_offset 7, -8
 1498              		.cfi_offset 14, -4
 1499              		.loc 1 770 0
 1500 0002 0646     		mov	r6, r0
 1501              		.loc 1 772 0
 1502 0004 0E48     		ldr	r0, .L115
 1503              	.LVL174:
 1504              		.loc 1 770 0
 1505 0006 1746     		mov	r7, r2
 1506 0008 0C46     		mov	r4, r1
 1507 000a 1D46     		mov	r5, r3
 1508              		.loc 1 772 0
 1509 000c FFF7FEFF 		bl	spiSelect
 1510              	.LVL175:
 1511              		.loc 1 773 0
 1512 0010 46F03200 		orr	r0, r6, #50
 1513 0014 FFF7FEFF 		bl	halSpiExc
 1514              	.LVL176:
 1515 0018 0646     		mov	r6, r0
 1516              	.LVL177:
 1517              		.loc 1 775 0
 1518 001a 3846     		mov	r0, r7
 1519              		.loc 1 774 0
 1520 001c 6DB1     		cbz	r5, .L112
 1521              		.loc 1 775 0
 1522 001e FFF7FEFF 		bl	halSpiExc
 1523              	.LVL178:
 1524 0022 2870     		strb	r0, [r5]
 1525              	.L113:
 1526              		.loc 1 779 0
 1527 0024 200A     		lsrs	r0, r4, #8
 1528 0026 FFF7FEFF 		bl	halSpiExc
 1529              	.LVL179:
 1530              		.loc 1 780 0
 1531 002a E0B2     		uxtb	r0, r4
 1532 002c FFF7FEFF 		bl	halSpiExc
 1533              	.LVL180:
 1534              		.loc 1 781 0
 1535 0030 0348     		ldr	r0, .L115
 1536 0032 FFF7FEFF 		bl	spiUnselect
 1537              	.LVL181:
 1538              		.loc 1 783 0
 1539 0036 3046     		mov	r0, r6
ARM GAS  /tmp/cctBdhRt.s 			page 28


 1540 0038 F8BD     		pop	{r3, r4, r5, r6, r7, pc}
 1541              	.LVL182:
 1542              	.L112:
 1543              		.loc 1 777 0
 1544 003a FFF7FEFF 		bl	halSpiExc
 1545              	.LVL183:
 1546 003e F1E7     		b	.L113
 1547              	.L116:
 1548              		.align	2
 1549              	.L115:
 1550 0040 00000000 		.word	SPID2
 1551              		.cfi_endproc
 1552              	.LFE291:
 1553              		.size	CC2520_RXBUFMOV, .-CC2520_RXBUFMOV
 1554              		.section	.text.CC2520_TXBUF,"ax",%progbits
 1555              		.align	2
 1556              		.p2align 4,,15
 1557              		.global	CC2520_TXBUF
 1558              		.thumb
 1559              		.thumb_func
 1560              		.type	CC2520_TXBUF, %function
 1561              	CC2520_TXBUF:
 1562              	.LFB292:
 1563              		.loc 1 797 0
 1564              		.cfi_startproc
 1565              		@ args = 0, pretend = 0, frame = 0
 1566              		@ frame_needed = 0, uses_anonymous_args = 0
 1567              	.LVL184:
 1568 0000 70B5     		push	{r4, r5, r6, lr}
 1569              		.cfi_def_cfa_offset 16
 1570              		.cfi_offset 4, -16
 1571              		.cfi_offset 5, -12
 1572              		.cfi_offset 6, -8
 1573              		.cfi_offset 14, -4
 1574              		.loc 1 797 0
 1575 0002 0446     		mov	r4, r0
 1576              		.loc 1 799 0
 1577 0004 0948     		ldr	r0, .L123
 1578              	.LVL185:
 1579              		.loc 1 797 0
 1580 0006 0E46     		mov	r6, r1
 1581              		.loc 1 799 0
 1582 0008 FFF7FEFF 		bl	spiSelect
 1583              	.LVL186:
 1584              		.loc 1 800 0
 1585 000c 3A20     		movs	r0, #58
 1586 000e FFF7FEFF 		bl	halSpiExc
 1587              	.LVL187:
 1588 0012 0546     		mov	r5, r0
 1589              	.LVL188:
 1590              		.loc 1 801 0
 1591 0014 24B1     		cbz	r4, .L118
 1592              		.loc 1 801 0 is_stmt 0 discriminator 1
 1593 0016 2146     		mov	r1, r4
 1594 0018 3246     		mov	r2, r6
 1595 001a 0448     		ldr	r0, .L123
 1596 001c FFF7FEFF 		bl	spiSend
ARM GAS  /tmp/cctBdhRt.s 			page 29


 1597              	.LVL189:
 1598              	.L118:
 1599              		.loc 1 802 0 is_stmt 1
 1600 0020 0248     		ldr	r0, .L123
 1601 0022 FFF7FEFF 		bl	spiUnselect
 1602              	.LVL190:
 1603              		.loc 1 804 0
 1604 0026 2846     		mov	r0, r5
 1605 0028 70BD     		pop	{r4, r5, r6, pc}
 1606              	.LVL191:
 1607              	.L124:
 1608 002a 00BF     		.align	2
 1609              	.L123:
 1610 002c 00000000 		.word	SPID2
 1611              		.cfi_endproc
 1612              	.LFE292:
 1613              		.size	CC2520_TXBUF, .-CC2520_TXBUF
 1614              		.section	.text.CC2520_TXBUF8,"ax",%progbits
 1615              		.align	2
 1616              		.p2align 4,,15
 1617              		.global	CC2520_TXBUF8
 1618              		.thumb
 1619              		.thumb_func
 1620              		.type	CC2520_TXBUF8, %function
 1621              	CC2520_TXBUF8:
 1622              	.LFB293:
 1623              		.loc 1 817 0
 1624              		.cfi_startproc
 1625              		@ args = 0, pretend = 0, frame = 0
 1626              		@ frame_needed = 0, uses_anonymous_args = 0
 1627              	.LVL192:
 1628 0000 38B5     		push	{r3, r4, r5, lr}
 1629              		.cfi_def_cfa_offset 16
 1630              		.cfi_offset 3, -16
 1631              		.cfi_offset 4, -12
 1632              		.cfi_offset 5, -8
 1633              		.cfi_offset 14, -4
 1634              		.loc 1 818 0
 1635 0002 084C     		ldr	r4, .L127
 1636              		.loc 1 817 0
 1637 0004 0546     		mov	r5, r0
 1638              		.loc 1 818 0
 1639 0006 2046     		mov	r0, r4
 1640              	.LVL193:
 1641 0008 FFF7FEFF 		bl	spiSelect
 1642              	.LVL194:
 1643              		.loc 1 819 0
 1644 000c 3A20     		movs	r0, #58
 1645 000e FFF7FEFF 		bl	halSpiExc
 1646              	.LVL195:
 1647              		.loc 1 820 0
 1648 0012 2846     		mov	r0, r5
 1649 0014 FFF7FEFF 		bl	halSpiExc
 1650              	.LVL196:
 1651              		.loc 1 821 0
 1652 0018 2046     		mov	r0, r4
 1653              		.loc 1 822 0
ARM GAS  /tmp/cctBdhRt.s 			page 30


 1654 001a BDE83840 		pop	{r3, r4, r5, lr}
 1655              		.cfi_restore 14
 1656              		.cfi_restore 5
 1657              		.cfi_restore 4
 1658              		.cfi_restore 3
 1659              		.cfi_def_cfa_offset 0
 1660              		.loc 1 821 0
 1661 001e FFF7FEBF 		b	spiUnselect
 1662              	.LVL197:
 1663              	.L128:
 1664 0022 00BF     		.align	2
 1665              	.L127:
 1666 0024 00000000 		.word	SPID2
 1667              		.cfi_endproc
 1668              	.LFE293:
 1669              		.size	CC2520_TXBUF8, .-CC2520_TXBUF8
 1670              		.section	.text.CC2520_TXBUF16,"ax",%progbits
 1671              		.align	2
 1672              		.p2align 4,,15
 1673              		.global	CC2520_TXBUF16
 1674              		.thumb
 1675              		.thumb_func
 1676              		.type	CC2520_TXBUF16, %function
 1677              	CC2520_TXBUF16:
 1678              	.LFB294:
 1679              		.loc 1 835 0
 1680              		.cfi_startproc
 1681              		@ args = 0, pretend = 0, frame = 0
 1682              		@ frame_needed = 0, uses_anonymous_args = 0
 1683              	.LVL198:
 1684 0000 38B5     		push	{r3, r4, r5, lr}
 1685              		.cfi_def_cfa_offset 16
 1686              		.cfi_offset 3, -16
 1687              		.cfi_offset 4, -12
 1688              		.cfi_offset 5, -8
 1689              		.cfi_offset 14, -4
 1690              		.loc 1 836 0
 1691 0002 094C     		ldr	r4, .L131
 1692              		.loc 1 835 0
 1693 0004 0546     		mov	r5, r0
 1694              		.loc 1 836 0
 1695 0006 2046     		mov	r0, r4
 1696              	.LVL199:
 1697 0008 FFF7FEFF 		bl	spiSelect
 1698              	.LVL200:
 1699              		.loc 1 837 0
 1700 000c 3A20     		movs	r0, #58
 1701 000e FFF7FEFF 		bl	halSpiExc
 1702              	.LVL201:
 1703              		.loc 1 838 0
 1704 0012 E8B2     		uxtb	r0, r5
 1705 0014 FFF7FEFF 		bl	halSpiExc
 1706              	.LVL202:
 1707              		.loc 1 839 0
 1708 0018 280A     		lsrs	r0, r5, #8
 1709 001a FFF7FEFF 		bl	halSpiExc
 1710              	.LVL203:
ARM GAS  /tmp/cctBdhRt.s 			page 31


 1711              		.loc 1 840 0
 1712 001e 2046     		mov	r0, r4
 1713              		.loc 1 841 0
 1714 0020 BDE83840 		pop	{r3, r4, r5, lr}
 1715              		.cfi_restore 14
 1716              		.cfi_restore 5
 1717              		.cfi_restore 4
 1718              		.cfi_restore 3
 1719              		.cfi_def_cfa_offset 0
 1720              		.loc 1 840 0
 1721 0024 FFF7FEBF 		b	spiUnselect
 1722              	.LVL204:
 1723              	.L132:
 1724              		.align	2
 1725              	.L131:
 1726 0028 00000000 		.word	SPID2
 1727              		.cfi_endproc
 1728              	.LFE294:
 1729              		.size	CC2520_TXBUF16, .-CC2520_TXBUF16
 1730              		.section	.text.CC2520_TXBUFCP,"ax",%progbits
 1731              		.align	2
 1732              		.p2align 4,,15
 1733              		.global	CC2520_TXBUFCP
 1734              		.thumb
 1735              		.thumb_func
 1736              		.type	CC2520_TXBUFCP, %function
 1737              	CC2520_TXBUFCP:
 1738              	.LFB295:
 1739              		.loc 1 857 0
 1740              		.cfi_startproc
 1741              		@ args = 0, pretend = 0, frame = 0
 1742              		@ frame_needed = 0, uses_anonymous_args = 0
 1743              	.LVL205:
 1744 0000 F8B5     		push	{r3, r4, r5, r6, r7, lr}
 1745              		.cfi_def_cfa_offset 24
 1746              		.cfi_offset 3, -24
 1747              		.cfi_offset 4, -20
 1748              		.cfi_offset 5, -16
 1749              		.cfi_offset 6, -12
 1750              		.cfi_offset 7, -8
 1751              		.cfi_offset 14, -4
 1752              		.loc 1 857 0
 1753 0002 0646     		mov	r6, r0
 1754              		.loc 1 859 0
 1755 0004 0E48     		ldr	r0, .L137
 1756              	.LVL206:
 1757              		.loc 1 857 0
 1758 0006 1746     		mov	r7, r2
 1759 0008 0C46     		mov	r4, r1
 1760 000a 1D46     		mov	r5, r3
 1761              		.loc 1 859 0
 1762 000c FFF7FEFF 		bl	spiSelect
 1763              	.LVL207:
 1764              		.loc 1 860 0
 1765 0010 46F03E00 		orr	r0, r6, #62
 1766 0014 FFF7FEFF 		bl	halSpiExc
 1767              	.LVL208:
ARM GAS  /tmp/cctBdhRt.s 			page 32


 1768 0018 0646     		mov	r6, r0
 1769              	.LVL209:
 1770              		.loc 1 862 0
 1771 001a 3846     		mov	r0, r7
 1772              		.loc 1 861 0
 1773 001c 6DB1     		cbz	r5, .L134
 1774              		.loc 1 862 0
 1775 001e FFF7FEFF 		bl	halSpiExc
 1776              	.LVL210:
 1777 0022 2870     		strb	r0, [r5]
 1778              	.L135:
 1779              		.loc 1 866 0
 1780 0024 200A     		lsrs	r0, r4, #8
 1781 0026 FFF7FEFF 		bl	halSpiExc
 1782              	.LVL211:
 1783              		.loc 1 867 0
 1784 002a E0B2     		uxtb	r0, r4
 1785 002c FFF7FEFF 		bl	halSpiExc
 1786              	.LVL212:
 1787              		.loc 1 868 0
 1788 0030 0348     		ldr	r0, .L137
 1789 0032 FFF7FEFF 		bl	spiUnselect
 1790              	.LVL213:
 1791              		.loc 1 870 0
 1792 0036 3046     		mov	r0, r6
 1793 0038 F8BD     		pop	{r3, r4, r5, r6, r7, pc}
 1794              	.LVL214:
 1795              	.L134:
 1796              		.loc 1 864 0
 1797 003a FFF7FEFF 		bl	halSpiExc
 1798              	.LVL215:
 1799 003e F1E7     		b	.L135
 1800              	.L138:
 1801              		.align	2
 1802              	.L137:
 1803 0040 00000000 		.word	SPID2
 1804              		.cfi_endproc
 1805              	.LFE295:
 1806              		.size	CC2520_TXBUFCP, .-CC2520_TXBUFCP
 1807              		.section	.text.CC2520_RANDOM,"ax",%progbits
 1808              		.align	2
 1809              		.p2align 4,,15
 1810              		.global	CC2520_RANDOM
 1811              		.thumb
 1812              		.thumb_func
 1813              		.type	CC2520_RANDOM, %function
 1814              	CC2520_RANDOM:
 1815              	.LFB296:
 1816              		.loc 1 884 0
 1817              		.cfi_startproc
 1818              		@ args = 0, pretend = 0, frame = 0
 1819              		@ frame_needed = 0, uses_anonymous_args = 0
 1820              	.LVL216:
 1821 0000 70B5     		push	{r4, r5, r6, lr}
 1822              		.cfi_def_cfa_offset 16
 1823              		.cfi_offset 4, -16
 1824              		.cfi_offset 5, -12
ARM GAS  /tmp/cctBdhRt.s 			page 33


 1825              		.cfi_offset 6, -8
 1826              		.cfi_offset 14, -4
 1827              		.loc 1 884 0
 1828 0002 0446     		mov	r4, r0
 1829              		.loc 1 886 0
 1830 0004 0A48     		ldr	r0, .L145
 1831              	.LVL217:
 1832              		.loc 1 884 0
 1833 0006 0E46     		mov	r6, r1
 1834              		.loc 1 886 0
 1835 0008 FFF7FEFF 		bl	spiSelect
 1836              	.LVL218:
 1837              		.loc 1 887 0
 1838 000c 3C20     		movs	r0, #60
 1839 000e FFF7FEFF 		bl	halSpiExc
 1840              	.LVL219:
 1841 0012 0546     		mov	r5, r0
 1842              	.LVL220:
 1843              		.loc 1 888 0
 1844 0014 0020     		movs	r0, #0
 1845 0016 FFF7FEFF 		bl	halSpiExc
 1846              	.LVL221:
 1847              		.loc 1 889 0
 1848 001a 24B1     		cbz	r4, .L140
 1849              		.loc 1 889 0 is_stmt 0 discriminator 1
 1850 001c 2146     		mov	r1, r4
 1851 001e 3246     		mov	r2, r6
 1852 0020 0348     		ldr	r0, .L145
 1853 0022 FFF7FEFF 		bl	spiReceive
 1854              	.LVL222:
 1855              	.L140:
 1856              		.loc 1 890 0 is_stmt 1
 1857 0026 0248     		ldr	r0, .L145
 1858 0028 FFF7FEFF 		bl	spiUnselect
 1859              	.LVL223:
 1860              		.loc 1 892 0
 1861 002c 2846     		mov	r0, r5
 1862 002e 70BD     		pop	{r4, r5, r6, pc}
 1863              	.LVL224:
 1864              	.L146:
 1865              		.align	2
 1866              	.L145:
 1867 0030 00000000 		.word	SPID2
 1868              		.cfi_endproc
 1869              	.LFE296:
 1870              		.size	CC2520_RANDOM, .-CC2520_RANDOM
 1871              		.section	.text.CC2520_RANDOM8,"ax",%progbits
 1872              		.align	2
 1873              		.p2align 4,,15
 1874              		.global	CC2520_RANDOM8
 1875              		.thumb
 1876              		.thumb_func
 1877              		.type	CC2520_RANDOM8, %function
 1878              	CC2520_RANDOM8:
 1879              	.LFB297:
 1880              		.loc 1 905 0
 1881              		.cfi_startproc
ARM GAS  /tmp/cctBdhRt.s 			page 34


 1882              		@ args = 0, pretend = 0, frame = 0
 1883              		@ frame_needed = 0, uses_anonymous_args = 0
 1884 0000 38B5     		push	{r3, r4, r5, lr}
 1885              		.cfi_def_cfa_offset 16
 1886              		.cfi_offset 3, -16
 1887              		.cfi_offset 4, -12
 1888              		.cfi_offset 5, -8
 1889              		.cfi_offset 14, -4
 1890              		.loc 1 907 0
 1891 0002 094C     		ldr	r4, .L149
 1892 0004 2046     		mov	r0, r4
 1893 0006 FFF7FEFF 		bl	spiSelect
 1894              	.LVL225:
 1895              		.loc 1 908 0
 1896 000a 3C20     		movs	r0, #60
 1897 000c FFF7FEFF 		bl	halSpiExc
 1898              	.LVL226:
 1899              		.loc 1 909 0
 1900 0010 0020     		movs	r0, #0
 1901 0012 FFF7FEFF 		bl	halSpiExc
 1902              	.LVL227:
 1903              		.loc 1 910 0
 1904 0016 0020     		movs	r0, #0
 1905 0018 FFF7FEFF 		bl	halSpiExc
 1906              	.LVL228:
 1907 001c 0546     		mov	r5, r0
 1908              	.LVL229:
 1909              		.loc 1 911 0
 1910 001e 2046     		mov	r0, r4
 1911 0020 FFF7FEFF 		bl	spiUnselect
 1912              	.LVL230:
 1913              		.loc 1 913 0
 1914 0024 2846     		mov	r0, r5
 1915 0026 38BD     		pop	{r3, r4, r5, pc}
 1916              	.LVL231:
 1917              	.L150:
 1918              		.align	2
 1919              	.L149:
 1920 0028 00000000 		.word	SPID2
 1921              		.cfi_endproc
 1922              	.LFE297:
 1923              		.size	CC2520_RANDOM8, .-CC2520_RANDOM8
 1924              		.section	.text.CC2520_RANDOM16,"ax",%progbits
 1925              		.align	2
 1926              		.p2align 4,,15
 1927              		.global	CC2520_RANDOM16
 1928              		.thumb
 1929              		.thumb_func
 1930              		.type	CC2520_RANDOM16, %function
 1931              	CC2520_RANDOM16:
 1932              	.LFB298:
 1933              		.loc 1 926 0
 1934              		.cfi_startproc
 1935              		@ args = 0, pretend = 0, frame = 0
 1936              		@ frame_needed = 0, uses_anonymous_args = 0
 1937 0000 38B5     		push	{r3, r4, r5, lr}
 1938              		.cfi_def_cfa_offset 16
ARM GAS  /tmp/cctBdhRt.s 			page 35


 1939              		.cfi_offset 3, -16
 1940              		.cfi_offset 4, -12
 1941              		.cfi_offset 5, -8
 1942              		.cfi_offset 14, -4
 1943              		.loc 1 928 0
 1944 0002 0D4D     		ldr	r5, .L153
 1945 0004 2846     		mov	r0, r5
 1946 0006 FFF7FEFF 		bl	spiSelect
 1947              	.LVL232:
 1948              		.loc 1 929 0
 1949 000a 3C20     		movs	r0, #60
 1950 000c FFF7FEFF 		bl	halSpiExc
 1951              	.LVL233:
 1952              		.loc 1 930 0
 1953 0010 0020     		movs	r0, #0
 1954 0012 FFF7FEFF 		bl	halSpiExc
 1955              	.LVL234:
 1956              		.loc 1 931 0
 1957 0016 0020     		movs	r0, #0
 1958 0018 FFF7FEFF 		bl	halSpiExc
 1959              	.LVL235:
 1960 001c 4FF00004 		mov	r4, #0	@ movhi
 1961              	.LVL236:
 1962 0020 60F30704 		bfi	r4, r0, #0, #8
 1963              	.LVL237:
 1964              		.loc 1 932 0
 1965 0024 0020     		movs	r0, #0
 1966 0026 FFF7FEFF 		bl	halSpiExc
 1967              	.LVL238:
 1968 002a 60F30F24 		bfi	r4, r0, #8, #8
 1969              		.loc 1 933 0
 1970 002e 2846     		mov	r0, r5
 1971 0030 FFF7FEFF 		bl	spiUnselect
 1972              	.LVL239:
 1973              		.loc 1 935 0
 1974 0034 A0B2     		uxth	r0, r4
 1975 0036 38BD     		pop	{r3, r4, r5, pc}
 1976              	.LVL240:
 1977              	.L154:
 1978              		.align	2
 1979              	.L153:
 1980 0038 00000000 		.word	SPID2
 1981              		.cfi_endproc
 1982              	.LFE298:
 1983              		.size	CC2520_RANDOM16, .-CC2520_RANDOM16
 1984              		.section	.text.CC2520_RXMASKOR,"ax",%progbits
 1985              		.align	2
 1986              		.p2align 4,,15
 1987              		.global	CC2520_RXMASKOR
 1988              		.thumb
 1989              		.thumb_func
 1990              		.type	CC2520_RXMASKOR, %function
 1991              	CC2520_RXMASKOR:
 1992              	.LFB299:
 1993              		.loc 1 948 0
 1994              		.cfi_startproc
 1995              		@ args = 0, pretend = 0, frame = 0
ARM GAS  /tmp/cctBdhRt.s 			page 36


 1996              		@ frame_needed = 0, uses_anonymous_args = 0
 1997              	.LVL241:
 1998 0000 70B5     		push	{r4, r5, r6, lr}
 1999              		.cfi_def_cfa_offset 16
 2000              		.cfi_offset 4, -16
 2001              		.cfi_offset 5, -12
 2002              		.cfi_offset 6, -8
 2003              		.cfi_offset 14, -4
 2004              		.loc 1 950 0
 2005 0002 0A4C     		ldr	r4, .L157
 2006              		.loc 1 948 0
 2007 0004 0546     		mov	r5, r0
 2008              		.loc 1 950 0
 2009 0006 2046     		mov	r0, r4
 2010              	.LVL242:
 2011 0008 FFF7FEFF 		bl	spiSelect
 2012              	.LVL243:
 2013              		.loc 1 951 0
 2014 000c 4F20     		movs	r0, #79
 2015 000e FFF7FEFF 		bl	halSpiExc
 2016              	.LVL244:
 2017 0012 0646     		mov	r6, r0
 2018              	.LVL245:
 2019              		.loc 1 952 0
 2020 0014 280A     		lsrs	r0, r5, #8
 2021 0016 FFF7FEFF 		bl	halSpiExc
 2022              	.LVL246:
 2023              		.loc 1 953 0
 2024 001a E8B2     		uxtb	r0, r5
 2025 001c FFF7FEFF 		bl	halSpiExc
 2026              	.LVL247:
 2027              		.loc 1 954 0
 2028 0020 2046     		mov	r0, r4
 2029 0022 FFF7FEFF 		bl	spiUnselect
 2030              	.LVL248:
 2031              		.loc 1 956 0
 2032 0026 3046     		mov	r0, r6
 2033 0028 70BD     		pop	{r4, r5, r6, pc}
 2034              	.LVL249:
 2035              	.L158:
 2036 002a 00BF     		.align	2
 2037              	.L157:
 2038 002c 00000000 		.word	SPID2
 2039              		.cfi_endproc
 2040              	.LFE299:
 2041              		.size	CC2520_RXMASKOR, .-CC2520_RXMASKOR
 2042              		.section	.text.CC2520_RXMASKAND,"ax",%progbits
 2043              		.align	2
 2044              		.p2align 4,,15
 2045              		.global	CC2520_RXMASKAND
 2046              		.thumb
 2047              		.thumb_func
 2048              		.type	CC2520_RXMASKAND, %function
 2049              	CC2520_RXMASKAND:
 2050              	.LFB300:
 2051              		.loc 1 969 0
 2052              		.cfi_startproc
ARM GAS  /tmp/cctBdhRt.s 			page 37


 2053              		@ args = 0, pretend = 0, frame = 0
 2054              		@ frame_needed = 0, uses_anonymous_args = 0
 2055              	.LVL250:
 2056 0000 70B5     		push	{r4, r5, r6, lr}
 2057              		.cfi_def_cfa_offset 16
 2058              		.cfi_offset 4, -16
 2059              		.cfi_offset 5, -12
 2060              		.cfi_offset 6, -8
 2061              		.cfi_offset 14, -4
 2062              		.loc 1 971 0
 2063 0002 0A4C     		ldr	r4, .L161
 2064              		.loc 1 969 0
 2065 0004 0546     		mov	r5, r0
 2066              		.loc 1 971 0
 2067 0006 2046     		mov	r0, r4
 2068              	.LVL251:
 2069 0008 FFF7FEFF 		bl	spiSelect
 2070              	.LVL252:
 2071              		.loc 1 972 0
 2072 000c 4E20     		movs	r0, #78
 2073 000e FFF7FEFF 		bl	halSpiExc
 2074              	.LVL253:
 2075 0012 0646     		mov	r6, r0
 2076              	.LVL254:
 2077              		.loc 1 973 0
 2078 0014 280A     		lsrs	r0, r5, #8
 2079 0016 FFF7FEFF 		bl	halSpiExc
 2080              	.LVL255:
 2081              		.loc 1 974 0
 2082 001a E8B2     		uxtb	r0, r5
 2083 001c FFF7FEFF 		bl	halSpiExc
 2084              	.LVL256:
 2085              		.loc 1 975 0
 2086 0020 2046     		mov	r0, r4
 2087 0022 FFF7FEFF 		bl	spiUnselect
 2088              	.LVL257:
 2089              		.loc 1 977 0
 2090 0026 3046     		mov	r0, r6
 2091 0028 70BD     		pop	{r4, r5, r6, pc}
 2092              	.LVL258:
 2093              	.L162:
 2094 002a 00BF     		.align	2
 2095              	.L161:
 2096 002c 00000000 		.word	SPID2
 2097              		.cfi_endproc
 2098              	.LFE300:
 2099              		.size	CC2520_RXMASKAND, .-CC2520_RXMASKAND
 2100              		.section	.text.CC2520_MEMCP,"ax",%progbits
 2101              		.align	2
 2102              		.p2align 4,,15
 2103              		.global	CC2520_MEMCP
 2104              		.thumb
 2105              		.thumb_func
 2106              		.type	CC2520_MEMCP, %function
 2107              	CC2520_MEMCP:
 2108              	.LFB301:
 2109              		.loc 1 993 0
ARM GAS  /tmp/cctBdhRt.s 			page 38


 2110              		.cfi_startproc
 2111              		@ args = 0, pretend = 0, frame = 0
 2112              		@ frame_needed = 0, uses_anonymous_args = 0
 2113              	.LVL259:
 2114 0000 30B5     		push	{r4, r5, lr}
 2115              		.cfi_def_cfa_offset 12
 2116              		.cfi_offset 4, -12
 2117              		.cfi_offset 5, -8
 2118              		.cfi_offset 14, -4
 2119 0002 83B0     		sub	sp, sp, #12
 2120              		.cfi_def_cfa_offset 24
 2121              		.loc 1 993 0
 2122 0004 0D46     		mov	r5, r1
 2123 0006 1446     		mov	r4, r2
 2124              		.loc 1 994 0
 2125 0008 0146     		mov	r1, r0
 2126              	.LVL260:
 2127 000a 0093     		str	r3, [sp]
 2128 000c 2A46     		mov	r2, r5
 2129              	.LVL261:
 2130 000e 2346     		mov	r3, r4
 2131              	.LVL262:
 2132 0010 5020     		movs	r0, #80
 2133              	.LVL263:
 2134 0012 FFF7FEFF 		bl	CC2520_INS_MEMCP_COMMON
 2135              	.LVL264:
 2136              		.loc 1 995 0
 2137 0016 03B0     		add	sp, sp, #12
 2138              		.cfi_def_cfa_offset 12
 2139              		@ sp needed
 2140 0018 30BD     		pop	{r4, r5, pc}
 2141              		.cfi_endproc
 2142              	.LFE301:
 2143              		.size	CC2520_MEMCP, .-CC2520_MEMCP
 2144 001a 00BF     		.section	.text.CC2520_MEMCPR,"ax",%progbits
 2145              		.align	2
 2146              		.p2align 4,,15
 2147              		.global	CC2520_MEMCPR
 2148              		.thumb
 2149              		.thumb_func
 2150              		.type	CC2520_MEMCPR, %function
 2151              	CC2520_MEMCPR:
 2152              	.LFB302:
 2153              		.loc 1 1011 0
 2154              		.cfi_startproc
 2155              		@ args = 0, pretend = 0, frame = 0
 2156              		@ frame_needed = 0, uses_anonymous_args = 0
 2157              	.LVL265:
 2158 0000 30B5     		push	{r4, r5, lr}
 2159              		.cfi_def_cfa_offset 12
 2160              		.cfi_offset 4, -12
 2161              		.cfi_offset 5, -8
 2162              		.cfi_offset 14, -4
 2163 0002 83B0     		sub	sp, sp, #12
 2164              		.cfi_def_cfa_offset 24
 2165              		.loc 1 1011 0
 2166 0004 0D46     		mov	r5, r1
ARM GAS  /tmp/cctBdhRt.s 			page 39


 2167 0006 1446     		mov	r4, r2
 2168              		.loc 1 1012 0
 2169 0008 0146     		mov	r1, r0
 2170              	.LVL266:
 2171 000a 0093     		str	r3, [sp]
 2172 000c 2A46     		mov	r2, r5
 2173              	.LVL267:
 2174 000e 2346     		mov	r3, r4
 2175              	.LVL268:
 2176 0010 5220     		movs	r0, #82
 2177              	.LVL269:
 2178 0012 FFF7FEFF 		bl	CC2520_INS_MEMCP_COMMON
 2179              	.LVL270:
 2180              		.loc 1 1013 0
 2181 0016 03B0     		add	sp, sp, #12
 2182              		.cfi_def_cfa_offset 12
 2183              		@ sp needed
 2184 0018 30BD     		pop	{r4, r5, pc}
 2185              		.cfi_endproc
 2186              	.LFE302:
 2187              		.size	CC2520_MEMCPR, .-CC2520_MEMCPR
 2188 001a 00BF     		.section	.text.CC2520_MEMXCP,"ax",%progbits
 2189              		.align	2
 2190              		.p2align 4,,15
 2191              		.global	CC2520_MEMXCP
 2192              		.thumb
 2193              		.thumb_func
 2194              		.type	CC2520_MEMXCP, %function
 2195              	CC2520_MEMXCP:
 2196              	.LFB303:
 2197              		.loc 1 1029 0
 2198              		.cfi_startproc
 2199              		@ args = 0, pretend = 0, frame = 0
 2200              		@ frame_needed = 0, uses_anonymous_args = 0
 2201              	.LVL271:
 2202 0000 30B5     		push	{r4, r5, lr}
 2203              		.cfi_def_cfa_offset 12
 2204              		.cfi_offset 4, -12
 2205              		.cfi_offset 5, -8
 2206              		.cfi_offset 14, -4
 2207 0002 83B0     		sub	sp, sp, #12
 2208              		.cfi_def_cfa_offset 24
 2209              		.loc 1 1029 0
 2210 0004 0D46     		mov	r5, r1
 2211 0006 1446     		mov	r4, r2
 2212              		.loc 1 1030 0
 2213 0008 0146     		mov	r1, r0
 2214              	.LVL272:
 2215 000a 0093     		str	r3, [sp]
 2216 000c 2A46     		mov	r2, r5
 2217              	.LVL273:
 2218 000e 2346     		mov	r3, r4
 2219              	.LVL274:
 2220 0010 5420     		movs	r0, #84
 2221              	.LVL275:
 2222 0012 FFF7FEFF 		bl	CC2520_INS_MEMCP_COMMON
 2223              	.LVL276:
ARM GAS  /tmp/cctBdhRt.s 			page 40


 2224              		.loc 1 1031 0
 2225 0016 03B0     		add	sp, sp, #12
 2226              		.cfi_def_cfa_offset 12
 2227              		@ sp needed
 2228 0018 30BD     		pop	{r4, r5, pc}
 2229              		.cfi_endproc
 2230              	.LFE303:
 2231              		.size	CC2520_MEMXCP, .-CC2520_MEMXCP
 2232 001a 00BF     		.section	.text.CC2520_MEMXWR,"ax",%progbits
 2233              		.align	2
 2234              		.p2align 4,,15
 2235              		.global	CC2520_MEMXWR
 2236              		.thumb
 2237              		.thumb_func
 2238              		.type	CC2520_MEMXWR, %function
 2239              	CC2520_MEMXWR:
 2240              	.LFB304:
 2241              		.loc 1 1046 0
 2242              		.cfi_startproc
 2243              		@ args = 0, pretend = 0, frame = 0
 2244              		@ frame_needed = 0, uses_anonymous_args = 0
 2245              	.LVL277:
 2246 0000 F8B5     		push	{r3, r4, r5, r6, r7, lr}
 2247              		.cfi_def_cfa_offset 24
 2248              		.cfi_offset 3, -24
 2249              		.cfi_offset 4, -20
 2250              		.cfi_offset 5, -16
 2251              		.cfi_offset 6, -12
 2252              		.cfi_offset 7, -8
 2253              		.cfi_offset 14, -4
 2254              		.loc 1 1046 0
 2255 0002 0446     		mov	r4, r0
 2256              		.loc 1 1048 0
 2257 0004 0C48     		ldr	r0, .L175
 2258              	.LVL278:
 2259              		.loc 1 1046 0
 2260 0006 0D46     		mov	r5, r1
 2261 0008 1746     		mov	r7, r2
 2262              		.loc 1 1048 0
 2263 000a FFF7FEFF 		bl	spiSelect
 2264              	.LVL279:
 2265              		.loc 1 1049 0
 2266 000e 5620     		movs	r0, #86
 2267 0010 FFF7FEFF 		bl	halSpiExc
 2268              	.LVL280:
 2269 0014 0646     		mov	r6, r0
 2270              	.LVL281:
 2271              		.loc 1 1050 0
 2272 0016 200A     		lsrs	r0, r4, #8
 2273 0018 FFF7FEFF 		bl	halSpiExc
 2274              	.LVL282:
 2275              		.loc 1 1051 0
 2276 001c E0B2     		uxtb	r0, r4
 2277 001e FFF7FEFF 		bl	halSpiExc
 2278              	.LVL283:
 2279              		.loc 1 1052 0
 2280 0022 25B1     		cbz	r5, .L170
ARM GAS  /tmp/cctBdhRt.s 			page 41


 2281              		.loc 1 1052 0 is_stmt 0 discriminator 1
 2282 0024 2946     		mov	r1, r5
 2283 0026 3A46     		mov	r2, r7
 2284 0028 0348     		ldr	r0, .L175
 2285 002a FFF7FEFF 		bl	spiSend
 2286              	.LVL284:
 2287              	.L170:
 2288              		.loc 1 1053 0 is_stmt 1
 2289 002e 0248     		ldr	r0, .L175
 2290 0030 FFF7FEFF 		bl	spiUnselect
 2291              	.LVL285:
 2292              		.loc 1 1055 0
 2293 0034 3046     		mov	r0, r6
 2294 0036 F8BD     		pop	{r3, r4, r5, r6, r7, pc}
 2295              	.LVL286:
 2296              	.L176:
 2297              		.align	2
 2298              	.L175:
 2299 0038 00000000 		.word	SPID2
 2300              		.cfi_endproc
 2301              	.LFE304:
 2302              		.size	CC2520_MEMXWR, .-CC2520_MEMXWR
 2303              		.section	.text.CC2520_BSET,"ax",%progbits
 2304              		.align	2
 2305              		.p2align 4,,15
 2306              		.global	CC2520_BSET
 2307              		.thumb
 2308              		.thumb_func
 2309              		.type	CC2520_BSET, %function
 2310              	CC2520_BSET:
 2311              	.LFB305:
 2312              		.loc 1 1068 0
 2313              		.cfi_startproc
 2314              		@ args = 0, pretend = 0, frame = 0
 2315              		@ frame_needed = 0, uses_anonymous_args = 0
 2316              	.LVL287:
 2317 0000 70B5     		push	{r4, r5, r6, lr}
 2318              		.cfi_def_cfa_offset 16
 2319              		.cfi_offset 4, -16
 2320              		.cfi_offset 5, -12
 2321              		.cfi_offset 6, -8
 2322              		.cfi_offset 14, -4
 2323              		.loc 1 1070 0
 2324 0002 084C     		ldr	r4, .L179
 2325              		.loc 1 1068 0
 2326 0004 0646     		mov	r6, r0
 2327              		.loc 1 1070 0
 2328 0006 2046     		mov	r0, r4
 2329              	.LVL288:
 2330 0008 FFF7FEFF 		bl	spiSelect
 2331              	.LVL289:
 2332              		.loc 1 1071 0
 2333 000c 5920     		movs	r0, #89
 2334 000e FFF7FEFF 		bl	halSpiExc
 2335              	.LVL290:
 2336 0012 0546     		mov	r5, r0
 2337              	.LVL291:
ARM GAS  /tmp/cctBdhRt.s 			page 42


 2338              		.loc 1 1072 0
 2339 0014 3046     		mov	r0, r6
 2340 0016 FFF7FEFF 		bl	halSpiExc
 2341              	.LVL292:
 2342              		.loc 1 1073 0
 2343 001a 2046     		mov	r0, r4
 2344 001c FFF7FEFF 		bl	spiUnselect
 2345              	.LVL293:
 2346              		.loc 1 1075 0
 2347 0020 2846     		mov	r0, r5
 2348 0022 70BD     		pop	{r4, r5, r6, pc}
 2349              	.LVL294:
 2350              	.L180:
 2351              		.align	2
 2352              	.L179:
 2353 0024 00000000 		.word	SPID2
 2354              		.cfi_endproc
 2355              	.LFE305:
 2356              		.size	CC2520_BSET, .-CC2520_BSET
 2357              		.section	.text.CC2520_BCLR,"ax",%progbits
 2358              		.align	2
 2359              		.p2align 4,,15
 2360              		.global	CC2520_BCLR
 2361              		.thumb
 2362              		.thumb_func
 2363              		.type	CC2520_BCLR, %function
 2364              	CC2520_BCLR:
 2365              	.LFB306:
 2366              		.loc 1 1088 0
 2367              		.cfi_startproc
 2368              		@ args = 0, pretend = 0, frame = 0
 2369              		@ frame_needed = 0, uses_anonymous_args = 0
 2370              	.LVL295:
 2371 0000 70B5     		push	{r4, r5, r6, lr}
 2372              		.cfi_def_cfa_offset 16
 2373              		.cfi_offset 4, -16
 2374              		.cfi_offset 5, -12
 2375              		.cfi_offset 6, -8
 2376              		.cfi_offset 14, -4
 2377              		.loc 1 1090 0
 2378 0002 084C     		ldr	r4, .L183
 2379              		.loc 1 1088 0
 2380 0004 0646     		mov	r6, r0
 2381              		.loc 1 1090 0
 2382 0006 2046     		mov	r0, r4
 2383              	.LVL296:
 2384 0008 FFF7FEFF 		bl	spiSelect
 2385              	.LVL297:
 2386              		.loc 1 1091 0
 2387 000c 5820     		movs	r0, #88
 2388 000e FFF7FEFF 		bl	halSpiExc
 2389              	.LVL298:
 2390 0012 0546     		mov	r5, r0
 2391              	.LVL299:
 2392              		.loc 1 1092 0
 2393 0014 3046     		mov	r0, r6
 2394 0016 FFF7FEFF 		bl	halSpiExc
ARM GAS  /tmp/cctBdhRt.s 			page 43


 2395              	.LVL300:
 2396              		.loc 1 1093 0
 2397 001a 2046     		mov	r0, r4
 2398 001c FFF7FEFF 		bl	spiUnselect
 2399              	.LVL301:
 2400              		.loc 1 1095 0
 2401 0020 2846     		mov	r0, r5
 2402 0022 70BD     		pop	{r4, r5, r6, pc}
 2403              	.LVL302:
 2404              	.L184:
 2405              		.align	2
 2406              	.L183:
 2407 0024 00000000 		.word	SPID2
 2408              		.cfi_endproc
 2409              	.LFE306:
 2410              		.size	CC2520_BCLR, .-CC2520_BCLR
 2411              		.section	.text.CC2520_CTR,"ax",%progbits
 2412              		.align	2
 2413              		.p2align 4,,15
 2414              		.global	CC2520_CTR
 2415              		.thumb
 2416              		.thumb_func
 2417              		.type	CC2520_CTR, %function
 2418              	CC2520_CTR:
 2419              	.LFB307:
 2420              		.loc 1 1114 0
 2421              		.cfi_startproc
 2422              		@ args = 8, pretend = 0, frame = 0
 2423              		@ frame_needed = 0, uses_anonymous_args = 0
 2424              	.LVL303:
 2425 0000 2DE9F047 		push	{r4, r5, r6, r7, r8, r9, r10, lr}
 2426              		.cfi_def_cfa_offset 32
 2427              		.cfi_offset 4, -32
 2428              		.cfi_offset 5, -28
 2429              		.cfi_offset 6, -24
 2430              		.cfi_offset 7, -20
 2431              		.cfi_offset 8, -16
 2432              		.cfi_offset 9, -12
 2433              		.cfi_offset 10, -8
 2434              		.cfi_offset 14, -4
 2435              		.loc 1 1116 0
 2436 0004 164C     		ldr	r4, .L187
 2437              		.loc 1 1114 0
 2438 0006 BDF82060 		ldrh	r6, [sp, #32]
 2439 000a BDF82450 		ldrh	r5, [sp, #36]
 2440 000e 0746     		mov	r7, r0
 2441              		.loc 1 1116 0
 2442 0010 2046     		mov	r0, r4
 2443              	.LVL304:
 2444              		.loc 1 1114 0
 2445 0012 8A46     		mov	r10, r1
 2446 0014 9146     		mov	r9, r2
 2447 0016 9846     		mov	r8, r3
 2448              		.loc 1 1116 0
 2449 0018 FFF7FEFF 		bl	spiSelect
 2450              	.LVL305:
 2451              		.loc 1 1117 0
ARM GAS  /tmp/cctBdhRt.s 			page 44


 2452 001c 47F06000 		orr	r0, r7, #96
 2453 0020 FFF7FEFF 		bl	halSpiExc
 2454              	.LVL306:
 2455 0024 0746     		mov	r7, r0
 2456              	.LVL307:
 2457              		.loc 1 1118 0
 2458 0026 5046     		mov	r0, r10
 2459 0028 FFF7FEFF 		bl	halSpiExc
 2460              	.LVL308:
 2461              		.loc 1 1119 0
 2462 002c 4846     		mov	r0, r9
 2463 002e FFF7FEFF 		bl	halSpiExc
 2464              	.LVL309:
 2465              		.loc 1 1120 0
 2466 0032 4046     		mov	r0, r8
 2467 0034 FFF7FEFF 		bl	halSpiExc
 2468              	.LVL310:
 2469              		.loc 1 1121 0
 2470 0038 2B0A     		lsrs	r3, r5, #8
 2471 003a 300A     		lsrs	r0, r6, #8
 2472 003c 43EA0010 		orr	r0, r3, r0, lsl #4
 2473 0040 C0B2     		uxtb	r0, r0
 2474 0042 FFF7FEFF 		bl	halSpiExc
 2475              	.LVL311:
 2476              		.loc 1 1122 0
 2477 0046 F0B2     		uxtb	r0, r6
 2478 0048 FFF7FEFF 		bl	halSpiExc
 2479              	.LVL312:
 2480              		.loc 1 1123 0
 2481 004c E8B2     		uxtb	r0, r5
 2482 004e FFF7FEFF 		bl	halSpiExc
 2483              	.LVL313:
 2484              		.loc 1 1124 0
 2485 0052 2046     		mov	r0, r4
 2486 0054 FFF7FEFF 		bl	spiUnselect
 2487              	.LVL314:
 2488              		.loc 1 1126 0
 2489 0058 3846     		mov	r0, r7
 2490 005a BDE8F087 		pop	{r4, r5, r6, r7, r8, r9, r10, pc}
 2491              	.LVL315:
 2492              	.L188:
 2493 005e 00BF     		.align	2
 2494              	.L187:
 2495 0060 00000000 		.word	SPID2
 2496              		.cfi_endproc
 2497              	.LFE307:
 2498              		.size	CC2520_CTR, .-CC2520_CTR
 2499              		.section	.text.CC2520_UCTR,"ax",%progbits
 2500              		.align	2
 2501              		.p2align 4,,15
 2502              		.global	CC2520_UCTR
 2503              		.thumb
 2504              		.thumb_func
 2505              		.type	CC2520_UCTR, %function
 2506              	CC2520_UCTR:
 2507              	.LFB308:
 2508              		.loc 1 1144 0
ARM GAS  /tmp/cctBdhRt.s 			page 45


 2509              		.cfi_startproc
 2510              		@ args = 8, pretend = 0, frame = 0
 2511              		@ frame_needed = 0, uses_anonymous_args = 0
 2512              		@ link register save eliminated.
 2513              	.LVL316:
 2514 0000 30B4     		push	{r4, r5}
 2515              		.cfi_def_cfa_offset 8
 2516              		.cfi_offset 4, -8
 2517              		.cfi_offset 5, -4
 2518              		.loc 1 1144 0
 2519 0002 BDF80850 		ldrh	r5, [sp, #8]
 2520 0006 BDF80C40 		ldrh	r4, [sp, #12]
 2521              		.loc 1 1145 0
 2522 000a 0295     		str	r5, [sp, #8]
 2523              	.LVL317:
 2524 000c 0394     		str	r4, [sp, #12]
 2525              	.LVL318:
 2526              		.loc 1 1146 0
 2527 000e 30BC     		pop	{r4, r5}
 2528              		.cfi_restore 5
 2529              		.cfi_restore 4
 2530              		.cfi_def_cfa_offset 0
 2531              		.loc 1 1145 0
 2532 0010 FFF7FEBF 		b	CC2520_CTR
 2533              	.LVL319:
 2534              		.cfi_endproc
 2535              	.LFE308:
 2536              		.size	CC2520_UCTR, .-CC2520_UCTR
 2537              		.section	.text.CC2520_CBCMAC,"ax",%progbits
 2538              		.align	2
 2539              		.p2align 4,,15
 2540              		.global	CC2520_CBCMAC
 2541              		.thumb
 2542              		.thumb_func
 2543              		.type	CC2520_CBCMAC, %function
 2544              	CC2520_CBCMAC:
 2545              	.LFB309:
 2546              		.loc 1 1165 0
 2547              		.cfi_startproc
 2548              		@ args = 8, pretend = 0, frame = 0
 2549              		@ frame_needed = 0, uses_anonymous_args = 0
 2550              	.LVL320:
 2551 0000 2DE9F047 		push	{r4, r5, r6, r7, r8, r9, r10, lr}
 2552              		.cfi_def_cfa_offset 32
 2553              		.cfi_offset 4, -32
 2554              		.cfi_offset 5, -28
 2555              		.cfi_offset 6, -24
 2556              		.cfi_offset 7, -20
 2557              		.cfi_offset 8, -16
 2558              		.cfi_offset 9, -12
 2559              		.cfi_offset 10, -8
 2560              		.cfi_offset 14, -4
 2561              		.loc 1 1167 0
 2562 0004 164C     		ldr	r4, .L193
 2563              		.loc 1 1165 0
 2564 0006 BDF82050 		ldrh	r5, [sp, #32]
 2565 000a 9DF82480 		ldrb	r8, [sp, #36]	@ zero_extendqisi2
ARM GAS  /tmp/cctBdhRt.s 			page 46


 2566 000e 0746     		mov	r7, r0
 2567              		.loc 1 1167 0
 2568 0010 2046     		mov	r0, r4
 2569              	.LVL321:
 2570              		.loc 1 1165 0
 2571 0012 8A46     		mov	r10, r1
 2572 0014 9146     		mov	r9, r2
 2573 0016 1E46     		mov	r6, r3
 2574              		.loc 1 1167 0
 2575 0018 FFF7FEFF 		bl	spiSelect
 2576              	.LVL322:
 2577              		.loc 1 1168 0
 2578 001c 47F06400 		orr	r0, r7, #100
 2579 0020 FFF7FEFF 		bl	halSpiExc
 2580              	.LVL323:
 2581 0024 0746     		mov	r7, r0
 2582              	.LVL324:
 2583              		.loc 1 1169 0
 2584 0026 5046     		mov	r0, r10
 2585 0028 FFF7FEFF 		bl	halSpiExc
 2586              	.LVL325:
 2587              		.loc 1 1170 0
 2588 002c 4846     		mov	r0, r9
 2589 002e FFF7FEFF 		bl	halSpiExc
 2590              	.LVL326:
 2591              		.loc 1 1171 0
 2592 0032 2B0A     		lsrs	r3, r5, #8
 2593 0034 300A     		lsrs	r0, r6, #8
 2594 0036 43EA0010 		orr	r0, r3, r0, lsl #4
 2595 003a C0B2     		uxtb	r0, r0
 2596 003c FFF7FEFF 		bl	halSpiExc
 2597              	.LVL327:
 2598              		.loc 1 1172 0
 2599 0040 F0B2     		uxtb	r0, r6
 2600 0042 FFF7FEFF 		bl	halSpiExc
 2601              	.LVL328:
 2602              		.loc 1 1173 0
 2603 0046 E8B2     		uxtb	r0, r5
 2604 0048 FFF7FEFF 		bl	halSpiExc
 2605              	.LVL329:
 2606              		.loc 1 1174 0
 2607 004c 4046     		mov	r0, r8
 2608 004e FFF7FEFF 		bl	halSpiExc
 2609              	.LVL330:
 2610              		.loc 1 1175 0
 2611 0052 2046     		mov	r0, r4
 2612 0054 FFF7FEFF 		bl	spiUnselect
 2613              	.LVL331:
 2614              		.loc 1 1177 0
 2615 0058 3846     		mov	r0, r7
 2616 005a BDE8F087 		pop	{r4, r5, r6, r7, r8, r9, r10, pc}
 2617              	.LVL332:
 2618              	.L194:
 2619 005e 00BF     		.align	2
 2620              	.L193:
 2621 0060 00000000 		.word	SPID2
 2622              		.cfi_endproc
ARM GAS  /tmp/cctBdhRt.s 			page 47


 2623              	.LFE309:
 2624              		.size	CC2520_CBCMAC, .-CC2520_CBCMAC
 2625              		.section	.text.CC2520_UCBCMAC,"ax",%progbits
 2626              		.align	2
 2627              		.p2align 4,,15
 2628              		.global	CC2520_UCBCMAC
 2629              		.thumb
 2630              		.thumb_func
 2631              		.type	CC2520_UCBCMAC, %function
 2632              	CC2520_UCBCMAC:
 2633              	.LFB310:
 2634              		.loc 1 1195 0
 2635              		.cfi_startproc
 2636              		@ args = 4, pretend = 0, frame = 0
 2637              		@ frame_needed = 0, uses_anonymous_args = 0
 2638              	.LVL333:
 2639 0000 2DE9F843 		push	{r3, r4, r5, r6, r7, r8, r9, lr}
 2640              		.cfi_def_cfa_offset 32
 2641              		.cfi_offset 3, -32
 2642              		.cfi_offset 4, -28
 2643              		.cfi_offset 5, -24
 2644              		.cfi_offset 6, -20
 2645              		.cfi_offset 7, -16
 2646              		.cfi_offset 8, -12
 2647              		.cfi_offset 9, -8
 2648              		.cfi_offset 14, -4
 2649              		.loc 1 1197 0
 2650 0004 114C     		ldr	r4, .L197
 2651              		.loc 1 1195 0
 2652 0006 9DF82070 		ldrb	r7, [sp, #32]	@ zero_extendqisi2
 2653 000a 0646     		mov	r6, r0
 2654              		.loc 1 1197 0
 2655 000c 2046     		mov	r0, r4
 2656              	.LVL334:
 2657              		.loc 1 1195 0
 2658 000e 1D46     		mov	r5, r3
 2659 0010 8946     		mov	r9, r1
 2660 0012 9046     		mov	r8, r2
 2661              		.loc 1 1197 0
 2662 0014 FFF7FEFF 		bl	spiSelect
 2663              	.LVL335:
 2664              		.loc 1 1198 0
 2665 0018 46F06600 		orr	r0, r6, #102
 2666 001c FFF7FEFF 		bl	halSpiExc
 2667              	.LVL336:
 2668 0020 0646     		mov	r6, r0
 2669              	.LVL337:
 2670              		.loc 1 1199 0
 2671 0022 4846     		mov	r0, r9
 2672 0024 FFF7FEFF 		bl	halSpiExc
 2673              	.LVL338:
 2674              		.loc 1 1200 0
 2675 0028 4046     		mov	r0, r8
 2676 002a FFF7FEFF 		bl	halSpiExc
 2677              	.LVL339:
 2678              		.loc 1 1201 0
 2679 002e 280A     		lsrs	r0, r5, #8
ARM GAS  /tmp/cctBdhRt.s 			page 48


 2680 0030 FFF7FEFF 		bl	halSpiExc
 2681              	.LVL340:
 2682              		.loc 1 1202 0
 2683 0034 E8B2     		uxtb	r0, r5
 2684 0036 FFF7FEFF 		bl	halSpiExc
 2685              	.LVL341:
 2686              		.loc 1 1203 0
 2687 003a 3846     		mov	r0, r7
 2688 003c FFF7FEFF 		bl	halSpiExc
 2689              	.LVL342:
 2690              		.loc 1 1204 0
 2691 0040 2046     		mov	r0, r4
 2692 0042 FFF7FEFF 		bl	spiUnselect
 2693              	.LVL343:
 2694              		.loc 1 1206 0
 2695 0046 3046     		mov	r0, r6
 2696 0048 BDE8F883 		pop	{r3, r4, r5, r6, r7, r8, r9, pc}
 2697              	.LVL344:
 2698              	.L198:
 2699              		.align	2
 2700              	.L197:
 2701 004c 00000000 		.word	SPID2
 2702              		.cfi_endproc
 2703              	.LFE310:
 2704              		.size	CC2520_UCBCMAC, .-CC2520_UCBCMAC
 2705              		.section	.text.CC2520_CCM,"ax",%progbits
 2706              		.align	2
 2707              		.p2align 4,,15
 2708              		.global	CC2520_CCM
 2709              		.thumb
 2710              		.thumb_func
 2711              		.type	CC2520_CCM, %function
 2712              	CC2520_CCM:
 2713              	.LFB311:
 2714              		.loc 1 1228 0
 2715              		.cfi_startproc
 2716              		@ args = 16, pretend = 0, frame = 8
 2717              		@ frame_needed = 0, uses_anonymous_args = 0
 2718              	.LVL345:
 2719 0000 2DE9F04F 		push	{r4, r5, r6, r7, r8, r9, r10, fp, lr}
 2720              		.cfi_def_cfa_offset 36
 2721              		.cfi_offset 4, -36
 2722              		.cfi_offset 5, -32
 2723              		.cfi_offset 6, -28
 2724              		.cfi_offset 7, -24
 2725              		.cfi_offset 8, -20
 2726              		.cfi_offset 9, -16
 2727              		.cfi_offset 10, -12
 2728              		.cfi_offset 11, -8
 2729              		.cfi_offset 14, -4
 2730              		.loc 1 1230 0
 2731 0004 1C4C     		ldr	r4, .L201
 2732              		.loc 1 1228 0
 2733 0006 83B0     		sub	sp, sp, #12
 2734              		.cfi_def_cfa_offset 48
 2735              		.loc 1 1228 0
 2736 0008 0746     		mov	r7, r0
ARM GAS  /tmp/cctBdhRt.s 			page 49


 2737              		.loc 1 1230 0
 2738 000a 2046     		mov	r0, r4
 2739              	.LVL346:
 2740              		.loc 1 1228 0
 2741 000c 9346     		mov	fp, r2
 2742 000e 9A46     		mov	r10, r3
 2743 0010 BDF83060 		ldrh	r6, [sp, #48]
 2744 0014 BDF83450 		ldrh	r5, [sp, #52]
 2745 0018 0191     		str	r1, [sp, #4]
 2746 001a 9DF83890 		ldrb	r9, [sp, #56]	@ zero_extendqisi2
 2747 001e 9DF83C80 		ldrb	r8, [sp, #60]	@ zero_extendqisi2
 2748              		.loc 1 1230 0
 2749 0022 FFF7FEFF 		bl	spiSelect
 2750              	.LVL347:
 2751              		.loc 1 1231 0
 2752 0026 47F06800 		orr	r0, r7, #104
 2753 002a FFF7FEFF 		bl	halSpiExc
 2754              	.LVL348:
 2755              		.loc 1 1232 0
 2756 002e 0199     		ldr	r1, [sp, #4]
 2757              		.loc 1 1231 0
 2758 0030 0746     		mov	r7, r0
 2759              	.LVL349:
 2760              		.loc 1 1232 0
 2761 0032 0846     		mov	r0, r1
 2762 0034 FFF7FEFF 		bl	halSpiExc
 2763              	.LVL350:
 2764              		.loc 1 1233 0
 2765 0038 5846     		mov	r0, fp
 2766 003a FFF7FEFF 		bl	halSpiExc
 2767              	.LVL351:
 2768              		.loc 1 1234 0
 2769 003e 5046     		mov	r0, r10
 2770 0040 FFF7FEFF 		bl	halSpiExc
 2771              	.LVL352:
 2772              		.loc 1 1235 0
 2773 0044 2B0A     		lsrs	r3, r5, #8
 2774 0046 300A     		lsrs	r0, r6, #8
 2775 0048 43EA0010 		orr	r0, r3, r0, lsl #4
 2776 004c C0B2     		uxtb	r0, r0
 2777 004e FFF7FEFF 		bl	halSpiExc
 2778              	.LVL353:
 2779              		.loc 1 1236 0
 2780 0052 F0B2     		uxtb	r0, r6
 2781 0054 FFF7FEFF 		bl	halSpiExc
 2782              	.LVL354:
 2783              		.loc 1 1237 0
 2784 0058 E8B2     		uxtb	r0, r5
 2785 005a FFF7FEFF 		bl	halSpiExc
 2786              	.LVL355:
 2787              		.loc 1 1238 0
 2788 005e 4846     		mov	r0, r9
 2789 0060 FFF7FEFF 		bl	halSpiExc
 2790              	.LVL356:
 2791              		.loc 1 1239 0
 2792 0064 4046     		mov	r0, r8
 2793 0066 FFF7FEFF 		bl	halSpiExc
ARM GAS  /tmp/cctBdhRt.s 			page 50


 2794              	.LVL357:
 2795              		.loc 1 1240 0
 2796 006a 2046     		mov	r0, r4
 2797 006c FFF7FEFF 		bl	spiUnselect
 2798              	.LVL358:
 2799              		.loc 1 1242 0
 2800 0070 3846     		mov	r0, r7
 2801 0072 03B0     		add	sp, sp, #12
 2802              		.cfi_def_cfa_offset 36
 2803              		@ sp needed
 2804 0074 BDE8F08F 		pop	{r4, r5, r6, r7, r8, r9, r10, fp, pc}
 2805              	.LVL359:
 2806              	.L202:
 2807              		.align	2
 2808              	.L201:
 2809 0078 00000000 		.word	SPID2
 2810              		.cfi_endproc
 2811              	.LFE311:
 2812              		.size	CC2520_CCM, .-CC2520_CCM
 2813              		.section	.text.CC2520_UCCM,"ax",%progbits
 2814              		.align	2
 2815              		.p2align 4,,15
 2816              		.global	CC2520_UCCM
 2817              		.thumb
 2818              		.thumb_func
 2819              		.type	CC2520_UCCM, %function
 2820              	CC2520_UCCM:
 2821              	.LFB312:
 2822              		.loc 1 1264 0
 2823              		.cfi_startproc
 2824              		@ args = 16, pretend = 0, frame = 8
 2825              		@ frame_needed = 0, uses_anonymous_args = 0
 2826              	.LVL360:
 2827 0000 2DE9F04F 		push	{r4, r5, r6, r7, r8, r9, r10, fp, lr}
 2828              		.cfi_def_cfa_offset 36
 2829              		.cfi_offset 4, -36
 2830              		.cfi_offset 5, -32
 2831              		.cfi_offset 6, -28
 2832              		.cfi_offset 7, -24
 2833              		.cfi_offset 8, -20
 2834              		.cfi_offset 9, -16
 2835              		.cfi_offset 10, -12
 2836              		.cfi_offset 11, -8
 2837              		.cfi_offset 14, -4
 2838              		.loc 1 1266 0
 2839 0004 1C4C     		ldr	r4, .L205
 2840              		.loc 1 1264 0
 2841 0006 83B0     		sub	sp, sp, #12
 2842              		.cfi_def_cfa_offset 48
 2843              		.loc 1 1264 0
 2844 0008 0746     		mov	r7, r0
 2845              		.loc 1 1266 0
 2846 000a 2046     		mov	r0, r4
 2847              	.LVL361:
 2848              		.loc 1 1264 0
 2849 000c 9346     		mov	fp, r2
 2850 000e 9A46     		mov	r10, r3
ARM GAS  /tmp/cctBdhRt.s 			page 51


 2851 0010 BDF83060 		ldrh	r6, [sp, #48]
 2852 0014 BDF83450 		ldrh	r5, [sp, #52]
 2853 0018 0191     		str	r1, [sp, #4]
 2854 001a 9DF83890 		ldrb	r9, [sp, #56]	@ zero_extendqisi2
 2855 001e 9DF83C80 		ldrb	r8, [sp, #60]	@ zero_extendqisi2
 2856              		.loc 1 1266 0
 2857 0022 FFF7FEFF 		bl	spiSelect
 2858              	.LVL362:
 2859              		.loc 1 1267 0
 2860 0026 47F06A00 		orr	r0, r7, #106
 2861 002a FFF7FEFF 		bl	halSpiExc
 2862              	.LVL363:
 2863              		.loc 1 1268 0
 2864 002e 0199     		ldr	r1, [sp, #4]
 2865              		.loc 1 1267 0
 2866 0030 0746     		mov	r7, r0
 2867              	.LVL364:
 2868              		.loc 1 1268 0
 2869 0032 0846     		mov	r0, r1
 2870 0034 FFF7FEFF 		bl	halSpiExc
 2871              	.LVL365:
 2872              		.loc 1 1269 0
 2873 0038 5846     		mov	r0, fp
 2874 003a FFF7FEFF 		bl	halSpiExc
 2875              	.LVL366:
 2876              		.loc 1 1270 0
 2877 003e 5046     		mov	r0, r10
 2878 0040 FFF7FEFF 		bl	halSpiExc
 2879              	.LVL367:
 2880              		.loc 1 1271 0
 2881 0044 2B0A     		lsrs	r3, r5, #8
 2882 0046 300A     		lsrs	r0, r6, #8
 2883 0048 43EA0010 		orr	r0, r3, r0, lsl #4
 2884 004c C0B2     		uxtb	r0, r0
 2885 004e FFF7FEFF 		bl	halSpiExc
 2886              	.LVL368:
 2887              		.loc 1 1272 0
 2888 0052 F0B2     		uxtb	r0, r6
 2889 0054 FFF7FEFF 		bl	halSpiExc
 2890              	.LVL369:
 2891              		.loc 1 1273 0
 2892 0058 E8B2     		uxtb	r0, r5
 2893 005a FFF7FEFF 		bl	halSpiExc
 2894              	.LVL370:
 2895              		.loc 1 1274 0
 2896 005e 4846     		mov	r0, r9
 2897 0060 FFF7FEFF 		bl	halSpiExc
 2898              	.LVL371:
 2899              		.loc 1 1275 0
 2900 0064 4046     		mov	r0, r8
 2901 0066 FFF7FEFF 		bl	halSpiExc
 2902              	.LVL372:
 2903              		.loc 1 1276 0
 2904 006a 2046     		mov	r0, r4
 2905 006c FFF7FEFF 		bl	spiUnselect
 2906              	.LVL373:
 2907              		.loc 1 1278 0
ARM GAS  /tmp/cctBdhRt.s 			page 52


 2908 0070 3846     		mov	r0, r7
 2909 0072 03B0     		add	sp, sp, #12
 2910              		.cfi_def_cfa_offset 36
 2911              		@ sp needed
 2912 0074 BDE8F08F 		pop	{r4, r5, r6, r7, r8, r9, r10, fp, pc}
 2913              	.LVL374:
 2914              	.L206:
 2915              		.align	2
 2916              	.L205:
 2917 0078 00000000 		.word	SPID2
 2918              		.cfi_endproc
 2919              	.LFE312:
 2920              		.size	CC2520_UCCM, .-CC2520_UCCM
 2921              		.section	.text.CC2520_ECB,"ax",%progbits
 2922              		.align	2
 2923              		.p2align 4,,15
 2924              		.global	CC2520_ECB
 2925              		.thumb
 2926              		.thumb_func
 2927              		.type	CC2520_ECB, %function
 2928              	CC2520_ECB:
 2929              	.LFB313:
 2930              		.loc 1 1295 0
 2931              		.cfi_startproc
 2932              		@ args = 4, pretend = 0, frame = 0
 2933              		@ frame_needed = 0, uses_anonymous_args = 0
 2934              	.LVL375:
 2935 0000 2DE9F843 		push	{r3, r4, r5, r6, r7, r8, r9, lr}
 2936              		.cfi_def_cfa_offset 32
 2937              		.cfi_offset 3, -32
 2938              		.cfi_offset 4, -28
 2939              		.cfi_offset 5, -24
 2940              		.cfi_offset 6, -20
 2941              		.cfi_offset 7, -16
 2942              		.cfi_offset 8, -12
 2943              		.cfi_offset 9, -8
 2944              		.cfi_offset 14, -4
 2945              		.loc 1 1297 0
 2946 0004 134C     		ldr	r4, .L209
 2947              		.loc 1 1295 0
 2948 0006 BDF82050 		ldrh	r5, [sp, #32]
 2949 000a 0746     		mov	r7, r0
 2950              		.loc 1 1297 0
 2951 000c 2046     		mov	r0, r4
 2952              	.LVL376:
 2953              		.loc 1 1295 0
 2954 000e 1E46     		mov	r6, r3
 2955 0010 8946     		mov	r9, r1
 2956 0012 9046     		mov	r8, r2
 2957              		.loc 1 1297 0
 2958 0014 FFF7FEFF 		bl	spiSelect
 2959              	.LVL377:
 2960              		.loc 1 1298 0
 2961 0018 47F07000 		orr	r0, r7, #112
 2962 001c FFF7FEFF 		bl	halSpiExc
 2963              	.LVL378:
 2964 0020 0746     		mov	r7, r0
ARM GAS  /tmp/cctBdhRt.s 			page 53


 2965              	.LVL379:
 2966              		.loc 1 1299 0
 2967 0022 4846     		mov	r0, r9
 2968 0024 FFF7FEFF 		bl	halSpiExc
 2969              	.LVL380:
 2970              		.loc 1 1300 0
 2971 0028 300A     		lsrs	r0, r6, #8
 2972 002a 40EA0810 		orr	r0, r0, r8, lsl #4
 2973 002e C0B2     		uxtb	r0, r0
 2974 0030 FFF7FEFF 		bl	halSpiExc
 2975              	.LVL381:
 2976              		.loc 1 1301 0
 2977 0034 F0B2     		uxtb	r0, r6
 2978 0036 FFF7FEFF 		bl	halSpiExc
 2979              	.LVL382:
 2980              		.loc 1 1302 0
 2981 003a 280A     		lsrs	r0, r5, #8
 2982 003c FFF7FEFF 		bl	halSpiExc
 2983              	.LVL383:
 2984              		.loc 1 1303 0
 2985 0040 E8B2     		uxtb	r0, r5
 2986 0042 FFF7FEFF 		bl	halSpiExc
 2987              	.LVL384:
 2988              		.loc 1 1304 0
 2989 0046 2046     		mov	r0, r4
 2990 0048 FFF7FEFF 		bl	spiUnselect
 2991              	.LVL385:
 2992              		.loc 1 1306 0
 2993 004c 3846     		mov	r0, r7
 2994 004e BDE8F883 		pop	{r3, r4, r5, r6, r7, r8, r9, pc}
 2995              	.LVL386:
 2996              	.L210:
 2997 0052 00BF     		.align	2
 2998              	.L209:
 2999 0054 00000000 		.word	SPID2
 3000              		.cfi_endproc
 3001              	.LFE313:
 3002              		.size	CC2520_ECB, .-CC2520_ECB
 3003              		.section	.text.CC2520_ECBO,"ax",%progbits
 3004              		.align	2
 3005              		.p2align 4,,15
 3006              		.global	CC2520_ECBO
 3007              		.thumb
 3008              		.thumb_func
 3009              		.type	CC2520_ECBO, %function
 3010              	CC2520_ECBO:
 3011              	.LFB314:
 3012              		.loc 1 1322 0
 3013              		.cfi_startproc
 3014              		@ args = 0, pretend = 0, frame = 0
 3015              		@ frame_needed = 0, uses_anonymous_args = 0
 3016              	.LVL387:
 3017 0000 2DE9F041 		push	{r4, r5, r6, r7, r8, lr}
 3018              		.cfi_def_cfa_offset 24
 3019              		.cfi_offset 4, -24
 3020              		.cfi_offset 5, -20
 3021              		.cfi_offset 6, -16
ARM GAS  /tmp/cctBdhRt.s 			page 54


 3022              		.cfi_offset 7, -12
 3023              		.cfi_offset 8, -8
 3024              		.cfi_offset 14, -4
 3025              		.loc 1 1324 0
 3026 0004 0F4C     		ldr	r4, .L213
 3027              		.loc 1 1322 0
 3028 0006 0646     		mov	r6, r0
 3029              		.loc 1 1324 0
 3030 0008 2046     		mov	r0, r4
 3031              	.LVL388:
 3032              		.loc 1 1322 0
 3033 000a 1D46     		mov	r5, r3
 3034 000c 8846     		mov	r8, r1
 3035 000e 1746     		mov	r7, r2
 3036              		.loc 1 1324 0
 3037 0010 FFF7FEFF 		bl	spiSelect
 3038              	.LVL389:
 3039              		.loc 1 1325 0
 3040 0014 46F07200 		orr	r0, r6, #114
 3041 0018 FFF7FEFF 		bl	halSpiExc
 3042              	.LVL390:
 3043 001c 0646     		mov	r6, r0
 3044              	.LVL391:
 3045              		.loc 1 1326 0
 3046 001e 4046     		mov	r0, r8
 3047 0020 FFF7FEFF 		bl	halSpiExc
 3048              	.LVL392:
 3049              		.loc 1 1327 0
 3050 0024 280A     		lsrs	r0, r5, #8
 3051 0026 40EA0710 		orr	r0, r0, r7, lsl #4
 3052 002a C0B2     		uxtb	r0, r0
 3053 002c FFF7FEFF 		bl	halSpiExc
 3054              	.LVL393:
 3055              		.loc 1 1328 0
 3056 0030 E8B2     		uxtb	r0, r5
 3057 0032 FFF7FEFF 		bl	halSpiExc
 3058              	.LVL394:
 3059              		.loc 1 1329 0
 3060 0036 2046     		mov	r0, r4
 3061 0038 FFF7FEFF 		bl	spiUnselect
 3062              	.LVL395:
 3063              		.loc 1 1331 0
 3064 003c 3046     		mov	r0, r6
 3065 003e BDE8F081 		pop	{r4, r5, r6, r7, r8, pc}
 3066              	.LVL396:
 3067              	.L214:
 3068 0042 00BF     		.align	2
 3069              	.L213:
 3070 0044 00000000 		.word	SPID2
 3071              		.cfi_endproc
 3072              	.LFE314:
 3073              		.size	CC2520_ECBO, .-CC2520_ECBO
 3074              		.section	.text.CC2520_ECBX,"ax",%progbits
 3075              		.align	2
 3076              		.p2align 4,,15
 3077              		.global	CC2520_ECBX
 3078              		.thumb
ARM GAS  /tmp/cctBdhRt.s 			page 55


 3079              		.thumb_func
 3080              		.type	CC2520_ECBX, %function
 3081              	CC2520_ECBX:
 3082              	.LFB315:
 3083              		.loc 1 1348 0
 3084              		.cfi_startproc
 3085              		@ args = 4, pretend = 0, frame = 0
 3086              		@ frame_needed = 0, uses_anonymous_args = 0
 3087              	.LVL397:
 3088 0000 2DE9F843 		push	{r3, r4, r5, r6, r7, r8, r9, lr}
 3089              		.cfi_def_cfa_offset 32
 3090              		.cfi_offset 3, -32
 3091              		.cfi_offset 4, -28
 3092              		.cfi_offset 5, -24
 3093              		.cfi_offset 6, -20
 3094              		.cfi_offset 7, -16
 3095              		.cfi_offset 8, -12
 3096              		.cfi_offset 9, -8
 3097              		.cfi_offset 14, -4
 3098              		.loc 1 1350 0
 3099 0004 134C     		ldr	r4, .L217
 3100              		.loc 1 1348 0
 3101 0006 BDF82050 		ldrh	r5, [sp, #32]
 3102 000a 0746     		mov	r7, r0
 3103              		.loc 1 1350 0
 3104 000c 2046     		mov	r0, r4
 3105              	.LVL398:
 3106              		.loc 1 1348 0
 3107 000e 1E46     		mov	r6, r3
 3108 0010 8946     		mov	r9, r1
 3109 0012 9046     		mov	r8, r2
 3110              		.loc 1 1350 0
 3111 0014 FFF7FEFF 		bl	spiSelect
 3112              	.LVL399:
 3113              		.loc 1 1351 0
 3114 0018 47F07400 		orr	r0, r7, #116
 3115 001c FFF7FEFF 		bl	halSpiExc
 3116              	.LVL400:
 3117 0020 0746     		mov	r7, r0
 3118              	.LVL401:
 3119              		.loc 1 1352 0
 3120 0022 4846     		mov	r0, r9
 3121 0024 FFF7FEFF 		bl	halSpiExc
 3122              	.LVL402:
 3123              		.loc 1 1353 0
 3124 0028 300A     		lsrs	r0, r6, #8
 3125 002a 40EA0810 		orr	r0, r0, r8, lsl #4
 3126 002e C0B2     		uxtb	r0, r0
 3127 0030 FFF7FEFF 		bl	halSpiExc
 3128              	.LVL403:
 3129              		.loc 1 1354 0
 3130 0034 F0B2     		uxtb	r0, r6
 3131 0036 FFF7FEFF 		bl	halSpiExc
 3132              	.LVL404:
 3133              		.loc 1 1355 0
 3134 003a 280A     		lsrs	r0, r5, #8
 3135 003c FFF7FEFF 		bl	halSpiExc
ARM GAS  /tmp/cctBdhRt.s 			page 56


 3136              	.LVL405:
 3137              		.loc 1 1356 0
 3138 0040 E8B2     		uxtb	r0, r5
 3139 0042 FFF7FEFF 		bl	halSpiExc
 3140              	.LVL406:
 3141              		.loc 1 1357 0
 3142 0046 2046     		mov	r0, r4
 3143 0048 FFF7FEFF 		bl	spiUnselect
 3144              	.LVL407:
 3145              		.loc 1 1359 0
 3146 004c 3846     		mov	r0, r7
 3147 004e BDE8F883 		pop	{r3, r4, r5, r6, r7, r8, r9, pc}
 3148              	.LVL408:
 3149              	.L218:
 3150 0052 00BF     		.align	2
 3151              	.L217:
 3152 0054 00000000 		.word	SPID2
 3153              		.cfi_endproc
 3154              	.LFE315:
 3155              		.size	CC2520_ECBX, .-CC2520_ECBX
 3156              		.section	.text.CC2520_ECBXO,"ax",%progbits
 3157              		.align	2
 3158              		.p2align 4,,15
 3159              		.global	CC2520_ECBXO
 3160              		.thumb
 3161              		.thumb_func
 3162              		.type	CC2520_ECBXO, %function
 3163              	CC2520_ECBXO:
 3164              	.LFB316:
 3165              		.loc 1 1375 0
 3166              		.cfi_startproc
 3167              		@ args = 0, pretend = 0, frame = 0
 3168              		@ frame_needed = 0, uses_anonymous_args = 0
 3169              	.LVL409:
 3170 0000 2DE9F041 		push	{r4, r5, r6, r7, r8, lr}
 3171              		.cfi_def_cfa_offset 24
 3172              		.cfi_offset 4, -24
 3173              		.cfi_offset 5, -20
 3174              		.cfi_offset 6, -16
 3175              		.cfi_offset 7, -12
 3176              		.cfi_offset 8, -8
 3177              		.cfi_offset 14, -4
 3178              		.loc 1 1377 0
 3179 0004 0F4C     		ldr	r4, .L221
 3180              		.loc 1 1375 0
 3181 0006 0646     		mov	r6, r0
 3182              		.loc 1 1377 0
 3183 0008 2046     		mov	r0, r4
 3184              	.LVL410:
 3185              		.loc 1 1375 0
 3186 000a 1D46     		mov	r5, r3
 3187 000c 8846     		mov	r8, r1
 3188 000e 1746     		mov	r7, r2
 3189              		.loc 1 1377 0
 3190 0010 FFF7FEFF 		bl	spiSelect
 3191              	.LVL411:
 3192              		.loc 1 1378 0
ARM GAS  /tmp/cctBdhRt.s 			page 57


 3193 0014 46F07600 		orr	r0, r6, #118
 3194 0018 FFF7FEFF 		bl	halSpiExc
 3195              	.LVL412:
 3196 001c 0646     		mov	r6, r0
 3197              	.LVL413:
 3198              		.loc 1 1379 0
 3199 001e 4046     		mov	r0, r8
 3200 0020 FFF7FEFF 		bl	halSpiExc
 3201              	.LVL414:
 3202              		.loc 1 1380 0
 3203 0024 280A     		lsrs	r0, r5, #8
 3204 0026 40EA0710 		orr	r0, r0, r7, lsl #4
 3205 002a C0B2     		uxtb	r0, r0
 3206 002c FFF7FEFF 		bl	halSpiExc
 3207              	.LVL415:
 3208              		.loc 1 1381 0
 3209 0030 E8B2     		uxtb	r0, r5
 3210 0032 FFF7FEFF 		bl	halSpiExc
 3211              	.LVL416:
 3212              		.loc 1 1382 0
 3213 0036 2046     		mov	r0, r4
 3214 0038 FFF7FEFF 		bl	spiUnselect
 3215              	.LVL417:
 3216              		.loc 1 1384 0
 3217 003c 3046     		mov	r0, r6
 3218 003e BDE8F081 		pop	{r4, r5, r6, r7, r8, pc}
 3219              	.LVL418:
 3220              	.L222:
 3221 0042 00BF     		.align	2
 3222              	.L221:
 3223 0044 00000000 		.word	SPID2
 3224              		.cfi_endproc
 3225              	.LFE316:
 3226              		.size	CC2520_ECBXO, .-CC2520_ECBXO
 3227              		.section	.text.CC2520_INC,"ax",%progbits
 3228              		.align	2
 3229              		.p2align 4,,15
 3230              		.global	CC2520_INC
 3231              		.thumb
 3232              		.thumb_func
 3233              		.type	CC2520_INC, %function
 3234              	CC2520_INC:
 3235              	.LFB317:
 3236              		.loc 1 1400 0
 3237              		.cfi_startproc
 3238              		@ args = 0, pretend = 0, frame = 0
 3239              		@ frame_needed = 0, uses_anonymous_args = 0
 3240              	.LVL419:
 3241 0000 F8B5     		push	{r3, r4, r5, r6, r7, lr}
 3242              		.cfi_def_cfa_offset 24
 3243              		.cfi_offset 3, -24
 3244              		.cfi_offset 4, -20
 3245              		.cfi_offset 5, -16
 3246              		.cfi_offset 6, -12
 3247              		.cfi_offset 7, -8
 3248              		.cfi_offset 14, -4
 3249              		.loc 1 1402 0
ARM GAS  /tmp/cctBdhRt.s 			page 58


 3250 0002 0D4C     		ldr	r4, .L225
 3251              		.loc 1 1400 0
 3252 0004 0646     		mov	r6, r0
 3253              		.loc 1 1402 0
 3254 0006 2046     		mov	r0, r4
 3255              	.LVL420:
 3256              		.loc 1 1400 0
 3257 0008 1546     		mov	r5, r2
 3258 000a 0F46     		mov	r7, r1
 3259              		.loc 1 1402 0
 3260 000c FFF7FEFF 		bl	spiSelect
 3261              	.LVL421:
 3262              		.loc 1 1403 0
 3263 0010 46F07800 		orr	r0, r6, #120
 3264 0014 FFF7FEFF 		bl	halSpiExc
 3265              	.LVL422:
 3266 0018 0646     		mov	r6, r0
 3267              	.LVL423:
 3268              		.loc 1 1404 0
 3269 001a 280A     		lsrs	r0, r5, #8
 3270 001c 40EA0710 		orr	r0, r0, r7, lsl #4
 3271 0020 C0B2     		uxtb	r0, r0
 3272 0022 FFF7FEFF 		bl	halSpiExc
 3273              	.LVL424:
 3274              		.loc 1 1405 0
 3275 0026 E8B2     		uxtb	r0, r5
 3276 0028 FFF7FEFF 		bl	halSpiExc
 3277              	.LVL425:
 3278              		.loc 1 1406 0
 3279 002c 2046     		mov	r0, r4
 3280 002e FFF7FEFF 		bl	spiUnselect
 3281              	.LVL426:
 3282              		.loc 1 1408 0
 3283 0032 3046     		mov	r0, r6
 3284 0034 F8BD     		pop	{r3, r4, r5, r6, r7, pc}
 3285              	.LVL427:
 3286              	.L226:
 3287 0036 00BF     		.align	2
 3288              	.L225:
 3289 0038 00000000 		.word	SPID2
 3290              		.cfi_endproc
 3291              	.LFE317:
 3292              		.size	CC2520_INC, .-CC2520_INC
 3293              		.section	.text.CC2520_ABORT,"ax",%progbits
 3294              		.align	2
 3295              		.p2align 4,,15
 3296              		.global	CC2520_ABORT
 3297              		.thumb
 3298              		.thumb_func
 3299              		.type	CC2520_ABORT, %function
 3300              	CC2520_ABORT:
 3301              	.LFB318:
 3302              		.loc 1 1421 0
 3303              		.cfi_startproc
 3304              		@ args = 0, pretend = 0, frame = 0
 3305              		@ frame_needed = 0, uses_anonymous_args = 0
 3306              	.LVL428:
ARM GAS  /tmp/cctBdhRt.s 			page 59


 3307 0000 70B5     		push	{r4, r5, r6, lr}
 3308              		.cfi_def_cfa_offset 16
 3309              		.cfi_offset 4, -16
 3310              		.cfi_offset 5, -12
 3311              		.cfi_offset 6, -8
 3312              		.cfi_offset 14, -4
 3313              		.loc 1 1423 0
 3314 0002 084C     		ldr	r4, .L229
 3315              		.loc 1 1421 0
 3316 0004 0646     		mov	r6, r0
 3317              		.loc 1 1423 0
 3318 0006 2046     		mov	r0, r4
 3319              	.LVL429:
 3320 0008 FFF7FEFF 		bl	spiSelect
 3321              	.LVL430:
 3322              		.loc 1 1424 0
 3323 000c 7F20     		movs	r0, #127
 3324 000e FFF7FEFF 		bl	halSpiExc
 3325              	.LVL431:
 3326 0012 0546     		mov	r5, r0
 3327              	.LVL432:
 3328              		.loc 1 1425 0
 3329 0014 3046     		mov	r0, r6
 3330 0016 FFF7FEFF 		bl	halSpiExc
 3331              	.LVL433:
 3332              		.loc 1 1426 0
 3333 001a 2046     		mov	r0, r4
 3334 001c FFF7FEFF 		bl	spiUnselect
 3335              	.LVL434:
 3336              		.loc 1 1428 0
 3337 0020 2846     		mov	r0, r5
 3338 0022 70BD     		pop	{r4, r5, r6, pc}
 3339              	.LVL435:
 3340              	.L230:
 3341              		.align	2
 3342              	.L229:
 3343 0024 00000000 		.word	SPID2
 3344              		.cfi_endproc
 3345              	.LFE318:
 3346              		.size	CC2520_ABORT, .-CC2520_ABORT
 3347              		.section	.text.CC2520_REGRD,"ax",%progbits
 3348              		.align	2
 3349              		.p2align 4,,15
 3350              		.global	CC2520_REGRD
 3351              		.thumb
 3352              		.thumb_func
 3353              		.type	CC2520_REGRD, %function
 3354              	CC2520_REGRD:
 3355              	.LFB319:
 3356              		.loc 1 1443 0
 3357              		.cfi_startproc
 3358              		@ args = 0, pretend = 0, frame = 0
 3359              		@ frame_needed = 0, uses_anonymous_args = 0
 3360              	.LVL436:
 3361 0000 70B5     		push	{r4, r5, r6, lr}
 3362              		.cfi_def_cfa_offset 16
 3363              		.cfi_offset 4, -16
ARM GAS  /tmp/cctBdhRt.s 			page 60


 3364              		.cfi_offset 5, -12
 3365              		.cfi_offset 6, -8
 3366              		.cfi_offset 14, -4
 3367              		.loc 1 1443 0
 3368 0002 0546     		mov	r5, r0
 3369              		.loc 1 1445 0
 3370 0004 0A48     		ldr	r0, .L237
 3371              	.LVL437:
 3372              		.loc 1 1443 0
 3373 0006 0C46     		mov	r4, r1
 3374 0008 1646     		mov	r6, r2
 3375              		.loc 1 1445 0
 3376 000a FFF7FEFF 		bl	spiSelect
 3377              	.LVL438:
 3378              		.loc 1 1446 0
 3379 000e 45F08000 		orr	r0, r5, #128
 3380 0012 FFF7FEFF 		bl	halSpiExc
 3381              	.LVL439:
 3382 0016 0546     		mov	r5, r0
 3383              	.LVL440:
 3384              		.loc 1 1447 0
 3385 0018 24B1     		cbz	r4, .L232
 3386              		.loc 1 1447 0 is_stmt 0 discriminator 1
 3387 001a 2146     		mov	r1, r4
 3388 001c 3246     		mov	r2, r6
 3389 001e 0448     		ldr	r0, .L237
 3390 0020 FFF7FEFF 		bl	spiReceive
 3391              	.LVL441:
 3392              	.L232:
 3393              		.loc 1 1448 0 is_stmt 1
 3394 0024 0248     		ldr	r0, .L237
 3395 0026 FFF7FEFF 		bl	spiUnselect
 3396              	.LVL442:
 3397              		.loc 1 1450 0
 3398 002a 2846     		mov	r0, r5
 3399 002c 70BD     		pop	{r4, r5, r6, pc}
 3400              	.LVL443:
 3401              	.L238:
 3402 002e 00BF     		.align	2
 3403              	.L237:
 3404 0030 00000000 		.word	SPID2
 3405              		.cfi_endproc
 3406              	.LFE319:
 3407              		.size	CC2520_REGRD, .-CC2520_REGRD
 3408              		.section	.text.CC2520_REGRD8,"ax",%progbits
 3409              		.align	2
 3410              		.p2align 4,,15
 3411              		.global	CC2520_REGRD8
 3412              		.thumb
 3413              		.thumb_func
 3414              		.type	CC2520_REGRD8, %function
 3415              	CC2520_REGRD8:
 3416              	.LFB320:
 3417              		.loc 1 1463 0
 3418              		.cfi_startproc
 3419              		@ args = 0, pretend = 0, frame = 0
 3420              		@ frame_needed = 0, uses_anonymous_args = 0
ARM GAS  /tmp/cctBdhRt.s 			page 61


 3421              	.LVL444:
 3422 0000 38B5     		push	{r3, r4, r5, lr}
 3423              		.cfi_def_cfa_offset 16
 3424              		.cfi_offset 3, -16
 3425              		.cfi_offset 4, -12
 3426              		.cfi_offset 5, -8
 3427              		.cfi_offset 14, -4
 3428              		.loc 1 1465 0
 3429 0002 094C     		ldr	r4, .L241
 3430              		.loc 1 1463 0
 3431 0004 0546     		mov	r5, r0
 3432              		.loc 1 1465 0
 3433 0006 2046     		mov	r0, r4
 3434              	.LVL445:
 3435 0008 FFF7FEFF 		bl	spiSelect
 3436              	.LVL446:
 3437              		.loc 1 1466 0
 3438 000c 45F08000 		orr	r0, r5, #128
 3439 0010 FFF7FEFF 		bl	halSpiExc
 3440              	.LVL447:
 3441              		.loc 1 1467 0
 3442 0014 0020     		movs	r0, #0
 3443 0016 FFF7FEFF 		bl	halSpiExc
 3444              	.LVL448:
 3445 001a 0546     		mov	r5, r0
 3446              	.LVL449:
 3447              		.loc 1 1468 0
 3448 001c 2046     		mov	r0, r4
 3449 001e FFF7FEFF 		bl	spiUnselect
 3450              	.LVL450:
 3451              		.loc 1 1470 0
 3452 0022 2846     		mov	r0, r5
 3453 0024 38BD     		pop	{r3, r4, r5, pc}
 3454              	.LVL451:
 3455              	.L242:
 3456 0026 00BF     		.align	2
 3457              	.L241:
 3458 0028 00000000 		.word	SPID2
 3459              		.cfi_endproc
 3460              	.LFE320:
 3461              		.size	CC2520_REGRD8, .-CC2520_REGRD8
 3462              		.section	.text.CC2520_REGRD16,"ax",%progbits
 3463              		.align	2
 3464              		.p2align 4,,15
 3465              		.global	CC2520_REGRD16
 3466              		.thumb
 3467              		.thumb_func
 3468              		.type	CC2520_REGRD16, %function
 3469              	CC2520_REGRD16:
 3470              	.LFB321:
 3471              		.loc 1 1483 0
 3472              		.cfi_startproc
 3473              		@ args = 0, pretend = 0, frame = 0
 3474              		@ frame_needed = 0, uses_anonymous_args = 0
 3475              	.LVL452:
 3476 0000 38B5     		push	{r3, r4, r5, lr}
 3477              		.cfi_def_cfa_offset 16
ARM GAS  /tmp/cctBdhRt.s 			page 62


 3478              		.cfi_offset 3, -16
 3479              		.cfi_offset 4, -12
 3480              		.cfi_offset 5, -8
 3481              		.cfi_offset 14, -4
 3482              		.loc 1 1485 0
 3483 0002 0D4D     		ldr	r5, .L245
 3484              		.loc 1 1483 0
 3485 0004 0446     		mov	r4, r0
 3486              		.loc 1 1485 0
 3487 0006 2846     		mov	r0, r5
 3488              	.LVL453:
 3489 0008 FFF7FEFF 		bl	spiSelect
 3490              	.LVL454:
 3491              		.loc 1 1486 0
 3492 000c 44F08000 		orr	r0, r4, #128
 3493 0010 FFF7FEFF 		bl	halSpiExc
 3494              	.LVL455:
 3495              		.loc 1 1487 0
 3496 0014 0020     		movs	r0, #0
 3497 0016 FFF7FEFF 		bl	halSpiExc
 3498              	.LVL456:
 3499 001a 4FF00004 		mov	r4, #0	@ movhi
 3500              	.LVL457:
 3501 001e 60F30704 		bfi	r4, r0, #0, #8
 3502              	.LVL458:
 3503              		.loc 1 1488 0
 3504 0022 0020     		movs	r0, #0
 3505 0024 FFF7FEFF 		bl	halSpiExc
 3506              	.LVL459:
 3507 0028 60F30F24 		bfi	r4, r0, #8, #8
 3508              		.loc 1 1489 0
 3509 002c 2846     		mov	r0, r5
 3510 002e FFF7FEFF 		bl	spiUnselect
 3511              	.LVL460:
 3512              		.loc 1 1491 0
 3513 0032 A0B2     		uxth	r0, r4
 3514 0034 38BD     		pop	{r3, r4, r5, pc}
 3515              	.LVL461:
 3516              	.L246:
 3517 0036 00BF     		.align	2
 3518              	.L245:
 3519 0038 00000000 		.word	SPID2
 3520              		.cfi_endproc
 3521              	.LFE321:
 3522              		.size	CC2520_REGRD16, .-CC2520_REGRD16
 3523              		.section	.text.CC2520_REGRD24,"ax",%progbits
 3524              		.align	2
 3525              		.p2align 4,,15
 3526              		.global	CC2520_REGRD24
 3527              		.thumb
 3528              		.thumb_func
 3529              		.type	CC2520_REGRD24, %function
 3530              	CC2520_REGRD24:
 3531              	.LFB322:
 3532              		.loc 1 1504 0
 3533              		.cfi_startproc
 3534              		@ args = 0, pretend = 0, frame = 0
ARM GAS  /tmp/cctBdhRt.s 			page 63


 3535              		@ frame_needed = 0, uses_anonymous_args = 0
 3536              	.LVL462:
 3537 0000 38B5     		push	{r3, r4, r5, lr}
 3538              		.cfi_def_cfa_offset 16
 3539              		.cfi_offset 3, -16
 3540              		.cfi_offset 4, -12
 3541              		.cfi_offset 5, -8
 3542              		.cfi_offset 14, -4
 3543              		.loc 1 1506 0
 3544 0002 104D     		ldr	r5, .L249
 3545              		.loc 1 1504 0
 3546 0004 0446     		mov	r4, r0
 3547              		.loc 1 1506 0
 3548 0006 2846     		mov	r0, r5
 3549              	.LVL463:
 3550 0008 FFF7FEFF 		bl	spiSelect
 3551              	.LVL464:
 3552              		.loc 1 1507 0
 3553 000c 44F08000 		orr	r0, r4, #128
 3554 0010 FFF7FEFF 		bl	halSpiExc
 3555              	.LVL465:
 3556              		.loc 1 1508 0
 3557 0014 0020     		movs	r0, #0
 3558 0016 FFF7FEFF 		bl	halSpiExc
 3559              	.LVL466:
 3560 001a 0024     		movs	r4, #0
 3561              	.LVL467:
 3562 001c 60F30704 		bfi	r4, r0, #0, #8
 3563              	.LVL468:
 3564              		.loc 1 1509 0
 3565 0020 0020     		movs	r0, #0
 3566 0022 FFF7FEFF 		bl	halSpiExc
 3567              	.LVL469:
 3568 0026 60F30F24 		bfi	r4, r0, #8, #8
 3569              		.loc 1 1510 0
 3570 002a 0020     		movs	r0, #0
 3571 002c FFF7FEFF 		bl	halSpiExc
 3572              	.LVL470:
 3573 0030 60F31744 		bfi	r4, r0, #16, #8
 3574              		.loc 1 1511 0
 3575 0034 6FF31F64 		bfc	r4, #24, #8
 3576              		.loc 1 1512 0
 3577 0038 2846     		mov	r0, r5
 3578 003a FFF7FEFF 		bl	spiUnselect
 3579              	.LVL471:
 3580              		.loc 1 1514 0
 3581 003e 2046     		mov	r0, r4
 3582 0040 38BD     		pop	{r3, r4, r5, pc}
 3583              	.LVL472:
 3584              	.L250:
 3585 0042 00BF     		.align	2
 3586              	.L249:
 3587 0044 00000000 		.word	SPID2
 3588              		.cfi_endproc
 3589              	.LFE322:
 3590              		.size	CC2520_REGRD24, .-CC2520_REGRD24
 3591              		.section	.text.CC2520_REGWR,"ax",%progbits
ARM GAS  /tmp/cctBdhRt.s 			page 64


 3592              		.align	2
 3593              		.p2align 4,,15
 3594              		.global	CC2520_REGWR
 3595              		.thumb
 3596              		.thumb_func
 3597              		.type	CC2520_REGWR, %function
 3598              	CC2520_REGWR:
 3599              	.LFB323:
 3600              		.loc 1 1529 0
 3601              		.cfi_startproc
 3602              		@ args = 0, pretend = 0, frame = 0
 3603              		@ frame_needed = 0, uses_anonymous_args = 0
 3604              	.LVL473:
 3605 0000 70B5     		push	{r4, r5, r6, lr}
 3606              		.cfi_def_cfa_offset 16
 3607              		.cfi_offset 4, -16
 3608              		.cfi_offset 5, -12
 3609              		.cfi_offset 6, -8
 3610              		.cfi_offset 14, -4
 3611              		.loc 1 1529 0
 3612 0002 0546     		mov	r5, r0
 3613              		.loc 1 1531 0
 3614 0004 0A48     		ldr	r0, .L257
 3615              	.LVL474:
 3616              		.loc 1 1529 0
 3617 0006 0C46     		mov	r4, r1
 3618 0008 1646     		mov	r6, r2
 3619              		.loc 1 1531 0
 3620 000a FFF7FEFF 		bl	spiSelect
 3621              	.LVL475:
 3622              		.loc 1 1532 0
 3623 000e 45F0C000 		orr	r0, r5, #192
 3624 0012 FFF7FEFF 		bl	halSpiExc
 3625              	.LVL476:
 3626 0016 0546     		mov	r5, r0
 3627              	.LVL477:
 3628              		.loc 1 1533 0
 3629 0018 24B1     		cbz	r4, .L252
 3630              		.loc 1 1533 0 is_stmt 0 discriminator 1
 3631 001a 2146     		mov	r1, r4
 3632 001c 3246     		mov	r2, r6
 3633 001e 0448     		ldr	r0, .L257
 3634 0020 FFF7FEFF 		bl	spiSend
 3635              	.LVL478:
 3636              	.L252:
 3637              		.loc 1 1534 0 is_stmt 1
 3638 0024 0248     		ldr	r0, .L257
 3639 0026 FFF7FEFF 		bl	spiUnselect
 3640              	.LVL479:
 3641              		.loc 1 1536 0
 3642 002a 2846     		mov	r0, r5
 3643 002c 70BD     		pop	{r4, r5, r6, pc}
 3644              	.LVL480:
 3645              	.L258:
 3646 002e 00BF     		.align	2
 3647              	.L257:
 3648 0030 00000000 		.word	SPID2
ARM GAS  /tmp/cctBdhRt.s 			page 65


 3649              		.cfi_endproc
 3650              	.LFE323:
 3651              		.size	CC2520_REGWR, .-CC2520_REGWR
 3652              		.section	.text.CC2520_REGWR8,"ax",%progbits
 3653              		.align	2
 3654              		.p2align 4,,15
 3655              		.global	CC2520_REGWR8
 3656              		.thumb
 3657              		.thumb_func
 3658              		.type	CC2520_REGWR8, %function
 3659              	CC2520_REGWR8:
 3660              	.LFB324:
 3661              		.loc 1 1550 0
 3662              		.cfi_startproc
 3663              		@ args = 0, pretend = 0, frame = 0
 3664              		@ frame_needed = 0, uses_anonymous_args = 0
 3665              	.LVL481:
 3666 0000 70B5     		push	{r4, r5, r6, lr}
 3667              		.cfi_def_cfa_offset 16
 3668              		.cfi_offset 4, -16
 3669              		.cfi_offset 5, -12
 3670              		.cfi_offset 6, -8
 3671              		.cfi_offset 14, -4
 3672              		.loc 1 1551 0
 3673 0002 094C     		ldr	r4, .L261
 3674              		.loc 1 1550 0
 3675 0004 0646     		mov	r6, r0
 3676              		.loc 1 1551 0
 3677 0006 2046     		mov	r0, r4
 3678              	.LVL482:
 3679              		.loc 1 1550 0
 3680 0008 0D46     		mov	r5, r1
 3681              		.loc 1 1551 0
 3682 000a FFF7FEFF 		bl	spiSelect
 3683              	.LVL483:
 3684              		.loc 1 1552 0
 3685 000e 46F0C000 		orr	r0, r6, #192
 3686 0012 FFF7FEFF 		bl	halSpiExc
 3687              	.LVL484:
 3688              		.loc 1 1553 0
 3689 0016 2846     		mov	r0, r5
 3690 0018 FFF7FEFF 		bl	halSpiExc
 3691              	.LVL485:
 3692              		.loc 1 1554 0
 3693 001c 2046     		mov	r0, r4
 3694              		.loc 1 1556 0
 3695 001e BDE87040 		pop	{r4, r5, r6, lr}
 3696              		.cfi_restore 14
 3697              		.cfi_restore 6
 3698              		.cfi_restore 5
 3699              		.cfi_restore 4
 3700              		.cfi_def_cfa_offset 0
 3701              		.loc 1 1554 0
 3702 0022 FFF7FEBF 		b	spiUnselect
 3703              	.LVL486:
 3704              	.L262:
 3705 0026 00BF     		.align	2
ARM GAS  /tmp/cctBdhRt.s 			page 66


 3706              	.L261:
 3707 0028 00000000 		.word	SPID2
 3708              		.cfi_endproc
 3709              	.LFE324:
 3710              		.size	CC2520_REGWR8, .-CC2520_REGWR8
 3711              		.section	.text.CC2520_REGWR16,"ax",%progbits
 3712              		.align	2
 3713              		.p2align 4,,15
 3714              		.global	CC2520_REGWR16
 3715              		.thumb
 3716              		.thumb_func
 3717              		.type	CC2520_REGWR16, %function
 3718              	CC2520_REGWR16:
 3719              	.LFB325:
 3720              		.loc 1 1570 0
 3721              		.cfi_startproc
 3722              		@ args = 0, pretend = 0, frame = 0
 3723              		@ frame_needed = 0, uses_anonymous_args = 0
 3724              	.LVL487:
 3725 0000 70B5     		push	{r4, r5, r6, lr}
 3726              		.cfi_def_cfa_offset 16
 3727              		.cfi_offset 4, -16
 3728              		.cfi_offset 5, -12
 3729              		.cfi_offset 6, -8
 3730              		.cfi_offset 14, -4
 3731              		.loc 1 1571 0
 3732 0002 0A4C     		ldr	r4, .L265
 3733              		.loc 1 1570 0
 3734 0004 0646     		mov	r6, r0
 3735              		.loc 1 1571 0
 3736 0006 2046     		mov	r0, r4
 3737              	.LVL488:
 3738              		.loc 1 1570 0
 3739 0008 0D46     		mov	r5, r1
 3740              		.loc 1 1571 0
 3741 000a FFF7FEFF 		bl	spiSelect
 3742              	.LVL489:
 3743              		.loc 1 1572 0
 3744 000e 46F0C000 		orr	r0, r6, #192
 3745 0012 FFF7FEFF 		bl	halSpiExc
 3746              	.LVL490:
 3747              		.loc 1 1573 0
 3748 0016 E8B2     		uxtb	r0, r5
 3749 0018 FFF7FEFF 		bl	halSpiExc
 3750              	.LVL491:
 3751              		.loc 1 1574 0
 3752 001c 280A     		lsrs	r0, r5, #8
 3753 001e FFF7FEFF 		bl	halSpiExc
 3754              	.LVL492:
 3755              		.loc 1 1575 0
 3756 0022 2046     		mov	r0, r4
 3757              		.loc 1 1576 0
 3758 0024 BDE87040 		pop	{r4, r5, r6, lr}
 3759              		.cfi_restore 14
 3760              		.cfi_restore 6
 3761              		.cfi_restore 5
 3762              		.cfi_restore 4
ARM GAS  /tmp/cctBdhRt.s 			page 67


 3763              		.cfi_def_cfa_offset 0
 3764              		.loc 1 1575 0
 3765 0028 FFF7FEBF 		b	spiUnselect
 3766              	.LVL493:
 3767              	.L266:
 3768              		.align	2
 3769              	.L265:
 3770 002c 00000000 		.word	SPID2
 3771              		.cfi_endproc
 3772              	.LFE325:
 3773              		.size	CC2520_REGWR16, .-CC2520_REGWR16
 3774              		.section	.text.CC2520_REGWR24,"ax",%progbits
 3775              		.align	2
 3776              		.p2align 4,,15
 3777              		.global	CC2520_REGWR24
 3778              		.thumb
 3779              		.thumb_func
 3780              		.type	CC2520_REGWR24, %function
 3781              	CC2520_REGWR24:
 3782              	.LFB326:
 3783              		.loc 1 1590 0
 3784              		.cfi_startproc
 3785              		@ args = 0, pretend = 0, frame = 0
 3786              		@ frame_needed = 0, uses_anonymous_args = 0
 3787              	.LVL494:
 3788 0000 70B5     		push	{r4, r5, r6, lr}
 3789              		.cfi_def_cfa_offset 16
 3790              		.cfi_offset 4, -16
 3791              		.cfi_offset 5, -12
 3792              		.cfi_offset 6, -8
 3793              		.cfi_offset 14, -4
 3794              		.loc 1 1591 0
 3795 0002 0D4D     		ldr	r5, .L269
 3796              		.loc 1 1590 0
 3797 0004 0646     		mov	r6, r0
 3798              		.loc 1 1591 0
 3799 0006 2846     		mov	r0, r5
 3800              	.LVL495:
 3801              		.loc 1 1590 0
 3802 0008 0C46     		mov	r4, r1
 3803              		.loc 1 1591 0
 3804 000a FFF7FEFF 		bl	spiSelect
 3805              	.LVL496:
 3806              		.loc 1 1592 0
 3807 000e 46F0C000 		orr	r0, r6, #192
 3808 0012 FFF7FEFF 		bl	halSpiExc
 3809              	.LVL497:
 3810              		.loc 1 1593 0
 3811 0016 E0B2     		uxtb	r0, r4
 3812 0018 FFF7FEFF 		bl	halSpiExc
 3813              	.LVL498:
 3814              		.loc 1 1594 0
 3815 001c C4F30720 		ubfx	r0, r4, #8, #8
 3816 0020 FFF7FEFF 		bl	halSpiExc
 3817              	.LVL499:
 3818              		.loc 1 1595 0
 3819 0024 C4F30740 		ubfx	r0, r4, #16, #8
ARM GAS  /tmp/cctBdhRt.s 			page 68


 3820 0028 FFF7FEFF 		bl	halSpiExc
 3821              	.LVL500:
 3822              		.loc 1 1596 0
 3823 002c 2846     		mov	r0, r5
 3824              		.loc 1 1597 0
 3825 002e BDE87040 		pop	{r4, r5, r6, lr}
 3826              		.cfi_restore 14
 3827              		.cfi_restore 6
 3828              		.cfi_restore 5
 3829              		.cfi_restore 4
 3830              		.cfi_def_cfa_offset 0
 3831              	.LVL501:
 3832              		.loc 1 1596 0
 3833 0032 FFF7FEBF 		b	spiUnselect
 3834              	.LVL502:
 3835              	.L270:
 3836 0036 00BF     		.align	2
 3837              	.L269:
 3838 0038 00000000 		.word	SPID2
 3839              		.cfi_endproc
 3840              	.LFE326:
 3841              		.size	CC2520_REGWR24, .-CC2520_REGWR24
 3842              		.text
 3843              	.Letext0:
 3844              		.file 2 "/usr/arm-none-eabi/include/machine/_default_types.h"
 3845              		.file 3 "/usr/arm-none-eabi/include/sys/_stdint.h"
 3846              		.file 4 "/usr/lib/gcc/arm-none-eabi/4.9.3/include/stddef.h"
 3847              		.file 5 "ChibiOS_3.0.2/os/rt/ports/ARMCMx/compilers/GCC/chtypes.h"
 3848              		.file 6 "ChibiOS_3.0.2/os/rt/include/chsystypes.h"
 3849              		.file 7 "ChibiOS_3.0.2/os/rt/include/chschd.h"
 3850              		.file 8 "ChibiOS_3.0.2/os/ext/CMSIS/ST/stm32f407xx.h"
 3851              		.file 9 "ChibiOS_3.0.2/os/rt/ports/ARMCMx/chcore.h"
 3852              		.file 10 "ChibiOS_3.0.2/os/rt/ports/ARMCMx/chcore_v7m.h"
 3853              		.file 11 "ChibiOS_3.0.2/os/rt/include/chtm.h"
 3854              		.file 12 "ChibiOS_3.0.2/os/rt/include/chsem.h"
 3855              		.file 13 "ChibiOS_3.0.2/os/rt/include/chmtx.h"
 3856              		.file 14 "ChibiOS_3.0.2/os/hal/ports/STM32/STM32F4xx/stm32_dma.h"
 3857              		.file 15 "ChibiOS_3.0.2/os/hal/ports/STM32/LLD/GPIOv2/pal_lld.h"
 3858              		.file 16 "ChibiOS_3.0.2/os/hal/include/spi.h"
 3859              		.file 17 "ChibiOS_3.0.2/os/hal/ports/STM32/LLD/SPIv1/spi_lld.h"
 3860              		.file 18 "cc2520/driver/hal_types.h"
 3861              		.file 19 "ChibiOS_3.0.2/os/ext/CMSIS/include/core_cm4.h"
 3862              		.file 20 "cc2520/driver/stm32_hw.h"
 3863              		.section	.debug_info,"",%progbits
 3864              	.Ldebug_info0:
 3865 0000 6D340000 		.4byte	0x346d
 3866 0004 0400     		.2byte	0x4
 3867 0006 00000000 		.4byte	.Ldebug_abbrev0
 3868 000a 04       		.byte	0x4
 3869 000b 01       		.uleb128 0x1
 3870 000c 3E020000 		.4byte	.LASF250
 3871 0010 01       		.byte	0x1
 3872 0011 73080000 		.4byte	.LASF251
 3873 0015 510B0000 		.4byte	.LASF252
 3874 0019 00000000 		.4byte	.Ldebug_ranges0+0
 3875 001d 00000000 		.4byte	0
 3876 0021 00000000 		.4byte	.Ldebug_line0
ARM GAS  /tmp/cctBdhRt.s 			page 69


 3877 0025 02       		.uleb128 0x2
 3878 0026 01       		.byte	0x1
 3879 0027 06       		.byte	0x6
 3880 0028 62030000 		.4byte	.LASF0
 3881 002c 03       		.uleb128 0x3
 3882 002d 7D010000 		.4byte	.LASF3
 3883 0031 02       		.byte	0x2
 3884 0032 1D       		.byte	0x1d
 3885 0033 37000000 		.4byte	0x37
 3886 0037 02       		.uleb128 0x2
 3887 0038 01       		.byte	0x1
 3888 0039 08       		.byte	0x8
 3889 003a B9030000 		.4byte	.LASF1
 3890 003e 02       		.uleb128 0x2
 3891 003f 02       		.byte	0x2
 3892 0040 05       		.byte	0x5
 3893 0041 290A0000 		.4byte	.LASF2
 3894 0045 03       		.uleb128 0x3
 3895 0046 4F040000 		.4byte	.LASF4
 3896 004a 02       		.byte	0x2
 3897 004b 2B       		.byte	0x2b
 3898 004c 50000000 		.4byte	0x50
 3899 0050 02       		.uleb128 0x2
 3900 0051 02       		.byte	0x2
 3901 0052 07       		.byte	0x7
 3902 0053 2E0B0000 		.4byte	.LASF5
 3903 0057 03       		.uleb128 0x3
 3904 0058 A90B0000 		.4byte	.LASF6
 3905 005c 02       		.byte	0x2
 3906 005d 3F       		.byte	0x3f
 3907 005e 62000000 		.4byte	0x62
 3908 0062 02       		.uleb128 0x2
 3909 0063 04       		.byte	0x4
 3910 0064 05       		.byte	0x5
 3911 0065 B4010000 		.4byte	.LASF7
 3912 0069 03       		.uleb128 0x3
 3913 006a 25060000 		.4byte	.LASF8
 3914 006e 02       		.byte	0x2
 3915 006f 41       		.byte	0x41
 3916 0070 74000000 		.4byte	0x74
 3917 0074 02       		.uleb128 0x2
 3918 0075 04       		.byte	0x4
 3919 0076 07       		.byte	0x7
 3920 0077 52050000 		.4byte	.LASF9
 3921 007b 02       		.uleb128 0x2
 3922 007c 08       		.byte	0x8
 3923 007d 05       		.byte	0x5
 3924 007e 3A060000 		.4byte	.LASF10
 3925 0082 03       		.uleb128 0x3
 3926 0083 47050000 		.4byte	.LASF11
 3927 0087 02       		.byte	0x2
 3928 0088 5B       		.byte	0x5b
 3929 0089 8D000000 		.4byte	0x8d
 3930 008d 02       		.uleb128 0x2
 3931 008e 08       		.byte	0x8
 3932 008f 07       		.byte	0x7
 3933 0090 38080000 		.4byte	.LASF12
ARM GAS  /tmp/cctBdhRt.s 			page 70


 3934 0094 04       		.uleb128 0x4
 3935 0095 04       		.byte	0x4
 3936 0096 05       		.byte	0x5
 3937 0097 696E7400 		.ascii	"int\000"
 3938 009b 02       		.uleb128 0x2
 3939 009c 04       		.byte	0x4
 3940 009d 07       		.byte	0x7
 3941 009e EE060000 		.4byte	.LASF13
 3942 00a2 03       		.uleb128 0x3
 3943 00a3 78030000 		.4byte	.LASF14
 3944 00a7 03       		.byte	0x3
 3945 00a8 14       		.byte	0x14
 3946 00a9 2C000000 		.4byte	0x2c
 3947 00ad 03       		.uleb128 0x3
 3948 00ae 6A080000 		.4byte	.LASF15
 3949 00b2 03       		.byte	0x3
 3950 00b3 1A       		.byte	0x1a
 3951 00b4 45000000 		.4byte	0x45
 3952 00b8 03       		.uleb128 0x3
 3953 00b9 66000000 		.4byte	.LASF16
 3954 00bd 03       		.byte	0x3
 3955 00be 1F       		.byte	0x1f
 3956 00bf 57000000 		.4byte	0x57
 3957 00c3 03       		.uleb128 0x3
 3958 00c4 E00A0000 		.4byte	.LASF17
 3959 00c8 03       		.byte	0x3
 3960 00c9 20       		.byte	0x20
 3961 00ca 69000000 		.4byte	0x69
 3962 00ce 03       		.uleb128 0x3
 3963 00cf 330A0000 		.4byte	.LASF18
 3964 00d3 03       		.byte	0x3
 3965 00d4 26       		.byte	0x26
 3966 00d5 82000000 		.4byte	0x82
 3967 00d9 03       		.uleb128 0x3
 3968 00da 18000000 		.4byte	.LASF19
 3969 00de 04       		.byte	0x4
 3970 00df D4       		.byte	0xd4
 3971 00e0 9B000000 		.4byte	0x9b
 3972 00e4 05       		.uleb128 0x5
 3973 00e5 B8000000 		.4byte	0xb8
 3974 00e9 05       		.uleb128 0x5
 3975 00ea C3000000 		.4byte	0xc3
 3976 00ee 03       		.uleb128 0x3
 3977 00ef 1E070000 		.4byte	.LASF20
 3978 00f3 05       		.byte	0x5
 3979 00f4 45       		.byte	0x45
 3980 00f5 C3000000 		.4byte	0xc3
 3981 00f9 03       		.uleb128 0x3
 3982 00fa 8D090000 		.4byte	.LASF21
 3983 00fe 05       		.byte	0x5
 3984 00ff 48       		.byte	0x48
 3985 0100 A2000000 		.4byte	0xa2
 3986 0104 03       		.uleb128 0x3
 3987 0105 E1010000 		.4byte	.LASF22
 3988 0109 05       		.byte	0x5
 3989 010a 49       		.byte	0x49
 3990 010b A2000000 		.4byte	0xa2
ARM GAS  /tmp/cctBdhRt.s 			page 71


 3991 010f 03       		.uleb128 0x3
 3992 0110 B30A0000 		.4byte	.LASF23
 3993 0114 05       		.byte	0x5
 3994 0115 4A       		.byte	0x4a
 3995 0116 A2000000 		.4byte	0xa2
 3996 011a 03       		.uleb128 0x3
 3997 011b A5080000 		.4byte	.LASF24
 3998 011f 05       		.byte	0x5
 3999 0120 4B       		.byte	0x4b
 4000 0121 A2000000 		.4byte	0xa2
 4001 0125 03       		.uleb128 0x3
 4002 0126 3F000000 		.4byte	.LASF25
 4003 012a 05       		.byte	0x5
 4004 012b 4C       		.byte	0x4c
 4005 012c C3000000 		.4byte	0xc3
 4006 0130 03       		.uleb128 0x3
 4007 0131 8E080000 		.4byte	.LASF26
 4008 0135 05       		.byte	0x5
 4009 0136 4D       		.byte	0x4d
 4010 0137 B8000000 		.4byte	0xb8
 4011 013b 03       		.uleb128 0x3
 4012 013c 8F030000 		.4byte	.LASF27
 4013 0140 05       		.byte	0x5
 4014 0141 4F       		.byte	0x4f
 4015 0142 C3000000 		.4byte	0xc3
 4016 0146 03       		.uleb128 0x3
 4017 0147 8E040000 		.4byte	.LASF28
 4018 014b 05       		.byte	0x5
 4019 014c 51       		.byte	0x51
 4020 014d B8000000 		.4byte	0xb8
 4021 0151 03       		.uleb128 0x3
 4022 0152 2F000000 		.4byte	.LASF29
 4023 0156 06       		.byte	0x6
 4024 0157 33       		.byte	0x33
 4025 0158 C3000000 		.4byte	0xc3
 4026 015c 03       		.uleb128 0x3
 4027 015d B2070000 		.4byte	.LASF30
 4028 0161 06       		.byte	0x6
 4029 0162 3F       		.byte	0x3f
 4030 0163 67010000 		.4byte	0x167
 4031 0167 06       		.uleb128 0x6
 4032 0168 8F050000 		.4byte	.LASF52
 4033 016c 48       		.byte	0x48
 4034 016d 07       		.byte	0x7
 4035 016e C2       		.byte	0xc2
 4036 016f 6C020000 		.4byte	0x26c
 4037 0173 07       		.uleb128 0x7
 4038 0174 C8010000 		.4byte	.LASF31
 4039 0178 07       		.byte	0x7
 4040 0179 C3       		.byte	0xc3
 4041 017a 77020000 		.4byte	0x277
 4042 017e 00       		.byte	0
 4043 017f 07       		.uleb128 0x7
 4044 0180 CF010000 		.4byte	.LASF32
 4045 0184 07       		.byte	0x7
 4046 0185 C5       		.byte	0xc5
 4047 0186 77020000 		.4byte	0x277
ARM GAS  /tmp/cctBdhRt.s 			page 72


 4048 018a 04       		.byte	0x4
 4049 018b 07       		.uleb128 0x7
 4050 018c 32040000 		.4byte	.LASF33
 4051 0190 07       		.byte	0x7
 4052 0191 C7       		.byte	0xc7
 4053 0192 25010000 		.4byte	0x125
 4054 0196 08       		.byte	0x8
 4055 0197 07       		.uleb128 0x7
 4056 0198 39000000 		.4byte	.LASF34
 4057 019c 07       		.byte	0x7
 4058 019d C8       		.byte	0xc8
 4059 019e 93050000 		.4byte	0x593
 4060 01a2 0C       		.byte	0xc
 4061 01a3 07       		.uleb128 0x7
 4062 01a4 A3010000 		.4byte	.LASF35
 4063 01a8 07       		.byte	0x7
 4064 01a9 CA       		.byte	0xca
 4065 01aa 77020000 		.4byte	0x277
 4066 01ae 10       		.byte	0x10
 4067 01af 07       		.uleb128 0x7
 4068 01b0 62080000 		.4byte	.LASF36
 4069 01b4 07       		.byte	0x7
 4070 01b5 CB       		.byte	0xcb
 4071 01b6 77020000 		.4byte	0x277
 4072 01ba 14       		.byte	0x14
 4073 01bb 07       		.uleb128 0x7
 4074 01bc C90B0000 		.4byte	.LASF37
 4075 01c0 07       		.byte	0x7
 4076 01c1 D2       		.byte	0xd2
 4077 01c2 D8070000 		.4byte	0x7d8
 4078 01c6 18       		.byte	0x18
 4079 01c7 07       		.uleb128 0x7
 4080 01c8 0D0C0000 		.4byte	.LASF38
 4081 01cc 07       		.byte	0x7
 4082 01cd DD       		.byte	0xdd
 4083 01ce 04010000 		.4byte	0x104
 4084 01d2 1C       		.byte	0x1c
 4085 01d3 07       		.uleb128 0x7
 4086 01d4 C8060000 		.4byte	.LASF39
 4087 01d8 07       		.byte	0x7
 4088 01d9 E1       		.byte	0xe1
 4089 01da F9000000 		.4byte	0xf9
 4090 01de 1D       		.byte	0x1d
 4091 01df 07       		.uleb128 0x7
 4092 01e0 2E070000 		.4byte	.LASF40
 4093 01e4 07       		.byte	0x7
 4094 01e5 E6       		.byte	0xe6
 4095 01e6 0F010000 		.4byte	0x10f
 4096 01ea 1E       		.byte	0x1e
 4097 01eb 07       		.uleb128 0x7
 4098 01ec 6E030000 		.4byte	.LASF41
 4099 01f0 07       		.byte	0x7
 4100 01f1 EC       		.byte	0xec
 4101 01f2 1A010000 		.4byte	0x11a
 4102 01f6 1F       		.byte	0x1f
 4103 01f7 07       		.uleb128 0x7
 4104 01f8 99070000 		.4byte	.LASF42
ARM GAS  /tmp/cctBdhRt.s 			page 73


 4105 01fc 07       		.byte	0x7
 4106 01fd F3       		.byte	0xf3
 4107 01fe EA070000 		.4byte	0x7ea
 4108 0202 20       		.byte	0x20
 4109 0203 08       		.uleb128 0x8
 4110 0204 705F7500 		.ascii	"p_u\000"
 4111 0208 07       		.byte	0x7
 4112 0209 3101     		.2byte	0x131
 4113 020b 13070000 		.4byte	0x713
 4114 020f 24       		.byte	0x24
 4115 0210 09       		.uleb128 0x9
 4116 0211 AD060000 		.4byte	.LASF43
 4117 0215 07       		.byte	0x7
 4118 0216 3601     		.2byte	0x136
 4119 0218 7D020000 		.4byte	0x27d
 4120 021c 28       		.byte	0x28
 4121 021d 09       		.uleb128 0x9
 4122 021e 4F000000 		.4byte	.LASF44
 4123 0222 07       		.byte	0x7
 4124 0223 3C01     		.2byte	0x13c
 4125 0225 A1020000 		.4byte	0x2a1
 4126 0229 2C       		.byte	0x2c
 4127 022a 09       		.uleb128 0x9
 4128 022b FA0B0000 		.4byte	.LASF45
 4129 022f 07       		.byte	0x7
 4130 0230 4001     		.2byte	0x140
 4131 0232 30010000 		.4byte	0x130
 4132 0236 34       		.byte	0x34
 4133 0237 09       		.uleb128 0x9
 4134 0238 AF040000 		.4byte	.LASF46
 4135 023c 07       		.byte	0x7
 4136 023d 4601     		.2byte	0x146
 4137 023f 3B010000 		.4byte	0x13b
 4138 0243 38       		.byte	0x38
 4139 0244 09       		.uleb128 0x9
 4140 0245 0F020000 		.4byte	.LASF47
 4141 0249 07       		.byte	0x7
 4142 024a 4D01     		.2byte	0x14d
 4143 024c D2070000 		.4byte	0x7d2
 4144 0250 3C       		.byte	0x3c
 4145 0251 09       		.uleb128 0x9
 4146 0252 DA070000 		.4byte	.LASF48
 4147 0256 07       		.byte	0x7
 4148 0257 5101     		.2byte	0x151
 4149 0259 25010000 		.4byte	0x125
 4150 025d 40       		.byte	0x40
 4151 025e 09       		.uleb128 0x9
 4152 025f 26070000 		.4byte	.LASF49
 4153 0263 07       		.byte	0x7
 4154 0264 5801     		.2byte	0x158
 4155 0266 54030000 		.4byte	0x354
 4156 026a 44       		.byte	0x44
 4157 026b 00       		.byte	0
 4158 026c 03       		.uleb128 0x3
 4159 026d BB070000 		.4byte	.LASF50
 4160 0271 06       		.byte	0x6
 4161 0272 44       		.byte	0x44
ARM GAS  /tmp/cctBdhRt.s 			page 74


 4162 0273 77020000 		.4byte	0x277
 4163 0277 0A       		.uleb128 0xa
 4164 0278 04       		.byte	0x4
 4165 0279 5C010000 		.4byte	0x15c
 4166 027d 03       		.uleb128 0x3
 4167 027e BB0A0000 		.4byte	.LASF51
 4168 0282 06       		.byte	0x6
 4169 0283 49       		.byte	0x49
 4170 0284 88020000 		.4byte	0x288
 4171 0288 06       		.uleb128 0x6
 4172 0289 FA050000 		.4byte	.LASF53
 4173 028d 04       		.byte	0x4
 4174 028e 07       		.byte	0x7
 4175 028f B0       		.byte	0xb0
 4176 0290 A1020000 		.4byte	0x2a1
 4177 0294 07       		.uleb128 0x7
 4178 0295 C8010000 		.4byte	.LASF31
 4179 0299 07       		.byte	0x7
 4180 029a B1       		.byte	0xb1
 4181 029b 77020000 		.4byte	0x277
 4182 029f 00       		.byte	0
 4183 02a0 00       		.byte	0
 4184 02a1 03       		.uleb128 0x3
 4185 02a2 FF010000 		.4byte	.LASF54
 4186 02a6 06       		.byte	0x6
 4187 02a7 50       		.byte	0x50
 4188 02a8 AC020000 		.4byte	0x2ac
 4189 02ac 06       		.uleb128 0x6
 4190 02ad 94080000 		.4byte	.LASF55
 4191 02b1 08       		.byte	0x8
 4192 02b2 07       		.byte	0x7
 4193 02b3 B7       		.byte	0xb7
 4194 02b4 D1020000 		.4byte	0x2d1
 4195 02b8 07       		.uleb128 0x7
 4196 02b9 C8010000 		.4byte	.LASF31
 4197 02bd 07       		.byte	0x7
 4198 02be B8       		.byte	0xb8
 4199 02bf 77020000 		.4byte	0x277
 4200 02c3 00       		.byte	0
 4201 02c4 07       		.uleb128 0x7
 4202 02c5 CF010000 		.4byte	.LASF32
 4203 02c9 07       		.byte	0x7
 4204 02ca B9       		.byte	0xb9
 4205 02cb 77020000 		.4byte	0x277
 4206 02cf 04       		.byte	0x4
 4207 02d0 00       		.byte	0
 4208 02d1 03       		.uleb128 0x3
 4209 02d2 CB050000 		.4byte	.LASF56
 4210 02d6 06       		.byte	0x6
 4211 02d7 57       		.byte	0x57
 4212 02d8 DC020000 		.4byte	0x2dc
 4213 02dc 0B       		.uleb128 0xb
 4214 02dd D3040000 		.4byte	.LASF57
 4215 02e1 1C       		.byte	0x1c
 4216 02e2 07       		.byte	0x7
 4217 02e3 9001     		.2byte	0x190
 4218 02e5 38030000 		.4byte	0x338
ARM GAS  /tmp/cctBdhRt.s 			page 75


 4219 02e9 09       		.uleb128 0x9
 4220 02ea 1A090000 		.4byte	.LASF58
 4221 02ee 07       		.byte	0x7
 4222 02ef 9101     		.2byte	0x191
 4223 02f1 A1020000 		.4byte	0x2a1
 4224 02f5 00       		.byte	0
 4225 02f6 09       		.uleb128 0x9
 4226 02f7 5E0A0000 		.4byte	.LASF59
 4227 02fb 07       		.byte	0x7
 4228 02fc 9201     		.2byte	0x192
 4229 02fe 25010000 		.4byte	0x125
 4230 0302 08       		.byte	0x8
 4231 0303 09       		.uleb128 0x9
 4232 0304 5A000000 		.4byte	.LASF60
 4233 0308 07       		.byte	0x7
 4234 0309 9401     		.2byte	0x194
 4235 030b 93050000 		.4byte	0x593
 4236 030f 0C       		.byte	0xc
 4237 0310 09       		.uleb128 0x9
 4238 0311 FB030000 		.4byte	.LASF61
 4239 0315 07       		.byte	0x7
 4240 0316 9701     		.2byte	0x197
 4241 0318 77020000 		.4byte	0x277
 4242 031c 10       		.byte	0x10
 4243 031d 09       		.uleb128 0x9
 4244 031e C5090000 		.4byte	.LASF62
 4245 0322 07       		.byte	0x7
 4246 0323 9801     		.2byte	0x198
 4247 0325 77020000 		.4byte	0x277
 4248 0329 14       		.byte	0x14
 4249 032a 09       		.uleb128 0x9
 4250 032b AF080000 		.4byte	.LASF63
 4251 032f 07       		.byte	0x7
 4252 0330 9B01     		.2byte	0x19b
 4253 0332 77020000 		.4byte	0x277
 4254 0336 18       		.byte	0x18
 4255 0337 00       		.byte	0
 4256 0338 03       		.uleb128 0x3
 4257 0339 6E000000 		.4byte	.LASF64
 4258 033d 06       		.byte	0x6
 4259 033e 5C       		.byte	0x5c
 4260 033f 43030000 		.4byte	0x343
 4261 0343 0A       		.uleb128 0xa
 4262 0344 04       		.byte	0x4
 4263 0345 49030000 		.4byte	0x349
 4264 0349 0C       		.uleb128 0xc
 4265 034a 54030000 		.4byte	0x354
 4266 034e 0D       		.uleb128 0xd
 4267 034f 54030000 		.4byte	0x354
 4268 0353 00       		.byte	0
 4269 0354 0E       		.uleb128 0xe
 4270 0355 04       		.byte	0x4
 4271 0356 03       		.uleb128 0x3
 4272 0357 BB050000 		.4byte	.LASF65
 4273 035b 06       		.byte	0x6
 4274 035c 61       		.byte	0x61
 4275 035d 61030000 		.4byte	0x361
ARM GAS  /tmp/cctBdhRt.s 			page 76


 4276 0361 0B       		.uleb128 0xb
 4277 0362 0A080000 		.4byte	.LASF66
 4278 0366 14       		.byte	0x14
 4279 0367 07       		.byte	0x7
 4280 0368 6B01     		.2byte	0x16b
 4281 036a B0030000 		.4byte	0x3b0
 4282 036e 09       		.uleb128 0x9
 4283 036f 6B060000 		.4byte	.LASF67
 4284 0373 07       		.byte	0x7
 4285 0374 6C01     		.2byte	0x16c
 4286 0376 EF070000 		.4byte	0x7ef
 4287 037a 00       		.byte	0
 4288 037b 09       		.uleb128 0x9
 4289 037c 73060000 		.4byte	.LASF68
 4290 0380 07       		.byte	0x7
 4291 0381 6D01     		.2byte	0x16d
 4292 0383 EF070000 		.4byte	0x7ef
 4293 0387 04       		.byte	0x4
 4294 0388 09       		.uleb128 0x9
 4295 0389 01080000 		.4byte	.LASF69
 4296 038d 07       		.byte	0x7
 4297 038e 6E01     		.2byte	0x16e
 4298 0390 51010000 		.4byte	0x151
 4299 0394 08       		.byte	0x8
 4300 0395 09       		.uleb128 0x9
 4301 0396 94040000 		.4byte	.LASF70
 4302 039a 07       		.byte	0x7
 4303 039b 6F01     		.2byte	0x16f
 4304 039d 38030000 		.4byte	0x338
 4305 03a1 0C       		.byte	0xc
 4306 03a2 09       		.uleb128 0x9
 4307 03a3 5E010000 		.4byte	.LASF71
 4308 03a7 07       		.byte	0x7
 4309 03a8 7101     		.2byte	0x171
 4310 03aa 54030000 		.4byte	0x354
 4311 03ae 10       		.byte	0x10
 4312 03af 00       		.byte	0
 4313 03b0 03       		.uleb128 0x3
 4314 03b1 99050000 		.4byte	.LASF72
 4315 03b5 06       		.byte	0x6
 4316 03b6 66       		.byte	0x66
 4317 03b7 BB030000 		.4byte	0x3bb
 4318 03bb 0B       		.uleb128 0xb
 4319 03bc 77000000 		.4byte	.LASF73
 4320 03c0 10       		.byte	0x10
 4321 03c1 07       		.byte	0x7
 4322 03c2 7B01     		.2byte	0x17b
 4323 03c4 FD030000 		.4byte	0x3fd
 4324 03c8 09       		.uleb128 0x9
 4325 03c9 6B060000 		.4byte	.LASF67
 4326 03cd 07       		.byte	0x7
 4327 03ce 7C01     		.2byte	0x17c
 4328 03d0 EF070000 		.4byte	0x7ef
 4329 03d4 00       		.byte	0
 4330 03d5 09       		.uleb128 0x9
 4331 03d6 73060000 		.4byte	.LASF68
 4332 03da 07       		.byte	0x7
ARM GAS  /tmp/cctBdhRt.s 			page 77


 4333 03db 7E01     		.2byte	0x17e
 4334 03dd EF070000 		.4byte	0x7ef
 4335 03e1 04       		.byte	0x4
 4336 03e2 09       		.uleb128 0x9
 4337 03e3 01080000 		.4byte	.LASF69
 4338 03e7 07       		.byte	0x7
 4339 03e8 8001     		.2byte	0x180
 4340 03ea 51010000 		.4byte	0x151
 4341 03ee 08       		.byte	0x8
 4342 03ef 09       		.uleb128 0x9
 4343 03f0 BA090000 		.4byte	.LASF74
 4344 03f4 07       		.byte	0x7
 4345 03f5 8201     		.2byte	0x182
 4346 03f7 EA070000 		.4byte	0x7ea
 4347 03fb 0C       		.byte	0xc
 4348 03fc 00       		.byte	0
 4349 03fd 03       		.uleb128 0x3
 4350 03fe 03040000 		.4byte	.LASF75
 4351 0402 06       		.byte	0x6
 4352 0403 6B       		.byte	0x6b
 4353 0404 08040000 		.4byte	0x408
 4354 0408 0B       		.uleb128 0xb
 4355 0409 650A0000 		.4byte	.LASF76
 4356 040d 04       		.byte	0x4
 4357 040e 07       		.byte	0x7
 4358 040f A201     		.2byte	0x1a2
 4359 0411 23040000 		.4byte	0x423
 4360 0415 09       		.uleb128 0x9
 4361 0416 E2030000 		.4byte	.LASF77
 4362 041a 07       		.byte	0x7
 4363 041b AA01     		.2byte	0x1aa
 4364 041d F5070000 		.4byte	0x7f5
 4365 0421 00       		.byte	0
 4366 0422 00       		.byte	0
 4367 0423 03       		.uleb128 0x3
 4368 0424 8B0B0000 		.4byte	.LASF78
 4369 0428 06       		.byte	0x6
 4370 0429 70       		.byte	0x70
 4371 042a 2E040000 		.4byte	0x42e
 4372 042e 0F       		.uleb128 0xf
 4373 042f CA0A0000 		.4byte	.LASF79
 4374 0433 5802     		.2byte	0x258
 4375 0435 07       		.byte	0x7
 4376 0436 C201     		.2byte	0x1c2
 4377 0438 8A040000 		.4byte	0x48a
 4378 043c 09       		.uleb128 0x9
 4379 043d 87090000 		.4byte	.LASF80
 4380 0441 07       		.byte	0x7
 4381 0442 C601     		.2byte	0x1c6
 4382 0444 D1020000 		.4byte	0x2d1
 4383 0448 00       		.byte	0
 4384 0449 09       		.uleb128 0x9
 4385 044a A40A0000 		.4byte	.LASF81
 4386 044e 07       		.byte	0x7
 4387 044f CA01     		.2byte	0x1ca
 4388 0451 B0030000 		.4byte	0x3b0
 4389 0455 1C       		.byte	0x1c
ARM GAS  /tmp/cctBdhRt.s 			page 78


 4390 0456 08       		.uleb128 0x8
 4391 0457 64626700 		.ascii	"dbg\000"
 4392 045b 07       		.byte	0x7
 4393 045c CE01     		.2byte	0x1ce
 4394 045e FD030000 		.4byte	0x3fd
 4395 0462 2C       		.byte	0x2c
 4396 0463 09       		.uleb128 0x9
 4397 0464 F0080000 		.4byte	.LASF82
 4398 0468 07       		.byte	0x7
 4399 0469 D201     		.2byte	0x1d2
 4400 046b 5C010000 		.4byte	0x15c
 4401 046f 30       		.byte	0x30
 4402 0470 08       		.uleb128 0x8
 4403 0471 746D00   		.ascii	"tm\000"
 4404 0474 07       		.byte	0x7
 4405 0475 D701     		.2byte	0x1d7
 4406 0477 08070000 		.4byte	0x708
 4407 047b 78       		.byte	0x78
 4408 047c 09       		.uleb128 0x9
 4409 047d DF060000 		.4byte	.LASF83
 4410 0481 07       		.byte	0x7
 4411 0482 E301     		.2byte	0x1e3
 4412 0484 FA070000 		.4byte	0x7fa
 4413 0488 80       		.byte	0x80
 4414 0489 00       		.byte	0
 4415 048a 02       		.uleb128 0x2
 4416 048b 04       		.byte	0x4
 4417 048c 07       		.byte	0x7
 4418 048d 1F000000 		.4byte	.LASF84
 4419 0491 10       		.uleb128 0x10
 4420 0492 18       		.byte	0x18
 4421 0493 08       		.byte	0x8
 4422 0494 6B01     		.2byte	0x16b
 4423 0496 E8040000 		.4byte	0x4e8
 4424 049a 08       		.uleb128 0x8
 4425 049b 435200   		.ascii	"CR\000"
 4426 049e 08       		.byte	0x8
 4427 049f 6D01     		.2byte	0x16d
 4428 04a1 E9000000 		.4byte	0xe9
 4429 04a5 00       		.byte	0
 4430 04a6 09       		.uleb128 0x9
 4431 04a7 B30B0000 		.4byte	.LASF85
 4432 04ab 08       		.byte	0x8
 4433 04ac 6E01     		.2byte	0x16e
 4434 04ae E9000000 		.4byte	0xe9
 4435 04b2 04       		.byte	0x4
 4436 04b3 08       		.uleb128 0x8
 4437 04b4 50415200 		.ascii	"PAR\000"
 4438 04b8 08       		.byte	0x8
 4439 04b9 6F01     		.2byte	0x16f
 4440 04bb E9000000 		.4byte	0xe9
 4441 04bf 08       		.byte	0x8
 4442 04c0 09       		.uleb128 0x9
 4443 04c1 E5090000 		.4byte	.LASF86
 4444 04c5 08       		.byte	0x8
 4445 04c6 7001     		.2byte	0x170
 4446 04c8 E9000000 		.4byte	0xe9
ARM GAS  /tmp/cctBdhRt.s 			page 79


 4447 04cc 0C       		.byte	0xc
 4448 04cd 09       		.uleb128 0x9
 4449 04ce 00000000 		.4byte	.LASF87
 4450 04d2 08       		.byte	0x8
 4451 04d3 7101     		.2byte	0x171
 4452 04d5 E9000000 		.4byte	0xe9
 4453 04d9 10       		.byte	0x10
 4454 04da 08       		.uleb128 0x8
 4455 04db 46435200 		.ascii	"FCR\000"
 4456 04df 08       		.byte	0x8
 4457 04e0 7201     		.2byte	0x172
 4458 04e2 E9000000 		.4byte	0xe9
 4459 04e6 14       		.byte	0x14
 4460 04e7 00       		.byte	0
 4461 04e8 11       		.uleb128 0x11
 4462 04e9 79070000 		.4byte	.LASF88
 4463 04ed 08       		.byte	0x8
 4464 04ee 7301     		.2byte	0x173
 4465 04f0 91040000 		.4byte	0x491
 4466 04f4 10       		.uleb128 0x10
 4467 04f5 24       		.byte	0x24
 4468 04f6 08       		.byte	0x8
 4469 04f7 DB02     		.2byte	0x2db
 4470 04f9 71050000 		.4byte	0x571
 4471 04fd 08       		.uleb128 0x8
 4472 04fe 43523100 		.ascii	"CR1\000"
 4473 0502 08       		.byte	0x8
 4474 0503 DD02     		.2byte	0x2dd
 4475 0505 E9000000 		.4byte	0xe9
 4476 0509 00       		.byte	0
 4477 050a 08       		.uleb128 0x8
 4478 050b 43523200 		.ascii	"CR2\000"
 4479 050f 08       		.byte	0x8
 4480 0510 DE02     		.2byte	0x2de
 4481 0512 E9000000 		.4byte	0xe9
 4482 0516 04       		.byte	0x4
 4483 0517 08       		.uleb128 0x8
 4484 0518 535200   		.ascii	"SR\000"
 4485 051b 08       		.byte	0x8
 4486 051c DF02     		.2byte	0x2df
 4487 051e E9000000 		.4byte	0xe9
 4488 0522 08       		.byte	0x8
 4489 0523 08       		.uleb128 0x8
 4490 0524 445200   		.ascii	"DR\000"
 4491 0527 08       		.byte	0x8
 4492 0528 E002     		.2byte	0x2e0
 4493 052a E9000000 		.4byte	0xe9
 4494 052e 0C       		.byte	0xc
 4495 052f 09       		.uleb128 0x9
 4496 0530 95090000 		.4byte	.LASF89
 4497 0534 08       		.byte	0x8
 4498 0535 E102     		.2byte	0x2e1
 4499 0537 E9000000 		.4byte	0xe9
 4500 053b 10       		.byte	0x10
 4501 053c 09       		.uleb128 0x9
 4502 053d 9C060000 		.4byte	.LASF90
 4503 0541 08       		.byte	0x8
ARM GAS  /tmp/cctBdhRt.s 			page 80


 4504 0542 E202     		.2byte	0x2e2
 4505 0544 E9000000 		.4byte	0xe9
 4506 0548 14       		.byte	0x14
 4507 0549 09       		.uleb128 0x9
 4508 054a 74090000 		.4byte	.LASF91
 4509 054e 08       		.byte	0x8
 4510 054f E302     		.2byte	0x2e3
 4511 0551 E9000000 		.4byte	0xe9
 4512 0555 18       		.byte	0x18
 4513 0556 09       		.uleb128 0x9
 4514 0557 75010000 		.4byte	.LASF92
 4515 055b 08       		.byte	0x8
 4516 055c E402     		.2byte	0x2e4
 4517 055e E9000000 		.4byte	0xe9
 4518 0562 1C       		.byte	0x1c
 4519 0563 09       		.uleb128 0x9
 4520 0564 FB0A0000 		.4byte	.LASF93
 4521 0568 08       		.byte	0x8
 4522 0569 E502     		.2byte	0x2e5
 4523 056b E9000000 		.4byte	0xe9
 4524 056f 20       		.byte	0x20
 4525 0570 00       		.byte	0
 4526 0571 11       		.uleb128 0x11
 4527 0572 7B090000 		.4byte	.LASF94
 4528 0576 08       		.byte	0x8
 4529 0577 E602     		.2byte	0x2e6
 4530 0579 F4040000 		.4byte	0x4f4
 4531 057d 03       		.uleb128 0x3
 4532 057e 27020000 		.4byte	.LASF95
 4533 0582 09       		.byte	0x9
 4534 0583 65       		.byte	0x65
 4535 0584 54030000 		.4byte	0x354
 4536 0588 03       		.uleb128 0x3
 4537 0589 7C040000 		.4byte	.LASF96
 4538 058d 09       		.byte	0x9
 4539 058e 6D       		.byte	0x6d
 4540 058f CE000000 		.4byte	0xce
 4541 0593 06       		.uleb128 0x6
 4542 0594 9B030000 		.4byte	.LASF97
 4543 0598 04       		.byte	0x4
 4544 0599 09       		.byte	0x9
 4545 059a 89       		.byte	0x89
 4546 059b AC050000 		.4byte	0x5ac
 4547 059f 12       		.uleb128 0x12
 4548 05a0 72313300 		.ascii	"r13\000"
 4549 05a4 09       		.byte	0x9
 4550 05a5 8A       		.byte	0x8a
 4551 05a6 ED060000 		.4byte	0x6ed
 4552 05aa 00       		.byte	0
 4553 05ab 00       		.byte	0
 4554 05ac 06       		.uleb128 0x6
 4555 05ad E5070000 		.4byte	.LASF98
 4556 05b1 64       		.byte	0x64
 4557 05b2 0A       		.byte	0xa
 4558 05b3 F4       		.byte	0xf4
 4559 05b4 ED060000 		.4byte	0x6ed
 4560 05b8 12       		.uleb128 0x12
ARM GAS  /tmp/cctBdhRt.s 			page 81


 4561 05b9 73313600 		.ascii	"s16\000"
 4562 05bd 0A       		.byte	0xa
 4563 05be F6       		.byte	0xf6
 4564 05bf 7D050000 		.4byte	0x57d
 4565 05c3 00       		.byte	0
 4566 05c4 12       		.uleb128 0x12
 4567 05c5 73313700 		.ascii	"s17\000"
 4568 05c9 0A       		.byte	0xa
 4569 05ca F7       		.byte	0xf7
 4570 05cb 7D050000 		.4byte	0x57d
 4571 05cf 04       		.byte	0x4
 4572 05d0 12       		.uleb128 0x12
 4573 05d1 73313800 		.ascii	"s18\000"
 4574 05d5 0A       		.byte	0xa
 4575 05d6 F8       		.byte	0xf8
 4576 05d7 7D050000 		.4byte	0x57d
 4577 05db 08       		.byte	0x8
 4578 05dc 12       		.uleb128 0x12
 4579 05dd 73313900 		.ascii	"s19\000"
 4580 05e1 0A       		.byte	0xa
 4581 05e2 F9       		.byte	0xf9
 4582 05e3 7D050000 		.4byte	0x57d
 4583 05e7 0C       		.byte	0xc
 4584 05e8 12       		.uleb128 0x12
 4585 05e9 73323000 		.ascii	"s20\000"
 4586 05ed 0A       		.byte	0xa
 4587 05ee FA       		.byte	0xfa
 4588 05ef 7D050000 		.4byte	0x57d
 4589 05f3 10       		.byte	0x10
 4590 05f4 12       		.uleb128 0x12
 4591 05f5 73323100 		.ascii	"s21\000"
 4592 05f9 0A       		.byte	0xa
 4593 05fa FB       		.byte	0xfb
 4594 05fb 7D050000 		.4byte	0x57d
 4595 05ff 14       		.byte	0x14
 4596 0600 12       		.uleb128 0x12
 4597 0601 73323200 		.ascii	"s22\000"
 4598 0605 0A       		.byte	0xa
 4599 0606 FC       		.byte	0xfc
 4600 0607 7D050000 		.4byte	0x57d
 4601 060b 18       		.byte	0x18
 4602 060c 12       		.uleb128 0x12
 4603 060d 73323300 		.ascii	"s23\000"
 4604 0611 0A       		.byte	0xa
 4605 0612 FD       		.byte	0xfd
 4606 0613 7D050000 		.4byte	0x57d
 4607 0617 1C       		.byte	0x1c
 4608 0618 12       		.uleb128 0x12
 4609 0619 73323400 		.ascii	"s24\000"
 4610 061d 0A       		.byte	0xa
 4611 061e FE       		.byte	0xfe
 4612 061f 7D050000 		.4byte	0x57d
 4613 0623 20       		.byte	0x20
 4614 0624 12       		.uleb128 0x12
 4615 0625 73323500 		.ascii	"s25\000"
 4616 0629 0A       		.byte	0xa
 4617 062a FF       		.byte	0xff
ARM GAS  /tmp/cctBdhRt.s 			page 82


 4618 062b 7D050000 		.4byte	0x57d
 4619 062f 24       		.byte	0x24
 4620 0630 08       		.uleb128 0x8
 4621 0631 73323600 		.ascii	"s26\000"
 4622 0635 0A       		.byte	0xa
 4623 0636 0001     		.2byte	0x100
 4624 0638 7D050000 		.4byte	0x57d
 4625 063c 28       		.byte	0x28
 4626 063d 08       		.uleb128 0x8
 4627 063e 73323700 		.ascii	"s27\000"
 4628 0642 0A       		.byte	0xa
 4629 0643 0101     		.2byte	0x101
 4630 0645 7D050000 		.4byte	0x57d
 4631 0649 2C       		.byte	0x2c
 4632 064a 08       		.uleb128 0x8
 4633 064b 73323800 		.ascii	"s28\000"
 4634 064f 0A       		.byte	0xa
 4635 0650 0201     		.2byte	0x102
 4636 0652 7D050000 		.4byte	0x57d
 4637 0656 30       		.byte	0x30
 4638 0657 08       		.uleb128 0x8
 4639 0658 73323900 		.ascii	"s29\000"
 4640 065c 0A       		.byte	0xa
 4641 065d 0301     		.2byte	0x103
 4642 065f 7D050000 		.4byte	0x57d
 4643 0663 34       		.byte	0x34
 4644 0664 08       		.uleb128 0x8
 4645 0665 73333000 		.ascii	"s30\000"
 4646 0669 0A       		.byte	0xa
 4647 066a 0401     		.2byte	0x104
 4648 066c 7D050000 		.4byte	0x57d
 4649 0670 38       		.byte	0x38
 4650 0671 08       		.uleb128 0x8
 4651 0672 73333100 		.ascii	"s31\000"
 4652 0676 0A       		.byte	0xa
 4653 0677 0501     		.2byte	0x105
 4654 0679 7D050000 		.4byte	0x57d
 4655 067d 3C       		.byte	0x3c
 4656 067e 08       		.uleb128 0x8
 4657 067f 723400   		.ascii	"r4\000"
 4658 0682 0A       		.byte	0xa
 4659 0683 0701     		.2byte	0x107
 4660 0685 7D050000 		.4byte	0x57d
 4661 0689 40       		.byte	0x40
 4662 068a 08       		.uleb128 0x8
 4663 068b 723500   		.ascii	"r5\000"
 4664 068e 0A       		.byte	0xa
 4665 068f 0801     		.2byte	0x108
 4666 0691 7D050000 		.4byte	0x57d
 4667 0695 44       		.byte	0x44
 4668 0696 08       		.uleb128 0x8
 4669 0697 723600   		.ascii	"r6\000"
 4670 069a 0A       		.byte	0xa
 4671 069b 0901     		.2byte	0x109
 4672 069d 7D050000 		.4byte	0x57d
 4673 06a1 48       		.byte	0x48
 4674 06a2 08       		.uleb128 0x8
ARM GAS  /tmp/cctBdhRt.s 			page 83


 4675 06a3 723700   		.ascii	"r7\000"
 4676 06a6 0A       		.byte	0xa
 4677 06a7 0A01     		.2byte	0x10a
 4678 06a9 7D050000 		.4byte	0x57d
 4679 06ad 4C       		.byte	0x4c
 4680 06ae 08       		.uleb128 0x8
 4681 06af 723800   		.ascii	"r8\000"
 4682 06b2 0A       		.byte	0xa
 4683 06b3 0B01     		.2byte	0x10b
 4684 06b5 7D050000 		.4byte	0x57d
 4685 06b9 50       		.byte	0x50
 4686 06ba 08       		.uleb128 0x8
 4687 06bb 723900   		.ascii	"r9\000"
 4688 06be 0A       		.byte	0xa
 4689 06bf 0C01     		.2byte	0x10c
 4690 06c1 7D050000 		.4byte	0x57d
 4691 06c5 54       		.byte	0x54
 4692 06c6 08       		.uleb128 0x8
 4693 06c7 72313000 		.ascii	"r10\000"
 4694 06cb 0A       		.byte	0xa
 4695 06cc 0D01     		.2byte	0x10d
 4696 06ce 7D050000 		.4byte	0x57d
 4697 06d2 58       		.byte	0x58
 4698 06d3 08       		.uleb128 0x8
 4699 06d4 72313100 		.ascii	"r11\000"
 4700 06d8 0A       		.byte	0xa
 4701 06d9 0E01     		.2byte	0x10e
 4702 06db 7D050000 		.4byte	0x57d
 4703 06df 5C       		.byte	0x5c
 4704 06e0 08       		.uleb128 0x8
 4705 06e1 6C7200   		.ascii	"lr\000"
 4706 06e4 0A       		.byte	0xa
 4707 06e5 0F01     		.2byte	0x10f
 4708 06e7 7D050000 		.4byte	0x57d
 4709 06eb 60       		.byte	0x60
 4710 06ec 00       		.byte	0
 4711 06ed 0A       		.uleb128 0xa
 4712 06ee 04       		.byte	0x4
 4713 06ef AC050000 		.4byte	0x5ac
 4714 06f3 13       		.uleb128 0x13
 4715 06f4 04       		.byte	0x4
 4716 06f5 0B       		.byte	0xb
 4717 06f6 38       		.byte	0x38
 4718 06f7 08070000 		.4byte	0x708
 4719 06fb 07       		.uleb128 0x7
 4720 06fc 72070000 		.4byte	.LASF99
 4721 0700 0B       		.byte	0xb
 4722 0701 3C       		.byte	0x3c
 4723 0702 EE000000 		.4byte	0xee
 4724 0706 00       		.byte	0
 4725 0707 00       		.byte	0
 4726 0708 03       		.uleb128 0x3
 4727 0709 CD090000 		.4byte	.LASF100
 4728 070d 0B       		.byte	0xb
 4729 070e 3D       		.byte	0x3d
 4730 070f F3060000 		.4byte	0x6f3
 4731 0713 14       		.uleb128 0x14
ARM GAS  /tmp/cctBdhRt.s 			page 84


 4732 0714 04       		.byte	0x4
 4733 0715 07       		.byte	0x7
 4734 0716 FA       		.byte	0xfa
 4735 0717 70070000 		.4byte	0x770
 4736 071b 15       		.uleb128 0x15
 4737 071c 1C0B0000 		.4byte	.LASF101
 4738 0720 07       		.byte	0x7
 4739 0721 0101     		.2byte	0x101
 4740 0723 30010000 		.4byte	0x130
 4741 0727 15       		.uleb128 0x15
 4742 0728 6C010000 		.4byte	.LASF102
 4743 072c 07       		.byte	0x7
 4744 072d 0801     		.2byte	0x108
 4745 072f 30010000 		.4byte	0x130
 4746 0733 15       		.uleb128 0x15
 4747 0734 67040000 		.4byte	.LASF103
 4748 0738 07       		.byte	0x7
 4749 0739 0F01     		.2byte	0x10f
 4750 073b 54030000 		.4byte	0x354
 4751 073f 15       		.uleb128 0x15
 4752 0740 B3030000 		.4byte	.LASF104
 4753 0744 07       		.byte	0x7
 4754 0745 1601     		.2byte	0x116
 4755 0747 70070000 		.4byte	0x770
 4756 074b 15       		.uleb128 0x15
 4757 074c 28000000 		.4byte	.LASF105
 4758 0750 07       		.byte	0x7
 4759 0751 1E01     		.2byte	0x11e
 4760 0753 9B070000 		.4byte	0x79b
 4761 0757 15       		.uleb128 0x15
 4762 0758 C5040000 		.4byte	.LASF106
 4763 075c 07       		.byte	0x7
 4764 075d 2701     		.2byte	0x127
 4765 075f D2070000 		.4byte	0x7d2
 4766 0763 15       		.uleb128 0x15
 4767 0764 87010000 		.4byte	.LASF107
 4768 0768 07       		.byte	0x7
 4769 0769 2F01     		.2byte	0x12f
 4770 076b 3B010000 		.4byte	0x13b
 4771 076f 00       		.byte	0
 4772 0770 0A       		.uleb128 0xa
 4773 0771 04       		.byte	0x4
 4774 0772 6C020000 		.4byte	0x26c
 4775 0776 06       		.uleb128 0x6
 4776 0777 82050000 		.4byte	.LASF108
 4777 077b 0C       		.byte	0xc
 4778 077c 0C       		.byte	0xc
 4779 077d 34       		.byte	0x34
 4780 077e 9B070000 		.4byte	0x79b
 4781 0782 07       		.uleb128 0x7
 4782 0783 F7090000 		.4byte	.LASF109
 4783 0787 0C       		.byte	0xc
 4784 0788 35       		.byte	0x35
 4785 0789 A1020000 		.4byte	0x2a1
 4786 078d 00       		.byte	0
 4787 078e 07       		.uleb128 0x7
 4788 078f 1B080000 		.4byte	.LASF110
ARM GAS  /tmp/cctBdhRt.s 			page 85


 4789 0793 0C       		.byte	0xc
 4790 0794 37       		.byte	0x37
 4791 0795 46010000 		.4byte	0x146
 4792 0799 08       		.byte	0x8
 4793 079a 00       		.byte	0
 4794 079b 0A       		.uleb128 0xa
 4795 079c 04       		.byte	0x4
 4796 079d 76070000 		.4byte	0x776
 4797 07a1 06       		.uleb128 0x6
 4798 07a2 4B0A0000 		.4byte	.LASF111
 4799 07a6 10       		.byte	0x10
 4800 07a7 0D       		.byte	0xd
 4801 07a8 39       		.byte	0x39
 4802 07a9 D2070000 		.4byte	0x7d2
 4803 07ad 07       		.uleb128 0x7
 4804 07ae 56060000 		.4byte	.LASF112
 4805 07b2 0D       		.byte	0xd
 4806 07b3 3A       		.byte	0x3a
 4807 07b4 A1020000 		.4byte	0x2a1
 4808 07b8 00       		.byte	0
 4809 07b9 07       		.uleb128 0x7
 4810 07ba 56010000 		.4byte	.LASF113
 4811 07be 0D       		.byte	0xd
 4812 07bf 3C       		.byte	0x3c
 4813 07c0 77020000 		.4byte	0x277
 4814 07c4 08       		.byte	0x8
 4815 07c5 07       		.uleb128 0x7
 4816 07c6 D50B0000 		.4byte	.LASF114
 4817 07ca 0D       		.byte	0xd
 4818 07cb 3E       		.byte	0x3e
 4819 07cc 15080000 		.4byte	0x815
 4820 07d0 0C       		.byte	0xc
 4821 07d1 00       		.byte	0
 4822 07d2 0A       		.uleb128 0xa
 4823 07d3 04       		.byte	0x4
 4824 07d4 A1070000 		.4byte	0x7a1
 4825 07d8 0A       		.uleb128 0xa
 4826 07d9 04       		.byte	0x4
 4827 07da DE070000 		.4byte	0x7de
 4828 07de 16       		.uleb128 0x16
 4829 07df E3070000 		.4byte	0x7e3
 4830 07e3 02       		.uleb128 0x2
 4831 07e4 01       		.byte	0x1
 4832 07e5 08       		.byte	0x8
 4833 07e6 1E040000 		.4byte	.LASF115
 4834 07ea 05       		.uleb128 0x5
 4835 07eb 51010000 		.4byte	0x151
 4836 07ef 0A       		.uleb128 0xa
 4837 07f0 04       		.byte	0x4
 4838 07f1 56030000 		.4byte	0x356
 4839 07f5 05       		.uleb128 0x5
 4840 07f6 D8070000 		.4byte	0x7d8
 4841 07fa 17       		.uleb128 0x17
 4842 07fb 88050000 		.4byte	0x588
 4843 07ff 0A080000 		.4byte	0x80a
 4844 0803 18       		.uleb128 0x18
 4845 0804 8A040000 		.4byte	0x48a
ARM GAS  /tmp/cctBdhRt.s 			page 86


 4846 0808 3A       		.byte	0x3a
 4847 0809 00       		.byte	0
 4848 080a 03       		.uleb128 0x3
 4849 080b AB0A0000 		.4byte	.LASF116
 4850 080f 0D       		.byte	0xd
 4851 0810 34       		.byte	0x34
 4852 0811 A1070000 		.4byte	0x7a1
 4853 0815 0A       		.uleb128 0xa
 4854 0816 04       		.byte	0x4
 4855 0817 0A080000 		.4byte	0x80a
 4856 081b 13       		.uleb128 0x13
 4857 081c 0C       		.byte	0xc
 4858 081d 0E       		.byte	0xe
 4859 081e DA       		.byte	0xda
 4860 081f 60080000 		.4byte	0x860
 4861 0823 07       		.uleb128 0x7
 4862 0824 87040000 		.4byte	.LASF117
 4863 0828 0E       		.byte	0xe
 4864 0829 DB       		.byte	0xdb
 4865 082a 60080000 		.4byte	0x860
 4866 082e 00       		.byte	0
 4867 082f 07       		.uleb128 0x7
 4868 0830 B80B0000 		.4byte	.LASF118
 4869 0834 0E       		.byte	0xe
 4870 0835 DC       		.byte	0xdc
 4871 0836 66080000 		.4byte	0x866
 4872 083a 04       		.byte	0x4
 4873 083b 07       		.uleb128 0x7
 4874 083c 2B040000 		.4byte	.LASF119
 4875 0840 0E       		.byte	0xe
 4876 0841 DD       		.byte	0xdd
 4877 0842 A2000000 		.4byte	0xa2
 4878 0846 08       		.byte	0x8
 4879 0847 07       		.uleb128 0x7
 4880 0848 21080000 		.4byte	.LASF120
 4881 084c 0E       		.byte	0xe
 4882 084d DF       		.byte	0xdf
 4883 084e A2000000 		.4byte	0xa2
 4884 0852 09       		.byte	0x9
 4885 0853 07       		.uleb128 0x7
 4886 0854 DA080000 		.4byte	.LASF121
 4887 0858 0E       		.byte	0xe
 4888 0859 E0       		.byte	0xe0
 4889 085a A2000000 		.4byte	0xa2
 4890 085e 0A       		.byte	0xa
 4891 085f 00       		.byte	0
 4892 0860 0A       		.uleb128 0xa
 4893 0861 04       		.byte	0x4
 4894 0862 E8040000 		.4byte	0x4e8
 4895 0866 0A       		.uleb128 0xa
 4896 0867 04       		.byte	0x4
 4897 0868 E9000000 		.4byte	0xe9
 4898 086c 03       		.uleb128 0x3
 4899 086d 05000000 		.4byte	.LASF122
 4900 0871 0E       		.byte	0xe
 4901 0872 E1       		.byte	0xe1
 4902 0873 1B080000 		.4byte	0x81b
ARM GAS  /tmp/cctBdhRt.s 			page 87


 4903 0877 02       		.uleb128 0x2
 4904 0878 01       		.byte	0x1
 4905 0879 02       		.byte	0x2
 4906 087a 12040000 		.4byte	.LASF123
 4907 087e 13       		.uleb128 0x13
 4908 087f 04       		.byte	0x4
 4909 0880 0F       		.byte	0xf
 4910 0881 B3       		.byte	0xb3
 4911 0882 9F080000 		.4byte	0x89f
 4912 0886 12       		.uleb128 0x12
 4913 0887 73657400 		.ascii	"set\000"
 4914 088b 0F       		.byte	0xf
 4915 088c B4       		.byte	0xb4
 4916 088d AD000000 		.4byte	0xad
 4917 0891 00       		.byte	0
 4918 0892 07       		.uleb128 0x7
 4919 0893 E9040000 		.4byte	.LASF124
 4920 0897 0F       		.byte	0xf
 4921 0898 B5       		.byte	0xb5
 4922 0899 AD000000 		.4byte	0xad
 4923 089d 02       		.byte	0x2
 4924 089e 00       		.byte	0
 4925 089f 14       		.uleb128 0x14
 4926 08a0 04       		.byte	0x4
 4927 08a1 0F       		.byte	0xf
 4928 08a2 B1       		.byte	0xb1
 4929 08a3 BA080000 		.4byte	0x8ba
 4930 08a7 19       		.uleb128 0x19
 4931 08a8 5700     		.ascii	"W\000"
 4932 08aa 0F       		.byte	0xf
 4933 08ab B2       		.byte	0xb2
 4934 08ac C3000000 		.4byte	0xc3
 4935 08b0 19       		.uleb128 0x19
 4936 08b1 4800     		.ascii	"H\000"
 4937 08b3 0F       		.byte	0xf
 4938 08b4 B6       		.byte	0xb6
 4939 08b5 7E080000 		.4byte	0x87e
 4940 08b9 00       		.byte	0
 4941 08ba 13       		.uleb128 0x13
 4942 08bb 2C       		.byte	0x2c
 4943 08bc 0F       		.byte	0xf
 4944 08bd A9       		.byte	0xa9
 4945 08be 47090000 		.4byte	0x947
 4946 08c2 07       		.uleb128 0x7
 4947 08c3 C2060000 		.4byte	.LASF125
 4948 08c7 0F       		.byte	0xf
 4949 08c8 AB       		.byte	0xab
 4950 08c9 E9000000 		.4byte	0xe9
 4951 08cd 00       		.byte	0
 4952 08ce 07       		.uleb128 0x7
 4953 08cf 39090000 		.4byte	.LASF126
 4954 08d3 0F       		.byte	0xf
 4955 08d4 AC       		.byte	0xac
 4956 08d5 E9000000 		.4byte	0xe9
 4957 08d9 04       		.byte	0x4
 4958 08da 07       		.uleb128 0x7
 4959 08db 0A060000 		.4byte	.LASF127
ARM GAS  /tmp/cctBdhRt.s 			page 88


 4960 08df 0F       		.byte	0xf
 4961 08e0 AD       		.byte	0xad
 4962 08e1 E9000000 		.4byte	0xe9
 4963 08e5 08       		.byte	0x8
 4964 08e6 07       		.uleb128 0x7
 4965 08e7 8E010000 		.4byte	.LASF128
 4966 08eb 0F       		.byte	0xf
 4967 08ec AE       		.byte	0xae
 4968 08ed E9000000 		.4byte	0xe9
 4969 08f1 0C       		.byte	0xc
 4970 08f2 12       		.uleb128 0x12
 4971 08f3 49445200 		.ascii	"IDR\000"
 4972 08f7 0F       		.byte	0xf
 4973 08f8 AF       		.byte	0xaf
 4974 08f9 E9000000 		.4byte	0xe9
 4975 08fd 10       		.byte	0x10
 4976 08fe 12       		.uleb128 0x12
 4977 08ff 4F445200 		.ascii	"ODR\000"
 4978 0903 0F       		.byte	0xf
 4979 0904 B0       		.byte	0xb0
 4980 0905 E9000000 		.4byte	0xe9
 4981 0909 14       		.byte	0x14
 4982 090a 07       		.uleb128 0x7
 4983 090b 840A0000 		.4byte	.LASF129
 4984 090f 0F       		.byte	0xf
 4985 0910 B7       		.byte	0xb7
 4986 0911 47090000 		.4byte	0x947
 4987 0915 18       		.byte	0x18
 4988 0916 07       		.uleb128 0x7
 4989 0917 D8050000 		.4byte	.LASF130
 4990 091b 0F       		.byte	0xf
 4991 091c B8       		.byte	0xb8
 4992 091d E9000000 		.4byte	0xe9
 4993 0921 1C       		.byte	0x1c
 4994 0922 07       		.uleb128 0x7
 4995 0923 D5080000 		.4byte	.LASF131
 4996 0927 0F       		.byte	0xf
 4997 0928 B9       		.byte	0xb9
 4998 0929 E9000000 		.4byte	0xe9
 4999 092d 20       		.byte	0x20
 5000 092e 07       		.uleb128 0x7
 5001 092f D0080000 		.4byte	.LASF132
 5002 0933 0F       		.byte	0xf
 5003 0934 BA       		.byte	0xba
 5004 0935 E9000000 		.4byte	0xe9
 5005 0939 24       		.byte	0x24
 5006 093a 12       		.uleb128 0x12
 5007 093b 42525200 		.ascii	"BRR\000"
 5008 093f 0F       		.byte	0xf
 5009 0940 BB       		.byte	0xbb
 5010 0941 E9000000 		.4byte	0xe9
 5011 0945 28       		.byte	0x28
 5012 0946 00       		.byte	0
 5013 0947 05       		.uleb128 0x5
 5014 0948 9F080000 		.4byte	0x89f
 5015 094c 03       		.uleb128 0x3
 5016 094d C7030000 		.4byte	.LASF133
ARM GAS  /tmp/cctBdhRt.s 			page 89


 5017 0951 0F       		.byte	0xf
 5018 0952 BC       		.byte	0xbc
 5019 0953 BA080000 		.4byte	0x8ba
 5020 0957 11       		.uleb128 0x11
 5021 0958 D6010000 		.4byte	.LASF134
 5022 095c 0F       		.byte	0xf
 5023 095d 1B01     		.2byte	0x11b
 5024 095f 63090000 		.4byte	0x963
 5025 0963 0A       		.uleb128 0xa
 5026 0964 04       		.byte	0x4
 5027 0965 4C090000 		.4byte	0x94c
 5028 0969 0A       		.uleb128 0xa
 5029 096a 04       		.byte	0x4
 5030 096b 6F090000 		.4byte	0x96f
 5031 096f 16       		.uleb128 0x16
 5032 0970 6C080000 		.4byte	0x86c
 5033 0974 1A       		.uleb128 0x1a
 5034 0975 01       		.byte	0x1
 5035 0976 10       		.byte	0x10
 5036 0977 46       		.byte	0x46
 5037 0978 9B090000 		.4byte	0x99b
 5038 097c 1B       		.uleb128 0x1b
 5039 097d BD010000 		.4byte	.LASF135
 5040 0981 00       		.sleb128 0
 5041 0982 1B       		.uleb128 0x1b
 5042 0983 AB010000 		.4byte	.LASF136
 5043 0987 01       		.sleb128 1
 5044 0988 1B       		.uleb128 0x1b
 5045 0989 30060000 		.4byte	.LASF137
 5046 098d 02       		.sleb128 2
 5047 098e 1B       		.uleb128 0x1b
 5048 098f 13070000 		.4byte	.LASF138
 5049 0993 03       		.sleb128 3
 5050 0994 1B       		.uleb128 0x1b
 5051 0995 010B0000 		.4byte	.LASF139
 5052 0999 04       		.sleb128 4
 5053 099a 00       		.byte	0
 5054 099b 03       		.uleb128 0x3
 5055 099c 970B0000 		.4byte	.LASF140
 5056 09a0 10       		.byte	0x10
 5057 09a1 4C       		.byte	0x4c
 5058 09a2 74090000 		.4byte	0x974
 5059 09a6 11       		.uleb128 0x11
 5060 09a7 45040000 		.4byte	.LASF141
 5061 09ab 11       		.byte	0x11
 5062 09ac 9601     		.2byte	0x196
 5063 09ae B2090000 		.4byte	0x9b2
 5064 09b2 0B       		.uleb128 0xb
 5065 09b3 45040000 		.4byte	.LASF141
 5066 09b7 30       		.byte	0x30
 5067 09b8 11       		.byte	0x11
 5068 09b9 BA01     		.2byte	0x1ba
 5069 09bb 350A0000 		.4byte	0xa35
 5070 09bf 09       		.uleb128 0x9
 5071 09c0 00010000 		.4byte	.LASF142
 5072 09c4 11       		.byte	0x11
 5073 09c5 BE01     		.2byte	0x1be
ARM GAS  /tmp/cctBdhRt.s 			page 90


 5074 09c7 9B090000 		.4byte	0x99b
 5075 09cb 00       		.byte	0
 5076 09cc 09       		.uleb128 0x9
 5077 09cd F9000000 		.4byte	.LASF143
 5078 09d1 11       		.byte	0x11
 5079 09d2 C201     		.2byte	0x1c2
 5080 09d4 A20A0000 		.4byte	0xaa2
 5081 09d8 04       		.byte	0x4
 5082 09d9 09       		.uleb128 0x9
 5083 09da DE090000 		.4byte	.LASF144
 5084 09de 11       		.byte	0x11
 5085 09df C701     		.2byte	0x1c7
 5086 09e1 6C020000 		.4byte	0x26c
 5087 09e5 08       		.byte	0x8
 5088 09e6 09       		.uleb128 0x9
 5089 09e7 89060000 		.4byte	.LASF145
 5090 09eb 11       		.byte	0x11
 5091 09ec CD01     		.2byte	0x1cd
 5092 09ee 0A080000 		.4byte	0x80a
 5093 09f2 0C       		.byte	0xc
 5094 09f3 08       		.uleb128 0x8
 5095 09f4 73706900 		.ascii	"spi\000"
 5096 09f8 11       		.byte	0x11
 5097 09f9 D601     		.2byte	0x1d6
 5098 09fb AD0A0000 		.4byte	0xaad
 5099 09ff 1C       		.byte	0x1c
 5100 0a00 09       		.uleb128 0x9
 5101 0a01 1F060000 		.4byte	.LASF146
 5102 0a05 11       		.byte	0x11
 5103 0a06 DA01     		.2byte	0x1da
 5104 0a08 69090000 		.4byte	0x969
 5105 0a0c 20       		.byte	0x20
 5106 0a0d 09       		.uleb128 0x9
 5107 0a0e BC060000 		.4byte	.LASF147
 5108 0a12 11       		.byte	0x11
 5109 0a13 DE01     		.2byte	0x1de
 5110 0a15 69090000 		.4byte	0x969
 5111 0a19 24       		.byte	0x24
 5112 0a1a 09       		.uleb128 0x9
 5113 0a1b A3060000 		.4byte	.LASF148
 5114 0a1f 11       		.byte	0x11
 5115 0a20 E201     		.2byte	0x1e2
 5116 0a22 C3000000 		.4byte	0xc3
 5117 0a26 28       		.byte	0x28
 5118 0a27 09       		.uleb128 0x9
 5119 0a28 DC0B0000 		.4byte	.LASF149
 5120 0a2c 11       		.byte	0x11
 5121 0a2d E601     		.2byte	0x1e6
 5122 0a2f C3000000 		.4byte	0xc3
 5123 0a33 2C       		.byte	0x2c
 5124 0a34 00       		.byte	0
 5125 0a35 11       		.uleb128 0x11
 5126 0a36 D4030000 		.4byte	.LASF150
 5127 0a3a 11       		.byte	0x11
 5128 0a3b 9E01     		.2byte	0x19e
 5129 0a3d 410A0000 		.4byte	0xa41
 5130 0a41 0A       		.uleb128 0xa
ARM GAS  /tmp/cctBdhRt.s 			page 91


 5131 0a42 04       		.byte	0x4
 5132 0a43 470A0000 		.4byte	0xa47
 5133 0a47 0C       		.uleb128 0xc
 5134 0a48 520A0000 		.4byte	0xa52
 5135 0a4c 0D       		.uleb128 0xd
 5136 0a4d 520A0000 		.4byte	0xa52
 5137 0a51 00       		.byte	0
 5138 0a52 0A       		.uleb128 0xa
 5139 0a53 04       		.byte	0x4
 5140 0a54 A6090000 		.4byte	0x9a6
 5141 0a58 10       		.uleb128 0x10
 5142 0a59 0C       		.byte	0xc
 5143 0a5a 11       		.byte	0x11
 5144 0a5b A301     		.2byte	0x1a3
 5145 0a5d 960A0000 		.4byte	0xa96
 5146 0a61 09       		.uleb128 0x9
 5147 0a62 65010000 		.4byte	.LASF151
 5148 0a66 11       		.byte	0x11
 5149 0a67 A701     		.2byte	0x1a7
 5150 0a69 350A0000 		.4byte	0xa35
 5151 0a6d 00       		.byte	0
 5152 0a6e 09       		.uleb128 0x9
 5153 0a6f A0000000 		.4byte	.LASF152
 5154 0a73 11       		.byte	0x11
 5155 0a74 AC01     		.2byte	0x1ac
 5156 0a76 57090000 		.4byte	0x957
 5157 0a7a 04       		.byte	0x4
 5158 0a7b 09       		.uleb128 0x9
 5159 0a7c BD0B0000 		.4byte	.LASF153
 5160 0a80 11       		.byte	0x11
 5161 0a81 B001     		.2byte	0x1b0
 5162 0a83 AD000000 		.4byte	0xad
 5163 0a87 08       		.byte	0x8
 5164 0a88 08       		.uleb128 0x8
 5165 0a89 63723100 		.ascii	"cr1\000"
 5166 0a8d 11       		.byte	0x11
 5167 0a8e B401     		.2byte	0x1b4
 5168 0a90 AD000000 		.4byte	0xad
 5169 0a94 0A       		.byte	0xa
 5170 0a95 00       		.byte	0
 5171 0a96 11       		.uleb128 0x11
 5172 0a97 09070000 		.4byte	.LASF154
 5173 0a9b 11       		.byte	0x11
 5174 0a9c B501     		.2byte	0x1b5
 5175 0a9e 580A0000 		.4byte	0xa58
 5176 0aa2 0A       		.uleb128 0xa
 5177 0aa3 04       		.byte	0x4
 5178 0aa4 A80A0000 		.4byte	0xaa8
 5179 0aa8 16       		.uleb128 0x16
 5180 0aa9 960A0000 		.4byte	0xa96
 5181 0aad 0A       		.uleb128 0xa
 5182 0aae 04       		.byte	0x4
 5183 0aaf 71050000 		.4byte	0x571
 5184 0ab3 03       		.uleb128 0x3
 5185 0ab4 FF090000 		.4byte	.LASF155
 5186 0ab8 12       		.byte	0x12
 5187 0ab9 16       		.byte	0x16
ARM GAS  /tmp/cctBdhRt.s 			page 92


 5188 0aba 37000000 		.4byte	0x37
 5189 0abe 03       		.uleb128 0x3
 5190 0abf E60B0000 		.4byte	.LASF156
 5191 0ac3 12       		.byte	0x12
 5192 0ac4 19       		.byte	0x19
 5193 0ac5 50000000 		.4byte	0x50
 5194 0ac9 03       		.uleb128 0x3
 5195 0aca 99000000 		.4byte	.LASF157
 5196 0ace 12       		.byte	0x12
 5197 0acf 1C       		.byte	0x1c
 5198 0ad0 74000000 		.4byte	0x74
 5199 0ad4 13       		.uleb128 0x13
 5200 0ad5 02       		.byte	0x2
 5201 0ad6 01       		.byte	0x1
 5202 0ad7 1B       		.byte	0x1b
 5203 0ad8 F30A0000 		.4byte	0xaf3
 5204 0adc 12       		.uleb128 0x12
 5205 0add 623000   		.ascii	"b0\000"
 5206 0ae0 01       		.byte	0x1
 5207 0ae1 1C       		.byte	0x1c
 5208 0ae2 B30A0000 		.4byte	0xab3
 5209 0ae6 00       		.byte	0
 5210 0ae7 12       		.uleb128 0x12
 5211 0ae8 623100   		.ascii	"b1\000"
 5212 0aeb 01       		.byte	0x1
 5213 0aec 1D       		.byte	0x1d
 5214 0aed B30A0000 		.4byte	0xab3
 5215 0af1 01       		.byte	0x1
 5216 0af2 00       		.byte	0
 5217 0af3 14       		.uleb128 0x14
 5218 0af4 02       		.byte	0x2
 5219 0af5 01       		.byte	0x1
 5220 0af6 19       		.byte	0x19
 5221 0af7 0E0B0000 		.4byte	0xb0e
 5222 0afb 19       		.uleb128 0x19
 5223 0afc 7700     		.ascii	"w\000"
 5224 0afe 01       		.byte	0x1
 5225 0aff 1A       		.byte	0x1a
 5226 0b00 BE0A0000 		.4byte	0xabe
 5227 0b04 19       		.uleb128 0x19
 5228 0b05 6200     		.ascii	"b\000"
 5229 0b07 01       		.byte	0x1
 5230 0b08 1E       		.byte	0x1e
 5231 0b09 D40A0000 		.4byte	0xad4
 5232 0b0d 00       		.byte	0
 5233 0b0e 03       		.uleb128 0x3
 5234 0b0f 47000000 		.4byte	.LASF158
 5235 0b13 01       		.byte	0x1
 5236 0b14 1F       		.byte	0x1f
 5237 0b15 F30A0000 		.4byte	0xaf3
 5238 0b19 13       		.uleb128 0x13
 5239 0b1a 04       		.byte	0x4
 5240 0b1b 01       		.byte	0x1
 5241 0b1c 24       		.byte	0x24
 5242 0b1d 4E0B0000 		.4byte	0xb4e
 5243 0b21 12       		.uleb128 0x12
 5244 0b22 623000   		.ascii	"b0\000"
ARM GAS  /tmp/cctBdhRt.s 			page 93


 5245 0b25 01       		.byte	0x1
 5246 0b26 25       		.byte	0x25
 5247 0b27 B30A0000 		.4byte	0xab3
 5248 0b2b 00       		.byte	0
 5249 0b2c 12       		.uleb128 0x12
 5250 0b2d 623100   		.ascii	"b1\000"
 5251 0b30 01       		.byte	0x1
 5252 0b31 26       		.byte	0x26
 5253 0b32 B30A0000 		.4byte	0xab3
 5254 0b36 01       		.byte	0x1
 5255 0b37 12       		.uleb128 0x12
 5256 0b38 623200   		.ascii	"b2\000"
 5257 0b3b 01       		.byte	0x1
 5258 0b3c 27       		.byte	0x27
 5259 0b3d B30A0000 		.4byte	0xab3
 5260 0b41 02       		.byte	0x2
 5261 0b42 12       		.uleb128 0x12
 5262 0b43 623300   		.ascii	"b3\000"
 5263 0b46 01       		.byte	0x1
 5264 0b47 28       		.byte	0x28
 5265 0b48 B30A0000 		.4byte	0xab3
 5266 0b4c 03       		.byte	0x3
 5267 0b4d 00       		.byte	0
 5268 0b4e 14       		.uleb128 0x14
 5269 0b4f 04       		.byte	0x4
 5270 0b50 01       		.byte	0x1
 5271 0b51 22       		.byte	0x22
 5272 0b52 6A0B0000 		.4byte	0xb6a
 5273 0b56 19       		.uleb128 0x19
 5274 0b57 647700   		.ascii	"dw\000"
 5275 0b5a 01       		.byte	0x1
 5276 0b5b 23       		.byte	0x23
 5277 0b5c C90A0000 		.4byte	0xac9
 5278 0b60 19       		.uleb128 0x19
 5279 0b61 6200     		.ascii	"b\000"
 5280 0b63 01       		.byte	0x1
 5281 0b64 29       		.byte	0x29
 5282 0b65 190B0000 		.4byte	0xb19
 5283 0b69 00       		.byte	0
 5284 0b6a 03       		.uleb128 0x3
 5285 0b6b 59080000 		.4byte	.LASF159
 5286 0b6f 01       		.byte	0x1
 5287 0b70 2A       		.byte	0x2a
 5288 0b71 4E0B0000 		.4byte	0xb4e
 5289 0b75 1C       		.uleb128 0x1c
 5290 0b76 110A0000 		.4byte	.LASF253
 5291 0b7a 01       		.byte	0x1
 5292 0b7b 7D       		.byte	0x7d
 5293 0b7c B30A0000 		.4byte	0xab3
 5294 0b80 00000000 		.4byte	.LFB256
 5295 0b84 54000000 		.4byte	.LFE256-.LFB256
 5296 0b88 01       		.uleb128 0x1
 5297 0b89 9C       		.byte	0x9c
 5298 0b8a 7B0C0000 		.4byte	0xc7b
 5299 0b8e 1D       		.uleb128 0x1d
 5300 0b8f F50A0000 		.4byte	.LASF160
 5301 0b93 01       		.byte	0x1
ARM GAS  /tmp/cctBdhRt.s 			page 94


 5302 0b94 7D       		.byte	0x7d
 5303 0b95 B30A0000 		.4byte	0xab3
 5304 0b99 00000000 		.4byte	.LLST0
 5305 0b9d 1E       		.uleb128 0x1e
 5306 0b9e 70726900 		.ascii	"pri\000"
 5307 0ba2 01       		.byte	0x1
 5308 0ba3 7D       		.byte	0x7d
 5309 0ba4 B30A0000 		.4byte	0xab3
 5310 0ba8 21000000 		.4byte	.LLST1
 5311 0bac 1D       		.uleb128 0x1d
 5312 0bad 40010000 		.4byte	.LASF161
 5313 0bb1 01       		.byte	0x1
 5314 0bb2 7D       		.byte	0x7d
 5315 0bb3 BE0A0000 		.4byte	0xabe
 5316 0bb7 42000000 		.4byte	.LLST2
 5317 0bbb 1E       		.uleb128 0x1e
 5318 0bbc 73726300 		.ascii	"src\000"
 5319 0bc0 01       		.byte	0x1
 5320 0bc1 7E       		.byte	0x7e
 5321 0bc2 BE0A0000 		.4byte	0xabe
 5322 0bc6 63000000 		.4byte	.LLST3
 5323 0bca 1D       		.uleb128 0x1d
 5324 0bcb 22090000 		.4byte	.LASF162
 5325 0bcf 01       		.byte	0x1
 5326 0bd0 7E       		.byte	0x7e
 5327 0bd1 BE0A0000 		.4byte	0xabe
 5328 0bd5 84000000 		.4byte	.LLST4
 5329 0bd9 1F       		.uleb128 0x1f
 5330 0bda 7300     		.ascii	"s\000"
 5331 0bdc 01       		.byte	0x1
 5332 0bdd 80       		.byte	0x80
 5333 0bde B30A0000 		.4byte	0xab3
 5334 0be2 A4000000 		.4byte	.LLST5
 5335 0be6 20       		.uleb128 0x20
 5336 0be7 18000000 		.4byte	.LVL2
 5337 0beb F8330000 		.4byte	0x33f8
 5338 0bef FA0B0000 		.4byte	0xbfa
 5339 0bf3 21       		.uleb128 0x21
 5340 0bf4 01       		.uleb128 0x1
 5341 0bf5 50       		.byte	0x50
 5342 0bf6 02       		.uleb128 0x2
 5343 0bf7 74       		.byte	0x74
 5344 0bf8 00       		.sleb128 0
 5345 0bf9 00       		.byte	0
 5346 0bfa 20       		.uleb128 0x20
 5347 0bfb 20000000 		.4byte	.LVL3
 5348 0bff 0A340000 		.4byte	0x340a
 5349 0c03 110C0000 		.4byte	0xc11
 5350 0c07 21       		.uleb128 0x21
 5351 0c08 01       		.uleb128 0x1
 5352 0c09 50       		.byte	0x50
 5353 0c0a 05       		.uleb128 0x5
 5354 0c0b 79       		.byte	0x79
 5355 0c0c 00       		.sleb128 0
 5356 0c0d 77       		.byte	0x77
 5357 0c0e 00       		.sleb128 0
 5358 0c0f 21       		.byte	0x21
ARM GAS  /tmp/cctBdhRt.s 			page 95


 5359 0c10 00       		.byte	0
 5360 0c11 20       		.uleb128 0x20
 5361 0c12 2A000000 		.4byte	.LVL5
 5362 0c16 0A340000 		.4byte	0x340a
 5363 0c1a 250C0000 		.4byte	0xc25
 5364 0c1e 21       		.uleb128 0x21
 5365 0c1f 01       		.uleb128 0x1
 5366 0c20 50       		.byte	0x50
 5367 0c21 02       		.uleb128 0x2
 5368 0c22 78       		.byte	0x78
 5369 0c23 00       		.sleb128 0
 5370 0c24 00       		.byte	0
 5371 0c25 20       		.uleb128 0x20
 5372 0c26 38000000 		.4byte	.LVL6
 5373 0c2a 0A340000 		.4byte	0x340a
 5374 0c2e 420C0000 		.4byte	0xc42
 5375 0c32 21       		.uleb128 0x21
 5376 0c33 01       		.uleb128 0x1
 5377 0c34 50       		.byte	0x50
 5378 0c35 0B       		.uleb128 0xb
 5379 0c36 76       		.byte	0x76
 5380 0c37 00       		.sleb128 0
 5381 0c38 38       		.byte	0x38
 5382 0c39 25       		.byte	0x25
 5383 0c3a 34       		.byte	0x34
 5384 0c3b 24       		.byte	0x24
 5385 0c3c 75       		.byte	0x75
 5386 0c3d 00       		.sleb128 0
 5387 0c3e 38       		.byte	0x38
 5388 0c3f 25       		.byte	0x25
 5389 0c40 21       		.byte	0x21
 5390 0c41 00       		.byte	0
 5391 0c42 20       		.uleb128 0x20
 5392 0c43 3E000000 		.4byte	.LVL7
 5393 0c47 0A340000 		.4byte	0x340a
 5394 0c4b 560C0000 		.4byte	0xc56
 5395 0c4f 21       		.uleb128 0x21
 5396 0c50 01       		.uleb128 0x1
 5397 0c51 50       		.byte	0x50
 5398 0c52 02       		.uleb128 0x2
 5399 0c53 76       		.byte	0x76
 5400 0c54 00       		.sleb128 0
 5401 0c55 00       		.byte	0
 5402 0c56 20       		.uleb128 0x20
 5403 0c57 44000000 		.4byte	.LVL8
 5404 0c5b 0A340000 		.4byte	0x340a
 5405 0c5f 6A0C0000 		.4byte	0xc6a
 5406 0c63 21       		.uleb128 0x21
 5407 0c64 01       		.uleb128 0x1
 5408 0c65 50       		.byte	0x50
 5409 0c66 02       		.uleb128 0x2
 5410 0c67 75       		.byte	0x75
 5411 0c68 00       		.sleb128 0
 5412 0c69 00       		.byte	0
 5413 0c6a 22       		.uleb128 0x22
 5414 0c6b 4A000000 		.4byte	.LVL9
 5415 0c6f 1F340000 		.4byte	0x341f
ARM GAS  /tmp/cctBdhRt.s 			page 96


 5416 0c73 21       		.uleb128 0x21
 5417 0c74 01       		.uleb128 0x1
 5418 0c75 50       		.byte	0x50
 5419 0c76 02       		.uleb128 0x2
 5420 0c77 74       		.byte	0x74
 5421 0c78 00       		.sleb128 0
 5422 0c79 00       		.byte	0
 5423 0c7a 00       		.byte	0
 5424 0c7b 23       		.uleb128 0x23
 5425 0c7c 27090000 		.4byte	.LASF164
 5426 0c80 01       		.byte	0x1
 5427 0c81 A1       		.byte	0xa1
 5428 0c82 B30A0000 		.4byte	0xab3
 5429 0c86 00000000 		.4byte	.LFB258
 5430 0c8a 24000000 		.4byte	.LFE258-.LFB258
 5431 0c8e 01       		.uleb128 0x1
 5432 0c8f 9C       		.byte	0x9c
 5433 0c90 E90C0000 		.4byte	0xce9
 5434 0c94 1D       		.uleb128 0x1d
 5435 0c95 CC040000 		.4byte	.LASF163
 5436 0c99 01       		.byte	0x1
 5437 0c9a A1       		.byte	0xa1
 5438 0c9b B30A0000 		.4byte	0xab3
 5439 0c9f B7000000 		.4byte	.LLST6
 5440 0ca3 1F       		.uleb128 0x1f
 5441 0ca4 7300     		.ascii	"s\000"
 5442 0ca6 01       		.byte	0x1
 5443 0ca7 A3       		.byte	0xa3
 5444 0ca8 B30A0000 		.4byte	0xab3
 5445 0cac D8000000 		.4byte	.LLST7
 5446 0cb0 20       		.uleb128 0x20
 5447 0cb1 0C000000 		.4byte	.LVL13
 5448 0cb5 F8330000 		.4byte	0x33f8
 5449 0cb9 C40C0000 		.4byte	0xcc4
 5450 0cbd 21       		.uleb128 0x21
 5451 0cbe 01       		.uleb128 0x1
 5452 0cbf 50       		.byte	0x50
 5453 0cc0 02       		.uleb128 0x2
 5454 0cc1 74       		.byte	0x74
 5455 0cc2 00       		.sleb128 0
 5456 0cc3 00       		.byte	0
 5457 0cc4 20       		.uleb128 0x20
 5458 0cc5 12000000 		.4byte	.LVL14
 5459 0cc9 0A340000 		.4byte	0x340a
 5460 0ccd D80C0000 		.4byte	0xcd8
 5461 0cd1 21       		.uleb128 0x21
 5462 0cd2 01       		.uleb128 0x1
 5463 0cd3 50       		.byte	0x50
 5464 0cd4 02       		.uleb128 0x2
 5465 0cd5 75       		.byte	0x75
 5466 0cd6 00       		.sleb128 0
 5467 0cd7 00       		.byte	0
 5468 0cd8 22       		.uleb128 0x22
 5469 0cd9 1A000000 		.4byte	.LVL16
 5470 0cdd 1F340000 		.4byte	0x341f
 5471 0ce1 21       		.uleb128 0x21
 5472 0ce2 01       		.uleb128 0x1
ARM GAS  /tmp/cctBdhRt.s 			page 97


 5473 0ce3 50       		.byte	0x50
 5474 0ce4 02       		.uleb128 0x2
 5475 0ce5 74       		.byte	0x74
 5476 0ce6 00       		.sleb128 0
 5477 0ce7 00       		.byte	0
 5478 0ce8 00       		.byte	0
 5479 0ce9 23       		.uleb128 0x23
 5480 0cea 410B0000 		.4byte	.LASF165
 5481 0cee 01       		.byte	0x1
 5482 0cef 8B       		.byte	0x8b
 5483 0cf0 B30A0000 		.4byte	0xab3
 5484 0cf4 00000000 		.4byte	.LFB257
 5485 0cf8 1E000000 		.4byte	.LFE257-.LFB257
 5486 0cfc 01       		.uleb128 0x1
 5487 0cfd 9C       		.byte	0x9c
 5488 0cfe 210D0000 		.4byte	0xd21
 5489 0d02 24       		.uleb128 0x24
 5490 0d03 60000000 		.4byte	.LASF166
 5491 0d07 01       		.byte	0x1
 5492 0d08 8C       		.byte	0x8c
 5493 0d09 94000000 		.4byte	0x94
 5494 0d0d EB000000 		.4byte	.LLST8
 5495 0d11 22       		.uleb128 0x22
 5496 0d12 12000000 		.4byte	.LVL22
 5497 0d16 7B0C0000 		.4byte	0xc7b
 5498 0d1a 21       		.uleb128 0x21
 5499 0d1b 01       		.uleb128 0x1
 5500 0d1c 50       		.byte	0x50
 5501 0d1d 01       		.uleb128 0x1
 5502 0d1e 30       		.byte	0x30
 5503 0d1f 00       		.byte	0
 5504 0d20 00       		.byte	0
 5505 0d21 23       		.uleb128 0x23
 5506 0d22 050A0000 		.4byte	.LASF167
 5507 0d26 01       		.byte	0x1
 5508 0d27 B4       		.byte	0xb4
 5509 0d28 B30A0000 		.4byte	0xab3
 5510 0d2c 00000000 		.4byte	.LFB259
 5511 0d30 06000000 		.4byte	.LFE259-.LFB259
 5512 0d34 01       		.uleb128 0x1
 5513 0d35 9C       		.byte	0x9c
 5514 0d36 4A0D0000 		.4byte	0xd4a
 5515 0d3a 25       		.uleb128 0x25
 5516 0d3b 06000000 		.4byte	.LVL24
 5517 0d3f 7B0C0000 		.4byte	0xc7b
 5518 0d43 21       		.uleb128 0x21
 5519 0d44 01       		.uleb128 0x1
 5520 0d45 50       		.byte	0x50
 5521 0d46 01       		.uleb128 0x1
 5522 0d47 30       		.byte	0x30
 5523 0d48 00       		.byte	0
 5524 0d49 00       		.byte	0
 5525 0d4a 23       		.uleb128 0x23
 5526 0d4b 63070000 		.4byte	.LASF168
 5527 0d4f 01       		.byte	0x1
 5528 0d50 C3       		.byte	0xc3
 5529 0d51 B30A0000 		.4byte	0xab3
ARM GAS  /tmp/cctBdhRt.s 			page 98


 5530 0d55 00000000 		.4byte	.LFB260
 5531 0d59 06000000 		.4byte	.LFE260-.LFB260
 5532 0d5d 01       		.uleb128 0x1
 5533 0d5e 9C       		.byte	0x9c
 5534 0d5f 730D0000 		.4byte	0xd73
 5535 0d63 25       		.uleb128 0x25
 5536 0d64 06000000 		.4byte	.LVL25
 5537 0d68 7B0C0000 		.4byte	0xc7b
 5538 0d6c 21       		.uleb128 0x21
 5539 0d6d 01       		.uleb128 0x1
 5540 0d6e 50       		.byte	0x50
 5541 0d6f 01       		.uleb128 0x1
 5542 0d70 33       		.byte	0x33
 5543 0d71 00       		.byte	0
 5544 0d72 00       		.byte	0
 5545 0d73 23       		.uleb128 0x23
 5546 0d74 A0070000 		.4byte	.LASF169
 5547 0d78 01       		.byte	0x1
 5548 0d79 D2       		.byte	0xd2
 5549 0d7a B30A0000 		.4byte	0xab3
 5550 0d7e 00000000 		.4byte	.LFB261
 5551 0d82 06000000 		.4byte	.LFE261-.LFB261
 5552 0d86 01       		.uleb128 0x1
 5553 0d87 9C       		.byte	0x9c
 5554 0d88 9C0D0000 		.4byte	0xd9c
 5555 0d8c 25       		.uleb128 0x25
 5556 0d8d 06000000 		.4byte	.LVL26
 5557 0d91 7B0C0000 		.4byte	0xc7b
 5558 0d95 21       		.uleb128 0x21
 5559 0d96 01       		.uleb128 0x1
 5560 0d97 50       		.byte	0x50
 5561 0d98 01       		.uleb128 0x1
 5562 0d99 34       		.byte	0x34
 5563 0d9a 00       		.byte	0
 5564 0d9b 00       		.byte	0
 5565 0d9c 23       		.uleb128 0x23
 5566 0d9d 94010000 		.4byte	.LASF170
 5567 0da1 01       		.byte	0x1
 5568 0da2 E1       		.byte	0xe1
 5569 0da3 B30A0000 		.4byte	0xab3
 5570 0da7 00000000 		.4byte	.LFB262
 5571 0dab 06000000 		.4byte	.LFE262-.LFB262
 5572 0daf 01       		.uleb128 0x1
 5573 0db0 9C       		.byte	0x9c
 5574 0db1 C60D0000 		.4byte	0xdc6
 5575 0db5 25       		.uleb128 0x25
 5576 0db6 06000000 		.4byte	.LVL27
 5577 0dba 7B0C0000 		.4byte	0xc7b
 5578 0dbe 21       		.uleb128 0x21
 5579 0dbf 01       		.uleb128 0x1
 5580 0dc0 50       		.byte	0x50
 5581 0dc1 02       		.uleb128 0x2
 5582 0dc2 08       		.byte	0x8
 5583 0dc3 40       		.byte	0x40
 5584 0dc4 00       		.byte	0
 5585 0dc5 00       		.byte	0
 5586 0dc6 23       		.uleb128 0x23
ARM GAS  /tmp/cctBdhRt.s 			page 99


 5587 0dc7 EF040000 		.4byte	.LASF171
 5588 0dcb 01       		.byte	0x1
 5589 0dcc F0       		.byte	0xf0
 5590 0dcd B30A0000 		.4byte	0xab3
 5591 0dd1 00000000 		.4byte	.LFB263
 5592 0dd5 06000000 		.4byte	.LFE263-.LFB263
 5593 0dd9 01       		.uleb128 0x1
 5594 0dda 9C       		.byte	0x9c
 5595 0ddb F00D0000 		.4byte	0xdf0
 5596 0ddf 25       		.uleb128 0x25
 5597 0de0 06000000 		.4byte	.LVL28
 5598 0de4 7B0C0000 		.4byte	0xc7b
 5599 0de8 21       		.uleb128 0x21
 5600 0de9 01       		.uleb128 0x1
 5601 0dea 50       		.byte	0x50
 5602 0deb 02       		.uleb128 0x2
 5603 0dec 08       		.byte	0x8
 5604 0ded 41       		.byte	0x41
 5605 0dee 00       		.byte	0
 5606 0def 00       		.byte	0
 5607 0df0 23       		.uleb128 0x23
 5608 0df1 A7000000 		.4byte	.LASF172
 5609 0df5 01       		.byte	0x1
 5610 0df6 FF       		.byte	0xff
 5611 0df7 B30A0000 		.4byte	0xab3
 5612 0dfb 00000000 		.4byte	.LFB264
 5613 0dff 06000000 		.4byte	.LFE264-.LFB264
 5614 0e03 01       		.uleb128 0x1
 5615 0e04 9C       		.byte	0x9c
 5616 0e05 1A0E0000 		.4byte	0xe1a
 5617 0e09 25       		.uleb128 0x25
 5618 0e0a 06000000 		.4byte	.LVL29
 5619 0e0e 7B0C0000 		.4byte	0xc7b
 5620 0e12 21       		.uleb128 0x21
 5621 0e13 01       		.uleb128 0x1
 5622 0e14 50       		.byte	0x50
 5623 0e15 02       		.uleb128 0x2
 5624 0e16 08       		.byte	0x8
 5625 0e17 42       		.byte	0x42
 5626 0e18 00       		.byte	0
 5627 0e19 00       		.byte	0
 5628 0e1a 26       		.uleb128 0x26
 5629 0e1b C2000000 		.4byte	.LASF173
 5630 0e1f 01       		.byte	0x1
 5631 0e20 0E01     		.2byte	0x10e
 5632 0e22 B30A0000 		.4byte	0xab3
 5633 0e26 00000000 		.4byte	.LFB265
 5634 0e2a 06000000 		.4byte	.LFE265-.LFB265
 5635 0e2e 01       		.uleb128 0x1
 5636 0e2f 9C       		.byte	0x9c
 5637 0e30 450E0000 		.4byte	0xe45
 5638 0e34 25       		.uleb128 0x25
 5639 0e35 06000000 		.4byte	.LVL30
 5640 0e39 7B0C0000 		.4byte	0xc7b
 5641 0e3d 21       		.uleb128 0x21
 5642 0e3e 01       		.uleb128 0x1
 5643 0e3f 50       		.byte	0x50
ARM GAS  /tmp/cctBdhRt.s 			page 100


 5644 0e40 02       		.uleb128 0x2
 5645 0e41 08       		.byte	0x8
 5646 0e42 43       		.byte	0x43
 5647 0e43 00       		.byte	0
 5648 0e44 00       		.byte	0
 5649 0e45 26       		.uleb128 0x26
 5650 0e46 940A0000 		.4byte	.LASF174
 5651 0e4a 01       		.byte	0x1
 5652 0e4b 1D01     		.2byte	0x11d
 5653 0e4d B30A0000 		.4byte	0xab3
 5654 0e51 00000000 		.4byte	.LFB266
 5655 0e55 06000000 		.4byte	.LFE266-.LFB266
 5656 0e59 01       		.uleb128 0x1
 5657 0e5a 9C       		.byte	0x9c
 5658 0e5b 700E0000 		.4byte	0xe70
 5659 0e5f 25       		.uleb128 0x25
 5660 0e60 06000000 		.4byte	.LVL31
 5661 0e64 7B0C0000 		.4byte	0xc7b
 5662 0e68 21       		.uleb128 0x21
 5663 0e69 01       		.uleb128 0x1
 5664 0e6a 50       		.byte	0x50
 5665 0e6b 02       		.uleb128 0x2
 5666 0e6c 08       		.byte	0x8
 5667 0e6d 44       		.byte	0x44
 5668 0e6e 00       		.byte	0
 5669 0e6f 00       		.byte	0
 5670 0e70 26       		.uleb128 0x26
 5671 0e71 30020000 		.4byte	.LASF175
 5672 0e75 01       		.byte	0x1
 5673 0e76 2C01     		.2byte	0x12c
 5674 0e78 B30A0000 		.4byte	0xab3
 5675 0e7c 00000000 		.4byte	.LFB267
 5676 0e80 06000000 		.4byte	.LFE267-.LFB267
 5677 0e84 01       		.uleb128 0x1
 5678 0e85 9C       		.byte	0x9c
 5679 0e86 9B0E0000 		.4byte	0xe9b
 5680 0e8a 25       		.uleb128 0x25
 5681 0e8b 06000000 		.4byte	.LVL32
 5682 0e8f 7B0C0000 		.4byte	0xc7b
 5683 0e93 21       		.uleb128 0x21
 5684 0e94 01       		.uleb128 0x1
 5685 0e95 50       		.byte	0x50
 5686 0e96 02       		.uleb128 0x2
 5687 0e97 08       		.byte	0x8
 5688 0e98 45       		.byte	0x45
 5689 0e99 00       		.byte	0
 5690 0e9a 00       		.byte	0
 5691 0e9b 26       		.uleb128 0x26
 5692 0e9c A3030000 		.4byte	.LASF176
 5693 0ea0 01       		.byte	0x1
 5694 0ea1 3B01     		.2byte	0x13b
 5695 0ea3 B30A0000 		.4byte	0xab3
 5696 0ea7 00000000 		.4byte	.LFB268
 5697 0eab 06000000 		.4byte	.LFE268-.LFB268
 5698 0eaf 01       		.uleb128 0x1
 5699 0eb0 9C       		.byte	0x9c
 5700 0eb1 C60E0000 		.4byte	0xec6
ARM GAS  /tmp/cctBdhRt.s 			page 101


 5701 0eb5 25       		.uleb128 0x25
 5702 0eb6 06000000 		.4byte	.LVL33
 5703 0eba 7B0C0000 		.4byte	0xc7b
 5704 0ebe 21       		.uleb128 0x21
 5705 0ebf 01       		.uleb128 0x1
 5706 0ec0 50       		.byte	0x50
 5707 0ec1 02       		.uleb128 0x2
 5708 0ec2 08       		.byte	0x8
 5709 0ec3 46       		.byte	0x46
 5710 0ec4 00       		.byte	0
 5711 0ec5 00       		.byte	0
 5712 0ec6 26       		.uleb128 0x26
 5713 0ec7 53070000 		.4byte	.LASF177
 5714 0ecb 01       		.byte	0x1
 5715 0ecc 4A01     		.2byte	0x14a
 5716 0ece B30A0000 		.4byte	0xab3
 5717 0ed2 00000000 		.4byte	.LFB269
 5718 0ed6 06000000 		.4byte	.LFE269-.LFB269
 5719 0eda 01       		.uleb128 0x1
 5720 0edb 9C       		.byte	0x9c
 5721 0edc F10E0000 		.4byte	0xef1
 5722 0ee0 25       		.uleb128 0x25
 5723 0ee1 06000000 		.4byte	.LVL34
 5724 0ee5 7B0C0000 		.4byte	0xc7b
 5725 0ee9 21       		.uleb128 0x21
 5726 0eea 01       		.uleb128 0x1
 5727 0eeb 50       		.byte	0x50
 5728 0eec 02       		.uleb128 0x2
 5729 0eed 08       		.byte	0x8
 5730 0eee 47       		.byte	0x47
 5731 0eef 00       		.byte	0
 5732 0ef0 00       		.byte	0
 5733 0ef1 26       		.uleb128 0x26
 5734 0ef2 F1070000 		.4byte	.LASF178
 5735 0ef6 01       		.byte	0x1
 5736 0ef7 5901     		.2byte	0x159
 5737 0ef9 B30A0000 		.4byte	0xab3
 5738 0efd 00000000 		.4byte	.LFB270
 5739 0f01 06000000 		.4byte	.LFE270-.LFB270
 5740 0f05 01       		.uleb128 0x1
 5741 0f06 9C       		.byte	0x9c
 5742 0f07 1C0F0000 		.4byte	0xf1c
 5743 0f0b 25       		.uleb128 0x25
 5744 0f0c 06000000 		.4byte	.LVL35
 5745 0f10 7B0C0000 		.4byte	0xc7b
 5746 0f14 21       		.uleb128 0x21
 5747 0f15 01       		.uleb128 0x1
 5748 0f16 50       		.byte	0x50
 5749 0f17 02       		.uleb128 0x2
 5750 0f18 08       		.byte	0x8
 5751 0f19 48       		.byte	0x48
 5752 0f1a 00       		.byte	0
 5753 0f1b 00       		.byte	0
 5754 0f1c 26       		.uleb128 0x26
 5755 0f1d AE090000 		.4byte	.LASF179
 5756 0f21 01       		.byte	0x1
 5757 0f22 6801     		.2byte	0x168
ARM GAS  /tmp/cctBdhRt.s 			page 102


 5758 0f24 B30A0000 		.4byte	0xab3
 5759 0f28 00000000 		.4byte	.LFB271
 5760 0f2c 06000000 		.4byte	.LFE271-.LFB271
 5761 0f30 01       		.uleb128 0x1
 5762 0f31 9C       		.byte	0x9c
 5763 0f32 470F0000 		.4byte	0xf47
 5764 0f36 25       		.uleb128 0x25
 5765 0f37 06000000 		.4byte	.LVL36
 5766 0f3b 7B0C0000 		.4byte	0xc7b
 5767 0f3f 21       		.uleb128 0x21
 5768 0f40 01       		.uleb128 0x1
 5769 0f41 50       		.byte	0x50
 5770 0f42 02       		.uleb128 0x2
 5771 0f43 08       		.byte	0x8
 5772 0f44 49       		.byte	0x49
 5773 0f45 00       		.byte	0
 5774 0f46 00       		.byte	0
 5775 0f47 26       		.uleb128 0x26
 5776 0f48 46010000 		.4byte	.LASF180
 5777 0f4c 01       		.byte	0x1
 5778 0f4d 7701     		.2byte	0x177
 5779 0f4f B30A0000 		.4byte	0xab3
 5780 0f53 00000000 		.4byte	.LFB272
 5781 0f57 06000000 		.4byte	.LFE272-.LFB272
 5782 0f5b 01       		.uleb128 0x1
 5783 0f5c 9C       		.byte	0x9c
 5784 0f5d 720F0000 		.4byte	0xf72
 5785 0f61 25       		.uleb128 0x25
 5786 0f62 06000000 		.4byte	.LVL37
 5787 0f66 7B0C0000 		.4byte	0xc7b
 5788 0f6a 21       		.uleb128 0x21
 5789 0f6b 01       		.uleb128 0x1
 5790 0f6c 50       		.byte	0x50
 5791 0f6d 02       		.uleb128 0x2
 5792 0f6e 08       		.byte	0x8
 5793 0f6f 4A       		.byte	0x4a
 5794 0f70 00       		.byte	0
 5795 0f71 00       		.byte	0
 5796 0f72 26       		.uleb128 0x26
 5797 0f73 000C0000 		.4byte	.LASF181
 5798 0f77 01       		.byte	0x1
 5799 0f78 8601     		.2byte	0x186
 5800 0f7a B30A0000 		.4byte	0xab3
 5801 0f7e 00000000 		.4byte	.LFB273
 5802 0f82 06000000 		.4byte	.LFE273-.LFB273
 5803 0f86 01       		.uleb128 0x1
 5804 0f87 9C       		.byte	0x9c
 5805 0f88 9D0F0000 		.4byte	0xf9d
 5806 0f8c 25       		.uleb128 0x25
 5807 0f8d 06000000 		.4byte	.LVL38
 5808 0f91 7B0C0000 		.4byte	0xc7b
 5809 0f95 21       		.uleb128 0x21
 5810 0f96 01       		.uleb128 0x1
 5811 0f97 50       		.byte	0x50
 5812 0f98 02       		.uleb128 0x2
 5813 0f99 08       		.byte	0x8
 5814 0f9a 4B       		.byte	0x4b
ARM GAS  /tmp/cctBdhRt.s 			page 103


 5815 0f9b 00       		.byte	0
 5816 0f9c 00       		.byte	0
 5817 0f9d 26       		.uleb128 0x26
 5818 0f9e CF000000 		.4byte	.LASF182
 5819 0fa2 01       		.byte	0x1
 5820 0fa3 9501     		.2byte	0x195
 5821 0fa5 B30A0000 		.4byte	0xab3
 5822 0fa9 00000000 		.4byte	.LFB274
 5823 0fad 06000000 		.4byte	.LFE274-.LFB274
 5824 0fb1 01       		.uleb128 0x1
 5825 0fb2 9C       		.byte	0x9c
 5826 0fb3 C80F0000 		.4byte	0xfc8
 5827 0fb7 25       		.uleb128 0x25
 5828 0fb8 06000000 		.4byte	.LVL39
 5829 0fbc 7B0C0000 		.4byte	0xc7b
 5830 0fc0 21       		.uleb128 0x21
 5831 0fc1 01       		.uleb128 0x1
 5832 0fc2 50       		.byte	0x50
 5833 0fc3 02       		.uleb128 0x2
 5834 0fc4 08       		.byte	0x8
 5835 0fc5 4C       		.byte	0x4c
 5836 0fc6 00       		.byte	0
 5837 0fc7 00       		.byte	0
 5838 0fc8 26       		.uleb128 0x26
 5839 0fc9 E4000000 		.4byte	.LASF183
 5840 0fcd 01       		.byte	0x1
 5841 0fce A401     		.2byte	0x1a4
 5842 0fd0 B30A0000 		.4byte	0xab3
 5843 0fd4 00000000 		.4byte	.LFB275
 5844 0fd8 06000000 		.4byte	.LFE275-.LFB275
 5845 0fdc 01       		.uleb128 0x1
 5846 0fdd 9C       		.byte	0x9c
 5847 0fde F30F0000 		.4byte	0xff3
 5848 0fe2 25       		.uleb128 0x25
 5849 0fe3 06000000 		.4byte	.LVL40
 5850 0fe7 7B0C0000 		.4byte	0xc7b
 5851 0feb 21       		.uleb128 0x21
 5852 0fec 01       		.uleb128 0x1
 5853 0fed 50       		.byte	0x50
 5854 0fee 02       		.uleb128 0x2
 5855 0fef 08       		.byte	0x8
 5856 0ff0 4D       		.byte	0x4d
 5857 0ff1 00       		.byte	0
 5858 0ff2 00       		.byte	0
 5859 0ff3 26       		.uleb128 0x26
 5860 0ff4 19020000 		.4byte	.LASF184
 5861 0ff8 01       		.byte	0x1
 5862 0ff9 B301     		.2byte	0x1b3
 5863 0ffb B30A0000 		.4byte	0xab3
 5864 0fff 00000000 		.4byte	.LFB276
 5865 1003 28000000 		.4byte	.LFE276-.LFB276
 5866 1007 01       		.uleb128 0x1
 5867 1008 9C       		.byte	0x9c
 5868 1009 75100000 		.4byte	0x1075
 5869 100d 27       		.uleb128 0x27
 5870 100e 6900     		.ascii	"i\000"
 5871 1010 01       		.byte	0x1
ARM GAS  /tmp/cctBdhRt.s 			page 104


 5872 1011 B301     		.2byte	0x1b3
 5873 1013 B30A0000 		.4byte	0xab3
 5874 1017 43010000 		.4byte	.LLST9
 5875 101b 28       		.uleb128 0x28
 5876 101c 7300     		.ascii	"s\000"
 5877 101e 01       		.byte	0x1
 5878 101f B501     		.2byte	0x1b5
 5879 1021 B30A0000 		.4byte	0xab3
 5880 1025 64010000 		.4byte	.LLST10
 5881 1029 20       		.uleb128 0x20
 5882 102a 0C000000 		.4byte	.LVL43
 5883 102e F8330000 		.4byte	0x33f8
 5884 1032 3D100000 		.4byte	0x103d
 5885 1036 21       		.uleb128 0x21
 5886 1037 01       		.uleb128 0x1
 5887 1038 50       		.byte	0x50
 5888 1039 02       		.uleb128 0x2
 5889 103a 74       		.byte	0x74
 5890 103b 00       		.sleb128 0
 5891 103c 00       		.byte	0
 5892 103d 20       		.uleb128 0x20
 5893 103e 12000000 		.4byte	.LVL44
 5894 1042 0A340000 		.4byte	0x340a
 5895 1046 50100000 		.4byte	0x1050
 5896 104a 21       		.uleb128 0x21
 5897 104b 01       		.uleb128 0x1
 5898 104c 50       		.byte	0x50
 5899 104d 01       		.uleb128 0x1
 5900 104e 32       		.byte	0x32
 5901 104f 00       		.byte	0
 5902 1050 20       		.uleb128 0x20
 5903 1051 1A000000 		.4byte	.LVL46
 5904 1055 0A340000 		.4byte	0x340a
 5905 1059 64100000 		.4byte	0x1064
 5906 105d 21       		.uleb128 0x21
 5907 105e 01       		.uleb128 0x1
 5908 105f 50       		.byte	0x50
 5909 1060 02       		.uleb128 0x2
 5910 1061 76       		.byte	0x76
 5911 1062 00       		.sleb128 0
 5912 1063 00       		.byte	0
 5913 1064 22       		.uleb128 0x22
 5914 1065 20000000 		.4byte	.LVL47
 5915 1069 1F340000 		.4byte	0x341f
 5916 106d 21       		.uleb128 0x21
 5917 106e 01       		.uleb128 0x1
 5918 106f 50       		.byte	0x50
 5919 1070 02       		.uleb128 0x2
 5920 1071 74       		.byte	0x74
 5921 1072 00       		.sleb128 0
 5922 1073 00       		.byte	0
 5923 1074 00       		.byte	0
 5924 1075 26       		.uleb128 0x26
 5925 1076 39040000 		.4byte	.LASF185
 5926 107a 01       		.byte	0x1
 5927 107b C701     		.2byte	0x1c7
 5928 107d B30A0000 		.4byte	0xab3
ARM GAS  /tmp/cctBdhRt.s 			page 105


 5929 1081 00000000 		.4byte	.LFB277
 5930 1085 28000000 		.4byte	.LFE277-.LFB277
 5931 1089 01       		.uleb128 0x1
 5932 108a 9C       		.byte	0x9c
 5933 108b E8100000 		.4byte	0x10e8
 5934 108f 28       		.uleb128 0x28
 5935 1090 7300     		.ascii	"s\000"
 5936 1092 01       		.byte	0x1
 5937 1093 C901     		.2byte	0x1c9
 5938 1095 B30A0000 		.4byte	0xab3
 5939 1099 77010000 		.4byte	.LLST11
 5940 109d 20       		.uleb128 0x20
 5941 109e 0A000000 		.4byte	.LVL49
 5942 10a2 F8330000 		.4byte	0x33f8
 5943 10a6 B1100000 		.4byte	0x10b1
 5944 10aa 21       		.uleb128 0x21
 5945 10ab 01       		.uleb128 0x1
 5946 10ac 50       		.byte	0x50
 5947 10ad 02       		.uleb128 0x2
 5948 10ae 74       		.byte	0x74
 5949 10af 00       		.sleb128 0
 5950 10b0 00       		.byte	0
 5951 10b1 20       		.uleb128 0x20
 5952 10b2 10000000 		.4byte	.LVL50
 5953 10b6 0A340000 		.4byte	0x340a
 5954 10ba C4100000 		.4byte	0x10c4
 5955 10be 21       		.uleb128 0x21
 5956 10bf 01       		.uleb128 0x1
 5957 10c0 50       		.byte	0x50
 5958 10c1 01       		.uleb128 0x1
 5959 10c2 3F       		.byte	0x3f
 5960 10c3 00       		.byte	0
 5961 10c4 20       		.uleb128 0x20
 5962 10c5 18000000 		.4byte	.LVL52
 5963 10c9 0A340000 		.4byte	0x340a
 5964 10cd D7100000 		.4byte	0x10d7
 5965 10d1 21       		.uleb128 0x21
 5966 10d2 01       		.uleb128 0x1
 5967 10d3 50       		.byte	0x50
 5968 10d4 01       		.uleb128 0x1
 5969 10d5 30       		.byte	0x30
 5970 10d6 00       		.byte	0
 5971 10d7 22       		.uleb128 0x22
 5972 10d8 1E000000 		.4byte	.LVL53
 5973 10dc 1F340000 		.4byte	0x341f
 5974 10e0 21       		.uleb128 0x21
 5975 10e1 01       		.uleb128 0x1
 5976 10e2 50       		.byte	0x50
 5977 10e3 02       		.uleb128 0x2
 5978 10e4 74       		.byte	0x74
 5979 10e5 00       		.sleb128 0
 5980 10e6 00       		.byte	0
 5981 10e7 00       		.byte	0
 5982 10e8 26       		.uleb128 0x26
 5983 10e9 5A040000 		.4byte	.LASF186
 5984 10ed 01       		.byte	0x1
 5985 10ee DD01     		.2byte	0x1dd
ARM GAS  /tmp/cctBdhRt.s 			page 106


 5986 10f0 B30A0000 		.4byte	0xab3
 5987 10f4 00000000 		.4byte	.LFB278
 5988 10f8 3C000000 		.4byte	.LFE278-.LFB278
 5989 10fc 01       		.uleb128 0x1
 5990 10fd 9C       		.byte	0x9c
 5991 10fe 99110000 		.4byte	0x1199
 5992 1102 29       		.uleb128 0x29
 5993 1103 B7060000 		.4byte	.LASF187
 5994 1107 01       		.byte	0x1
 5995 1108 DD01     		.2byte	0x1dd
 5996 110a BE0A0000 		.4byte	0xabe
 5997 110e 8A010000 		.4byte	.LLST12
 5998 1112 29       		.uleb128 0x29
 5999 1113 40010000 		.4byte	.LASF161
 6000 1117 01       		.byte	0x1
 6001 1118 DD01     		.2byte	0x1dd
 6002 111a BE0A0000 		.4byte	0xabe
 6003 111e AB010000 		.4byte	.LLST13
 6004 1122 29       		.uleb128 0x29
 6005 1123 C30B0000 		.4byte	.LASF188
 6006 1127 01       		.byte	0x1
 6007 1128 DD01     		.2byte	0x1dd
 6008 112a 99110000 		.4byte	0x1199
 6009 112e CC010000 		.4byte	.LLST14
 6010 1132 28       		.uleb128 0x28
 6011 1133 7300     		.ascii	"s\000"
 6012 1135 01       		.byte	0x1
 6013 1136 DF01     		.2byte	0x1df
 6014 1138 B30A0000 		.4byte	0xab3
 6015 113c F8010000 		.4byte	.LLST15
 6016 1140 2A       		.uleb128 0x2a
 6017 1141 0E000000 		.4byte	.LVL57
 6018 1145 F8330000 		.4byte	0x33f8
 6019 1149 20       		.uleb128 0x20
 6020 114a 18000000 		.4byte	.LVL58
 6021 114e 0A340000 		.4byte	0x340a
 6022 1152 61110000 		.4byte	0x1161
 6023 1156 21       		.uleb128 0x21
 6024 1157 01       		.uleb128 0x1
 6025 1158 50       		.byte	0x50
 6026 1159 06       		.uleb128 0x6
 6027 115a 74       		.byte	0x74
 6028 115b 00       		.sleb128 0
 6029 115c 38       		.byte	0x38
 6030 115d 25       		.byte	0x25
 6031 115e 40       		.byte	0x40
 6032 115f 21       		.byte	0x21
 6033 1160 00       		.byte	0
 6034 1161 20       		.uleb128 0x20
 6035 1162 20000000 		.4byte	.LVL60
 6036 1166 0A340000 		.4byte	0x340a
 6037 116a 75110000 		.4byte	0x1175
 6038 116e 21       		.uleb128 0x21
 6039 116f 01       		.uleb128 0x1
 6040 1170 50       		.byte	0x50
 6041 1171 02       		.uleb128 0x2
 6042 1172 74       		.byte	0x74
ARM GAS  /tmp/cctBdhRt.s 			page 107


 6043 1173 00       		.sleb128 0
 6044 1174 00       		.byte	0
 6045 1175 20       		.uleb128 0x20
 6046 1176 2C000000 		.4byte	.LVL61
 6047 117a 31340000 		.4byte	0x3431
 6048 117e 8F110000 		.4byte	0x118f
 6049 1182 21       		.uleb128 0x21
 6050 1183 01       		.uleb128 0x1
 6051 1184 52       		.byte	0x52
 6052 1185 02       		.uleb128 0x2
 6053 1186 77       		.byte	0x77
 6054 1187 00       		.sleb128 0
 6055 1188 21       		.uleb128 0x21
 6056 1189 01       		.uleb128 0x1
 6057 118a 51       		.byte	0x51
 6058 118b 02       		.uleb128 0x2
 6059 118c 75       		.byte	0x75
 6060 118d 00       		.sleb128 0
 6061 118e 00       		.byte	0
 6062 118f 2A       		.uleb128 0x2a
 6063 1190 32000000 		.4byte	.LVL62
 6064 1194 1F340000 		.4byte	0x341f
 6065 1198 00       		.byte	0
 6066 1199 0A       		.uleb128 0xa
 6067 119a 04       		.byte	0x4
 6068 119b B30A0000 		.4byte	0xab3
 6069 119f 26       		.uleb128 0x26
 6070 11a0 0E0B0000 		.4byte	.LASF189
 6071 11a4 01       		.byte	0x1
 6072 11a5 F201     		.2byte	0x1f2
 6073 11a7 B30A0000 		.4byte	0xab3
 6074 11ab 00000000 		.4byte	.LFB279
 6075 11af 34000000 		.4byte	.LFE279-.LFB279
 6076 11b3 01       		.uleb128 0x1
 6077 11b4 9C       		.byte	0x9c
 6078 11b5 3D120000 		.4byte	0x123d
 6079 11b9 29       		.uleb128 0x29
 6080 11ba B7060000 		.4byte	.LASF187
 6081 11be 01       		.byte	0x1
 6082 11bf F201     		.2byte	0x1f2
 6083 11c1 BE0A0000 		.4byte	0xabe
 6084 11c5 0B020000 		.4byte	.LLST16
 6085 11c9 2B       		.uleb128 0x2b
 6086 11ca 18040000 		.4byte	.LASF190
 6087 11ce 01       		.byte	0x1
 6088 11cf F401     		.2byte	0x1f4
 6089 11d1 B30A0000 		.4byte	0xab3
 6090 11d5 2C020000 		.4byte	.LLST17
 6091 11d9 20       		.uleb128 0x20
 6092 11da 0C000000 		.4byte	.LVL66
 6093 11de F8330000 		.4byte	0x33f8
 6094 11e2 ED110000 		.4byte	0x11ed
 6095 11e6 21       		.uleb128 0x21
 6096 11e7 01       		.uleb128 0x1
 6097 11e8 50       		.byte	0x50
 6098 11e9 02       		.uleb128 0x2
 6099 11ea 74       		.byte	0x74
ARM GAS  /tmp/cctBdhRt.s 			page 108


 6100 11eb 00       		.sleb128 0
 6101 11ec 00       		.byte	0
 6102 11ed 20       		.uleb128 0x20
 6103 11ee 16000000 		.4byte	.LVL67
 6104 11f2 0A340000 		.4byte	0x340a
 6105 11f6 05120000 		.4byte	0x1205
 6106 11fa 21       		.uleb128 0x21
 6107 11fb 01       		.uleb128 0x1
 6108 11fc 50       		.byte	0x50
 6109 11fd 06       		.uleb128 0x6
 6110 11fe 75       		.byte	0x75
 6111 11ff 00       		.sleb128 0
 6112 1200 38       		.byte	0x38
 6113 1201 25       		.byte	0x25
 6114 1202 40       		.byte	0x40
 6115 1203 21       		.byte	0x21
 6116 1204 00       		.byte	0
 6117 1205 20       		.uleb128 0x20
 6118 1206 1C000000 		.4byte	.LVL68
 6119 120a 0A340000 		.4byte	0x340a
 6120 120e 19120000 		.4byte	0x1219
 6121 1212 21       		.uleb128 0x21
 6122 1213 01       		.uleb128 0x1
 6123 1214 50       		.byte	0x50
 6124 1215 02       		.uleb128 0x2
 6125 1216 75       		.byte	0x75
 6126 1217 00       		.sleb128 0
 6127 1218 00       		.byte	0
 6128 1219 20       		.uleb128 0x20
 6129 121a 22000000 		.4byte	.LVL69
 6130 121e 0A340000 		.4byte	0x340a
 6131 1222 2C120000 		.4byte	0x122c
 6132 1226 21       		.uleb128 0x21
 6133 1227 01       		.uleb128 0x1
 6134 1228 50       		.byte	0x50
 6135 1229 01       		.uleb128 0x1
 6136 122a 30       		.byte	0x30
 6137 122b 00       		.byte	0
 6138 122c 22       		.uleb128 0x22
 6139 122d 2A000000 		.4byte	.LVL71
 6140 1231 1F340000 		.4byte	0x341f
 6141 1235 21       		.uleb128 0x21
 6142 1236 01       		.uleb128 0x1
 6143 1237 50       		.byte	0x50
 6144 1238 02       		.uleb128 0x2
 6145 1239 74       		.byte	0x74
 6146 123a 00       		.sleb128 0
 6147 123b 00       		.byte	0
 6148 123c 00       		.byte	0
 6149 123d 26       		.uleb128 0x26
 6150 123e 80030000 		.4byte	.LASF191
 6151 1242 01       		.byte	0x1
 6152 1243 0702     		.2byte	0x207
 6153 1245 BE0A0000 		.4byte	0xabe
 6154 1249 00000000 		.4byte	.LFB280
 6155 124d 44000000 		.4byte	.LFE280-.LFB280
 6156 1251 01       		.uleb128 0x1
ARM GAS  /tmp/cctBdhRt.s 			page 109


 6157 1252 9C       		.byte	0x9c
 6158 1253 EE120000 		.4byte	0x12ee
 6159 1257 29       		.uleb128 0x29
 6160 1258 B7060000 		.4byte	.LASF187
 6161 125c 01       		.byte	0x1
 6162 125d 0702     		.2byte	0x207
 6163 125f BE0A0000 		.4byte	0xabe
 6164 1263 3F020000 		.4byte	.LLST18
 6165 1267 2B       		.uleb128 0x2b
 6166 1268 18040000 		.4byte	.LASF190
 6167 126c 01       		.byte	0x1
 6168 126d 0902     		.2byte	0x209
 6169 126f 0E0B0000 		.4byte	0xb0e
 6170 1273 60020000 		.4byte	.LLST19
 6171 1277 20       		.uleb128 0x20
 6172 1278 0C000000 		.4byte	.LVL75
 6173 127c F8330000 		.4byte	0x33f8
 6174 1280 8B120000 		.4byte	0x128b
 6175 1284 21       		.uleb128 0x21
 6176 1285 01       		.uleb128 0x1
 6177 1286 50       		.byte	0x50
 6178 1287 02       		.uleb128 0x2
 6179 1288 75       		.byte	0x75
 6180 1289 00       		.sleb128 0
 6181 128a 00       		.byte	0
 6182 128b 20       		.uleb128 0x20
 6183 128c 16000000 		.4byte	.LVL76
 6184 1290 0A340000 		.4byte	0x340a
 6185 1294 A3120000 		.4byte	0x12a3
 6186 1298 21       		.uleb128 0x21
 6187 1299 01       		.uleb128 0x1
 6188 129a 50       		.byte	0x50
 6189 129b 06       		.uleb128 0x6
 6190 129c 74       		.byte	0x74
 6191 129d 00       		.sleb128 0
 6192 129e 38       		.byte	0x38
 6193 129f 25       		.byte	0x25
 6194 12a0 40       		.byte	0x40
 6195 12a1 21       		.byte	0x21
 6196 12a2 00       		.byte	0
 6197 12a3 20       		.uleb128 0x20
 6198 12a4 1C000000 		.4byte	.LVL77
 6199 12a8 0A340000 		.4byte	0x340a
 6200 12ac B7120000 		.4byte	0x12b7
 6201 12b0 21       		.uleb128 0x21
 6202 12b1 01       		.uleb128 0x1
 6203 12b2 50       		.byte	0x50
 6204 12b3 02       		.uleb128 0x2
 6205 12b4 74       		.byte	0x74
 6206 12b5 00       		.sleb128 0
 6207 12b6 00       		.byte	0
 6208 12b7 20       		.uleb128 0x20
 6209 12b8 22000000 		.4byte	.LVL78
 6210 12bc 0A340000 		.4byte	0x340a
 6211 12c0 CA120000 		.4byte	0x12ca
 6212 12c4 21       		.uleb128 0x21
 6213 12c5 01       		.uleb128 0x1
ARM GAS  /tmp/cctBdhRt.s 			page 110


 6214 12c6 50       		.byte	0x50
 6215 12c7 01       		.uleb128 0x1
 6216 12c8 30       		.byte	0x30
 6217 12c9 00       		.byte	0
 6218 12ca 20       		.uleb128 0x20
 6219 12cb 30000000 		.4byte	.LVL81
 6220 12cf 0A340000 		.4byte	0x340a
 6221 12d3 DD120000 		.4byte	0x12dd
 6222 12d7 21       		.uleb128 0x21
 6223 12d8 01       		.uleb128 0x1
 6224 12d9 50       		.byte	0x50
 6225 12da 01       		.uleb128 0x1
 6226 12db 30       		.byte	0x30
 6227 12dc 00       		.byte	0
 6228 12dd 22       		.uleb128 0x22
 6229 12de 3A000000 		.4byte	.LVL82
 6230 12e2 1F340000 		.4byte	0x341f
 6231 12e6 21       		.uleb128 0x21
 6232 12e7 01       		.uleb128 0x1
 6233 12e8 50       		.byte	0x50
 6234 12e9 02       		.uleb128 0x2
 6235 12ea 75       		.byte	0x75
 6236 12eb 00       		.sleb128 0
 6237 12ec 00       		.byte	0
 6238 12ed 00       		.byte	0
 6239 12ee 26       		.uleb128 0x26
 6240 12ef EC030000 		.4byte	.LASF192
 6241 12f3 01       		.byte	0x1
 6242 12f4 1D02     		.2byte	0x21d
 6243 12f6 C90A0000 		.4byte	0xac9
 6244 12fa 00000000 		.4byte	.LFB281
 6245 12fe 50000000 		.4byte	.LFE281-.LFB281
 6246 1302 01       		.uleb128 0x1
 6247 1303 9C       		.byte	0x9c
 6248 1304 B2130000 		.4byte	0x13b2
 6249 1308 29       		.uleb128 0x29
 6250 1309 B7060000 		.4byte	.LASF187
 6251 130d 01       		.byte	0x1
 6252 130e 1D02     		.2byte	0x21d
 6253 1310 BE0A0000 		.4byte	0xabe
 6254 1314 73020000 		.4byte	.LLST20
 6255 1318 2B       		.uleb128 0x2b
 6256 1319 18040000 		.4byte	.LASF190
 6257 131d 01       		.byte	0x1
 6258 131e 1F02     		.2byte	0x21f
 6259 1320 6A0B0000 		.4byte	0xb6a
 6260 1324 94020000 		.4byte	.LLST21
 6261 1328 20       		.uleb128 0x20
 6262 1329 0C000000 		.4byte	.LVL86
 6263 132d F8330000 		.4byte	0x33f8
 6264 1331 3C130000 		.4byte	0x133c
 6265 1335 21       		.uleb128 0x21
 6266 1336 01       		.uleb128 0x1
 6267 1337 50       		.byte	0x50
 6268 1338 02       		.uleb128 0x2
 6269 1339 75       		.byte	0x75
 6270 133a 00       		.sleb128 0
ARM GAS  /tmp/cctBdhRt.s 			page 111


 6271 133b 00       		.byte	0
 6272 133c 20       		.uleb128 0x20
 6273 133d 16000000 		.4byte	.LVL87
 6274 1341 0A340000 		.4byte	0x340a
 6275 1345 54130000 		.4byte	0x1354
 6276 1349 21       		.uleb128 0x21
 6277 134a 01       		.uleb128 0x1
 6278 134b 50       		.byte	0x50
 6279 134c 06       		.uleb128 0x6
 6280 134d 74       		.byte	0x74
 6281 134e 00       		.sleb128 0
 6282 134f 38       		.byte	0x38
 6283 1350 25       		.byte	0x25
 6284 1351 40       		.byte	0x40
 6285 1352 21       		.byte	0x21
 6286 1353 00       		.byte	0
 6287 1354 20       		.uleb128 0x20
 6288 1355 1C000000 		.4byte	.LVL88
 6289 1359 0A340000 		.4byte	0x340a
 6290 135d 68130000 		.4byte	0x1368
 6291 1361 21       		.uleb128 0x21
 6292 1362 01       		.uleb128 0x1
 6293 1363 50       		.byte	0x50
 6294 1364 02       		.uleb128 0x2
 6295 1365 74       		.byte	0x74
 6296 1366 00       		.sleb128 0
 6297 1367 00       		.byte	0
 6298 1368 20       		.uleb128 0x20
 6299 1369 22000000 		.4byte	.LVL89
 6300 136d 0A340000 		.4byte	0x340a
 6301 1371 7B130000 		.4byte	0x137b
 6302 1375 21       		.uleb128 0x21
 6303 1376 01       		.uleb128 0x1
 6304 1377 50       		.byte	0x50
 6305 1378 01       		.uleb128 0x1
 6306 1379 30       		.byte	0x30
 6307 137a 00       		.byte	0
 6308 137b 20       		.uleb128 0x20
 6309 137c 2E000000 		.4byte	.LVL92
 6310 1380 0A340000 		.4byte	0x340a
 6311 1384 8E130000 		.4byte	0x138e
 6312 1388 21       		.uleb128 0x21
 6313 1389 01       		.uleb128 0x1
 6314 138a 50       		.byte	0x50
 6315 138b 01       		.uleb128 0x1
 6316 138c 30       		.byte	0x30
 6317 138d 00       		.byte	0
 6318 138e 20       		.uleb128 0x20
 6319 138f 38000000 		.4byte	.LVL93
 6320 1393 0A340000 		.4byte	0x340a
 6321 1397 A1130000 		.4byte	0x13a1
 6322 139b 21       		.uleb128 0x21
 6323 139c 01       		.uleb128 0x1
 6324 139d 50       		.byte	0x50
 6325 139e 01       		.uleb128 0x1
 6326 139f 30       		.byte	0x30
 6327 13a0 00       		.byte	0
ARM GAS  /tmp/cctBdhRt.s 			page 112


 6328 13a1 22       		.uleb128 0x22
 6329 13a2 46000000 		.4byte	.LVL94
 6330 13a6 1F340000 		.4byte	0x341f
 6331 13aa 21       		.uleb128 0x21
 6332 13ab 01       		.uleb128 0x1
 6333 13ac 50       		.byte	0x50
 6334 13ad 02       		.uleb128 0x2
 6335 13ae 75       		.byte	0x75
 6336 13af 00       		.sleb128 0
 6337 13b0 00       		.byte	0
 6338 13b1 00       		.byte	0
 6339 13b2 26       		.uleb128 0x26
 6340 13b3 ED050000 		.4byte	.LASF193
 6341 13b7 01       		.byte	0x1
 6342 13b8 3702     		.2byte	0x237
 6343 13ba B30A0000 		.4byte	0xab3
 6344 13be 00000000 		.4byte	.LFB282
 6345 13c2 3C000000 		.4byte	.LFE282-.LFB282
 6346 13c6 01       		.uleb128 0x1
 6347 13c7 9C       		.byte	0x9c
 6348 13c8 64140000 		.4byte	0x1464
 6349 13cc 29       		.uleb128 0x29
 6350 13cd B7060000 		.4byte	.LASF187
 6351 13d1 01       		.byte	0x1
 6352 13d2 3702     		.2byte	0x237
 6353 13d4 BE0A0000 		.4byte	0xabe
 6354 13d8 A7020000 		.4byte	.LLST22
 6355 13dc 29       		.uleb128 0x29
 6356 13dd 40010000 		.4byte	.LASF161
 6357 13e1 01       		.byte	0x1
 6358 13e2 3702     		.2byte	0x237
 6359 13e4 BE0A0000 		.4byte	0xabe
 6360 13e8 C8020000 		.4byte	.LLST23
 6361 13ec 29       		.uleb128 0x29
 6362 13ed C30B0000 		.4byte	.LASF188
 6363 13f1 01       		.byte	0x1
 6364 13f2 3702     		.2byte	0x237
 6365 13f4 99110000 		.4byte	0x1199
 6366 13f8 E9020000 		.4byte	.LLST24
 6367 13fc 28       		.uleb128 0x28
 6368 13fd 7300     		.ascii	"s\000"
 6369 13ff 01       		.byte	0x1
 6370 1400 3902     		.2byte	0x239
 6371 1402 B30A0000 		.4byte	0xab3
 6372 1406 15030000 		.4byte	.LLST25
 6373 140a 2A       		.uleb128 0x2a
 6374 140b 0E000000 		.4byte	.LVL98
 6375 140f F8330000 		.4byte	0x33f8
 6376 1413 20       		.uleb128 0x20
 6377 1414 18000000 		.4byte	.LVL99
 6378 1418 0A340000 		.4byte	0x340a
 6379 141c 2C140000 		.4byte	0x142c
 6380 1420 21       		.uleb128 0x21
 6381 1421 01       		.uleb128 0x1
 6382 1422 50       		.byte	0x50
 6383 1423 07       		.uleb128 0x7
 6384 1424 74       		.byte	0x74
ARM GAS  /tmp/cctBdhRt.s 			page 113


 6385 1425 00       		.sleb128 0
 6386 1426 38       		.byte	0x38
 6387 1427 25       		.byte	0x25
 6388 1428 08       		.byte	0x8
 6389 1429 20       		.byte	0x20
 6390 142a 21       		.byte	0x21
 6391 142b 00       		.byte	0
 6392 142c 20       		.uleb128 0x20
 6393 142d 20000000 		.4byte	.LVL101
 6394 1431 0A340000 		.4byte	0x340a
 6395 1435 40140000 		.4byte	0x1440
 6396 1439 21       		.uleb128 0x21
 6397 143a 01       		.uleb128 0x1
 6398 143b 50       		.byte	0x50
 6399 143c 02       		.uleb128 0x2
 6400 143d 74       		.byte	0x74
 6401 143e 00       		.sleb128 0
 6402 143f 00       		.byte	0
 6403 1440 20       		.uleb128 0x20
 6404 1441 2C000000 		.4byte	.LVL102
 6405 1445 4D340000 		.4byte	0x344d
 6406 1449 5A140000 		.4byte	0x145a
 6407 144d 21       		.uleb128 0x21
 6408 144e 01       		.uleb128 0x1
 6409 144f 52       		.byte	0x52
 6410 1450 02       		.uleb128 0x2
 6411 1451 77       		.byte	0x77
 6412 1452 00       		.sleb128 0
 6413 1453 21       		.uleb128 0x21
 6414 1454 01       		.uleb128 0x1
 6415 1455 51       		.byte	0x51
 6416 1456 02       		.uleb128 0x2
 6417 1457 75       		.byte	0x75
 6418 1458 00       		.sleb128 0
 6419 1459 00       		.byte	0
 6420 145a 2A       		.uleb128 0x2a
 6421 145b 32000000 		.4byte	.LVL103
 6422 145f 1F340000 		.4byte	0x341f
 6423 1463 00       		.byte	0
 6424 1464 26       		.uleb128 0x26
 6425 1465 1C050000 		.4byte	.LASF194
 6426 1469 01       		.byte	0x1
 6427 146a 4D02     		.2byte	0x24d
 6428 146c B30A0000 		.4byte	0xab3
 6429 1470 00000000 		.4byte	.LFB283
 6430 1474 34000000 		.4byte	.LFE283-.LFB283
 6431 1478 01       		.uleb128 0x1
 6432 1479 9C       		.byte	0x9c
 6433 147a 12150000 		.4byte	0x1512
 6434 147e 29       		.uleb128 0x29
 6435 147f B7060000 		.4byte	.LASF187
 6436 1483 01       		.byte	0x1
 6437 1484 4D02     		.2byte	0x24d
 6438 1486 BE0A0000 		.4byte	0xabe
 6439 148a 28030000 		.4byte	.LLST26
 6440 148e 29       		.uleb128 0x29
 6441 148f 18040000 		.4byte	.LASF190
ARM GAS  /tmp/cctBdhRt.s 			page 114


 6442 1493 01       		.byte	0x1
 6443 1494 4D02     		.2byte	0x24d
 6444 1496 B30A0000 		.4byte	0xab3
 6445 149a 49030000 		.4byte	.LLST27
 6446 149e 28       		.uleb128 0x28
 6447 149f 7300     		.ascii	"s\000"
 6448 14a1 01       		.byte	0x1
 6449 14a2 4F02     		.2byte	0x24f
 6450 14a4 B30A0000 		.4byte	0xab3
 6451 14a8 6A030000 		.4byte	.LLST28
 6452 14ac 20       		.uleb128 0x20
 6453 14ad 0E000000 		.4byte	.LVL107
 6454 14b1 F8330000 		.4byte	0x33f8
 6455 14b5 C0140000 		.4byte	0x14c0
 6456 14b9 21       		.uleb128 0x21
 6457 14ba 01       		.uleb128 0x1
 6458 14bb 50       		.byte	0x50
 6459 14bc 02       		.uleb128 0x2
 6460 14bd 74       		.byte	0x74
 6461 14be 00       		.sleb128 0
 6462 14bf 00       		.byte	0
 6463 14c0 20       		.uleb128 0x20
 6464 14c1 18000000 		.4byte	.LVL108
 6465 14c5 0A340000 		.4byte	0x340a
 6466 14c9 D9140000 		.4byte	0x14d9
 6467 14cd 21       		.uleb128 0x21
 6468 14ce 01       		.uleb128 0x1
 6469 14cf 50       		.byte	0x50
 6470 14d0 07       		.uleb128 0x7
 6471 14d1 75       		.byte	0x75
 6472 14d2 00       		.sleb128 0
 6473 14d3 38       		.byte	0x38
 6474 14d4 25       		.byte	0x25
 6475 14d5 08       		.byte	0x8
 6476 14d6 20       		.byte	0x20
 6477 14d7 21       		.byte	0x21
 6478 14d8 00       		.byte	0
 6479 14d9 20       		.uleb128 0x20
 6480 14da 20000000 		.4byte	.LVL110
 6481 14de 0A340000 		.4byte	0x340a
 6482 14e2 ED140000 		.4byte	0x14ed
 6483 14e6 21       		.uleb128 0x21
 6484 14e7 01       		.uleb128 0x1
 6485 14e8 50       		.byte	0x50
 6486 14e9 02       		.uleb128 0x2
 6487 14ea 75       		.byte	0x75
 6488 14eb 00       		.sleb128 0
 6489 14ec 00       		.byte	0
 6490 14ed 20       		.uleb128 0x20
 6491 14ee 26000000 		.4byte	.LVL111
 6492 14f2 0A340000 		.4byte	0x340a
 6493 14f6 01150000 		.4byte	0x1501
 6494 14fa 21       		.uleb128 0x21
 6495 14fb 01       		.uleb128 0x1
 6496 14fc 50       		.byte	0x50
 6497 14fd 02       		.uleb128 0x2
 6498 14fe 77       		.byte	0x77
ARM GAS  /tmp/cctBdhRt.s 			page 115


 6499 14ff 00       		.sleb128 0
 6500 1500 00       		.byte	0
 6501 1501 22       		.uleb128 0x22
 6502 1502 2C000000 		.4byte	.LVL112
 6503 1506 1F340000 		.4byte	0x341f
 6504 150a 21       		.uleb128 0x21
 6505 150b 01       		.uleb128 0x1
 6506 150c 50       		.byte	0x50
 6507 150d 02       		.uleb128 0x2
 6508 150e 74       		.byte	0x74
 6509 150f 00       		.sleb128 0
 6510 1510 00       		.byte	0
 6511 1511 00       		.byte	0
 6512 1512 26       		.uleb128 0x26
 6513 1513 D0060000 		.4byte	.LASF195
 6514 1517 01       		.byte	0x1
 6515 1518 6302     		.2byte	0x263
 6516 151a B30A0000 		.4byte	0xab3
 6517 151e 00000000 		.4byte	.LFB284
 6518 1522 3C000000 		.4byte	.LFE284-.LFB284
 6519 1526 01       		.uleb128 0x1
 6520 1527 9C       		.byte	0x9c
 6521 1528 D6150000 		.4byte	0x15d6
 6522 152c 29       		.uleb128 0x29
 6523 152d B7060000 		.4byte	.LASF187
 6524 1531 01       		.byte	0x1
 6525 1532 6302     		.2byte	0x263
 6526 1534 BE0A0000 		.4byte	0xabe
 6527 1538 7D030000 		.4byte	.LLST29
 6528 153c 29       		.uleb128 0x29
 6529 153d 18040000 		.4byte	.LASF190
 6530 1541 01       		.byte	0x1
 6531 1542 6302     		.2byte	0x263
 6532 1544 BE0A0000 		.4byte	0xabe
 6533 1548 9E030000 		.4byte	.LLST30
 6534 154c 28       		.uleb128 0x28
 6535 154d 7300     		.ascii	"s\000"
 6536 154f 01       		.byte	0x1
 6537 1550 6502     		.2byte	0x265
 6538 1552 B30A0000 		.4byte	0xab3
 6539 1556 BF030000 		.4byte	.LLST31
 6540 155a 20       		.uleb128 0x20
 6541 155b 0E000000 		.4byte	.LVL116
 6542 155f F8330000 		.4byte	0x33f8
 6543 1563 6E150000 		.4byte	0x156e
 6544 1567 21       		.uleb128 0x21
 6545 1568 01       		.uleb128 0x1
 6546 1569 50       		.byte	0x50
 6547 156a 02       		.uleb128 0x2
 6548 156b 74       		.byte	0x74
 6549 156c 00       		.sleb128 0
 6550 156d 00       		.byte	0
 6551 156e 20       		.uleb128 0x20
 6552 156f 18000000 		.4byte	.LVL117
 6553 1573 0A340000 		.4byte	0x340a
 6554 1577 87150000 		.4byte	0x1587
 6555 157b 21       		.uleb128 0x21
ARM GAS  /tmp/cctBdhRt.s 			page 116


 6556 157c 01       		.uleb128 0x1
 6557 157d 50       		.byte	0x50
 6558 157e 07       		.uleb128 0x7
 6559 157f 76       		.byte	0x76
 6560 1580 00       		.sleb128 0
 6561 1581 38       		.byte	0x38
 6562 1582 25       		.byte	0x25
 6563 1583 08       		.byte	0x8
 6564 1584 20       		.byte	0x20
 6565 1585 21       		.byte	0x21
 6566 1586 00       		.byte	0
 6567 1587 20       		.uleb128 0x20
 6568 1588 20000000 		.4byte	.LVL119
 6569 158c 0A340000 		.4byte	0x340a
 6570 1590 9B150000 		.4byte	0x159b
 6571 1594 21       		.uleb128 0x21
 6572 1595 01       		.uleb128 0x1
 6573 1596 50       		.byte	0x50
 6574 1597 02       		.uleb128 0x2
 6575 1598 76       		.byte	0x76
 6576 1599 00       		.sleb128 0
 6577 159a 00       		.byte	0
 6578 159b 20       		.uleb128 0x20
 6579 159c 26000000 		.4byte	.LVL120
 6580 15a0 0A340000 		.4byte	0x340a
 6581 15a4 AF150000 		.4byte	0x15af
 6582 15a8 21       		.uleb128 0x21
 6583 15a9 01       		.uleb128 0x1
 6584 15aa 50       		.byte	0x50
 6585 15ab 02       		.uleb128 0x2
 6586 15ac 75       		.byte	0x75
 6587 15ad 00       		.sleb128 0
 6588 15ae 00       		.byte	0
 6589 15af 20       		.uleb128 0x20
 6590 15b0 2C000000 		.4byte	.LVL121
 6591 15b4 0A340000 		.4byte	0x340a
 6592 15b8 C5150000 		.4byte	0x15c5
 6593 15bc 21       		.uleb128 0x21
 6594 15bd 01       		.uleb128 0x1
 6595 15be 50       		.byte	0x50
 6596 15bf 04       		.uleb128 0x4
 6597 15c0 75       		.byte	0x75
 6598 15c1 00       		.sleb128 0
 6599 15c2 38       		.byte	0x38
 6600 15c3 25       		.byte	0x25
 6601 15c4 00       		.byte	0
 6602 15c5 22       		.uleb128 0x22
 6603 15c6 32000000 		.4byte	.LVL122
 6604 15ca 1F340000 		.4byte	0x341f
 6605 15ce 21       		.uleb128 0x21
 6606 15cf 01       		.uleb128 0x1
 6607 15d0 50       		.byte	0x50
 6608 15d1 02       		.uleb128 0x2
 6609 15d2 74       		.byte	0x74
 6610 15d3 00       		.sleb128 0
 6611 15d4 00       		.byte	0
 6612 15d5 00       		.byte	0
ARM GAS  /tmp/cctBdhRt.s 			page 117


 6613 15d6 26       		.uleb128 0x26
 6614 15d7 44070000 		.4byte	.LASF196
 6615 15db 01       		.byte	0x1
 6616 15dc 7A02     		.2byte	0x27a
 6617 15de B30A0000 		.4byte	0xab3
 6618 15e2 00000000 		.4byte	.LFB285
 6619 15e6 44000000 		.4byte	.LFE285-.LFB285
 6620 15ea 01       		.uleb128 0x1
 6621 15eb 9C       		.byte	0x9c
 6622 15ec B8160000 		.4byte	0x16b8
 6623 15f0 29       		.uleb128 0x29
 6624 15f1 B7060000 		.4byte	.LASF187
 6625 15f5 01       		.byte	0x1
 6626 15f6 7A02     		.2byte	0x27a
 6627 15f8 BE0A0000 		.4byte	0xabe
 6628 15fc D2030000 		.4byte	.LLST32
 6629 1600 29       		.uleb128 0x29
 6630 1601 18040000 		.4byte	.LASF190
 6631 1605 01       		.byte	0x1
 6632 1606 7A02     		.2byte	0x27a
 6633 1608 C90A0000 		.4byte	0xac9
 6634 160c F3030000 		.4byte	.LLST33
 6635 1610 28       		.uleb128 0x28
 6636 1611 7300     		.ascii	"s\000"
 6637 1613 01       		.byte	0x1
 6638 1614 7C02     		.2byte	0x27c
 6639 1616 B30A0000 		.4byte	0xab3
 6640 161a 1F040000 		.4byte	.LLST34
 6641 161e 20       		.uleb128 0x20
 6642 161f 0E000000 		.4byte	.LVL126
 6643 1623 F8330000 		.4byte	0x33f8
 6644 1627 32160000 		.4byte	0x1632
 6645 162b 21       		.uleb128 0x21
 6646 162c 01       		.uleb128 0x1
 6647 162d 50       		.byte	0x50
 6648 162e 02       		.uleb128 0x2
 6649 162f 75       		.byte	0x75
 6650 1630 00       		.sleb128 0
 6651 1631 00       		.byte	0
 6652 1632 20       		.uleb128 0x20
 6653 1633 18000000 		.4byte	.LVL127
 6654 1637 0A340000 		.4byte	0x340a
 6655 163b 4B160000 		.4byte	0x164b
 6656 163f 21       		.uleb128 0x21
 6657 1640 01       		.uleb128 0x1
 6658 1641 50       		.byte	0x50
 6659 1642 07       		.uleb128 0x7
 6660 1643 76       		.byte	0x76
 6661 1644 00       		.sleb128 0
 6662 1645 38       		.byte	0x38
 6663 1646 25       		.byte	0x25
 6664 1647 08       		.byte	0x8
 6665 1648 20       		.byte	0x20
 6666 1649 21       		.byte	0x21
 6667 164a 00       		.byte	0
 6668 164b 20       		.uleb128 0x20
 6669 164c 20000000 		.4byte	.LVL129
ARM GAS  /tmp/cctBdhRt.s 			page 118


 6670 1650 0A340000 		.4byte	0x340a
 6671 1654 5F160000 		.4byte	0x165f
 6672 1658 21       		.uleb128 0x21
 6673 1659 01       		.uleb128 0x1
 6674 165a 50       		.byte	0x50
 6675 165b 02       		.uleb128 0x2
 6676 165c 76       		.byte	0x76
 6677 165d 00       		.sleb128 0
 6678 165e 00       		.byte	0
 6679 165f 20       		.uleb128 0x20
 6680 1660 26000000 		.4byte	.LVL130
 6681 1664 0A340000 		.4byte	0x340a
 6682 1668 73160000 		.4byte	0x1673
 6683 166c 21       		.uleb128 0x21
 6684 166d 01       		.uleb128 0x1
 6685 166e 50       		.byte	0x50
 6686 166f 02       		.uleb128 0x2
 6687 1670 74       		.byte	0x74
 6688 1671 00       		.sleb128 0
 6689 1672 00       		.byte	0
 6690 1673 20       		.uleb128 0x20
 6691 1674 2E000000 		.4byte	.LVL131
 6692 1678 0A340000 		.4byte	0x340a
 6693 167c 8D160000 		.4byte	0x168d
 6694 1680 21       		.uleb128 0x21
 6695 1681 01       		.uleb128 0x1
 6696 1682 50       		.byte	0x50
 6697 1683 08       		.uleb128 0x8
 6698 1684 74       		.byte	0x74
 6699 1685 00       		.sleb128 0
 6700 1686 09       		.byte	0x9
 6701 1687 F4       		.byte	0xf4
 6702 1688 24       		.byte	0x24
 6703 1689 09       		.byte	0x9
 6704 168a FC       		.byte	0xfc
 6705 168b 25       		.byte	0x25
 6706 168c 00       		.byte	0
 6707 168d 20       		.uleb128 0x20
 6708 168e 36000000 		.4byte	.LVL132
 6709 1692 0A340000 		.4byte	0x340a
 6710 1696 A7160000 		.4byte	0x16a7
 6711 169a 21       		.uleb128 0x21
 6712 169b 01       		.uleb128 0x1
 6713 169c 50       		.byte	0x50
 6714 169d 08       		.uleb128 0x8
 6715 169e 74       		.byte	0x74
 6716 169f 00       		.sleb128 0
 6717 16a0 09       		.byte	0x9
 6718 16a1 EC       		.byte	0xec
 6719 16a2 24       		.byte	0x24
 6720 16a3 09       		.byte	0x9
 6721 16a4 FC       		.byte	0xfc
 6722 16a5 25       		.byte	0x25
 6723 16a6 00       		.byte	0
 6724 16a7 22       		.uleb128 0x22
 6725 16a8 3C000000 		.4byte	.LVL133
 6726 16ac 1F340000 		.4byte	0x341f
ARM GAS  /tmp/cctBdhRt.s 			page 119


 6727 16b0 21       		.uleb128 0x21
 6728 16b1 01       		.uleb128 0x1
 6729 16b2 50       		.byte	0x50
 6730 16b3 02       		.uleb128 0x2
 6731 16b4 75       		.byte	0x75
 6732 16b5 00       		.sleb128 0
 6733 16b6 00       		.byte	0
 6734 16b7 00       		.byte	0
 6735 16b8 26       		.uleb128 0x26
 6736 16b9 ED0B0000 		.4byte	.LASF197
 6737 16bd 01       		.byte	0x1
 6738 16be 9202     		.2byte	0x292
 6739 16c0 B30A0000 		.4byte	0xab3
 6740 16c4 00000000 		.4byte	.LFB286
 6741 16c8 30000000 		.4byte	.LFE286-.LFB286
 6742 16cc 01       		.uleb128 0x1
 6743 16cd 9C       		.byte	0x9c
 6744 16ce 41170000 		.4byte	0x1741
 6745 16d2 29       		.uleb128 0x29
 6746 16d3 40010000 		.4byte	.LASF161
 6747 16d7 01       		.byte	0x1
 6748 16d8 9202     		.2byte	0x292
 6749 16da B30A0000 		.4byte	0xab3
 6750 16de 32040000 		.4byte	.LLST35
 6751 16e2 29       		.uleb128 0x29
 6752 16e3 C30B0000 		.4byte	.LASF188
 6753 16e7 01       		.byte	0x1
 6754 16e8 9202     		.2byte	0x292
 6755 16ea 99110000 		.4byte	0x1199
 6756 16ee 53040000 		.4byte	.LLST36
 6757 16f2 28       		.uleb128 0x28
 6758 16f3 7300     		.ascii	"s\000"
 6759 16f5 01       		.byte	0x1
 6760 16f6 9402     		.2byte	0x294
 6761 16f8 B30A0000 		.4byte	0xab3
 6762 16fc 7F040000 		.4byte	.LLST37
 6763 1700 2A       		.uleb128 0x2a
 6764 1701 0C000000 		.4byte	.LVL137
 6765 1705 F8330000 		.4byte	0x33f8
 6766 1709 20       		.uleb128 0x20
 6767 170a 12000000 		.4byte	.LVL138
 6768 170e 0A340000 		.4byte	0x340a
 6769 1712 1D170000 		.4byte	0x171d
 6770 1716 21       		.uleb128 0x21
 6771 1717 01       		.uleb128 0x1
 6772 1718 50       		.byte	0x50
 6773 1719 02       		.uleb128 0x2
 6774 171a 08       		.byte	0x8
 6775 171b 30       		.byte	0x30
 6776 171c 00       		.byte	0
 6777 171d 20       		.uleb128 0x20
 6778 171e 20000000 		.4byte	.LVL140
 6779 1722 31340000 		.4byte	0x3431
 6780 1726 37170000 		.4byte	0x1737
 6781 172a 21       		.uleb128 0x21
 6782 172b 01       		.uleb128 0x1
 6783 172c 52       		.byte	0x52
ARM GAS  /tmp/cctBdhRt.s 			page 120


 6784 172d 02       		.uleb128 0x2
 6785 172e 76       		.byte	0x76
 6786 172f 00       		.sleb128 0
 6787 1730 21       		.uleb128 0x21
 6788 1731 01       		.uleb128 0x1
 6789 1732 51       		.byte	0x51
 6790 1733 02       		.uleb128 0x2
 6791 1734 74       		.byte	0x74
 6792 1735 00       		.sleb128 0
 6793 1736 00       		.byte	0
 6794 1737 2A       		.uleb128 0x2a
 6795 1738 26000000 		.4byte	.LVL141
 6796 173c 1F340000 		.4byte	0x341f
 6797 1740 00       		.byte	0
 6798 1741 26       		.uleb128 0x26
 6799 1742 48060000 		.4byte	.LASF198
 6800 1746 01       		.byte	0x1
 6801 1747 A602     		.2byte	0x2a6
 6802 1749 B30A0000 		.4byte	0xab3
 6803 174d 00000000 		.4byte	.LFB287
 6804 1751 28000000 		.4byte	.LFE287-.LFB287
 6805 1755 01       		.uleb128 0x1
 6806 1756 9C       		.byte	0x9c
 6807 1757 B7170000 		.4byte	0x17b7
 6808 175b 2B       		.uleb128 0x2b
 6809 175c 18040000 		.4byte	.LASF190
 6810 1760 01       		.byte	0x1
 6811 1761 A802     		.2byte	0x2a8
 6812 1763 B30A0000 		.4byte	0xab3
 6813 1767 92040000 		.4byte	.LLST38
 6814 176b 20       		.uleb128 0x20
 6815 176c 0A000000 		.4byte	.LVL143
 6816 1770 F8330000 		.4byte	0x33f8
 6817 1774 7F170000 		.4byte	0x177f
 6818 1778 21       		.uleb128 0x21
 6819 1779 01       		.uleb128 0x1
 6820 177a 50       		.byte	0x50
 6821 177b 02       		.uleb128 0x2
 6822 177c 74       		.byte	0x74
 6823 177d 00       		.sleb128 0
 6824 177e 00       		.byte	0
 6825 177f 20       		.uleb128 0x20
 6826 1780 10000000 		.4byte	.LVL144
 6827 1784 0A340000 		.4byte	0x340a
 6828 1788 93170000 		.4byte	0x1793
 6829 178c 21       		.uleb128 0x21
 6830 178d 01       		.uleb128 0x1
 6831 178e 50       		.byte	0x50
 6832 178f 02       		.uleb128 0x2
 6833 1790 08       		.byte	0x8
 6834 1791 30       		.byte	0x30
 6835 1792 00       		.byte	0
 6836 1793 20       		.uleb128 0x20
 6837 1794 16000000 		.4byte	.LVL145
 6838 1798 0A340000 		.4byte	0x340a
 6839 179c A6170000 		.4byte	0x17a6
 6840 17a0 21       		.uleb128 0x21
ARM GAS  /tmp/cctBdhRt.s 			page 121


 6841 17a1 01       		.uleb128 0x1
 6842 17a2 50       		.byte	0x50
 6843 17a3 01       		.uleb128 0x1
 6844 17a4 30       		.byte	0x30
 6845 17a5 00       		.byte	0
 6846 17a6 22       		.uleb128 0x22
 6847 17a7 1E000000 		.4byte	.LVL147
 6848 17ab 1F340000 		.4byte	0x341f
 6849 17af 21       		.uleb128 0x21
 6850 17b0 01       		.uleb128 0x1
 6851 17b1 50       		.byte	0x50
 6852 17b2 02       		.uleb128 0x2
 6853 17b3 74       		.byte	0x74
 6854 17b4 00       		.sleb128 0
 6855 17b5 00       		.byte	0
 6856 17b6 00       		.byte	0
 6857 17b7 26       		.uleb128 0x26
 6858 17b8 B9080000 		.4byte	.LASF199
 6859 17bc 01       		.byte	0x1
 6860 17bd BA02     		.2byte	0x2ba
 6861 17bf BE0A0000 		.4byte	0xabe
 6862 17c3 00000000 		.4byte	.LFB288
 6863 17c7 38000000 		.4byte	.LFE288-.LFB288
 6864 17cb 01       		.uleb128 0x1
 6865 17cc 9C       		.byte	0x9c
 6866 17cd 40180000 		.4byte	0x1840
 6867 17d1 2B       		.uleb128 0x2b
 6868 17d2 18040000 		.4byte	.LASF190
 6869 17d6 01       		.byte	0x1
 6870 17d7 BC02     		.2byte	0x2bc
 6871 17d9 0E0B0000 		.4byte	0xb0e
 6872 17dd A5040000 		.4byte	.LLST39
 6873 17e1 20       		.uleb128 0x20
 6874 17e2 0A000000 		.4byte	.LVL149
 6875 17e6 F8330000 		.4byte	0x33f8
 6876 17ea F5170000 		.4byte	0x17f5
 6877 17ee 21       		.uleb128 0x21
 6878 17ef 01       		.uleb128 0x1
 6879 17f0 50       		.byte	0x50
 6880 17f1 02       		.uleb128 0x2
 6881 17f2 75       		.byte	0x75
 6882 17f3 00       		.sleb128 0
 6883 17f4 00       		.byte	0
 6884 17f5 20       		.uleb128 0x20
 6885 17f6 10000000 		.4byte	.LVL150
 6886 17fa 0A340000 		.4byte	0x340a
 6887 17fe 09180000 		.4byte	0x1809
 6888 1802 21       		.uleb128 0x21
 6889 1803 01       		.uleb128 0x1
 6890 1804 50       		.byte	0x50
 6891 1805 02       		.uleb128 0x2
 6892 1806 08       		.byte	0x8
 6893 1807 30       		.byte	0x30
 6894 1808 00       		.byte	0
 6895 1809 20       		.uleb128 0x20
 6896 180a 16000000 		.4byte	.LVL151
 6897 180e 0A340000 		.4byte	0x340a
ARM GAS  /tmp/cctBdhRt.s 			page 122


 6898 1812 1C180000 		.4byte	0x181c
 6899 1816 21       		.uleb128 0x21
 6900 1817 01       		.uleb128 0x1
 6901 1818 50       		.byte	0x50
 6902 1819 01       		.uleb128 0x1
 6903 181a 30       		.byte	0x30
 6904 181b 00       		.byte	0
 6905 181c 20       		.uleb128 0x20
 6906 181d 24000000 		.4byte	.LVL154
 6907 1821 0A340000 		.4byte	0x340a
 6908 1825 2F180000 		.4byte	0x182f
 6909 1829 21       		.uleb128 0x21
 6910 182a 01       		.uleb128 0x1
 6911 182b 50       		.byte	0x50
 6912 182c 01       		.uleb128 0x1
 6913 182d 30       		.byte	0x30
 6914 182e 00       		.byte	0
 6915 182f 22       		.uleb128 0x22
 6916 1830 2E000000 		.4byte	.LVL155
 6917 1834 1F340000 		.4byte	0x341f
 6918 1838 21       		.uleb128 0x21
 6919 1839 01       		.uleb128 0x1
 6920 183a 50       		.byte	0x50
 6921 183b 02       		.uleb128 0x2
 6922 183c 75       		.byte	0x75
 6923 183d 00       		.sleb128 0
 6924 183e 00       		.byte	0
 6925 183f 00       		.byte	0
 6926 1840 26       		.uleb128 0x26
 6927 1841 EA010000 		.4byte	.LASF200
 6928 1845 01       		.byte	0x1
 6929 1846 D002     		.2byte	0x2d0
 6930 1848 B30A0000 		.4byte	0xab3
 6931 184c 00000000 		.4byte	.LFB289
 6932 1850 30000000 		.4byte	.LFE289-.LFB289
 6933 1854 01       		.uleb128 0x1
 6934 1855 9C       		.byte	0x9c
 6935 1856 C5180000 		.4byte	0x18c5
 6936 185a 29       		.uleb128 0x29
 6937 185b B7060000 		.4byte	.LASF187
 6938 185f 01       		.byte	0x1
 6939 1860 D002     		.2byte	0x2d0
 6940 1862 BE0A0000 		.4byte	0xabe
 6941 1866 B8040000 		.4byte	.LLST40
 6942 186a 29       		.uleb128 0x29
 6943 186b 8E000000 		.4byte	.LASF201
 6944 186f 01       		.byte	0x1
 6945 1870 D002     		.2byte	0x2d0
 6946 1872 99110000 		.4byte	0x1199
 6947 1876 D9040000 		.4byte	.LLST41
 6948 187a 28       		.uleb128 0x28
 6949 187b 7300     		.ascii	"s\000"
 6950 187d 01       		.byte	0x1
 6951 187e D202     		.2byte	0x2d2
 6952 1880 B30A0000 		.4byte	0xab3
 6953 1884 05050000 		.4byte	.LLST42
 6954 1888 2A       		.uleb128 0x2a
ARM GAS  /tmp/cctBdhRt.s 			page 123


 6955 1889 0C000000 		.4byte	.LVL159
 6956 188d F8330000 		.4byte	0x33f8
 6957 1891 20       		.uleb128 0x20
 6958 1892 12000000 		.4byte	.LVL160
 6959 1896 0A340000 		.4byte	0x340a
 6960 189a A5180000 		.4byte	0x18a5
 6961 189e 21       		.uleb128 0x21
 6962 189f 01       		.uleb128 0x1
 6963 18a0 50       		.byte	0x50
 6964 18a1 02       		.uleb128 0x2
 6965 18a2 08       		.byte	0x8
 6966 18a3 38       		.byte	0x38
 6967 18a4 00       		.byte	0
 6968 18a5 20       		.uleb128 0x20
 6969 18a6 1C000000 		.4byte	.LVL162
 6970 18aa 0A340000 		.4byte	0x340a
 6971 18ae BB180000 		.4byte	0x18bb
 6972 18b2 21       		.uleb128 0x21
 6973 18b3 01       		.uleb128 0x1
 6974 18b4 50       		.byte	0x50
 6975 18b5 04       		.uleb128 0x4
 6976 18b6 76       		.byte	0x76
 6977 18b7 00       		.sleb128 0
 6978 18b8 38       		.byte	0x38
 6979 18b9 25       		.byte	0x25
 6980 18ba 00       		.byte	0
 6981 18bb 2A       		.uleb128 0x2a
 6982 18bc 26000000 		.4byte	.LVL164
 6983 18c0 0A340000 		.4byte	0x340a
 6984 18c4 00       		.byte	0
 6985 18c5 26       		.uleb128 0x26
 6986 18c6 9C040000 		.4byte	.LASF202
 6987 18ca 01       		.byte	0x1
 6988 18cb EA02     		.2byte	0x2ea
 6989 18cd B30A0000 		.4byte	0xab3
 6990 18d1 00000000 		.4byte	.LFB290
 6991 18d5 28000000 		.4byte	.LFE290-.LFB290
 6992 18d9 01       		.uleb128 0x1
 6993 18da 9C       		.byte	0x9c
 6994 18db 56190000 		.4byte	0x1956
 6995 18df 29       		.uleb128 0x29
 6996 18e0 B7060000 		.4byte	.LASF187
 6997 18e4 01       		.byte	0x1
 6998 18e5 EA02     		.2byte	0x2ea
 6999 18e7 BE0A0000 		.4byte	0xabe
 7000 18eb 18050000 		.4byte	.LLST43
 7001 18ef 29       		.uleb128 0x29
 7002 18f0 40010000 		.4byte	.LASF161
 7003 18f4 01       		.byte	0x1
 7004 18f5 EA02     		.2byte	0x2ea
 7005 18f7 B30A0000 		.4byte	0xab3
 7006 18fb 39050000 		.4byte	.LLST44
 7007 18ff 29       		.uleb128 0x29
 7008 1900 C30B0000 		.4byte	.LASF188
 7009 1904 01       		.byte	0x1
 7010 1905 EA02     		.2byte	0x2ea
 7011 1907 99110000 		.4byte	0x1199
ARM GAS  /tmp/cctBdhRt.s 			page 124


 7012 190b 5A050000 		.4byte	.LLST45
 7013 190f 28       		.uleb128 0x28
 7014 1910 7300     		.ascii	"s\000"
 7015 1912 01       		.byte	0x1
 7016 1913 EC02     		.2byte	0x2ec
 7017 1915 B30A0000 		.4byte	0xab3
 7018 1919 86050000 		.4byte	.LLST46
 7019 191d 20       		.uleb128 0x20
 7020 191e 0C000000 		.4byte	.LVL168
 7021 1922 0A340000 		.4byte	0x340a
 7022 1926 32190000 		.4byte	0x1932
 7023 192a 21       		.uleb128 0x21
 7024 192b 01       		.uleb128 0x1
 7025 192c 50       		.byte	0x50
 7026 192d 03       		.uleb128 0x3
 7027 192e F3       		.byte	0xf3
 7028 192f 01       		.uleb128 0x1
 7029 1930 50       		.byte	0x50
 7030 1931 00       		.byte	0
 7031 1932 20       		.uleb128 0x20
 7032 1933 1A000000 		.4byte	.LVL170
 7033 1937 31340000 		.4byte	0x3431
 7034 193b 4C190000 		.4byte	0x194c
 7035 193f 21       		.uleb128 0x21
 7036 1940 01       		.uleb128 0x1
 7037 1941 52       		.byte	0x52
 7038 1942 02       		.uleb128 0x2
 7039 1943 76       		.byte	0x76
 7040 1944 00       		.sleb128 0
 7041 1945 21       		.uleb128 0x21
 7042 1946 01       		.uleb128 0x1
 7043 1947 51       		.byte	0x51
 7044 1948 02       		.uleb128 0x2
 7045 1949 74       		.byte	0x74
 7046 194a 00       		.sleb128 0
 7047 194b 00       		.byte	0
 7048 194c 2A       		.uleb128 0x2a
 7049 194d 20000000 		.4byte	.LVL171
 7050 1951 1F340000 		.4byte	0x341f
 7051 1955 00       		.byte	0
 7052 1956 26       		.uleb128 0x26
 7053 1957 0C050000 		.4byte	.LASF203
 7054 195b 01       		.byte	0x1
 7055 195c 0103     		.2byte	0x301
 7056 195e B30A0000 		.4byte	0xab3
 7057 1962 00000000 		.4byte	.LFB291
 7058 1966 44000000 		.4byte	.LFE291-.LFB291
 7059 196a 01       		.uleb128 0x1
 7060 196b 9C       		.byte	0x9c
 7061 196c 2D1A0000 		.4byte	0x1a2d
 7062 1970 27       		.uleb128 0x27
 7063 1971 70726900 		.ascii	"pri\000"
 7064 1975 01       		.byte	0x1
 7065 1976 0103     		.2byte	0x301
 7066 1978 B30A0000 		.4byte	0xab3
 7067 197c 99050000 		.4byte	.LLST47
 7068 1980 29       		.uleb128 0x29
ARM GAS  /tmp/cctBdhRt.s 			page 125


 7069 1981 B7060000 		.4byte	.LASF187
 7070 1985 01       		.byte	0x1
 7071 1986 0103     		.2byte	0x301
 7072 1988 BE0A0000 		.4byte	0xabe
 7073 198c BA050000 		.4byte	.LLST48
 7074 1990 29       		.uleb128 0x29
 7075 1991 40010000 		.4byte	.LASF161
 7076 1995 01       		.byte	0x1
 7077 1996 0103     		.2byte	0x301
 7078 1998 B30A0000 		.4byte	0xab3
 7079 199c DB050000 		.4byte	.LLST49
 7080 19a0 29       		.uleb128 0x29
 7081 19a1 8E000000 		.4byte	.LASF201
 7082 19a5 01       		.byte	0x1
 7083 19a6 0103     		.2byte	0x301
 7084 19a8 99110000 		.4byte	0x1199
 7085 19ac FC050000 		.4byte	.LLST50
 7086 19b0 2C       		.uleb128 0x2c
 7087 19b1 7300     		.ascii	"s\000"
 7088 19b3 01       		.byte	0x1
 7089 19b4 0303     		.2byte	0x303
 7090 19b6 B30A0000 		.4byte	0xab3
 7091 19ba 01       		.uleb128 0x1
 7092 19bb 56       		.byte	0x56
 7093 19bc 2A       		.uleb128 0x2a
 7094 19bd 10000000 		.4byte	.LVL175
 7095 19c1 F8330000 		.4byte	0x33f8
 7096 19c5 20       		.uleb128 0x20
 7097 19c6 18000000 		.4byte	.LVL176
 7098 19ca 0A340000 		.4byte	0x340a
 7099 19ce DC190000 		.4byte	0x19dc
 7100 19d2 21       		.uleb128 0x21
 7101 19d3 01       		.uleb128 0x1
 7102 19d4 50       		.byte	0x50
 7103 19d5 05       		.uleb128 0x5
 7104 19d6 76       		.byte	0x76
 7105 19d7 00       		.sleb128 0
 7106 19d8 08       		.byte	0x8
 7107 19d9 32       		.byte	0x32
 7108 19da 21       		.byte	0x21
 7109 19db 00       		.byte	0
 7110 19dc 20       		.uleb128 0x20
 7111 19dd 22000000 		.4byte	.LVL178
 7112 19e1 0A340000 		.4byte	0x340a
 7113 19e5 F0190000 		.4byte	0x19f0
 7114 19e9 21       		.uleb128 0x21
 7115 19ea 01       		.uleb128 0x1
 7116 19eb 50       		.byte	0x50
 7117 19ec 02       		.uleb128 0x2
 7118 19ed 77       		.byte	0x77
 7119 19ee 00       		.sleb128 0
 7120 19ef 00       		.byte	0
 7121 19f0 20       		.uleb128 0x20
 7122 19f1 2A000000 		.4byte	.LVL179
 7123 19f5 0A340000 		.4byte	0x340a
 7124 19f9 061A0000 		.4byte	0x1a06
 7125 19fd 21       		.uleb128 0x21
ARM GAS  /tmp/cctBdhRt.s 			page 126


 7126 19fe 01       		.uleb128 0x1
 7127 19ff 50       		.byte	0x50
 7128 1a00 04       		.uleb128 0x4
 7129 1a01 74       		.byte	0x74
 7130 1a02 00       		.sleb128 0
 7131 1a03 38       		.byte	0x38
 7132 1a04 25       		.byte	0x25
 7133 1a05 00       		.byte	0
 7134 1a06 20       		.uleb128 0x20
 7135 1a07 30000000 		.4byte	.LVL180
 7136 1a0b 0A340000 		.4byte	0x340a
 7137 1a0f 1A1A0000 		.4byte	0x1a1a
 7138 1a13 21       		.uleb128 0x21
 7139 1a14 01       		.uleb128 0x1
 7140 1a15 50       		.byte	0x50
 7141 1a16 02       		.uleb128 0x2
 7142 1a17 74       		.byte	0x74
 7143 1a18 00       		.sleb128 0
 7144 1a19 00       		.byte	0
 7145 1a1a 2A       		.uleb128 0x2a
 7146 1a1b 36000000 		.4byte	.LVL181
 7147 1a1f 1F340000 		.4byte	0x341f
 7148 1a23 2A       		.uleb128 0x2a
 7149 1a24 3E000000 		.4byte	.LVL183
 7150 1a28 0A340000 		.4byte	0x340a
 7151 1a2c 00       		.byte	0
 7152 1a2d 26       		.uleb128 0x26
 7153 1a2e 2B080000 		.4byte	.LASF204
 7154 1a32 01       		.byte	0x1
 7155 1a33 1C03     		.2byte	0x31c
 7156 1a35 B30A0000 		.4byte	0xab3
 7157 1a39 00000000 		.4byte	.LFB292
 7158 1a3d 30000000 		.4byte	.LFE292-.LFB292
 7159 1a41 01       		.uleb128 0x1
 7160 1a42 9C       		.byte	0x9c
 7161 1a43 B61A0000 		.4byte	0x1ab6
 7162 1a47 29       		.uleb128 0x29
 7163 1a48 40010000 		.4byte	.LASF161
 7164 1a4c 01       		.byte	0x1
 7165 1a4d 1C03     		.2byte	0x31c
 7166 1a4f B30A0000 		.4byte	0xab3
 7167 1a53 1A060000 		.4byte	.LLST51
 7168 1a57 29       		.uleb128 0x29
 7169 1a58 C30B0000 		.4byte	.LASF188
 7170 1a5c 01       		.byte	0x1
 7171 1a5d 1C03     		.2byte	0x31c
 7172 1a5f 99110000 		.4byte	0x1199
 7173 1a63 3B060000 		.4byte	.LLST52
 7174 1a67 28       		.uleb128 0x28
 7175 1a68 7300     		.ascii	"s\000"
 7176 1a6a 01       		.byte	0x1
 7177 1a6b 1E03     		.2byte	0x31e
 7178 1a6d B30A0000 		.4byte	0xab3
 7179 1a71 67060000 		.4byte	.LLST53
 7180 1a75 2A       		.uleb128 0x2a
 7181 1a76 0C000000 		.4byte	.LVL186
 7182 1a7a F8330000 		.4byte	0x33f8
ARM GAS  /tmp/cctBdhRt.s 			page 127


 7183 1a7e 20       		.uleb128 0x20
 7184 1a7f 12000000 		.4byte	.LVL187
 7185 1a83 0A340000 		.4byte	0x340a
 7186 1a87 921A0000 		.4byte	0x1a92
 7187 1a8b 21       		.uleb128 0x21
 7188 1a8c 01       		.uleb128 0x1
 7189 1a8d 50       		.byte	0x50
 7190 1a8e 02       		.uleb128 0x2
 7191 1a8f 08       		.byte	0x8
 7192 1a90 3A       		.byte	0x3a
 7193 1a91 00       		.byte	0
 7194 1a92 20       		.uleb128 0x20
 7195 1a93 20000000 		.4byte	.LVL189
 7196 1a97 4D340000 		.4byte	0x344d
 7197 1a9b AC1A0000 		.4byte	0x1aac
 7198 1a9f 21       		.uleb128 0x21
 7199 1aa0 01       		.uleb128 0x1
 7200 1aa1 52       		.byte	0x52
 7201 1aa2 02       		.uleb128 0x2
 7202 1aa3 76       		.byte	0x76
 7203 1aa4 00       		.sleb128 0
 7204 1aa5 21       		.uleb128 0x21
 7205 1aa6 01       		.uleb128 0x1
 7206 1aa7 51       		.byte	0x51
 7207 1aa8 02       		.uleb128 0x2
 7208 1aa9 74       		.byte	0x74
 7209 1aaa 00       		.sleb128 0
 7210 1aab 00       		.byte	0
 7211 1aac 2A       		.uleb128 0x2a
 7212 1aad 26000000 		.4byte	.LVL190
 7213 1ab1 1F340000 		.4byte	0x341f
 7214 1ab5 00       		.byte	0
 7215 1ab6 2D       		.uleb128 0x2d
 7216 1ab7 B4000000 		.4byte	.LASF206
 7217 1abb 01       		.byte	0x1
 7218 1abc 3003     		.2byte	0x330
 7219 1abe 00000000 		.4byte	.LFB293
 7220 1ac2 28000000 		.4byte	.LFE293-.LFB293
 7221 1ac6 01       		.uleb128 0x1
 7222 1ac7 9C       		.byte	0x9c
 7223 1ac8 221B0000 		.4byte	0x1b22
 7224 1acc 29       		.uleb128 0x29
 7225 1acd D00B0000 		.4byte	.LASF205
 7226 1ad1 01       		.byte	0x1
 7227 1ad2 3003     		.2byte	0x330
 7228 1ad4 B30A0000 		.4byte	0xab3
 7229 1ad8 7A060000 		.4byte	.LLST54
 7230 1adc 20       		.uleb128 0x20
 7231 1add 0C000000 		.4byte	.LVL194
 7232 1ae1 F8330000 		.4byte	0x33f8
 7233 1ae5 F01A0000 		.4byte	0x1af0
 7234 1ae9 21       		.uleb128 0x21
 7235 1aea 01       		.uleb128 0x1
 7236 1aeb 50       		.byte	0x50
 7237 1aec 02       		.uleb128 0x2
 7238 1aed 74       		.byte	0x74
 7239 1aee 00       		.sleb128 0
ARM GAS  /tmp/cctBdhRt.s 			page 128


 7240 1aef 00       		.byte	0
 7241 1af0 20       		.uleb128 0x20
 7242 1af1 12000000 		.4byte	.LVL195
 7243 1af5 0A340000 		.4byte	0x340a
 7244 1af9 041B0000 		.4byte	0x1b04
 7245 1afd 21       		.uleb128 0x21
 7246 1afe 01       		.uleb128 0x1
 7247 1aff 50       		.byte	0x50
 7248 1b00 02       		.uleb128 0x2
 7249 1b01 08       		.byte	0x8
 7250 1b02 3A       		.byte	0x3a
 7251 1b03 00       		.byte	0
 7252 1b04 20       		.uleb128 0x20
 7253 1b05 18000000 		.4byte	.LVL196
 7254 1b09 0A340000 		.4byte	0x340a
 7255 1b0d 181B0000 		.4byte	0x1b18
 7256 1b11 21       		.uleb128 0x21
 7257 1b12 01       		.uleb128 0x1
 7258 1b13 50       		.byte	0x50
 7259 1b14 02       		.uleb128 0x2
 7260 1b15 75       		.byte	0x75
 7261 1b16 00       		.sleb128 0
 7262 1b17 00       		.byte	0
 7263 1b18 2E       		.uleb128 0x2e
 7264 1b19 22000000 		.4byte	.LVL197
 7265 1b1d 1F340000 		.4byte	0x341f
 7266 1b21 00       		.byte	0
 7267 1b22 2D       		.uleb128 0x2d
 7268 1b23 3C0A0000 		.4byte	.LASF207
 7269 1b27 01       		.byte	0x1
 7270 1b28 4203     		.2byte	0x342
 7271 1b2a 00000000 		.4byte	.LFB294
 7272 1b2e 2C000000 		.4byte	.LFE294-.LFB294
 7273 1b32 01       		.uleb128 0x1
 7274 1b33 9C       		.byte	0x9c
 7275 1b34 A41B0000 		.4byte	0x1ba4
 7276 1b38 29       		.uleb128 0x29
 7277 1b39 D00B0000 		.4byte	.LASF205
 7278 1b3d 01       		.byte	0x1
 7279 1b3e 4203     		.2byte	0x342
 7280 1b40 BE0A0000 		.4byte	0xabe
 7281 1b44 9B060000 		.4byte	.LLST55
 7282 1b48 20       		.uleb128 0x20
 7283 1b49 0C000000 		.4byte	.LVL200
 7284 1b4d F8330000 		.4byte	0x33f8
 7285 1b51 5C1B0000 		.4byte	0x1b5c
 7286 1b55 21       		.uleb128 0x21
 7287 1b56 01       		.uleb128 0x1
 7288 1b57 50       		.byte	0x50
 7289 1b58 02       		.uleb128 0x2
 7290 1b59 74       		.byte	0x74
 7291 1b5a 00       		.sleb128 0
 7292 1b5b 00       		.byte	0
 7293 1b5c 20       		.uleb128 0x20
 7294 1b5d 12000000 		.4byte	.LVL201
 7295 1b61 0A340000 		.4byte	0x340a
 7296 1b65 701B0000 		.4byte	0x1b70
ARM GAS  /tmp/cctBdhRt.s 			page 129


 7297 1b69 21       		.uleb128 0x21
 7298 1b6a 01       		.uleb128 0x1
 7299 1b6b 50       		.byte	0x50
 7300 1b6c 02       		.uleb128 0x2
 7301 1b6d 08       		.byte	0x8
 7302 1b6e 3A       		.byte	0x3a
 7303 1b6f 00       		.byte	0
 7304 1b70 20       		.uleb128 0x20
 7305 1b71 18000000 		.4byte	.LVL202
 7306 1b75 0A340000 		.4byte	0x340a
 7307 1b79 841B0000 		.4byte	0x1b84
 7308 1b7d 21       		.uleb128 0x21
 7309 1b7e 01       		.uleb128 0x1
 7310 1b7f 50       		.byte	0x50
 7311 1b80 02       		.uleb128 0x2
 7312 1b81 75       		.byte	0x75
 7313 1b82 00       		.sleb128 0
 7314 1b83 00       		.byte	0
 7315 1b84 20       		.uleb128 0x20
 7316 1b85 1E000000 		.4byte	.LVL203
 7317 1b89 0A340000 		.4byte	0x340a
 7318 1b8d 9A1B0000 		.4byte	0x1b9a
 7319 1b91 21       		.uleb128 0x21
 7320 1b92 01       		.uleb128 0x1
 7321 1b93 50       		.byte	0x50
 7322 1b94 04       		.uleb128 0x4
 7323 1b95 75       		.byte	0x75
 7324 1b96 00       		.sleb128 0
 7325 1b97 38       		.byte	0x38
 7326 1b98 25       		.byte	0x25
 7327 1b99 00       		.byte	0
 7328 1b9a 2E       		.uleb128 0x2e
 7329 1b9b 28000000 		.4byte	.LVL204
 7330 1b9f 1F340000 		.4byte	0x341f
 7331 1ba3 00       		.byte	0
 7332 1ba4 26       		.uleb128 0x26
 7333 1ba5 73050000 		.4byte	.LASF208
 7334 1ba9 01       		.byte	0x1
 7335 1baa 5803     		.2byte	0x358
 7336 1bac B30A0000 		.4byte	0xab3
 7337 1bb0 00000000 		.4byte	.LFB295
 7338 1bb4 44000000 		.4byte	.LFE295-.LFB295
 7339 1bb8 01       		.uleb128 0x1
 7340 1bb9 9C       		.byte	0x9c
 7341 1bba 7B1C0000 		.4byte	0x1c7b
 7342 1bbe 27       		.uleb128 0x27
 7343 1bbf 70726900 		.ascii	"pri\000"
 7344 1bc3 01       		.byte	0x1
 7345 1bc4 5803     		.2byte	0x358
 7346 1bc6 B30A0000 		.4byte	0xab3
 7347 1bca BC060000 		.4byte	.LLST56
 7348 1bce 29       		.uleb128 0x29
 7349 1bcf B7060000 		.4byte	.LASF187
 7350 1bd3 01       		.byte	0x1
 7351 1bd4 5803     		.2byte	0x358
 7352 1bd6 BE0A0000 		.4byte	0xabe
 7353 1bda DD060000 		.4byte	.LLST57
ARM GAS  /tmp/cctBdhRt.s 			page 130


 7354 1bde 29       		.uleb128 0x29
 7355 1bdf 40010000 		.4byte	.LASF161
 7356 1be3 01       		.byte	0x1
 7357 1be4 5803     		.2byte	0x358
 7358 1be6 B30A0000 		.4byte	0xab3
 7359 1bea FE060000 		.4byte	.LLST58
 7360 1bee 29       		.uleb128 0x29
 7361 1bef 8E000000 		.4byte	.LASF201
 7362 1bf3 01       		.byte	0x1
 7363 1bf4 5803     		.2byte	0x358
 7364 1bf6 99110000 		.4byte	0x1199
 7365 1bfa 1F070000 		.4byte	.LLST59
 7366 1bfe 2C       		.uleb128 0x2c
 7367 1bff 7300     		.ascii	"s\000"
 7368 1c01 01       		.byte	0x1
 7369 1c02 5A03     		.2byte	0x35a
 7370 1c04 B30A0000 		.4byte	0xab3
 7371 1c08 01       		.uleb128 0x1
 7372 1c09 56       		.byte	0x56
 7373 1c0a 2A       		.uleb128 0x2a
 7374 1c0b 10000000 		.4byte	.LVL207
 7375 1c0f F8330000 		.4byte	0x33f8
 7376 1c13 20       		.uleb128 0x20
 7377 1c14 18000000 		.4byte	.LVL208
 7378 1c18 0A340000 		.4byte	0x340a
 7379 1c1c 2A1C0000 		.4byte	0x1c2a
 7380 1c20 21       		.uleb128 0x21
 7381 1c21 01       		.uleb128 0x1
 7382 1c22 50       		.byte	0x50
 7383 1c23 05       		.uleb128 0x5
 7384 1c24 76       		.byte	0x76
 7385 1c25 00       		.sleb128 0
 7386 1c26 08       		.byte	0x8
 7387 1c27 3E       		.byte	0x3e
 7388 1c28 21       		.byte	0x21
 7389 1c29 00       		.byte	0
 7390 1c2a 20       		.uleb128 0x20
 7391 1c2b 22000000 		.4byte	.LVL210
 7392 1c2f 0A340000 		.4byte	0x340a
 7393 1c33 3E1C0000 		.4byte	0x1c3e
 7394 1c37 21       		.uleb128 0x21
 7395 1c38 01       		.uleb128 0x1
 7396 1c39 50       		.byte	0x50
 7397 1c3a 02       		.uleb128 0x2
 7398 1c3b 77       		.byte	0x77
 7399 1c3c 00       		.sleb128 0
 7400 1c3d 00       		.byte	0
 7401 1c3e 20       		.uleb128 0x20
 7402 1c3f 2A000000 		.4byte	.LVL211
 7403 1c43 0A340000 		.4byte	0x340a
 7404 1c47 541C0000 		.4byte	0x1c54
 7405 1c4b 21       		.uleb128 0x21
 7406 1c4c 01       		.uleb128 0x1
 7407 1c4d 50       		.byte	0x50
 7408 1c4e 04       		.uleb128 0x4
 7409 1c4f 74       		.byte	0x74
 7410 1c50 00       		.sleb128 0
ARM GAS  /tmp/cctBdhRt.s 			page 131


 7411 1c51 38       		.byte	0x38
 7412 1c52 25       		.byte	0x25
 7413 1c53 00       		.byte	0
 7414 1c54 20       		.uleb128 0x20
 7415 1c55 30000000 		.4byte	.LVL212
 7416 1c59 0A340000 		.4byte	0x340a
 7417 1c5d 681C0000 		.4byte	0x1c68
 7418 1c61 21       		.uleb128 0x21
 7419 1c62 01       		.uleb128 0x1
 7420 1c63 50       		.byte	0x50
 7421 1c64 02       		.uleb128 0x2
 7422 1c65 74       		.byte	0x74
 7423 1c66 00       		.sleb128 0
 7424 1c67 00       		.byte	0
 7425 1c68 2A       		.uleb128 0x2a
 7426 1c69 36000000 		.4byte	.LVL213
 7427 1c6d 1F340000 		.4byte	0x341f
 7428 1c71 2A       		.uleb128 0x2a
 7429 1c72 3E000000 		.4byte	.LVL215
 7430 1c76 0A340000 		.4byte	0x340a
 7431 1c7a 00       		.byte	0
 7432 1c7b 26       		.uleb128 0x26
 7433 1c7c FB080000 		.4byte	.LASF209
 7434 1c80 01       		.byte	0x1
 7435 1c81 7303     		.2byte	0x373
 7436 1c83 B30A0000 		.4byte	0xab3
 7437 1c87 00000000 		.4byte	.LFB296
 7438 1c8b 34000000 		.4byte	.LFE296-.LFB296
 7439 1c8f 01       		.uleb128 0x1
 7440 1c90 9C       		.byte	0x9c
 7441 1c91 171D0000 		.4byte	0x1d17
 7442 1c95 29       		.uleb128 0x29
 7443 1c96 40010000 		.4byte	.LASF161
 7444 1c9a 01       		.byte	0x1
 7445 1c9b 7303     		.2byte	0x373
 7446 1c9d B30A0000 		.4byte	0xab3
 7447 1ca1 3D070000 		.4byte	.LLST60
 7448 1ca5 29       		.uleb128 0x29
 7449 1ca6 C30B0000 		.4byte	.LASF188
 7450 1caa 01       		.byte	0x1
 7451 1cab 7303     		.2byte	0x373
 7452 1cad 99110000 		.4byte	0x1199
 7453 1cb1 5E070000 		.4byte	.LLST61
 7454 1cb5 28       		.uleb128 0x28
 7455 1cb6 7300     		.ascii	"s\000"
 7456 1cb8 01       		.byte	0x1
 7457 1cb9 7503     		.2byte	0x375
 7458 1cbb B30A0000 		.4byte	0xab3
 7459 1cbf 8A070000 		.4byte	.LLST62
 7460 1cc3 2A       		.uleb128 0x2a
 7461 1cc4 0C000000 		.4byte	.LVL218
 7462 1cc8 F8330000 		.4byte	0x33f8
 7463 1ccc 20       		.uleb128 0x20
 7464 1ccd 12000000 		.4byte	.LVL219
 7465 1cd1 0A340000 		.4byte	0x340a
 7466 1cd5 E01C0000 		.4byte	0x1ce0
 7467 1cd9 21       		.uleb128 0x21
ARM GAS  /tmp/cctBdhRt.s 			page 132


 7468 1cda 01       		.uleb128 0x1
 7469 1cdb 50       		.byte	0x50
 7470 1cdc 02       		.uleb128 0x2
 7471 1cdd 08       		.byte	0x8
 7472 1cde 3C       		.byte	0x3c
 7473 1cdf 00       		.byte	0
 7474 1ce0 20       		.uleb128 0x20
 7475 1ce1 1A000000 		.4byte	.LVL221
 7476 1ce5 0A340000 		.4byte	0x340a
 7477 1ce9 F31C0000 		.4byte	0x1cf3
 7478 1ced 21       		.uleb128 0x21
 7479 1cee 01       		.uleb128 0x1
 7480 1cef 50       		.byte	0x50
 7481 1cf0 01       		.uleb128 0x1
 7482 1cf1 30       		.byte	0x30
 7483 1cf2 00       		.byte	0
 7484 1cf3 20       		.uleb128 0x20
 7485 1cf4 26000000 		.4byte	.LVL222
 7486 1cf8 31340000 		.4byte	0x3431
 7487 1cfc 0D1D0000 		.4byte	0x1d0d
 7488 1d00 21       		.uleb128 0x21
 7489 1d01 01       		.uleb128 0x1
 7490 1d02 52       		.byte	0x52
 7491 1d03 02       		.uleb128 0x2
 7492 1d04 76       		.byte	0x76
 7493 1d05 00       		.sleb128 0
 7494 1d06 21       		.uleb128 0x21
 7495 1d07 01       		.uleb128 0x1
 7496 1d08 51       		.byte	0x51
 7497 1d09 02       		.uleb128 0x2
 7498 1d0a 74       		.byte	0x74
 7499 1d0b 00       		.sleb128 0
 7500 1d0c 00       		.byte	0
 7501 1d0d 2A       		.uleb128 0x2a
 7502 1d0e 2C000000 		.4byte	.LVL223
 7503 1d12 1F340000 		.4byte	0x341f
 7504 1d16 00       		.byte	0
 7505 1d17 26       		.uleb128 0x26
 7506 1d18 35070000 		.4byte	.LASF210
 7507 1d1c 01       		.byte	0x1
 7508 1d1d 8803     		.2byte	0x388
 7509 1d1f B30A0000 		.4byte	0xab3
 7510 1d23 00000000 		.4byte	.LFB297
 7511 1d27 2C000000 		.4byte	.LFE297-.LFB297
 7512 1d2b 01       		.uleb128 0x1
 7513 1d2c 9C       		.byte	0x9c
 7514 1d2d A01D0000 		.4byte	0x1da0
 7515 1d31 2B       		.uleb128 0x2b
 7516 1d32 18040000 		.4byte	.LASF190
 7517 1d36 01       		.byte	0x1
 7518 1d37 8A03     		.2byte	0x38a
 7519 1d39 B30A0000 		.4byte	0xab3
 7520 1d3d 9D070000 		.4byte	.LLST63
 7521 1d41 20       		.uleb128 0x20
 7522 1d42 0A000000 		.4byte	.LVL225
 7523 1d46 F8330000 		.4byte	0x33f8
 7524 1d4a 551D0000 		.4byte	0x1d55
ARM GAS  /tmp/cctBdhRt.s 			page 133


 7525 1d4e 21       		.uleb128 0x21
 7526 1d4f 01       		.uleb128 0x1
 7527 1d50 50       		.byte	0x50
 7528 1d51 02       		.uleb128 0x2
 7529 1d52 74       		.byte	0x74
 7530 1d53 00       		.sleb128 0
 7531 1d54 00       		.byte	0
 7532 1d55 20       		.uleb128 0x20
 7533 1d56 10000000 		.4byte	.LVL226
 7534 1d5a 0A340000 		.4byte	0x340a
 7535 1d5e 691D0000 		.4byte	0x1d69
 7536 1d62 21       		.uleb128 0x21
 7537 1d63 01       		.uleb128 0x1
 7538 1d64 50       		.byte	0x50
 7539 1d65 02       		.uleb128 0x2
 7540 1d66 08       		.byte	0x8
 7541 1d67 3C       		.byte	0x3c
 7542 1d68 00       		.byte	0
 7543 1d69 20       		.uleb128 0x20
 7544 1d6a 16000000 		.4byte	.LVL227
 7545 1d6e 0A340000 		.4byte	0x340a
 7546 1d72 7C1D0000 		.4byte	0x1d7c
 7547 1d76 21       		.uleb128 0x21
 7548 1d77 01       		.uleb128 0x1
 7549 1d78 50       		.byte	0x50
 7550 1d79 01       		.uleb128 0x1
 7551 1d7a 30       		.byte	0x30
 7552 1d7b 00       		.byte	0
 7553 1d7c 20       		.uleb128 0x20
 7554 1d7d 1C000000 		.4byte	.LVL228
 7555 1d81 0A340000 		.4byte	0x340a
 7556 1d85 8F1D0000 		.4byte	0x1d8f
 7557 1d89 21       		.uleb128 0x21
 7558 1d8a 01       		.uleb128 0x1
 7559 1d8b 50       		.byte	0x50
 7560 1d8c 01       		.uleb128 0x1
 7561 1d8d 30       		.byte	0x30
 7562 1d8e 00       		.byte	0
 7563 1d8f 22       		.uleb128 0x22
 7564 1d90 24000000 		.4byte	.LVL230
 7565 1d94 1F340000 		.4byte	0x341f
 7566 1d98 21       		.uleb128 0x21
 7567 1d99 01       		.uleb128 0x1
 7568 1d9a 50       		.byte	0x50
 7569 1d9b 02       		.uleb128 0x2
 7570 1d9c 74       		.byte	0x74
 7571 1d9d 00       		.sleb128 0
 7572 1d9e 00       		.byte	0
 7573 1d9f 00       		.byte	0
 7574 1da0 26       		.uleb128 0x26
 7575 1da1 DD050000 		.4byte	.LASF211
 7576 1da5 01       		.byte	0x1
 7577 1da6 9D03     		.2byte	0x39d
 7578 1da8 BE0A0000 		.4byte	0xabe
 7579 1dac 00000000 		.4byte	.LFB298
 7580 1db0 3C000000 		.4byte	.LFE298-.LFB298
 7581 1db4 01       		.uleb128 0x1
ARM GAS  /tmp/cctBdhRt.s 			page 134


 7582 1db5 9C       		.byte	0x9c
 7583 1db6 3C1E0000 		.4byte	0x1e3c
 7584 1dba 2B       		.uleb128 0x2b
 7585 1dbb 18040000 		.4byte	.LASF190
 7586 1dbf 01       		.byte	0x1
 7587 1dc0 9F03     		.2byte	0x39f
 7588 1dc2 0E0B0000 		.4byte	0xb0e
 7589 1dc6 B0070000 		.4byte	.LLST64
 7590 1dca 20       		.uleb128 0x20
 7591 1dcb 0A000000 		.4byte	.LVL232
 7592 1dcf F8330000 		.4byte	0x33f8
 7593 1dd3 DE1D0000 		.4byte	0x1dde
 7594 1dd7 21       		.uleb128 0x21
 7595 1dd8 01       		.uleb128 0x1
 7596 1dd9 50       		.byte	0x50
 7597 1dda 02       		.uleb128 0x2
 7598 1ddb 75       		.byte	0x75
 7599 1ddc 00       		.sleb128 0
 7600 1ddd 00       		.byte	0
 7601 1dde 20       		.uleb128 0x20
 7602 1ddf 10000000 		.4byte	.LVL233
 7603 1de3 0A340000 		.4byte	0x340a
 7604 1de7 F21D0000 		.4byte	0x1df2
 7605 1deb 21       		.uleb128 0x21
 7606 1dec 01       		.uleb128 0x1
 7607 1ded 50       		.byte	0x50
 7608 1dee 02       		.uleb128 0x2
 7609 1def 08       		.byte	0x8
 7610 1df0 3C       		.byte	0x3c
 7611 1df1 00       		.byte	0
 7612 1df2 20       		.uleb128 0x20
 7613 1df3 16000000 		.4byte	.LVL234
 7614 1df7 0A340000 		.4byte	0x340a
 7615 1dfb 051E0000 		.4byte	0x1e05
 7616 1dff 21       		.uleb128 0x21
 7617 1e00 01       		.uleb128 0x1
 7618 1e01 50       		.byte	0x50
 7619 1e02 01       		.uleb128 0x1
 7620 1e03 30       		.byte	0x30
 7621 1e04 00       		.byte	0
 7622 1e05 20       		.uleb128 0x20
 7623 1e06 1C000000 		.4byte	.LVL235
 7624 1e0a 0A340000 		.4byte	0x340a
 7625 1e0e 181E0000 		.4byte	0x1e18
 7626 1e12 21       		.uleb128 0x21
 7627 1e13 01       		.uleb128 0x1
 7628 1e14 50       		.byte	0x50
 7629 1e15 01       		.uleb128 0x1
 7630 1e16 30       		.byte	0x30
 7631 1e17 00       		.byte	0
 7632 1e18 20       		.uleb128 0x20
 7633 1e19 2A000000 		.4byte	.LVL238
 7634 1e1d 0A340000 		.4byte	0x340a
 7635 1e21 2B1E0000 		.4byte	0x1e2b
 7636 1e25 21       		.uleb128 0x21
 7637 1e26 01       		.uleb128 0x1
 7638 1e27 50       		.byte	0x50
ARM GAS  /tmp/cctBdhRt.s 			page 135


 7639 1e28 01       		.uleb128 0x1
 7640 1e29 30       		.byte	0x30
 7641 1e2a 00       		.byte	0
 7642 1e2b 22       		.uleb128 0x22
 7643 1e2c 34000000 		.4byte	.LVL239
 7644 1e30 1F340000 		.4byte	0x341f
 7645 1e34 21       		.uleb128 0x21
 7646 1e35 01       		.uleb128 0x1
 7647 1e36 50       		.byte	0x50
 7648 1e37 02       		.uleb128 0x2
 7649 1e38 75       		.byte	0x75
 7650 1e39 00       		.sleb128 0
 7651 1e3a 00       		.byte	0
 7652 1e3b 00       		.byte	0
 7653 1e3c 26       		.uleb128 0x26
 7654 1e3d 2A050000 		.4byte	.LASF212
 7655 1e41 01       		.byte	0x1
 7656 1e42 B303     		.2byte	0x3b3
 7657 1e44 B30A0000 		.4byte	0xab3
 7658 1e48 00000000 		.4byte	.LFB299
 7659 1e4c 30000000 		.4byte	.LFE299-.LFB299
 7660 1e50 01       		.uleb128 0x1
 7661 1e51 9C       		.byte	0x9c
 7662 1e52 D71E0000 		.4byte	0x1ed7
 7663 1e56 29       		.uleb128 0x29
 7664 1e57 A20B0000 		.4byte	.LASF213
 7665 1e5b 01       		.byte	0x1
 7666 1e5c B303     		.2byte	0x3b3
 7667 1e5e BE0A0000 		.4byte	0xabe
 7668 1e62 C3070000 		.4byte	.LLST65
 7669 1e66 28       		.uleb128 0x28
 7670 1e67 7300     		.ascii	"s\000"
 7671 1e69 01       		.byte	0x1
 7672 1e6a B503     		.2byte	0x3b5
 7673 1e6c B30A0000 		.4byte	0xab3
 7674 1e70 E4070000 		.4byte	.LLST66
 7675 1e74 20       		.uleb128 0x20
 7676 1e75 0C000000 		.4byte	.LVL243
 7677 1e79 F8330000 		.4byte	0x33f8
 7678 1e7d 881E0000 		.4byte	0x1e88
 7679 1e81 21       		.uleb128 0x21
 7680 1e82 01       		.uleb128 0x1
 7681 1e83 50       		.byte	0x50
 7682 1e84 02       		.uleb128 0x2
 7683 1e85 74       		.byte	0x74
 7684 1e86 00       		.sleb128 0
 7685 1e87 00       		.byte	0
 7686 1e88 20       		.uleb128 0x20
 7687 1e89 12000000 		.4byte	.LVL244
 7688 1e8d 0A340000 		.4byte	0x340a
 7689 1e91 9C1E0000 		.4byte	0x1e9c
 7690 1e95 21       		.uleb128 0x21
 7691 1e96 01       		.uleb128 0x1
 7692 1e97 50       		.byte	0x50
 7693 1e98 02       		.uleb128 0x2
 7694 1e99 08       		.byte	0x8
 7695 1e9a 4F       		.byte	0x4f
ARM GAS  /tmp/cctBdhRt.s 			page 136


 7696 1e9b 00       		.byte	0
 7697 1e9c 20       		.uleb128 0x20
 7698 1e9d 1A000000 		.4byte	.LVL246
 7699 1ea1 0A340000 		.4byte	0x340a
 7700 1ea5 B21E0000 		.4byte	0x1eb2
 7701 1ea9 21       		.uleb128 0x21
 7702 1eaa 01       		.uleb128 0x1
 7703 1eab 50       		.byte	0x50
 7704 1eac 04       		.uleb128 0x4
 7705 1ead 75       		.byte	0x75
 7706 1eae 00       		.sleb128 0
 7707 1eaf 38       		.byte	0x38
 7708 1eb0 25       		.byte	0x25
 7709 1eb1 00       		.byte	0
 7710 1eb2 20       		.uleb128 0x20
 7711 1eb3 20000000 		.4byte	.LVL247
 7712 1eb7 0A340000 		.4byte	0x340a
 7713 1ebb C61E0000 		.4byte	0x1ec6
 7714 1ebf 21       		.uleb128 0x21
 7715 1ec0 01       		.uleb128 0x1
 7716 1ec1 50       		.byte	0x50
 7717 1ec2 02       		.uleb128 0x2
 7718 1ec3 75       		.byte	0x75
 7719 1ec4 00       		.sleb128 0
 7720 1ec5 00       		.byte	0
 7721 1ec6 22       		.uleb128 0x22
 7722 1ec7 26000000 		.4byte	.LVL248
 7723 1ecb 1F340000 		.4byte	0x341f
 7724 1ecf 21       		.uleb128 0x21
 7725 1ed0 01       		.uleb128 0x1
 7726 1ed1 50       		.byte	0x50
 7727 1ed2 02       		.uleb128 0x2
 7728 1ed3 74       		.byte	0x74
 7729 1ed4 00       		.sleb128 0
 7730 1ed5 00       		.byte	0
 7731 1ed6 00       		.byte	0
 7732 1ed7 26       		.uleb128 0x26
 7733 1ed8 09090000 		.4byte	.LASF214
 7734 1edc 01       		.byte	0x1
 7735 1edd C803     		.2byte	0x3c8
 7736 1edf B30A0000 		.4byte	0xab3
 7737 1ee3 00000000 		.4byte	.LFB300
 7738 1ee7 30000000 		.4byte	.LFE300-.LFB300
 7739 1eeb 01       		.uleb128 0x1
 7740 1eec 9C       		.byte	0x9c
 7741 1eed 721F0000 		.4byte	0x1f72
 7742 1ef1 29       		.uleb128 0x29
 7743 1ef2 E1040000 		.4byte	.LASF215
 7744 1ef6 01       		.byte	0x1
 7745 1ef7 C803     		.2byte	0x3c8
 7746 1ef9 BE0A0000 		.4byte	0xabe
 7747 1efd F7070000 		.4byte	.LLST67
 7748 1f01 28       		.uleb128 0x28
 7749 1f02 7300     		.ascii	"s\000"
 7750 1f04 01       		.byte	0x1
 7751 1f05 CA03     		.2byte	0x3ca
 7752 1f07 B30A0000 		.4byte	0xab3
ARM GAS  /tmp/cctBdhRt.s 			page 137


 7753 1f0b 18080000 		.4byte	.LLST68
 7754 1f0f 20       		.uleb128 0x20
 7755 1f10 0C000000 		.4byte	.LVL252
 7756 1f14 F8330000 		.4byte	0x33f8
 7757 1f18 231F0000 		.4byte	0x1f23
 7758 1f1c 21       		.uleb128 0x21
 7759 1f1d 01       		.uleb128 0x1
 7760 1f1e 50       		.byte	0x50
 7761 1f1f 02       		.uleb128 0x2
 7762 1f20 74       		.byte	0x74
 7763 1f21 00       		.sleb128 0
 7764 1f22 00       		.byte	0
 7765 1f23 20       		.uleb128 0x20
 7766 1f24 12000000 		.4byte	.LVL253
 7767 1f28 0A340000 		.4byte	0x340a
 7768 1f2c 371F0000 		.4byte	0x1f37
 7769 1f30 21       		.uleb128 0x21
 7770 1f31 01       		.uleb128 0x1
 7771 1f32 50       		.byte	0x50
 7772 1f33 02       		.uleb128 0x2
 7773 1f34 08       		.byte	0x8
 7774 1f35 4E       		.byte	0x4e
 7775 1f36 00       		.byte	0
 7776 1f37 20       		.uleb128 0x20
 7777 1f38 1A000000 		.4byte	.LVL255
 7778 1f3c 0A340000 		.4byte	0x340a
 7779 1f40 4D1F0000 		.4byte	0x1f4d
 7780 1f44 21       		.uleb128 0x21
 7781 1f45 01       		.uleb128 0x1
 7782 1f46 50       		.byte	0x50
 7783 1f47 04       		.uleb128 0x4
 7784 1f48 75       		.byte	0x75
 7785 1f49 00       		.sleb128 0
 7786 1f4a 38       		.byte	0x38
 7787 1f4b 25       		.byte	0x25
 7788 1f4c 00       		.byte	0
 7789 1f4d 20       		.uleb128 0x20
 7790 1f4e 20000000 		.4byte	.LVL256
 7791 1f52 0A340000 		.4byte	0x340a
 7792 1f56 611F0000 		.4byte	0x1f61
 7793 1f5a 21       		.uleb128 0x21
 7794 1f5b 01       		.uleb128 0x1
 7795 1f5c 50       		.byte	0x50
 7796 1f5d 02       		.uleb128 0x2
 7797 1f5e 75       		.byte	0x75
 7798 1f5f 00       		.sleb128 0
 7799 1f60 00       		.byte	0
 7800 1f61 22       		.uleb128 0x22
 7801 1f62 26000000 		.4byte	.LVL257
 7802 1f66 1F340000 		.4byte	0x341f
 7803 1f6a 21       		.uleb128 0x21
 7804 1f6b 01       		.uleb128 0x1
 7805 1f6c 50       		.byte	0x50
 7806 1f6d 02       		.uleb128 0x2
 7807 1f6e 74       		.byte	0x74
 7808 1f6f 00       		.sleb128 0
 7809 1f70 00       		.byte	0
ARM GAS  /tmp/cctBdhRt.s 			page 138


 7810 1f71 00       		.byte	0
 7811 1f72 26       		.uleb128 0x26
 7812 1f73 EA090000 		.4byte	.LASF216
 7813 1f77 01       		.byte	0x1
 7814 1f78 E003     		.2byte	0x3e0
 7815 1f7a B30A0000 		.4byte	0xab3
 7816 1f7e 00000000 		.4byte	.LFB301
 7817 1f82 1A000000 		.4byte	.LFE301-.LFB301
 7818 1f86 01       		.uleb128 0x1
 7819 1f87 9C       		.byte	0x9c
 7820 1f88 E91F0000 		.4byte	0x1fe9
 7821 1f8c 27       		.uleb128 0x27
 7822 1f8d 70726900 		.ascii	"pri\000"
 7823 1f91 01       		.byte	0x1
 7824 1f92 E003     		.2byte	0x3e0
 7825 1f94 B30A0000 		.4byte	0xab3
 7826 1f98 2B080000 		.4byte	.LLST69
 7827 1f9c 29       		.uleb128 0x29
 7828 1f9d 40010000 		.4byte	.LASF161
 7829 1fa1 01       		.byte	0x1
 7830 1fa2 E003     		.2byte	0x3e0
 7831 1fa4 BE0A0000 		.4byte	0xabe
 7832 1fa8 4C080000 		.4byte	.LLST70
 7833 1fac 27       		.uleb128 0x27
 7834 1fad 73726300 		.ascii	"src\000"
 7835 1fb1 01       		.byte	0x1
 7836 1fb2 E003     		.2byte	0x3e0
 7837 1fb4 BE0A0000 		.4byte	0xabe
 7838 1fb8 6D080000 		.4byte	.LLST71
 7839 1fbc 29       		.uleb128 0x29
 7840 1fbd 22090000 		.4byte	.LASF162
 7841 1fc1 01       		.byte	0x1
 7842 1fc2 E003     		.2byte	0x3e0
 7843 1fc4 BE0A0000 		.4byte	0xabe
 7844 1fc8 8E080000 		.4byte	.LLST72
 7845 1fcc 22       		.uleb128 0x22
 7846 1fcd 16000000 		.4byte	.LVL264
 7847 1fd1 750B0000 		.4byte	0xb75
 7848 1fd5 21       		.uleb128 0x21
 7849 1fd6 01       		.uleb128 0x1
 7850 1fd7 53       		.byte	0x53
 7851 1fd8 02       		.uleb128 0x2
 7852 1fd9 74       		.byte	0x74
 7853 1fda 00       		.sleb128 0
 7854 1fdb 21       		.uleb128 0x21
 7855 1fdc 01       		.uleb128 0x1
 7856 1fdd 52       		.byte	0x52
 7857 1fde 02       		.uleb128 0x2
 7858 1fdf 75       		.byte	0x75
 7859 1fe0 00       		.sleb128 0
 7860 1fe1 21       		.uleb128 0x21
 7861 1fe2 01       		.uleb128 0x1
 7862 1fe3 50       		.byte	0x50
 7863 1fe4 02       		.uleb128 0x2
 7864 1fe5 08       		.byte	0x8
 7865 1fe6 50       		.byte	0x50
 7866 1fe7 00       		.byte	0
ARM GAS  /tmp/cctBdhRt.s 			page 139


 7867 1fe8 00       		.byte	0
 7868 1fe9 26       		.uleb128 0x26
 7869 1fea FB060000 		.4byte	.LASF217
 7870 1fee 01       		.byte	0x1
 7871 1fef F203     		.2byte	0x3f2
 7872 1ff1 B30A0000 		.4byte	0xab3
 7873 1ff5 00000000 		.4byte	.LFB302
 7874 1ff9 1A000000 		.4byte	.LFE302-.LFB302
 7875 1ffd 01       		.uleb128 0x1
 7876 1ffe 9C       		.byte	0x9c
 7877 1fff 60200000 		.4byte	0x2060
 7878 2003 27       		.uleb128 0x27
 7879 2004 70726900 		.ascii	"pri\000"
 7880 2008 01       		.byte	0x1
 7881 2009 F203     		.2byte	0x3f2
 7882 200b B30A0000 		.4byte	0xab3
 7883 200f AF080000 		.4byte	.LLST73
 7884 2013 29       		.uleb128 0x29
 7885 2014 40010000 		.4byte	.LASF161
 7886 2018 01       		.byte	0x1
 7887 2019 F203     		.2byte	0x3f2
 7888 201b BE0A0000 		.4byte	0xabe
 7889 201f D0080000 		.4byte	.LLST74
 7890 2023 27       		.uleb128 0x27
 7891 2024 73726300 		.ascii	"src\000"
 7892 2028 01       		.byte	0x1
 7893 2029 F203     		.2byte	0x3f2
 7894 202b BE0A0000 		.4byte	0xabe
 7895 202f F1080000 		.4byte	.LLST75
 7896 2033 29       		.uleb128 0x29
 7897 2034 22090000 		.4byte	.LASF162
 7898 2038 01       		.byte	0x1
 7899 2039 F203     		.2byte	0x3f2
 7900 203b BE0A0000 		.4byte	0xabe
 7901 203f 12090000 		.4byte	.LLST76
 7902 2043 22       		.uleb128 0x22
 7903 2044 16000000 		.4byte	.LVL270
 7904 2048 750B0000 		.4byte	0xb75
 7905 204c 21       		.uleb128 0x21
 7906 204d 01       		.uleb128 0x1
 7907 204e 53       		.byte	0x53
 7908 204f 02       		.uleb128 0x2
 7909 2050 74       		.byte	0x74
 7910 2051 00       		.sleb128 0
 7911 2052 21       		.uleb128 0x21
 7912 2053 01       		.uleb128 0x1
 7913 2054 52       		.byte	0x52
 7914 2055 02       		.uleb128 0x2
 7915 2056 75       		.byte	0x75
 7916 2057 00       		.sleb128 0
 7917 2058 21       		.uleb128 0x21
 7918 2059 01       		.uleb128 0x1
 7919 205a 50       		.byte	0x50
 7920 205b 02       		.uleb128 0x2
 7921 205c 08       		.byte	0x8
 7922 205d 52       		.byte	0x52
 7923 205e 00       		.byte	0
ARM GAS  /tmp/cctBdhRt.s 			page 140


 7924 205f 00       		.byte	0
 7925 2060 26       		.uleb128 0x26
 7926 2061 32010000 		.4byte	.LASF218
 7927 2065 01       		.byte	0x1
 7928 2066 0404     		.2byte	0x404
 7929 2068 B30A0000 		.4byte	0xab3
 7930 206c 00000000 		.4byte	.LFB303
 7931 2070 1A000000 		.4byte	.LFE303-.LFB303
 7932 2074 01       		.uleb128 0x1
 7933 2075 9C       		.byte	0x9c
 7934 2076 D7200000 		.4byte	0x20d7
 7935 207a 27       		.uleb128 0x27
 7936 207b 70726900 		.ascii	"pri\000"
 7937 207f 01       		.byte	0x1
 7938 2080 0404     		.2byte	0x404
 7939 2082 B30A0000 		.4byte	0xab3
 7940 2086 33090000 		.4byte	.LLST77
 7941 208a 29       		.uleb128 0x29
 7942 208b 40010000 		.4byte	.LASF161
 7943 208f 01       		.byte	0x1
 7944 2090 0404     		.2byte	0x404
 7945 2092 BE0A0000 		.4byte	0xabe
 7946 2096 54090000 		.4byte	.LLST78
 7947 209a 27       		.uleb128 0x27
 7948 209b 73726300 		.ascii	"src\000"
 7949 209f 01       		.byte	0x1
 7950 20a0 0404     		.2byte	0x404
 7951 20a2 BE0A0000 		.4byte	0xabe
 7952 20a6 75090000 		.4byte	.LLST79
 7953 20aa 29       		.uleb128 0x29
 7954 20ab 22090000 		.4byte	.LASF162
 7955 20af 01       		.byte	0x1
 7956 20b0 0404     		.2byte	0x404
 7957 20b2 BE0A0000 		.4byte	0xabe
 7958 20b6 96090000 		.4byte	.LLST80
 7959 20ba 22       		.uleb128 0x22
 7960 20bb 16000000 		.4byte	.LVL276
 7961 20bf 750B0000 		.4byte	0xb75
 7962 20c3 21       		.uleb128 0x21
 7963 20c4 01       		.uleb128 0x1
 7964 20c5 53       		.byte	0x53
 7965 20c6 02       		.uleb128 0x2
 7966 20c7 74       		.byte	0x74
 7967 20c8 00       		.sleb128 0
 7968 20c9 21       		.uleb128 0x21
 7969 20ca 01       		.uleb128 0x1
 7970 20cb 52       		.byte	0x52
 7971 20cc 02       		.uleb128 0x2
 7972 20cd 75       		.byte	0x75
 7973 20ce 00       		.sleb128 0
 7974 20cf 21       		.uleb128 0x21
 7975 20d0 01       		.uleb128 0x1
 7976 20d1 50       		.byte	0x50
 7977 20d2 02       		.uleb128 0x2
 7978 20d3 08       		.byte	0x8
 7979 20d4 54       		.byte	0x54
 7980 20d5 00       		.byte	0
ARM GAS  /tmp/cctBdhRt.s 			page 141


 7981 20d6 00       		.byte	0
 7982 20d7 26       		.uleb128 0x26
 7983 20d8 7B060000 		.4byte	.LASF219
 7984 20dc 01       		.byte	0x1
 7985 20dd 1504     		.2byte	0x415
 7986 20df B30A0000 		.4byte	0xab3
 7987 20e3 00000000 		.4byte	.LFB304
 7988 20e7 3C000000 		.4byte	.LFE304-.LFB304
 7989 20eb 01       		.uleb128 0x1
 7990 20ec 9C       		.byte	0x9c
 7991 20ed 9A210000 		.4byte	0x219a
 7992 20f1 29       		.uleb128 0x29
 7993 20f2 B7060000 		.4byte	.LASF187
 7994 20f6 01       		.byte	0x1
 7995 20f7 1504     		.2byte	0x415
 7996 20f9 BE0A0000 		.4byte	0xabe
 7997 20fd B7090000 		.4byte	.LLST81
 7998 2101 29       		.uleb128 0x29
 7999 2102 40010000 		.4byte	.LASF161
 8000 2106 01       		.byte	0x1
 8001 2107 1504     		.2byte	0x415
 8002 2109 BE0A0000 		.4byte	0xabe
 8003 210d D8090000 		.4byte	.LLST82
 8004 2111 29       		.uleb128 0x29
 8005 2112 C30B0000 		.4byte	.LASF188
 8006 2116 01       		.byte	0x1
 8007 2117 1504     		.2byte	0x415
 8008 2119 99110000 		.4byte	0x1199
 8009 211d F9090000 		.4byte	.LLST83
 8010 2121 28       		.uleb128 0x28
 8011 2122 7300     		.ascii	"s\000"
 8012 2124 01       		.byte	0x1
 8013 2125 1704     		.2byte	0x417
 8014 2127 B30A0000 		.4byte	0xab3
 8015 212b 250A0000 		.4byte	.LLST84
 8016 212f 2A       		.uleb128 0x2a
 8017 2130 0E000000 		.4byte	.LVL279
 8018 2134 F8330000 		.4byte	0x33f8
 8019 2138 20       		.uleb128 0x20
 8020 2139 14000000 		.4byte	.LVL280
 8021 213d 0A340000 		.4byte	0x340a
 8022 2141 4C210000 		.4byte	0x214c
 8023 2145 21       		.uleb128 0x21
 8024 2146 01       		.uleb128 0x1
 8025 2147 50       		.byte	0x50
 8026 2148 02       		.uleb128 0x2
 8027 2149 08       		.byte	0x8
 8028 214a 56       		.byte	0x56
 8029 214b 00       		.byte	0
 8030 214c 20       		.uleb128 0x20
 8031 214d 1C000000 		.4byte	.LVL282
 8032 2151 0A340000 		.4byte	0x340a
 8033 2155 62210000 		.4byte	0x2162
 8034 2159 21       		.uleb128 0x21
 8035 215a 01       		.uleb128 0x1
 8036 215b 50       		.byte	0x50
 8037 215c 04       		.uleb128 0x4
ARM GAS  /tmp/cctBdhRt.s 			page 142


 8038 215d 74       		.byte	0x74
 8039 215e 00       		.sleb128 0
 8040 215f 38       		.byte	0x38
 8041 2160 25       		.byte	0x25
 8042 2161 00       		.byte	0
 8043 2162 20       		.uleb128 0x20
 8044 2163 22000000 		.4byte	.LVL283
 8045 2167 0A340000 		.4byte	0x340a
 8046 216b 76210000 		.4byte	0x2176
 8047 216f 21       		.uleb128 0x21
 8048 2170 01       		.uleb128 0x1
 8049 2171 50       		.byte	0x50
 8050 2172 02       		.uleb128 0x2
 8051 2173 74       		.byte	0x74
 8052 2174 00       		.sleb128 0
 8053 2175 00       		.byte	0
 8054 2176 20       		.uleb128 0x20
 8055 2177 2E000000 		.4byte	.LVL284
 8056 217b 4D340000 		.4byte	0x344d
 8057 217f 90210000 		.4byte	0x2190
 8058 2183 21       		.uleb128 0x21
 8059 2184 01       		.uleb128 0x1
 8060 2185 52       		.byte	0x52
 8061 2186 02       		.uleb128 0x2
 8062 2187 77       		.byte	0x77
 8063 2188 00       		.sleb128 0
 8064 2189 21       		.uleb128 0x21
 8065 218a 01       		.uleb128 0x1
 8066 218b 51       		.byte	0x51
 8067 218c 02       		.uleb128 0x2
 8068 218d 75       		.byte	0x75
 8069 218e 00       		.sleb128 0
 8070 218f 00       		.byte	0
 8071 2190 2A       		.uleb128 0x2a
 8072 2191 34000000 		.4byte	.LVL285
 8073 2195 1F340000 		.4byte	0x341f
 8074 2199 00       		.byte	0
 8075 219a 26       		.uleb128 0x26
 8076 219b D40A0000 		.4byte	.LASF220
 8077 219f 01       		.byte	0x1
 8078 21a0 2B04     		.2byte	0x42b
 8079 21a2 B30A0000 		.4byte	0xab3
 8080 21a6 00000000 		.4byte	.LFB305
 8081 21aa 28000000 		.4byte	.LFE305-.LFB305
 8082 21ae 01       		.uleb128 0x1
 8083 21af 9C       		.byte	0x9c
 8084 21b0 1F220000 		.4byte	0x221f
 8085 21b4 29       		.uleb128 0x29
 8086 21b5 23040000 		.4byte	.LASF221
 8087 21b9 01       		.byte	0x1
 8088 21ba 2B04     		.2byte	0x42b
 8089 21bc B30A0000 		.4byte	0xab3
 8090 21c0 380A0000 		.4byte	.LLST85
 8091 21c4 28       		.uleb128 0x28
 8092 21c5 7300     		.ascii	"s\000"
 8093 21c7 01       		.byte	0x1
 8094 21c8 2D04     		.2byte	0x42d
ARM GAS  /tmp/cctBdhRt.s 			page 143


 8095 21ca B30A0000 		.4byte	0xab3
 8096 21ce 590A0000 		.4byte	.LLST86
 8097 21d2 20       		.uleb128 0x20
 8098 21d3 0C000000 		.4byte	.LVL289
 8099 21d7 F8330000 		.4byte	0x33f8
 8100 21db E6210000 		.4byte	0x21e6
 8101 21df 21       		.uleb128 0x21
 8102 21e0 01       		.uleb128 0x1
 8103 21e1 50       		.byte	0x50
 8104 21e2 02       		.uleb128 0x2
 8105 21e3 74       		.byte	0x74
 8106 21e4 00       		.sleb128 0
 8107 21e5 00       		.byte	0
 8108 21e6 20       		.uleb128 0x20
 8109 21e7 12000000 		.4byte	.LVL290
 8110 21eb 0A340000 		.4byte	0x340a
 8111 21ef FA210000 		.4byte	0x21fa
 8112 21f3 21       		.uleb128 0x21
 8113 21f4 01       		.uleb128 0x1
 8114 21f5 50       		.byte	0x50
 8115 21f6 02       		.uleb128 0x2
 8116 21f7 08       		.byte	0x8
 8117 21f8 59       		.byte	0x59
 8118 21f9 00       		.byte	0
 8119 21fa 20       		.uleb128 0x20
 8120 21fb 1A000000 		.4byte	.LVL292
 8121 21ff 0A340000 		.4byte	0x340a
 8122 2203 0E220000 		.4byte	0x220e
 8123 2207 21       		.uleb128 0x21
 8124 2208 01       		.uleb128 0x1
 8125 2209 50       		.byte	0x50
 8126 220a 02       		.uleb128 0x2
 8127 220b 76       		.byte	0x76
 8128 220c 00       		.sleb128 0
 8129 220d 00       		.byte	0
 8130 220e 22       		.uleb128 0x22
 8131 220f 20000000 		.4byte	.LVL293
 8132 2213 1F340000 		.4byte	0x341f
 8133 2217 21       		.uleb128 0x21
 8134 2218 01       		.uleb128 0x1
 8135 2219 50       		.byte	0x50
 8136 221a 02       		.uleb128 0x2
 8137 221b 74       		.byte	0x74
 8138 221c 00       		.sleb128 0
 8139 221d 00       		.byte	0
 8140 221e 00       		.byte	0
 8141 221f 26       		.uleb128 0x26
 8142 2220 E90A0000 		.4byte	.LASF222
 8143 2224 01       		.byte	0x1
 8144 2225 3F04     		.2byte	0x43f
 8145 2227 B30A0000 		.4byte	0xab3
 8146 222b 00000000 		.4byte	.LFB306
 8147 222f 28000000 		.4byte	.LFE306-.LFB306
 8148 2233 01       		.uleb128 0x1
 8149 2234 9C       		.byte	0x9c
 8150 2235 A4220000 		.4byte	0x22a4
 8151 2239 29       		.uleb128 0x29
ARM GAS  /tmp/cctBdhRt.s 			page 144


 8152 223a 23040000 		.4byte	.LASF221
 8153 223e 01       		.byte	0x1
 8154 223f 3F04     		.2byte	0x43f
 8155 2241 B30A0000 		.4byte	0xab3
 8156 2245 6C0A0000 		.4byte	.LLST87
 8157 2249 28       		.uleb128 0x28
 8158 224a 7300     		.ascii	"s\000"
 8159 224c 01       		.byte	0x1
 8160 224d 4104     		.2byte	0x441
 8161 224f B30A0000 		.4byte	0xab3
 8162 2253 8D0A0000 		.4byte	.LLST88
 8163 2257 20       		.uleb128 0x20
 8164 2258 0C000000 		.4byte	.LVL297
 8165 225c F8330000 		.4byte	0x33f8
 8166 2260 6B220000 		.4byte	0x226b
 8167 2264 21       		.uleb128 0x21
 8168 2265 01       		.uleb128 0x1
 8169 2266 50       		.byte	0x50
 8170 2267 02       		.uleb128 0x2
 8171 2268 74       		.byte	0x74
 8172 2269 00       		.sleb128 0
 8173 226a 00       		.byte	0
 8174 226b 20       		.uleb128 0x20
 8175 226c 12000000 		.4byte	.LVL298
 8176 2270 0A340000 		.4byte	0x340a
 8177 2274 7F220000 		.4byte	0x227f
 8178 2278 21       		.uleb128 0x21
 8179 2279 01       		.uleb128 0x1
 8180 227a 50       		.byte	0x50
 8181 227b 02       		.uleb128 0x2
 8182 227c 08       		.byte	0x8
 8183 227d 58       		.byte	0x58
 8184 227e 00       		.byte	0
 8185 227f 20       		.uleb128 0x20
 8186 2280 1A000000 		.4byte	.LVL300
 8187 2284 0A340000 		.4byte	0x340a
 8188 2288 93220000 		.4byte	0x2293
 8189 228c 21       		.uleb128 0x21
 8190 228d 01       		.uleb128 0x1
 8191 228e 50       		.byte	0x50
 8192 228f 02       		.uleb128 0x2
 8193 2290 76       		.byte	0x76
 8194 2291 00       		.sleb128 0
 8195 2292 00       		.byte	0
 8196 2293 22       		.uleb128 0x22
 8197 2294 20000000 		.4byte	.LVL301
 8198 2298 1F340000 		.4byte	0x341f
 8199 229c 21       		.uleb128 0x21
 8200 229d 01       		.uleb128 0x1
 8201 229e 50       		.byte	0x50
 8202 229f 02       		.uleb128 0x2
 8203 22a0 74       		.byte	0x74
 8204 22a1 00       		.sleb128 0
 8205 22a2 00       		.byte	0
 8206 22a3 00       		.byte	0
 8207 22a4 26       		.uleb128 0x26
 8208 22a5 230B0000 		.4byte	.LASF223
ARM GAS  /tmp/cctBdhRt.s 			page 145


 8209 22a9 01       		.byte	0x1
 8210 22aa 5904     		.2byte	0x459
 8211 22ac B30A0000 		.4byte	0xab3
 8212 22b0 00000000 		.4byte	.LFB307
 8213 22b4 64000000 		.4byte	.LFE307-.LFB307
 8214 22b8 01       		.uleb128 0x1
 8215 22b9 9C       		.byte	0x9c
 8216 22ba E3230000 		.4byte	0x23e3
 8217 22be 27       		.uleb128 0x27
 8218 22bf 70726900 		.ascii	"pri\000"
 8219 22c3 01       		.byte	0x1
 8220 22c4 5904     		.2byte	0x459
 8221 22c6 B30A0000 		.4byte	0xab3
 8222 22ca A00A0000 		.4byte	.LLST89
 8223 22ce 27       		.uleb128 0x27
 8224 22cf 6B00     		.ascii	"k\000"
 8225 22d1 01       		.byte	0x1
 8226 22d2 5904     		.2byte	0x459
 8227 22d4 B30A0000 		.4byte	0xab3
 8228 22d8 C10A0000 		.4byte	.LLST90
 8229 22dc 27       		.uleb128 0x27
 8230 22dd 6300     		.ascii	"c\000"
 8231 22df 01       		.byte	0x1
 8232 22e0 5904     		.2byte	0x459
 8233 22e2 B30A0000 		.4byte	0xab3
 8234 22e6 E20A0000 		.4byte	.LLST91
 8235 22ea 27       		.uleb128 0x27
 8236 22eb 6E00     		.ascii	"n\000"
 8237 22ed 01       		.byte	0x1
 8238 22ee 5904     		.2byte	0x459
 8239 22f0 B30A0000 		.4byte	0xab3
 8240 22f4 030B0000 		.4byte	.LLST92
 8241 22f8 27       		.uleb128 0x27
 8242 22f9 73726300 		.ascii	"src\000"
 8243 22fd 01       		.byte	0x1
 8244 22fe 5904     		.2byte	0x459
 8245 2300 BE0A0000 		.4byte	0xabe
 8246 2304 240B0000 		.4byte	.LLST93
 8247 2308 29       		.uleb128 0x29
 8248 2309 22090000 		.4byte	.LASF162
 8249 230d 01       		.byte	0x1
 8250 230e 5904     		.2byte	0x459
 8251 2310 BE0A0000 		.4byte	0xabe
 8252 2314 440B0000 		.4byte	.LLST94
 8253 2318 28       		.uleb128 0x28
 8254 2319 7300     		.ascii	"s\000"
 8255 231b 01       		.byte	0x1
 8256 231c 5B04     		.2byte	0x45b
 8257 231e B30A0000 		.4byte	0xab3
 8258 2322 640B0000 		.4byte	.LLST95
 8259 2326 20       		.uleb128 0x20
 8260 2327 1C000000 		.4byte	.LVL305
 8261 232b F8330000 		.4byte	0x33f8
 8262 232f 3A230000 		.4byte	0x233a
 8263 2333 21       		.uleb128 0x21
 8264 2334 01       		.uleb128 0x1
 8265 2335 50       		.byte	0x50
ARM GAS  /tmp/cctBdhRt.s 			page 146


 8266 2336 02       		.uleb128 0x2
 8267 2337 74       		.byte	0x74
 8268 2338 00       		.sleb128 0
 8269 2339 00       		.byte	0
 8270 233a 20       		.uleb128 0x20
 8271 233b 24000000 		.4byte	.LVL306
 8272 233f 0A340000 		.4byte	0x340a
 8273 2343 51230000 		.4byte	0x2351
 8274 2347 21       		.uleb128 0x21
 8275 2348 01       		.uleb128 0x1
 8276 2349 50       		.byte	0x50
 8277 234a 05       		.uleb128 0x5
 8278 234b 77       		.byte	0x77
 8279 234c 00       		.sleb128 0
 8280 234d 08       		.byte	0x8
 8281 234e 60       		.byte	0x60
 8282 234f 21       		.byte	0x21
 8283 2350 00       		.byte	0
 8284 2351 20       		.uleb128 0x20
 8285 2352 2C000000 		.4byte	.LVL308
 8286 2356 0A340000 		.4byte	0x340a
 8287 235a 65230000 		.4byte	0x2365
 8288 235e 21       		.uleb128 0x21
 8289 235f 01       		.uleb128 0x1
 8290 2360 50       		.byte	0x50
 8291 2361 02       		.uleb128 0x2
 8292 2362 7A       		.byte	0x7a
 8293 2363 00       		.sleb128 0
 8294 2364 00       		.byte	0
 8295 2365 20       		.uleb128 0x20
 8296 2366 32000000 		.4byte	.LVL309
 8297 236a 0A340000 		.4byte	0x340a
 8298 236e 79230000 		.4byte	0x2379
 8299 2372 21       		.uleb128 0x21
 8300 2373 01       		.uleb128 0x1
 8301 2374 50       		.byte	0x50
 8302 2375 02       		.uleb128 0x2
 8303 2376 79       		.byte	0x79
 8304 2377 00       		.sleb128 0
 8305 2378 00       		.byte	0
 8306 2379 20       		.uleb128 0x20
 8307 237a 38000000 		.4byte	.LVL310
 8308 237e 0A340000 		.4byte	0x340a
 8309 2382 8D230000 		.4byte	0x238d
 8310 2386 21       		.uleb128 0x21
 8311 2387 01       		.uleb128 0x1
 8312 2388 50       		.byte	0x50
 8313 2389 02       		.uleb128 0x2
 8314 238a 78       		.byte	0x78
 8315 238b 00       		.sleb128 0
 8316 238c 00       		.byte	0
 8317 238d 20       		.uleb128 0x20
 8318 238e 46000000 		.4byte	.LVL311
 8319 2392 0A340000 		.4byte	0x340a
 8320 2396 AA230000 		.4byte	0x23aa
 8321 239a 21       		.uleb128 0x21
 8322 239b 01       		.uleb128 0x1
ARM GAS  /tmp/cctBdhRt.s 			page 147


 8323 239c 50       		.byte	0x50
 8324 239d 0B       		.uleb128 0xb
 8325 239e 76       		.byte	0x76
 8326 239f 00       		.sleb128 0
 8327 23a0 38       		.byte	0x38
 8328 23a1 25       		.byte	0x25
 8329 23a2 34       		.byte	0x34
 8330 23a3 24       		.byte	0x24
 8331 23a4 75       		.byte	0x75
 8332 23a5 00       		.sleb128 0
 8333 23a6 38       		.byte	0x38
 8334 23a7 25       		.byte	0x25
 8335 23a8 21       		.byte	0x21
 8336 23a9 00       		.byte	0
 8337 23aa 20       		.uleb128 0x20
 8338 23ab 4C000000 		.4byte	.LVL312
 8339 23af 0A340000 		.4byte	0x340a
 8340 23b3 BE230000 		.4byte	0x23be
 8341 23b7 21       		.uleb128 0x21
 8342 23b8 01       		.uleb128 0x1
 8343 23b9 50       		.byte	0x50
 8344 23ba 02       		.uleb128 0x2
 8345 23bb 76       		.byte	0x76
 8346 23bc 00       		.sleb128 0
 8347 23bd 00       		.byte	0
 8348 23be 20       		.uleb128 0x20
 8349 23bf 52000000 		.4byte	.LVL313
 8350 23c3 0A340000 		.4byte	0x340a
 8351 23c7 D2230000 		.4byte	0x23d2
 8352 23cb 21       		.uleb128 0x21
 8353 23cc 01       		.uleb128 0x1
 8354 23cd 50       		.byte	0x50
 8355 23ce 02       		.uleb128 0x2
 8356 23cf 75       		.byte	0x75
 8357 23d0 00       		.sleb128 0
 8358 23d1 00       		.byte	0
 8359 23d2 22       		.uleb128 0x22
 8360 23d3 58000000 		.4byte	.LVL314
 8361 23d7 1F340000 		.4byte	0x341f
 8362 23db 21       		.uleb128 0x21
 8363 23dc 01       		.uleb128 0x1
 8364 23dd 50       		.byte	0x50
 8365 23de 02       		.uleb128 0x2
 8366 23df 74       		.byte	0x74
 8367 23e0 00       		.sleb128 0
 8368 23e1 00       		.byte	0
 8369 23e2 00       		.byte	0
 8370 23e3 26       		.uleb128 0x26
 8371 23e4 40090000 		.4byte	.LASF224
 8372 23e8 01       		.byte	0x1
 8373 23e9 7704     		.2byte	0x477
 8374 23eb B30A0000 		.4byte	0xab3
 8375 23ef 00000000 		.4byte	.LFB308
 8376 23f3 14000000 		.4byte	.LFE308-.LFB308
 8377 23f7 01       		.uleb128 0x1
 8378 23f8 9C       		.byte	0x9c
 8379 23f9 61240000 		.4byte	0x2461
ARM GAS  /tmp/cctBdhRt.s 			page 148


 8380 23fd 27       		.uleb128 0x27
 8381 23fe 70726900 		.ascii	"pri\000"
 8382 2402 01       		.byte	0x1
 8383 2403 7704     		.2byte	0x477
 8384 2405 B30A0000 		.4byte	0xab3
 8385 2409 770B0000 		.4byte	.LLST96
 8386 240d 27       		.uleb128 0x27
 8387 240e 6B00     		.ascii	"k\000"
 8388 2410 01       		.byte	0x1
 8389 2411 7704     		.2byte	0x477
 8390 2413 B30A0000 		.4byte	0xab3
 8391 2417 980B0000 		.4byte	.LLST97
 8392 241b 27       		.uleb128 0x27
 8393 241c 6300     		.ascii	"c\000"
 8394 241e 01       		.byte	0x1
 8395 241f 7704     		.2byte	0x477
 8396 2421 B30A0000 		.4byte	0xab3
 8397 2425 B90B0000 		.4byte	.LLST98
 8398 2429 27       		.uleb128 0x27
 8399 242a 6E00     		.ascii	"n\000"
 8400 242c 01       		.byte	0x1
 8401 242d 7704     		.2byte	0x477
 8402 242f B30A0000 		.4byte	0xab3
 8403 2433 DA0B0000 		.4byte	.LLST99
 8404 2437 27       		.uleb128 0x27
 8405 2438 73726300 		.ascii	"src\000"
 8406 243c 01       		.byte	0x1
 8407 243d 7704     		.2byte	0x477
 8408 243f BE0A0000 		.4byte	0xabe
 8409 2443 FB0B0000 		.4byte	.LLST100
 8410 2447 29       		.uleb128 0x29
 8411 2448 22090000 		.4byte	.LASF162
 8412 244c 01       		.byte	0x1
 8413 244d 7704     		.2byte	0x477
 8414 244f BE0A0000 		.4byte	0xabe
 8415 2453 0F0C0000 		.4byte	.LLST101
 8416 2457 2E       		.uleb128 0x2e
 8417 2458 14000000 		.4byte	.LVL319
 8418 245c A4220000 		.4byte	0x22a4
 8419 2460 00       		.byte	0
 8420 2461 26       		.uleb128 0x26
 8421 2462 24010000 		.4byte	.LASF225
 8422 2466 01       		.byte	0x1
 8423 2467 8C04     		.2byte	0x48c
 8424 2469 B30A0000 		.4byte	0xab3
 8425 246d 00000000 		.4byte	.LFB309
 8426 2471 64000000 		.4byte	.LFE309-.LFB309
 8427 2475 01       		.uleb128 0x1
 8428 2476 9C       		.byte	0x9c
 8429 2477 A0250000 		.4byte	0x25a0
 8430 247b 27       		.uleb128 0x27
 8431 247c 70726900 		.ascii	"pri\000"
 8432 2480 01       		.byte	0x1
 8433 2481 8C04     		.2byte	0x48c
 8434 2483 B30A0000 		.4byte	0xab3
 8435 2487 230C0000 		.4byte	.LLST102
 8436 248b 27       		.uleb128 0x27
ARM GAS  /tmp/cctBdhRt.s 			page 149


 8437 248c 6B00     		.ascii	"k\000"
 8438 248e 01       		.byte	0x1
 8439 248f 8C04     		.2byte	0x48c
 8440 2491 B30A0000 		.4byte	0xab3
 8441 2495 440C0000 		.4byte	.LLST103
 8442 2499 27       		.uleb128 0x27
 8443 249a 6300     		.ascii	"c\000"
 8444 249c 01       		.byte	0x1
 8445 249d 8C04     		.2byte	0x48c
 8446 249f B30A0000 		.4byte	0xab3
 8447 24a3 650C0000 		.4byte	.LLST104
 8448 24a7 27       		.uleb128 0x27
 8449 24a8 73726300 		.ascii	"src\000"
 8450 24ac 01       		.byte	0x1
 8451 24ad 8C04     		.2byte	0x48c
 8452 24af BE0A0000 		.4byte	0xabe
 8453 24b3 860C0000 		.4byte	.LLST105
 8454 24b7 29       		.uleb128 0x29
 8455 24b8 22090000 		.4byte	.LASF162
 8456 24bc 01       		.byte	0x1
 8457 24bd 8C04     		.2byte	0x48c
 8458 24bf BE0A0000 		.4byte	0xabe
 8459 24c3 A70C0000 		.4byte	.LLST106
 8460 24c7 27       		.uleb128 0x27
 8461 24c8 6D00     		.ascii	"m\000"
 8462 24ca 01       		.byte	0x1
 8463 24cb 8C04     		.2byte	0x48c
 8464 24cd B30A0000 		.4byte	0xab3
 8465 24d1 C70C0000 		.4byte	.LLST107
 8466 24d5 28       		.uleb128 0x28
 8467 24d6 7300     		.ascii	"s\000"
 8468 24d8 01       		.byte	0x1
 8469 24d9 8E04     		.2byte	0x48e
 8470 24db B30A0000 		.4byte	0xab3
 8471 24df E70C0000 		.4byte	.LLST108
 8472 24e3 20       		.uleb128 0x20
 8473 24e4 1C000000 		.4byte	.LVL322
 8474 24e8 F8330000 		.4byte	0x33f8
 8475 24ec F7240000 		.4byte	0x24f7
 8476 24f0 21       		.uleb128 0x21
 8477 24f1 01       		.uleb128 0x1
 8478 24f2 50       		.byte	0x50
 8479 24f3 02       		.uleb128 0x2
 8480 24f4 74       		.byte	0x74
 8481 24f5 00       		.sleb128 0
 8482 24f6 00       		.byte	0
 8483 24f7 20       		.uleb128 0x20
 8484 24f8 24000000 		.4byte	.LVL323
 8485 24fc 0A340000 		.4byte	0x340a
 8486 2500 0E250000 		.4byte	0x250e
 8487 2504 21       		.uleb128 0x21
 8488 2505 01       		.uleb128 0x1
 8489 2506 50       		.byte	0x50
 8490 2507 05       		.uleb128 0x5
 8491 2508 77       		.byte	0x77
 8492 2509 00       		.sleb128 0
 8493 250a 08       		.byte	0x8
ARM GAS  /tmp/cctBdhRt.s 			page 150


 8494 250b 64       		.byte	0x64
 8495 250c 21       		.byte	0x21
 8496 250d 00       		.byte	0
 8497 250e 20       		.uleb128 0x20
 8498 250f 2C000000 		.4byte	.LVL325
 8499 2513 0A340000 		.4byte	0x340a
 8500 2517 22250000 		.4byte	0x2522
 8501 251b 21       		.uleb128 0x21
 8502 251c 01       		.uleb128 0x1
 8503 251d 50       		.byte	0x50
 8504 251e 02       		.uleb128 0x2
 8505 251f 7A       		.byte	0x7a
 8506 2520 00       		.sleb128 0
 8507 2521 00       		.byte	0
 8508 2522 20       		.uleb128 0x20
 8509 2523 32000000 		.4byte	.LVL326
 8510 2527 0A340000 		.4byte	0x340a
 8511 252b 36250000 		.4byte	0x2536
 8512 252f 21       		.uleb128 0x21
 8513 2530 01       		.uleb128 0x1
 8514 2531 50       		.byte	0x50
 8515 2532 02       		.uleb128 0x2
 8516 2533 79       		.byte	0x79
 8517 2534 00       		.sleb128 0
 8518 2535 00       		.byte	0
 8519 2536 20       		.uleb128 0x20
 8520 2537 40000000 		.4byte	.LVL327
 8521 253b 0A340000 		.4byte	0x340a
 8522 253f 53250000 		.4byte	0x2553
 8523 2543 21       		.uleb128 0x21
 8524 2544 01       		.uleb128 0x1
 8525 2545 50       		.byte	0x50
 8526 2546 0B       		.uleb128 0xb
 8527 2547 76       		.byte	0x76
 8528 2548 00       		.sleb128 0
 8529 2549 38       		.byte	0x38
 8530 254a 25       		.byte	0x25
 8531 254b 34       		.byte	0x34
 8532 254c 24       		.byte	0x24
 8533 254d 75       		.byte	0x75
 8534 254e 00       		.sleb128 0
 8535 254f 38       		.byte	0x38
 8536 2550 25       		.byte	0x25
 8537 2551 21       		.byte	0x21
 8538 2552 00       		.byte	0
 8539 2553 20       		.uleb128 0x20
 8540 2554 46000000 		.4byte	.LVL328
 8541 2558 0A340000 		.4byte	0x340a
 8542 255c 67250000 		.4byte	0x2567
 8543 2560 21       		.uleb128 0x21
 8544 2561 01       		.uleb128 0x1
 8545 2562 50       		.byte	0x50
 8546 2563 02       		.uleb128 0x2
 8547 2564 76       		.byte	0x76
 8548 2565 00       		.sleb128 0
 8549 2566 00       		.byte	0
 8550 2567 20       		.uleb128 0x20
ARM GAS  /tmp/cctBdhRt.s 			page 151


 8551 2568 4C000000 		.4byte	.LVL329
 8552 256c 0A340000 		.4byte	0x340a
 8553 2570 7B250000 		.4byte	0x257b
 8554 2574 21       		.uleb128 0x21
 8555 2575 01       		.uleb128 0x1
 8556 2576 50       		.byte	0x50
 8557 2577 02       		.uleb128 0x2
 8558 2578 75       		.byte	0x75
 8559 2579 00       		.sleb128 0
 8560 257a 00       		.byte	0
 8561 257b 20       		.uleb128 0x20
 8562 257c 52000000 		.4byte	.LVL330
 8563 2580 0A340000 		.4byte	0x340a
 8564 2584 8F250000 		.4byte	0x258f
 8565 2588 21       		.uleb128 0x21
 8566 2589 01       		.uleb128 0x1
 8567 258a 50       		.byte	0x50
 8568 258b 02       		.uleb128 0x2
 8569 258c 78       		.byte	0x78
 8570 258d 00       		.sleb128 0
 8571 258e 00       		.byte	0
 8572 258f 22       		.uleb128 0x22
 8573 2590 58000000 		.4byte	.LVL331
 8574 2594 1F340000 		.4byte	0x341f
 8575 2598 21       		.uleb128 0x21
 8576 2599 01       		.uleb128 0x1
 8577 259a 50       		.byte	0x50
 8578 259b 02       		.uleb128 0x2
 8579 259c 74       		.byte	0x74
 8580 259d 00       		.sleb128 0
 8581 259e 00       		.byte	0
 8582 259f 00       		.byte	0
 8583 25a0 26       		.uleb128 0x26
 8584 25a1 750A0000 		.4byte	.LASF226
 8585 25a5 01       		.byte	0x1
 8586 25a6 AA04     		.2byte	0x4aa
 8587 25a8 B30A0000 		.4byte	0xab3
 8588 25ac 00000000 		.4byte	.LFB310
 8589 25b0 50000000 		.4byte	.LFE310-.LFB310
 8590 25b4 01       		.uleb128 0x1
 8591 25b5 9C       		.byte	0x9c
 8592 25b6 B4260000 		.4byte	0x26b4
 8593 25ba 27       		.uleb128 0x27
 8594 25bb 70726900 		.ascii	"pri\000"
 8595 25bf 01       		.byte	0x1
 8596 25c0 AA04     		.2byte	0x4aa
 8597 25c2 B30A0000 		.4byte	0xab3
 8598 25c6 FA0C0000 		.4byte	.LLST109
 8599 25ca 27       		.uleb128 0x27
 8600 25cb 6B00     		.ascii	"k\000"
 8601 25cd 01       		.byte	0x1
 8602 25ce AA04     		.2byte	0x4aa
 8603 25d0 B30A0000 		.4byte	0xab3
 8604 25d4 1B0D0000 		.4byte	.LLST110
 8605 25d8 27       		.uleb128 0x27
 8606 25d9 6300     		.ascii	"c\000"
 8607 25db 01       		.byte	0x1
ARM GAS  /tmp/cctBdhRt.s 			page 152


 8608 25dc AA04     		.2byte	0x4aa
 8609 25de B30A0000 		.4byte	0xab3
 8610 25e2 3C0D0000 		.4byte	.LLST111
 8611 25e6 27       		.uleb128 0x27
 8612 25e7 73726300 		.ascii	"src\000"
 8613 25eb 01       		.byte	0x1
 8614 25ec AA04     		.2byte	0x4aa
 8615 25ee BE0A0000 		.4byte	0xabe
 8616 25f2 5D0D0000 		.4byte	.LLST112
 8617 25f6 27       		.uleb128 0x27
 8618 25f7 6D00     		.ascii	"m\000"
 8619 25f9 01       		.byte	0x1
 8620 25fa AA04     		.2byte	0x4aa
 8621 25fc B30A0000 		.4byte	0xab3
 8622 2600 7E0D0000 		.4byte	.LLST113
 8623 2604 28       		.uleb128 0x28
 8624 2605 7300     		.ascii	"s\000"
 8625 2607 01       		.byte	0x1
 8626 2608 AC04     		.2byte	0x4ac
 8627 260a B30A0000 		.4byte	0xab3
 8628 260e 9E0D0000 		.4byte	.LLST114
 8629 2612 20       		.uleb128 0x20
 8630 2613 18000000 		.4byte	.LVL335
 8631 2617 F8330000 		.4byte	0x33f8
 8632 261b 26260000 		.4byte	0x2626
 8633 261f 21       		.uleb128 0x21
 8634 2620 01       		.uleb128 0x1
 8635 2621 50       		.byte	0x50
 8636 2622 02       		.uleb128 0x2
 8637 2623 74       		.byte	0x74
 8638 2624 00       		.sleb128 0
 8639 2625 00       		.byte	0
 8640 2626 20       		.uleb128 0x20
 8641 2627 20000000 		.4byte	.LVL336
 8642 262b 0A340000 		.4byte	0x340a
 8643 262f 3D260000 		.4byte	0x263d
 8644 2633 21       		.uleb128 0x21
 8645 2634 01       		.uleb128 0x1
 8646 2635 50       		.byte	0x50
 8647 2636 05       		.uleb128 0x5
 8648 2637 76       		.byte	0x76
 8649 2638 00       		.sleb128 0
 8650 2639 08       		.byte	0x8
 8651 263a 66       		.byte	0x66
 8652 263b 21       		.byte	0x21
 8653 263c 00       		.byte	0
 8654 263d 20       		.uleb128 0x20
 8655 263e 28000000 		.4byte	.LVL338
 8656 2642 0A340000 		.4byte	0x340a
 8657 2646 51260000 		.4byte	0x2651
 8658 264a 21       		.uleb128 0x21
 8659 264b 01       		.uleb128 0x1
 8660 264c 50       		.byte	0x50
 8661 264d 02       		.uleb128 0x2
 8662 264e 79       		.byte	0x79
 8663 264f 00       		.sleb128 0
 8664 2650 00       		.byte	0
ARM GAS  /tmp/cctBdhRt.s 			page 153


 8665 2651 20       		.uleb128 0x20
 8666 2652 2E000000 		.4byte	.LVL339
 8667 2656 0A340000 		.4byte	0x340a
 8668 265a 65260000 		.4byte	0x2665
 8669 265e 21       		.uleb128 0x21
 8670 265f 01       		.uleb128 0x1
 8671 2660 50       		.byte	0x50
 8672 2661 02       		.uleb128 0x2
 8673 2662 78       		.byte	0x78
 8674 2663 00       		.sleb128 0
 8675 2664 00       		.byte	0
 8676 2665 20       		.uleb128 0x20
 8677 2666 34000000 		.4byte	.LVL340
 8678 266a 0A340000 		.4byte	0x340a
 8679 266e 7B260000 		.4byte	0x267b
 8680 2672 21       		.uleb128 0x21
 8681 2673 01       		.uleb128 0x1
 8682 2674 50       		.byte	0x50
 8683 2675 04       		.uleb128 0x4
 8684 2676 75       		.byte	0x75
 8685 2677 00       		.sleb128 0
 8686 2678 38       		.byte	0x38
 8687 2679 25       		.byte	0x25
 8688 267a 00       		.byte	0
 8689 267b 20       		.uleb128 0x20
 8690 267c 3A000000 		.4byte	.LVL341
 8691 2680 0A340000 		.4byte	0x340a
 8692 2684 8F260000 		.4byte	0x268f
 8693 2688 21       		.uleb128 0x21
 8694 2689 01       		.uleb128 0x1
 8695 268a 50       		.byte	0x50
 8696 268b 02       		.uleb128 0x2
 8697 268c 75       		.byte	0x75
 8698 268d 00       		.sleb128 0
 8699 268e 00       		.byte	0
 8700 268f 20       		.uleb128 0x20
 8701 2690 40000000 		.4byte	.LVL342
 8702 2694 0A340000 		.4byte	0x340a
 8703 2698 A3260000 		.4byte	0x26a3
 8704 269c 21       		.uleb128 0x21
 8705 269d 01       		.uleb128 0x1
 8706 269e 50       		.byte	0x50
 8707 269f 02       		.uleb128 0x2
 8708 26a0 77       		.byte	0x77
 8709 26a1 00       		.sleb128 0
 8710 26a2 00       		.byte	0
 8711 26a3 22       		.uleb128 0x22
 8712 26a4 46000000 		.4byte	.LVL343
 8713 26a8 1F340000 		.4byte	0x341f
 8714 26ac 21       		.uleb128 0x21
 8715 26ad 01       		.uleb128 0x1
 8716 26ae 50       		.byte	0x50
 8717 26af 02       		.uleb128 0x2
 8718 26b0 74       		.byte	0x74
 8719 26b1 00       		.sleb128 0
 8720 26b2 00       		.byte	0
 8721 26b3 00       		.byte	0
ARM GAS  /tmp/cctBdhRt.s 			page 154


 8722 26b4 26       		.uleb128 0x26
 8723 26b5 BA040000 		.4byte	.LASF227
 8724 26b9 01       		.byte	0x1
 8725 26ba CA04     		.2byte	0x4ca
 8726 26bc B30A0000 		.4byte	0xab3
 8727 26c0 00000000 		.4byte	.LFB311
 8728 26c4 7C000000 		.4byte	.LFE311-.LFB311
 8729 26c8 01       		.uleb128 0x1
 8730 26c9 9C       		.byte	0x9c
 8731 26ca 39280000 		.4byte	0x2839
 8732 26ce 27       		.uleb128 0x27
 8733 26cf 70726900 		.ascii	"pri\000"
 8734 26d3 01       		.byte	0x1
 8735 26d4 CA04     		.2byte	0x4ca
 8736 26d6 B30A0000 		.4byte	0xab3
 8737 26da B10D0000 		.4byte	.LLST115
 8738 26de 27       		.uleb128 0x27
 8739 26df 6B00     		.ascii	"k\000"
 8740 26e1 01       		.byte	0x1
 8741 26e2 CA04     		.2byte	0x4ca
 8742 26e4 B30A0000 		.4byte	0xab3
 8743 26e8 D20D0000 		.4byte	.LLST116
 8744 26ec 27       		.uleb128 0x27
 8745 26ed 6300     		.ascii	"c\000"
 8746 26ef 01       		.byte	0x1
 8747 26f0 CA04     		.2byte	0x4ca
 8748 26f2 B30A0000 		.4byte	0xab3
 8749 26f6 F30D0000 		.4byte	.LLST117
 8750 26fa 27       		.uleb128 0x27
 8751 26fb 6E00     		.ascii	"n\000"
 8752 26fd 01       		.byte	0x1
 8753 26fe CA04     		.2byte	0x4ca
 8754 2700 B30A0000 		.4byte	0xab3
 8755 2704 140E0000 		.4byte	.LLST118
 8756 2708 27       		.uleb128 0x27
 8757 2709 73726300 		.ascii	"src\000"
 8758 270d 01       		.byte	0x1
 8759 270e CA04     		.2byte	0x4ca
 8760 2710 BE0A0000 		.4byte	0xabe
 8761 2714 350E0000 		.4byte	.LLST119
 8762 2718 29       		.uleb128 0x29
 8763 2719 22090000 		.4byte	.LASF162
 8764 271d 01       		.byte	0x1
 8765 271e CB04     		.2byte	0x4cb
 8766 2720 BE0A0000 		.4byte	0xabe
 8767 2724 550E0000 		.4byte	.LLST120
 8768 2728 27       		.uleb128 0x27
 8769 2729 6600     		.ascii	"f\000"
 8770 272b 01       		.byte	0x1
 8771 272c CB04     		.2byte	0x4cb
 8772 272e B30A0000 		.4byte	0xab3
 8773 2732 750E0000 		.4byte	.LLST121
 8774 2736 27       		.uleb128 0x27
 8775 2737 6D00     		.ascii	"m\000"
 8776 2739 01       		.byte	0x1
 8777 273a CB04     		.2byte	0x4cb
 8778 273c B30A0000 		.4byte	0xab3
ARM GAS  /tmp/cctBdhRt.s 			page 155


 8779 2740 950E0000 		.4byte	.LLST122
 8780 2744 28       		.uleb128 0x28
 8781 2745 7300     		.ascii	"s\000"
 8782 2747 01       		.byte	0x1
 8783 2748 CD04     		.2byte	0x4cd
 8784 274a B30A0000 		.4byte	0xab3
 8785 274e B50E0000 		.4byte	.LLST123
 8786 2752 20       		.uleb128 0x20
 8787 2753 26000000 		.4byte	.LVL347
 8788 2757 F8330000 		.4byte	0x33f8
 8789 275b 66270000 		.4byte	0x2766
 8790 275f 21       		.uleb128 0x21
 8791 2760 01       		.uleb128 0x1
 8792 2761 50       		.byte	0x50
 8793 2762 02       		.uleb128 0x2
 8794 2763 74       		.byte	0x74
 8795 2764 00       		.sleb128 0
 8796 2765 00       		.byte	0
 8797 2766 20       		.uleb128 0x20
 8798 2767 2E000000 		.4byte	.LVL348
 8799 276b 0A340000 		.4byte	0x340a
 8800 276f 7D270000 		.4byte	0x277d
 8801 2773 21       		.uleb128 0x21
 8802 2774 01       		.uleb128 0x1
 8803 2775 50       		.byte	0x50
 8804 2776 05       		.uleb128 0x5
 8805 2777 77       		.byte	0x77
 8806 2778 00       		.sleb128 0
 8807 2779 08       		.byte	0x8
 8808 277a 68       		.byte	0x68
 8809 277b 21       		.byte	0x21
 8810 277c 00       		.byte	0
 8811 277d 20       		.uleb128 0x20
 8812 277e 38000000 		.4byte	.LVL350
 8813 2782 0A340000 		.4byte	0x340a
 8814 2786 93270000 		.4byte	0x2793
 8815 278a 21       		.uleb128 0x21
 8816 278b 01       		.uleb128 0x1
 8817 278c 50       		.byte	0x50
 8818 278d 04       		.uleb128 0x4
 8819 278e 91       		.byte	0x91
 8820 278f 54       		.sleb128 -44
 8821 2790 94       		.byte	0x94
 8822 2791 01       		.byte	0x1
 8823 2792 00       		.byte	0
 8824 2793 20       		.uleb128 0x20
 8825 2794 3E000000 		.4byte	.LVL351
 8826 2798 0A340000 		.4byte	0x340a
 8827 279c A7270000 		.4byte	0x27a7
 8828 27a0 21       		.uleb128 0x21
 8829 27a1 01       		.uleb128 0x1
 8830 27a2 50       		.byte	0x50
 8831 27a3 02       		.uleb128 0x2
 8832 27a4 7B       		.byte	0x7b
 8833 27a5 00       		.sleb128 0
 8834 27a6 00       		.byte	0
 8835 27a7 20       		.uleb128 0x20
ARM GAS  /tmp/cctBdhRt.s 			page 156


 8836 27a8 44000000 		.4byte	.LVL352
 8837 27ac 0A340000 		.4byte	0x340a
 8838 27b0 BB270000 		.4byte	0x27bb
 8839 27b4 21       		.uleb128 0x21
 8840 27b5 01       		.uleb128 0x1
 8841 27b6 50       		.byte	0x50
 8842 27b7 02       		.uleb128 0x2
 8843 27b8 7A       		.byte	0x7a
 8844 27b9 00       		.sleb128 0
 8845 27ba 00       		.byte	0
 8846 27bb 20       		.uleb128 0x20
 8847 27bc 52000000 		.4byte	.LVL353
 8848 27c0 0A340000 		.4byte	0x340a
 8849 27c4 D8270000 		.4byte	0x27d8
 8850 27c8 21       		.uleb128 0x21
 8851 27c9 01       		.uleb128 0x1
 8852 27ca 50       		.byte	0x50
 8853 27cb 0B       		.uleb128 0xb
 8854 27cc 76       		.byte	0x76
 8855 27cd 00       		.sleb128 0
 8856 27ce 38       		.byte	0x38
 8857 27cf 25       		.byte	0x25
 8858 27d0 34       		.byte	0x34
 8859 27d1 24       		.byte	0x24
 8860 27d2 75       		.byte	0x75
 8861 27d3 00       		.sleb128 0
 8862 27d4 38       		.byte	0x38
 8863 27d5 25       		.byte	0x25
 8864 27d6 21       		.byte	0x21
 8865 27d7 00       		.byte	0
 8866 27d8 20       		.uleb128 0x20
 8867 27d9 58000000 		.4byte	.LVL354
 8868 27dd 0A340000 		.4byte	0x340a
 8869 27e1 EC270000 		.4byte	0x27ec
 8870 27e5 21       		.uleb128 0x21
 8871 27e6 01       		.uleb128 0x1
 8872 27e7 50       		.byte	0x50
 8873 27e8 02       		.uleb128 0x2
 8874 27e9 76       		.byte	0x76
 8875 27ea 00       		.sleb128 0
 8876 27eb 00       		.byte	0
 8877 27ec 20       		.uleb128 0x20
 8878 27ed 5E000000 		.4byte	.LVL355
 8879 27f1 0A340000 		.4byte	0x340a
 8880 27f5 00280000 		.4byte	0x2800
 8881 27f9 21       		.uleb128 0x21
 8882 27fa 01       		.uleb128 0x1
 8883 27fb 50       		.byte	0x50
 8884 27fc 02       		.uleb128 0x2
 8885 27fd 75       		.byte	0x75
 8886 27fe 00       		.sleb128 0
 8887 27ff 00       		.byte	0
 8888 2800 20       		.uleb128 0x20
 8889 2801 64000000 		.4byte	.LVL356
 8890 2805 0A340000 		.4byte	0x340a
 8891 2809 14280000 		.4byte	0x2814
 8892 280d 21       		.uleb128 0x21
ARM GAS  /tmp/cctBdhRt.s 			page 157


 8893 280e 01       		.uleb128 0x1
 8894 280f 50       		.byte	0x50
 8895 2810 02       		.uleb128 0x2
 8896 2811 79       		.byte	0x79
 8897 2812 00       		.sleb128 0
 8898 2813 00       		.byte	0
 8899 2814 20       		.uleb128 0x20
 8900 2815 6A000000 		.4byte	.LVL357
 8901 2819 0A340000 		.4byte	0x340a
 8902 281d 28280000 		.4byte	0x2828
 8903 2821 21       		.uleb128 0x21
 8904 2822 01       		.uleb128 0x1
 8905 2823 50       		.byte	0x50
 8906 2824 02       		.uleb128 0x2
 8907 2825 78       		.byte	0x78
 8908 2826 00       		.sleb128 0
 8909 2827 00       		.byte	0
 8910 2828 22       		.uleb128 0x22
 8911 2829 70000000 		.4byte	.LVL358
 8912 282d 1F340000 		.4byte	0x341f
 8913 2831 21       		.uleb128 0x21
 8914 2832 01       		.uleb128 0x1
 8915 2833 50       		.byte	0x50
 8916 2834 02       		.uleb128 0x2
 8917 2835 74       		.byte	0x74
 8918 2836 00       		.sleb128 0
 8919 2837 00       		.byte	0
 8920 2838 00       		.byte	0
 8921 2839 26       		.uleb128 0x26
 8922 283a CE070000 		.4byte	.LASF228
 8923 283e 01       		.byte	0x1
 8924 283f EE04     		.2byte	0x4ee
 8925 2841 B30A0000 		.4byte	0xab3
 8926 2845 00000000 		.4byte	.LFB312
 8927 2849 7C000000 		.4byte	.LFE312-.LFB312
 8928 284d 01       		.uleb128 0x1
 8929 284e 9C       		.byte	0x9c
 8930 284f BE290000 		.4byte	0x29be
 8931 2853 27       		.uleb128 0x27
 8932 2854 70726900 		.ascii	"pri\000"
 8933 2858 01       		.byte	0x1
 8934 2859 EE04     		.2byte	0x4ee
 8935 285b B30A0000 		.4byte	0xab3
 8936 285f C80E0000 		.4byte	.LLST124
 8937 2863 27       		.uleb128 0x27
 8938 2864 6B00     		.ascii	"k\000"
 8939 2866 01       		.byte	0x1
 8940 2867 EE04     		.2byte	0x4ee
 8941 2869 B30A0000 		.4byte	0xab3
 8942 286d E90E0000 		.4byte	.LLST125
 8943 2871 27       		.uleb128 0x27
 8944 2872 6300     		.ascii	"c\000"
 8945 2874 01       		.byte	0x1
 8946 2875 EE04     		.2byte	0x4ee
 8947 2877 B30A0000 		.4byte	0xab3
 8948 287b 0A0F0000 		.4byte	.LLST126
 8949 287f 27       		.uleb128 0x27
ARM GAS  /tmp/cctBdhRt.s 			page 158


 8950 2880 6E00     		.ascii	"n\000"
 8951 2882 01       		.byte	0x1
 8952 2883 EE04     		.2byte	0x4ee
 8953 2885 B30A0000 		.4byte	0xab3
 8954 2889 2B0F0000 		.4byte	.LLST127
 8955 288d 27       		.uleb128 0x27
 8956 288e 73726300 		.ascii	"src\000"
 8957 2892 01       		.byte	0x1
 8958 2893 EE04     		.2byte	0x4ee
 8959 2895 BE0A0000 		.4byte	0xabe
 8960 2899 4C0F0000 		.4byte	.LLST128
 8961 289d 29       		.uleb128 0x29
 8962 289e 22090000 		.4byte	.LASF162
 8963 28a2 01       		.byte	0x1
 8964 28a3 EF04     		.2byte	0x4ef
 8965 28a5 BE0A0000 		.4byte	0xabe
 8966 28a9 6C0F0000 		.4byte	.LLST129
 8967 28ad 27       		.uleb128 0x27
 8968 28ae 6600     		.ascii	"f\000"
 8969 28b0 01       		.byte	0x1
 8970 28b1 EF04     		.2byte	0x4ef
 8971 28b3 B30A0000 		.4byte	0xab3
 8972 28b7 8C0F0000 		.4byte	.LLST130
 8973 28bb 27       		.uleb128 0x27
 8974 28bc 6D00     		.ascii	"m\000"
 8975 28be 01       		.byte	0x1
 8976 28bf EF04     		.2byte	0x4ef
 8977 28c1 B30A0000 		.4byte	0xab3
 8978 28c5 AC0F0000 		.4byte	.LLST131
 8979 28c9 28       		.uleb128 0x28
 8980 28ca 7300     		.ascii	"s\000"
 8981 28cc 01       		.byte	0x1
 8982 28cd F104     		.2byte	0x4f1
 8983 28cf B30A0000 		.4byte	0xab3
 8984 28d3 CC0F0000 		.4byte	.LLST132
 8985 28d7 20       		.uleb128 0x20
 8986 28d8 26000000 		.4byte	.LVL362
 8987 28dc F8330000 		.4byte	0x33f8
 8988 28e0 EB280000 		.4byte	0x28eb
 8989 28e4 21       		.uleb128 0x21
 8990 28e5 01       		.uleb128 0x1
 8991 28e6 50       		.byte	0x50
 8992 28e7 02       		.uleb128 0x2
 8993 28e8 74       		.byte	0x74
 8994 28e9 00       		.sleb128 0
 8995 28ea 00       		.byte	0
 8996 28eb 20       		.uleb128 0x20
 8997 28ec 2E000000 		.4byte	.LVL363
 8998 28f0 0A340000 		.4byte	0x340a
 8999 28f4 02290000 		.4byte	0x2902
 9000 28f8 21       		.uleb128 0x21
 9001 28f9 01       		.uleb128 0x1
 9002 28fa 50       		.byte	0x50
 9003 28fb 05       		.uleb128 0x5
 9004 28fc 77       		.byte	0x77
 9005 28fd 00       		.sleb128 0
 9006 28fe 08       		.byte	0x8
ARM GAS  /tmp/cctBdhRt.s 			page 159


 9007 28ff 6A       		.byte	0x6a
 9008 2900 21       		.byte	0x21
 9009 2901 00       		.byte	0
 9010 2902 20       		.uleb128 0x20
 9011 2903 38000000 		.4byte	.LVL365
 9012 2907 0A340000 		.4byte	0x340a
 9013 290b 18290000 		.4byte	0x2918
 9014 290f 21       		.uleb128 0x21
 9015 2910 01       		.uleb128 0x1
 9016 2911 50       		.byte	0x50
 9017 2912 04       		.uleb128 0x4
 9018 2913 91       		.byte	0x91
 9019 2914 54       		.sleb128 -44
 9020 2915 94       		.byte	0x94
 9021 2916 01       		.byte	0x1
 9022 2917 00       		.byte	0
 9023 2918 20       		.uleb128 0x20
 9024 2919 3E000000 		.4byte	.LVL366
 9025 291d 0A340000 		.4byte	0x340a
 9026 2921 2C290000 		.4byte	0x292c
 9027 2925 21       		.uleb128 0x21
 9028 2926 01       		.uleb128 0x1
 9029 2927 50       		.byte	0x50
 9030 2928 02       		.uleb128 0x2
 9031 2929 7B       		.byte	0x7b
 9032 292a 00       		.sleb128 0
 9033 292b 00       		.byte	0
 9034 292c 20       		.uleb128 0x20
 9035 292d 44000000 		.4byte	.LVL367
 9036 2931 0A340000 		.4byte	0x340a
 9037 2935 40290000 		.4byte	0x2940
 9038 2939 21       		.uleb128 0x21
 9039 293a 01       		.uleb128 0x1
 9040 293b 50       		.byte	0x50
 9041 293c 02       		.uleb128 0x2
 9042 293d 7A       		.byte	0x7a
 9043 293e 00       		.sleb128 0
 9044 293f 00       		.byte	0
 9045 2940 20       		.uleb128 0x20
 9046 2941 52000000 		.4byte	.LVL368
 9047 2945 0A340000 		.4byte	0x340a
 9048 2949 5D290000 		.4byte	0x295d
 9049 294d 21       		.uleb128 0x21
 9050 294e 01       		.uleb128 0x1
 9051 294f 50       		.byte	0x50
 9052 2950 0B       		.uleb128 0xb
 9053 2951 76       		.byte	0x76
 9054 2952 00       		.sleb128 0
 9055 2953 38       		.byte	0x38
 9056 2954 25       		.byte	0x25
 9057 2955 34       		.byte	0x34
 9058 2956 24       		.byte	0x24
 9059 2957 75       		.byte	0x75
 9060 2958 00       		.sleb128 0
 9061 2959 38       		.byte	0x38
 9062 295a 25       		.byte	0x25
 9063 295b 21       		.byte	0x21
ARM GAS  /tmp/cctBdhRt.s 			page 160


 9064 295c 00       		.byte	0
 9065 295d 20       		.uleb128 0x20
 9066 295e 58000000 		.4byte	.LVL369
 9067 2962 0A340000 		.4byte	0x340a
 9068 2966 71290000 		.4byte	0x2971
 9069 296a 21       		.uleb128 0x21
 9070 296b 01       		.uleb128 0x1
 9071 296c 50       		.byte	0x50
 9072 296d 02       		.uleb128 0x2
 9073 296e 76       		.byte	0x76
 9074 296f 00       		.sleb128 0
 9075 2970 00       		.byte	0
 9076 2971 20       		.uleb128 0x20
 9077 2972 5E000000 		.4byte	.LVL370
 9078 2976 0A340000 		.4byte	0x340a
 9079 297a 85290000 		.4byte	0x2985
 9080 297e 21       		.uleb128 0x21
 9081 297f 01       		.uleb128 0x1
 9082 2980 50       		.byte	0x50
 9083 2981 02       		.uleb128 0x2
 9084 2982 75       		.byte	0x75
 9085 2983 00       		.sleb128 0
 9086 2984 00       		.byte	0
 9087 2985 20       		.uleb128 0x20
 9088 2986 64000000 		.4byte	.LVL371
 9089 298a 0A340000 		.4byte	0x340a
 9090 298e 99290000 		.4byte	0x2999
 9091 2992 21       		.uleb128 0x21
 9092 2993 01       		.uleb128 0x1
 9093 2994 50       		.byte	0x50
 9094 2995 02       		.uleb128 0x2
 9095 2996 79       		.byte	0x79
 9096 2997 00       		.sleb128 0
 9097 2998 00       		.byte	0
 9098 2999 20       		.uleb128 0x20
 9099 299a 6A000000 		.4byte	.LVL372
 9100 299e 0A340000 		.4byte	0x340a
 9101 29a2 AD290000 		.4byte	0x29ad
 9102 29a6 21       		.uleb128 0x21
 9103 29a7 01       		.uleb128 0x1
 9104 29a8 50       		.byte	0x50
 9105 29a9 02       		.uleb128 0x2
 9106 29aa 78       		.byte	0x78
 9107 29ab 00       		.sleb128 0
 9108 29ac 00       		.byte	0
 9109 29ad 22       		.uleb128 0x22
 9110 29ae 70000000 		.4byte	.LVL373
 9111 29b2 1F340000 		.4byte	0x341f
 9112 29b6 21       		.uleb128 0x21
 9113 29b7 01       		.uleb128 0x1
 9114 29b8 50       		.byte	0x50
 9115 29b9 02       		.uleb128 0x2
 9116 29ba 74       		.byte	0x74
 9117 29bb 00       		.sleb128 0
 9118 29bc 00       		.byte	0
 9119 29bd 00       		.byte	0
 9120 29be 26       		.uleb128 0x26
ARM GAS  /tmp/cctBdhRt.s 			page 161


 9121 29bf 4C090000 		.4byte	.LASF229
 9122 29c3 01       		.byte	0x1
 9123 29c4 0E05     		.2byte	0x50e
 9124 29c6 B30A0000 		.4byte	0xab3
 9125 29ca 00000000 		.4byte	.LFB313
 9126 29ce 58000000 		.4byte	.LFE313-.LFB313
 9127 29d2 01       		.uleb128 0x1
 9128 29d3 9C       		.byte	0x9c
 9129 29d4 DB2A0000 		.4byte	0x2adb
 9130 29d8 27       		.uleb128 0x27
 9131 29d9 70726900 		.ascii	"pri\000"
 9132 29dd 01       		.byte	0x1
 9133 29de 0E05     		.2byte	0x50e
 9134 29e0 B30A0000 		.4byte	0xab3
 9135 29e4 DF0F0000 		.4byte	.LLST133
 9136 29e8 27       		.uleb128 0x27
 9137 29e9 6B00     		.ascii	"k\000"
 9138 29eb 01       		.byte	0x1
 9139 29ec 0E05     		.2byte	0x50e
 9140 29ee B30A0000 		.4byte	0xab3
 9141 29f2 00100000 		.4byte	.LLST134
 9142 29f6 27       		.uleb128 0x27
 9143 29f7 6300     		.ascii	"c\000"
 9144 29f9 01       		.byte	0x1
 9145 29fa 0E05     		.2byte	0x50e
 9146 29fc B30A0000 		.4byte	0xab3
 9147 2a00 21100000 		.4byte	.LLST135
 9148 2a04 27       		.uleb128 0x27
 9149 2a05 73726300 		.ascii	"src\000"
 9150 2a09 01       		.byte	0x1
 9151 2a0a 0E05     		.2byte	0x50e
 9152 2a0c BE0A0000 		.4byte	0xabe
 9153 2a10 42100000 		.4byte	.LLST136
 9154 2a14 29       		.uleb128 0x29
 9155 2a15 22090000 		.4byte	.LASF162
 9156 2a19 01       		.byte	0x1
 9157 2a1a 0E05     		.2byte	0x50e
 9158 2a1c BE0A0000 		.4byte	0xabe
 9159 2a20 63100000 		.4byte	.LLST137
 9160 2a24 28       		.uleb128 0x28
 9161 2a25 7300     		.ascii	"s\000"
 9162 2a27 01       		.byte	0x1
 9163 2a28 1005     		.2byte	0x510
 9164 2a2a B30A0000 		.4byte	0xab3
 9165 2a2e 83100000 		.4byte	.LLST138
 9166 2a32 20       		.uleb128 0x20
 9167 2a33 18000000 		.4byte	.LVL377
 9168 2a37 F8330000 		.4byte	0x33f8
 9169 2a3b 462A0000 		.4byte	0x2a46
 9170 2a3f 21       		.uleb128 0x21
 9171 2a40 01       		.uleb128 0x1
 9172 2a41 50       		.byte	0x50
 9173 2a42 02       		.uleb128 0x2
 9174 2a43 74       		.byte	0x74
 9175 2a44 00       		.sleb128 0
 9176 2a45 00       		.byte	0
 9177 2a46 20       		.uleb128 0x20
ARM GAS  /tmp/cctBdhRt.s 			page 162


 9178 2a47 20000000 		.4byte	.LVL378
 9179 2a4b 0A340000 		.4byte	0x340a
 9180 2a4f 5D2A0000 		.4byte	0x2a5d
 9181 2a53 21       		.uleb128 0x21
 9182 2a54 01       		.uleb128 0x1
 9183 2a55 50       		.byte	0x50
 9184 2a56 05       		.uleb128 0x5
 9185 2a57 77       		.byte	0x77
 9186 2a58 00       		.sleb128 0
 9187 2a59 08       		.byte	0x8
 9188 2a5a 70       		.byte	0x70
 9189 2a5b 21       		.byte	0x21
 9190 2a5c 00       		.byte	0
 9191 2a5d 20       		.uleb128 0x20
 9192 2a5e 28000000 		.4byte	.LVL380
 9193 2a62 0A340000 		.4byte	0x340a
 9194 2a66 712A0000 		.4byte	0x2a71
 9195 2a6a 21       		.uleb128 0x21
 9196 2a6b 01       		.uleb128 0x1
 9197 2a6c 50       		.byte	0x50
 9198 2a6d 02       		.uleb128 0x2
 9199 2a6e 79       		.byte	0x79
 9200 2a6f 00       		.sleb128 0
 9201 2a70 00       		.byte	0
 9202 2a71 20       		.uleb128 0x20
 9203 2a72 34000000 		.4byte	.LVL381
 9204 2a76 0A340000 		.4byte	0x340a
 9205 2a7a 8C2A0000 		.4byte	0x2a8c
 9206 2a7e 21       		.uleb128 0x21
 9207 2a7f 01       		.uleb128 0x1
 9208 2a80 50       		.byte	0x50
 9209 2a81 09       		.uleb128 0x9
 9210 2a82 78       		.byte	0x78
 9211 2a83 00       		.sleb128 0
 9212 2a84 34       		.byte	0x34
 9213 2a85 24       		.byte	0x24
 9214 2a86 76       		.byte	0x76
 9215 2a87 00       		.sleb128 0
 9216 2a88 38       		.byte	0x38
 9217 2a89 25       		.byte	0x25
 9218 2a8a 21       		.byte	0x21
 9219 2a8b 00       		.byte	0
 9220 2a8c 20       		.uleb128 0x20
 9221 2a8d 3A000000 		.4byte	.LVL382
 9222 2a91 0A340000 		.4byte	0x340a
 9223 2a95 A02A0000 		.4byte	0x2aa0
 9224 2a99 21       		.uleb128 0x21
 9225 2a9a 01       		.uleb128 0x1
 9226 2a9b 50       		.byte	0x50
 9227 2a9c 02       		.uleb128 0x2
 9228 2a9d 76       		.byte	0x76
 9229 2a9e 00       		.sleb128 0
 9230 2a9f 00       		.byte	0
 9231 2aa0 20       		.uleb128 0x20
 9232 2aa1 40000000 		.4byte	.LVL383
 9233 2aa5 0A340000 		.4byte	0x340a
 9234 2aa9 B62A0000 		.4byte	0x2ab6
ARM GAS  /tmp/cctBdhRt.s 			page 163


 9235 2aad 21       		.uleb128 0x21
 9236 2aae 01       		.uleb128 0x1
 9237 2aaf 50       		.byte	0x50
 9238 2ab0 04       		.uleb128 0x4
 9239 2ab1 75       		.byte	0x75
 9240 2ab2 00       		.sleb128 0
 9241 2ab3 38       		.byte	0x38
 9242 2ab4 25       		.byte	0x25
 9243 2ab5 00       		.byte	0
 9244 2ab6 20       		.uleb128 0x20
 9245 2ab7 46000000 		.4byte	.LVL384
 9246 2abb 0A340000 		.4byte	0x340a
 9247 2abf CA2A0000 		.4byte	0x2aca
 9248 2ac3 21       		.uleb128 0x21
 9249 2ac4 01       		.uleb128 0x1
 9250 2ac5 50       		.byte	0x50
 9251 2ac6 02       		.uleb128 0x2
 9252 2ac7 75       		.byte	0x75
 9253 2ac8 00       		.sleb128 0
 9254 2ac9 00       		.byte	0
 9255 2aca 22       		.uleb128 0x22
 9256 2acb 4C000000 		.4byte	.LVL385
 9257 2acf 1F340000 		.4byte	0x341f
 9258 2ad3 21       		.uleb128 0x21
 9259 2ad4 01       		.uleb128 0x1
 9260 2ad5 50       		.byte	0x50
 9261 2ad6 02       		.uleb128 0x2
 9262 2ad7 74       		.byte	0x74
 9263 2ad8 00       		.sleb128 0
 9264 2ad9 00       		.byte	0
 9265 2ada 00       		.byte	0
 9266 2adb 26       		.uleb128 0x26
 9267 2adc 0C010000 		.4byte	.LASF230
 9268 2ae0 01       		.byte	0x1
 9269 2ae1 2905     		.2byte	0x529
 9270 2ae3 B30A0000 		.4byte	0xab3
 9271 2ae7 00000000 		.4byte	.LFB314
 9272 2aeb 48000000 		.4byte	.LFE314-.LFB314
 9273 2aef 01       		.uleb128 0x1
 9274 2af0 9C       		.byte	0x9c
 9275 2af1 BE2B0000 		.4byte	0x2bbe
 9276 2af5 27       		.uleb128 0x27
 9277 2af6 70726900 		.ascii	"pri\000"
 9278 2afa 01       		.byte	0x1
 9279 2afb 2905     		.2byte	0x529
 9280 2afd B30A0000 		.4byte	0xab3
 9281 2b01 96100000 		.4byte	.LLST139
 9282 2b05 27       		.uleb128 0x27
 9283 2b06 6B00     		.ascii	"k\000"
 9284 2b08 01       		.byte	0x1
 9285 2b09 2905     		.2byte	0x529
 9286 2b0b B30A0000 		.4byte	0xab3
 9287 2b0f B7100000 		.4byte	.LLST140
 9288 2b13 27       		.uleb128 0x27
 9289 2b14 6300     		.ascii	"c\000"
 9290 2b16 01       		.byte	0x1
 9291 2b17 2905     		.2byte	0x529
ARM GAS  /tmp/cctBdhRt.s 			page 164


 9292 2b19 B30A0000 		.4byte	0xab3
 9293 2b1d D8100000 		.4byte	.LLST141
 9294 2b21 29       		.uleb128 0x29
 9295 2b22 B7060000 		.4byte	.LASF187
 9296 2b26 01       		.byte	0x1
 9297 2b27 2905     		.2byte	0x529
 9298 2b29 BE0A0000 		.4byte	0xabe
 9299 2b2d F9100000 		.4byte	.LLST142
 9300 2b31 28       		.uleb128 0x28
 9301 2b32 7300     		.ascii	"s\000"
 9302 2b34 01       		.byte	0x1
 9303 2b35 2B05     		.2byte	0x52b
 9304 2b37 B30A0000 		.4byte	0xab3
 9305 2b3b 1A110000 		.4byte	.LLST143
 9306 2b3f 20       		.uleb128 0x20
 9307 2b40 14000000 		.4byte	.LVL389
 9308 2b44 F8330000 		.4byte	0x33f8
 9309 2b48 532B0000 		.4byte	0x2b53
 9310 2b4c 21       		.uleb128 0x21
 9311 2b4d 01       		.uleb128 0x1
 9312 2b4e 50       		.byte	0x50
 9313 2b4f 02       		.uleb128 0x2
 9314 2b50 74       		.byte	0x74
 9315 2b51 00       		.sleb128 0
 9316 2b52 00       		.byte	0
 9317 2b53 20       		.uleb128 0x20
 9318 2b54 1C000000 		.4byte	.LVL390
 9319 2b58 0A340000 		.4byte	0x340a
 9320 2b5c 6A2B0000 		.4byte	0x2b6a
 9321 2b60 21       		.uleb128 0x21
 9322 2b61 01       		.uleb128 0x1
 9323 2b62 50       		.byte	0x50
 9324 2b63 05       		.uleb128 0x5
 9325 2b64 76       		.byte	0x76
 9326 2b65 00       		.sleb128 0
 9327 2b66 08       		.byte	0x8
 9328 2b67 72       		.byte	0x72
 9329 2b68 21       		.byte	0x21
 9330 2b69 00       		.byte	0
 9331 2b6a 20       		.uleb128 0x20
 9332 2b6b 24000000 		.4byte	.LVL392
 9333 2b6f 0A340000 		.4byte	0x340a
 9334 2b73 7E2B0000 		.4byte	0x2b7e
 9335 2b77 21       		.uleb128 0x21
 9336 2b78 01       		.uleb128 0x1
 9337 2b79 50       		.byte	0x50
 9338 2b7a 02       		.uleb128 0x2
 9339 2b7b 78       		.byte	0x78
 9340 2b7c 00       		.sleb128 0
 9341 2b7d 00       		.byte	0
 9342 2b7e 20       		.uleb128 0x20
 9343 2b7f 30000000 		.4byte	.LVL393
 9344 2b83 0A340000 		.4byte	0x340a
 9345 2b87 992B0000 		.4byte	0x2b99
 9346 2b8b 21       		.uleb128 0x21
 9347 2b8c 01       		.uleb128 0x1
 9348 2b8d 50       		.byte	0x50
ARM GAS  /tmp/cctBdhRt.s 			page 165


 9349 2b8e 09       		.uleb128 0x9
 9350 2b8f 77       		.byte	0x77
 9351 2b90 00       		.sleb128 0
 9352 2b91 34       		.byte	0x34
 9353 2b92 24       		.byte	0x24
 9354 2b93 75       		.byte	0x75
 9355 2b94 00       		.sleb128 0
 9356 2b95 38       		.byte	0x38
 9357 2b96 25       		.byte	0x25
 9358 2b97 21       		.byte	0x21
 9359 2b98 00       		.byte	0
 9360 2b99 20       		.uleb128 0x20
 9361 2b9a 36000000 		.4byte	.LVL394
 9362 2b9e 0A340000 		.4byte	0x340a
 9363 2ba2 AD2B0000 		.4byte	0x2bad
 9364 2ba6 21       		.uleb128 0x21
 9365 2ba7 01       		.uleb128 0x1
 9366 2ba8 50       		.byte	0x50
 9367 2ba9 02       		.uleb128 0x2
 9368 2baa 75       		.byte	0x75
 9369 2bab 00       		.sleb128 0
 9370 2bac 00       		.byte	0
 9371 2bad 22       		.uleb128 0x22
 9372 2bae 3C000000 		.4byte	.LVL395
 9373 2bb2 1F340000 		.4byte	0x341f
 9374 2bb6 21       		.uleb128 0x21
 9375 2bb7 01       		.uleb128 0x1
 9376 2bb8 50       		.byte	0x50
 9377 2bb9 02       		.uleb128 0x2
 9378 2bba 74       		.byte	0x74
 9379 2bbb 00       		.sleb128 0
 9380 2bbc 00       		.byte	0
 9381 2bbd 00       		.byte	0
 9382 2bbe 26       		.uleb128 0x26
 9383 2bbf 18010000 		.4byte	.LASF231
 9384 2bc3 01       		.byte	0x1
 9385 2bc4 4305     		.2byte	0x543
 9386 2bc6 B30A0000 		.4byte	0xab3
 9387 2bca 00000000 		.4byte	.LFB315
 9388 2bce 58000000 		.4byte	.LFE315-.LFB315
 9389 2bd2 01       		.uleb128 0x1
 9390 2bd3 9C       		.byte	0x9c
 9391 2bd4 DB2C0000 		.4byte	0x2cdb
 9392 2bd8 27       		.uleb128 0x27
 9393 2bd9 70726900 		.ascii	"pri\000"
 9394 2bdd 01       		.byte	0x1
 9395 2bde 4305     		.2byte	0x543
 9396 2be0 B30A0000 		.4byte	0xab3
 9397 2be4 2D110000 		.4byte	.LLST144
 9398 2be8 27       		.uleb128 0x27
 9399 2be9 6B00     		.ascii	"k\000"
 9400 2beb 01       		.byte	0x1
 9401 2bec 4305     		.2byte	0x543
 9402 2bee B30A0000 		.4byte	0xab3
 9403 2bf2 4E110000 		.4byte	.LLST145
 9404 2bf6 27       		.uleb128 0x27
 9405 2bf7 6300     		.ascii	"c\000"
ARM GAS  /tmp/cctBdhRt.s 			page 166


 9406 2bf9 01       		.byte	0x1
 9407 2bfa 4305     		.2byte	0x543
 9408 2bfc B30A0000 		.4byte	0xab3
 9409 2c00 6F110000 		.4byte	.LLST146
 9410 2c04 27       		.uleb128 0x27
 9411 2c05 73726300 		.ascii	"src\000"
 9412 2c09 01       		.byte	0x1
 9413 2c0a 4305     		.2byte	0x543
 9414 2c0c BE0A0000 		.4byte	0xabe
 9415 2c10 90110000 		.4byte	.LLST147
 9416 2c14 29       		.uleb128 0x29
 9417 2c15 22090000 		.4byte	.LASF162
 9418 2c19 01       		.byte	0x1
 9419 2c1a 4305     		.2byte	0x543
 9420 2c1c BE0A0000 		.4byte	0xabe
 9421 2c20 B1110000 		.4byte	.LLST148
 9422 2c24 28       		.uleb128 0x28
 9423 2c25 7300     		.ascii	"s\000"
 9424 2c27 01       		.byte	0x1
 9425 2c28 4505     		.2byte	0x545
 9426 2c2a B30A0000 		.4byte	0xab3
 9427 2c2e D1110000 		.4byte	.LLST149
 9428 2c32 20       		.uleb128 0x20
 9429 2c33 18000000 		.4byte	.LVL399
 9430 2c37 F8330000 		.4byte	0x33f8
 9431 2c3b 462C0000 		.4byte	0x2c46
 9432 2c3f 21       		.uleb128 0x21
 9433 2c40 01       		.uleb128 0x1
 9434 2c41 50       		.byte	0x50
 9435 2c42 02       		.uleb128 0x2
 9436 2c43 74       		.byte	0x74
 9437 2c44 00       		.sleb128 0
 9438 2c45 00       		.byte	0
 9439 2c46 20       		.uleb128 0x20
 9440 2c47 20000000 		.4byte	.LVL400
 9441 2c4b 0A340000 		.4byte	0x340a
 9442 2c4f 5D2C0000 		.4byte	0x2c5d
 9443 2c53 21       		.uleb128 0x21
 9444 2c54 01       		.uleb128 0x1
 9445 2c55 50       		.byte	0x50
 9446 2c56 05       		.uleb128 0x5
 9447 2c57 77       		.byte	0x77
 9448 2c58 00       		.sleb128 0
 9449 2c59 08       		.byte	0x8
 9450 2c5a 74       		.byte	0x74
 9451 2c5b 21       		.byte	0x21
 9452 2c5c 00       		.byte	0
 9453 2c5d 20       		.uleb128 0x20
 9454 2c5e 28000000 		.4byte	.LVL402
 9455 2c62 0A340000 		.4byte	0x340a
 9456 2c66 712C0000 		.4byte	0x2c71
 9457 2c6a 21       		.uleb128 0x21
 9458 2c6b 01       		.uleb128 0x1
 9459 2c6c 50       		.byte	0x50
 9460 2c6d 02       		.uleb128 0x2
 9461 2c6e 79       		.byte	0x79
 9462 2c6f 00       		.sleb128 0
ARM GAS  /tmp/cctBdhRt.s 			page 167


 9463 2c70 00       		.byte	0
 9464 2c71 20       		.uleb128 0x20
 9465 2c72 34000000 		.4byte	.LVL403
 9466 2c76 0A340000 		.4byte	0x340a
 9467 2c7a 8C2C0000 		.4byte	0x2c8c
 9468 2c7e 21       		.uleb128 0x21
 9469 2c7f 01       		.uleb128 0x1
 9470 2c80 50       		.byte	0x50
 9471 2c81 09       		.uleb128 0x9
 9472 2c82 78       		.byte	0x78
 9473 2c83 00       		.sleb128 0
 9474 2c84 34       		.byte	0x34
 9475 2c85 24       		.byte	0x24
 9476 2c86 76       		.byte	0x76
 9477 2c87 00       		.sleb128 0
 9478 2c88 38       		.byte	0x38
 9479 2c89 25       		.byte	0x25
 9480 2c8a 21       		.byte	0x21
 9481 2c8b 00       		.byte	0
 9482 2c8c 20       		.uleb128 0x20
 9483 2c8d 3A000000 		.4byte	.LVL404
 9484 2c91 0A340000 		.4byte	0x340a
 9485 2c95 A02C0000 		.4byte	0x2ca0
 9486 2c99 21       		.uleb128 0x21
 9487 2c9a 01       		.uleb128 0x1
 9488 2c9b 50       		.byte	0x50
 9489 2c9c 02       		.uleb128 0x2
 9490 2c9d 76       		.byte	0x76
 9491 2c9e 00       		.sleb128 0
 9492 2c9f 00       		.byte	0
 9493 2ca0 20       		.uleb128 0x20
 9494 2ca1 40000000 		.4byte	.LVL405
 9495 2ca5 0A340000 		.4byte	0x340a
 9496 2ca9 B62C0000 		.4byte	0x2cb6
 9497 2cad 21       		.uleb128 0x21
 9498 2cae 01       		.uleb128 0x1
 9499 2caf 50       		.byte	0x50
 9500 2cb0 04       		.uleb128 0x4
 9501 2cb1 75       		.byte	0x75
 9502 2cb2 00       		.sleb128 0
 9503 2cb3 38       		.byte	0x38
 9504 2cb4 25       		.byte	0x25
 9505 2cb5 00       		.byte	0
 9506 2cb6 20       		.uleb128 0x20
 9507 2cb7 46000000 		.4byte	.LVL406
 9508 2cbb 0A340000 		.4byte	0x340a
 9509 2cbf CA2C0000 		.4byte	0x2cca
 9510 2cc3 21       		.uleb128 0x21
 9511 2cc4 01       		.uleb128 0x1
 9512 2cc5 50       		.byte	0x50
 9513 2cc6 02       		.uleb128 0x2
 9514 2cc7 75       		.byte	0x75
 9515 2cc8 00       		.sleb128 0
 9516 2cc9 00       		.byte	0
 9517 2cca 22       		.uleb128 0x22
 9518 2ccb 4C000000 		.4byte	.LVL407
 9519 2ccf 1F340000 		.4byte	0x341f
ARM GAS  /tmp/cctBdhRt.s 			page 168


 9520 2cd3 21       		.uleb128 0x21
 9521 2cd4 01       		.uleb128 0x1
 9522 2cd5 50       		.byte	0x50
 9523 2cd6 02       		.uleb128 0x2
 9524 2cd7 74       		.byte	0x74
 9525 2cd8 00       		.sleb128 0
 9526 2cd9 00       		.byte	0
 9527 2cda 00       		.byte	0
 9528 2cdb 26       		.uleb128 0x26
 9529 2cdc 5E060000 		.4byte	.LASF232
 9530 2ce0 01       		.byte	0x1
 9531 2ce1 5E05     		.2byte	0x55e
 9532 2ce3 B30A0000 		.4byte	0xab3
 9533 2ce7 00000000 		.4byte	.LFB316
 9534 2ceb 48000000 		.4byte	.LFE316-.LFB316
 9535 2cef 01       		.uleb128 0x1
 9536 2cf0 9C       		.byte	0x9c
 9537 2cf1 BE2D0000 		.4byte	0x2dbe
 9538 2cf5 27       		.uleb128 0x27
 9539 2cf6 70726900 		.ascii	"pri\000"
 9540 2cfa 01       		.byte	0x1
 9541 2cfb 5E05     		.2byte	0x55e
 9542 2cfd B30A0000 		.4byte	0xab3
 9543 2d01 E4110000 		.4byte	.LLST150
 9544 2d05 27       		.uleb128 0x27
 9545 2d06 6B00     		.ascii	"k\000"
 9546 2d08 01       		.byte	0x1
 9547 2d09 5E05     		.2byte	0x55e
 9548 2d0b B30A0000 		.4byte	0xab3
 9549 2d0f 05120000 		.4byte	.LLST151
 9550 2d13 27       		.uleb128 0x27
 9551 2d14 6300     		.ascii	"c\000"
 9552 2d16 01       		.byte	0x1
 9553 2d17 5E05     		.2byte	0x55e
 9554 2d19 B30A0000 		.4byte	0xab3
 9555 2d1d 26120000 		.4byte	.LLST152
 9556 2d21 29       		.uleb128 0x29
 9557 2d22 B7060000 		.4byte	.LASF187
 9558 2d26 01       		.byte	0x1
 9559 2d27 5E05     		.2byte	0x55e
 9560 2d29 BE0A0000 		.4byte	0xabe
 9561 2d2d 47120000 		.4byte	.LLST153
 9562 2d31 28       		.uleb128 0x28
 9563 2d32 7300     		.ascii	"s\000"
 9564 2d34 01       		.byte	0x1
 9565 2d35 6005     		.2byte	0x560
 9566 2d37 B30A0000 		.4byte	0xab3
 9567 2d3b 68120000 		.4byte	.LLST154
 9568 2d3f 20       		.uleb128 0x20
 9569 2d40 14000000 		.4byte	.LVL411
 9570 2d44 F8330000 		.4byte	0x33f8
 9571 2d48 532D0000 		.4byte	0x2d53
 9572 2d4c 21       		.uleb128 0x21
 9573 2d4d 01       		.uleb128 0x1
 9574 2d4e 50       		.byte	0x50
 9575 2d4f 02       		.uleb128 0x2
 9576 2d50 74       		.byte	0x74
ARM GAS  /tmp/cctBdhRt.s 			page 169


 9577 2d51 00       		.sleb128 0
 9578 2d52 00       		.byte	0
 9579 2d53 20       		.uleb128 0x20
 9580 2d54 1C000000 		.4byte	.LVL412
 9581 2d58 0A340000 		.4byte	0x340a
 9582 2d5c 6A2D0000 		.4byte	0x2d6a
 9583 2d60 21       		.uleb128 0x21
 9584 2d61 01       		.uleb128 0x1
 9585 2d62 50       		.byte	0x50
 9586 2d63 05       		.uleb128 0x5
 9587 2d64 76       		.byte	0x76
 9588 2d65 00       		.sleb128 0
 9589 2d66 08       		.byte	0x8
 9590 2d67 76       		.byte	0x76
 9591 2d68 21       		.byte	0x21
 9592 2d69 00       		.byte	0
 9593 2d6a 20       		.uleb128 0x20
 9594 2d6b 24000000 		.4byte	.LVL414
 9595 2d6f 0A340000 		.4byte	0x340a
 9596 2d73 7E2D0000 		.4byte	0x2d7e
 9597 2d77 21       		.uleb128 0x21
 9598 2d78 01       		.uleb128 0x1
 9599 2d79 50       		.byte	0x50
 9600 2d7a 02       		.uleb128 0x2
 9601 2d7b 78       		.byte	0x78
 9602 2d7c 00       		.sleb128 0
 9603 2d7d 00       		.byte	0
 9604 2d7e 20       		.uleb128 0x20
 9605 2d7f 30000000 		.4byte	.LVL415
 9606 2d83 0A340000 		.4byte	0x340a
 9607 2d87 992D0000 		.4byte	0x2d99
 9608 2d8b 21       		.uleb128 0x21
 9609 2d8c 01       		.uleb128 0x1
 9610 2d8d 50       		.byte	0x50
 9611 2d8e 09       		.uleb128 0x9
 9612 2d8f 77       		.byte	0x77
 9613 2d90 00       		.sleb128 0
 9614 2d91 34       		.byte	0x34
 9615 2d92 24       		.byte	0x24
 9616 2d93 75       		.byte	0x75
 9617 2d94 00       		.sleb128 0
 9618 2d95 38       		.byte	0x38
 9619 2d96 25       		.byte	0x25
 9620 2d97 21       		.byte	0x21
 9621 2d98 00       		.byte	0
 9622 2d99 20       		.uleb128 0x20
 9623 2d9a 36000000 		.4byte	.LVL416
 9624 2d9e 0A340000 		.4byte	0x340a
 9625 2da2 AD2D0000 		.4byte	0x2dad
 9626 2da6 21       		.uleb128 0x21
 9627 2da7 01       		.uleb128 0x1
 9628 2da8 50       		.byte	0x50
 9629 2da9 02       		.uleb128 0x2
 9630 2daa 75       		.byte	0x75
 9631 2dab 00       		.sleb128 0
 9632 2dac 00       		.byte	0
 9633 2dad 22       		.uleb128 0x22
ARM GAS  /tmp/cctBdhRt.s 			page 170


 9634 2dae 3C000000 		.4byte	.LVL417
 9635 2db2 1F340000 		.4byte	0x341f
 9636 2db6 21       		.uleb128 0x21
 9637 2db7 01       		.uleb128 0x1
 9638 2db8 50       		.byte	0x50
 9639 2db9 02       		.uleb128 0x2
 9640 2dba 74       		.byte	0x74
 9641 2dbb 00       		.sleb128 0
 9642 2dbc 00       		.byte	0
 9643 2dbd 00       		.byte	0
 9644 2dbe 26       		.uleb128 0x26
 9645 2dbf 890A0000 		.4byte	.LASF233
 9646 2dc3 01       		.byte	0x1
 9647 2dc4 7705     		.2byte	0x577
 9648 2dc6 B30A0000 		.4byte	0xab3
 9649 2dca 00000000 		.4byte	.LFB317
 9650 2dce 3C000000 		.4byte	.LFE317-.LFB317
 9651 2dd2 01       		.uleb128 0x1
 9652 2dd3 9C       		.byte	0x9c
 9653 2dd4 7F2E0000 		.4byte	0x2e7f
 9654 2dd8 27       		.uleb128 0x27
 9655 2dd9 70726900 		.ascii	"pri\000"
 9656 2ddd 01       		.byte	0x1
 9657 2dde 7705     		.2byte	0x577
 9658 2de0 B30A0000 		.4byte	0xab3
 9659 2de4 7B120000 		.4byte	.LLST155
 9660 2de8 27       		.uleb128 0x27
 9661 2de9 6300     		.ascii	"c\000"
 9662 2deb 01       		.byte	0x1
 9663 2dec 7705     		.2byte	0x577
 9664 2dee B30A0000 		.4byte	0xab3
 9665 2df2 9C120000 		.4byte	.LLST156
 9666 2df6 29       		.uleb128 0x29
 9667 2df7 B7060000 		.4byte	.LASF187
 9668 2dfb 01       		.byte	0x1
 9669 2dfc 7705     		.2byte	0x577
 9670 2dfe BE0A0000 		.4byte	0xabe
 9671 2e02 BD120000 		.4byte	.LLST157
 9672 2e06 28       		.uleb128 0x28
 9673 2e07 7300     		.ascii	"s\000"
 9674 2e09 01       		.byte	0x1
 9675 2e0a 7905     		.2byte	0x579
 9676 2e0c B30A0000 		.4byte	0xab3
 9677 2e10 DE120000 		.4byte	.LLST158
 9678 2e14 20       		.uleb128 0x20
 9679 2e15 10000000 		.4byte	.LVL421
 9680 2e19 F8330000 		.4byte	0x33f8
 9681 2e1d 282E0000 		.4byte	0x2e28
 9682 2e21 21       		.uleb128 0x21
 9683 2e22 01       		.uleb128 0x1
 9684 2e23 50       		.byte	0x50
 9685 2e24 02       		.uleb128 0x2
 9686 2e25 74       		.byte	0x74
 9687 2e26 00       		.sleb128 0
 9688 2e27 00       		.byte	0
 9689 2e28 20       		.uleb128 0x20
 9690 2e29 18000000 		.4byte	.LVL422
ARM GAS  /tmp/cctBdhRt.s 			page 171


 9691 2e2d 0A340000 		.4byte	0x340a
 9692 2e31 3F2E0000 		.4byte	0x2e3f
 9693 2e35 21       		.uleb128 0x21
 9694 2e36 01       		.uleb128 0x1
 9695 2e37 50       		.byte	0x50
 9696 2e38 05       		.uleb128 0x5
 9697 2e39 76       		.byte	0x76
 9698 2e3a 00       		.sleb128 0
 9699 2e3b 08       		.byte	0x8
 9700 2e3c 78       		.byte	0x78
 9701 2e3d 21       		.byte	0x21
 9702 2e3e 00       		.byte	0
 9703 2e3f 20       		.uleb128 0x20
 9704 2e40 26000000 		.4byte	.LVL424
 9705 2e44 0A340000 		.4byte	0x340a
 9706 2e48 5A2E0000 		.4byte	0x2e5a
 9707 2e4c 21       		.uleb128 0x21
 9708 2e4d 01       		.uleb128 0x1
 9709 2e4e 50       		.byte	0x50
 9710 2e4f 09       		.uleb128 0x9
 9711 2e50 77       		.byte	0x77
 9712 2e51 00       		.sleb128 0
 9713 2e52 34       		.byte	0x34
 9714 2e53 24       		.byte	0x24
 9715 2e54 75       		.byte	0x75
 9716 2e55 00       		.sleb128 0
 9717 2e56 38       		.byte	0x38
 9718 2e57 25       		.byte	0x25
 9719 2e58 21       		.byte	0x21
 9720 2e59 00       		.byte	0
 9721 2e5a 20       		.uleb128 0x20
 9722 2e5b 2C000000 		.4byte	.LVL425
 9723 2e5f 0A340000 		.4byte	0x340a
 9724 2e63 6E2E0000 		.4byte	0x2e6e
 9725 2e67 21       		.uleb128 0x21
 9726 2e68 01       		.uleb128 0x1
 9727 2e69 50       		.byte	0x50
 9728 2e6a 02       		.uleb128 0x2
 9729 2e6b 75       		.byte	0x75
 9730 2e6c 00       		.sleb128 0
 9731 2e6d 00       		.byte	0
 9732 2e6e 22       		.uleb128 0x22
 9733 2e6f 32000000 		.4byte	.LVL426
 9734 2e73 1F340000 		.4byte	0x341f
 9735 2e77 21       		.uleb128 0x21
 9736 2e78 01       		.uleb128 0x1
 9737 2e79 50       		.byte	0x50
 9738 2e7a 02       		.uleb128 0x2
 9739 2e7b 74       		.byte	0x74
 9740 2e7c 00       		.sleb128 0
 9741 2e7d 00       		.byte	0
 9742 2e7e 00       		.byte	0
 9743 2e7f 26       		.uleb128 0x26
 9744 2e80 3A050000 		.4byte	.LASF234
 9745 2e84 01       		.byte	0x1
 9746 2e85 8C05     		.2byte	0x58c
 9747 2e87 B30A0000 		.4byte	0xab3
ARM GAS  /tmp/cctBdhRt.s 			page 172


 9748 2e8b 00000000 		.4byte	.LFB318
 9749 2e8f 28000000 		.4byte	.LFE318-.LFB318
 9750 2e93 01       		.uleb128 0x1
 9751 2e94 9C       		.byte	0x9c
 9752 2e95 022F0000 		.4byte	0x2f02
 9753 2e99 27       		.uleb128 0x27
 9754 2e9a 6300     		.ascii	"c\000"
 9755 2e9c 01       		.byte	0x1
 9756 2e9d 8C05     		.2byte	0x58c
 9757 2e9f B30A0000 		.4byte	0xab3
 9758 2ea3 F1120000 		.4byte	.LLST159
 9759 2ea7 28       		.uleb128 0x28
 9760 2ea8 7300     		.ascii	"s\000"
 9761 2eaa 01       		.byte	0x1
 9762 2eab 8E05     		.2byte	0x58e
 9763 2ead B30A0000 		.4byte	0xab3
 9764 2eb1 12130000 		.4byte	.LLST160
 9765 2eb5 20       		.uleb128 0x20
 9766 2eb6 0C000000 		.4byte	.LVL430
 9767 2eba F8330000 		.4byte	0x33f8
 9768 2ebe C92E0000 		.4byte	0x2ec9
 9769 2ec2 21       		.uleb128 0x21
 9770 2ec3 01       		.uleb128 0x1
 9771 2ec4 50       		.byte	0x50
 9772 2ec5 02       		.uleb128 0x2
 9773 2ec6 74       		.byte	0x74
 9774 2ec7 00       		.sleb128 0
 9775 2ec8 00       		.byte	0
 9776 2ec9 20       		.uleb128 0x20
 9777 2eca 12000000 		.4byte	.LVL431
 9778 2ece 0A340000 		.4byte	0x340a
 9779 2ed2 DD2E0000 		.4byte	0x2edd
 9780 2ed6 21       		.uleb128 0x21
 9781 2ed7 01       		.uleb128 0x1
 9782 2ed8 50       		.byte	0x50
 9783 2ed9 02       		.uleb128 0x2
 9784 2eda 08       		.byte	0x8
 9785 2edb 7F       		.byte	0x7f
 9786 2edc 00       		.byte	0
 9787 2edd 20       		.uleb128 0x20
 9788 2ede 1A000000 		.4byte	.LVL433
 9789 2ee2 0A340000 		.4byte	0x340a
 9790 2ee6 F12E0000 		.4byte	0x2ef1
 9791 2eea 21       		.uleb128 0x21
 9792 2eeb 01       		.uleb128 0x1
 9793 2eec 50       		.byte	0x50
 9794 2eed 02       		.uleb128 0x2
 9795 2eee 76       		.byte	0x76
 9796 2eef 00       		.sleb128 0
 9797 2ef0 00       		.byte	0
 9798 2ef1 22       		.uleb128 0x22
 9799 2ef2 20000000 		.4byte	.LVL434
 9800 2ef6 1F340000 		.4byte	0x341f
 9801 2efa 21       		.uleb128 0x21
 9802 2efb 01       		.uleb128 0x1
 9803 2efc 50       		.byte	0x50
 9804 2efd 02       		.uleb128 0x2
ARM GAS  /tmp/cctBdhRt.s 			page 173


 9805 2efe 74       		.byte	0x74
 9806 2eff 00       		.sleb128 0
 9807 2f00 00       		.byte	0
 9808 2f01 00       		.byte	0
 9809 2f02 26       		.uleb128 0x26
 9810 2f03 8C070000 		.4byte	.LASF235
 9811 2f07 01       		.byte	0x1
 9812 2f08 A205     		.2byte	0x5a2
 9813 2f0a B30A0000 		.4byte	0xab3
 9814 2f0e 00000000 		.4byte	.LFB319
 9815 2f12 34000000 		.4byte	.LFE319-.LFB319
 9816 2f16 01       		.uleb128 0x1
 9817 2f17 9C       		.byte	0x9c
 9818 2f18 9E2F0000 		.4byte	0x2f9e
 9819 2f1c 29       		.uleb128 0x29
 9820 2f1d B7060000 		.4byte	.LASF187
 9821 2f21 01       		.byte	0x1
 9822 2f22 A205     		.2byte	0x5a2
 9823 2f24 B30A0000 		.4byte	0xab3
 9824 2f28 25130000 		.4byte	.LLST161
 9825 2f2c 29       		.uleb128 0x29
 9826 2f2d 40010000 		.4byte	.LASF161
 9827 2f31 01       		.byte	0x1
 9828 2f32 A205     		.2byte	0x5a2
 9829 2f34 B30A0000 		.4byte	0xab3
 9830 2f38 46130000 		.4byte	.LLST162
 9831 2f3c 29       		.uleb128 0x29
 9832 2f3d 9B090000 		.4byte	.LASF236
 9833 2f41 01       		.byte	0x1
 9834 2f42 A205     		.2byte	0x5a2
 9835 2f44 99110000 		.4byte	0x1199
 9836 2f48 67130000 		.4byte	.LLST163
 9837 2f4c 28       		.uleb128 0x28
 9838 2f4d 7300     		.ascii	"s\000"
 9839 2f4f 01       		.byte	0x1
 9840 2f50 A405     		.2byte	0x5a4
 9841 2f52 B30A0000 		.4byte	0xab3
 9842 2f56 93130000 		.4byte	.LLST164
 9843 2f5a 2A       		.uleb128 0x2a
 9844 2f5b 0E000000 		.4byte	.LVL438
 9845 2f5f F8330000 		.4byte	0x33f8
 9846 2f63 20       		.uleb128 0x20
 9847 2f64 16000000 		.4byte	.LVL439
 9848 2f68 0A340000 		.4byte	0x340a
 9849 2f6c 7A2F0000 		.4byte	0x2f7a
 9850 2f70 21       		.uleb128 0x21
 9851 2f71 01       		.uleb128 0x1
 9852 2f72 50       		.byte	0x50
 9853 2f73 05       		.uleb128 0x5
 9854 2f74 75       		.byte	0x75
 9855 2f75 00       		.sleb128 0
 9856 2f76 08       		.byte	0x8
 9857 2f77 80       		.byte	0x80
 9858 2f78 21       		.byte	0x21
 9859 2f79 00       		.byte	0
 9860 2f7a 20       		.uleb128 0x20
 9861 2f7b 24000000 		.4byte	.LVL441
ARM GAS  /tmp/cctBdhRt.s 			page 174


 9862 2f7f 31340000 		.4byte	0x3431
 9863 2f83 942F0000 		.4byte	0x2f94
 9864 2f87 21       		.uleb128 0x21
 9865 2f88 01       		.uleb128 0x1
 9866 2f89 52       		.byte	0x52
 9867 2f8a 02       		.uleb128 0x2
 9868 2f8b 76       		.byte	0x76
 9869 2f8c 00       		.sleb128 0
 9870 2f8d 21       		.uleb128 0x21
 9871 2f8e 01       		.uleb128 0x1
 9872 2f8f 51       		.byte	0x51
 9873 2f90 02       		.uleb128 0x2
 9874 2f91 74       		.byte	0x74
 9875 2f92 00       		.sleb128 0
 9876 2f93 00       		.byte	0
 9877 2f94 2A       		.uleb128 0x2a
 9878 2f95 2A000000 		.4byte	.LVL442
 9879 2f99 1F340000 		.4byte	0x341f
 9880 2f9d 00       		.byte	0
 9881 2f9e 26       		.uleb128 0x26
 9882 2f9f 6E040000 		.4byte	.LASF237
 9883 2fa3 01       		.byte	0x1
 9884 2fa4 B605     		.2byte	0x5b6
 9885 2fa6 B30A0000 		.4byte	0xab3
 9886 2faa 00000000 		.4byte	.LFB320
 9887 2fae 2C000000 		.4byte	.LFE320-.LFB320
 9888 2fb2 01       		.uleb128 0x1
 9889 2fb3 9C       		.byte	0x9c
 9890 2fb4 27300000 		.4byte	0x3027
 9891 2fb8 29       		.uleb128 0x29
 9892 2fb9 B7060000 		.4byte	.LASF187
 9893 2fbd 01       		.byte	0x1
 9894 2fbe B605     		.2byte	0x5b6
 9895 2fc0 B30A0000 		.4byte	0xab3
 9896 2fc4 A6130000 		.4byte	.LLST165
 9897 2fc8 2B       		.uleb128 0x2b
 9898 2fc9 18040000 		.4byte	.LASF190
 9899 2fcd 01       		.byte	0x1
 9900 2fce B805     		.2byte	0x5b8
 9901 2fd0 B30A0000 		.4byte	0xab3
 9902 2fd4 C7130000 		.4byte	.LLST166
 9903 2fd8 20       		.uleb128 0x20
 9904 2fd9 0C000000 		.4byte	.LVL446
 9905 2fdd F8330000 		.4byte	0x33f8
 9906 2fe1 EC2F0000 		.4byte	0x2fec
 9907 2fe5 21       		.uleb128 0x21
 9908 2fe6 01       		.uleb128 0x1
 9909 2fe7 50       		.byte	0x50
 9910 2fe8 02       		.uleb128 0x2
 9911 2fe9 74       		.byte	0x74
 9912 2fea 00       		.sleb128 0
 9913 2feb 00       		.byte	0
 9914 2fec 20       		.uleb128 0x20
 9915 2fed 14000000 		.4byte	.LVL447
 9916 2ff1 0A340000 		.4byte	0x340a
 9917 2ff5 03300000 		.4byte	0x3003
 9918 2ff9 21       		.uleb128 0x21
ARM GAS  /tmp/cctBdhRt.s 			page 175


 9919 2ffa 01       		.uleb128 0x1
 9920 2ffb 50       		.byte	0x50
 9921 2ffc 05       		.uleb128 0x5
 9922 2ffd 75       		.byte	0x75
 9923 2ffe 00       		.sleb128 0
 9924 2fff 08       		.byte	0x8
 9925 3000 80       		.byte	0x80
 9926 3001 21       		.byte	0x21
 9927 3002 00       		.byte	0
 9928 3003 20       		.uleb128 0x20
 9929 3004 1A000000 		.4byte	.LVL448
 9930 3008 0A340000 		.4byte	0x340a
 9931 300c 16300000 		.4byte	0x3016
 9932 3010 21       		.uleb128 0x21
 9933 3011 01       		.uleb128 0x1
 9934 3012 50       		.byte	0x50
 9935 3013 01       		.uleb128 0x1
 9936 3014 30       		.byte	0x30
 9937 3015 00       		.byte	0
 9938 3016 22       		.uleb128 0x22
 9939 3017 22000000 		.4byte	.LVL450
 9940 301b 1F340000 		.4byte	0x341f
 9941 301f 21       		.uleb128 0x21
 9942 3020 01       		.uleb128 0x1
 9943 3021 50       		.byte	0x50
 9944 3022 02       		.uleb128 0x2
 9945 3023 74       		.byte	0x74
 9946 3024 00       		.sleb128 0
 9947 3025 00       		.byte	0
 9948 3026 00       		.byte	0
 9949 3027 26       		.uleb128 0x26
 9950 3028 FD040000 		.4byte	.LASF238
 9951 302c 01       		.byte	0x1
 9952 302d CA05     		.2byte	0x5ca
 9953 302f BE0A0000 		.4byte	0xabe
 9954 3033 00000000 		.4byte	.LFB321
 9955 3037 3C000000 		.4byte	.LFE321-.LFB321
 9956 303b 01       		.uleb128 0x1
 9957 303c 9C       		.byte	0x9c
 9958 303d C3300000 		.4byte	0x30c3
 9959 3041 29       		.uleb128 0x29
 9960 3042 B7060000 		.4byte	.LASF187
 9961 3046 01       		.byte	0x1
 9962 3047 CA05     		.2byte	0x5ca
 9963 3049 B30A0000 		.4byte	0xab3
 9964 304d DA130000 		.4byte	.LLST167
 9965 3051 2B       		.uleb128 0x2b
 9966 3052 18040000 		.4byte	.LASF190
 9967 3056 01       		.byte	0x1
 9968 3057 CC05     		.2byte	0x5cc
 9969 3059 0E0B0000 		.4byte	0xb0e
 9970 305d FB130000 		.4byte	.LLST168
 9971 3061 20       		.uleb128 0x20
 9972 3062 0C000000 		.4byte	.LVL454
 9973 3066 F8330000 		.4byte	0x33f8
 9974 306a 75300000 		.4byte	0x3075
 9975 306e 21       		.uleb128 0x21
ARM GAS  /tmp/cctBdhRt.s 			page 176


 9976 306f 01       		.uleb128 0x1
 9977 3070 50       		.byte	0x50
 9978 3071 02       		.uleb128 0x2
 9979 3072 75       		.byte	0x75
 9980 3073 00       		.sleb128 0
 9981 3074 00       		.byte	0
 9982 3075 20       		.uleb128 0x20
 9983 3076 14000000 		.4byte	.LVL455
 9984 307a 0A340000 		.4byte	0x340a
 9985 307e 8C300000 		.4byte	0x308c
 9986 3082 21       		.uleb128 0x21
 9987 3083 01       		.uleb128 0x1
 9988 3084 50       		.byte	0x50
 9989 3085 05       		.uleb128 0x5
 9990 3086 74       		.byte	0x74
 9991 3087 00       		.sleb128 0
 9992 3088 08       		.byte	0x8
 9993 3089 80       		.byte	0x80
 9994 308a 21       		.byte	0x21
 9995 308b 00       		.byte	0
 9996 308c 20       		.uleb128 0x20
 9997 308d 1A000000 		.4byte	.LVL456
 9998 3091 0A340000 		.4byte	0x340a
 9999 3095 9F300000 		.4byte	0x309f
 10000 3099 21       		.uleb128 0x21
 10001 309a 01       		.uleb128 0x1
 10002 309b 50       		.byte	0x50
 10003 309c 01       		.uleb128 0x1
 10004 309d 30       		.byte	0x30
 10005 309e 00       		.byte	0
 10006 309f 20       		.uleb128 0x20
 10007 30a0 28000000 		.4byte	.LVL459
 10008 30a4 0A340000 		.4byte	0x340a
 10009 30a8 B2300000 		.4byte	0x30b2
 10010 30ac 21       		.uleb128 0x21
 10011 30ad 01       		.uleb128 0x1
 10012 30ae 50       		.byte	0x50
 10013 30af 01       		.uleb128 0x1
 10014 30b0 30       		.byte	0x30
 10015 30b1 00       		.byte	0
 10016 30b2 22       		.uleb128 0x22
 10017 30b3 32000000 		.4byte	.LVL460
 10018 30b7 1F340000 		.4byte	0x341f
 10019 30bb 21       		.uleb128 0x21
 10020 30bc 01       		.uleb128 0x1
 10021 30bd 50       		.byte	0x50
 10022 30be 02       		.uleb128 0x2
 10023 30bf 75       		.byte	0x75
 10024 30c0 00       		.sleb128 0
 10025 30c1 00       		.byte	0
 10026 30c2 00       		.byte	0
 10027 30c3 26       		.uleb128 0x26
 10028 30c4 64050000 		.4byte	.LASF239
 10029 30c8 01       		.byte	0x1
 10030 30c9 DF05     		.2byte	0x5df
 10031 30cb C90A0000 		.4byte	0xac9
 10032 30cf 00000000 		.4byte	.LFB322
ARM GAS  /tmp/cctBdhRt.s 			page 177


 10033 30d3 48000000 		.4byte	.LFE322-.LFB322
 10034 30d7 01       		.uleb128 0x1
 10035 30d8 9C       		.byte	0x9c
 10036 30d9 72310000 		.4byte	0x3172
 10037 30dd 29       		.uleb128 0x29
 10038 30de B7060000 		.4byte	.LASF187
 10039 30e2 01       		.byte	0x1
 10040 30e3 DF05     		.2byte	0x5df
 10041 30e5 B30A0000 		.4byte	0xab3
 10042 30e9 0E140000 		.4byte	.LLST169
 10043 30ed 2B       		.uleb128 0x2b
 10044 30ee 18040000 		.4byte	.LASF190
 10045 30f2 01       		.byte	0x1
 10046 30f3 E105     		.2byte	0x5e1
 10047 30f5 6A0B0000 		.4byte	0xb6a
 10048 30f9 2F140000 		.4byte	.LLST170
 10049 30fd 20       		.uleb128 0x20
 10050 30fe 0C000000 		.4byte	.LVL464
 10051 3102 F8330000 		.4byte	0x33f8
 10052 3106 11310000 		.4byte	0x3111
 10053 310a 21       		.uleb128 0x21
 10054 310b 01       		.uleb128 0x1
 10055 310c 50       		.byte	0x50
 10056 310d 02       		.uleb128 0x2
 10057 310e 75       		.byte	0x75
 10058 310f 00       		.sleb128 0
 10059 3110 00       		.byte	0
 10060 3111 20       		.uleb128 0x20
 10061 3112 14000000 		.4byte	.LVL465
 10062 3116 0A340000 		.4byte	0x340a
 10063 311a 28310000 		.4byte	0x3128
 10064 311e 21       		.uleb128 0x21
 10065 311f 01       		.uleb128 0x1
 10066 3120 50       		.byte	0x50
 10067 3121 05       		.uleb128 0x5
 10068 3122 74       		.byte	0x74
 10069 3123 00       		.sleb128 0
 10070 3124 08       		.byte	0x8
 10071 3125 80       		.byte	0x80
 10072 3126 21       		.byte	0x21
 10073 3127 00       		.byte	0
 10074 3128 20       		.uleb128 0x20
 10075 3129 1A000000 		.4byte	.LVL466
 10076 312d 0A340000 		.4byte	0x340a
 10077 3131 3B310000 		.4byte	0x313b
 10078 3135 21       		.uleb128 0x21
 10079 3136 01       		.uleb128 0x1
 10080 3137 50       		.byte	0x50
 10081 3138 01       		.uleb128 0x1
 10082 3139 30       		.byte	0x30
 10083 313a 00       		.byte	0
 10084 313b 20       		.uleb128 0x20
 10085 313c 26000000 		.4byte	.LVL469
 10086 3140 0A340000 		.4byte	0x340a
 10087 3144 4E310000 		.4byte	0x314e
 10088 3148 21       		.uleb128 0x21
 10089 3149 01       		.uleb128 0x1
ARM GAS  /tmp/cctBdhRt.s 			page 178


 10090 314a 50       		.byte	0x50
 10091 314b 01       		.uleb128 0x1
 10092 314c 30       		.byte	0x30
 10093 314d 00       		.byte	0
 10094 314e 20       		.uleb128 0x20
 10095 314f 30000000 		.4byte	.LVL470
 10096 3153 0A340000 		.4byte	0x340a
 10097 3157 61310000 		.4byte	0x3161
 10098 315b 21       		.uleb128 0x21
 10099 315c 01       		.uleb128 0x1
 10100 315d 50       		.byte	0x50
 10101 315e 01       		.uleb128 0x1
 10102 315f 30       		.byte	0x30
 10103 3160 00       		.byte	0
 10104 3161 22       		.uleb128 0x22
 10105 3162 3E000000 		.4byte	.LVL471
 10106 3166 1F340000 		.4byte	0x341f
 10107 316a 21       		.uleb128 0x21
 10108 316b 01       		.uleb128 0x1
 10109 316c 50       		.byte	0x50
 10110 316d 02       		.uleb128 0x2
 10111 316e 75       		.byte	0x75
 10112 316f 00       		.sleb128 0
 10113 3170 00       		.byte	0
 10114 3171 00       		.byte	0
 10115 3172 26       		.uleb128 0x26
 10116 3173 12060000 		.4byte	.LASF240
 10117 3177 01       		.byte	0x1
 10118 3178 F805     		.2byte	0x5f8
 10119 317a B30A0000 		.4byte	0xab3
 10120 317e 00000000 		.4byte	.LFB323
 10121 3182 34000000 		.4byte	.LFE323-.LFB323
 10122 3186 01       		.uleb128 0x1
 10123 3187 9C       		.byte	0x9c
 10124 3188 0E320000 		.4byte	0x320e
 10125 318c 29       		.uleb128 0x29
 10126 318d B7060000 		.4byte	.LASF187
 10127 3191 01       		.byte	0x1
 10128 3192 F805     		.2byte	0x5f8
 10129 3194 B30A0000 		.4byte	0xab3
 10130 3198 42140000 		.4byte	.LLST171
 10131 319c 29       		.uleb128 0x29
 10132 319d 40010000 		.4byte	.LASF161
 10133 31a1 01       		.byte	0x1
 10134 31a2 F805     		.2byte	0x5f8
 10135 31a4 B30A0000 		.4byte	0xab3
 10136 31a8 63140000 		.4byte	.LLST172
 10137 31ac 29       		.uleb128 0x29
 10138 31ad 9B090000 		.4byte	.LASF236
 10139 31b1 01       		.byte	0x1
 10140 31b2 F805     		.2byte	0x5f8
 10141 31b4 99110000 		.4byte	0x1199
 10142 31b8 84140000 		.4byte	.LLST173
 10143 31bc 28       		.uleb128 0x28
 10144 31bd 7300     		.ascii	"s\000"
 10145 31bf 01       		.byte	0x1
 10146 31c0 FA05     		.2byte	0x5fa
ARM GAS  /tmp/cctBdhRt.s 			page 179


 10147 31c2 B30A0000 		.4byte	0xab3
 10148 31c6 B0140000 		.4byte	.LLST174
 10149 31ca 2A       		.uleb128 0x2a
 10150 31cb 0E000000 		.4byte	.LVL475
 10151 31cf F8330000 		.4byte	0x33f8
 10152 31d3 20       		.uleb128 0x20
 10153 31d4 16000000 		.4byte	.LVL476
 10154 31d8 0A340000 		.4byte	0x340a
 10155 31dc EA310000 		.4byte	0x31ea
 10156 31e0 21       		.uleb128 0x21
 10157 31e1 01       		.uleb128 0x1
 10158 31e2 50       		.byte	0x50
 10159 31e3 05       		.uleb128 0x5
 10160 31e4 75       		.byte	0x75
 10161 31e5 00       		.sleb128 0
 10162 31e6 08       		.byte	0x8
 10163 31e7 C0       		.byte	0xc0
 10164 31e8 21       		.byte	0x21
 10165 31e9 00       		.byte	0
 10166 31ea 20       		.uleb128 0x20
 10167 31eb 24000000 		.4byte	.LVL478
 10168 31ef 4D340000 		.4byte	0x344d
 10169 31f3 04320000 		.4byte	0x3204
 10170 31f7 21       		.uleb128 0x21
 10171 31f8 01       		.uleb128 0x1
 10172 31f9 52       		.byte	0x52
 10173 31fa 02       		.uleb128 0x2
 10174 31fb 76       		.byte	0x76
 10175 31fc 00       		.sleb128 0
 10176 31fd 21       		.uleb128 0x21
 10177 31fe 01       		.uleb128 0x1
 10178 31ff 51       		.byte	0x51
 10179 3200 02       		.uleb128 0x2
 10180 3201 74       		.byte	0x74
 10181 3202 00       		.sleb128 0
 10182 3203 00       		.byte	0
 10183 3204 2A       		.uleb128 0x2a
 10184 3205 2A000000 		.4byte	.LVL479
 10185 3209 1F340000 		.4byte	0x341f
 10186 320d 00       		.byte	0
 10187 320e 2D       		.uleb128 0x2d
 10188 320f 57090000 		.4byte	.LASF241
 10189 3213 01       		.byte	0x1
 10190 3214 0D06     		.2byte	0x60d
 10191 3216 00000000 		.4byte	.LFB324
 10192 321a 2C000000 		.4byte	.LFE324-.LFB324
 10193 321e 01       		.uleb128 0x1
 10194 321f 9C       		.byte	0x9c
 10195 3220 8D320000 		.4byte	0x328d
 10196 3224 29       		.uleb128 0x29
 10197 3225 B7060000 		.4byte	.LASF187
 10198 3229 01       		.byte	0x1
 10199 322a 0D06     		.2byte	0x60d
 10200 322c B30A0000 		.4byte	0xab3
 10201 3230 C3140000 		.4byte	.LLST175
 10202 3234 29       		.uleb128 0x29
 10203 3235 18040000 		.4byte	.LASF190
ARM GAS  /tmp/cctBdhRt.s 			page 180


 10204 3239 01       		.byte	0x1
 10205 323a 0D06     		.2byte	0x60d
 10206 323c B30A0000 		.4byte	0xab3
 10207 3240 E4140000 		.4byte	.LLST176
 10208 3244 20       		.uleb128 0x20
 10209 3245 0E000000 		.4byte	.LVL483
 10210 3249 F8330000 		.4byte	0x33f8
 10211 324d 58320000 		.4byte	0x3258
 10212 3251 21       		.uleb128 0x21
 10213 3252 01       		.uleb128 0x1
 10214 3253 50       		.byte	0x50
 10215 3254 02       		.uleb128 0x2
 10216 3255 74       		.byte	0x74
 10217 3256 00       		.sleb128 0
 10218 3257 00       		.byte	0
 10219 3258 20       		.uleb128 0x20
 10220 3259 16000000 		.4byte	.LVL484
 10221 325d 0A340000 		.4byte	0x340a
 10222 3261 6F320000 		.4byte	0x326f
 10223 3265 21       		.uleb128 0x21
 10224 3266 01       		.uleb128 0x1
 10225 3267 50       		.byte	0x50
 10226 3268 05       		.uleb128 0x5
 10227 3269 76       		.byte	0x76
 10228 326a 00       		.sleb128 0
 10229 326b 08       		.byte	0x8
 10230 326c C0       		.byte	0xc0
 10231 326d 21       		.byte	0x21
 10232 326e 00       		.byte	0
 10233 326f 20       		.uleb128 0x20
 10234 3270 1C000000 		.4byte	.LVL485
 10235 3274 0A340000 		.4byte	0x340a
 10236 3278 83320000 		.4byte	0x3283
 10237 327c 21       		.uleb128 0x21
 10238 327d 01       		.uleb128 0x1
 10239 327e 50       		.byte	0x50
 10240 327f 02       		.uleb128 0x2
 10241 3280 75       		.byte	0x75
 10242 3281 00       		.sleb128 0
 10243 3282 00       		.byte	0
 10244 3283 2E       		.uleb128 0x2e
 10245 3284 26000000 		.4byte	.LVL486
 10246 3288 1F340000 		.4byte	0x341f
 10247 328c 00       		.byte	0
 10248 328d 2D       		.uleb128 0x2d
 10249 328e E1080000 		.4byte	.LASF242
 10250 3292 01       		.byte	0x1
 10251 3293 2106     		.2byte	0x621
 10252 3295 00000000 		.4byte	.LFB325
 10253 3299 30000000 		.4byte	.LFE325-.LFB325
 10254 329d 01       		.uleb128 0x1
 10255 329e 9C       		.byte	0x9c
 10256 329f 22330000 		.4byte	0x3322
 10257 32a3 29       		.uleb128 0x29
 10258 32a4 B7060000 		.4byte	.LASF187
 10259 32a8 01       		.byte	0x1
 10260 32a9 2106     		.2byte	0x621
ARM GAS  /tmp/cctBdhRt.s 			page 181


 10261 32ab B30A0000 		.4byte	0xab3
 10262 32af 05150000 		.4byte	.LLST177
 10263 32b3 29       		.uleb128 0x29
 10264 32b4 18040000 		.4byte	.LASF190
 10265 32b8 01       		.byte	0x1
 10266 32b9 2106     		.2byte	0x621
 10267 32bb BE0A0000 		.4byte	0xabe
 10268 32bf 26150000 		.4byte	.LLST178
 10269 32c3 20       		.uleb128 0x20
 10270 32c4 0E000000 		.4byte	.LVL489
 10271 32c8 F8330000 		.4byte	0x33f8
 10272 32cc D7320000 		.4byte	0x32d7
 10273 32d0 21       		.uleb128 0x21
 10274 32d1 01       		.uleb128 0x1
 10275 32d2 50       		.byte	0x50
 10276 32d3 02       		.uleb128 0x2
 10277 32d4 74       		.byte	0x74
 10278 32d5 00       		.sleb128 0
 10279 32d6 00       		.byte	0
 10280 32d7 20       		.uleb128 0x20
 10281 32d8 16000000 		.4byte	.LVL490
 10282 32dc 0A340000 		.4byte	0x340a
 10283 32e0 EE320000 		.4byte	0x32ee
 10284 32e4 21       		.uleb128 0x21
 10285 32e5 01       		.uleb128 0x1
 10286 32e6 50       		.byte	0x50
 10287 32e7 05       		.uleb128 0x5
 10288 32e8 76       		.byte	0x76
 10289 32e9 00       		.sleb128 0
 10290 32ea 08       		.byte	0x8
 10291 32eb C0       		.byte	0xc0
 10292 32ec 21       		.byte	0x21
 10293 32ed 00       		.byte	0
 10294 32ee 20       		.uleb128 0x20
 10295 32ef 1C000000 		.4byte	.LVL491
 10296 32f3 0A340000 		.4byte	0x340a
 10297 32f7 02330000 		.4byte	0x3302
 10298 32fb 21       		.uleb128 0x21
 10299 32fc 01       		.uleb128 0x1
 10300 32fd 50       		.byte	0x50
 10301 32fe 02       		.uleb128 0x2
 10302 32ff 75       		.byte	0x75
 10303 3300 00       		.sleb128 0
 10304 3301 00       		.byte	0
 10305 3302 20       		.uleb128 0x20
 10306 3303 22000000 		.4byte	.LVL492
 10307 3307 0A340000 		.4byte	0x340a
 10308 330b 18330000 		.4byte	0x3318
 10309 330f 21       		.uleb128 0x21
 10310 3310 01       		.uleb128 0x1
 10311 3311 50       		.byte	0x50
 10312 3312 04       		.uleb128 0x4
 10313 3313 75       		.byte	0x75
 10314 3314 00       		.sleb128 0
 10315 3315 38       		.byte	0x38
 10316 3316 25       		.byte	0x25
 10317 3317 00       		.byte	0
ARM GAS  /tmp/cctBdhRt.s 			page 182


 10318 3318 2E       		.uleb128 0x2e
 10319 3319 2C000000 		.4byte	.LVL493
 10320 331d 1F340000 		.4byte	0x341f
 10321 3321 00       		.byte	0
 10322 3322 2D       		.uleb128 0x2d
 10323 3323 65090000 		.4byte	.LASF243
 10324 3327 01       		.byte	0x1
 10325 3328 3506     		.2byte	0x635
 10326 332a 00000000 		.4byte	.LFB326
 10327 332e 3C000000 		.4byte	.LFE326-.LFB326
 10328 3332 01       		.uleb128 0x1
 10329 3333 9C       		.byte	0x9c
 10330 3334 D5330000 		.4byte	0x33d5
 10331 3338 29       		.uleb128 0x29
 10332 3339 B7060000 		.4byte	.LASF187
 10333 333d 01       		.byte	0x1
 10334 333e 3506     		.2byte	0x635
 10335 3340 B30A0000 		.4byte	0xab3
 10336 3344 47150000 		.4byte	.LLST179
 10337 3348 29       		.uleb128 0x29
 10338 3349 18040000 		.4byte	.LASF190
 10339 334d 01       		.byte	0x1
 10340 334e 3506     		.2byte	0x635
 10341 3350 C90A0000 		.4byte	0xac9
 10342 3354 68150000 		.4byte	.LLST180
 10343 3358 20       		.uleb128 0x20
 10344 3359 0E000000 		.4byte	.LVL496
 10345 335d F8330000 		.4byte	0x33f8
 10346 3361 6C330000 		.4byte	0x336c
 10347 3365 21       		.uleb128 0x21
 10348 3366 01       		.uleb128 0x1
 10349 3367 50       		.byte	0x50
 10350 3368 02       		.uleb128 0x2
 10351 3369 75       		.byte	0x75
 10352 336a 00       		.sleb128 0
 10353 336b 00       		.byte	0
 10354 336c 20       		.uleb128 0x20
 10355 336d 16000000 		.4byte	.LVL497
 10356 3371 0A340000 		.4byte	0x340a
 10357 3375 83330000 		.4byte	0x3383
 10358 3379 21       		.uleb128 0x21
 10359 337a 01       		.uleb128 0x1
 10360 337b 50       		.byte	0x50
 10361 337c 05       		.uleb128 0x5
 10362 337d 76       		.byte	0x76
 10363 337e 00       		.sleb128 0
 10364 337f 08       		.byte	0x8
 10365 3380 C0       		.byte	0xc0
 10366 3381 21       		.byte	0x21
 10367 3382 00       		.byte	0
 10368 3383 20       		.uleb128 0x20
 10369 3384 1C000000 		.4byte	.LVL498
 10370 3388 0A340000 		.4byte	0x340a
 10371 338c 97330000 		.4byte	0x3397
 10372 3390 21       		.uleb128 0x21
 10373 3391 01       		.uleb128 0x1
 10374 3392 50       		.byte	0x50
ARM GAS  /tmp/cctBdhRt.s 			page 183


 10375 3393 02       		.uleb128 0x2
 10376 3394 74       		.byte	0x74
 10377 3395 00       		.sleb128 0
 10378 3396 00       		.byte	0
 10379 3397 20       		.uleb128 0x20
 10380 3398 24000000 		.4byte	.LVL499
 10381 339c 0A340000 		.4byte	0x340a
 10382 33a0 B1330000 		.4byte	0x33b1
 10383 33a4 21       		.uleb128 0x21
 10384 33a5 01       		.uleb128 0x1
 10385 33a6 50       		.byte	0x50
 10386 33a7 08       		.uleb128 0x8
 10387 33a8 74       		.byte	0x74
 10388 33a9 00       		.sleb128 0
 10389 33aa 09       		.byte	0x9
 10390 33ab F4       		.byte	0xf4
 10391 33ac 24       		.byte	0x24
 10392 33ad 09       		.byte	0x9
 10393 33ae FC       		.byte	0xfc
 10394 33af 25       		.byte	0x25
 10395 33b0 00       		.byte	0
 10396 33b1 20       		.uleb128 0x20
 10397 33b2 2C000000 		.4byte	.LVL500
 10398 33b6 0A340000 		.4byte	0x340a
 10399 33ba CB330000 		.4byte	0x33cb
 10400 33be 21       		.uleb128 0x21
 10401 33bf 01       		.uleb128 0x1
 10402 33c0 50       		.byte	0x50
 10403 33c1 08       		.uleb128 0x8
 10404 33c2 74       		.byte	0x74
 10405 33c3 00       		.sleb128 0
 10406 33c4 09       		.byte	0x9
 10407 33c5 EC       		.byte	0xec
 10408 33c6 24       		.byte	0x24
 10409 33c7 09       		.byte	0x9
 10410 33c8 FC       		.byte	0xfc
 10411 33c9 25       		.byte	0x25
 10412 33ca 00       		.byte	0
 10413 33cb 2E       		.uleb128 0x2e
 10414 33cc 36000000 		.4byte	.LVL502
 10415 33d0 1F340000 		.4byte	0x341f
 10416 33d4 00       		.byte	0
 10417 33d5 2F       		.uleb128 0x2f
 10418 33d6 8F060000 		.4byte	.LASF244
 10419 33da 13       		.byte	0x13
 10420 33db A706     		.2byte	0x6a7
 10421 33dd E4000000 		.4byte	0xe4
 10422 33e1 30       		.uleb128 0x30
 10423 33e2 636800   		.ascii	"ch\000"
 10424 33e5 07       		.byte	0x7
 10425 33e6 0902     		.2byte	0x209
 10426 33e8 23040000 		.4byte	0x423
 10427 33ec 2F       		.uleb128 0x2f
 10428 33ed 06010000 		.4byte	.LASF245
 10429 33f1 11       		.byte	0x11
 10430 33f2 F601     		.2byte	0x1f6
 10431 33f4 A6090000 		.4byte	0x9a6
ARM GAS  /tmp/cctBdhRt.s 			page 184


 10432 33f8 31       		.uleb128 0x31
 10433 33f9 540A0000 		.4byte	.LASF246
 10434 33fd 10       		.byte	0x10
 10435 33fe 0A01     		.2byte	0x10a
 10436 3400 0A340000 		.4byte	0x340a
 10437 3404 0D       		.uleb128 0xd
 10438 3405 520A0000 		.4byte	0xa52
 10439 3409 00       		.byte	0
 10440 340a 32       		.uleb128 0x32
 10441 340b 4F080000 		.4byte	.LASF254
 10442 340f 14       		.byte	0x14
 10443 3410 8B       		.byte	0x8b
 10444 3411 37000000 		.4byte	0x37
 10445 3415 1F340000 		.4byte	0x341f
 10446 3419 0D       		.uleb128 0xd
 10447 341a 37000000 		.4byte	0x37
 10448 341e 00       		.byte	0
 10449 341f 31       		.uleb128 0x31
 10450 3420 AF050000 		.4byte	.LASF247
 10451 3424 10       		.byte	0x10
 10452 3425 0B01     		.2byte	0x10b
 10453 3427 31340000 		.4byte	0x3431
 10454 342b 0D       		.uleb128 0xd
 10455 342c 520A0000 		.4byte	0xa52
 10456 3430 00       		.byte	0
 10457 3431 31       		.uleb128 0x31
 10458 3432 A3090000 		.4byte	.LASF248
 10459 3436 10       		.byte	0x10
 10460 3437 1501     		.2byte	0x115
 10461 3439 4D340000 		.4byte	0x344d
 10462 343d 0D       		.uleb128 0xd
 10463 343e 520A0000 		.4byte	0xa52
 10464 3442 0D       		.uleb128 0xd
 10465 3443 D9000000 		.4byte	0xd9
 10466 3447 0D       		.uleb128 0xd
 10467 3448 54030000 		.4byte	0x354
 10468 344c 00       		.byte	0
 10469 344d 31       		.uleb128 0x31
 10470 344e C8080000 		.4byte	.LASF249
 10471 3452 10       		.byte	0x10
 10472 3453 1401     		.2byte	0x114
 10473 3455 69340000 		.4byte	0x3469
 10474 3459 0D       		.uleb128 0xd
 10475 345a 520A0000 		.4byte	0xa52
 10476 345e 0D       		.uleb128 0xd
 10477 345f D9000000 		.4byte	0xd9
 10478 3463 0D       		.uleb128 0xd
 10479 3464 69340000 		.4byte	0x3469
 10480 3468 00       		.byte	0
 10481 3469 0A       		.uleb128 0xa
 10482 346a 04       		.byte	0x4
 10483 346b 6F340000 		.4byte	0x346f
 10484 346f 33       		.uleb128 0x33
 10485 3470 00       		.byte	0
 10486              		.section	.debug_abbrev,"",%progbits
 10487              	.Ldebug_abbrev0:
 10488 0000 01       		.uleb128 0x1
ARM GAS  /tmp/cctBdhRt.s 			page 185


 10489 0001 11       		.uleb128 0x11
 10490 0002 01       		.byte	0x1
 10491 0003 25       		.uleb128 0x25
 10492 0004 0E       		.uleb128 0xe
 10493 0005 13       		.uleb128 0x13
 10494 0006 0B       		.uleb128 0xb
 10495 0007 03       		.uleb128 0x3
 10496 0008 0E       		.uleb128 0xe
 10497 0009 1B       		.uleb128 0x1b
 10498 000a 0E       		.uleb128 0xe
 10499 000b 55       		.uleb128 0x55
 10500 000c 17       		.uleb128 0x17
 10501 000d 11       		.uleb128 0x11
 10502 000e 01       		.uleb128 0x1
 10503 000f 10       		.uleb128 0x10
 10504 0010 17       		.uleb128 0x17
 10505 0011 00       		.byte	0
 10506 0012 00       		.byte	0
 10507 0013 02       		.uleb128 0x2
 10508 0014 24       		.uleb128 0x24
 10509 0015 00       		.byte	0
 10510 0016 0B       		.uleb128 0xb
 10511 0017 0B       		.uleb128 0xb
 10512 0018 3E       		.uleb128 0x3e
 10513 0019 0B       		.uleb128 0xb
 10514 001a 03       		.uleb128 0x3
 10515 001b 0E       		.uleb128 0xe
 10516 001c 00       		.byte	0
 10517 001d 00       		.byte	0
 10518 001e 03       		.uleb128 0x3
 10519 001f 16       		.uleb128 0x16
 10520 0020 00       		.byte	0
 10521 0021 03       		.uleb128 0x3
 10522 0022 0E       		.uleb128 0xe
 10523 0023 3A       		.uleb128 0x3a
 10524 0024 0B       		.uleb128 0xb
 10525 0025 3B       		.uleb128 0x3b
 10526 0026 0B       		.uleb128 0xb
 10527 0027 49       		.uleb128 0x49
 10528 0028 13       		.uleb128 0x13
 10529 0029 00       		.byte	0
 10530 002a 00       		.byte	0
 10531 002b 04       		.uleb128 0x4
 10532 002c 24       		.uleb128 0x24
 10533 002d 00       		.byte	0
 10534 002e 0B       		.uleb128 0xb
 10535 002f 0B       		.uleb128 0xb
 10536 0030 3E       		.uleb128 0x3e
 10537 0031 0B       		.uleb128 0xb
 10538 0032 03       		.uleb128 0x3
 10539 0033 08       		.uleb128 0x8
 10540 0034 00       		.byte	0
 10541 0035 00       		.byte	0
 10542 0036 05       		.uleb128 0x5
 10543 0037 35       		.uleb128 0x35
 10544 0038 00       		.byte	0
 10545 0039 49       		.uleb128 0x49
ARM GAS  /tmp/cctBdhRt.s 			page 186


 10546 003a 13       		.uleb128 0x13
 10547 003b 00       		.byte	0
 10548 003c 00       		.byte	0
 10549 003d 06       		.uleb128 0x6
 10550 003e 13       		.uleb128 0x13
 10551 003f 01       		.byte	0x1
 10552 0040 03       		.uleb128 0x3
 10553 0041 0E       		.uleb128 0xe
 10554 0042 0B       		.uleb128 0xb
 10555 0043 0B       		.uleb128 0xb
 10556 0044 3A       		.uleb128 0x3a
 10557 0045 0B       		.uleb128 0xb
 10558 0046 3B       		.uleb128 0x3b
 10559 0047 0B       		.uleb128 0xb
 10560 0048 01       		.uleb128 0x1
 10561 0049 13       		.uleb128 0x13
 10562 004a 00       		.byte	0
 10563 004b 00       		.byte	0
 10564 004c 07       		.uleb128 0x7
 10565 004d 0D       		.uleb128 0xd
 10566 004e 00       		.byte	0
 10567 004f 03       		.uleb128 0x3
 10568 0050 0E       		.uleb128 0xe
 10569 0051 3A       		.uleb128 0x3a
 10570 0052 0B       		.uleb128 0xb
 10571 0053 3B       		.uleb128 0x3b
 10572 0054 0B       		.uleb128 0xb
 10573 0055 49       		.uleb128 0x49
 10574 0056 13       		.uleb128 0x13
 10575 0057 38       		.uleb128 0x38
 10576 0058 0B       		.uleb128 0xb
 10577 0059 00       		.byte	0
 10578 005a 00       		.byte	0
 10579 005b 08       		.uleb128 0x8
 10580 005c 0D       		.uleb128 0xd
 10581 005d 00       		.byte	0
 10582 005e 03       		.uleb128 0x3
 10583 005f 08       		.uleb128 0x8
 10584 0060 3A       		.uleb128 0x3a
 10585 0061 0B       		.uleb128 0xb
 10586 0062 3B       		.uleb128 0x3b
 10587 0063 05       		.uleb128 0x5
 10588 0064 49       		.uleb128 0x49
 10589 0065 13       		.uleb128 0x13
 10590 0066 38       		.uleb128 0x38
 10591 0067 0B       		.uleb128 0xb
 10592 0068 00       		.byte	0
 10593 0069 00       		.byte	0
 10594 006a 09       		.uleb128 0x9
 10595 006b 0D       		.uleb128 0xd
 10596 006c 00       		.byte	0
 10597 006d 03       		.uleb128 0x3
 10598 006e 0E       		.uleb128 0xe
 10599 006f 3A       		.uleb128 0x3a
 10600 0070 0B       		.uleb128 0xb
 10601 0071 3B       		.uleb128 0x3b
 10602 0072 05       		.uleb128 0x5
ARM GAS  /tmp/cctBdhRt.s 			page 187


 10603 0073 49       		.uleb128 0x49
 10604 0074 13       		.uleb128 0x13
 10605 0075 38       		.uleb128 0x38
 10606 0076 0B       		.uleb128 0xb
 10607 0077 00       		.byte	0
 10608 0078 00       		.byte	0
 10609 0079 0A       		.uleb128 0xa
 10610 007a 0F       		.uleb128 0xf
 10611 007b 00       		.byte	0
 10612 007c 0B       		.uleb128 0xb
 10613 007d 0B       		.uleb128 0xb
 10614 007e 49       		.uleb128 0x49
 10615 007f 13       		.uleb128 0x13
 10616 0080 00       		.byte	0
 10617 0081 00       		.byte	0
 10618 0082 0B       		.uleb128 0xb
 10619 0083 13       		.uleb128 0x13
 10620 0084 01       		.byte	0x1
 10621 0085 03       		.uleb128 0x3
 10622 0086 0E       		.uleb128 0xe
 10623 0087 0B       		.uleb128 0xb
 10624 0088 0B       		.uleb128 0xb
 10625 0089 3A       		.uleb128 0x3a
 10626 008a 0B       		.uleb128 0xb
 10627 008b 3B       		.uleb128 0x3b
 10628 008c 05       		.uleb128 0x5
 10629 008d 01       		.uleb128 0x1
 10630 008e 13       		.uleb128 0x13
 10631 008f 00       		.byte	0
 10632 0090 00       		.byte	0
 10633 0091 0C       		.uleb128 0xc
 10634 0092 15       		.uleb128 0x15
 10635 0093 01       		.byte	0x1
 10636 0094 27       		.uleb128 0x27
 10637 0095 19       		.uleb128 0x19
 10638 0096 01       		.uleb128 0x1
 10639 0097 13       		.uleb128 0x13
 10640 0098 00       		.byte	0
 10641 0099 00       		.byte	0
 10642 009a 0D       		.uleb128 0xd
 10643 009b 05       		.uleb128 0x5
 10644 009c 00       		.byte	0
 10645 009d 49       		.uleb128 0x49
 10646 009e 13       		.uleb128 0x13
 10647 009f 00       		.byte	0
 10648 00a0 00       		.byte	0
 10649 00a1 0E       		.uleb128 0xe
 10650 00a2 0F       		.uleb128 0xf
 10651 00a3 00       		.byte	0
 10652 00a4 0B       		.uleb128 0xb
 10653 00a5 0B       		.uleb128 0xb
 10654 00a6 00       		.byte	0
 10655 00a7 00       		.byte	0
 10656 00a8 0F       		.uleb128 0xf
 10657 00a9 13       		.uleb128 0x13
 10658 00aa 01       		.byte	0x1
 10659 00ab 03       		.uleb128 0x3
ARM GAS  /tmp/cctBdhRt.s 			page 188


 10660 00ac 0E       		.uleb128 0xe
 10661 00ad 0B       		.uleb128 0xb
 10662 00ae 05       		.uleb128 0x5
 10663 00af 3A       		.uleb128 0x3a
 10664 00b0 0B       		.uleb128 0xb
 10665 00b1 3B       		.uleb128 0x3b
 10666 00b2 05       		.uleb128 0x5
 10667 00b3 01       		.uleb128 0x1
 10668 00b4 13       		.uleb128 0x13
 10669 00b5 00       		.byte	0
 10670 00b6 00       		.byte	0
 10671 00b7 10       		.uleb128 0x10
 10672 00b8 13       		.uleb128 0x13
 10673 00b9 01       		.byte	0x1
 10674 00ba 0B       		.uleb128 0xb
 10675 00bb 0B       		.uleb128 0xb
 10676 00bc 3A       		.uleb128 0x3a
 10677 00bd 0B       		.uleb128 0xb
 10678 00be 3B       		.uleb128 0x3b
 10679 00bf 05       		.uleb128 0x5
 10680 00c0 01       		.uleb128 0x1
 10681 00c1 13       		.uleb128 0x13
 10682 00c2 00       		.byte	0
 10683 00c3 00       		.byte	0
 10684 00c4 11       		.uleb128 0x11
 10685 00c5 16       		.uleb128 0x16
 10686 00c6 00       		.byte	0
 10687 00c7 03       		.uleb128 0x3
 10688 00c8 0E       		.uleb128 0xe
 10689 00c9 3A       		.uleb128 0x3a
 10690 00ca 0B       		.uleb128 0xb
 10691 00cb 3B       		.uleb128 0x3b
 10692 00cc 05       		.uleb128 0x5
 10693 00cd 49       		.uleb128 0x49
 10694 00ce 13       		.uleb128 0x13
 10695 00cf 00       		.byte	0
 10696 00d0 00       		.byte	0
 10697 00d1 12       		.uleb128 0x12
 10698 00d2 0D       		.uleb128 0xd
 10699 00d3 00       		.byte	0
 10700 00d4 03       		.uleb128 0x3
 10701 00d5 08       		.uleb128 0x8
 10702 00d6 3A       		.uleb128 0x3a
 10703 00d7 0B       		.uleb128 0xb
 10704 00d8 3B       		.uleb128 0x3b
 10705 00d9 0B       		.uleb128 0xb
 10706 00da 49       		.uleb128 0x49
 10707 00db 13       		.uleb128 0x13
 10708 00dc 38       		.uleb128 0x38
 10709 00dd 0B       		.uleb128 0xb
 10710 00de 00       		.byte	0
 10711 00df 00       		.byte	0
 10712 00e0 13       		.uleb128 0x13
 10713 00e1 13       		.uleb128 0x13
 10714 00e2 01       		.byte	0x1
 10715 00e3 0B       		.uleb128 0xb
 10716 00e4 0B       		.uleb128 0xb
ARM GAS  /tmp/cctBdhRt.s 			page 189


 10717 00e5 3A       		.uleb128 0x3a
 10718 00e6 0B       		.uleb128 0xb
 10719 00e7 3B       		.uleb128 0x3b
 10720 00e8 0B       		.uleb128 0xb
 10721 00e9 01       		.uleb128 0x1
 10722 00ea 13       		.uleb128 0x13
 10723 00eb 00       		.byte	0
 10724 00ec 00       		.byte	0
 10725 00ed 14       		.uleb128 0x14
 10726 00ee 17       		.uleb128 0x17
 10727 00ef 01       		.byte	0x1
 10728 00f0 0B       		.uleb128 0xb
 10729 00f1 0B       		.uleb128 0xb
 10730 00f2 3A       		.uleb128 0x3a
 10731 00f3 0B       		.uleb128 0xb
 10732 00f4 3B       		.uleb128 0x3b
 10733 00f5 0B       		.uleb128 0xb
 10734 00f6 01       		.uleb128 0x1
 10735 00f7 13       		.uleb128 0x13
 10736 00f8 00       		.byte	0
 10737 00f9 00       		.byte	0
 10738 00fa 15       		.uleb128 0x15
 10739 00fb 0D       		.uleb128 0xd
 10740 00fc 00       		.byte	0
 10741 00fd 03       		.uleb128 0x3
 10742 00fe 0E       		.uleb128 0xe
 10743 00ff 3A       		.uleb128 0x3a
 10744 0100 0B       		.uleb128 0xb
 10745 0101 3B       		.uleb128 0x3b
 10746 0102 05       		.uleb128 0x5
 10747 0103 49       		.uleb128 0x49
 10748 0104 13       		.uleb128 0x13
 10749 0105 00       		.byte	0
 10750 0106 00       		.byte	0
 10751 0107 16       		.uleb128 0x16
 10752 0108 26       		.uleb128 0x26
 10753 0109 00       		.byte	0
 10754 010a 49       		.uleb128 0x49
 10755 010b 13       		.uleb128 0x13
 10756 010c 00       		.byte	0
 10757 010d 00       		.byte	0
 10758 010e 17       		.uleb128 0x17
 10759 010f 01       		.uleb128 0x1
 10760 0110 01       		.byte	0x1
 10761 0111 49       		.uleb128 0x49
 10762 0112 13       		.uleb128 0x13
 10763 0113 01       		.uleb128 0x1
 10764 0114 13       		.uleb128 0x13
 10765 0115 00       		.byte	0
 10766 0116 00       		.byte	0
 10767 0117 18       		.uleb128 0x18
 10768 0118 21       		.uleb128 0x21
 10769 0119 00       		.byte	0
 10770 011a 49       		.uleb128 0x49
 10771 011b 13       		.uleb128 0x13
 10772 011c 2F       		.uleb128 0x2f
 10773 011d 0B       		.uleb128 0xb
ARM GAS  /tmp/cctBdhRt.s 			page 190


 10774 011e 00       		.byte	0
 10775 011f 00       		.byte	0
 10776 0120 19       		.uleb128 0x19
 10777 0121 0D       		.uleb128 0xd
 10778 0122 00       		.byte	0
 10779 0123 03       		.uleb128 0x3
 10780 0124 08       		.uleb128 0x8
 10781 0125 3A       		.uleb128 0x3a
 10782 0126 0B       		.uleb128 0xb
 10783 0127 3B       		.uleb128 0x3b
 10784 0128 0B       		.uleb128 0xb
 10785 0129 49       		.uleb128 0x49
 10786 012a 13       		.uleb128 0x13
 10787 012b 00       		.byte	0
 10788 012c 00       		.byte	0
 10789 012d 1A       		.uleb128 0x1a
 10790 012e 04       		.uleb128 0x4
 10791 012f 01       		.byte	0x1
 10792 0130 0B       		.uleb128 0xb
 10793 0131 0B       		.uleb128 0xb
 10794 0132 3A       		.uleb128 0x3a
 10795 0133 0B       		.uleb128 0xb
 10796 0134 3B       		.uleb128 0x3b
 10797 0135 0B       		.uleb128 0xb
 10798 0136 01       		.uleb128 0x1
 10799 0137 13       		.uleb128 0x13
 10800 0138 00       		.byte	0
 10801 0139 00       		.byte	0
 10802 013a 1B       		.uleb128 0x1b
 10803 013b 28       		.uleb128 0x28
 10804 013c 00       		.byte	0
 10805 013d 03       		.uleb128 0x3
 10806 013e 0E       		.uleb128 0xe
 10807 013f 1C       		.uleb128 0x1c
 10808 0140 0D       		.uleb128 0xd
 10809 0141 00       		.byte	0
 10810 0142 00       		.byte	0
 10811 0143 1C       		.uleb128 0x1c
 10812 0144 2E       		.uleb128 0x2e
 10813 0145 01       		.byte	0x1
 10814 0146 03       		.uleb128 0x3
 10815 0147 0E       		.uleb128 0xe
 10816 0148 3A       		.uleb128 0x3a
 10817 0149 0B       		.uleb128 0xb
 10818 014a 3B       		.uleb128 0x3b
 10819 014b 0B       		.uleb128 0xb
 10820 014c 27       		.uleb128 0x27
 10821 014d 19       		.uleb128 0x19
 10822 014e 49       		.uleb128 0x49
 10823 014f 13       		.uleb128 0x13
 10824 0150 11       		.uleb128 0x11
 10825 0151 01       		.uleb128 0x1
 10826 0152 12       		.uleb128 0x12
 10827 0153 06       		.uleb128 0x6
 10828 0154 40       		.uleb128 0x40
 10829 0155 18       		.uleb128 0x18
 10830 0156 9742     		.uleb128 0x2117
ARM GAS  /tmp/cctBdhRt.s 			page 191


 10831 0158 19       		.uleb128 0x19
 10832 0159 01       		.uleb128 0x1
 10833 015a 13       		.uleb128 0x13
 10834 015b 00       		.byte	0
 10835 015c 00       		.byte	0
 10836 015d 1D       		.uleb128 0x1d
 10837 015e 05       		.uleb128 0x5
 10838 015f 00       		.byte	0
 10839 0160 03       		.uleb128 0x3
 10840 0161 0E       		.uleb128 0xe
 10841 0162 3A       		.uleb128 0x3a
 10842 0163 0B       		.uleb128 0xb
 10843 0164 3B       		.uleb128 0x3b
 10844 0165 0B       		.uleb128 0xb
 10845 0166 49       		.uleb128 0x49
 10846 0167 13       		.uleb128 0x13
 10847 0168 02       		.uleb128 0x2
 10848 0169 17       		.uleb128 0x17
 10849 016a 00       		.byte	0
 10850 016b 00       		.byte	0
 10851 016c 1E       		.uleb128 0x1e
 10852 016d 05       		.uleb128 0x5
 10853 016e 00       		.byte	0
 10854 016f 03       		.uleb128 0x3
 10855 0170 08       		.uleb128 0x8
 10856 0171 3A       		.uleb128 0x3a
 10857 0172 0B       		.uleb128 0xb
 10858 0173 3B       		.uleb128 0x3b
 10859 0174 0B       		.uleb128 0xb
 10860 0175 49       		.uleb128 0x49
 10861 0176 13       		.uleb128 0x13
 10862 0177 02       		.uleb128 0x2
 10863 0178 17       		.uleb128 0x17
 10864 0179 00       		.byte	0
 10865 017a 00       		.byte	0
 10866 017b 1F       		.uleb128 0x1f
 10867 017c 34       		.uleb128 0x34
 10868 017d 00       		.byte	0
 10869 017e 03       		.uleb128 0x3
 10870 017f 08       		.uleb128 0x8
 10871 0180 3A       		.uleb128 0x3a
 10872 0181 0B       		.uleb128 0xb
 10873 0182 3B       		.uleb128 0x3b
 10874 0183 0B       		.uleb128 0xb
 10875 0184 49       		.uleb128 0x49
 10876 0185 13       		.uleb128 0x13
 10877 0186 02       		.uleb128 0x2
 10878 0187 17       		.uleb128 0x17
 10879 0188 00       		.byte	0
 10880 0189 00       		.byte	0
 10881 018a 20       		.uleb128 0x20
 10882 018b 898201   		.uleb128 0x4109
 10883 018e 01       		.byte	0x1
 10884 018f 11       		.uleb128 0x11
 10885 0190 01       		.uleb128 0x1
 10886 0191 31       		.uleb128 0x31
 10887 0192 13       		.uleb128 0x13
ARM GAS  /tmp/cctBdhRt.s 			page 192


 10888 0193 01       		.uleb128 0x1
 10889 0194 13       		.uleb128 0x13
 10890 0195 00       		.byte	0
 10891 0196 00       		.byte	0
 10892 0197 21       		.uleb128 0x21
 10893 0198 8A8201   		.uleb128 0x410a
 10894 019b 00       		.byte	0
 10895 019c 02       		.uleb128 0x2
 10896 019d 18       		.uleb128 0x18
 10897 019e 9142     		.uleb128 0x2111
 10898 01a0 18       		.uleb128 0x18
 10899 01a1 00       		.byte	0
 10900 01a2 00       		.byte	0
 10901 01a3 22       		.uleb128 0x22
 10902 01a4 898201   		.uleb128 0x4109
 10903 01a7 01       		.byte	0x1
 10904 01a8 11       		.uleb128 0x11
 10905 01a9 01       		.uleb128 0x1
 10906 01aa 31       		.uleb128 0x31
 10907 01ab 13       		.uleb128 0x13
 10908 01ac 00       		.byte	0
 10909 01ad 00       		.byte	0
 10910 01ae 23       		.uleb128 0x23
 10911 01af 2E       		.uleb128 0x2e
 10912 01b0 01       		.byte	0x1
 10913 01b1 3F       		.uleb128 0x3f
 10914 01b2 19       		.uleb128 0x19
 10915 01b3 03       		.uleb128 0x3
 10916 01b4 0E       		.uleb128 0xe
 10917 01b5 3A       		.uleb128 0x3a
 10918 01b6 0B       		.uleb128 0xb
 10919 01b7 3B       		.uleb128 0x3b
 10920 01b8 0B       		.uleb128 0xb
 10921 01b9 27       		.uleb128 0x27
 10922 01ba 19       		.uleb128 0x19
 10923 01bb 49       		.uleb128 0x49
 10924 01bc 13       		.uleb128 0x13
 10925 01bd 11       		.uleb128 0x11
 10926 01be 01       		.uleb128 0x1
 10927 01bf 12       		.uleb128 0x12
 10928 01c0 06       		.uleb128 0x6
 10929 01c1 40       		.uleb128 0x40
 10930 01c2 18       		.uleb128 0x18
 10931 01c3 9742     		.uleb128 0x2117
 10932 01c5 19       		.uleb128 0x19
 10933 01c6 01       		.uleb128 0x1
 10934 01c7 13       		.uleb128 0x13
 10935 01c8 00       		.byte	0
 10936 01c9 00       		.byte	0
 10937 01ca 24       		.uleb128 0x24
 10938 01cb 34       		.uleb128 0x34
 10939 01cc 00       		.byte	0
 10940 01cd 03       		.uleb128 0x3
 10941 01ce 0E       		.uleb128 0xe
 10942 01cf 3A       		.uleb128 0x3a
 10943 01d0 0B       		.uleb128 0xb
 10944 01d1 3B       		.uleb128 0x3b
ARM GAS  /tmp/cctBdhRt.s 			page 193


 10945 01d2 0B       		.uleb128 0xb
 10946 01d3 49       		.uleb128 0x49
 10947 01d4 13       		.uleb128 0x13
 10948 01d5 02       		.uleb128 0x2
 10949 01d6 17       		.uleb128 0x17
 10950 01d7 00       		.byte	0
 10951 01d8 00       		.byte	0
 10952 01d9 25       		.uleb128 0x25
 10953 01da 898201   		.uleb128 0x4109
 10954 01dd 01       		.byte	0x1
 10955 01de 11       		.uleb128 0x11
 10956 01df 01       		.uleb128 0x1
 10957 01e0 9542     		.uleb128 0x2115
 10958 01e2 19       		.uleb128 0x19
 10959 01e3 31       		.uleb128 0x31
 10960 01e4 13       		.uleb128 0x13
 10961 01e5 00       		.byte	0
 10962 01e6 00       		.byte	0
 10963 01e7 26       		.uleb128 0x26
 10964 01e8 2E       		.uleb128 0x2e
 10965 01e9 01       		.byte	0x1
 10966 01ea 3F       		.uleb128 0x3f
 10967 01eb 19       		.uleb128 0x19
 10968 01ec 03       		.uleb128 0x3
 10969 01ed 0E       		.uleb128 0xe
 10970 01ee 3A       		.uleb128 0x3a
 10971 01ef 0B       		.uleb128 0xb
 10972 01f0 3B       		.uleb128 0x3b
 10973 01f1 05       		.uleb128 0x5
 10974 01f2 27       		.uleb128 0x27
 10975 01f3 19       		.uleb128 0x19
 10976 01f4 49       		.uleb128 0x49
 10977 01f5 13       		.uleb128 0x13
 10978 01f6 11       		.uleb128 0x11
 10979 01f7 01       		.uleb128 0x1
 10980 01f8 12       		.uleb128 0x12
 10981 01f9 06       		.uleb128 0x6
 10982 01fa 40       		.uleb128 0x40
 10983 01fb 18       		.uleb128 0x18
 10984 01fc 9742     		.uleb128 0x2117
 10985 01fe 19       		.uleb128 0x19
 10986 01ff 01       		.uleb128 0x1
 10987 0200 13       		.uleb128 0x13
 10988 0201 00       		.byte	0
 10989 0202 00       		.byte	0
 10990 0203 27       		.uleb128 0x27
 10991 0204 05       		.uleb128 0x5
 10992 0205 00       		.byte	0
 10993 0206 03       		.uleb128 0x3
 10994 0207 08       		.uleb128 0x8
 10995 0208 3A       		.uleb128 0x3a
 10996 0209 0B       		.uleb128 0xb
 10997 020a 3B       		.uleb128 0x3b
 10998 020b 05       		.uleb128 0x5
 10999 020c 49       		.uleb128 0x49
 11000 020d 13       		.uleb128 0x13
 11001 020e 02       		.uleb128 0x2
ARM GAS  /tmp/cctBdhRt.s 			page 194


 11002 020f 17       		.uleb128 0x17
 11003 0210 00       		.byte	0
 11004 0211 00       		.byte	0
 11005 0212 28       		.uleb128 0x28
 11006 0213 34       		.uleb128 0x34
 11007 0214 00       		.byte	0
 11008 0215 03       		.uleb128 0x3
 11009 0216 08       		.uleb128 0x8
 11010 0217 3A       		.uleb128 0x3a
 11011 0218 0B       		.uleb128 0xb
 11012 0219 3B       		.uleb128 0x3b
 11013 021a 05       		.uleb128 0x5
 11014 021b 49       		.uleb128 0x49
 11015 021c 13       		.uleb128 0x13
 11016 021d 02       		.uleb128 0x2
 11017 021e 17       		.uleb128 0x17
 11018 021f 00       		.byte	0
 11019 0220 00       		.byte	0
 11020 0221 29       		.uleb128 0x29
 11021 0222 05       		.uleb128 0x5
 11022 0223 00       		.byte	0
 11023 0224 03       		.uleb128 0x3
 11024 0225 0E       		.uleb128 0xe
 11025 0226 3A       		.uleb128 0x3a
 11026 0227 0B       		.uleb128 0xb
 11027 0228 3B       		.uleb128 0x3b
 11028 0229 05       		.uleb128 0x5
 11029 022a 49       		.uleb128 0x49
 11030 022b 13       		.uleb128 0x13
 11031 022c 02       		.uleb128 0x2
 11032 022d 17       		.uleb128 0x17
 11033 022e 00       		.byte	0
 11034 022f 00       		.byte	0
 11035 0230 2A       		.uleb128 0x2a
 11036 0231 898201   		.uleb128 0x4109
 11037 0234 00       		.byte	0
 11038 0235 11       		.uleb128 0x11
 11039 0236 01       		.uleb128 0x1
 11040 0237 31       		.uleb128 0x31
 11041 0238 13       		.uleb128 0x13
 11042 0239 00       		.byte	0
 11043 023a 00       		.byte	0
 11044 023b 2B       		.uleb128 0x2b
 11045 023c 34       		.uleb128 0x34
 11046 023d 00       		.byte	0
 11047 023e 03       		.uleb128 0x3
 11048 023f 0E       		.uleb128 0xe
 11049 0240 3A       		.uleb128 0x3a
 11050 0241 0B       		.uleb128 0xb
 11051 0242 3B       		.uleb128 0x3b
 11052 0243 05       		.uleb128 0x5
 11053 0244 49       		.uleb128 0x49
 11054 0245 13       		.uleb128 0x13
 11055 0246 02       		.uleb128 0x2
 11056 0247 17       		.uleb128 0x17
 11057 0248 00       		.byte	0
 11058 0249 00       		.byte	0
ARM GAS  /tmp/cctBdhRt.s 			page 195


 11059 024a 2C       		.uleb128 0x2c
 11060 024b 34       		.uleb128 0x34
 11061 024c 00       		.byte	0
 11062 024d 03       		.uleb128 0x3
 11063 024e 08       		.uleb128 0x8
 11064 024f 3A       		.uleb128 0x3a
 11065 0250 0B       		.uleb128 0xb
 11066 0251 3B       		.uleb128 0x3b
 11067 0252 05       		.uleb128 0x5
 11068 0253 49       		.uleb128 0x49
 11069 0254 13       		.uleb128 0x13
 11070 0255 02       		.uleb128 0x2
 11071 0256 18       		.uleb128 0x18
 11072 0257 00       		.byte	0
 11073 0258 00       		.byte	0
 11074 0259 2D       		.uleb128 0x2d
 11075 025a 2E       		.uleb128 0x2e
 11076 025b 01       		.byte	0x1
 11077 025c 3F       		.uleb128 0x3f
 11078 025d 19       		.uleb128 0x19
 11079 025e 03       		.uleb128 0x3
 11080 025f 0E       		.uleb128 0xe
 11081 0260 3A       		.uleb128 0x3a
 11082 0261 0B       		.uleb128 0xb
 11083 0262 3B       		.uleb128 0x3b
 11084 0263 05       		.uleb128 0x5
 11085 0264 27       		.uleb128 0x27
 11086 0265 19       		.uleb128 0x19
 11087 0266 11       		.uleb128 0x11
 11088 0267 01       		.uleb128 0x1
 11089 0268 12       		.uleb128 0x12
 11090 0269 06       		.uleb128 0x6
 11091 026a 40       		.uleb128 0x40
 11092 026b 18       		.uleb128 0x18
 11093 026c 9742     		.uleb128 0x2117
 11094 026e 19       		.uleb128 0x19
 11095 026f 01       		.uleb128 0x1
 11096 0270 13       		.uleb128 0x13
 11097 0271 00       		.byte	0
 11098 0272 00       		.byte	0
 11099 0273 2E       		.uleb128 0x2e
 11100 0274 898201   		.uleb128 0x4109
 11101 0277 00       		.byte	0
 11102 0278 11       		.uleb128 0x11
 11103 0279 01       		.uleb128 0x1
 11104 027a 9542     		.uleb128 0x2115
 11105 027c 19       		.uleb128 0x19
 11106 027d 31       		.uleb128 0x31
 11107 027e 13       		.uleb128 0x13
 11108 027f 00       		.byte	0
 11109 0280 00       		.byte	0
 11110 0281 2F       		.uleb128 0x2f
 11111 0282 34       		.uleb128 0x34
 11112 0283 00       		.byte	0
 11113 0284 03       		.uleb128 0x3
 11114 0285 0E       		.uleb128 0xe
 11115 0286 3A       		.uleb128 0x3a
ARM GAS  /tmp/cctBdhRt.s 			page 196


 11116 0287 0B       		.uleb128 0xb
 11117 0288 3B       		.uleb128 0x3b
 11118 0289 05       		.uleb128 0x5
 11119 028a 49       		.uleb128 0x49
 11120 028b 13       		.uleb128 0x13
 11121 028c 3F       		.uleb128 0x3f
 11122 028d 19       		.uleb128 0x19
 11123 028e 3C       		.uleb128 0x3c
 11124 028f 19       		.uleb128 0x19
 11125 0290 00       		.byte	0
 11126 0291 00       		.byte	0
 11127 0292 30       		.uleb128 0x30
 11128 0293 34       		.uleb128 0x34
 11129 0294 00       		.byte	0
 11130 0295 03       		.uleb128 0x3
 11131 0296 08       		.uleb128 0x8
 11132 0297 3A       		.uleb128 0x3a
 11133 0298 0B       		.uleb128 0xb
 11134 0299 3B       		.uleb128 0x3b
 11135 029a 05       		.uleb128 0x5
 11136 029b 49       		.uleb128 0x49
 11137 029c 13       		.uleb128 0x13
 11138 029d 3F       		.uleb128 0x3f
 11139 029e 19       		.uleb128 0x19
 11140 029f 3C       		.uleb128 0x3c
 11141 02a0 19       		.uleb128 0x19
 11142 02a1 00       		.byte	0
 11143 02a2 00       		.byte	0
 11144 02a3 31       		.uleb128 0x31
 11145 02a4 2E       		.uleb128 0x2e
 11146 02a5 01       		.byte	0x1
 11147 02a6 3F       		.uleb128 0x3f
 11148 02a7 19       		.uleb128 0x19
 11149 02a8 03       		.uleb128 0x3
 11150 02a9 0E       		.uleb128 0xe
 11151 02aa 3A       		.uleb128 0x3a
 11152 02ab 0B       		.uleb128 0xb
 11153 02ac 3B       		.uleb128 0x3b
 11154 02ad 05       		.uleb128 0x5
 11155 02ae 27       		.uleb128 0x27
 11156 02af 19       		.uleb128 0x19
 11157 02b0 3C       		.uleb128 0x3c
 11158 02b1 19       		.uleb128 0x19
 11159 02b2 01       		.uleb128 0x1
 11160 02b3 13       		.uleb128 0x13
 11161 02b4 00       		.byte	0
 11162 02b5 00       		.byte	0
 11163 02b6 32       		.uleb128 0x32
 11164 02b7 2E       		.uleb128 0x2e
 11165 02b8 01       		.byte	0x1
 11166 02b9 3F       		.uleb128 0x3f
 11167 02ba 19       		.uleb128 0x19
 11168 02bb 03       		.uleb128 0x3
 11169 02bc 0E       		.uleb128 0xe
 11170 02bd 3A       		.uleb128 0x3a
 11171 02be 0B       		.uleb128 0xb
 11172 02bf 3B       		.uleb128 0x3b
ARM GAS  /tmp/cctBdhRt.s 			page 197


 11173 02c0 0B       		.uleb128 0xb
 11174 02c1 27       		.uleb128 0x27
 11175 02c2 19       		.uleb128 0x19
 11176 02c3 49       		.uleb128 0x49
 11177 02c4 13       		.uleb128 0x13
 11178 02c5 3C       		.uleb128 0x3c
 11179 02c6 19       		.uleb128 0x19
 11180 02c7 01       		.uleb128 0x1
 11181 02c8 13       		.uleb128 0x13
 11182 02c9 00       		.byte	0
 11183 02ca 00       		.byte	0
 11184 02cb 33       		.uleb128 0x33
 11185 02cc 26       		.uleb128 0x26
 11186 02cd 00       		.byte	0
 11187 02ce 00       		.byte	0
 11188 02cf 00       		.byte	0
 11189 02d0 00       		.byte	0
 11190              		.section	.debug_loc,"",%progbits
 11191              	.Ldebug_loc0:
 11192              	.LLST0:
 11193 0000 00000000 		.4byte	.LVL0
 11194 0004 10000000 		.4byte	.LVL1
 11195 0008 0100     		.2byte	0x1
 11196 000a 50       		.byte	0x50
 11197 000b 10000000 		.4byte	.LVL1
 11198 000f 54000000 		.4byte	.LFE256
 11199 0013 0400     		.2byte	0x4
 11200 0015 F3       		.byte	0xf3
 11201 0016 01       		.uleb128 0x1
 11202 0017 50       		.byte	0x50
 11203 0018 9F       		.byte	0x9f
 11204 0019 00000000 		.4byte	0
 11205 001d 00000000 		.4byte	0
 11206              	.LLST1:
 11207 0021 00000000 		.4byte	.LVL0
 11208 0025 17000000 		.4byte	.LVL2-1
 11209 0029 0100     		.2byte	0x1
 11210 002b 51       		.byte	0x51
 11211 002c 17000000 		.4byte	.LVL2-1
 11212 0030 54000000 		.4byte	.LFE256
 11213 0034 0400     		.2byte	0x4
 11214 0036 F3       		.byte	0xf3
 11215 0037 01       		.uleb128 0x1
 11216 0038 51       		.byte	0x51
 11217 0039 9F       		.byte	0x9f
 11218 003a 00000000 		.4byte	0
 11219 003e 00000000 		.4byte	0
 11220              	.LLST2:
 11221 0042 00000000 		.4byte	.LVL0
 11222 0046 17000000 		.4byte	.LVL2-1
 11223 004a 0100     		.2byte	0x1
 11224 004c 52       		.byte	0x52
 11225 004d 17000000 		.4byte	.LVL2-1
 11226 0051 54000000 		.4byte	.LFE256
 11227 0055 0400     		.2byte	0x4
 11228 0057 F3       		.byte	0xf3
 11229 0058 01       		.uleb128 0x1
ARM GAS  /tmp/cctBdhRt.s 			page 198


 11230 0059 52       		.byte	0x52
 11231 005a 9F       		.byte	0x9f
 11232 005b 00000000 		.4byte	0
 11233 005f 00000000 		.4byte	0
 11234              	.LLST3:
 11235 0063 00000000 		.4byte	.LVL0
 11236 0067 17000000 		.4byte	.LVL2-1
 11237 006b 0100     		.2byte	0x1
 11238 006d 53       		.byte	0x53
 11239 006e 17000000 		.4byte	.LVL2-1
 11240 0072 54000000 		.4byte	.LFE256
 11241 0076 0400     		.2byte	0x4
 11242 0078 F3       		.byte	0xf3
 11243 0079 01       		.uleb128 0x1
 11244 007a 53       		.byte	0x53
 11245 007b 9F       		.byte	0x9f
 11246 007c 00000000 		.4byte	0
 11247 0080 00000000 		.4byte	0
 11248              	.LLST4:
 11249 0084 00000000 		.4byte	.LVL0
 11250 0088 50000000 		.4byte	.LVL10
 11251 008c 0200     		.2byte	0x2
 11252 008e 91       		.byte	0x91
 11253 008f 00       		.sleb128 0
 11254 0090 50000000 		.4byte	.LVL10
 11255 0094 54000000 		.4byte	.LFE256
 11256 0098 0200     		.2byte	0x2
 11257 009a 7D       		.byte	0x7d
 11258 009b 00       		.sleb128 0
 11259 009c 00000000 		.4byte	0
 11260 00a0 00000000 		.4byte	0
 11261              	.LLST5:
 11262 00a4 22000000 		.4byte	.LVL4
 11263 00a8 50000000 		.4byte	.LVL10
 11264 00ac 0100     		.2byte	0x1
 11265 00ae 57       		.byte	0x57
 11266 00af 00000000 		.4byte	0
 11267 00b3 00000000 		.4byte	0
 11268              	.LLST6:
 11269 00b7 00000000 		.4byte	.LVL11
 11270 00bb 08000000 		.4byte	.LVL12
 11271 00bf 0100     		.2byte	0x1
 11272 00c1 50       		.byte	0x50
 11273 00c2 08000000 		.4byte	.LVL12
 11274 00c6 24000000 		.4byte	.LFE258
 11275 00ca 0400     		.2byte	0x4
 11276 00cc F3       		.byte	0xf3
 11277 00cd 01       		.uleb128 0x1
 11278 00ce 50       		.byte	0x50
 11279 00cf 9F       		.byte	0x9f
 11280 00d0 00000000 		.4byte	0
 11281 00d4 00000000 		.4byte	0
 11282              	.LLST7:
 11283 00d8 14000000 		.4byte	.LVL15
 11284 00dc 1E000000 		.4byte	.LVL17
 11285 00e0 0100     		.2byte	0x1
 11286 00e2 55       		.byte	0x55
ARM GAS  /tmp/cctBdhRt.s 			page 199


 11287 00e3 00000000 		.4byte	0
 11288 00e7 00000000 		.4byte	0
 11289              	.LLST8:
 11290 00eb 00000000 		.4byte	.LVL18
 11291 00ef 08000000 		.4byte	.LVL19
 11292 00f3 0200     		.2byte	0x2
 11293 00f5 30       		.byte	0x30
 11294 00f6 9F       		.byte	0x9f
 11295 00f7 08000000 		.4byte	.LVL19
 11296 00fb 0A000000 		.4byte	.LVL20
 11297 00ff 0700     		.2byte	0x7
 11298 0101 0A       		.byte	0xa
 11299 0102 1227     		.2byte	0x2712
 11300 0104 74       		.byte	0x74
 11301 0105 00       		.sleb128 0
 11302 0106 1C       		.byte	0x1c
 11303 0107 9F       		.byte	0x9f
 11304 0108 0A000000 		.4byte	.LVL20
 11305 010c 12000000 		.4byte	.LVL22
 11306 0110 0700     		.2byte	0x7
 11307 0112 0A       		.byte	0xa
 11308 0113 1127     		.2byte	0x2711
 11309 0115 74       		.byte	0x74
 11310 0116 00       		.sleb128 0
 11311 0117 1C       		.byte	0x1c
 11312 0118 9F       		.byte	0x9f
 11313 0119 12000000 		.4byte	.LVL22
 11314 011d 1A000000 		.4byte	.LVL23
 11315 0121 0700     		.2byte	0x7
 11316 0123 0A       		.byte	0xa
 11317 0124 1227     		.2byte	0x2712
 11318 0126 74       		.byte	0x74
 11319 0127 00       		.sleb128 0
 11320 0128 1C       		.byte	0x1c
 11321 0129 9F       		.byte	0x9f
 11322 012a 1A000000 		.4byte	.LVL23
 11323 012e 1E000000 		.4byte	.LFE257
 11324 0132 0700     		.2byte	0x7
 11325 0134 0A       		.byte	0xa
 11326 0135 1127     		.2byte	0x2711
 11327 0137 74       		.byte	0x74
 11328 0138 00       		.sleb128 0
 11329 0139 1C       		.byte	0x1c
 11330 013a 9F       		.byte	0x9f
 11331 013b 00000000 		.4byte	0
 11332 013f 00000000 		.4byte	0
 11333              	.LLST9:
 11334 0143 00000000 		.4byte	.LVL41
 11335 0147 08000000 		.4byte	.LVL42
 11336 014b 0100     		.2byte	0x1
 11337 014d 50       		.byte	0x50
 11338 014e 08000000 		.4byte	.LVL42
 11339 0152 28000000 		.4byte	.LFE276
 11340 0156 0400     		.2byte	0x4
 11341 0158 F3       		.byte	0xf3
 11342 0159 01       		.uleb128 0x1
 11343 015a 50       		.byte	0x50
ARM GAS  /tmp/cctBdhRt.s 			page 200


 11344 015b 9F       		.byte	0x9f
 11345 015c 00000000 		.4byte	0
 11346 0160 00000000 		.4byte	0
 11347              	.LLST10:
 11348 0164 14000000 		.4byte	.LVL45
 11349 0168 24000000 		.4byte	.LVL48
 11350 016c 0100     		.2byte	0x1
 11351 016e 55       		.byte	0x55
 11352 016f 00000000 		.4byte	0
 11353 0173 00000000 		.4byte	0
 11354              	.LLST11:
 11355 0177 12000000 		.4byte	.LVL51
 11356 017b 22000000 		.4byte	.LVL54
 11357 017f 0100     		.2byte	0x1
 11358 0181 55       		.byte	0x55
 11359 0182 00000000 		.4byte	0
 11360 0186 00000000 		.4byte	0
 11361              	.LLST12:
 11362 018a 00000000 		.4byte	.LVL55
 11363 018e 06000000 		.4byte	.LVL56
 11364 0192 0100     		.2byte	0x1
 11365 0194 50       		.byte	0x50
 11366 0195 06000000 		.4byte	.LVL56
 11367 0199 3C000000 		.4byte	.LFE278
 11368 019d 0400     		.2byte	0x4
 11369 019f F3       		.byte	0xf3
 11370 01a0 01       		.uleb128 0x1
 11371 01a1 50       		.byte	0x50
 11372 01a2 9F       		.byte	0x9f
 11373 01a3 00000000 		.4byte	0
 11374 01a7 00000000 		.4byte	0
 11375              	.LLST13:
 11376 01ab 00000000 		.4byte	.LVL55
 11377 01af 0D000000 		.4byte	.LVL57-1
 11378 01b3 0100     		.2byte	0x1
 11379 01b5 51       		.byte	0x51
 11380 01b6 0D000000 		.4byte	.LVL57-1
 11381 01ba 3C000000 		.4byte	.LFE278
 11382 01be 0400     		.2byte	0x4
 11383 01c0 F3       		.byte	0xf3
 11384 01c1 01       		.uleb128 0x1
 11385 01c2 51       		.byte	0x51
 11386 01c3 9F       		.byte	0x9f
 11387 01c4 00000000 		.4byte	0
 11388 01c8 00000000 		.4byte	0
 11389              	.LLST14:
 11390 01cc 00000000 		.4byte	.LVL55
 11391 01d0 0D000000 		.4byte	.LVL57-1
 11392 01d4 0100     		.2byte	0x1
 11393 01d6 52       		.byte	0x52
 11394 01d7 0D000000 		.4byte	.LVL57-1
 11395 01db 36000000 		.4byte	.LVL63
 11396 01df 0100     		.2byte	0x1
 11397 01e1 57       		.byte	0x57
 11398 01e2 36000000 		.4byte	.LVL63
 11399 01e6 3C000000 		.4byte	.LFE278
 11400 01ea 0400     		.2byte	0x4
ARM GAS  /tmp/cctBdhRt.s 			page 201


 11401 01ec F3       		.byte	0xf3
 11402 01ed 01       		.uleb128 0x1
 11403 01ee 52       		.byte	0x52
 11404 01ef 9F       		.byte	0x9f
 11405 01f0 00000000 		.4byte	0
 11406 01f4 00000000 		.4byte	0
 11407              	.LLST15:
 11408 01f8 1A000000 		.4byte	.LVL59
 11409 01fc 36000000 		.4byte	.LVL63
 11410 0200 0100     		.2byte	0x1
 11411 0202 56       		.byte	0x56
 11412 0203 00000000 		.4byte	0
 11413 0207 00000000 		.4byte	0
 11414              	.LLST16:
 11415 020b 00000000 		.4byte	.LVL64
 11416 020f 08000000 		.4byte	.LVL65
 11417 0213 0100     		.2byte	0x1
 11418 0215 50       		.byte	0x50
 11419 0216 08000000 		.4byte	.LVL65
 11420 021a 34000000 		.4byte	.LFE279
 11421 021e 0400     		.2byte	0x4
 11422 0220 F3       		.byte	0xf3
 11423 0221 01       		.uleb128 0x1
 11424 0222 50       		.byte	0x50
 11425 0223 9F       		.byte	0x9f
 11426 0224 00000000 		.4byte	0
 11427 0228 00000000 		.4byte	0
 11428              	.LLST17:
 11429 022c 24000000 		.4byte	.LVL70
 11430 0230 2E000000 		.4byte	.LVL72
 11431 0234 0100     		.2byte	0x1
 11432 0236 55       		.byte	0x55
 11433 0237 00000000 		.4byte	0
 11434 023b 00000000 		.4byte	0
 11435              	.LLST18:
 11436 023f 00000000 		.4byte	.LVL73
 11437 0243 08000000 		.4byte	.LVL74
 11438 0247 0100     		.2byte	0x1
 11439 0249 50       		.byte	0x50
 11440 024a 08000000 		.4byte	.LVL74
 11441 024e 44000000 		.4byte	.LFE280
 11442 0252 0400     		.2byte	0x4
 11443 0254 F3       		.byte	0xf3
 11444 0255 01       		.uleb128 0x1
 11445 0256 50       		.byte	0x50
 11446 0257 9F       		.byte	0x9f
 11447 0258 00000000 		.4byte	0
 11448 025c 00000000 		.4byte	0
 11449              	.LLST19:
 11450 0260 2A000000 		.4byte	.LVL80
 11451 0264 3E000000 		.4byte	.LVL83
 11452 0268 0100     		.2byte	0x1
 11453 026a 54       		.byte	0x54
 11454 026b 00000000 		.4byte	0
 11455 026f 00000000 		.4byte	0
 11456              	.LLST20:
 11457 0273 00000000 		.4byte	.LVL84
ARM GAS  /tmp/cctBdhRt.s 			page 202


 11458 0277 08000000 		.4byte	.LVL85
 11459 027b 0100     		.2byte	0x1
 11460 027d 50       		.byte	0x50
 11461 027e 08000000 		.4byte	.LVL85
 11462 0282 50000000 		.4byte	.LFE281
 11463 0286 0400     		.2byte	0x4
 11464 0288 F3       		.byte	0xf3
 11465 0289 01       		.uleb128 0x1
 11466 028a 50       		.byte	0x50
 11467 028b 9F       		.byte	0x9f
 11468 028c 00000000 		.4byte	0
 11469 0290 00000000 		.4byte	0
 11470              	.LLST21:
 11471 0294 28000000 		.4byte	.LVL91
 11472 0298 4A000000 		.4byte	.LVL95
 11473 029c 0100     		.2byte	0x1
 11474 029e 54       		.byte	0x54
 11475 029f 00000000 		.4byte	0
 11476 02a3 00000000 		.4byte	0
 11477              	.LLST22:
 11478 02a7 00000000 		.4byte	.LVL96
 11479 02ab 06000000 		.4byte	.LVL97
 11480 02af 0100     		.2byte	0x1
 11481 02b1 50       		.byte	0x50
 11482 02b2 06000000 		.4byte	.LVL97
 11483 02b6 3C000000 		.4byte	.LFE282
 11484 02ba 0400     		.2byte	0x4
 11485 02bc F3       		.byte	0xf3
 11486 02bd 01       		.uleb128 0x1
 11487 02be 50       		.byte	0x50
 11488 02bf 9F       		.byte	0x9f
 11489 02c0 00000000 		.4byte	0
 11490 02c4 00000000 		.4byte	0
 11491              	.LLST23:
 11492 02c8 00000000 		.4byte	.LVL96
 11493 02cc 0D000000 		.4byte	.LVL98-1
 11494 02d0 0100     		.2byte	0x1
 11495 02d2 51       		.byte	0x51
 11496 02d3 0D000000 		.4byte	.LVL98-1
 11497 02d7 3C000000 		.4byte	.LFE282
 11498 02db 0400     		.2byte	0x4
 11499 02dd F3       		.byte	0xf3
 11500 02de 01       		.uleb128 0x1
 11501 02df 51       		.byte	0x51
 11502 02e0 9F       		.byte	0x9f
 11503 02e1 00000000 		.4byte	0
 11504 02e5 00000000 		.4byte	0
 11505              	.LLST24:
 11506 02e9 00000000 		.4byte	.LVL96
 11507 02ed 0D000000 		.4byte	.LVL98-1
 11508 02f1 0100     		.2byte	0x1
 11509 02f3 52       		.byte	0x52
 11510 02f4 0D000000 		.4byte	.LVL98-1
 11511 02f8 36000000 		.4byte	.LVL104
 11512 02fc 0100     		.2byte	0x1
 11513 02fe 57       		.byte	0x57
 11514 02ff 36000000 		.4byte	.LVL104
ARM GAS  /tmp/cctBdhRt.s 			page 203


 11515 0303 3C000000 		.4byte	.LFE282
 11516 0307 0400     		.2byte	0x4
 11517 0309 F3       		.byte	0xf3
 11518 030a 01       		.uleb128 0x1
 11519 030b 52       		.byte	0x52
 11520 030c 9F       		.byte	0x9f
 11521 030d 00000000 		.4byte	0
 11522 0311 00000000 		.4byte	0
 11523              	.LLST25:
 11524 0315 1A000000 		.4byte	.LVL100
 11525 0319 36000000 		.4byte	.LVL104
 11526 031d 0100     		.2byte	0x1
 11527 031f 56       		.byte	0x56
 11528 0320 00000000 		.4byte	0
 11529 0324 00000000 		.4byte	0
 11530              	.LLST26:
 11531 0328 00000000 		.4byte	.LVL105
 11532 032c 08000000 		.4byte	.LVL106
 11533 0330 0100     		.2byte	0x1
 11534 0332 50       		.byte	0x50
 11535 0333 08000000 		.4byte	.LVL106
 11536 0337 34000000 		.4byte	.LFE283
 11537 033b 0400     		.2byte	0x4
 11538 033d F3       		.byte	0xf3
 11539 033e 01       		.uleb128 0x1
 11540 033f 50       		.byte	0x50
 11541 0340 9F       		.byte	0x9f
 11542 0341 00000000 		.4byte	0
 11543 0345 00000000 		.4byte	0
 11544              	.LLST27:
 11545 0349 00000000 		.4byte	.LVL105
 11546 034d 0D000000 		.4byte	.LVL107-1
 11547 0351 0100     		.2byte	0x1
 11548 0353 51       		.byte	0x51
 11549 0354 0D000000 		.4byte	.LVL107-1
 11550 0358 34000000 		.4byte	.LFE283
 11551 035c 0400     		.2byte	0x4
 11552 035e F3       		.byte	0xf3
 11553 035f 01       		.uleb128 0x1
 11554 0360 51       		.byte	0x51
 11555 0361 9F       		.byte	0x9f
 11556 0362 00000000 		.4byte	0
 11557 0366 00000000 		.4byte	0
 11558              	.LLST28:
 11559 036a 1A000000 		.4byte	.LVL109
 11560 036e 30000000 		.4byte	.LVL113
 11561 0372 0100     		.2byte	0x1
 11562 0374 56       		.byte	0x56
 11563 0375 00000000 		.4byte	0
 11564 0379 00000000 		.4byte	0
 11565              	.LLST29:
 11566 037d 00000000 		.4byte	.LVL114
 11567 0381 08000000 		.4byte	.LVL115
 11568 0385 0100     		.2byte	0x1
 11569 0387 50       		.byte	0x50
 11570 0388 08000000 		.4byte	.LVL115
 11571 038c 3C000000 		.4byte	.LFE284
ARM GAS  /tmp/cctBdhRt.s 			page 204


 11572 0390 0400     		.2byte	0x4
 11573 0392 F3       		.byte	0xf3
 11574 0393 01       		.uleb128 0x1
 11575 0394 50       		.byte	0x50
 11576 0395 9F       		.byte	0x9f
 11577 0396 00000000 		.4byte	0
 11578 039a 00000000 		.4byte	0
 11579              	.LLST30:
 11580 039e 00000000 		.4byte	.LVL114
 11581 03a2 0D000000 		.4byte	.LVL116-1
 11582 03a6 0100     		.2byte	0x1
 11583 03a8 51       		.byte	0x51
 11584 03a9 0D000000 		.4byte	.LVL116-1
 11585 03ad 3C000000 		.4byte	.LFE284
 11586 03b1 0400     		.2byte	0x4
 11587 03b3 F3       		.byte	0xf3
 11588 03b4 01       		.uleb128 0x1
 11589 03b5 51       		.byte	0x51
 11590 03b6 9F       		.byte	0x9f
 11591 03b7 00000000 		.4byte	0
 11592 03bb 00000000 		.4byte	0
 11593              	.LLST31:
 11594 03bf 1A000000 		.4byte	.LVL118
 11595 03c3 36000000 		.4byte	.LVL123
 11596 03c7 0100     		.2byte	0x1
 11597 03c9 57       		.byte	0x57
 11598 03ca 00000000 		.4byte	0
 11599 03ce 00000000 		.4byte	0
 11600              	.LLST32:
 11601 03d2 00000000 		.4byte	.LVL124
 11602 03d6 08000000 		.4byte	.LVL125
 11603 03da 0100     		.2byte	0x1
 11604 03dc 50       		.byte	0x50
 11605 03dd 08000000 		.4byte	.LVL125
 11606 03e1 44000000 		.4byte	.LFE285
 11607 03e5 0400     		.2byte	0x4
 11608 03e7 F3       		.byte	0xf3
 11609 03e8 01       		.uleb128 0x1
 11610 03e9 50       		.byte	0x50
 11611 03ea 9F       		.byte	0x9f
 11612 03eb 00000000 		.4byte	0
 11613 03ef 00000000 		.4byte	0
 11614              	.LLST33:
 11615 03f3 00000000 		.4byte	.LVL124
 11616 03f7 0D000000 		.4byte	.LVL126-1
 11617 03fb 0100     		.2byte	0x1
 11618 03fd 51       		.byte	0x51
 11619 03fe 0D000000 		.4byte	.LVL126-1
 11620 0402 40000000 		.4byte	.LVL134
 11621 0406 0100     		.2byte	0x1
 11622 0408 54       		.byte	0x54
 11623 0409 40000000 		.4byte	.LVL134
 11624 040d 44000000 		.4byte	.LFE285
 11625 0411 0400     		.2byte	0x4
 11626 0413 F3       		.byte	0xf3
 11627 0414 01       		.uleb128 0x1
 11628 0415 51       		.byte	0x51
ARM GAS  /tmp/cctBdhRt.s 			page 205


 11629 0416 9F       		.byte	0x9f
 11630 0417 00000000 		.4byte	0
 11631 041b 00000000 		.4byte	0
 11632              	.LLST34:
 11633 041f 1A000000 		.4byte	.LVL128
 11634 0423 40000000 		.4byte	.LVL134
 11635 0427 0100     		.2byte	0x1
 11636 0429 57       		.byte	0x57
 11637 042a 00000000 		.4byte	0
 11638 042e 00000000 		.4byte	0
 11639              	.LLST35:
 11640 0432 00000000 		.4byte	.LVL135
 11641 0436 06000000 		.4byte	.LVL136
 11642 043a 0100     		.2byte	0x1
 11643 043c 50       		.byte	0x50
 11644 043d 06000000 		.4byte	.LVL136
 11645 0441 30000000 		.4byte	.LFE286
 11646 0445 0400     		.2byte	0x4
 11647 0447 F3       		.byte	0xf3
 11648 0448 01       		.uleb128 0x1
 11649 0449 50       		.byte	0x50
 11650 044a 9F       		.byte	0x9f
 11651 044b 00000000 		.4byte	0
 11652 044f 00000000 		.4byte	0
 11653              	.LLST36:
 11654 0453 00000000 		.4byte	.LVL135
 11655 0457 0B000000 		.4byte	.LVL137-1
 11656 045b 0100     		.2byte	0x1
 11657 045d 51       		.byte	0x51
 11658 045e 0B000000 		.4byte	.LVL137-1
 11659 0462 2A000000 		.4byte	.LVL142
 11660 0466 0100     		.2byte	0x1
 11661 0468 56       		.byte	0x56
 11662 0469 2A000000 		.4byte	.LVL142
 11663 046d 30000000 		.4byte	.LFE286
 11664 0471 0400     		.2byte	0x4
 11665 0473 F3       		.byte	0xf3
 11666 0474 01       		.uleb128 0x1
 11667 0475 51       		.byte	0x51
 11668 0476 9F       		.byte	0x9f
 11669 0477 00000000 		.4byte	0
 11670 047b 00000000 		.4byte	0
 11671              	.LLST37:
 11672 047f 14000000 		.4byte	.LVL139
 11673 0483 2A000000 		.4byte	.LVL142
 11674 0487 0100     		.2byte	0x1
 11675 0489 55       		.byte	0x55
 11676 048a 00000000 		.4byte	0
 11677 048e 00000000 		.4byte	0
 11678              	.LLST38:
 11679 0492 18000000 		.4byte	.LVL146
 11680 0496 22000000 		.4byte	.LVL148
 11681 049a 0100     		.2byte	0x1
 11682 049c 55       		.byte	0x55
 11683 049d 00000000 		.4byte	0
 11684 04a1 00000000 		.4byte	0
 11685              	.LLST39:
ARM GAS  /tmp/cctBdhRt.s 			page 206


 11686 04a5 1E000000 		.4byte	.LVL153
 11687 04a9 32000000 		.4byte	.LVL156
 11688 04ad 0100     		.2byte	0x1
 11689 04af 54       		.byte	0x54
 11690 04b0 00000000 		.4byte	0
 11691 04b4 00000000 		.4byte	0
 11692              	.LLST40:
 11693 04b8 00000000 		.4byte	.LVL157
 11694 04bc 06000000 		.4byte	.LVL158
 11695 04c0 0100     		.2byte	0x1
 11696 04c2 50       		.byte	0x50
 11697 04c3 06000000 		.4byte	.LVL158
 11698 04c7 30000000 		.4byte	.LFE289
 11699 04cb 0400     		.2byte	0x4
 11700 04cd F3       		.byte	0xf3
 11701 04ce 01       		.uleb128 0x1
 11702 04cf 50       		.byte	0x50
 11703 04d0 9F       		.byte	0x9f
 11704 04d1 00000000 		.4byte	0
 11705 04d5 00000000 		.4byte	0
 11706              	.LLST41:
 11707 04d9 00000000 		.4byte	.LVL157
 11708 04dd 0B000000 		.4byte	.LVL159-1
 11709 04e1 0100     		.2byte	0x1
 11710 04e3 51       		.byte	0x51
 11711 04e4 0B000000 		.4byte	.LVL159-1
 11712 04e8 2A000000 		.4byte	.LVL165
 11713 04ec 0100     		.2byte	0x1
 11714 04ee 54       		.byte	0x54
 11715 04ef 2A000000 		.4byte	.LVL165
 11716 04f3 30000000 		.4byte	.LFE289
 11717 04f7 0400     		.2byte	0x4
 11718 04f9 F3       		.byte	0xf3
 11719 04fa 01       		.uleb128 0x1
 11720 04fb 51       		.byte	0x51
 11721 04fc 9F       		.byte	0x9f
 11722 04fd 00000000 		.4byte	0
 11723 0501 00000000 		.4byte	0
 11724              	.LLST42:
 11725 0505 14000000 		.4byte	.LVL161
 11726 0509 2A000000 		.4byte	.LVL165
 11727 050d 0100     		.2byte	0x1
 11728 050f 55       		.byte	0x55
 11729 0510 00000000 		.4byte	0
 11730 0514 00000000 		.4byte	0
 11731              	.LLST43:
 11732 0518 00000000 		.4byte	.LVL166
 11733 051c 04000000 		.4byte	.LVL167
 11734 0520 0100     		.2byte	0x1
 11735 0522 50       		.byte	0x50
 11736 0523 04000000 		.4byte	.LVL167
 11737 0527 28000000 		.4byte	.LFE290
 11738 052b 0400     		.2byte	0x4
 11739 052d F3       		.byte	0xf3
 11740 052e 01       		.uleb128 0x1
 11741 052f 50       		.byte	0x50
 11742 0530 9F       		.byte	0x9f
ARM GAS  /tmp/cctBdhRt.s 			page 207


 11743 0531 00000000 		.4byte	0
 11744 0535 00000000 		.4byte	0
 11745              	.LLST44:
 11746 0539 00000000 		.4byte	.LVL166
 11747 053d 0B000000 		.4byte	.LVL168-1
 11748 0541 0100     		.2byte	0x1
 11749 0543 51       		.byte	0x51
 11750 0544 0B000000 		.4byte	.LVL168-1
 11751 0548 28000000 		.4byte	.LFE290
 11752 054c 0400     		.2byte	0x4
 11753 054e F3       		.byte	0xf3
 11754 054f 01       		.uleb128 0x1
 11755 0550 51       		.byte	0x51
 11756 0551 9F       		.byte	0x9f
 11757 0552 00000000 		.4byte	0
 11758 0556 00000000 		.4byte	0
 11759              	.LLST45:
 11760 055a 00000000 		.4byte	.LVL166
 11761 055e 0B000000 		.4byte	.LVL168-1
 11762 0562 0100     		.2byte	0x1
 11763 0564 52       		.byte	0x52
 11764 0565 0B000000 		.4byte	.LVL168-1
 11765 0569 24000000 		.4byte	.LVL172
 11766 056d 0100     		.2byte	0x1
 11767 056f 56       		.byte	0x56
 11768 0570 24000000 		.4byte	.LVL172
 11769 0574 28000000 		.4byte	.LFE290
 11770 0578 0400     		.2byte	0x4
 11771 057a F3       		.byte	0xf3
 11772 057b 01       		.uleb128 0x1
 11773 057c 52       		.byte	0x52
 11774 057d 9F       		.byte	0x9f
 11775 057e 00000000 		.4byte	0
 11776 0582 00000000 		.4byte	0
 11777              	.LLST46:
 11778 0586 0E000000 		.4byte	.LVL169
 11779 058a 24000000 		.4byte	.LVL172
 11780 058e 0100     		.2byte	0x1
 11781 0590 55       		.byte	0x55
 11782 0591 00000000 		.4byte	0
 11783 0595 00000000 		.4byte	0
 11784              	.LLST47:
 11785 0599 00000000 		.4byte	.LVL173
 11786 059d 06000000 		.4byte	.LVL174
 11787 05a1 0100     		.2byte	0x1
 11788 05a3 50       		.byte	0x50
 11789 05a4 06000000 		.4byte	.LVL174
 11790 05a8 44000000 		.4byte	.LFE291
 11791 05ac 0400     		.2byte	0x4
 11792 05ae F3       		.byte	0xf3
 11793 05af 01       		.uleb128 0x1
 11794 05b0 50       		.byte	0x50
 11795 05b1 9F       		.byte	0x9f
 11796 05b2 00000000 		.4byte	0
 11797 05b6 00000000 		.4byte	0
 11798              	.LLST48:
 11799 05ba 00000000 		.4byte	.LVL173
ARM GAS  /tmp/cctBdhRt.s 			page 208


 11800 05be 0F000000 		.4byte	.LVL175-1
 11801 05c2 0100     		.2byte	0x1
 11802 05c4 51       		.byte	0x51
 11803 05c5 0F000000 		.4byte	.LVL175-1
 11804 05c9 44000000 		.4byte	.LFE291
 11805 05cd 0400     		.2byte	0x4
 11806 05cf F3       		.byte	0xf3
 11807 05d0 01       		.uleb128 0x1
 11808 05d1 51       		.byte	0x51
 11809 05d2 9F       		.byte	0x9f
 11810 05d3 00000000 		.4byte	0
 11811 05d7 00000000 		.4byte	0
 11812              	.LLST49:
 11813 05db 00000000 		.4byte	.LVL173
 11814 05df 0F000000 		.4byte	.LVL175-1
 11815 05e3 0100     		.2byte	0x1
 11816 05e5 52       		.byte	0x52
 11817 05e6 0F000000 		.4byte	.LVL175-1
 11818 05ea 44000000 		.4byte	.LFE291
 11819 05ee 0400     		.2byte	0x4
 11820 05f0 F3       		.byte	0xf3
 11821 05f1 01       		.uleb128 0x1
 11822 05f2 52       		.byte	0x52
 11823 05f3 9F       		.byte	0x9f
 11824 05f4 00000000 		.4byte	0
 11825 05f8 00000000 		.4byte	0
 11826              	.LLST50:
 11827 05fc 00000000 		.4byte	.LVL173
 11828 0600 0F000000 		.4byte	.LVL175-1
 11829 0604 0100     		.2byte	0x1
 11830 0606 53       		.byte	0x53
 11831 0607 0F000000 		.4byte	.LVL175-1
 11832 060b 44000000 		.4byte	.LFE291
 11833 060f 0100     		.2byte	0x1
 11834 0611 55       		.byte	0x55
 11835 0612 00000000 		.4byte	0
 11836 0616 00000000 		.4byte	0
 11837              	.LLST51:
 11838 061a 00000000 		.4byte	.LVL184
 11839 061e 06000000 		.4byte	.LVL185
 11840 0622 0100     		.2byte	0x1
 11841 0624 50       		.byte	0x50
 11842 0625 06000000 		.4byte	.LVL185
 11843 0629 30000000 		.4byte	.LFE292
 11844 062d 0400     		.2byte	0x4
 11845 062f F3       		.byte	0xf3
 11846 0630 01       		.uleb128 0x1
 11847 0631 50       		.byte	0x50
 11848 0632 9F       		.byte	0x9f
 11849 0633 00000000 		.4byte	0
 11850 0637 00000000 		.4byte	0
 11851              	.LLST52:
 11852 063b 00000000 		.4byte	.LVL184
 11853 063f 0B000000 		.4byte	.LVL186-1
 11854 0643 0100     		.2byte	0x1
 11855 0645 51       		.byte	0x51
 11856 0646 0B000000 		.4byte	.LVL186-1
ARM GAS  /tmp/cctBdhRt.s 			page 209


 11857 064a 2A000000 		.4byte	.LVL191
 11858 064e 0100     		.2byte	0x1
 11859 0650 56       		.byte	0x56
 11860 0651 2A000000 		.4byte	.LVL191
 11861 0655 30000000 		.4byte	.LFE292
 11862 0659 0400     		.2byte	0x4
 11863 065b F3       		.byte	0xf3
 11864 065c 01       		.uleb128 0x1
 11865 065d 51       		.byte	0x51
 11866 065e 9F       		.byte	0x9f
 11867 065f 00000000 		.4byte	0
 11868 0663 00000000 		.4byte	0
 11869              	.LLST53:
 11870 0667 14000000 		.4byte	.LVL188
 11871 066b 2A000000 		.4byte	.LVL191
 11872 066f 0100     		.2byte	0x1
 11873 0671 55       		.byte	0x55
 11874 0672 00000000 		.4byte	0
 11875 0676 00000000 		.4byte	0
 11876              	.LLST54:
 11877 067a 00000000 		.4byte	.LVL192
 11878 067e 08000000 		.4byte	.LVL193
 11879 0682 0100     		.2byte	0x1
 11880 0684 50       		.byte	0x50
 11881 0685 08000000 		.4byte	.LVL193
 11882 0689 28000000 		.4byte	.LFE293
 11883 068d 0400     		.2byte	0x4
 11884 068f F3       		.byte	0xf3
 11885 0690 01       		.uleb128 0x1
 11886 0691 50       		.byte	0x50
 11887 0692 9F       		.byte	0x9f
 11888 0693 00000000 		.4byte	0
 11889 0697 00000000 		.4byte	0
 11890              	.LLST55:
 11891 069b 00000000 		.4byte	.LVL198
 11892 069f 08000000 		.4byte	.LVL199
 11893 06a3 0100     		.2byte	0x1
 11894 06a5 50       		.byte	0x50
 11895 06a6 08000000 		.4byte	.LVL199
 11896 06aa 2C000000 		.4byte	.LFE294
 11897 06ae 0400     		.2byte	0x4
 11898 06b0 F3       		.byte	0xf3
 11899 06b1 01       		.uleb128 0x1
 11900 06b2 50       		.byte	0x50
 11901 06b3 9F       		.byte	0x9f
 11902 06b4 00000000 		.4byte	0
 11903 06b8 00000000 		.4byte	0
 11904              	.LLST56:
 11905 06bc 00000000 		.4byte	.LVL205
 11906 06c0 06000000 		.4byte	.LVL206
 11907 06c4 0100     		.2byte	0x1
 11908 06c6 50       		.byte	0x50
 11909 06c7 06000000 		.4byte	.LVL206
 11910 06cb 44000000 		.4byte	.LFE295
 11911 06cf 0400     		.2byte	0x4
 11912 06d1 F3       		.byte	0xf3
 11913 06d2 01       		.uleb128 0x1
ARM GAS  /tmp/cctBdhRt.s 			page 210


 11914 06d3 50       		.byte	0x50
 11915 06d4 9F       		.byte	0x9f
 11916 06d5 00000000 		.4byte	0
 11917 06d9 00000000 		.4byte	0
 11918              	.LLST57:
 11919 06dd 00000000 		.4byte	.LVL205
 11920 06e1 0F000000 		.4byte	.LVL207-1
 11921 06e5 0100     		.2byte	0x1
 11922 06e7 51       		.byte	0x51
 11923 06e8 0F000000 		.4byte	.LVL207-1
 11924 06ec 44000000 		.4byte	.LFE295
 11925 06f0 0400     		.2byte	0x4
 11926 06f2 F3       		.byte	0xf3
 11927 06f3 01       		.uleb128 0x1
 11928 06f4 51       		.byte	0x51
 11929 06f5 9F       		.byte	0x9f
 11930 06f6 00000000 		.4byte	0
 11931 06fa 00000000 		.4byte	0
 11932              	.LLST58:
 11933 06fe 00000000 		.4byte	.LVL205
 11934 0702 0F000000 		.4byte	.LVL207-1
 11935 0706 0100     		.2byte	0x1
 11936 0708 52       		.byte	0x52
 11937 0709 0F000000 		.4byte	.LVL207-1
 11938 070d 44000000 		.4byte	.LFE295
 11939 0711 0400     		.2byte	0x4
 11940 0713 F3       		.byte	0xf3
 11941 0714 01       		.uleb128 0x1
 11942 0715 52       		.byte	0x52
 11943 0716 9F       		.byte	0x9f
 11944 0717 00000000 		.4byte	0
 11945 071b 00000000 		.4byte	0
 11946              	.LLST59:
 11947 071f 00000000 		.4byte	.LVL205
 11948 0723 0F000000 		.4byte	.LVL207-1
 11949 0727 0100     		.2byte	0x1
 11950 0729 53       		.byte	0x53
 11951 072a 0F000000 		.4byte	.LVL207-1
 11952 072e 44000000 		.4byte	.LFE295
 11953 0732 0100     		.2byte	0x1
 11954 0734 55       		.byte	0x55
 11955 0735 00000000 		.4byte	0
 11956 0739 00000000 		.4byte	0
 11957              	.LLST60:
 11958 073d 00000000 		.4byte	.LVL216
 11959 0741 06000000 		.4byte	.LVL217
 11960 0745 0100     		.2byte	0x1
 11961 0747 50       		.byte	0x50
 11962 0748 06000000 		.4byte	.LVL217
 11963 074c 34000000 		.4byte	.LFE296
 11964 0750 0400     		.2byte	0x4
 11965 0752 F3       		.byte	0xf3
 11966 0753 01       		.uleb128 0x1
 11967 0754 50       		.byte	0x50
 11968 0755 9F       		.byte	0x9f
 11969 0756 00000000 		.4byte	0
 11970 075a 00000000 		.4byte	0
ARM GAS  /tmp/cctBdhRt.s 			page 211


 11971              	.LLST61:
 11972 075e 00000000 		.4byte	.LVL216
 11973 0762 0B000000 		.4byte	.LVL218-1
 11974 0766 0100     		.2byte	0x1
 11975 0768 51       		.byte	0x51
 11976 0769 0B000000 		.4byte	.LVL218-1
 11977 076d 30000000 		.4byte	.LVL224
 11978 0771 0100     		.2byte	0x1
 11979 0773 56       		.byte	0x56
 11980 0774 30000000 		.4byte	.LVL224
 11981 0778 34000000 		.4byte	.LFE296
 11982 077c 0400     		.2byte	0x4
 11983 077e F3       		.byte	0xf3
 11984 077f 01       		.uleb128 0x1
 11985 0780 51       		.byte	0x51
 11986 0781 9F       		.byte	0x9f
 11987 0782 00000000 		.4byte	0
 11988 0786 00000000 		.4byte	0
 11989              	.LLST62:
 11990 078a 14000000 		.4byte	.LVL220
 11991 078e 30000000 		.4byte	.LVL224
 11992 0792 0100     		.2byte	0x1
 11993 0794 55       		.byte	0x55
 11994 0795 00000000 		.4byte	0
 11995 0799 00000000 		.4byte	0
 11996              	.LLST63:
 11997 079d 1E000000 		.4byte	.LVL229
 11998 07a1 28000000 		.4byte	.LVL231
 11999 07a5 0100     		.2byte	0x1
 12000 07a7 55       		.byte	0x55
 12001 07a8 00000000 		.4byte	0
 12002 07ac 00000000 		.4byte	0
 12003              	.LLST64:
 12004 07b0 24000000 		.4byte	.LVL237
 12005 07b4 38000000 		.4byte	.LVL240
 12006 07b8 0100     		.2byte	0x1
 12007 07ba 54       		.byte	0x54
 12008 07bb 00000000 		.4byte	0
 12009 07bf 00000000 		.4byte	0
 12010              	.LLST65:
 12011 07c3 00000000 		.4byte	.LVL241
 12012 07c7 08000000 		.4byte	.LVL242
 12013 07cb 0100     		.2byte	0x1
 12014 07cd 50       		.byte	0x50
 12015 07ce 08000000 		.4byte	.LVL242
 12016 07d2 30000000 		.4byte	.LFE299
 12017 07d6 0400     		.2byte	0x4
 12018 07d8 F3       		.byte	0xf3
 12019 07d9 01       		.uleb128 0x1
 12020 07da 50       		.byte	0x50
 12021 07db 9F       		.byte	0x9f
 12022 07dc 00000000 		.4byte	0
 12023 07e0 00000000 		.4byte	0
 12024              	.LLST66:
 12025 07e4 14000000 		.4byte	.LVL245
 12026 07e8 2A000000 		.4byte	.LVL249
 12027 07ec 0100     		.2byte	0x1
ARM GAS  /tmp/cctBdhRt.s 			page 212


 12028 07ee 56       		.byte	0x56
 12029 07ef 00000000 		.4byte	0
 12030 07f3 00000000 		.4byte	0
 12031              	.LLST67:
 12032 07f7 00000000 		.4byte	.LVL250
 12033 07fb 08000000 		.4byte	.LVL251
 12034 07ff 0100     		.2byte	0x1
 12035 0801 50       		.byte	0x50
 12036 0802 08000000 		.4byte	.LVL251
 12037 0806 30000000 		.4byte	.LFE300
 12038 080a 0400     		.2byte	0x4
 12039 080c F3       		.byte	0xf3
 12040 080d 01       		.uleb128 0x1
 12041 080e 50       		.byte	0x50
 12042 080f 9F       		.byte	0x9f
 12043 0810 00000000 		.4byte	0
 12044 0814 00000000 		.4byte	0
 12045              	.LLST68:
 12046 0818 14000000 		.4byte	.LVL254
 12047 081c 2A000000 		.4byte	.LVL258
 12048 0820 0100     		.2byte	0x1
 12049 0822 56       		.byte	0x56
 12050 0823 00000000 		.4byte	0
 12051 0827 00000000 		.4byte	0
 12052              	.LLST69:
 12053 082b 00000000 		.4byte	.LVL259
 12054 082f 12000000 		.4byte	.LVL263
 12055 0833 0100     		.2byte	0x1
 12056 0835 50       		.byte	0x50
 12057 0836 12000000 		.4byte	.LVL263
 12058 083a 1A000000 		.4byte	.LFE301
 12059 083e 0400     		.2byte	0x4
 12060 0840 F3       		.byte	0xf3
 12061 0841 01       		.uleb128 0x1
 12062 0842 50       		.byte	0x50
 12063 0843 9F       		.byte	0x9f
 12064 0844 00000000 		.4byte	0
 12065 0848 00000000 		.4byte	0
 12066              	.LLST70:
 12067 084c 00000000 		.4byte	.LVL259
 12068 0850 0A000000 		.4byte	.LVL260
 12069 0854 0100     		.2byte	0x1
 12070 0856 51       		.byte	0x51
 12071 0857 0A000000 		.4byte	.LVL260
 12072 085b 1A000000 		.4byte	.LFE301
 12073 085f 0400     		.2byte	0x4
 12074 0861 F3       		.byte	0xf3
 12075 0862 01       		.uleb128 0x1
 12076 0863 51       		.byte	0x51
 12077 0864 9F       		.byte	0x9f
 12078 0865 00000000 		.4byte	0
 12079 0869 00000000 		.4byte	0
 12080              	.LLST71:
 12081 086d 00000000 		.4byte	.LVL259
 12082 0871 0E000000 		.4byte	.LVL261
 12083 0875 0100     		.2byte	0x1
 12084 0877 52       		.byte	0x52
ARM GAS  /tmp/cctBdhRt.s 			page 213


 12085 0878 0E000000 		.4byte	.LVL261
 12086 087c 1A000000 		.4byte	.LFE301
 12087 0880 0400     		.2byte	0x4
 12088 0882 F3       		.byte	0xf3
 12089 0883 01       		.uleb128 0x1
 12090 0884 52       		.byte	0x52
 12091 0885 9F       		.byte	0x9f
 12092 0886 00000000 		.4byte	0
 12093 088a 00000000 		.4byte	0
 12094              	.LLST72:
 12095 088e 00000000 		.4byte	.LVL259
 12096 0892 10000000 		.4byte	.LVL262
 12097 0896 0100     		.2byte	0x1
 12098 0898 53       		.byte	0x53
 12099 0899 10000000 		.4byte	.LVL262
 12100 089d 1A000000 		.4byte	.LFE301
 12101 08a1 0400     		.2byte	0x4
 12102 08a3 F3       		.byte	0xf3
 12103 08a4 01       		.uleb128 0x1
 12104 08a5 53       		.byte	0x53
 12105 08a6 9F       		.byte	0x9f
 12106 08a7 00000000 		.4byte	0
 12107 08ab 00000000 		.4byte	0
 12108              	.LLST73:
 12109 08af 00000000 		.4byte	.LVL265
 12110 08b3 12000000 		.4byte	.LVL269
 12111 08b7 0100     		.2byte	0x1
 12112 08b9 50       		.byte	0x50
 12113 08ba 12000000 		.4byte	.LVL269
 12114 08be 1A000000 		.4byte	.LFE302
 12115 08c2 0400     		.2byte	0x4
 12116 08c4 F3       		.byte	0xf3
 12117 08c5 01       		.uleb128 0x1
 12118 08c6 50       		.byte	0x50
 12119 08c7 9F       		.byte	0x9f
 12120 08c8 00000000 		.4byte	0
 12121 08cc 00000000 		.4byte	0
 12122              	.LLST74:
 12123 08d0 00000000 		.4byte	.LVL265
 12124 08d4 0A000000 		.4byte	.LVL266
 12125 08d8 0100     		.2byte	0x1
 12126 08da 51       		.byte	0x51
 12127 08db 0A000000 		.4byte	.LVL266
 12128 08df 1A000000 		.4byte	.LFE302
 12129 08e3 0400     		.2byte	0x4
 12130 08e5 F3       		.byte	0xf3
 12131 08e6 01       		.uleb128 0x1
 12132 08e7 51       		.byte	0x51
 12133 08e8 9F       		.byte	0x9f
 12134 08e9 00000000 		.4byte	0
 12135 08ed 00000000 		.4byte	0
 12136              	.LLST75:
 12137 08f1 00000000 		.4byte	.LVL265
 12138 08f5 0E000000 		.4byte	.LVL267
 12139 08f9 0100     		.2byte	0x1
 12140 08fb 52       		.byte	0x52
 12141 08fc 0E000000 		.4byte	.LVL267
ARM GAS  /tmp/cctBdhRt.s 			page 214


 12142 0900 1A000000 		.4byte	.LFE302
 12143 0904 0400     		.2byte	0x4
 12144 0906 F3       		.byte	0xf3
 12145 0907 01       		.uleb128 0x1
 12146 0908 52       		.byte	0x52
 12147 0909 9F       		.byte	0x9f
 12148 090a 00000000 		.4byte	0
 12149 090e 00000000 		.4byte	0
 12150              	.LLST76:
 12151 0912 00000000 		.4byte	.LVL265
 12152 0916 10000000 		.4byte	.LVL268
 12153 091a 0100     		.2byte	0x1
 12154 091c 53       		.byte	0x53
 12155 091d 10000000 		.4byte	.LVL268
 12156 0921 1A000000 		.4byte	.LFE302
 12157 0925 0400     		.2byte	0x4
 12158 0927 F3       		.byte	0xf3
 12159 0928 01       		.uleb128 0x1
 12160 0929 53       		.byte	0x53
 12161 092a 9F       		.byte	0x9f
 12162 092b 00000000 		.4byte	0
 12163 092f 00000000 		.4byte	0
 12164              	.LLST77:
 12165 0933 00000000 		.4byte	.LVL271
 12166 0937 12000000 		.4byte	.LVL275
 12167 093b 0100     		.2byte	0x1
 12168 093d 50       		.byte	0x50
 12169 093e 12000000 		.4byte	.LVL275
 12170 0942 1A000000 		.4byte	.LFE303
 12171 0946 0400     		.2byte	0x4
 12172 0948 F3       		.byte	0xf3
 12173 0949 01       		.uleb128 0x1
 12174 094a 50       		.byte	0x50
 12175 094b 9F       		.byte	0x9f
 12176 094c 00000000 		.4byte	0
 12177 0950 00000000 		.4byte	0
 12178              	.LLST78:
 12179 0954 00000000 		.4byte	.LVL271
 12180 0958 0A000000 		.4byte	.LVL272
 12181 095c 0100     		.2byte	0x1
 12182 095e 51       		.byte	0x51
 12183 095f 0A000000 		.4byte	.LVL272
 12184 0963 1A000000 		.4byte	.LFE303
 12185 0967 0400     		.2byte	0x4
 12186 0969 F3       		.byte	0xf3
 12187 096a 01       		.uleb128 0x1
 12188 096b 51       		.byte	0x51
 12189 096c 9F       		.byte	0x9f
 12190 096d 00000000 		.4byte	0
 12191 0971 00000000 		.4byte	0
 12192              	.LLST79:
 12193 0975 00000000 		.4byte	.LVL271
 12194 0979 0E000000 		.4byte	.LVL273
 12195 097d 0100     		.2byte	0x1
 12196 097f 52       		.byte	0x52
 12197 0980 0E000000 		.4byte	.LVL273
 12198 0984 1A000000 		.4byte	.LFE303
ARM GAS  /tmp/cctBdhRt.s 			page 215


 12199 0988 0400     		.2byte	0x4
 12200 098a F3       		.byte	0xf3
 12201 098b 01       		.uleb128 0x1
 12202 098c 52       		.byte	0x52
 12203 098d 9F       		.byte	0x9f
 12204 098e 00000000 		.4byte	0
 12205 0992 00000000 		.4byte	0
 12206              	.LLST80:
 12207 0996 00000000 		.4byte	.LVL271
 12208 099a 10000000 		.4byte	.LVL274
 12209 099e 0100     		.2byte	0x1
 12210 09a0 53       		.byte	0x53
 12211 09a1 10000000 		.4byte	.LVL274
 12212 09a5 1A000000 		.4byte	.LFE303
 12213 09a9 0400     		.2byte	0x4
 12214 09ab F3       		.byte	0xf3
 12215 09ac 01       		.uleb128 0x1
 12216 09ad 53       		.byte	0x53
 12217 09ae 9F       		.byte	0x9f
 12218 09af 00000000 		.4byte	0
 12219 09b3 00000000 		.4byte	0
 12220              	.LLST81:
 12221 09b7 00000000 		.4byte	.LVL277
 12222 09bb 06000000 		.4byte	.LVL278
 12223 09bf 0100     		.2byte	0x1
 12224 09c1 50       		.byte	0x50
 12225 09c2 06000000 		.4byte	.LVL278
 12226 09c6 3C000000 		.4byte	.LFE304
 12227 09ca 0400     		.2byte	0x4
 12228 09cc F3       		.byte	0xf3
 12229 09cd 01       		.uleb128 0x1
 12230 09ce 50       		.byte	0x50
 12231 09cf 9F       		.byte	0x9f
 12232 09d0 00000000 		.4byte	0
 12233 09d4 00000000 		.4byte	0
 12234              	.LLST82:
 12235 09d8 00000000 		.4byte	.LVL277
 12236 09dc 0D000000 		.4byte	.LVL279-1
 12237 09e0 0100     		.2byte	0x1
 12238 09e2 51       		.byte	0x51
 12239 09e3 0D000000 		.4byte	.LVL279-1
 12240 09e7 3C000000 		.4byte	.LFE304
 12241 09eb 0400     		.2byte	0x4
 12242 09ed F3       		.byte	0xf3
 12243 09ee 01       		.uleb128 0x1
 12244 09ef 51       		.byte	0x51
 12245 09f0 9F       		.byte	0x9f
 12246 09f1 00000000 		.4byte	0
 12247 09f5 00000000 		.4byte	0
 12248              	.LLST83:
 12249 09f9 00000000 		.4byte	.LVL277
 12250 09fd 0D000000 		.4byte	.LVL279-1
 12251 0a01 0100     		.2byte	0x1
 12252 0a03 52       		.byte	0x52
 12253 0a04 0D000000 		.4byte	.LVL279-1
 12254 0a08 38000000 		.4byte	.LVL286
 12255 0a0c 0100     		.2byte	0x1
ARM GAS  /tmp/cctBdhRt.s 			page 216


 12256 0a0e 57       		.byte	0x57
 12257 0a0f 38000000 		.4byte	.LVL286
 12258 0a13 3C000000 		.4byte	.LFE304
 12259 0a17 0400     		.2byte	0x4
 12260 0a19 F3       		.byte	0xf3
 12261 0a1a 01       		.uleb128 0x1
 12262 0a1b 52       		.byte	0x52
 12263 0a1c 9F       		.byte	0x9f
 12264 0a1d 00000000 		.4byte	0
 12265 0a21 00000000 		.4byte	0
 12266              	.LLST84:
 12267 0a25 16000000 		.4byte	.LVL281
 12268 0a29 38000000 		.4byte	.LVL286
 12269 0a2d 0100     		.2byte	0x1
 12270 0a2f 56       		.byte	0x56
 12271 0a30 00000000 		.4byte	0
 12272 0a34 00000000 		.4byte	0
 12273              	.LLST85:
 12274 0a38 00000000 		.4byte	.LVL287
 12275 0a3c 08000000 		.4byte	.LVL288
 12276 0a40 0100     		.2byte	0x1
 12277 0a42 50       		.byte	0x50
 12278 0a43 08000000 		.4byte	.LVL288
 12279 0a47 28000000 		.4byte	.LFE305
 12280 0a4b 0400     		.2byte	0x4
 12281 0a4d F3       		.byte	0xf3
 12282 0a4e 01       		.uleb128 0x1
 12283 0a4f 50       		.byte	0x50
 12284 0a50 9F       		.byte	0x9f
 12285 0a51 00000000 		.4byte	0
 12286 0a55 00000000 		.4byte	0
 12287              	.LLST86:
 12288 0a59 14000000 		.4byte	.LVL291
 12289 0a5d 24000000 		.4byte	.LVL294
 12290 0a61 0100     		.2byte	0x1
 12291 0a63 55       		.byte	0x55
 12292 0a64 00000000 		.4byte	0
 12293 0a68 00000000 		.4byte	0
 12294              	.LLST87:
 12295 0a6c 00000000 		.4byte	.LVL295
 12296 0a70 08000000 		.4byte	.LVL296
 12297 0a74 0100     		.2byte	0x1
 12298 0a76 50       		.byte	0x50
 12299 0a77 08000000 		.4byte	.LVL296
 12300 0a7b 28000000 		.4byte	.LFE306
 12301 0a7f 0400     		.2byte	0x4
 12302 0a81 F3       		.byte	0xf3
 12303 0a82 01       		.uleb128 0x1
 12304 0a83 50       		.byte	0x50
 12305 0a84 9F       		.byte	0x9f
 12306 0a85 00000000 		.4byte	0
 12307 0a89 00000000 		.4byte	0
 12308              	.LLST88:
 12309 0a8d 14000000 		.4byte	.LVL299
 12310 0a91 24000000 		.4byte	.LVL302
 12311 0a95 0100     		.2byte	0x1
 12312 0a97 55       		.byte	0x55
ARM GAS  /tmp/cctBdhRt.s 			page 217


 12313 0a98 00000000 		.4byte	0
 12314 0a9c 00000000 		.4byte	0
 12315              	.LLST89:
 12316 0aa0 00000000 		.4byte	.LVL303
 12317 0aa4 12000000 		.4byte	.LVL304
 12318 0aa8 0100     		.2byte	0x1
 12319 0aaa 50       		.byte	0x50
 12320 0aab 12000000 		.4byte	.LVL304
 12321 0aaf 64000000 		.4byte	.LFE307
 12322 0ab3 0400     		.2byte	0x4
 12323 0ab5 F3       		.byte	0xf3
 12324 0ab6 01       		.uleb128 0x1
 12325 0ab7 50       		.byte	0x50
 12326 0ab8 9F       		.byte	0x9f
 12327 0ab9 00000000 		.4byte	0
 12328 0abd 00000000 		.4byte	0
 12329              	.LLST90:
 12330 0ac1 00000000 		.4byte	.LVL303
 12331 0ac5 1B000000 		.4byte	.LVL305-1
 12332 0ac9 0100     		.2byte	0x1
 12333 0acb 51       		.byte	0x51
 12334 0acc 1B000000 		.4byte	.LVL305-1
 12335 0ad0 64000000 		.4byte	.LFE307
 12336 0ad4 0400     		.2byte	0x4
 12337 0ad6 F3       		.byte	0xf3
 12338 0ad7 01       		.uleb128 0x1
 12339 0ad8 51       		.byte	0x51
 12340 0ad9 9F       		.byte	0x9f
 12341 0ada 00000000 		.4byte	0
 12342 0ade 00000000 		.4byte	0
 12343              	.LLST91:
 12344 0ae2 00000000 		.4byte	.LVL303
 12345 0ae6 1B000000 		.4byte	.LVL305-1
 12346 0aea 0100     		.2byte	0x1
 12347 0aec 52       		.byte	0x52
 12348 0aed 1B000000 		.4byte	.LVL305-1
 12349 0af1 64000000 		.4byte	.LFE307
 12350 0af5 0400     		.2byte	0x4
 12351 0af7 F3       		.byte	0xf3
 12352 0af8 01       		.uleb128 0x1
 12353 0af9 52       		.byte	0x52
 12354 0afa 9F       		.byte	0x9f
 12355 0afb 00000000 		.4byte	0
 12356 0aff 00000000 		.4byte	0
 12357              	.LLST92:
 12358 0b03 00000000 		.4byte	.LVL303
 12359 0b07 1B000000 		.4byte	.LVL305-1
 12360 0b0b 0100     		.2byte	0x1
 12361 0b0d 53       		.byte	0x53
 12362 0b0e 1B000000 		.4byte	.LVL305-1
 12363 0b12 64000000 		.4byte	.LFE307
 12364 0b16 0400     		.2byte	0x4
 12365 0b18 F3       		.byte	0xf3
 12366 0b19 01       		.uleb128 0x1
 12367 0b1a 53       		.byte	0x53
 12368 0b1b 9F       		.byte	0x9f
 12369 0b1c 00000000 		.4byte	0
ARM GAS  /tmp/cctBdhRt.s 			page 218


 12370 0b20 00000000 		.4byte	0
 12371              	.LLST93:
 12372 0b24 00000000 		.4byte	.LVL303
 12373 0b28 5E000000 		.4byte	.LVL315
 12374 0b2c 0200     		.2byte	0x2
 12375 0b2e 91       		.byte	0x91
 12376 0b2f 00       		.sleb128 0
 12377 0b30 5E000000 		.4byte	.LVL315
 12378 0b34 64000000 		.4byte	.LFE307
 12379 0b38 0200     		.2byte	0x2
 12380 0b3a 7D       		.byte	0x7d
 12381 0b3b 00       		.sleb128 0
 12382 0b3c 00000000 		.4byte	0
 12383 0b40 00000000 		.4byte	0
 12384              	.LLST94:
 12385 0b44 00000000 		.4byte	.LVL303
 12386 0b48 5E000000 		.4byte	.LVL315
 12387 0b4c 0200     		.2byte	0x2
 12388 0b4e 91       		.byte	0x91
 12389 0b4f 04       		.sleb128 4
 12390 0b50 5E000000 		.4byte	.LVL315
 12391 0b54 64000000 		.4byte	.LFE307
 12392 0b58 0200     		.2byte	0x2
 12393 0b5a 7D       		.byte	0x7d
 12394 0b5b 04       		.sleb128 4
 12395 0b5c 00000000 		.4byte	0
 12396 0b60 00000000 		.4byte	0
 12397              	.LLST95:
 12398 0b64 26000000 		.4byte	.LVL307
 12399 0b68 5E000000 		.4byte	.LVL315
 12400 0b6c 0100     		.2byte	0x1
 12401 0b6e 57       		.byte	0x57
 12402 0b6f 00000000 		.4byte	0
 12403 0b73 00000000 		.4byte	0
 12404              	.LLST96:
 12405 0b77 00000000 		.4byte	.LVL316
 12406 0b7b 13000000 		.4byte	.LVL319-1
 12407 0b7f 0100     		.2byte	0x1
 12408 0b81 50       		.byte	0x50
 12409 0b82 13000000 		.4byte	.LVL319-1
 12410 0b86 14000000 		.4byte	.LFE308
 12411 0b8a 0400     		.2byte	0x4
 12412 0b8c F3       		.byte	0xf3
 12413 0b8d 01       		.uleb128 0x1
 12414 0b8e 50       		.byte	0x50
 12415 0b8f 9F       		.byte	0x9f
 12416 0b90 00000000 		.4byte	0
 12417 0b94 00000000 		.4byte	0
 12418              	.LLST97:
 12419 0b98 00000000 		.4byte	.LVL316
 12420 0b9c 13000000 		.4byte	.LVL319-1
 12421 0ba0 0100     		.2byte	0x1
 12422 0ba2 51       		.byte	0x51
 12423 0ba3 13000000 		.4byte	.LVL319-1
 12424 0ba7 14000000 		.4byte	.LFE308
 12425 0bab 0400     		.2byte	0x4
 12426 0bad F3       		.byte	0xf3
ARM GAS  /tmp/cctBdhRt.s 			page 219


 12427 0bae 01       		.uleb128 0x1
 12428 0baf 51       		.byte	0x51
 12429 0bb0 9F       		.byte	0x9f
 12430 0bb1 00000000 		.4byte	0
 12431 0bb5 00000000 		.4byte	0
 12432              	.LLST98:
 12433 0bb9 00000000 		.4byte	.LVL316
 12434 0bbd 13000000 		.4byte	.LVL319-1
 12435 0bc1 0100     		.2byte	0x1
 12436 0bc3 52       		.byte	0x52
 12437 0bc4 13000000 		.4byte	.LVL319-1
 12438 0bc8 14000000 		.4byte	.LFE308
 12439 0bcc 0400     		.2byte	0x4
 12440 0bce F3       		.byte	0xf3
 12441 0bcf 01       		.uleb128 0x1
 12442 0bd0 52       		.byte	0x52
 12443 0bd1 9F       		.byte	0x9f
 12444 0bd2 00000000 		.4byte	0
 12445 0bd6 00000000 		.4byte	0
 12446              	.LLST99:
 12447 0bda 00000000 		.4byte	.LVL316
 12448 0bde 13000000 		.4byte	.LVL319-1
 12449 0be2 0100     		.2byte	0x1
 12450 0be4 53       		.byte	0x53
 12451 0be5 13000000 		.4byte	.LVL319-1
 12452 0be9 14000000 		.4byte	.LFE308
 12453 0bed 0400     		.2byte	0x4
 12454 0bef F3       		.byte	0xf3
 12455 0bf0 01       		.uleb128 0x1
 12456 0bf1 53       		.byte	0x53
 12457 0bf2 9F       		.byte	0x9f
 12458 0bf3 00000000 		.4byte	0
 12459 0bf7 00000000 		.4byte	0
 12460              	.LLST100:
 12461 0bfb 00000000 		.4byte	.LVL316
 12462 0bff 0C000000 		.4byte	.LVL317
 12463 0c03 0200     		.2byte	0x2
 12464 0c05 91       		.byte	0x91
 12465 0c06 00       		.sleb128 0
 12466 0c07 00000000 		.4byte	0
 12467 0c0b 00000000 		.4byte	0
 12468              	.LLST101:
 12469 0c0f 00000000 		.4byte	.LVL316
 12470 0c13 0E000000 		.4byte	.LVL318
 12471 0c17 0200     		.2byte	0x2
 12472 0c19 91       		.byte	0x91
 12473 0c1a 04       		.sleb128 4
 12474 0c1b 00000000 		.4byte	0
 12475 0c1f 00000000 		.4byte	0
 12476              	.LLST102:
 12477 0c23 00000000 		.4byte	.LVL320
 12478 0c27 12000000 		.4byte	.LVL321
 12479 0c2b 0100     		.2byte	0x1
 12480 0c2d 50       		.byte	0x50
 12481 0c2e 12000000 		.4byte	.LVL321
 12482 0c32 64000000 		.4byte	.LFE309
 12483 0c36 0400     		.2byte	0x4
ARM GAS  /tmp/cctBdhRt.s 			page 220


 12484 0c38 F3       		.byte	0xf3
 12485 0c39 01       		.uleb128 0x1
 12486 0c3a 50       		.byte	0x50
 12487 0c3b 9F       		.byte	0x9f
 12488 0c3c 00000000 		.4byte	0
 12489 0c40 00000000 		.4byte	0
 12490              	.LLST103:
 12491 0c44 00000000 		.4byte	.LVL320
 12492 0c48 1B000000 		.4byte	.LVL322-1
 12493 0c4c 0100     		.2byte	0x1
 12494 0c4e 51       		.byte	0x51
 12495 0c4f 1B000000 		.4byte	.LVL322-1
 12496 0c53 64000000 		.4byte	.LFE309
 12497 0c57 0400     		.2byte	0x4
 12498 0c59 F3       		.byte	0xf3
 12499 0c5a 01       		.uleb128 0x1
 12500 0c5b 51       		.byte	0x51
 12501 0c5c 9F       		.byte	0x9f
 12502 0c5d 00000000 		.4byte	0
 12503 0c61 00000000 		.4byte	0
 12504              	.LLST104:
 12505 0c65 00000000 		.4byte	.LVL320
 12506 0c69 1B000000 		.4byte	.LVL322-1
 12507 0c6d 0100     		.2byte	0x1
 12508 0c6f 52       		.byte	0x52
 12509 0c70 1B000000 		.4byte	.LVL322-1
 12510 0c74 64000000 		.4byte	.LFE309
 12511 0c78 0400     		.2byte	0x4
 12512 0c7a F3       		.byte	0xf3
 12513 0c7b 01       		.uleb128 0x1
 12514 0c7c 52       		.byte	0x52
 12515 0c7d 9F       		.byte	0x9f
 12516 0c7e 00000000 		.4byte	0
 12517 0c82 00000000 		.4byte	0
 12518              	.LLST105:
 12519 0c86 00000000 		.4byte	.LVL320
 12520 0c8a 1B000000 		.4byte	.LVL322-1
 12521 0c8e 0100     		.2byte	0x1
 12522 0c90 53       		.byte	0x53
 12523 0c91 1B000000 		.4byte	.LVL322-1
 12524 0c95 64000000 		.4byte	.LFE309
 12525 0c99 0400     		.2byte	0x4
 12526 0c9b F3       		.byte	0xf3
 12527 0c9c 01       		.uleb128 0x1
 12528 0c9d 53       		.byte	0x53
 12529 0c9e 9F       		.byte	0x9f
 12530 0c9f 00000000 		.4byte	0
 12531 0ca3 00000000 		.4byte	0
 12532              	.LLST106:
 12533 0ca7 00000000 		.4byte	.LVL320
 12534 0cab 5E000000 		.4byte	.LVL332
 12535 0caf 0200     		.2byte	0x2
 12536 0cb1 91       		.byte	0x91
 12537 0cb2 00       		.sleb128 0
 12538 0cb3 5E000000 		.4byte	.LVL332
 12539 0cb7 64000000 		.4byte	.LFE309
 12540 0cbb 0200     		.2byte	0x2
ARM GAS  /tmp/cctBdhRt.s 			page 221


 12541 0cbd 7D       		.byte	0x7d
 12542 0cbe 00       		.sleb128 0
 12543 0cbf 00000000 		.4byte	0
 12544 0cc3 00000000 		.4byte	0
 12545              	.LLST107:
 12546 0cc7 00000000 		.4byte	.LVL320
 12547 0ccb 5E000000 		.4byte	.LVL332
 12548 0ccf 0200     		.2byte	0x2
 12549 0cd1 91       		.byte	0x91
 12550 0cd2 04       		.sleb128 4
 12551 0cd3 5E000000 		.4byte	.LVL332
 12552 0cd7 64000000 		.4byte	.LFE309
 12553 0cdb 0200     		.2byte	0x2
 12554 0cdd 7D       		.byte	0x7d
 12555 0cde 04       		.sleb128 4
 12556 0cdf 00000000 		.4byte	0
 12557 0ce3 00000000 		.4byte	0
 12558              	.LLST108:
 12559 0ce7 26000000 		.4byte	.LVL324
 12560 0ceb 5E000000 		.4byte	.LVL332
 12561 0cef 0100     		.2byte	0x1
 12562 0cf1 57       		.byte	0x57
 12563 0cf2 00000000 		.4byte	0
 12564 0cf6 00000000 		.4byte	0
 12565              	.LLST109:
 12566 0cfa 00000000 		.4byte	.LVL333
 12567 0cfe 0E000000 		.4byte	.LVL334
 12568 0d02 0100     		.2byte	0x1
 12569 0d04 50       		.byte	0x50
 12570 0d05 0E000000 		.4byte	.LVL334
 12571 0d09 50000000 		.4byte	.LFE310
 12572 0d0d 0400     		.2byte	0x4
 12573 0d0f F3       		.byte	0xf3
 12574 0d10 01       		.uleb128 0x1
 12575 0d11 50       		.byte	0x50
 12576 0d12 9F       		.byte	0x9f
 12577 0d13 00000000 		.4byte	0
 12578 0d17 00000000 		.4byte	0
 12579              	.LLST110:
 12580 0d1b 00000000 		.4byte	.LVL333
 12581 0d1f 17000000 		.4byte	.LVL335-1
 12582 0d23 0100     		.2byte	0x1
 12583 0d25 51       		.byte	0x51
 12584 0d26 17000000 		.4byte	.LVL335-1
 12585 0d2a 50000000 		.4byte	.LFE310
 12586 0d2e 0400     		.2byte	0x4
 12587 0d30 F3       		.byte	0xf3
 12588 0d31 01       		.uleb128 0x1
 12589 0d32 51       		.byte	0x51
 12590 0d33 9F       		.byte	0x9f
 12591 0d34 00000000 		.4byte	0
 12592 0d38 00000000 		.4byte	0
 12593              	.LLST111:
 12594 0d3c 00000000 		.4byte	.LVL333
 12595 0d40 17000000 		.4byte	.LVL335-1
 12596 0d44 0100     		.2byte	0x1
 12597 0d46 52       		.byte	0x52
ARM GAS  /tmp/cctBdhRt.s 			page 222


 12598 0d47 17000000 		.4byte	.LVL335-1
 12599 0d4b 50000000 		.4byte	.LFE310
 12600 0d4f 0400     		.2byte	0x4
 12601 0d51 F3       		.byte	0xf3
 12602 0d52 01       		.uleb128 0x1
 12603 0d53 52       		.byte	0x52
 12604 0d54 9F       		.byte	0x9f
 12605 0d55 00000000 		.4byte	0
 12606 0d59 00000000 		.4byte	0
 12607              	.LLST112:
 12608 0d5d 00000000 		.4byte	.LVL333
 12609 0d61 17000000 		.4byte	.LVL335-1
 12610 0d65 0100     		.2byte	0x1
 12611 0d67 53       		.byte	0x53
 12612 0d68 17000000 		.4byte	.LVL335-1
 12613 0d6c 50000000 		.4byte	.LFE310
 12614 0d70 0400     		.2byte	0x4
 12615 0d72 F3       		.byte	0xf3
 12616 0d73 01       		.uleb128 0x1
 12617 0d74 53       		.byte	0x53
 12618 0d75 9F       		.byte	0x9f
 12619 0d76 00000000 		.4byte	0
 12620 0d7a 00000000 		.4byte	0
 12621              	.LLST113:
 12622 0d7e 00000000 		.4byte	.LVL333
 12623 0d82 4C000000 		.4byte	.LVL344
 12624 0d86 0200     		.2byte	0x2
 12625 0d88 91       		.byte	0x91
 12626 0d89 00       		.sleb128 0
 12627 0d8a 4C000000 		.4byte	.LVL344
 12628 0d8e 50000000 		.4byte	.LFE310
 12629 0d92 0200     		.2byte	0x2
 12630 0d94 7D       		.byte	0x7d
 12631 0d95 00       		.sleb128 0
 12632 0d96 00000000 		.4byte	0
 12633 0d9a 00000000 		.4byte	0
 12634              	.LLST114:
 12635 0d9e 22000000 		.4byte	.LVL337
 12636 0da2 4C000000 		.4byte	.LVL344
 12637 0da6 0100     		.2byte	0x1
 12638 0da8 56       		.byte	0x56
 12639 0da9 00000000 		.4byte	0
 12640 0dad 00000000 		.4byte	0
 12641              	.LLST115:
 12642 0db1 00000000 		.4byte	.LVL345
 12643 0db5 0C000000 		.4byte	.LVL346
 12644 0db9 0100     		.2byte	0x1
 12645 0dbb 50       		.byte	0x50
 12646 0dbc 0C000000 		.4byte	.LVL346
 12647 0dc0 7C000000 		.4byte	.LFE311
 12648 0dc4 0400     		.2byte	0x4
 12649 0dc6 F3       		.byte	0xf3
 12650 0dc7 01       		.uleb128 0x1
 12651 0dc8 50       		.byte	0x50
 12652 0dc9 9F       		.byte	0x9f
 12653 0dca 00000000 		.4byte	0
 12654 0dce 00000000 		.4byte	0
ARM GAS  /tmp/cctBdhRt.s 			page 223


 12655              	.LLST116:
 12656 0dd2 00000000 		.4byte	.LVL345
 12657 0dd6 25000000 		.4byte	.LVL347-1
 12658 0dda 0100     		.2byte	0x1
 12659 0ddc 51       		.byte	0x51
 12660 0ddd 25000000 		.4byte	.LVL347-1
 12661 0de1 7C000000 		.4byte	.LFE311
 12662 0de5 0400     		.2byte	0x4
 12663 0de7 F3       		.byte	0xf3
 12664 0de8 01       		.uleb128 0x1
 12665 0de9 51       		.byte	0x51
 12666 0dea 9F       		.byte	0x9f
 12667 0deb 00000000 		.4byte	0
 12668 0def 00000000 		.4byte	0
 12669              	.LLST117:
 12670 0df3 00000000 		.4byte	.LVL345
 12671 0df7 25000000 		.4byte	.LVL347-1
 12672 0dfb 0100     		.2byte	0x1
 12673 0dfd 52       		.byte	0x52
 12674 0dfe 25000000 		.4byte	.LVL347-1
 12675 0e02 7C000000 		.4byte	.LFE311
 12676 0e06 0400     		.2byte	0x4
 12677 0e08 F3       		.byte	0xf3
 12678 0e09 01       		.uleb128 0x1
 12679 0e0a 52       		.byte	0x52
 12680 0e0b 9F       		.byte	0x9f
 12681 0e0c 00000000 		.4byte	0
 12682 0e10 00000000 		.4byte	0
 12683              	.LLST118:
 12684 0e14 00000000 		.4byte	.LVL345
 12685 0e18 25000000 		.4byte	.LVL347-1
 12686 0e1c 0100     		.2byte	0x1
 12687 0e1e 53       		.byte	0x53
 12688 0e1f 25000000 		.4byte	.LVL347-1
 12689 0e23 7C000000 		.4byte	.LFE311
 12690 0e27 0400     		.2byte	0x4
 12691 0e29 F3       		.byte	0xf3
 12692 0e2a 01       		.uleb128 0x1
 12693 0e2b 53       		.byte	0x53
 12694 0e2c 9F       		.byte	0x9f
 12695 0e2d 00000000 		.4byte	0
 12696 0e31 00000000 		.4byte	0
 12697              	.LLST119:
 12698 0e35 00000000 		.4byte	.LVL345
 12699 0e39 78000000 		.4byte	.LVL359
 12700 0e3d 0200     		.2byte	0x2
 12701 0e3f 91       		.byte	0x91
 12702 0e40 00       		.sleb128 0
 12703 0e41 78000000 		.4byte	.LVL359
 12704 0e45 7C000000 		.4byte	.LFE311
 12705 0e49 0200     		.2byte	0x2
 12706 0e4b 7D       		.byte	0x7d
 12707 0e4c 00       		.sleb128 0
 12708 0e4d 00000000 		.4byte	0
 12709 0e51 00000000 		.4byte	0
 12710              	.LLST120:
 12711 0e55 00000000 		.4byte	.LVL345
ARM GAS  /tmp/cctBdhRt.s 			page 224


 12712 0e59 78000000 		.4byte	.LVL359
 12713 0e5d 0200     		.2byte	0x2
 12714 0e5f 91       		.byte	0x91
 12715 0e60 04       		.sleb128 4
 12716 0e61 78000000 		.4byte	.LVL359
 12717 0e65 7C000000 		.4byte	.LFE311
 12718 0e69 0200     		.2byte	0x2
 12719 0e6b 7D       		.byte	0x7d
 12720 0e6c 04       		.sleb128 4
 12721 0e6d 00000000 		.4byte	0
 12722 0e71 00000000 		.4byte	0
 12723              	.LLST121:
 12724 0e75 00000000 		.4byte	.LVL345
 12725 0e79 78000000 		.4byte	.LVL359
 12726 0e7d 0200     		.2byte	0x2
 12727 0e7f 91       		.byte	0x91
 12728 0e80 08       		.sleb128 8
 12729 0e81 78000000 		.4byte	.LVL359
 12730 0e85 7C000000 		.4byte	.LFE311
 12731 0e89 0200     		.2byte	0x2
 12732 0e8b 7D       		.byte	0x7d
 12733 0e8c 08       		.sleb128 8
 12734 0e8d 00000000 		.4byte	0
 12735 0e91 00000000 		.4byte	0
 12736              	.LLST122:
 12737 0e95 00000000 		.4byte	.LVL345
 12738 0e99 78000000 		.4byte	.LVL359
 12739 0e9d 0200     		.2byte	0x2
 12740 0e9f 91       		.byte	0x91
 12741 0ea0 0C       		.sleb128 12
 12742 0ea1 78000000 		.4byte	.LVL359
 12743 0ea5 7C000000 		.4byte	.LFE311
 12744 0ea9 0200     		.2byte	0x2
 12745 0eab 7D       		.byte	0x7d
 12746 0eac 0C       		.sleb128 12
 12747 0ead 00000000 		.4byte	0
 12748 0eb1 00000000 		.4byte	0
 12749              	.LLST123:
 12750 0eb5 32000000 		.4byte	.LVL349
 12751 0eb9 78000000 		.4byte	.LVL359
 12752 0ebd 0100     		.2byte	0x1
 12753 0ebf 57       		.byte	0x57
 12754 0ec0 00000000 		.4byte	0
 12755 0ec4 00000000 		.4byte	0
 12756              	.LLST124:
 12757 0ec8 00000000 		.4byte	.LVL360
 12758 0ecc 0C000000 		.4byte	.LVL361
 12759 0ed0 0100     		.2byte	0x1
 12760 0ed2 50       		.byte	0x50
 12761 0ed3 0C000000 		.4byte	.LVL361
 12762 0ed7 7C000000 		.4byte	.LFE312
 12763 0edb 0400     		.2byte	0x4
 12764 0edd F3       		.byte	0xf3
 12765 0ede 01       		.uleb128 0x1
 12766 0edf 50       		.byte	0x50
 12767 0ee0 9F       		.byte	0x9f
 12768 0ee1 00000000 		.4byte	0
ARM GAS  /tmp/cctBdhRt.s 			page 225


 12769 0ee5 00000000 		.4byte	0
 12770              	.LLST125:
 12771 0ee9 00000000 		.4byte	.LVL360
 12772 0eed 25000000 		.4byte	.LVL362-1
 12773 0ef1 0100     		.2byte	0x1
 12774 0ef3 51       		.byte	0x51
 12775 0ef4 25000000 		.4byte	.LVL362-1
 12776 0ef8 7C000000 		.4byte	.LFE312
 12777 0efc 0400     		.2byte	0x4
 12778 0efe F3       		.byte	0xf3
 12779 0eff 01       		.uleb128 0x1
 12780 0f00 51       		.byte	0x51
 12781 0f01 9F       		.byte	0x9f
 12782 0f02 00000000 		.4byte	0
 12783 0f06 00000000 		.4byte	0
 12784              	.LLST126:
 12785 0f0a 00000000 		.4byte	.LVL360
 12786 0f0e 25000000 		.4byte	.LVL362-1
 12787 0f12 0100     		.2byte	0x1
 12788 0f14 52       		.byte	0x52
 12789 0f15 25000000 		.4byte	.LVL362-1
 12790 0f19 7C000000 		.4byte	.LFE312
 12791 0f1d 0400     		.2byte	0x4
 12792 0f1f F3       		.byte	0xf3
 12793 0f20 01       		.uleb128 0x1
 12794 0f21 52       		.byte	0x52
 12795 0f22 9F       		.byte	0x9f
 12796 0f23 00000000 		.4byte	0
 12797 0f27 00000000 		.4byte	0
 12798              	.LLST127:
 12799 0f2b 00000000 		.4byte	.LVL360
 12800 0f2f 25000000 		.4byte	.LVL362-1
 12801 0f33 0100     		.2byte	0x1
 12802 0f35 53       		.byte	0x53
 12803 0f36 25000000 		.4byte	.LVL362-1
 12804 0f3a 7C000000 		.4byte	.LFE312
 12805 0f3e 0400     		.2byte	0x4
 12806 0f40 F3       		.byte	0xf3
 12807 0f41 01       		.uleb128 0x1
 12808 0f42 53       		.byte	0x53
 12809 0f43 9F       		.byte	0x9f
 12810 0f44 00000000 		.4byte	0
 12811 0f48 00000000 		.4byte	0
 12812              	.LLST128:
 12813 0f4c 00000000 		.4byte	.LVL360
 12814 0f50 78000000 		.4byte	.LVL374
 12815 0f54 0200     		.2byte	0x2
 12816 0f56 91       		.byte	0x91
 12817 0f57 00       		.sleb128 0
 12818 0f58 78000000 		.4byte	.LVL374
 12819 0f5c 7C000000 		.4byte	.LFE312
 12820 0f60 0200     		.2byte	0x2
 12821 0f62 7D       		.byte	0x7d
 12822 0f63 00       		.sleb128 0
 12823 0f64 00000000 		.4byte	0
 12824 0f68 00000000 		.4byte	0
 12825              	.LLST129:
ARM GAS  /tmp/cctBdhRt.s 			page 226


 12826 0f6c 00000000 		.4byte	.LVL360
 12827 0f70 78000000 		.4byte	.LVL374
 12828 0f74 0200     		.2byte	0x2
 12829 0f76 91       		.byte	0x91
 12830 0f77 04       		.sleb128 4
 12831 0f78 78000000 		.4byte	.LVL374
 12832 0f7c 7C000000 		.4byte	.LFE312
 12833 0f80 0200     		.2byte	0x2
 12834 0f82 7D       		.byte	0x7d
 12835 0f83 04       		.sleb128 4
 12836 0f84 00000000 		.4byte	0
 12837 0f88 00000000 		.4byte	0
 12838              	.LLST130:
 12839 0f8c 00000000 		.4byte	.LVL360
 12840 0f90 78000000 		.4byte	.LVL374
 12841 0f94 0200     		.2byte	0x2
 12842 0f96 91       		.byte	0x91
 12843 0f97 08       		.sleb128 8
 12844 0f98 78000000 		.4byte	.LVL374
 12845 0f9c 7C000000 		.4byte	.LFE312
 12846 0fa0 0200     		.2byte	0x2
 12847 0fa2 7D       		.byte	0x7d
 12848 0fa3 08       		.sleb128 8
 12849 0fa4 00000000 		.4byte	0
 12850 0fa8 00000000 		.4byte	0
 12851              	.LLST131:
 12852 0fac 00000000 		.4byte	.LVL360
 12853 0fb0 78000000 		.4byte	.LVL374
 12854 0fb4 0200     		.2byte	0x2
 12855 0fb6 91       		.byte	0x91
 12856 0fb7 0C       		.sleb128 12
 12857 0fb8 78000000 		.4byte	.LVL374
 12858 0fbc 7C000000 		.4byte	.LFE312
 12859 0fc0 0200     		.2byte	0x2
 12860 0fc2 7D       		.byte	0x7d
 12861 0fc3 0C       		.sleb128 12
 12862 0fc4 00000000 		.4byte	0
 12863 0fc8 00000000 		.4byte	0
 12864              	.LLST132:
 12865 0fcc 32000000 		.4byte	.LVL364
 12866 0fd0 78000000 		.4byte	.LVL374
 12867 0fd4 0100     		.2byte	0x1
 12868 0fd6 57       		.byte	0x57
 12869 0fd7 00000000 		.4byte	0
 12870 0fdb 00000000 		.4byte	0
 12871              	.LLST133:
 12872 0fdf 00000000 		.4byte	.LVL375
 12873 0fe3 0E000000 		.4byte	.LVL376
 12874 0fe7 0100     		.2byte	0x1
 12875 0fe9 50       		.byte	0x50
 12876 0fea 0E000000 		.4byte	.LVL376
 12877 0fee 58000000 		.4byte	.LFE313
 12878 0ff2 0400     		.2byte	0x4
 12879 0ff4 F3       		.byte	0xf3
 12880 0ff5 01       		.uleb128 0x1
 12881 0ff6 50       		.byte	0x50
 12882 0ff7 9F       		.byte	0x9f
ARM GAS  /tmp/cctBdhRt.s 			page 227


 12883 0ff8 00000000 		.4byte	0
 12884 0ffc 00000000 		.4byte	0
 12885              	.LLST134:
 12886 1000 00000000 		.4byte	.LVL375
 12887 1004 17000000 		.4byte	.LVL377-1
 12888 1008 0100     		.2byte	0x1
 12889 100a 51       		.byte	0x51
 12890 100b 17000000 		.4byte	.LVL377-1
 12891 100f 58000000 		.4byte	.LFE313
 12892 1013 0400     		.2byte	0x4
 12893 1015 F3       		.byte	0xf3
 12894 1016 01       		.uleb128 0x1
 12895 1017 51       		.byte	0x51
 12896 1018 9F       		.byte	0x9f
 12897 1019 00000000 		.4byte	0
 12898 101d 00000000 		.4byte	0
 12899              	.LLST135:
 12900 1021 00000000 		.4byte	.LVL375
 12901 1025 17000000 		.4byte	.LVL377-1
 12902 1029 0100     		.2byte	0x1
 12903 102b 52       		.byte	0x52
 12904 102c 17000000 		.4byte	.LVL377-1
 12905 1030 58000000 		.4byte	.LFE313
 12906 1034 0400     		.2byte	0x4
 12907 1036 F3       		.byte	0xf3
 12908 1037 01       		.uleb128 0x1
 12909 1038 52       		.byte	0x52
 12910 1039 9F       		.byte	0x9f
 12911 103a 00000000 		.4byte	0
 12912 103e 00000000 		.4byte	0
 12913              	.LLST136:
 12914 1042 00000000 		.4byte	.LVL375
 12915 1046 17000000 		.4byte	.LVL377-1
 12916 104a 0100     		.2byte	0x1
 12917 104c 53       		.byte	0x53
 12918 104d 17000000 		.4byte	.LVL377-1
 12919 1051 58000000 		.4byte	.LFE313
 12920 1055 0400     		.2byte	0x4
 12921 1057 F3       		.byte	0xf3
 12922 1058 01       		.uleb128 0x1
 12923 1059 53       		.byte	0x53
 12924 105a 9F       		.byte	0x9f
 12925 105b 00000000 		.4byte	0
 12926 105f 00000000 		.4byte	0
 12927              	.LLST137:
 12928 1063 00000000 		.4byte	.LVL375
 12929 1067 52000000 		.4byte	.LVL386
 12930 106b 0200     		.2byte	0x2
 12931 106d 91       		.byte	0x91
 12932 106e 00       		.sleb128 0
 12933 106f 52000000 		.4byte	.LVL386
 12934 1073 58000000 		.4byte	.LFE313
 12935 1077 0200     		.2byte	0x2
 12936 1079 7D       		.byte	0x7d
 12937 107a 00       		.sleb128 0
 12938 107b 00000000 		.4byte	0
 12939 107f 00000000 		.4byte	0
ARM GAS  /tmp/cctBdhRt.s 			page 228


 12940              	.LLST138:
 12941 1083 22000000 		.4byte	.LVL379
 12942 1087 52000000 		.4byte	.LVL386
 12943 108b 0100     		.2byte	0x1
 12944 108d 57       		.byte	0x57
 12945 108e 00000000 		.4byte	0
 12946 1092 00000000 		.4byte	0
 12947              	.LLST139:
 12948 1096 00000000 		.4byte	.LVL387
 12949 109a 0A000000 		.4byte	.LVL388
 12950 109e 0100     		.2byte	0x1
 12951 10a0 50       		.byte	0x50
 12952 10a1 0A000000 		.4byte	.LVL388
 12953 10a5 48000000 		.4byte	.LFE314
 12954 10a9 0400     		.2byte	0x4
 12955 10ab F3       		.byte	0xf3
 12956 10ac 01       		.uleb128 0x1
 12957 10ad 50       		.byte	0x50
 12958 10ae 9F       		.byte	0x9f
 12959 10af 00000000 		.4byte	0
 12960 10b3 00000000 		.4byte	0
 12961              	.LLST140:
 12962 10b7 00000000 		.4byte	.LVL387
 12963 10bb 13000000 		.4byte	.LVL389-1
 12964 10bf 0100     		.2byte	0x1
 12965 10c1 51       		.byte	0x51
 12966 10c2 13000000 		.4byte	.LVL389-1
 12967 10c6 48000000 		.4byte	.LFE314
 12968 10ca 0400     		.2byte	0x4
 12969 10cc F3       		.byte	0xf3
 12970 10cd 01       		.uleb128 0x1
 12971 10ce 51       		.byte	0x51
 12972 10cf 9F       		.byte	0x9f
 12973 10d0 00000000 		.4byte	0
 12974 10d4 00000000 		.4byte	0
 12975              	.LLST141:
 12976 10d8 00000000 		.4byte	.LVL387
 12977 10dc 13000000 		.4byte	.LVL389-1
 12978 10e0 0100     		.2byte	0x1
 12979 10e2 52       		.byte	0x52
 12980 10e3 13000000 		.4byte	.LVL389-1
 12981 10e7 48000000 		.4byte	.LFE314
 12982 10eb 0400     		.2byte	0x4
 12983 10ed F3       		.byte	0xf3
 12984 10ee 01       		.uleb128 0x1
 12985 10ef 52       		.byte	0x52
 12986 10f0 9F       		.byte	0x9f
 12987 10f1 00000000 		.4byte	0
 12988 10f5 00000000 		.4byte	0
 12989              	.LLST142:
 12990 10f9 00000000 		.4byte	.LVL387
 12991 10fd 13000000 		.4byte	.LVL389-1
 12992 1101 0100     		.2byte	0x1
 12993 1103 53       		.byte	0x53
 12994 1104 13000000 		.4byte	.LVL389-1
 12995 1108 48000000 		.4byte	.LFE314
 12996 110c 0400     		.2byte	0x4
ARM GAS  /tmp/cctBdhRt.s 			page 229


 12997 110e F3       		.byte	0xf3
 12998 110f 01       		.uleb128 0x1
 12999 1110 53       		.byte	0x53
 13000 1111 9F       		.byte	0x9f
 13001 1112 00000000 		.4byte	0
 13002 1116 00000000 		.4byte	0
 13003              	.LLST143:
 13004 111a 1E000000 		.4byte	.LVL391
 13005 111e 42000000 		.4byte	.LVL396
 13006 1122 0100     		.2byte	0x1
 13007 1124 56       		.byte	0x56
 13008 1125 00000000 		.4byte	0
 13009 1129 00000000 		.4byte	0
 13010              	.LLST144:
 13011 112d 00000000 		.4byte	.LVL397
 13012 1131 0E000000 		.4byte	.LVL398
 13013 1135 0100     		.2byte	0x1
 13014 1137 50       		.byte	0x50
 13015 1138 0E000000 		.4byte	.LVL398
 13016 113c 58000000 		.4byte	.LFE315
 13017 1140 0400     		.2byte	0x4
 13018 1142 F3       		.byte	0xf3
 13019 1143 01       		.uleb128 0x1
 13020 1144 50       		.byte	0x50
 13021 1145 9F       		.byte	0x9f
 13022 1146 00000000 		.4byte	0
 13023 114a 00000000 		.4byte	0
 13024              	.LLST145:
 13025 114e 00000000 		.4byte	.LVL397
 13026 1152 17000000 		.4byte	.LVL399-1
 13027 1156 0100     		.2byte	0x1
 13028 1158 51       		.byte	0x51
 13029 1159 17000000 		.4byte	.LVL399-1
 13030 115d 58000000 		.4byte	.LFE315
 13031 1161 0400     		.2byte	0x4
 13032 1163 F3       		.byte	0xf3
 13033 1164 01       		.uleb128 0x1
 13034 1165 51       		.byte	0x51
 13035 1166 9F       		.byte	0x9f
 13036 1167 00000000 		.4byte	0
 13037 116b 00000000 		.4byte	0
 13038              	.LLST146:
 13039 116f 00000000 		.4byte	.LVL397
 13040 1173 17000000 		.4byte	.LVL399-1
 13041 1177 0100     		.2byte	0x1
 13042 1179 52       		.byte	0x52
 13043 117a 17000000 		.4byte	.LVL399-1
 13044 117e 58000000 		.4byte	.LFE315
 13045 1182 0400     		.2byte	0x4
 13046 1184 F3       		.byte	0xf3
 13047 1185 01       		.uleb128 0x1
 13048 1186 52       		.byte	0x52
 13049 1187 9F       		.byte	0x9f
 13050 1188 00000000 		.4byte	0
 13051 118c 00000000 		.4byte	0
 13052              	.LLST147:
 13053 1190 00000000 		.4byte	.LVL397
ARM GAS  /tmp/cctBdhRt.s 			page 230


 13054 1194 17000000 		.4byte	.LVL399-1
 13055 1198 0100     		.2byte	0x1
 13056 119a 53       		.byte	0x53
 13057 119b 17000000 		.4byte	.LVL399-1
 13058 119f 58000000 		.4byte	.LFE315
 13059 11a3 0400     		.2byte	0x4
 13060 11a5 F3       		.byte	0xf3
 13061 11a6 01       		.uleb128 0x1
 13062 11a7 53       		.byte	0x53
 13063 11a8 9F       		.byte	0x9f
 13064 11a9 00000000 		.4byte	0
 13065 11ad 00000000 		.4byte	0
 13066              	.LLST148:
 13067 11b1 00000000 		.4byte	.LVL397
 13068 11b5 52000000 		.4byte	.LVL408
 13069 11b9 0200     		.2byte	0x2
 13070 11bb 91       		.byte	0x91
 13071 11bc 00       		.sleb128 0
 13072 11bd 52000000 		.4byte	.LVL408
 13073 11c1 58000000 		.4byte	.LFE315
 13074 11c5 0200     		.2byte	0x2
 13075 11c7 7D       		.byte	0x7d
 13076 11c8 00       		.sleb128 0
 13077 11c9 00000000 		.4byte	0
 13078 11cd 00000000 		.4byte	0
 13079              	.LLST149:
 13080 11d1 22000000 		.4byte	.LVL401
 13081 11d5 52000000 		.4byte	.LVL408
 13082 11d9 0100     		.2byte	0x1
 13083 11db 57       		.byte	0x57
 13084 11dc 00000000 		.4byte	0
 13085 11e0 00000000 		.4byte	0
 13086              	.LLST150:
 13087 11e4 00000000 		.4byte	.LVL409
 13088 11e8 0A000000 		.4byte	.LVL410
 13089 11ec 0100     		.2byte	0x1
 13090 11ee 50       		.byte	0x50
 13091 11ef 0A000000 		.4byte	.LVL410
 13092 11f3 48000000 		.4byte	.LFE316
 13093 11f7 0400     		.2byte	0x4
 13094 11f9 F3       		.byte	0xf3
 13095 11fa 01       		.uleb128 0x1
 13096 11fb 50       		.byte	0x50
 13097 11fc 9F       		.byte	0x9f
 13098 11fd 00000000 		.4byte	0
 13099 1201 00000000 		.4byte	0
 13100              	.LLST151:
 13101 1205 00000000 		.4byte	.LVL409
 13102 1209 13000000 		.4byte	.LVL411-1
 13103 120d 0100     		.2byte	0x1
 13104 120f 51       		.byte	0x51
 13105 1210 13000000 		.4byte	.LVL411-1
 13106 1214 48000000 		.4byte	.LFE316
 13107 1218 0400     		.2byte	0x4
 13108 121a F3       		.byte	0xf3
 13109 121b 01       		.uleb128 0x1
 13110 121c 51       		.byte	0x51
ARM GAS  /tmp/cctBdhRt.s 			page 231


 13111 121d 9F       		.byte	0x9f
 13112 121e 00000000 		.4byte	0
 13113 1222 00000000 		.4byte	0
 13114              	.LLST152:
 13115 1226 00000000 		.4byte	.LVL409
 13116 122a 13000000 		.4byte	.LVL411-1
 13117 122e 0100     		.2byte	0x1
 13118 1230 52       		.byte	0x52
 13119 1231 13000000 		.4byte	.LVL411-1
 13120 1235 48000000 		.4byte	.LFE316
 13121 1239 0400     		.2byte	0x4
 13122 123b F3       		.byte	0xf3
 13123 123c 01       		.uleb128 0x1
 13124 123d 52       		.byte	0x52
 13125 123e 9F       		.byte	0x9f
 13126 123f 00000000 		.4byte	0
 13127 1243 00000000 		.4byte	0
 13128              	.LLST153:
 13129 1247 00000000 		.4byte	.LVL409
 13130 124b 13000000 		.4byte	.LVL411-1
 13131 124f 0100     		.2byte	0x1
 13132 1251 53       		.byte	0x53
 13133 1252 13000000 		.4byte	.LVL411-1
 13134 1256 48000000 		.4byte	.LFE316
 13135 125a 0400     		.2byte	0x4
 13136 125c F3       		.byte	0xf3
 13137 125d 01       		.uleb128 0x1
 13138 125e 53       		.byte	0x53
 13139 125f 9F       		.byte	0x9f
 13140 1260 00000000 		.4byte	0
 13141 1264 00000000 		.4byte	0
 13142              	.LLST154:
 13143 1268 1E000000 		.4byte	.LVL413
 13144 126c 42000000 		.4byte	.LVL418
 13145 1270 0100     		.2byte	0x1
 13146 1272 56       		.byte	0x56
 13147 1273 00000000 		.4byte	0
 13148 1277 00000000 		.4byte	0
 13149              	.LLST155:
 13150 127b 00000000 		.4byte	.LVL419
 13151 127f 08000000 		.4byte	.LVL420
 13152 1283 0100     		.2byte	0x1
 13153 1285 50       		.byte	0x50
 13154 1286 08000000 		.4byte	.LVL420
 13155 128a 3C000000 		.4byte	.LFE317
 13156 128e 0400     		.2byte	0x4
 13157 1290 F3       		.byte	0xf3
 13158 1291 01       		.uleb128 0x1
 13159 1292 50       		.byte	0x50
 13160 1293 9F       		.byte	0x9f
 13161 1294 00000000 		.4byte	0
 13162 1298 00000000 		.4byte	0
 13163              	.LLST156:
 13164 129c 00000000 		.4byte	.LVL419
 13165 12a0 0F000000 		.4byte	.LVL421-1
 13166 12a4 0100     		.2byte	0x1
 13167 12a6 51       		.byte	0x51
ARM GAS  /tmp/cctBdhRt.s 			page 232


 13168 12a7 0F000000 		.4byte	.LVL421-1
 13169 12ab 3C000000 		.4byte	.LFE317
 13170 12af 0400     		.2byte	0x4
 13171 12b1 F3       		.byte	0xf3
 13172 12b2 01       		.uleb128 0x1
 13173 12b3 51       		.byte	0x51
 13174 12b4 9F       		.byte	0x9f
 13175 12b5 00000000 		.4byte	0
 13176 12b9 00000000 		.4byte	0
 13177              	.LLST157:
 13178 12bd 00000000 		.4byte	.LVL419
 13179 12c1 0F000000 		.4byte	.LVL421-1
 13180 12c5 0100     		.2byte	0x1
 13181 12c7 52       		.byte	0x52
 13182 12c8 0F000000 		.4byte	.LVL421-1
 13183 12cc 3C000000 		.4byte	.LFE317
 13184 12d0 0400     		.2byte	0x4
 13185 12d2 F3       		.byte	0xf3
 13186 12d3 01       		.uleb128 0x1
 13187 12d4 52       		.byte	0x52
 13188 12d5 9F       		.byte	0x9f
 13189 12d6 00000000 		.4byte	0
 13190 12da 00000000 		.4byte	0
 13191              	.LLST158:
 13192 12de 1A000000 		.4byte	.LVL423
 13193 12e2 36000000 		.4byte	.LVL427
 13194 12e6 0100     		.2byte	0x1
 13195 12e8 56       		.byte	0x56
 13196 12e9 00000000 		.4byte	0
 13197 12ed 00000000 		.4byte	0
 13198              	.LLST159:
 13199 12f1 00000000 		.4byte	.LVL428
 13200 12f5 08000000 		.4byte	.LVL429
 13201 12f9 0100     		.2byte	0x1
 13202 12fb 50       		.byte	0x50
 13203 12fc 08000000 		.4byte	.LVL429
 13204 1300 28000000 		.4byte	.LFE318
 13205 1304 0400     		.2byte	0x4
 13206 1306 F3       		.byte	0xf3
 13207 1307 01       		.uleb128 0x1
 13208 1308 50       		.byte	0x50
 13209 1309 9F       		.byte	0x9f
 13210 130a 00000000 		.4byte	0
 13211 130e 00000000 		.4byte	0
 13212              	.LLST160:
 13213 1312 14000000 		.4byte	.LVL432
 13214 1316 24000000 		.4byte	.LVL435
 13215 131a 0100     		.2byte	0x1
 13216 131c 55       		.byte	0x55
 13217 131d 00000000 		.4byte	0
 13218 1321 00000000 		.4byte	0
 13219              	.LLST161:
 13220 1325 00000000 		.4byte	.LVL436
 13221 1329 06000000 		.4byte	.LVL437
 13222 132d 0100     		.2byte	0x1
 13223 132f 50       		.byte	0x50
 13224 1330 06000000 		.4byte	.LVL437
ARM GAS  /tmp/cctBdhRt.s 			page 233


 13225 1334 34000000 		.4byte	.LFE319
 13226 1338 0400     		.2byte	0x4
 13227 133a F3       		.byte	0xf3
 13228 133b 01       		.uleb128 0x1
 13229 133c 50       		.byte	0x50
 13230 133d 9F       		.byte	0x9f
 13231 133e 00000000 		.4byte	0
 13232 1342 00000000 		.4byte	0
 13233              	.LLST162:
 13234 1346 00000000 		.4byte	.LVL436
 13235 134a 0D000000 		.4byte	.LVL438-1
 13236 134e 0100     		.2byte	0x1
 13237 1350 51       		.byte	0x51
 13238 1351 0D000000 		.4byte	.LVL438-1
 13239 1355 34000000 		.4byte	.LFE319
 13240 1359 0400     		.2byte	0x4
 13241 135b F3       		.byte	0xf3
 13242 135c 01       		.uleb128 0x1
 13243 135d 51       		.byte	0x51
 13244 135e 9F       		.byte	0x9f
 13245 135f 00000000 		.4byte	0
 13246 1363 00000000 		.4byte	0
 13247              	.LLST163:
 13248 1367 00000000 		.4byte	.LVL436
 13249 136b 0D000000 		.4byte	.LVL438-1
 13250 136f 0100     		.2byte	0x1
 13251 1371 52       		.byte	0x52
 13252 1372 0D000000 		.4byte	.LVL438-1
 13253 1376 2E000000 		.4byte	.LVL443
 13254 137a 0100     		.2byte	0x1
 13255 137c 56       		.byte	0x56
 13256 137d 2E000000 		.4byte	.LVL443
 13257 1381 34000000 		.4byte	.LFE319
 13258 1385 0400     		.2byte	0x4
 13259 1387 F3       		.byte	0xf3
 13260 1388 01       		.uleb128 0x1
 13261 1389 52       		.byte	0x52
 13262 138a 9F       		.byte	0x9f
 13263 138b 00000000 		.4byte	0
 13264 138f 00000000 		.4byte	0
 13265              	.LLST164:
 13266 1393 18000000 		.4byte	.LVL440
 13267 1397 2E000000 		.4byte	.LVL443
 13268 139b 0100     		.2byte	0x1
 13269 139d 55       		.byte	0x55
 13270 139e 00000000 		.4byte	0
 13271 13a2 00000000 		.4byte	0
 13272              	.LLST165:
 13273 13a6 00000000 		.4byte	.LVL444
 13274 13aa 08000000 		.4byte	.LVL445
 13275 13ae 0100     		.2byte	0x1
 13276 13b0 50       		.byte	0x50
 13277 13b1 08000000 		.4byte	.LVL445
 13278 13b5 2C000000 		.4byte	.LFE320
 13279 13b9 0400     		.2byte	0x4
 13280 13bb F3       		.byte	0xf3
 13281 13bc 01       		.uleb128 0x1
ARM GAS  /tmp/cctBdhRt.s 			page 234


 13282 13bd 50       		.byte	0x50
 13283 13be 9F       		.byte	0x9f
 13284 13bf 00000000 		.4byte	0
 13285 13c3 00000000 		.4byte	0
 13286              	.LLST166:
 13287 13c7 1C000000 		.4byte	.LVL449
 13288 13cb 26000000 		.4byte	.LVL451
 13289 13cf 0100     		.2byte	0x1
 13290 13d1 55       		.byte	0x55
 13291 13d2 00000000 		.4byte	0
 13292 13d6 00000000 		.4byte	0
 13293              	.LLST167:
 13294 13da 00000000 		.4byte	.LVL452
 13295 13de 08000000 		.4byte	.LVL453
 13296 13e2 0100     		.2byte	0x1
 13297 13e4 50       		.byte	0x50
 13298 13e5 08000000 		.4byte	.LVL453
 13299 13e9 3C000000 		.4byte	.LFE321
 13300 13ed 0400     		.2byte	0x4
 13301 13ef F3       		.byte	0xf3
 13302 13f0 01       		.uleb128 0x1
 13303 13f1 50       		.byte	0x50
 13304 13f2 9F       		.byte	0x9f
 13305 13f3 00000000 		.4byte	0
 13306 13f7 00000000 		.4byte	0
 13307              	.LLST168:
 13308 13fb 22000000 		.4byte	.LVL458
 13309 13ff 36000000 		.4byte	.LVL461
 13310 1403 0100     		.2byte	0x1
 13311 1405 54       		.byte	0x54
 13312 1406 00000000 		.4byte	0
 13313 140a 00000000 		.4byte	0
 13314              	.LLST169:
 13315 140e 00000000 		.4byte	.LVL462
 13316 1412 08000000 		.4byte	.LVL463
 13317 1416 0100     		.2byte	0x1
 13318 1418 50       		.byte	0x50
 13319 1419 08000000 		.4byte	.LVL463
 13320 141d 48000000 		.4byte	.LFE322
 13321 1421 0400     		.2byte	0x4
 13322 1423 F3       		.byte	0xf3
 13323 1424 01       		.uleb128 0x1
 13324 1425 50       		.byte	0x50
 13325 1426 9F       		.byte	0x9f
 13326 1427 00000000 		.4byte	0
 13327 142b 00000000 		.4byte	0
 13328              	.LLST170:
 13329 142f 20000000 		.4byte	.LVL468
 13330 1433 42000000 		.4byte	.LVL472
 13331 1437 0100     		.2byte	0x1
 13332 1439 54       		.byte	0x54
 13333 143a 00000000 		.4byte	0
 13334 143e 00000000 		.4byte	0
 13335              	.LLST171:
 13336 1442 00000000 		.4byte	.LVL473
 13337 1446 06000000 		.4byte	.LVL474
 13338 144a 0100     		.2byte	0x1
ARM GAS  /tmp/cctBdhRt.s 			page 235


 13339 144c 50       		.byte	0x50
 13340 144d 06000000 		.4byte	.LVL474
 13341 1451 34000000 		.4byte	.LFE323
 13342 1455 0400     		.2byte	0x4
 13343 1457 F3       		.byte	0xf3
 13344 1458 01       		.uleb128 0x1
 13345 1459 50       		.byte	0x50
 13346 145a 9F       		.byte	0x9f
 13347 145b 00000000 		.4byte	0
 13348 145f 00000000 		.4byte	0
 13349              	.LLST172:
 13350 1463 00000000 		.4byte	.LVL473
 13351 1467 0D000000 		.4byte	.LVL475-1
 13352 146b 0100     		.2byte	0x1
 13353 146d 51       		.byte	0x51
 13354 146e 0D000000 		.4byte	.LVL475-1
 13355 1472 34000000 		.4byte	.LFE323
 13356 1476 0400     		.2byte	0x4
 13357 1478 F3       		.byte	0xf3
 13358 1479 01       		.uleb128 0x1
 13359 147a 51       		.byte	0x51
 13360 147b 9F       		.byte	0x9f
 13361 147c 00000000 		.4byte	0
 13362 1480 00000000 		.4byte	0
 13363              	.LLST173:
 13364 1484 00000000 		.4byte	.LVL473
 13365 1488 0D000000 		.4byte	.LVL475-1
 13366 148c 0100     		.2byte	0x1
 13367 148e 52       		.byte	0x52
 13368 148f 0D000000 		.4byte	.LVL475-1
 13369 1493 2E000000 		.4byte	.LVL480
 13370 1497 0100     		.2byte	0x1
 13371 1499 56       		.byte	0x56
 13372 149a 2E000000 		.4byte	.LVL480
 13373 149e 34000000 		.4byte	.LFE323
 13374 14a2 0400     		.2byte	0x4
 13375 14a4 F3       		.byte	0xf3
 13376 14a5 01       		.uleb128 0x1
 13377 14a6 52       		.byte	0x52
 13378 14a7 9F       		.byte	0x9f
 13379 14a8 00000000 		.4byte	0
 13380 14ac 00000000 		.4byte	0
 13381              	.LLST174:
 13382 14b0 18000000 		.4byte	.LVL477
 13383 14b4 2E000000 		.4byte	.LVL480
 13384 14b8 0100     		.2byte	0x1
 13385 14ba 55       		.byte	0x55
 13386 14bb 00000000 		.4byte	0
 13387 14bf 00000000 		.4byte	0
 13388              	.LLST175:
 13389 14c3 00000000 		.4byte	.LVL481
 13390 14c7 08000000 		.4byte	.LVL482
 13391 14cb 0100     		.2byte	0x1
 13392 14cd 50       		.byte	0x50
 13393 14ce 08000000 		.4byte	.LVL482
 13394 14d2 2C000000 		.4byte	.LFE324
 13395 14d6 0400     		.2byte	0x4
ARM GAS  /tmp/cctBdhRt.s 			page 236


 13396 14d8 F3       		.byte	0xf3
 13397 14d9 01       		.uleb128 0x1
 13398 14da 50       		.byte	0x50
 13399 14db 9F       		.byte	0x9f
 13400 14dc 00000000 		.4byte	0
 13401 14e0 00000000 		.4byte	0
 13402              	.LLST176:
 13403 14e4 00000000 		.4byte	.LVL481
 13404 14e8 0D000000 		.4byte	.LVL483-1
 13405 14ec 0100     		.2byte	0x1
 13406 14ee 51       		.byte	0x51
 13407 14ef 0D000000 		.4byte	.LVL483-1
 13408 14f3 2C000000 		.4byte	.LFE324
 13409 14f7 0400     		.2byte	0x4
 13410 14f9 F3       		.byte	0xf3
 13411 14fa 01       		.uleb128 0x1
 13412 14fb 51       		.byte	0x51
 13413 14fc 9F       		.byte	0x9f
 13414 14fd 00000000 		.4byte	0
 13415 1501 00000000 		.4byte	0
 13416              	.LLST177:
 13417 1505 00000000 		.4byte	.LVL487
 13418 1509 08000000 		.4byte	.LVL488
 13419 150d 0100     		.2byte	0x1
 13420 150f 50       		.byte	0x50
 13421 1510 08000000 		.4byte	.LVL488
 13422 1514 30000000 		.4byte	.LFE325
 13423 1518 0400     		.2byte	0x4
 13424 151a F3       		.byte	0xf3
 13425 151b 01       		.uleb128 0x1
 13426 151c 50       		.byte	0x50
 13427 151d 9F       		.byte	0x9f
 13428 151e 00000000 		.4byte	0
 13429 1522 00000000 		.4byte	0
 13430              	.LLST178:
 13431 1526 00000000 		.4byte	.LVL487
 13432 152a 0D000000 		.4byte	.LVL489-1
 13433 152e 0100     		.2byte	0x1
 13434 1530 51       		.byte	0x51
 13435 1531 0D000000 		.4byte	.LVL489-1
 13436 1535 30000000 		.4byte	.LFE325
 13437 1539 0400     		.2byte	0x4
 13438 153b F3       		.byte	0xf3
 13439 153c 01       		.uleb128 0x1
 13440 153d 51       		.byte	0x51
 13441 153e 9F       		.byte	0x9f
 13442 153f 00000000 		.4byte	0
 13443 1543 00000000 		.4byte	0
 13444              	.LLST179:
 13445 1547 00000000 		.4byte	.LVL494
 13446 154b 08000000 		.4byte	.LVL495
 13447 154f 0100     		.2byte	0x1
 13448 1551 50       		.byte	0x50
 13449 1552 08000000 		.4byte	.LVL495
 13450 1556 3C000000 		.4byte	.LFE326
 13451 155a 0400     		.2byte	0x4
 13452 155c F3       		.byte	0xf3
ARM GAS  /tmp/cctBdhRt.s 			page 237


 13453 155d 01       		.uleb128 0x1
 13454 155e 50       		.byte	0x50
 13455 155f 9F       		.byte	0x9f
 13456 1560 00000000 		.4byte	0
 13457 1564 00000000 		.4byte	0
 13458              	.LLST180:
 13459 1568 00000000 		.4byte	.LVL494
 13460 156c 0D000000 		.4byte	.LVL496-1
 13461 1570 0100     		.2byte	0x1
 13462 1572 51       		.byte	0x51
 13463 1573 0D000000 		.4byte	.LVL496-1
 13464 1577 32000000 		.4byte	.LVL501
 13465 157b 0100     		.2byte	0x1
 13466 157d 54       		.byte	0x54
 13467 157e 32000000 		.4byte	.LVL501
 13468 1582 3C000000 		.4byte	.LFE326
 13469 1586 0400     		.2byte	0x4
 13470 1588 F3       		.byte	0xf3
 13471 1589 01       		.uleb128 0x1
 13472 158a 51       		.byte	0x51
 13473 158b 9F       		.byte	0x9f
 13474 158c 00000000 		.4byte	0
 13475 1590 00000000 		.4byte	0
 13476              		.section	.debug_aranges,"",%progbits
 13477 0000 4C020000 		.4byte	0x24c
 13478 0004 0200     		.2byte	0x2
 13479 0006 00000000 		.4byte	.Ldebug_info0
 13480 000a 04       		.byte	0x4
 13481 000b 00       		.byte	0
 13482 000c 0000     		.2byte	0
 13483 000e 0000     		.2byte	0
 13484 0010 00000000 		.4byte	.LFB256
 13485 0014 54000000 		.4byte	.LFE256-.LFB256
 13486 0018 00000000 		.4byte	.LFB258
 13487 001c 24000000 		.4byte	.LFE258-.LFB258
 13488 0020 00000000 		.4byte	.LFB257
 13489 0024 1E000000 		.4byte	.LFE257-.LFB257
 13490 0028 00000000 		.4byte	.LFB259
 13491 002c 06000000 		.4byte	.LFE259-.LFB259
 13492 0030 00000000 		.4byte	.LFB260
 13493 0034 06000000 		.4byte	.LFE260-.LFB260
 13494 0038 00000000 		.4byte	.LFB261
 13495 003c 06000000 		.4byte	.LFE261-.LFB261
 13496 0040 00000000 		.4byte	.LFB262
 13497 0044 06000000 		.4byte	.LFE262-.LFB262
 13498 0048 00000000 		.4byte	.LFB263
 13499 004c 06000000 		.4byte	.LFE263-.LFB263
 13500 0050 00000000 		.4byte	.LFB264
 13501 0054 06000000 		.4byte	.LFE264-.LFB264
 13502 0058 00000000 		.4byte	.LFB265
 13503 005c 06000000 		.4byte	.LFE265-.LFB265
 13504 0060 00000000 		.4byte	.LFB266
 13505 0064 06000000 		.4byte	.LFE266-.LFB266
 13506 0068 00000000 		.4byte	.LFB267
 13507 006c 06000000 		.4byte	.LFE267-.LFB267
 13508 0070 00000000 		.4byte	.LFB268
 13509 0074 06000000 		.4byte	.LFE268-.LFB268
ARM GAS  /tmp/cctBdhRt.s 			page 238


 13510 0078 00000000 		.4byte	.LFB269
 13511 007c 06000000 		.4byte	.LFE269-.LFB269
 13512 0080 00000000 		.4byte	.LFB270
 13513 0084 06000000 		.4byte	.LFE270-.LFB270
 13514 0088 00000000 		.4byte	.LFB271
 13515 008c 06000000 		.4byte	.LFE271-.LFB271
 13516 0090 00000000 		.4byte	.LFB272
 13517 0094 06000000 		.4byte	.LFE272-.LFB272
 13518 0098 00000000 		.4byte	.LFB273
 13519 009c 06000000 		.4byte	.LFE273-.LFB273
 13520 00a0 00000000 		.4byte	.LFB274
 13521 00a4 06000000 		.4byte	.LFE274-.LFB274
 13522 00a8 00000000 		.4byte	.LFB275
 13523 00ac 06000000 		.4byte	.LFE275-.LFB275
 13524 00b0 00000000 		.4byte	.LFB276
 13525 00b4 28000000 		.4byte	.LFE276-.LFB276
 13526 00b8 00000000 		.4byte	.LFB277
 13527 00bc 28000000 		.4byte	.LFE277-.LFB277
 13528 00c0 00000000 		.4byte	.LFB278
 13529 00c4 3C000000 		.4byte	.LFE278-.LFB278
 13530 00c8 00000000 		.4byte	.LFB279
 13531 00cc 34000000 		.4byte	.LFE279-.LFB279
 13532 00d0 00000000 		.4byte	.LFB280
 13533 00d4 44000000 		.4byte	.LFE280-.LFB280
 13534 00d8 00000000 		.4byte	.LFB281
 13535 00dc 50000000 		.4byte	.LFE281-.LFB281
 13536 00e0 00000000 		.4byte	.LFB282
 13537 00e4 3C000000 		.4byte	.LFE282-.LFB282
 13538 00e8 00000000 		.4byte	.LFB283
 13539 00ec 34000000 		.4byte	.LFE283-.LFB283
 13540 00f0 00000000 		.4byte	.LFB284
 13541 00f4 3C000000 		.4byte	.LFE284-.LFB284
 13542 00f8 00000000 		.4byte	.LFB285
 13543 00fc 44000000 		.4byte	.LFE285-.LFB285
 13544 0100 00000000 		.4byte	.LFB286
 13545 0104 30000000 		.4byte	.LFE286-.LFB286
 13546 0108 00000000 		.4byte	.LFB287
 13547 010c 28000000 		.4byte	.LFE287-.LFB287
 13548 0110 00000000 		.4byte	.LFB288
 13549 0114 38000000 		.4byte	.LFE288-.LFB288
 13550 0118 00000000 		.4byte	.LFB289
 13551 011c 30000000 		.4byte	.LFE289-.LFB289
 13552 0120 00000000 		.4byte	.LFB290
 13553 0124 28000000 		.4byte	.LFE290-.LFB290
 13554 0128 00000000 		.4byte	.LFB291
 13555 012c 44000000 		.4byte	.LFE291-.LFB291
 13556 0130 00000000 		.4byte	.LFB292
 13557 0134 30000000 		.4byte	.LFE292-.LFB292
 13558 0138 00000000 		.4byte	.LFB293
 13559 013c 28000000 		.4byte	.LFE293-.LFB293
 13560 0140 00000000 		.4byte	.LFB294
 13561 0144 2C000000 		.4byte	.LFE294-.LFB294
 13562 0148 00000000 		.4byte	.LFB295
 13563 014c 44000000 		.4byte	.LFE295-.LFB295
 13564 0150 00000000 		.4byte	.LFB296
 13565 0154 34000000 		.4byte	.LFE296-.LFB296
 13566 0158 00000000 		.4byte	.LFB297
ARM GAS  /tmp/cctBdhRt.s 			page 239


 13567 015c 2C000000 		.4byte	.LFE297-.LFB297
 13568 0160 00000000 		.4byte	.LFB298
 13569 0164 3C000000 		.4byte	.LFE298-.LFB298
 13570 0168 00000000 		.4byte	.LFB299
 13571 016c 30000000 		.4byte	.LFE299-.LFB299
 13572 0170 00000000 		.4byte	.LFB300
 13573 0174 30000000 		.4byte	.LFE300-.LFB300
 13574 0178 00000000 		.4byte	.LFB301
 13575 017c 1A000000 		.4byte	.LFE301-.LFB301
 13576 0180 00000000 		.4byte	.LFB302
 13577 0184 1A000000 		.4byte	.LFE302-.LFB302
 13578 0188 00000000 		.4byte	.LFB303
 13579 018c 1A000000 		.4byte	.LFE303-.LFB303
 13580 0190 00000000 		.4byte	.LFB304
 13581 0194 3C000000 		.4byte	.LFE304-.LFB304
 13582 0198 00000000 		.4byte	.LFB305
 13583 019c 28000000 		.4byte	.LFE305-.LFB305
 13584 01a0 00000000 		.4byte	.LFB306
 13585 01a4 28000000 		.4byte	.LFE306-.LFB306
 13586 01a8 00000000 		.4byte	.LFB307
 13587 01ac 64000000 		.4byte	.LFE307-.LFB307
 13588 01b0 00000000 		.4byte	.LFB308
 13589 01b4 14000000 		.4byte	.LFE308-.LFB308
 13590 01b8 00000000 		.4byte	.LFB309
 13591 01bc 64000000 		.4byte	.LFE309-.LFB309
 13592 01c0 00000000 		.4byte	.LFB310
 13593 01c4 50000000 		.4byte	.LFE310-.LFB310
 13594 01c8 00000000 		.4byte	.LFB311
 13595 01cc 7C000000 		.4byte	.LFE311-.LFB311
 13596 01d0 00000000 		.4byte	.LFB312
 13597 01d4 7C000000 		.4byte	.LFE312-.LFB312
 13598 01d8 00000000 		.4byte	.LFB313
 13599 01dc 58000000 		.4byte	.LFE313-.LFB313
 13600 01e0 00000000 		.4byte	.LFB314
 13601 01e4 48000000 		.4byte	.LFE314-.LFB314
 13602 01e8 00000000 		.4byte	.LFB315
 13603 01ec 58000000 		.4byte	.LFE315-.LFB315
 13604 01f0 00000000 		.4byte	.LFB316
 13605 01f4 48000000 		.4byte	.LFE316-.LFB316
 13606 01f8 00000000 		.4byte	.LFB317
 13607 01fc 3C000000 		.4byte	.LFE317-.LFB317
 13608 0200 00000000 		.4byte	.LFB318
 13609 0204 28000000 		.4byte	.LFE318-.LFB318
 13610 0208 00000000 		.4byte	.LFB319
 13611 020c 34000000 		.4byte	.LFE319-.LFB319
 13612 0210 00000000 		.4byte	.LFB320
 13613 0214 2C000000 		.4byte	.LFE320-.LFB320
 13614 0218 00000000 		.4byte	.LFB321
 13615 021c 3C000000 		.4byte	.LFE321-.LFB321
 13616 0220 00000000 		.4byte	.LFB322
 13617 0224 48000000 		.4byte	.LFE322-.LFB322
 13618 0228 00000000 		.4byte	.LFB323
 13619 022c 34000000 		.4byte	.LFE323-.LFB323
 13620 0230 00000000 		.4byte	.LFB324
 13621 0234 2C000000 		.4byte	.LFE324-.LFB324
 13622 0238 00000000 		.4byte	.LFB325
 13623 023c 30000000 		.4byte	.LFE325-.LFB325
ARM GAS  /tmp/cctBdhRt.s 			page 240


 13624 0240 00000000 		.4byte	.LFB326
 13625 0244 3C000000 		.4byte	.LFE326-.LFB326
 13626 0248 00000000 		.4byte	0
 13627 024c 00000000 		.4byte	0
 13628              		.section	.debug_ranges,"",%progbits
 13629              	.Ldebug_ranges0:
 13630 0000 00000000 		.4byte	.LFB256
 13631 0004 54000000 		.4byte	.LFE256
 13632 0008 00000000 		.4byte	.LFB258
 13633 000c 24000000 		.4byte	.LFE258
 13634 0010 00000000 		.4byte	.LFB257
 13635 0014 1E000000 		.4byte	.LFE257
 13636 0018 00000000 		.4byte	.LFB259
 13637 001c 06000000 		.4byte	.LFE259
 13638 0020 00000000 		.4byte	.LFB260
 13639 0024 06000000 		.4byte	.LFE260
 13640 0028 00000000 		.4byte	.LFB261
 13641 002c 06000000 		.4byte	.LFE261
 13642 0030 00000000 		.4byte	.LFB262
 13643 0034 06000000 		.4byte	.LFE262
 13644 0038 00000000 		.4byte	.LFB263
 13645 003c 06000000 		.4byte	.LFE263
 13646 0040 00000000 		.4byte	.LFB264
 13647 0044 06000000 		.4byte	.LFE264
 13648 0048 00000000 		.4byte	.LFB265
 13649 004c 06000000 		.4byte	.LFE265
 13650 0050 00000000 		.4byte	.LFB266
 13651 0054 06000000 		.4byte	.LFE266
 13652 0058 00000000 		.4byte	.LFB267
 13653 005c 06000000 		.4byte	.LFE267
 13654 0060 00000000 		.4byte	.LFB268
 13655 0064 06000000 		.4byte	.LFE268
 13656 0068 00000000 		.4byte	.LFB269
 13657 006c 06000000 		.4byte	.LFE269
 13658 0070 00000000 		.4byte	.LFB270
 13659 0074 06000000 		.4byte	.LFE270
 13660 0078 00000000 		.4byte	.LFB271
 13661 007c 06000000 		.4byte	.LFE271
 13662 0080 00000000 		.4byte	.LFB272
 13663 0084 06000000 		.4byte	.LFE272
 13664 0088 00000000 		.4byte	.LFB273
 13665 008c 06000000 		.4byte	.LFE273
 13666 0090 00000000 		.4byte	.LFB274
 13667 0094 06000000 		.4byte	.LFE274
 13668 0098 00000000 		.4byte	.LFB275
 13669 009c 06000000 		.4byte	.LFE275
 13670 00a0 00000000 		.4byte	.LFB276
 13671 00a4 28000000 		.4byte	.LFE276
 13672 00a8 00000000 		.4byte	.LFB277
 13673 00ac 28000000 		.4byte	.LFE277
 13674 00b0 00000000 		.4byte	.LFB278
 13675 00b4 3C000000 		.4byte	.LFE278
 13676 00b8 00000000 		.4byte	.LFB279
 13677 00bc 34000000 		.4byte	.LFE279
 13678 00c0 00000000 		.4byte	.LFB280
 13679 00c4 44000000 		.4byte	.LFE280
 13680 00c8 00000000 		.4byte	.LFB281
ARM GAS  /tmp/cctBdhRt.s 			page 241


 13681 00cc 50000000 		.4byte	.LFE281
 13682 00d0 00000000 		.4byte	.LFB282
 13683 00d4 3C000000 		.4byte	.LFE282
 13684 00d8 00000000 		.4byte	.LFB283
 13685 00dc 34000000 		.4byte	.LFE283
 13686 00e0 00000000 		.4byte	.LFB284
 13687 00e4 3C000000 		.4byte	.LFE284
 13688 00e8 00000000 		.4byte	.LFB285
 13689 00ec 44000000 		.4byte	.LFE285
 13690 00f0 00000000 		.4byte	.LFB286
 13691 00f4 30000000 		.4byte	.LFE286
 13692 00f8 00000000 		.4byte	.LFB287
 13693 00fc 28000000 		.4byte	.LFE287
 13694 0100 00000000 		.4byte	.LFB288
 13695 0104 38000000 		.4byte	.LFE288
 13696 0108 00000000 		.4byte	.LFB289
 13697 010c 30000000 		.4byte	.LFE289
 13698 0110 00000000 		.4byte	.LFB290
 13699 0114 28000000 		.4byte	.LFE290
 13700 0118 00000000 		.4byte	.LFB291
 13701 011c 44000000 		.4byte	.LFE291
 13702 0120 00000000 		.4byte	.LFB292
 13703 0124 30000000 		.4byte	.LFE292
 13704 0128 00000000 		.4byte	.LFB293
 13705 012c 28000000 		.4byte	.LFE293
 13706 0130 00000000 		.4byte	.LFB294
 13707 0134 2C000000 		.4byte	.LFE294
 13708 0138 00000000 		.4byte	.LFB295
 13709 013c 44000000 		.4byte	.LFE295
 13710 0140 00000000 		.4byte	.LFB296
 13711 0144 34000000 		.4byte	.LFE296
 13712 0148 00000000 		.4byte	.LFB297
 13713 014c 2C000000 		.4byte	.LFE297
 13714 0150 00000000 		.4byte	.LFB298
 13715 0154 3C000000 		.4byte	.LFE298
 13716 0158 00000000 		.4byte	.LFB299
 13717 015c 30000000 		.4byte	.LFE299
 13718 0160 00000000 		.4byte	.LFB300
 13719 0164 30000000 		.4byte	.LFE300
 13720 0168 00000000 		.4byte	.LFB301
 13721 016c 1A000000 		.4byte	.LFE301
 13722 0170 00000000 		.4byte	.LFB302
 13723 0174 1A000000 		.4byte	.LFE302
 13724 0178 00000000 		.4byte	.LFB303
 13725 017c 1A000000 		.4byte	.LFE303
 13726 0180 00000000 		.4byte	.LFB304
 13727 0184 3C000000 		.4byte	.LFE304
 13728 0188 00000000 		.4byte	.LFB305
 13729 018c 28000000 		.4byte	.LFE305
 13730 0190 00000000 		.4byte	.LFB306
 13731 0194 28000000 		.4byte	.LFE306
 13732 0198 00000000 		.4byte	.LFB307
 13733 019c 64000000 		.4byte	.LFE307
 13734 01a0 00000000 		.4byte	.LFB308
 13735 01a4 14000000 		.4byte	.LFE308
 13736 01a8 00000000 		.4byte	.LFB309
 13737 01ac 64000000 		.4byte	.LFE309
ARM GAS  /tmp/cctBdhRt.s 			page 242


 13738 01b0 00000000 		.4byte	.LFB310
 13739 01b4 50000000 		.4byte	.LFE310
 13740 01b8 00000000 		.4byte	.LFB311
 13741 01bc 7C000000 		.4byte	.LFE311
 13742 01c0 00000000 		.4byte	.LFB312
 13743 01c4 7C000000 		.4byte	.LFE312
 13744 01c8 00000000 		.4byte	.LFB313
 13745 01cc 58000000 		.4byte	.LFE313
 13746 01d0 00000000 		.4byte	.LFB314
 13747 01d4 48000000 		.4byte	.LFE314
 13748 01d8 00000000 		.4byte	.LFB315
 13749 01dc 58000000 		.4byte	.LFE315
 13750 01e0 00000000 		.4byte	.LFB316
 13751 01e4 48000000 		.4byte	.LFE316
 13752 01e8 00000000 		.4byte	.LFB317
 13753 01ec 3C000000 		.4byte	.LFE317
 13754 01f0 00000000 		.4byte	.LFB318
 13755 01f4 28000000 		.4byte	.LFE318
 13756 01f8 00000000 		.4byte	.LFB319
 13757 01fc 34000000 		.4byte	.LFE319
 13758 0200 00000000 		.4byte	.LFB320
 13759 0204 2C000000 		.4byte	.LFE320
 13760 0208 00000000 		.4byte	.LFB321
 13761 020c 3C000000 		.4byte	.LFE321
 13762 0210 00000000 		.4byte	.LFB322
 13763 0214 48000000 		.4byte	.LFE322
 13764 0218 00000000 		.4byte	.LFB323
 13765 021c 34000000 		.4byte	.LFE323
 13766 0220 00000000 		.4byte	.LFB324
 13767 0224 2C000000 		.4byte	.LFE324
 13768 0228 00000000 		.4byte	.LFB325
 13769 022c 30000000 		.4byte	.LFE325
 13770 0230 00000000 		.4byte	.LFB326
 13771 0234 3C000000 		.4byte	.LFE326
 13772 0238 00000000 		.4byte	0
 13773 023c 00000000 		.4byte	0
 13774              		.section	.debug_line,"",%progbits
 13775              	.Ldebug_line0:
 13776 0000 A1090000 		.section	.debug_str,"MS",%progbits,1
 13776      0200E802 
 13776      00000201 
 13776      FB0E0D00 
 13776      01010101 
 13777              	.LASF87:
 13778 0000 4D314152 		.ascii	"M1AR\000"
 13778      00
 13779              	.LASF122:
 13780 0005 73746D33 		.ascii	"stm32_dma_stream_t\000"
 13780      325F646D 
 13780      615F7374 
 13780      7265616D 
 13780      5F7400
 13781              	.LASF19:
 13782 0018 73697A65 		.ascii	"size_t\000"
 13782      5F7400
 13783              	.LASF84:
 13784 001f 73697A65 		.ascii	"sizetype\000"
ARM GAS  /tmp/cctBdhRt.s 			page 243


 13784      74797065 
 13784      00
 13785              	.LASF105:
 13786 0028 77747365 		.ascii	"wtsemp\000"
 13786      6D7000
 13787              	.LASF29:
 13788 002f 73797374 		.ascii	"systime_t\000"
 13788      696D655F 
 13788      7400
 13789              	.LASF34:
 13790 0039 705F6374 		.ascii	"p_ctx\000"
 13790      7800
 13791              	.LASF25:
 13792 003f 74707269 		.ascii	"tprio_t\000"
 13792      6F5F7400 
 13793              	.LASF158:
 13794 0047 65776F72 		.ascii	"eword_t\000"
 13794      645F7400 
 13795              	.LASF44:
 13796 004f 705F6D73 		.ascii	"p_msgqueue\000"
 13796      67717565 
 13796      756500
 13797              	.LASF60:
 13798 005a 725F6374 		.ascii	"r_ctx\000"
 13798      7800
 13799              	.LASF166:
 13800 0060 74726965 		.ascii	"tries\000"
 13800      7300
 13801              	.LASF16:
 13802 0066 696E7433 		.ascii	"int32_t\000"
 13802      325F7400 
 13803              	.LASF64:
 13804 006e 76746675 		.ascii	"vtfunc_t\000"
 13804      6E635F74 
 13804      00
 13805              	.LASF73:
 13806 0077 63685F76 		.ascii	"ch_virtual_timers_list\000"
 13806      69727475 
 13806      616C5F74 
 13806      696D6572 
 13806      735F6C69 
 13807              	.LASF201:
 13808 008e 70437572 		.ascii	"pCurrCount\000"
 13808      72436F75 
 13808      6E7400
 13809              	.LASF157:
 13810 0099 75696E74 		.ascii	"uint32\000"
 13810      333200
 13811              	.LASF152:
 13812 00a0 7373706F 		.ascii	"ssport\000"
 13812      727400
 13813              	.LASF172:
 13814 00a7 43433235 		.ascii	"CC2520_SRXON\000"
 13814      32305F53 
 13814      52584F4E 
 13814      00
 13815              	.LASF206:
ARM GAS  /tmp/cctBdhRt.s 			page 244


 13816 00b4 43433235 		.ascii	"CC2520_TXBUF8\000"
 13816      32305F54 
 13816      58425546 
 13816      3800
 13817              	.LASF173:
 13818 00c2 43433235 		.ascii	"CC2520_STXON\000"
 13818      32305F53 
 13818      54584F4E 
 13818      00
 13819              	.LASF182:
 13820 00cf 43433235 		.ascii	"CC2520_SRXMASKBITSET\000"
 13820      32305F53 
 13820      52584D41 
 13820      534B4249 
 13820      54534554 
 13821              	.LASF183:
 13822 00e4 43433235 		.ascii	"CC2520_SRXMASKBITCLR\000"
 13822      32305F53 
 13822      52584D41 
 13822      534B4249 
 13822      54434C52 
 13823              	.LASF143:
 13824 00f9 636F6E66 		.ascii	"config\000"
 13824      696700
 13825              	.LASF142:
 13826 0100 73746174 		.ascii	"state\000"
 13826      6500
 13827              	.LASF245:
 13828 0106 53504944 		.ascii	"SPID2\000"
 13828      3200
 13829              	.LASF230:
 13830 010c 43433235 		.ascii	"CC2520_ECBO\000"
 13830      32305F45 
 13830      43424F00 
 13831              	.LASF231:
 13832 0118 43433235 		.ascii	"CC2520_ECBX\000"
 13832      32305F45 
 13832      43425800 
 13833              	.LASF225:
 13834 0124 43433235 		.ascii	"CC2520_CBCMAC\000"
 13834      32305F43 
 13834      42434D41 
 13834      4300
 13835              	.LASF218:
 13836 0132 43433235 		.ascii	"CC2520_MEMXCP\000"
 13836      32305F4D 
 13836      454D5843 
 13836      5000
 13837              	.LASF161:
 13838 0140 636F756E 		.ascii	"count\000"
 13838      7400
 13839              	.LASF180:
 13840 0146 43433235 		.ascii	"CC2520_SACKPEND\000"
 13840      32305F53 
 13840      41434B50 
 13840      454E4400 
 13841              	.LASF113:
ARM GAS  /tmp/cctBdhRt.s 			page 245


 13842 0156 6D5F6F77 		.ascii	"m_owner\000"
 13842      6E657200 
 13843              	.LASF71:
 13844 015e 76745F70 		.ascii	"vt_par\000"
 13844      617200
 13845              	.LASF151:
 13846 0165 656E645F 		.ascii	"end_cb\000"
 13846      636200
 13847              	.LASF102:
 13848 016c 65786974 		.ascii	"exitcode\000"
 13848      636F6465 
 13848      00
 13849              	.LASF92:
 13850 0175 49325343 		.ascii	"I2SCFGR\000"
 13850      46475200 
 13851              	.LASF3:
 13852 017d 5F5F7569 		.ascii	"__uint8_t\000"
 13852      6E74385F 
 13852      7400
 13853              	.LASF107:
 13854 0187 65776D61 		.ascii	"ewmask\000"
 13854      736B00
 13855              	.LASF128:
 13856 018e 50555044 		.ascii	"PUPDR\000"
 13856      5200
 13857              	.LASF170:
 13858 0194 43433235 		.ascii	"CC2520_SXOSCON\000"
 13858      32305F53 
 13858      584F5343 
 13858      4F4E00
 13859              	.LASF35:
 13860 01a3 705F6E65 		.ascii	"p_newer\000"
 13860      77657200 
 13861              	.LASF136:
 13862 01ab 5350495F 		.ascii	"SPI_STOP\000"
 13862      53544F50 
 13862      00
 13863              	.LASF7:
 13864 01b4 6C6F6E67 		.ascii	"long int\000"
 13864      20696E74 
 13864      00
 13865              	.LASF135:
 13866 01bd 5350495F 		.ascii	"SPI_UNINIT\000"
 13866      554E494E 
 13866      495400
 13867              	.LASF31:
 13868 01c8 705F6E65 		.ascii	"p_next\000"
 13868      787400
 13869              	.LASF32:
 13870 01cf 705F7072 		.ascii	"p_prev\000"
 13870      657600
 13871              	.LASF134:
 13872 01d6 696F706F 		.ascii	"ioportid_t\000"
 13872      72746964 
 13872      5F7400
 13873              	.LASF22:
 13874 01e1 74737461 		.ascii	"tstate_t\000"
ARM GAS  /tmp/cctBdhRt.s 			page 246


 13874      74655F74 
 13874      00
 13875              	.LASF200:
 13876 01ea 43433235 		.ascii	"CC2520_RXBUFCP_BEGIN\000"
 13876      32305F52 
 13876      58425546 
 13876      43505F42 
 13876      4547494E 
 13877              	.LASF54:
 13878 01ff 74687265 		.ascii	"threads_queue_t\000"
 13878      6164735F 
 13878      71756575 
 13878      655F7400 
 13879              	.LASF47:
 13880 020f 705F6D74 		.ascii	"p_mtxlist\000"
 13880      786C6973 
 13880      7400
 13881              	.LASF184:
 13882 0219 43433235 		.ascii	"CC2520_IBUFLD\000"
 13882      32305F49 
 13882      4255464C 
 13882      4400
 13883              	.LASF95:
 13884 0227 72656761 		.ascii	"regarm_t\000"
 13884      726D5F74 
 13884      00
 13885              	.LASF175:
 13886 0230 43433235 		.ascii	"CC2520_SRFOFF\000"
 13886      32305F53 
 13886      52464F46 
 13886      4600
 13887              	.LASF250:
 13888 023e 474E5520 		.ascii	"GNU C 4.9.3 20150529 (release) [ARM/embedded-4_9-br"
 13888      4320342E 
 13888      392E3320 
 13888      32303135 
 13888      30353239 
 13889 0271 616E6368 		.ascii	"anch revision 227977] -mcpu=cortex-m4 -mfloat-abi=h"
 13889      20726576 
 13889      6973696F 
 13889      6E203232 
 13889      37393737 
 13890 02a4 61726420 		.ascii	"ard -mfpu=fpv4-sp-d16 -mno-thumb-interwork -mthumb "
 13890      2D6D6670 
 13890      753D6670 
 13890      76342D73 
 13890      702D6431 
 13891 02d7 2D676764 		.ascii	"-ggdb -O2 -std=gnu99 -fomit-frame-pointer -falign-f"
 13891      62202D4F 
 13891      32202D73 
 13891      74643D67 
 13891      6E753939 
 13892 030a 756E6374 		.ascii	"unctions=16 -ffunction-sections -fdata-sections -fn"
 13892      696F6E73 
 13892      3D313620 
 13892      2D666675 
 13892      6E637469 
ARM GAS  /tmp/cctBdhRt.s 			page 247


 13893 033d 6F2D636F 		.ascii	"o-common -fsingle-precision-constant\000"
 13893      6D6D6F6E 
 13893      202D6673 
 13893      696E676C 
 13893      652D7072 
 13894              	.LASF0:
 13895 0362 7369676E 		.ascii	"signed char\000"
 13895      65642063 
 13895      68617200 
 13896              	.LASF41:
 13897 036e 705F7072 		.ascii	"p_preempt\000"
 13897      65656D70 
 13897      7400
 13898              	.LASF14:
 13899 0378 75696E74 		.ascii	"uint8_t\000"
 13899      385F7400 
 13900              	.LASF191:
 13901 0380 43433235 		.ascii	"CC2520_MEMRD16\000"
 13901      32305F4D 
 13901      454D5244 
 13901      313600
 13902              	.LASF27:
 13903 038f 6576656E 		.ascii	"eventmask_t\000"
 13903      746D6173 
 13903      6B5F7400 
 13904              	.LASF97:
 13905 039b 636F6E74 		.ascii	"context\000"
 13905      65787400 
 13906              	.LASF176:
 13907 03a3 43433235 		.ascii	"CC2520_SXOSCOFF\000"
 13907      32305F53 
 13907      584F5343 
 13907      4F464600 
 13908              	.LASF104:
 13909 03b3 77747472 		.ascii	"wttrp\000"
 13909      7000
 13910              	.LASF1:
 13911 03b9 756E7369 		.ascii	"unsigned char\000"
 13911      676E6564 
 13911      20636861 
 13911      7200
 13912              	.LASF133:
 13913 03c7 73746D33 		.ascii	"stm32_gpio_t\000"
 13913      325F6770 
 13913      696F5F74 
 13913      00
 13914              	.LASF150:
 13915 03d4 73706963 		.ascii	"spicallback_t\000"
 13915      616C6C62 
 13915      61636B5F 
 13915      7400
 13916              	.LASF77:
 13917 03e2 70616E69 		.ascii	"panic_msg\000"
 13917      635F6D73 
 13917      6700
 13918              	.LASF192:
 13919 03ec 43433235 		.ascii	"CC2520_MEMRD24\000"
ARM GAS  /tmp/cctBdhRt.s 			page 248


 13919      32305F4D 
 13919      454D5244 
 13919      323400
 13920              	.LASF61:
 13921 03fb 725F6E65 		.ascii	"r_newer\000"
 13921      77657200 
 13922              	.LASF75:
 13923 0403 73797374 		.ascii	"system_debug_t\000"
 13923      656D5F64 
 13923      65627567 
 13923      5F7400
 13924              	.LASF123:
 13925 0412 5F426F6F 		.ascii	"_Bool\000"
 13925      6C00
 13926              	.LASF190:
 13927 0418 76616C75 		.ascii	"value\000"
 13927      6500
 13928              	.LASF115:
 13929 041e 63686172 		.ascii	"char\000"
 13929      00
 13930              	.LASF221:
 13931 0423 62697441 		.ascii	"bitAddr\000"
 13931      64647200 
 13932              	.LASF119:
 13933 042b 69736869 		.ascii	"ishift\000"
 13933      667400
 13934              	.LASF33:
 13935 0432 705F7072 		.ascii	"p_prio\000"
 13935      696F00
 13936              	.LASF185:
 13937 0439 43433235 		.ascii	"CC2520_SRES\000"
 13937      32305F53 
 13937      52455300 
 13938              	.LASF141:
 13939 0445 53504944 		.ascii	"SPIDriver\000"
 13939      72697665 
 13939      7200
 13940              	.LASF4:
 13941 044f 5F5F7569 		.ascii	"__uint16_t\000"
 13941      6E743136 
 13941      5F7400
 13942              	.LASF186:
 13943 045a 43433235 		.ascii	"CC2520_MEMRD\000"
 13943      32305F4D 
 13943      454D5244 
 13943      00
 13944              	.LASF103:
 13945 0467 77746F62 		.ascii	"wtobjp\000"
 13945      6A7000
 13946              	.LASF237:
 13947 046e 43433235 		.ascii	"CC2520_REGRD8\000"
 13947      32305F52 
 13947      45475244 
 13947      3800
 13948              	.LASF96:
 13949 047c 73746B61 		.ascii	"stkalign_t\000"
 13949      6C69676E 
ARM GAS  /tmp/cctBdhRt.s 			page 249


 13949      5F7400
 13950              	.LASF117:
 13951 0487 73747265 		.ascii	"stream\000"
 13951      616D00
 13952              	.LASF28:
 13953 048e 636E745F 		.ascii	"cnt_t\000"
 13953      7400
 13954              	.LASF70:
 13955 0494 76745F66 		.ascii	"vt_func\000"
 13955      756E6300 
 13956              	.LASF202:
 13957 049c 43433235 		.ascii	"CC2520_RXBUFCP_END\000"
 13957      32305F52 
 13957      58425546 
 13957      43505F45 
 13957      4E4400
 13958              	.LASF46:
 13959 04af 705F6570 		.ascii	"p_epending\000"
 13959      656E6469 
 13959      6E6700
 13960              	.LASF227:
 13961 04ba 43433235 		.ascii	"CC2520_CCM\000"
 13961      32305F43 
 13961      434D00
 13962              	.LASF106:
 13963 04c5 77746D74 		.ascii	"wtmtxp\000"
 13963      787000
 13964              	.LASF163:
 13965 04cc 7374726F 		.ascii	"strobe\000"
 13965      626500
 13966              	.LASF57:
 13967 04d3 63685F72 		.ascii	"ch_ready_list\000"
 13967      65616479 
 13967      5F6C6973 
 13967      7400
 13968              	.LASF215:
 13969 04e1 616E644D 		.ascii	"andMask\000"
 13969      61736B00 
 13970              	.LASF124:
 13971 04e9 636C6561 		.ascii	"clear\000"
 13971      7200
 13972              	.LASF171:
 13973 04ef 43433235 		.ascii	"CC2520_STXCAL\000"
 13973      32305F53 
 13973      54584341 
 13973      4C00
 13974              	.LASF238:
 13975 04fd 43433235 		.ascii	"CC2520_REGRD16\000"
 13975      32305F52 
 13975      45475244 
 13975      313600
 13976              	.LASF203:
 13977 050c 43433235 		.ascii	"CC2520_RXBUFMOV\000"
 13977      32305F52 
 13977      58425546 
 13977      4D4F5600 
 13978              	.LASF194:
ARM GAS  /tmp/cctBdhRt.s 			page 250


 13979 051c 43433235 		.ascii	"CC2520_MEMWR8\000"
 13979      32305F4D 
 13979      454D5752 
 13979      3800
 13980              	.LASF212:
 13981 052a 43433235 		.ascii	"CC2520_RXMASKOR\000"
 13981      32305F52 
 13981      584D4153 
 13981      4B4F5200 
 13982              	.LASF234:
 13983 053a 43433235 		.ascii	"CC2520_ABORT\000"
 13983      32305F41 
 13983      424F5254 
 13983      00
 13984              	.LASF11:
 13985 0547 5F5F7569 		.ascii	"__uint64_t\000"
 13985      6E743634 
 13985      5F7400
 13986              	.LASF9:
 13987 0552 6C6F6E67 		.ascii	"long unsigned int\000"
 13987      20756E73 
 13987      69676E65 
 13987      6420696E 
 13987      7400
 13988              	.LASF239:
 13989 0564 43433235 		.ascii	"CC2520_REGRD24\000"
 13989      32305F52 
 13989      45475244 
 13989      323400
 13990              	.LASF208:
 13991 0573 43433235 		.ascii	"CC2520_TXBUFCP\000"
 13991      32305F54 
 13991      58425546 
 13991      435000
 13992              	.LASF108:
 13993 0582 63685F73 		.ascii	"ch_semaphore\000"
 13993      656D6170 
 13993      686F7265 
 13993      00
 13994              	.LASF52:
 13995 058f 63685F74 		.ascii	"ch_thread\000"
 13995      68726561 
 13995      6400
 13996              	.LASF72:
 13997 0599 76697274 		.ascii	"virtual_timers_list_t\000"
 13997      75616C5F 
 13997      74696D65 
 13997      72735F6C 
 13997      6973745F 
 13998              	.LASF247:
 13999 05af 73706955 		.ascii	"spiUnselect\000"
 13999      6E73656C 
 13999      65637400 
 14000              	.LASF65:
 14001 05bb 76697274 		.ascii	"virtual_timer_t\000"
 14001      75616C5F 
 14001      74696D65 
ARM GAS  /tmp/cctBdhRt.s 			page 251


 14001      725F7400 
 14002              	.LASF56:
 14003 05cb 72656164 		.ascii	"ready_list_t\000"
 14003      795F6C69 
 14003      73745F74 
 14003      00
 14004              	.LASF130:
 14005 05d8 4C434B52 		.ascii	"LCKR\000"
 14005      00
 14006              	.LASF211:
 14007 05dd 43433235 		.ascii	"CC2520_RANDOM16\000"
 14007      32305F52 
 14007      414E444F 
 14007      4D313600 
 14008              	.LASF193:
 14009 05ed 43433235 		.ascii	"CC2520_MEMWR\000"
 14009      32305F4D 
 14009      454D5752 
 14009      00
 14010              	.LASF53:
 14011 05fa 63685F74 		.ascii	"ch_threads_list\000"
 14011      68726561 
 14011      64735F6C 
 14011      69737400 
 14012              	.LASF127:
 14013 060a 4F535045 		.ascii	"OSPEEDR\000"
 14013      45445200 
 14014              	.LASF240:
 14015 0612 43433235 		.ascii	"CC2520_REGWR\000"
 14015      32305F52 
 14015      45475752 
 14015      00
 14016              	.LASF146:
 14017 061f 646D6172 		.ascii	"dmarx\000"
 14017      7800
 14018              	.LASF8:
 14019 0625 5F5F7569 		.ascii	"__uint32_t\000"
 14019      6E743332 
 14019      5F7400
 14020              	.LASF137:
 14021 0630 5350495F 		.ascii	"SPI_READY\000"
 14021      52454144 
 14021      5900
 14022              	.LASF10:
 14023 063a 6C6F6E67 		.ascii	"long long int\000"
 14023      206C6F6E 
 14023      6720696E 
 14023      7400
 14024              	.LASF198:
 14025 0648 43433235 		.ascii	"CC2520_RXBUF8\000"
 14025      32305F52 
 14025      58425546 
 14025      3800
 14026              	.LASF112:
 14027 0656 6D5F7175 		.ascii	"m_queue\000"
 14027      65756500 
 14028              	.LASF232:
ARM GAS  /tmp/cctBdhRt.s 			page 252


 14029 065e 43433235 		.ascii	"CC2520_ECBXO\000"
 14029      32305F45 
 14029      4342584F 
 14029      00
 14030              	.LASF67:
 14031 066b 76745F6E 		.ascii	"vt_next\000"
 14031      65787400 
 14032              	.LASF68:
 14033 0673 76745F70 		.ascii	"vt_prev\000"
 14033      72657600 
 14034              	.LASF219:
 14035 067b 43433235 		.ascii	"CC2520_MEMXWR\000"
 14035      32305F4D 
 14035      454D5857 
 14035      5200
 14036              	.LASF145:
 14037 0689 6D757465 		.ascii	"mutex\000"
 14037      7800
 14038              	.LASF244:
 14039 068f 49544D5F 		.ascii	"ITM_RxBuffer\000"
 14039      52784275 
 14039      66666572 
 14039      00
 14040              	.LASF90:
 14041 069c 52584352 		.ascii	"RXCRCR\000"
 14041      435200
 14042              	.LASF148:
 14043 06a3 7278646D 		.ascii	"rxdmamode\000"
 14043      616D6F64 
 14043      6500
 14044              	.LASF43:
 14045 06ad 705F7761 		.ascii	"p_waiting\000"
 14045      6974696E 
 14045      6700
 14046              	.LASF187:
 14047 06b7 61646472 		.ascii	"addr\000"
 14047      00
 14048              	.LASF147:
 14049 06bc 646D6174 		.ascii	"dmatx\000"
 14049      7800
 14050              	.LASF125:
 14051 06c2 4D4F4445 		.ascii	"MODER\000"
 14051      5200
 14052              	.LASF39:
 14053 06c8 705F666C 		.ascii	"p_flags\000"
 14053      61677300 
 14054              	.LASF195:
 14055 06d0 43433235 		.ascii	"CC2520_MEMWR16\000"
 14055      32305F4D 
 14055      454D5752 
 14055      313600
 14056              	.LASF83:
 14057 06df 69646C65 		.ascii	"idle_thread_wa\000"
 14057      5F746872 
 14057      6561645F 
 14057      776100
 14058              	.LASF13:
ARM GAS  /tmp/cctBdhRt.s 			page 253


 14059 06ee 756E7369 		.ascii	"unsigned int\000"
 14059      676E6564 
 14059      20696E74 
 14059      00
 14060              	.LASF217:
 14061 06fb 43433235 		.ascii	"CC2520_MEMCPR\000"
 14061      32305F4D 
 14061      454D4350 
 14061      5200
 14062              	.LASF154:
 14063 0709 53504943 		.ascii	"SPIConfig\000"
 14063      6F6E6669 
 14063      6700
 14064              	.LASF138:
 14065 0713 5350495F 		.ascii	"SPI_ACTIVE\000"
 14065      41435449 
 14065      564500
 14066              	.LASF20:
 14067 071e 7274636E 		.ascii	"rtcnt_t\000"
 14067      745F7400 
 14068              	.LASF49:
 14069 0726 705F6D70 		.ascii	"p_mpool\000"
 14069      6F6F6C00 
 14070              	.LASF40:
 14071 072e 705F7265 		.ascii	"p_refs\000"
 14071      667300
 14072              	.LASF210:
 14073 0735 43433235 		.ascii	"CC2520_RANDOM8\000"
 14073      32305F52 
 14073      414E444F 
 14073      4D3800
 14074              	.LASF196:
 14075 0744 43433235 		.ascii	"CC2520_MEMWR24\000"
 14075      32305F4D 
 14075      454D5752 
 14075      323400
 14076              	.LASF177:
 14077 0753 43433235 		.ascii	"CC2520_SFLUSHRX\000"
 14077      32305F53 
 14077      464C5553 
 14077      48525800 
 14078              	.LASF168:
 14079 0763 43433235 		.ascii	"CC2520_SIBUFEX\000"
 14079      32305F53 
 14079      49425546 
 14079      455800
 14080              	.LASF99:
 14081 0772 6F666673 		.ascii	"offset\000"
 14081      657400
 14082              	.LASF88:
 14083 0779 444D415F 		.ascii	"DMA_Stream_TypeDef\000"
 14083      53747265 
 14083      616D5F54 
 14083      79706544 
 14083      656600
 14084              	.LASF235:
 14085 078c 43433235 		.ascii	"CC2520_REGRD\000"
ARM GAS  /tmp/cctBdhRt.s 			page 254


 14085      32305F52 
 14085      45475244 
 14085      00
 14086              	.LASF42:
 14087 0799 705F7469 		.ascii	"p_time\000"
 14087      6D6500
 14088              	.LASF169:
 14089 07a0 43433235 		.ascii	"CC2520_SSAMPLECCA\000"
 14089      32305F53 
 14089      53414D50 
 14089      4C454343 
 14089      4100
 14090              	.LASF30:
 14091 07b2 74687265 		.ascii	"thread_t\000"
 14091      61645F74 
 14091      00
 14092              	.LASF50:
 14093 07bb 74687265 		.ascii	"thread_reference_t\000"
 14093      61645F72 
 14093      65666572 
 14093      656E6365 
 14093      5F7400
 14094              	.LASF228:
 14095 07ce 43433235 		.ascii	"CC2520_UCCM\000"
 14095      32305F55 
 14095      43434D00 
 14096              	.LASF48:
 14097 07da 705F7265 		.ascii	"p_realprio\000"
 14097      616C7072 
 14097      696F00
 14098              	.LASF98:
 14099 07e5 706F7274 		.ascii	"port_intctx\000"
 14099      5F696E74 
 14099      63747800 
 14100              	.LASF178:
 14101 07f1 43433235 		.ascii	"CC2520_SFLUSHTX\000"
 14101      32305F53 
 14101      464C5553 
 14101      48545800 
 14102              	.LASF69:
 14103 0801 76745F64 		.ascii	"vt_delta\000"
 14103      656C7461 
 14103      00
 14104              	.LASF66:
 14105 080a 63685F76 		.ascii	"ch_virtual_timer\000"
 14105      69727475 
 14105      616C5F74 
 14105      696D6572 
 14105      00
 14106              	.LASF110:
 14107 081b 735F636E 		.ascii	"s_cnt\000"
 14107      7400
 14108              	.LASF120:
 14109 0821 73656C66 		.ascii	"selfindex\000"
 14109      696E6465 
 14109      7800
 14110              	.LASF204:
ARM GAS  /tmp/cctBdhRt.s 			page 255


 14111 082b 43433235 		.ascii	"CC2520_TXBUF\000"
 14111      32305F54 
 14111      58425546 
 14111      00
 14112              	.LASF12:
 14113 0838 6C6F6E67 		.ascii	"long long unsigned int\000"
 14113      206C6F6E 
 14113      6720756E 
 14113      7369676E 
 14113      65642069 
 14114              	.LASF254:
 14115 084f 68616C53 		.ascii	"halSpiExc\000"
 14115      70694578 
 14115      6300
 14116              	.LASF159:
 14117 0859 6564776F 		.ascii	"edword_t\000"
 14117      72645F74 
 14117      00
 14118              	.LASF36:
 14119 0862 705F6F6C 		.ascii	"p_older\000"
 14119      64657200 
 14120              	.LASF15:
 14121 086a 75696E74 		.ascii	"uint16_t\000"
 14121      31365F74 
 14121      00
 14122              	.LASF251:
 14123 0873 63633235 		.ascii	"cc2520/driver/hal_cc2520.c\000"
 14123      32302F64 
 14123      72697665 
 14123      722F6861 
 14123      6C5F6363 
 14124              	.LASF26:
 14125 088e 6D73675F 		.ascii	"msg_t\000"
 14125      7400
 14126              	.LASF55:
 14127 0894 63685F74 		.ascii	"ch_threads_queue\000"
 14127      68726561 
 14127      64735F71 
 14127      75657565 
 14127      00
 14128              	.LASF24:
 14129 08a5 74736C69 		.ascii	"tslices_t\000"
 14129      6365735F 
 14129      7400
 14130              	.LASF63:
 14131 08af 725F6375 		.ascii	"r_current\000"
 14131      7272656E 
 14131      7400
 14132              	.LASF199:
 14133 08b9 43433235 		.ascii	"CC2520_RXBUF16\000"
 14133      32305F52 
 14133      58425546 
 14133      313600
 14134              	.LASF249:
 14135 08c8 73706953 		.ascii	"spiSend\000"
 14135      656E6400 
 14136              	.LASF132:
ARM GAS  /tmp/cctBdhRt.s 			page 256


 14137 08d0 41465248 		.ascii	"AFRH\000"
 14137      00
 14138              	.LASF131:
 14139 08d5 4146524C 		.ascii	"AFRL\000"
 14139      00
 14140              	.LASF121:
 14141 08da 76656374 		.ascii	"vector\000"
 14141      6F7200
 14142              	.LASF242:
 14143 08e1 43433235 		.ascii	"CC2520_REGWR16\000"
 14143      32305F52 
 14143      45475752 
 14143      313600
 14144              	.LASF82:
 14145 08f0 6D61696E 		.ascii	"mainthread\000"
 14145      74687265 
 14145      616400
 14146              	.LASF209:
 14147 08fb 43433235 		.ascii	"CC2520_RANDOM\000"
 14147      32305F52 
 14147      414E444F 
 14147      4D00
 14148              	.LASF214:
 14149 0909 43433235 		.ascii	"CC2520_RXMASKAND\000"
 14149      32305F52 
 14149      584D4153 
 14149      4B414E44 
 14149      00
 14150              	.LASF58:
 14151 091a 725F7175 		.ascii	"r_queue\000"
 14151      65756500 
 14152              	.LASF162:
 14153 0922 64657374 		.ascii	"dest\000"
 14153      00
 14154              	.LASF164:
 14155 0927 43433235 		.ascii	"CC2520_INS_STROBE\000"
 14155      32305F49 
 14155      4E535F53 
 14155      54524F42 
 14155      4500
 14156              	.LASF126:
 14157 0939 4F545950 		.ascii	"OTYPER\000"
 14157      455200
 14158              	.LASF224:
 14159 0940 43433235 		.ascii	"CC2520_UCTR\000"
 14159      32305F55 
 14159      43545200 
 14160              	.LASF229:
 14161 094c 43433235 		.ascii	"CC2520_ECB\000"
 14161      32305F45 
 14161      434200
 14162              	.LASF241:
 14163 0957 43433235 		.ascii	"CC2520_REGWR8\000"
 14163      32305F52 
 14163      45475752 
 14163      3800
 14164              	.LASF243:
ARM GAS  /tmp/cctBdhRt.s 			page 257


 14165 0965 43433235 		.ascii	"CC2520_REGWR24\000"
 14165      32305F52 
 14165      45475752 
 14165      323400
 14166              	.LASF91:
 14167 0974 54584352 		.ascii	"TXCRCR\000"
 14167      435200
 14168              	.LASF94:
 14169 097b 5350495F 		.ascii	"SPI_TypeDef\000"
 14169      54797065 
 14169      44656600 
 14170              	.LASF80:
 14171 0987 726C6973 		.ascii	"rlist\000"
 14171      7400
 14172              	.LASF21:
 14173 098d 746D6F64 		.ascii	"tmode_t\000"
 14173      655F7400 
 14174              	.LASF89:
 14175 0995 43524350 		.ascii	"CRCPR\000"
 14175      5200
 14176              	.LASF236:
 14177 099b 7056616C 		.ascii	"pValues\000"
 14177      75657300 
 14178              	.LASF248:
 14179 09a3 73706952 		.ascii	"spiReceive\000"
 14179      65636569 
 14179      766500
 14180              	.LASF179:
 14181 09ae 43433235 		.ascii	"CC2520_SACK\000"
 14181      32305F53 
 14181      41434B00 
 14182              	.LASF74:
 14183 09ba 76745F73 		.ascii	"vt_systime\000"
 14183      79737469 
 14183      6D6500
 14184              	.LASF62:
 14185 09c5 725F6F6C 		.ascii	"r_older\000"
 14185      64657200 
 14186              	.LASF100:
 14187 09cd 746D5F63 		.ascii	"tm_calibration_t\000"
 14187      616C6962 
 14187      72617469 
 14187      6F6E5F74 
 14187      00
 14188              	.LASF144:
 14189 09de 74687265 		.ascii	"thread\000"
 14189      616400
 14190              	.LASF86:
 14191 09e5 4D304152 		.ascii	"M0AR\000"
 14191      00
 14192              	.LASF216:
 14193 09ea 43433235 		.ascii	"CC2520_MEMCP\000"
 14193      32305F4D 
 14193      454D4350 
 14193      00
 14194              	.LASF109:
 14195 09f7 735F7175 		.ascii	"s_queue\000"
ARM GAS  /tmp/cctBdhRt.s 			page 258


 14195      65756500 
 14196              	.LASF155:
 14197 09ff 75696E74 		.ascii	"uint8\000"
 14197      3800
 14198              	.LASF167:
 14199 0a05 43433235 		.ascii	"CC2520_SNOP\000"
 14199      32305F53 
 14199      4E4F5000 
 14200              	.LASF253:
 14201 0a11 43433235 		.ascii	"CC2520_INS_MEMCP_COMMON\000"
 14201      32305F49 
 14201      4E535F4D 
 14201      454D4350 
 14201      5F434F4D 
 14202              	.LASF2:
 14203 0a29 73686F72 		.ascii	"short int\000"
 14203      7420696E 
 14203      7400
 14204              	.LASF18:
 14205 0a33 75696E74 		.ascii	"uint64_t\000"
 14205      36345F74 
 14205      00
 14206              	.LASF207:
 14207 0a3c 43433235 		.ascii	"CC2520_TXBUF16\000"
 14207      32305F54 
 14207      58425546 
 14207      313600
 14208              	.LASF111:
 14209 0a4b 63685F6D 		.ascii	"ch_mutex\000"
 14209      75746578 
 14209      00
 14210              	.LASF246:
 14211 0a54 73706953 		.ascii	"spiSelect\000"
 14211      656C6563 
 14211      7400
 14212              	.LASF59:
 14213 0a5e 725F7072 		.ascii	"r_prio\000"
 14213      696F00
 14214              	.LASF76:
 14215 0a65 63685F73 		.ascii	"ch_system_debug\000"
 14215      79737465 
 14215      6D5F6465 
 14215      62756700 
 14216              	.LASF226:
 14217 0a75 43433235 		.ascii	"CC2520_UCBCMAC\000"
 14217      32305F55 
 14217      4342434D 
 14217      414300
 14218              	.LASF129:
 14219 0a84 42535252 		.ascii	"BSRR\000"
 14219      00
 14220              	.LASF233:
 14221 0a89 43433235 		.ascii	"CC2520_INC\000"
 14221      32305F49 
 14221      4E4300
 14222              	.LASF174:
 14223 0a94 43433235 		.ascii	"CC2520_STXONCCA\000"
ARM GAS  /tmp/cctBdhRt.s 			page 259


 14223      32305F53 
 14223      54584F4E 
 14223      43434100 
 14224              	.LASF81:
 14225 0aa4 76746C69 		.ascii	"vtlist\000"
 14225      737400
 14226              	.LASF116:
 14227 0aab 6D757465 		.ascii	"mutex_t\000"
 14227      785F7400 
 14228              	.LASF23:
 14229 0ab3 74726566 		.ascii	"trefs_t\000"
 14229      735F7400 
 14230              	.LASF51:
 14231 0abb 74687265 		.ascii	"threads_list_t\000"
 14231      6164735F 
 14231      6C697374 
 14231      5F7400
 14232              	.LASF79:
 14233 0aca 63685F73 		.ascii	"ch_system\000"
 14233      79737465 
 14233      6D00
 14234              	.LASF220:
 14235 0ad4 43433235 		.ascii	"CC2520_BSET\000"
 14235      32305F42 
 14235      53455400 
 14236              	.LASF17:
 14237 0ae0 75696E74 		.ascii	"uint32_t\000"
 14237      33325F74 
 14237      00
 14238              	.LASF222:
 14239 0ae9 43433235 		.ascii	"CC2520_BCLR\000"
 14239      32305F42 
 14239      434C5200 
 14240              	.LASF160:
 14241 0af5 696E7374 		.ascii	"instr\000"
 14241      7200
 14242              	.LASF93:
 14243 0afb 49325350 		.ascii	"I2SPR\000"
 14243      5200
 14244              	.LASF139:
 14245 0b01 5350495F 		.ascii	"SPI_COMPLETE\000"
 14245      434F4D50 
 14245      4C455445 
 14245      00
 14246              	.LASF189:
 14247 0b0e 43433235 		.ascii	"CC2520_MEMRD8\000"
 14247      32305F4D 
 14247      454D5244 
 14247      3800
 14248              	.LASF101:
 14249 0b1c 7264796D 		.ascii	"rdymsg\000"
 14249      736700
 14250              	.LASF223:
 14251 0b23 43433235 		.ascii	"CC2520_CTR\000"
 14251      32305F43 
 14251      545200
 14252              	.LASF5:
ARM GAS  /tmp/cctBdhRt.s 			page 260


 14253 0b2e 73686F72 		.ascii	"short unsigned int\000"
 14253      7420756E 
 14253      7369676E 
 14253      65642069 
 14253      6E7400
 14254              	.LASF165:
 14255 0b41 57414954 		.ascii	"WAIT_DPU_DONE_H\000"
 14255      5F445055 
 14255      5F444F4E 
 14255      455F4800 
 14256              	.LASF252:
 14257 0b51 2F686F6D 		.ascii	"/home/benjamin/Skrivbord/SP-RCCar/Embedded/RC_Contr"
 14257      652F6265 
 14257      6E6A616D 
 14257      696E2F53 
 14257      6B726976 
 14258 0b84 6F6C6C65 		.ascii	"oller/\000"
 14258      722F00
 14259              	.LASF78:
 14260 0b8b 63685F73 		.ascii	"ch_system_t\000"
 14260      79737465 
 14260      6D5F7400 
 14261              	.LASF140:
 14262 0b97 73706973 		.ascii	"spistate_t\000"
 14262      74617465 
 14262      5F7400
 14263              	.LASF213:
 14264 0ba2 6F724D61 		.ascii	"orMask\000"
 14264      736B00
 14265              	.LASF6:
 14266 0ba9 5F5F696E 		.ascii	"__int32_t\000"
 14266      7433325F 
 14266      7400
 14267              	.LASF85:
 14268 0bb3 4E445452 		.ascii	"NDTR\000"
 14268      00
 14269              	.LASF118:
 14270 0bb8 69666372 		.ascii	"ifcr\000"
 14270      00
 14271              	.LASF153:
 14272 0bbd 73737061 		.ascii	"sspad\000"
 14272      6400
 14273              	.LASF188:
 14274 0bc3 70446174 		.ascii	"pData\000"
 14274      6100
 14275              	.LASF37:
 14276 0bc9 705F6E61 		.ascii	"p_name\000"
 14276      6D6500
 14277              	.LASF205:
 14278 0bd0 64617461 		.ascii	"data\000"
 14278      00
 14279              	.LASF114:
 14280 0bd5 6D5F6E65 		.ascii	"m_next\000"
 14280      787400
 14281              	.LASF149:
 14282 0bdc 7478646D 		.ascii	"txdmamode\000"
 14282      616D6F64 
ARM GAS  /tmp/cctBdhRt.s 			page 261


 14282      6500
 14283              	.LASF156:
 14284 0be6 75696E74 		.ascii	"uint16\000"
 14284      313600
 14285              	.LASF197:
 14286 0bed 43433235 		.ascii	"CC2520_RXBUF\000"
 14286      32305F52 
 14286      58425546 
 14286      00
 14287              	.LASF45:
 14288 0bfa 705F6D73 		.ascii	"p_msg\000"
 14288      6700
 14289              	.LASF181:
 14290 0c00 43433235 		.ascii	"CC2520_SNACK\000"
 14290      32305F53 
 14290      4E41434B 
 14290      00
 14291              	.LASF38:
 14292 0c0d 705F7374 		.ascii	"p_state\000"
 14292      61746500 
 14293              		.ident	"GCC: (GNU Tools for ARM Embedded Processors) 4.9.3 20150529 (release) [ARM/embedded-4_9-br
ARM GAS  /tmp/cctBdhRt.s 			page 262


DEFINED SYMBOLS
                            *ABS*:0000000000000000 hal_cc2520.c
     /tmp/cctBdhRt.s:21     .text.CC2520_INS_MEMCP_COMMON:0000000000000000 $t
     /tmp/cctBdhRt.s:26     .text.CC2520_INS_MEMCP_COMMON:0000000000000000 CC2520_INS_MEMCP_COMMON
     /tmp/cctBdhRt.s:95     .text.CC2520_INS_MEMCP_COMMON:0000000000000050 $d
     /tmp/cctBdhRt.s:100    .text.CC2520_INS_STROBE:0000000000000000 $t
     /tmp/cctBdhRt.s:106    .text.CC2520_INS_STROBE:0000000000000000 CC2520_INS_STROBE
     /tmp/cctBdhRt.s:145    .text.CC2520_INS_STROBE:0000000000000020 $d
     /tmp/cctBdhRt.s:150    .text.WAIT_DPU_DONE_H:0000000000000000 $t
     /tmp/cctBdhRt.s:156    .text.WAIT_DPU_DONE_H:0000000000000000 WAIT_DPU_DONE_H
     /tmp/cctBdhRt.s:197    .text.CC2520_SNOP:0000000000000000 $t
     /tmp/cctBdhRt.s:203    .text.CC2520_SNOP:0000000000000000 CC2520_SNOP
     /tmp/cctBdhRt.s:218    .text.CC2520_SIBUFEX:0000000000000000 $t
     /tmp/cctBdhRt.s:224    .text.CC2520_SIBUFEX:0000000000000000 CC2520_SIBUFEX
     /tmp/cctBdhRt.s:239    .text.CC2520_SSAMPLECCA:0000000000000000 $t
     /tmp/cctBdhRt.s:245    .text.CC2520_SSAMPLECCA:0000000000000000 CC2520_SSAMPLECCA
     /tmp/cctBdhRt.s:260    .text.CC2520_SXOSCON:0000000000000000 $t
     /tmp/cctBdhRt.s:266    .text.CC2520_SXOSCON:0000000000000000 CC2520_SXOSCON
     /tmp/cctBdhRt.s:281    .text.CC2520_STXCAL:0000000000000000 $t
     /tmp/cctBdhRt.s:287    .text.CC2520_STXCAL:0000000000000000 CC2520_STXCAL
     /tmp/cctBdhRt.s:302    .text.CC2520_SRXON:0000000000000000 $t
     /tmp/cctBdhRt.s:308    .text.CC2520_SRXON:0000000000000000 CC2520_SRXON
     /tmp/cctBdhRt.s:323    .text.CC2520_STXON:0000000000000000 $t
     /tmp/cctBdhRt.s:329    .text.CC2520_STXON:0000000000000000 CC2520_STXON
     /tmp/cctBdhRt.s:344    .text.CC2520_STXONCCA:0000000000000000 $t
     /tmp/cctBdhRt.s:350    .text.CC2520_STXONCCA:0000000000000000 CC2520_STXONCCA
     /tmp/cctBdhRt.s:365    .text.CC2520_SRFOFF:0000000000000000 $t
     /tmp/cctBdhRt.s:371    .text.CC2520_SRFOFF:0000000000000000 CC2520_SRFOFF
     /tmp/cctBdhRt.s:386    .text.CC2520_SXOSCOFF:0000000000000000 $t
     /tmp/cctBdhRt.s:392    .text.CC2520_SXOSCOFF:0000000000000000 CC2520_SXOSCOFF
     /tmp/cctBdhRt.s:407    .text.CC2520_SFLUSHRX:0000000000000000 $t
     /tmp/cctBdhRt.s:413    .text.CC2520_SFLUSHRX:0000000000000000 CC2520_SFLUSHRX
     /tmp/cctBdhRt.s:428    .text.CC2520_SFLUSHTX:0000000000000000 $t
     /tmp/cctBdhRt.s:434    .text.CC2520_SFLUSHTX:0000000000000000 CC2520_SFLUSHTX
     /tmp/cctBdhRt.s:449    .text.CC2520_SACK:0000000000000000 $t
     /tmp/cctBdhRt.s:455    .text.CC2520_SACK:0000000000000000 CC2520_SACK
     /tmp/cctBdhRt.s:470    .text.CC2520_SACKPEND:0000000000000000 $t
     /tmp/cctBdhRt.s:476    .text.CC2520_SACKPEND:0000000000000000 CC2520_SACKPEND
     /tmp/cctBdhRt.s:491    .text.CC2520_SNACK:0000000000000000 $t
     /tmp/cctBdhRt.s:497    .text.CC2520_SNACK:0000000000000000 CC2520_SNACK
     /tmp/cctBdhRt.s:512    .text.CC2520_SRXMASKBITSET:0000000000000000 $t
     /tmp/cctBdhRt.s:518    .text.CC2520_SRXMASKBITSET:0000000000000000 CC2520_SRXMASKBITSET
     /tmp/cctBdhRt.s:533    .text.CC2520_SRXMASKBITCLR:0000000000000000 $t
     /tmp/cctBdhRt.s:539    .text.CC2520_SRXMASKBITCLR:0000000000000000 CC2520_SRXMASKBITCLR
     /tmp/cctBdhRt.s:554    .text.CC2520_IBUFLD:0000000000000000 $t
     /tmp/cctBdhRt.s:560    .text.CC2520_IBUFLD:0000000000000000 CC2520_IBUFLD
     /tmp/cctBdhRt.s:603    .text.CC2520_IBUFLD:0000000000000024 $d
     /tmp/cctBdhRt.s:608    .text.CC2520_SRES:0000000000000000 $t
     /tmp/cctBdhRt.s:614    .text.CC2520_SRES:0000000000000000 CC2520_SRES
     /tmp/cctBdhRt.s:652    .text.CC2520_SRES:0000000000000024 $d
     /tmp/cctBdhRt.s:657    .text.CC2520_MEMRD:0000000000000000 $t
     /tmp/cctBdhRt.s:663    .text.CC2520_MEMRD:0000000000000000 CC2520_MEMRD
     /tmp/cctBdhRt.s:720    .text.CC2520_MEMRD:0000000000000038 $d
     /tmp/cctBdhRt.s:725    .text.CC2520_MEMRD8:0000000000000000 $t
     /tmp/cctBdhRt.s:731    .text.CC2520_MEMRD8:0000000000000000 CC2520_MEMRD8
     /tmp/cctBdhRt.s:779    .text.CC2520_MEMRD8:0000000000000030 $d
     /tmp/cctBdhRt.s:784    .text.CC2520_MEMRD16:0000000000000000 $t
ARM GAS  /tmp/cctBdhRt.s 			page 263


     /tmp/cctBdhRt.s:790    .text.CC2520_MEMRD16:0000000000000000 CC2520_MEMRD16
     /tmp/cctBdhRt.s:845    .text.CC2520_MEMRD16:0000000000000040 $d
     /tmp/cctBdhRt.s:850    .text.CC2520_MEMRD24:0000000000000000 $t
     /tmp/cctBdhRt.s:856    .text.CC2520_MEMRD24:0000000000000000 CC2520_MEMRD24
     /tmp/cctBdhRt.s:918    .text.CC2520_MEMRD24:000000000000004c $d
     /tmp/cctBdhRt.s:923    .text.CC2520_MEMWR:0000000000000000 $t
     /tmp/cctBdhRt.s:929    .text.CC2520_MEMWR:0000000000000000 CC2520_MEMWR
     /tmp/cctBdhRt.s:986    .text.CC2520_MEMWR:0000000000000038 $d
     /tmp/cctBdhRt.s:991    .text.CC2520_MEMWR8:0000000000000000 $t
     /tmp/cctBdhRt.s:997    .text.CC2520_MEMWR8:0000000000000000 CC2520_MEMWR8
     /tmp/cctBdhRt.s:1050   .text.CC2520_MEMWR8:0000000000000030 $d
     /tmp/cctBdhRt.s:1055   .text.CC2520_MEMWR16:0000000000000000 $t
     /tmp/cctBdhRt.s:1061   .text.CC2520_MEMWR16:0000000000000000 CC2520_MEMWR16
     /tmp/cctBdhRt.s:1118   .text.CC2520_MEMWR16:0000000000000038 $d
     /tmp/cctBdhRt.s:1123   .text.CC2520_MEMWR24:0000000000000000 $t
     /tmp/cctBdhRt.s:1129   .text.CC2520_MEMWR24:0000000000000000 CC2520_MEMWR24
     /tmp/cctBdhRt.s:1190   .text.CC2520_MEMWR24:0000000000000040 $d
     /tmp/cctBdhRt.s:1195   .text.CC2520_RXBUF:0000000000000000 $t
     /tmp/cctBdhRt.s:1201   .text.CC2520_RXBUF:0000000000000000 CC2520_RXBUF
     /tmp/cctBdhRt.s:1250   .text.CC2520_RXBUF:000000000000002c $d
     /tmp/cctBdhRt.s:1255   .text.CC2520_RXBUF8:0000000000000000 $t
     /tmp/cctBdhRt.s:1261   .text.CC2520_RXBUF8:0000000000000000 CC2520_RXBUF8
     /tmp/cctBdhRt.s:1299   .text.CC2520_RXBUF8:0000000000000024 $d
     /tmp/cctBdhRt.s:1304   .text.CC2520_RXBUF16:0000000000000000 $t
     /tmp/cctBdhRt.s:1310   .text.CC2520_RXBUF16:0000000000000000 CC2520_RXBUF16
     /tmp/cctBdhRt.s:1355   .text.CC2520_RXBUF16:0000000000000034 $d
     /tmp/cctBdhRt.s:1360   .text.CC2520_RXBUFCP_BEGIN:0000000000000000 $t
     /tmp/cctBdhRt.s:1366   .text.CC2520_RXBUFCP_BEGIN:0000000000000000 CC2520_RXBUFCP_BEGIN
     /tmp/cctBdhRt.s:1418   .text.CC2520_RXBUFCP_BEGIN:000000000000002c $d
     /tmp/cctBdhRt.s:1423   .text.CC2520_RXBUFCP_END:0000000000000000 $t
     /tmp/cctBdhRt.s:1429   .text.CC2520_RXBUFCP_END:0000000000000000 CC2520_RXBUFCP_END
     /tmp/cctBdhRt.s:1473   .text.CC2520_RXBUFCP_END:0000000000000024 $d
     /tmp/cctBdhRt.s:1478   .text.CC2520_RXBUFMOV:0000000000000000 $t
     /tmp/cctBdhRt.s:1484   .text.CC2520_RXBUFMOV:0000000000000000 CC2520_RXBUFMOV
     /tmp/cctBdhRt.s:1550   .text.CC2520_RXBUFMOV:0000000000000040 $d
     /tmp/cctBdhRt.s:1555   .text.CC2520_TXBUF:0000000000000000 $t
     /tmp/cctBdhRt.s:1561   .text.CC2520_TXBUF:0000000000000000 CC2520_TXBUF
     /tmp/cctBdhRt.s:1610   .text.CC2520_TXBUF:000000000000002c $d
     /tmp/cctBdhRt.s:1615   .text.CC2520_TXBUF8:0000000000000000 $t
     /tmp/cctBdhRt.s:1621   .text.CC2520_TXBUF8:0000000000000000 CC2520_TXBUF8
     /tmp/cctBdhRt.s:1666   .text.CC2520_TXBUF8:0000000000000024 $d
     /tmp/cctBdhRt.s:1671   .text.CC2520_TXBUF16:0000000000000000 $t
     /tmp/cctBdhRt.s:1677   .text.CC2520_TXBUF16:0000000000000000 CC2520_TXBUF16
     /tmp/cctBdhRt.s:1726   .text.CC2520_TXBUF16:0000000000000028 $d
     /tmp/cctBdhRt.s:1731   .text.CC2520_TXBUFCP:0000000000000000 $t
     /tmp/cctBdhRt.s:1737   .text.CC2520_TXBUFCP:0000000000000000 CC2520_TXBUFCP
     /tmp/cctBdhRt.s:1803   .text.CC2520_TXBUFCP:0000000000000040 $d
     /tmp/cctBdhRt.s:1808   .text.CC2520_RANDOM:0000000000000000 $t
     /tmp/cctBdhRt.s:1814   .text.CC2520_RANDOM:0000000000000000 CC2520_RANDOM
     /tmp/cctBdhRt.s:1867   .text.CC2520_RANDOM:0000000000000030 $d
     /tmp/cctBdhRt.s:1872   .text.CC2520_RANDOM8:0000000000000000 $t
     /tmp/cctBdhRt.s:1878   .text.CC2520_RANDOM8:0000000000000000 CC2520_RANDOM8
     /tmp/cctBdhRt.s:1920   .text.CC2520_RANDOM8:0000000000000028 $d
     /tmp/cctBdhRt.s:1925   .text.CC2520_RANDOM16:0000000000000000 $t
     /tmp/cctBdhRt.s:1931   .text.CC2520_RANDOM16:0000000000000000 CC2520_RANDOM16
     /tmp/cctBdhRt.s:1980   .text.CC2520_RANDOM16:0000000000000038 $d
     /tmp/cctBdhRt.s:1985   .text.CC2520_RXMASKOR:0000000000000000 $t
ARM GAS  /tmp/cctBdhRt.s 			page 264


     /tmp/cctBdhRt.s:1991   .text.CC2520_RXMASKOR:0000000000000000 CC2520_RXMASKOR
     /tmp/cctBdhRt.s:2038   .text.CC2520_RXMASKOR:000000000000002c $d
     /tmp/cctBdhRt.s:2043   .text.CC2520_RXMASKAND:0000000000000000 $t
     /tmp/cctBdhRt.s:2049   .text.CC2520_RXMASKAND:0000000000000000 CC2520_RXMASKAND
     /tmp/cctBdhRt.s:2096   .text.CC2520_RXMASKAND:000000000000002c $d
     /tmp/cctBdhRt.s:2101   .text.CC2520_MEMCP:0000000000000000 $t
     /tmp/cctBdhRt.s:2107   .text.CC2520_MEMCP:0000000000000000 CC2520_MEMCP
     /tmp/cctBdhRt.s:2145   .text.CC2520_MEMCPR:0000000000000000 $t
     /tmp/cctBdhRt.s:2151   .text.CC2520_MEMCPR:0000000000000000 CC2520_MEMCPR
     /tmp/cctBdhRt.s:2189   .text.CC2520_MEMXCP:0000000000000000 $t
     /tmp/cctBdhRt.s:2195   .text.CC2520_MEMXCP:0000000000000000 CC2520_MEMXCP
     /tmp/cctBdhRt.s:2233   .text.CC2520_MEMXWR:0000000000000000 $t
     /tmp/cctBdhRt.s:2239   .text.CC2520_MEMXWR:0000000000000000 CC2520_MEMXWR
     /tmp/cctBdhRt.s:2299   .text.CC2520_MEMXWR:0000000000000038 $d
     /tmp/cctBdhRt.s:2304   .text.CC2520_BSET:0000000000000000 $t
     /tmp/cctBdhRt.s:2310   .text.CC2520_BSET:0000000000000000 CC2520_BSET
     /tmp/cctBdhRt.s:2353   .text.CC2520_BSET:0000000000000024 $d
     /tmp/cctBdhRt.s:2358   .text.CC2520_BCLR:0000000000000000 $t
     /tmp/cctBdhRt.s:2364   .text.CC2520_BCLR:0000000000000000 CC2520_BCLR
     /tmp/cctBdhRt.s:2407   .text.CC2520_BCLR:0000000000000024 $d
     /tmp/cctBdhRt.s:2412   .text.CC2520_CTR:0000000000000000 $t
     /tmp/cctBdhRt.s:2418   .text.CC2520_CTR:0000000000000000 CC2520_CTR
     /tmp/cctBdhRt.s:2495   .text.CC2520_CTR:0000000000000060 $d
     /tmp/cctBdhRt.s:2500   .text.CC2520_UCTR:0000000000000000 $t
     /tmp/cctBdhRt.s:2506   .text.CC2520_UCTR:0000000000000000 CC2520_UCTR
     /tmp/cctBdhRt.s:2538   .text.CC2520_CBCMAC:0000000000000000 $t
     /tmp/cctBdhRt.s:2544   .text.CC2520_CBCMAC:0000000000000000 CC2520_CBCMAC
     /tmp/cctBdhRt.s:2621   .text.CC2520_CBCMAC:0000000000000060 $d
     /tmp/cctBdhRt.s:2626   .text.CC2520_UCBCMAC:0000000000000000 $t
     /tmp/cctBdhRt.s:2632   .text.CC2520_UCBCMAC:0000000000000000 CC2520_UCBCMAC
     /tmp/cctBdhRt.s:2701   .text.CC2520_UCBCMAC:000000000000004c $d
     /tmp/cctBdhRt.s:2706   .text.CC2520_CCM:0000000000000000 $t
     /tmp/cctBdhRt.s:2712   .text.CC2520_CCM:0000000000000000 CC2520_CCM
     /tmp/cctBdhRt.s:2809   .text.CC2520_CCM:0000000000000078 $d
     /tmp/cctBdhRt.s:2814   .text.CC2520_UCCM:0000000000000000 $t
     /tmp/cctBdhRt.s:2820   .text.CC2520_UCCM:0000000000000000 CC2520_UCCM
     /tmp/cctBdhRt.s:2917   .text.CC2520_UCCM:0000000000000078 $d
     /tmp/cctBdhRt.s:2922   .text.CC2520_ECB:0000000000000000 $t
     /tmp/cctBdhRt.s:2928   .text.CC2520_ECB:0000000000000000 CC2520_ECB
     /tmp/cctBdhRt.s:2999   .text.CC2520_ECB:0000000000000054 $d
     /tmp/cctBdhRt.s:3004   .text.CC2520_ECBO:0000000000000000 $t
     /tmp/cctBdhRt.s:3010   .text.CC2520_ECBO:0000000000000000 CC2520_ECBO
     /tmp/cctBdhRt.s:3070   .text.CC2520_ECBO:0000000000000044 $d
     /tmp/cctBdhRt.s:3075   .text.CC2520_ECBX:0000000000000000 $t
     /tmp/cctBdhRt.s:3081   .text.CC2520_ECBX:0000000000000000 CC2520_ECBX
     /tmp/cctBdhRt.s:3152   .text.CC2520_ECBX:0000000000000054 $d
     /tmp/cctBdhRt.s:3157   .text.CC2520_ECBXO:0000000000000000 $t
     /tmp/cctBdhRt.s:3163   .text.CC2520_ECBXO:0000000000000000 CC2520_ECBXO
     /tmp/cctBdhRt.s:3223   .text.CC2520_ECBXO:0000000000000044 $d
     /tmp/cctBdhRt.s:3228   .text.CC2520_INC:0000000000000000 $t
     /tmp/cctBdhRt.s:3234   .text.CC2520_INC:0000000000000000 CC2520_INC
     /tmp/cctBdhRt.s:3289   .text.CC2520_INC:0000000000000038 $d
     /tmp/cctBdhRt.s:3294   .text.CC2520_ABORT:0000000000000000 $t
     /tmp/cctBdhRt.s:3300   .text.CC2520_ABORT:0000000000000000 CC2520_ABORT
     /tmp/cctBdhRt.s:3343   .text.CC2520_ABORT:0000000000000024 $d
     /tmp/cctBdhRt.s:3348   .text.CC2520_REGRD:0000000000000000 $t
     /tmp/cctBdhRt.s:3354   .text.CC2520_REGRD:0000000000000000 CC2520_REGRD
ARM GAS  /tmp/cctBdhRt.s 			page 265


     /tmp/cctBdhRt.s:3404   .text.CC2520_REGRD:0000000000000030 $d
     /tmp/cctBdhRt.s:3409   .text.CC2520_REGRD8:0000000000000000 $t
     /tmp/cctBdhRt.s:3415   .text.CC2520_REGRD8:0000000000000000 CC2520_REGRD8
     /tmp/cctBdhRt.s:3458   .text.CC2520_REGRD8:0000000000000028 $d
     /tmp/cctBdhRt.s:3463   .text.CC2520_REGRD16:0000000000000000 $t
     /tmp/cctBdhRt.s:3469   .text.CC2520_REGRD16:0000000000000000 CC2520_REGRD16
     /tmp/cctBdhRt.s:3519   .text.CC2520_REGRD16:0000000000000038 $d
     /tmp/cctBdhRt.s:3524   .text.CC2520_REGRD24:0000000000000000 $t
     /tmp/cctBdhRt.s:3530   .text.CC2520_REGRD24:0000000000000000 CC2520_REGRD24
     /tmp/cctBdhRt.s:3587   .text.CC2520_REGRD24:0000000000000044 $d
     /tmp/cctBdhRt.s:3592   .text.CC2520_REGWR:0000000000000000 $t
     /tmp/cctBdhRt.s:3598   .text.CC2520_REGWR:0000000000000000 CC2520_REGWR
     /tmp/cctBdhRt.s:3648   .text.CC2520_REGWR:0000000000000030 $d
     /tmp/cctBdhRt.s:3653   .text.CC2520_REGWR8:0000000000000000 $t
     /tmp/cctBdhRt.s:3659   .text.CC2520_REGWR8:0000000000000000 CC2520_REGWR8
     /tmp/cctBdhRt.s:3707   .text.CC2520_REGWR8:0000000000000028 $d
     /tmp/cctBdhRt.s:3712   .text.CC2520_REGWR16:0000000000000000 $t
     /tmp/cctBdhRt.s:3718   .text.CC2520_REGWR16:0000000000000000 CC2520_REGWR16
     /tmp/cctBdhRt.s:3770   .text.CC2520_REGWR16:000000000000002c $d
     /tmp/cctBdhRt.s:3775   .text.CC2520_REGWR24:0000000000000000 $t
     /tmp/cctBdhRt.s:3781   .text.CC2520_REGWR24:0000000000000000 CC2520_REGWR24
     /tmp/cctBdhRt.s:3838   .text.CC2520_REGWR24:0000000000000038 $d
                     .debug_frame:0000000000000010 $d

UNDEFINED SYMBOLS
spiSelect
halSpiExc
spiUnselect
SPID2
spiReceive
spiSend
