ARM GAS  /tmp/cctBdhRt.s 			page 1


   1              		.syntax unified
   2              		.cpu cortex-m4
   3              		.eabi_attribute 27, 1
   4              		.eabi_attribute 28, 1
   5              		.fpu fpv4-sp-d16
   6              		.eabi_attribute 20, 1
   7              		.eabi_attribute 21, 1
   8              		.eabi_attribute 23, 3
   9              		.eabi_attribute 24, 1
  10              		.eabi_attribute 25, 1
  11              		.eabi_attribute 26, 1
  12              		.eabi_attribute 30, 2
  13              		.eabi_attribute 34, 1
  14              		.eabi_attribute 18, 4
  15              		.thumb
  16              		.file	"hal_cc2520.c"
  17              		.text
  18              	.Ltext0:
  19              		.cfi_sections	.debug_frame
  20              		.section	.text.CC2520_INS_MEMCP_COMMON,"ax",%progbits
  21              		.align	2
  22              		.p2align 4,,15
  23              		.thumb
  24              		.thumb_func
  25              		.type	CC2520_INS_MEMCP_COMMON, %function
  26              	CC2520_INS_MEMCP_COMMON:
  27              	.LFB256:
  28              		.file 1 "cc2520/driver/hal_cc2520.c"
  29              		.loc 1 127 0
  30              		.cfi_startproc
  31              		@ args = 4, pretend = 0, frame = 0
  32              		@ frame_needed = 0, uses_anonymous_args = 0
  33              	.LVL0:
  34 0000 2DE9F843 		push	{r3, r4, r5, r6, r7, r8, r9, lr}
  35              		.cfi_def_cfa_offset 32
  36              		.cfi_offset 3, -32
  37              		.cfi_offset 4, -28
  38              		.cfi_offset 5, -24
  39              		.cfi_offset 6, -20
  40              		.cfi_offset 7, -16
  41              		.cfi_offset 8, -12
  42              		.cfi_offset 9, -8
  43              		.cfi_offset 14, -4
  44              		.loc 1 129 0
  45 0004 124C     		ldr	r4, .L3
  46              		.loc 1 127 0
  47 0006 BDF82050 		ldrh	r5, [sp, #32]
  48 000a 0F46     		mov	r7, r1
  49 000c 8146     		mov	r9, r0
  50              		.loc 1 129 0
  51 000e 2046     		mov	r0, r4
  52              	.LVL1:
  53              		.loc 1 127 0
  54 0010 9046     		mov	r8, r2
  55 0012 1E46     		mov	r6, r3
  56              		.loc 1 129 0
  57 0014 FFF7FEFF 		bl	spiSelect
ARM GAS  /tmp/cctBdhRt.s 			page 2


  58              	.LVL2:
  59              		.loc 1 130 0
  60 0018 49EA0700 		orr	r0, r9, r7
  61 001c FFF7FEFF 		bl	halSpiExc
  62              	.LVL3:
  63 0020 0746     		mov	r7, r0
  64              	.LVL4:
  65              		.loc 1 131 0
  66 0022 5FFA88F0 		uxtb	r0, r8
  67 0026 FFF7FEFF 		bl	halSpiExc
  68              	.LVL5:
  69              		.loc 1 132 0
  70 002a 2B0A     		lsrs	r3, r5, #8
  71 002c 300A     		lsrs	r0, r6, #8
  72 002e 43EA0010 		orr	r0, r3, r0, lsl #4
  73 0032 C0B2     		uxtb	r0, r0
  74 0034 FFF7FEFF 		bl	halSpiExc
  75              	.LVL6:
  76              		.loc 1 133 0
  77 0038 F0B2     		uxtb	r0, r6
  78 003a FFF7FEFF 		bl	halSpiExc
  79              	.LVL7:
  80              		.loc 1 134 0
  81 003e E8B2     		uxtb	r0, r5
  82 0040 FFF7FEFF 		bl	halSpiExc
  83              	.LVL8:
  84              		.loc 1 135 0
  85 0044 2046     		mov	r0, r4
  86 0046 FFF7FEFF 		bl	spiUnselect
  87              	.LVL9:
  88              		.loc 1 137 0
  89 004a 3846     		mov	r0, r7
  90 004c BDE8F883 		pop	{r3, r4, r5, r6, r7, r8, r9, pc}
  91              	.LVL10:
  92              	.L4:
  93              		.align	2
  94              	.L3:
  95 0050 00000000 		.word	SPID2
  96              		.cfi_endproc
  97              	.LFE256:
  98              		.size	CC2520_INS_MEMCP_COMMON, .-CC2520_INS_MEMCP_COMMON
  99              		.section	.text.CC2520_INS_STROBE,"ax",%progbits
 100              		.align	2
 101              		.p2align 4,,15
 102              		.global	CC2520_INS_STROBE
 103              		.thumb
 104              		.thumb_func
 105              		.type	CC2520_INS_STROBE, %function
 106              	CC2520_INS_STROBE:
 107              	.LFB258:
 108              		.loc 1 162 0
 109              		.cfi_startproc
 110              		@ args = 0, pretend = 0, frame = 0
 111              		@ frame_needed = 0, uses_anonymous_args = 0
 112              	.LVL11:
 113 0000 38B5     		push	{r3, r4, r5, lr}
 114              		.cfi_def_cfa_offset 16
ARM GAS  /tmp/cctBdhRt.s 			page 3


 115              		.cfi_offset 3, -16
 116              		.cfi_offset 4, -12
 117              		.cfi_offset 5, -8
 118              		.cfi_offset 14, -4
 119              		.loc 1 164 0
 120 0002 074C     		ldr	r4, .L7
 121              		.loc 1 162 0
 122 0004 0546     		mov	r5, r0
 123              		.loc 1 164 0
 124 0006 2046     		mov	r0, r4
 125              	.LVL12:
 126 0008 FFF7FEFF 		bl	spiSelect
 127              	.LVL13:
 128              		.loc 1 165 0
 129 000c 2846     		mov	r0, r5
 130 000e FFF7FEFF 		bl	halSpiExc
 131              	.LVL14:
 132 0012 0546     		mov	r5, r0
 133              	.LVL15:
 134              		.loc 1 166 0
 135 0014 2046     		mov	r0, r4
 136 0016 FFF7FEFF 		bl	spiUnselect
 137              	.LVL16:
 138              		.loc 1 168 0
 139 001a 2846     		mov	r0, r5
 140 001c 38BD     		pop	{r3, r4, r5, pc}
 141              	.LVL17:
 142              	.L8:
 143 001e 00BF     		.align	2
 144              	.L7:
 145 0020 00000000 		.word	SPID2
 146              		.cfi_endproc
 147              	.LFE258:
 148              		.size	CC2520_INS_STROBE, .-CC2520_INS_STROBE
 149              		.section	.text.WAIT_DPU_DONE_H,"ax",%progbits
 150              		.align	2
 151              		.p2align 4,,15
 152              		.global	WAIT_DPU_DONE_H
 153              		.thumb
 154              		.thumb_func
 155              		.type	WAIT_DPU_DONE_H, %function
 156              	WAIT_DPU_DONE_H:
 157              	.LFB257:
 158              		.loc 1 139 0
 159              		.cfi_startproc
 160              		@ args = 0, pretend = 0, frame = 0
 161              		@ frame_needed = 0, uses_anonymous_args = 0
 162              	.LVL18:
 163 0000 10B5     		push	{r4, lr}
 164              		.cfi_def_cfa_offset 8
 165              		.cfi_offset 4, -8
 166              		.cfi_offset 14, -4
 167              		.loc 1 142 0
 168 0002 42F21174 		movw	r4, #10001
 169 0006 01E0     		b	.L10
 170              	.LVL19:
 171              	.L12:
ARM GAS  /tmp/cctBdhRt.s 			page 4


 172              		.loc 1 144 0
 173 0008 013C     		subs	r4, r4, #1
 174              	.LVL20:
 175 000a 06D0     		beq	.L13
 176              	.LVL21:
 177              	.L10:
 178              		.loc 1 142 0
 179 000c 0020     		movs	r0, #0
 180 000e FFF7FEFF 		bl	CC2520_INS_STROBE
 181              	.LVL22:
 182 0012 0307     		lsls	r3, r0, #28
 183 0014 F8D4     		bmi	.L12
 184              		.loc 1 149 0
 185 0016 0120     		movs	r0, #1
 186 0018 10BD     		pop	{r4, pc}
 187              	.LVL23:
 188              	.L13:
 189              		.loc 1 145 0
 190 001a 2046     		mov	r0, r4
 191              		.loc 1 150 0
 192 001c 10BD     		pop	{r4, pc}
 193              		.cfi_endproc
 194              	.LFE257:
 195              		.size	WAIT_DPU_DONE_H, .-WAIT_DPU_DONE_H
 196 001e 00BF     		.section	.text.CC2520_SNOP,"ax",%progbits
 197              		.align	2
 198              		.p2align 4,,15
 199              		.global	CC2520_SNOP
 200              		.thumb
 201              		.thumb_func
 202              		.type	CC2520_SNOP, %function
 203              	CC2520_SNOP:
 204              	.LFB259:
 205              		.loc 1 181 0
 206              		.cfi_startproc
 207              		@ args = 0, pretend = 0, frame = 0
 208              		@ frame_needed = 0, uses_anonymous_args = 0
 209              		@ link register save eliminated.
 210              		.loc 1 182 0
 211 0000 0020     		movs	r0, #0
 212 0002 FFF7FEBF 		b	CC2520_INS_STROBE
 213              	.LVL24:
 214              		.cfi_endproc
 215              	.LFE259:
 216              		.size	CC2520_SNOP, .-CC2520_SNOP
 217 0006 00BF     		.section	.text.CC2520_SIBUFEX,"ax",%progbits
 218              		.align	2
 219              		.p2align 4,,15
 220              		.global	CC2520_SIBUFEX
 221              		.thumb
 222              		.thumb_func
 223              		.type	CC2520_SIBUFEX, %function
 224              	CC2520_SIBUFEX:
 225              	.LFB260:
 226              		.loc 1 196 0
 227              		.cfi_startproc
 228              		@ args = 0, pretend = 0, frame = 0
ARM GAS  /tmp/cctBdhRt.s 			page 5


 229              		@ frame_needed = 0, uses_anonymous_args = 0
 230              		@ link register save eliminated.
 231              		.loc 1 197 0
 232 0000 0320     		movs	r0, #3
 233 0002 FFF7FEBF 		b	CC2520_INS_STROBE
 234              	.LVL25:
 235              		.cfi_endproc
 236              	.LFE260:
 237              		.size	CC2520_SIBUFEX, .-CC2520_SIBUFEX
 238 0006 00BF     		.section	.text.CC2520_SSAMPLECCA,"ax",%progbits
 239              		.align	2
 240              		.p2align 4,,15
 241              		.global	CC2520_SSAMPLECCA
 242              		.thumb
 243              		.thumb_func
 244              		.type	CC2520_SSAMPLECCA, %function
 245              	CC2520_SSAMPLECCA:
 246              	.LFB261:
 247              		.loc 1 211 0
 248              		.cfi_startproc
 249              		@ args = 0, pretend = 0, frame = 0
 250              		@ frame_needed = 0, uses_anonymous_args = 0
 251              		@ link register save eliminated.
 252              		.loc 1 212 0
 253 0000 0420     		movs	r0, #4
 254 0002 FFF7FEBF 		b	CC2520_INS_STROBE
 255              	.LVL26:
 256              		.cfi_endproc
 257              	.LFE261:
 258              		.size	CC2520_SSAMPLECCA, .-CC2520_SSAMPLECCA
 259 0006 00BF     		.section	.text.CC2520_SXOSCON,"ax",%progbits
 260              		.align	2
 261              		.p2align 4,,15
 262              		.global	CC2520_SXOSCON
 263              		.thumb
 264              		.thumb_func
 265              		.type	CC2520_SXOSCON, %function
 266              	CC2520_SXOSCON:
 267              	.LFB262:
 268              		.loc 1 226 0
 269              		.cfi_startproc
 270              		@ args = 0, pretend = 0, frame = 0
 271              		@ frame_needed = 0, uses_anonymous_args = 0
 272              		@ link register save eliminated.
 273              		.loc 1 227 0
 274 0000 4020     		movs	r0, #64
 275 0002 FFF7FEBF 		b	CC2520_INS_STROBE
 276              	.LVL27:
 277              		.cfi_endproc
 278              	.LFE262:
 279              		.size	CC2520_SXOSCON, .-CC2520_SXOSCON
 280 0006 00BF     		.section	.text.CC2520_STXCAL,"ax",%progbits
 281              		.align	2
 282              		.p2align 4,,15
 283              		.global	CC2520_STXCAL
 284              		.thumb
 285              		.thumb_func
ARM GAS  /tmp/cctBdhRt.s 			page 6


 286              		.type	CC2520_STXCAL, %function
 287              	CC2520_STXCAL:
 288              	.LFB263:
 289              		.loc 1 241 0
 290              		.cfi_startproc
 291              		@ args = 0, pretend = 0, frame = 0
 292              		@ frame_needed = 0, uses_anonymous_args = 0
 293              		@ link register save eliminated.
 294              		.loc 1 242 0
 295 0000 4120     		movs	r0, #65
 296 0002 FFF7FEBF 		b	CC2520_INS_STROBE
 297              	.LVL28:
 298              		.cfi_endproc
 299              	.LFE263:
 300              		.size	CC2520_STXCAL, .-CC2520_STXCAL
 301 0006 00BF     		.section	.text.CC2520_SRXON,"ax",%progbits
 302              		.align	2
 303              		.p2align 4,,15
 304              		.global	CC2520_SRXON
 305              		.thumb
 306              		.thumb_func
 307              		.type	CC2520_SRXON, %function
 308              	CC2520_SRXON:
 309              	.LFB264:
 310              		.loc 1 256 0
 311              		.cfi_startproc
 312              		@ args = 0, pretend = 0, frame = 0
 313              		@ frame_needed = 0, uses_anonymous_args = 0
 314              		@ link register save eliminated.
 315              		.loc 1 257 0
 316 0000 4220     		movs	r0, #66
 317 0002 FFF7FEBF 		b	CC2520_INS_STROBE
 318              	.LVL29:
 319              		.cfi_endproc
 320              	.LFE264:
 321              		.size	CC2520_SRXON, .-CC2520_SRXON
 322 0006 00BF     		.section	.text.CC2520_STXON,"ax",%progbits
 323              		.align	2
 324              		.p2align 4,,15
 325              		.global	CC2520_STXON
 326              		.thumb
 327              		.thumb_func
 328              		.type	CC2520_STXON, %function
 329              	CC2520_STXON:
 330              	.LFB265:
 331              		.loc 1 271 0
 332              		.cfi_startproc
 333              		@ args = 0, pretend = 0, frame = 0
 334              		@ frame_needed = 0, uses_anonymous_args = 0
 335              		@ link register save eliminated.
 336              		.loc 1 272 0
 337 0000 4320     		movs	r0, #67
 338 0002 FFF7FEBF 		b	CC2520_INS_STROBE
 339              	.LVL30:
 340              		.cfi_endproc
 341              	.LFE265:
 342              		.size	CC2520_STXON, .-CC2520_STXON
ARM GAS  /tmp/cctBdhRt.s 			page 7


 343 0006 00BF     		.section	.text.CC2520_STXONCCA,"ax",%progbits
 344              		.align	2
 345              		.p2align 4,,15
 346              		.global	CC2520_STXONCCA
 347              		.thumb
 348              		.thumb_func
 349              		.type	CC2520_STXONCCA, %function
 350              	CC2520_STXONCCA:
 351              	.LFB266:
 352              		.loc 1 286 0
 353              		.cfi_startproc
 354              		@ args = 0, pretend = 0, frame = 0
 355              		@ frame_needed = 0, uses_anonymous_args = 0
 356              		@ link register save eliminated.
 357              		.loc 1 287 0
 358 0000 4420     		movs	r0, #68
 359 0002 FFF7FEBF 		b	CC2520_INS_STROBE
 360              	.LVL31:
 361              		.cfi_endproc
 362              	.LFE266:
 363              		.size	CC2520_STXONCCA, .-CC2520_STXONCCA
 364 0006 00BF     		.section	.text.CC2520_SRFOFF,"ax",%progbits
 365              		.align	2
 366              		.p2align 4,,15
 367              		.global	CC2520_SRFOFF
 368              		.thumb
 369              		.thumb_func
 370              		.type	CC2520_SRFOFF, %function
 371              	CC2520_SRFOFF:
 372              	.LFB267:
 373              		.loc 1 301 0
 374              		.cfi_startproc
 375              		@ args = 0, pretend = 0, frame = 0
 376              		@ frame_needed = 0, uses_anonymous_args = 0
 377              		@ link register save eliminated.
 378              		.loc 1 302 0
 379 0000 4520     		movs	r0, #69
 380 0002 FFF7FEBF 		b	CC2520_INS_STROBE
 381              	.LVL32:
 382              		.cfi_endproc
 383              	.LFE267:
 384              		.size	CC2520_SRFOFF, .-CC2520_SRFOFF
 385 0006 00BF     		.section	.text.CC2520_SXOSCOFF,"ax",%progbits
 386              		.align	2
 387              		.p2align 4,,15
 388              		.global	CC2520_SXOSCOFF
 389              		.thumb
 390              		.thumb_func
 391              		.type	CC2520_SXOSCOFF, %function
 392              	CC2520_SXOSCOFF:
 393              	.LFB268:
 394              		.loc 1 316 0
 395              		.cfi_startproc
 396              		@ args = 0, pretend = 0, frame = 0
 397              		@ frame_needed = 0, uses_anonymous_args = 0
 398              		@ link register save eliminated.
 399              		.loc 1 317 0
ARM GAS  /tmp/cctBdhRt.s 			page 8


 400 0000 4620     		movs	r0, #70
 401 0002 FFF7FEBF 		b	CC2520_INS_STROBE
 402              	.LVL33:
 403              		.cfi_endproc
 404              	.LFE268:
 405              		.size	CC2520_SXOSCOFF, .-CC2520_SXOSCOFF
 406 0006 00BF     		.section	.text.CC2520_SFLUSHRX,"ax",%progbits
 407              		.align	2
 408              		.p2align 4,,15
 409              		.global	CC2520_SFLUSHRX
 410              		.thumb
 411              		.thumb_func
 412              		.type	CC2520_SFLUSHRX, %function
 413              	CC2520_SFLUSHRX:
 414              	.LFB269:
 415              		.loc 1 331 0
 416              		.cfi_startproc
 417              		@ args = 0, pretend = 0, frame = 0
 418              		@ frame_needed = 0, uses_anonymous_args = 0
 419              		@ link register save eliminated.
 420              		.loc 1 332 0
 421 0000 4720     		movs	r0, #71
 422 0002 FFF7FEBF 		b	CC2520_INS_STROBE
 423              	.LVL34:
 424              		.cfi_endproc
 425              	.LFE269:
 426              		.size	CC2520_SFLUSHRX, .-CC2520_SFLUSHRX
 427 0006 00BF     		.section	.text.CC2520_SFLUSHTX,"ax",%progbits
 428              		.align	2
 429              		.p2align 4,,15
 430              		.global	CC2520_SFLUSHTX
 431              		.thumb
 432              		.thumb_func
 433              		.type	CC2520_SFLUSHTX, %function
 434              	CC2520_SFLUSHTX:
 435              	.LFB270:
 436              		.loc 1 346 0
 437              		.cfi_startproc
 438              		@ args = 0, pretend = 0, frame = 0
 439              		@ frame_needed = 0, uses_anonymous_args = 0
 440              		@ link register save eliminated.
 441              		.loc 1 347 0
 442 0000 4820     		movs	r0, #72
 443 0002 FFF7FEBF 		b	CC2520_INS_STROBE
 444              	.LVL35:
 445              		.cfi_endproc
 446              	.LFE270:
 447              		.size	CC2520_SFLUSHTX, .-CC2520_SFLUSHTX
 448 0006 00BF     		.section	.text.CC2520_SACK,"ax",%progbits
 449              		.align	2
 450              		.p2align 4,,15
 451              		.global	CC2520_SACK
 452              		.thumb
 453              		.thumb_func
 454              		.type	CC2520_SACK, %function
 455              	CC2520_SACK:
 456              	.LFB271:
ARM GAS  /tmp/cctBdhRt.s 			page 9


 457              		.loc 1 361 0
 458              		.cfi_startproc
 459              		@ args = 0, pretend = 0, frame = 0
 460              		@ frame_needed = 0, uses_anonymous_args = 0
 461              		@ link register save eliminated.
 462              		.loc 1 362 0
 463 0000 4920     		movs	r0, #73
 464 0002 FFF7FEBF 		b	CC2520_INS_STROBE
 465              	.LVL36:
 466              		.cfi_endproc
 467              	.LFE271:
 468              		.size	CC2520_SACK, .-CC2520_SACK
 469 0006 00BF     		.section	.text.CC2520_SACKPEND,"ax",%progbits
 470              		.align	2
 471              		.p2align 4,,15
 472              		.global	CC2520_SACKPEND
 473              		.thumb
 474              		.thumb_func
 475              		.type	CC2520_SACKPEND, %function
 476              	CC2520_SACKPEND:
 477              	.LFB272:
 478              		.loc 1 376 0
 479              		.cfi_startproc
 480              		@ args = 0, pretend = 0, frame = 0
 481              		@ frame_needed = 0, uses_anonymous_args = 0
 482              		@ link register save eliminated.
 483              		.loc 1 377 0
 484 0000 4A20     		movs	r0, #74
 485 0002 FFF7FEBF 		b	CC2520_INS_STROBE
 486              	.LVL37:
 487              		.cfi_endproc
 488              	.LFE272:
 489              		.size	CC2520_SACKPEND, .-CC2520_SACKPEND
 490 0006 00BF     		.section	.text.CC2520_SNACK,"ax",%progbits
 491              		.align	2
 492              		.p2align 4,,15
 493              		.global	CC2520_SNACK
 494              		.thumb
 495              		.thumb_func
 496              		.type	CC2520_SNACK, %function
 497              	CC2520_SNACK:
 498              	.LFB273:
 499              		.loc 1 391 0
 500              		.cfi_startproc
 501              		@ args = 0, pretend = 0, frame = 0
 502              		@ frame_needed = 0, uses_anonymous_args = 0
 503              		@ link register save eliminated.
 504              		.loc 1 392 0
 505 0000 4B20     		movs	r0, #75
 506 0002 FFF7FEBF 		b	CC2520_INS_STROBE
 507              	.LVL38:
 508              		.cfi_endproc
 509              	.LFE273:
 510              		.size	CC2520_SNACK, .-CC2520_SNACK
 511 0006 00BF     		.section	.text.CC2520_SRXMASKBITSET,"ax",%progbits
 512              		.align	2
 513              		.p2align 4,,15
ARM GAS  /tmp/cctBdhRt.s 			page 10


 514              		.global	CC2520_SRXMASKBITSET
 515              		.thumb
 516              		.thumb_func
 517              		.type	CC2520_SRXMASKBITSET, %function
 518              	CC2520_SRXMASKBITSET:
 519              	.LFB274:
 520              		.loc 1 406 0
 521              		.cfi_startproc
 522              		@ args = 0, pretend = 0, frame = 0
 523              		@ frame_needed = 0, uses_anonymous_args = 0
 524              		@ link register save eliminated.
 525              		.loc 1 407 0
 526 0000 4C20     		movs	r0, #76
 527 0002 FFF7FEBF 		b	CC2520_INS_STROBE
 528              	.LVL39:
 529              		.cfi_endproc
 530              	.LFE274:
 531              		.size	CC2520_SRXMASKBITSET, .-CC2520_SRXMASKBITSET
 532 0006 00BF     		.section	.text.CC2520_SRXMASKBITCLR,"ax",%progbits
 533              		.align	2
 534              		.p2align 4,,15
 535              		.global	CC2520_SRXMASKBITCLR
 536              		.thumb
 537              		.thumb_func
 538              		.type	CC2520_SRXMASKBITCLR, %function
 539              	CC2520_SRXMASKBITCLR:
 540              	.LFB275:
 541              		.loc 1 421 0
 542              		.cfi_startproc
 543              		@ args = 0, pretend = 0, frame = 0
 544              		@ frame_needed = 0, uses_anonymous_args = 0
 545              		@ link register save eliminated.
 546              		.loc 1 422 0
 547 0000 4D20     		movs	r0, #77
 548 0002 FFF7FEBF 		b	CC2520_INS_STROBE
 549              	.LVL40:
 550              		.cfi_endproc
 551              	.LFE275:
 552              		.size	CC2520_SRXMASKBITCLR, .-CC2520_SRXMASKBITCLR
 553 0006 00BF     		.section	.text.CC2520_IBUFLD,"ax",%progbits
 554              		.align	2
 555              		.p2align 4,,15
 556              		.global	CC2520_IBUFLD
 557              		.thumb
 558              		.thumb_func
 559              		.type	CC2520_IBUFLD, %function
 560              	CC2520_IBUFLD:
 561              	.LFB276:
 562              		.loc 1 436 0
 563              		.cfi_startproc
 564              		@ args = 0, pretend = 0, frame = 0
 565              		@ frame_needed = 0, uses_anonymous_args = 0
 566              	.LVL41:
 567 0000 70B5     		push	{r4, r5, r6, lr}
 568              		.cfi_def_cfa_offset 16
 569              		.cfi_offset 4, -16
 570              		.cfi_offset 5, -12
ARM GAS  /tmp/cctBdhRt.s 			page 11


 571              		.cfi_offset 6, -8
 572              		.cfi_offset 14, -4
 573              		.loc 1 438 0
 574 0002 084C     		ldr	r4, .L35
 575              		.loc 1 436 0
 576 0004 0646     		mov	r6, r0
 577              		.loc 1 438 0
 578 0006 2046     		mov	r0, r4
 579              	.LVL42:
 580 0008 FFF7FEFF 		bl	spiSelect
 581              	.LVL43:
 582              		.loc 1 439 0
 583 000c 0220     		movs	r0, #2
 584 000e FFF7FEFF 		bl	halSpiExc
 585              	.LVL44:
 586 0012 0546     		mov	r5, r0
 587              	.LVL45:
 588              		.loc 1 440 0
 589 0014 3046     		mov	r0, r6
 590 0016 FFF7FEFF 		bl	halSpiExc
 591              	.LVL46:
 592              		.loc 1 441 0
 593 001a 2046     		mov	r0, r4
 594 001c FFF7FEFF 		bl	spiUnselect
 595              	.LVL47:
 596              		.loc 1 443 0
 597 0020 2846     		mov	r0, r5
 598 0022 70BD     		pop	{r4, r5, r6, pc}
 599              	.LVL48:
 600              	.L36:
 601              		.align	2
 602              	.L35:
 603 0024 00000000 		.word	SPID2
 604              		.cfi_endproc
 605              	.LFE276:
 606              		.size	CC2520_IBUFLD, .-CC2520_IBUFLD
 607              		.section	.text.CC2520_SRES,"ax",%progbits
 608              		.align	2
 609              		.p2align 4,,15
 610              		.global	CC2520_SRES
 611              		.thumb
 612              		.thumb_func
 613              		.type	CC2520_SRES, %function
 614              	CC2520_SRES:
 615              	.LFB277:
 616              		.loc 1 456 0
 617              		.cfi_startproc
 618              		@ args = 0, pretend = 0, frame = 0
 619              		@ frame_needed = 0, uses_anonymous_args = 0
 620 0000 38B5     		push	{r3, r4, r5, lr}
 621              		.cfi_def_cfa_offset 16
 622              		.cfi_offset 3, -16
 623              		.cfi_offset 4, -12
 624              		.cfi_offset 5, -8
 625              		.cfi_offset 14, -4
 626              		.loc 1 458 0
 627 0002 084C     		ldr	r4, .L39
ARM GAS  /tmp/cctBdhRt.s 			page 12


 628 0004 2046     		mov	r0, r4
 629 0006 FFF7FEFF 		bl	spiSelect
 630              	.LVL49:
 631              		.loc 1 459 0
 632 000a 0F20     		movs	r0, #15
 633 000c FFF7FEFF 		bl	halSpiExc
 634              	.LVL50:
 635 0010 0546     		mov	r5, r0
 636              	.LVL51:
 637              		.loc 1 460 0
 638 0012 0020     		movs	r0, #0
 639 0014 FFF7FEFF 		bl	halSpiExc
 640              	.LVL52:
 641              		.loc 1 461 0
 642 0018 2046     		mov	r0, r4
 643 001a FFF7FEFF 		bl	spiUnselect
 644              	.LVL53:
 645              		.loc 1 463 0
 646 001e 2846     		mov	r0, r5
 647 0020 38BD     		pop	{r3, r4, r5, pc}
 648              	.LVL54:
 649              	.L40:
 650 0022 00BF     		.align	2
 651              	.L39:
 652 0024 00000000 		.word	SPID2
 653              		.cfi_endproc
 654              	.LFE277:
 655              		.size	CC2520_SRES, .-CC2520_SRES
 656              		.section	.text.CC2520_MEMRD,"ax",%progbits
 657              		.align	2
 658              		.p2align 4,,15
 659              		.global	CC2520_MEMRD
 660              		.thumb
 661              		.thumb_func
 662              		.type	CC2520_MEMRD, %function
 663              	CC2520_MEMRD:
 664              	.LFB278:
 665              		.loc 1 478 0
 666              		.cfi_startproc
 667              		@ args = 0, pretend = 0, frame = 0
 668              		@ frame_needed = 0, uses_anonymous_args = 0
 669              	.LVL55:
 670 0000 F8B5     		push	{r3, r4, r5, r6, r7, lr}
 671              		.cfi_def_cfa_offset 24
 672              		.cfi_offset 3, -24
 673              		.cfi_offset 4, -20
 674              		.cfi_offset 5, -16
 675              		.cfi_offset 6, -12
 676              		.cfi_offset 7, -8
 677              		.cfi_offset 14, -4
 678              		.loc 1 478 0
 679 0002 0446     		mov	r4, r0
 680              		.loc 1 480 0
 681 0004 0C48     		ldr	r0, .L47
 682              	.LVL56:
 683              		.loc 1 478 0
 684 0006 0D46     		mov	r5, r1
ARM GAS  /tmp/cctBdhRt.s 			page 13


 685 0008 1746     		mov	r7, r2
 686              		.loc 1 480 0
 687 000a FFF7FEFF 		bl	spiSelect
 688              	.LVL57:
 689              		.loc 1 481 0
 690 000e 200A     		lsrs	r0, r4, #8
 691 0010 40F01000 		orr	r0, r0, #16
 692 0014 FFF7FEFF 		bl	halSpiExc
 693              	.LVL58:
 694 0018 0646     		mov	r6, r0
 695              	.LVL59:
 696              		.loc 1 482 0
 697 001a E0B2     		uxtb	r0, r4
 698 001c FFF7FEFF 		bl	halSpiExc
 699              	.LVL60:
 700              		.loc 1 483 0
 701 0020 25B1     		cbz	r5, .L42
 702              		.loc 1 483 0 is_stmt 0 discriminator 1
 703 0022 2946     		mov	r1, r5
 704 0024 3A46     		mov	r2, r7
 705 0026 0448     		ldr	r0, .L47
 706 0028 FFF7FEFF 		bl	spiReceive
 707              	.LVL61:
 708              	.L42:
 709              		.loc 1 484 0 is_stmt 1
 710 002c 0248     		ldr	r0, .L47
 711 002e FFF7FEFF 		bl	spiUnselect
 712              	.LVL62:
 713              		.loc 1 486 0
 714 0032 3046     		mov	r0, r6
 715 0034 F8BD     		pop	{r3, r4, r5, r6, r7, pc}
 716              	.LVL63:
 717              	.L48:
 718 0036 00BF     		.align	2
 719              	.L47:
 720 0038 00000000 		.word	SPID2
 721              		.cfi_endproc
 722              	.LFE278:
 723              		.size	CC2520_MEMRD, .-CC2520_MEMRD
 724              		.section	.text.CC2520_MEMRD8,"ax",%progbits
 725              		.align	2
 726              		.p2align 4,,15
 727              		.global	CC2520_MEMRD8
 728              		.thumb
 729              		.thumb_func
 730              		.type	CC2520_MEMRD8, %function
 731              	CC2520_MEMRD8:
 732              	.LFB279:
 733              		.loc 1 499 0
 734              		.cfi_startproc
 735              		@ args = 0, pretend = 0, frame = 0
 736              		@ frame_needed = 0, uses_anonymous_args = 0
 737              	.LVL64:
 738 0000 38B5     		push	{r3, r4, r5, lr}
 739              		.cfi_def_cfa_offset 16
 740              		.cfi_offset 3, -16
 741              		.cfi_offset 4, -12
ARM GAS  /tmp/cctBdhRt.s 			page 14


 742              		.cfi_offset 5, -8
 743              		.cfi_offset 14, -4
 744              		.loc 1 501 0
 745 0002 0B4C     		ldr	r4, .L51
 746              		.loc 1 499 0
 747 0004 0546     		mov	r5, r0
 748              		.loc 1 501 0
 749 0006 2046     		mov	r0, r4
 750              	.LVL65:
 751 0008 FFF7FEFF 		bl	spiSelect
 752              	.LVL66:
 753              		.loc 1 502 0
 754 000c 280A     		lsrs	r0, r5, #8
 755 000e 40F01000 		orr	r0, r0, #16
 756 0012 FFF7FEFF 		bl	halSpiExc
 757              	.LVL67:
 758              		.loc 1 503 0
 759 0016 E8B2     		uxtb	r0, r5
 760 0018 FFF7FEFF 		bl	halSpiExc
 761              	.LVL68:
 762              		.loc 1 504 0
 763 001c 0020     		movs	r0, #0
 764 001e FFF7FEFF 		bl	halSpiExc
 765              	.LVL69:
 766 0022 0546     		mov	r5, r0
 767              	.LVL70:
 768              		.loc 1 505 0
 769 0024 2046     		mov	r0, r4
 770 0026 FFF7FEFF 		bl	spiUnselect
 771              	.LVL71:
 772              		.loc 1 507 0
 773 002a 2846     		mov	r0, r5
 774 002c 38BD     		pop	{r3, r4, r5, pc}
 775              	.LVL72:
 776              	.L52:
 777 002e 00BF     		.align	2
 778              	.L51:
 779 0030 00000000 		.word	SPID2
 780              		.cfi_endproc
 781              	.LFE279:
 782              		.size	CC2520_MEMRD8, .-CC2520_MEMRD8
 783              		.section	.text.CC2520_MEMRD16,"ax",%progbits
 784              		.align	2
 785              		.p2align 4,,15
 786              		.global	CC2520_MEMRD16
 787              		.thumb
 788              		.thumb_func
 789              		.type	CC2520_MEMRD16, %function
 790              	CC2520_MEMRD16:
 791              	.LFB280:
 792              		.loc 1 520 0
 793              		.cfi_startproc
 794              		@ args = 0, pretend = 0, frame = 0
 795              		@ frame_needed = 0, uses_anonymous_args = 0
 796              	.LVL73:
 797 0000 38B5     		push	{r3, r4, r5, lr}
 798              		.cfi_def_cfa_offset 16
ARM GAS  /tmp/cctBdhRt.s 			page 15


 799              		.cfi_offset 3, -16
 800              		.cfi_offset 4, -12
 801              		.cfi_offset 5, -8
 802              		.cfi_offset 14, -4
 803              		.loc 1 522 0
 804 0002 0F4D     		ldr	r5, .L55
 805              		.loc 1 520 0
 806 0004 0446     		mov	r4, r0
 807              		.loc 1 522 0
 808 0006 2846     		mov	r0, r5
 809              	.LVL74:
 810 0008 FFF7FEFF 		bl	spiSelect
 811              	.LVL75:
 812              		.loc 1 523 0
 813 000c 200A     		lsrs	r0, r4, #8
 814 000e 40F01000 		orr	r0, r0, #16
 815 0012 FFF7FEFF 		bl	halSpiExc
 816              	.LVL76:
 817              		.loc 1 524 0
 818 0016 E0B2     		uxtb	r0, r4
 819 0018 FFF7FEFF 		bl	halSpiExc
 820              	.LVL77:
 821              		.loc 1 525 0
 822 001c 0020     		movs	r0, #0
 823 001e FFF7FEFF 		bl	halSpiExc
 824              	.LVL78:
 825 0022 4FF00004 		mov	r4, #0	@ movhi
 826              	.LVL79:
 827 0026 60F30704 		bfi	r4, r0, #0, #8
 828              	.LVL80:
 829              		.loc 1 526 0
 830 002a 0020     		movs	r0, #0
 831 002c FFF7FEFF 		bl	halSpiExc
 832              	.LVL81:
 833 0030 60F30F24 		bfi	r4, r0, #8, #8
 834              		.loc 1 527 0
 835 0034 2846     		mov	r0, r5
 836 0036 FFF7FEFF 		bl	spiUnselect
 837              	.LVL82:
 838              		.loc 1 529 0
 839 003a A0B2     		uxth	r0, r4
 840 003c 38BD     		pop	{r3, r4, r5, pc}
 841              	.LVL83:
 842              	.L56:
 843 003e 00BF     		.align	2
 844              	.L55:
 845 0040 00000000 		.word	SPID2
 846              		.cfi_endproc
 847              	.LFE280:
 848              		.size	CC2520_MEMRD16, .-CC2520_MEMRD16
 849              		.section	.text.CC2520_MEMRD24,"ax",%progbits
 850              		.align	2
 851              		.p2align 4,,15
 852              		.global	CC2520_MEMRD24
 853              		.thumb
 854              		.thumb_func
 855              		.type	CC2520_MEMRD24, %function
ARM GAS  /tmp/cctBdhRt.s 			page 16


 856              	CC2520_MEMRD24:
 857              	.LFB281:
 858              		.loc 1 542 0
 859              		.cfi_startproc
 860              		@ args = 0, pretend = 0, frame = 0
 861              		@ frame_needed = 0, uses_anonymous_args = 0
 862              	.LVL84:
 863 0000 38B5     		push	{r3, r4, r5, lr}
 864              		.cfi_def_cfa_offset 16
 865              		.cfi_offset 3, -16
 866              		.cfi_offset 4, -12
 867              		.cfi_offset 5, -8
 868              		.cfi_offset 14, -4
 869              		.loc 1 544 0
 870 0002 124D     		ldr	r5, .L59
 871              		.loc 1 542 0
 872 0004 0446     		mov	r4, r0
 873              		.loc 1 544 0
 874 0006 2846     		mov	r0, r5
 875              	.LVL85:
 876 0008 FFF7FEFF 		bl	spiSelect
 877              	.LVL86:
 878              		.loc 1 545 0
 879 000c 200A     		lsrs	r0, r4, #8
 880 000e 40F01000 		orr	r0, r0, #16
 881 0012 FFF7FEFF 		bl	halSpiExc
 882              	.LVL87:
 883              		.loc 1 546 0
 884 0016 E0B2     		uxtb	r0, r4
 885 0018 FFF7FEFF 		bl	halSpiExc
 886              	.LVL88:
 887              		.loc 1 547 0
 888 001c 0020     		movs	r0, #0
 889 001e FFF7FEFF 		bl	halSpiExc
 890              	.LVL89:
 891 0022 0024     		movs	r4, #0
 892              	.LVL90:
 893 0024 60F30704 		bfi	r4, r0, #0, #8
 894              	.LVL91:
 895              		.loc 1 548 0
 896 0028 0020     		movs	r0, #0
 897 002a FFF7FEFF 		bl	halSpiExc
 898              	.LVL92:
 899 002e 60F30F24 		bfi	r4, r0, #8, #8
 900              		.loc 1 549 0
 901 0032 0020     		movs	r0, #0
 902 0034 FFF7FEFF 		bl	halSpiExc
 903              	.LVL93:
 904 0038 60F31744 		bfi	r4, r0, #16, #8
 905              		.loc 1 550 0
 906 003c 6FF31F64 		bfc	r4, #24, #8
 907              		.loc 1 551 0
 908 0040 2846     		mov	r0, r5
 909 0042 FFF7FEFF 		bl	spiUnselect
 910              	.LVL94:
 911              		.loc 1 553 0
 912 0046 2046     		mov	r0, r4
ARM GAS  /tmp/cctBdhRt.s 			page 17


 913 0048 38BD     		pop	{r3, r4, r5, pc}
 914              	.LVL95:
 915              	.L60:
 916 004a 00BF     		.align	2
 917              	.L59:
 918 004c 00000000 		.word	SPID2
 919              		.cfi_endproc
 920              	.LFE281:
 921              		.size	CC2520_MEMRD24, .-CC2520_MEMRD24
 922              		.section	.text.CC2520_MEMWR,"ax",%progbits
 923              		.align	2
 924              		.p2align 4,,15
 925              		.global	CC2520_MEMWR
 926              		.thumb
 927              		.thumb_func
 928              		.type	CC2520_MEMWR, %function
 929              	CC2520_MEMWR:
 930              	.LFB282:
 931              		.loc 1 568 0
 932              		.cfi_startproc
 933              		@ args = 0, pretend = 0, frame = 0
 934              		@ frame_needed = 0, uses_anonymous_args = 0
 935              	.LVL96:
 936 0000 F8B5     		push	{r3, r4, r5, r6, r7, lr}
 937              		.cfi_def_cfa_offset 24
 938              		.cfi_offset 3, -24
 939              		.cfi_offset 4, -20
 940              		.cfi_offset 5, -16
 941              		.cfi_offset 6, -12
 942              		.cfi_offset 7, -8
 943              		.cfi_offset 14, -4
 944              		.loc 1 568 0
 945 0002 0446     		mov	r4, r0
 946              		.loc 1 570 0
 947 0004 0C48     		ldr	r0, .L67
 948              	.LVL97:
 949              		.loc 1 568 0
 950 0006 0D46     		mov	r5, r1
 951 0008 1746     		mov	r7, r2
 952              		.loc 1 570 0
 953 000a FFF7FEFF 		bl	spiSelect
 954              	.LVL98:
 955              		.loc 1 571 0
 956 000e 200A     		lsrs	r0, r4, #8
 957 0010 40F02000 		orr	r0, r0, #32
 958 0014 FFF7FEFF 		bl	halSpiExc
 959              	.LVL99:
 960 0018 0646     		mov	r6, r0
 961              	.LVL100:
 962              		.loc 1 572 0
 963 001a E0B2     		uxtb	r0, r4
 964 001c FFF7FEFF 		bl	halSpiExc
 965              	.LVL101:
 966              		.loc 1 573 0
 967 0020 25B1     		cbz	r5, .L62
 968              		.loc 1 573 0 is_stmt 0 discriminator 1
 969 0022 2946     		mov	r1, r5
ARM GAS  /tmp/cctBdhRt.s 			page 18


 970 0024 3A46     		mov	r2, r7
 971 0026 0448     		ldr	r0, .L67
 972 0028 FFF7FEFF 		bl	spiSend
 973              	.LVL102:
 974              	.L62:
 975              		.loc 1 574 0 is_stmt 1
 976 002c 0248     		ldr	r0, .L67
 977 002e FFF7FEFF 		bl	spiUnselect
 978              	.LVL103:
 979              		.loc 1 576 0
 980 0032 3046     		mov	r0, r6
 981 0034 F8BD     		pop	{r3, r4, r5, r6, r7, pc}
 982              	.LVL104:
 983              	.L68:
 984 0036 00BF     		.align	2
 985              	.L67:
 986 0038 00000000 		.word	SPID2
 987              		.cfi_endproc
 988              	.LFE282:
 989              		.size	CC2520_MEMWR, .-CC2520_MEMWR
 990              		.section	.text.CC2520_MEMWR8,"ax",%progbits
 991              		.align	2
 992              		.p2align 4,,15
 993              		.global	CC2520_MEMWR8
 994              		.thumb
 995              		.thumb_func
 996              		.type	CC2520_MEMWR8, %function
 997              	CC2520_MEMWR8:
 998              	.LFB283:
 999              		.loc 1 590 0
 1000              		.cfi_startproc
 1001              		@ args = 0, pretend = 0, frame = 0
 1002              		@ frame_needed = 0, uses_anonymous_args = 0
 1003              	.LVL105:
 1004 0000 F8B5     		push	{r3, r4, r5, r6, r7, lr}
 1005              		.cfi_def_cfa_offset 24
 1006              		.cfi_offset 3, -24
 1007              		.cfi_offset 4, -20
 1008              		.cfi_offset 5, -16
 1009              		.cfi_offset 6, -12
 1010              		.cfi_offset 7, -8
 1011              		.cfi_offset 14, -4
 1012              		.loc 1 592 0
 1013 0002 0B4C     		ldr	r4, .L71
 1014              		.loc 1 590 0
 1015 0004 0546     		mov	r5, r0
 1016              		.loc 1 592 0
 1017 0006 2046     		mov	r0, r4
 1018              	.LVL106:
 1019              		.loc 1 590 0
 1020 0008 0F46     		mov	r7, r1
 1021              		.loc 1 592 0
 1022 000a FFF7FEFF 		bl	spiSelect
 1023              	.LVL107:
 1024              		.loc 1 593 0
 1025 000e 280A     		lsrs	r0, r5, #8
 1026 0010 40F02000 		orr	r0, r0, #32
ARM GAS  /tmp/cctBdhRt.s 			page 19


 1027 0014 FFF7FEFF 		bl	halSpiExc
 1028              	.LVL108:
 1029 0018 0646     		mov	r6, r0
 1030              	.LVL109:
 1031              		.loc 1 594 0
 1032 001a E8B2     		uxtb	r0, r5
 1033 001c FFF7FEFF 		bl	halSpiExc
 1034              	.LVL110:
 1035              		.loc 1 595 0
 1036 0020 3846     		mov	r0, r7
 1037 0022 FFF7FEFF 		bl	halSpiExc
 1038              	.LVL111:
 1039              		.loc 1 596 0
 1040 0026 2046     		mov	r0, r4
 1041 0028 FFF7FEFF 		bl	spiUnselect
 1042              	.LVL112:
 1043              		.loc 1 598 0
 1044 002c 3046     		mov	r0, r6
 1045 002e F8BD     		pop	{r3, r4, r5, r6, r7, pc}
 1046              	.LVL113:
 1047              	.L72:
 1048              		.align	2
 1049              	.L71:
 1050 0030 00000000 		.word	SPID2
 1051              		.cfi_endproc
 1052              	.LFE283:
 1053              		.size	CC2520_MEMWR8, .-CC2520_MEMWR8
 1054              		.section	.text.CC2520_MEMWR16,"ax",%progbits
 1055              		.align	2
 1056              		.p2align 4,,15
 1057              		.global	CC2520_MEMWR16
 1058              		.thumb
 1059              		.thumb_func
 1060              		.type	CC2520_MEMWR16, %function
 1061              	CC2520_MEMWR16:
 1062              	.LFB284:
 1063              		.loc 1 612 0
 1064              		.cfi_startproc
 1065              		@ args = 0, pretend = 0, frame = 0
 1066              		@ frame_needed = 0, uses_anonymous_args = 0
 1067              	.LVL114:
 1068 0000 F8B5     		push	{r3, r4, r5, r6, r7, lr}
 1069              		.cfi_def_cfa_offset 24
 1070              		.cfi_offset 3, -24
 1071              		.cfi_offset 4, -20
 1072              		.cfi_offset 5, -16
 1073              		.cfi_offset 6, -12
 1074              		.cfi_offset 7, -8
 1075              		.cfi_offset 14, -4
 1076              		.loc 1 614 0
 1077 0002 0D4C     		ldr	r4, .L75
 1078              		.loc 1 612 0
 1079 0004 0646     		mov	r6, r0
 1080              		.loc 1 614 0
 1081 0006 2046     		mov	r0, r4
 1082              	.LVL115:
 1083              		.loc 1 612 0
ARM GAS  /tmp/cctBdhRt.s 			page 20


 1084 0008 0D46     		mov	r5, r1
 1085              		.loc 1 614 0
 1086 000a FFF7FEFF 		bl	spiSelect
 1087              	.LVL116:
 1088              		.loc 1 615 0
 1089 000e 300A     		lsrs	r0, r6, #8
 1090 0010 40F02000 		orr	r0, r0, #32
 1091 0014 FFF7FEFF 		bl	halSpiExc
 1092              	.LVL117:
 1093 0018 0746     		mov	r7, r0
 1094              	.LVL118:
 1095              		.loc 1 616 0
 1096 001a F0B2     		uxtb	r0, r6
 1097 001c FFF7FEFF 		bl	halSpiExc
 1098              	.LVL119:
 1099              		.loc 1 617 0
 1100 0020 E8B2     		uxtb	r0, r5
 1101 0022 FFF7FEFF 		bl	halSpiExc
 1102              	.LVL120:
 1103              		.loc 1 618 0
 1104 0026 280A     		lsrs	r0, r5, #8
 1105 0028 FFF7FEFF 		bl	halSpiExc
 1106              	.LVL121:
 1107              		.loc 1 619 0
 1108 002c 2046     		mov	r0, r4
 1109 002e FFF7FEFF 		bl	spiUnselect
 1110              	.LVL122:
 1111              		.loc 1 621 0
 1112 0032 3846     		mov	r0, r7
 1113 0034 F8BD     		pop	{r3, r4, r5, r6, r7, pc}
 1114              	.LVL123:
 1115              	.L76:
 1116 0036 00BF     		.align	2
 1117              	.L75:
 1118 0038 00000000 		.word	SPID2
 1119              		.cfi_endproc
 1120              	.LFE284:
 1121              		.size	CC2520_MEMWR16, .-CC2520_MEMWR16
 1122              		.section	.text.CC2520_MEMWR24,"ax",%progbits
 1123              		.align	2
 1124              		.p2align 4,,15
 1125              		.global	CC2520_MEMWR24
 1126              		.thumb
 1127              		.thumb_func
 1128              		.type	CC2520_MEMWR24, %function
 1129              	CC2520_MEMWR24:
 1130              	.LFB285:
 1131              		.loc 1 635 0
 1132              		.cfi_startproc
 1133              		@ args = 0, pretend = 0, frame = 0
 1134              		@ frame_needed = 0, uses_anonymous_args = 0
 1135              	.LVL124:
 1136 0000 F8B5     		push	{r3, r4, r5, r6, r7, lr}
 1137              		.cfi_def_cfa_offset 24
 1138              		.cfi_offset 3, -24
 1139              		.cfi_offset 4, -20
 1140              		.cfi_offset 5, -16
ARM GAS  /tmp/cctBdhRt.s 			page 21


 1141              		.cfi_offset 6, -12
 1142              		.cfi_offset 7, -8
 1143              		.cfi_offset 14, -4
 1144              		.loc 1 637 0
 1145 0002 0F4D     		ldr	r5, .L79
 1146              		.loc 1 635 0
 1147 0004 0646     		mov	r6, r0
 1148              		.loc 1 637 0
 1149 0006 2846     		mov	r0, r5
 1150              	.LVL125:
 1151              		.loc 1 635 0
 1152 0008 0C46     		mov	r4, r1
 1153              		.loc 1 637 0
 1154 000a FFF7FEFF 		bl	spiSelect
 1155              	.LVL126:
 1156              		.loc 1 638 0
 1157 000e 300A     		lsrs	r0, r6, #8
 1158 0010 40F02000 		orr	r0, r0, #32
 1159 0014 FFF7FEFF 		bl	halSpiExc
 1160              	.LVL127:
 1161 0018 0746     		mov	r7, r0
 1162              	.LVL128:
 1163              		.loc 1 639 0
 1164 001a F0B2     		uxtb	r0, r6
 1165 001c FFF7FEFF 		bl	halSpiExc
 1166              	.LVL129:
 1167              		.loc 1 640 0
 1168 0020 E0B2     		uxtb	r0, r4
 1169 0022 FFF7FEFF 		bl	halSpiExc
 1170              	.LVL130:
 1171              		.loc 1 641 0
 1172 0026 C4F30720 		ubfx	r0, r4, #8, #8
 1173 002a FFF7FEFF 		bl	halSpiExc
 1174              	.LVL131:
 1175              		.loc 1 642 0
 1176 002e C4F30740 		ubfx	r0, r4, #16, #8
 1177 0032 FFF7FEFF 		bl	halSpiExc
 1178              	.LVL132:
 1179              		.loc 1 643 0
 1180 0036 2846     		mov	r0, r5
 1181 0038 FFF7FEFF 		bl	spiUnselect
 1182              	.LVL133:
 1183              		.loc 1 645 0
 1184 003c 3846     		mov	r0, r7
 1185 003e F8BD     		pop	{r3, r4, r5, r6, r7, pc}
 1186              	.LVL134:
 1187              	.L80:
 1188              		.align	2
 1189              	.L79:
 1190 0040 00000000 		.word	SPID2
 1191              		.cfi_endproc
 1192              	.LFE285:
 1193              		.size	CC2520_MEMWR24, .-CC2520_MEMWR24
 1194              		.section	.text.CC2520_RXBUF,"ax",%progbits
 1195              		.align	2
 1196              		.p2align 4,,15
 1197              		.global	CC2520_RXBUF
ARM GAS  /tmp/cctBdhRt.s 			page 22


 1198              		.thumb
 1199              		.thumb_func
 1200              		.type	CC2520_RXBUF, %function
 1201              	CC2520_RXBUF:
 1202              	.LFB286:
 1203              		.loc 1 659 0
 1204              		.cfi_startproc
 1205              		@ args = 0, pretend = 0, frame = 0
 1206              		@ frame_needed = 0, uses_anonymous_args = 0
 1207              	.LVL135:
 1208 0000 70B5     		push	{r4, r5, r6, lr}
 1209              		.cfi_def_cfa_offset 16
 1210              		.cfi_offset 4, -16
 1211              		.cfi_offset 5, -12
 1212              		.cfi_offset 6, -8
 1213              		.cfi_offset 14, -4
 1214              		.loc 1 659 0
 1215 0002 0446     		mov	r4, r0
 1216              		.loc 1 661 0
 1217 0004 0948     		ldr	r0, .L87
 1218              	.LVL136:
 1219              		.loc 1 659 0
 1220 0006 0E46     		mov	r6, r1
 1221              		.loc 1 661 0
 1222 0008 FFF7FEFF 		bl	spiSelect
 1223              	.LVL137:
 1224              		.loc 1 662 0
 1225 000c 3020     		movs	r0, #48
 1226 000e FFF7FEFF 		bl	halSpiExc
 1227              	.LVL138:
 1228 0012 0546     		mov	r5, r0
 1229              	.LVL139:
 1230              		.loc 1 663 0
 1231 0014 24B1     		cbz	r4, .L82
 1232              		.loc 1 663 0 is_stmt 0 discriminator 1
 1233 0016 2146     		mov	r1, r4
 1234 0018 3246     		mov	r2, r6
 1235 001a 0448     		ldr	r0, .L87
 1236 001c FFF7FEFF 		bl	spiReceive
 1237              	.LVL140:
 1238              	.L82:
 1239              		.loc 1 664 0 is_stmt 1
 1240 0020 0248     		ldr	r0, .L87
 1241 0022 FFF7FEFF 		bl	spiUnselect
 1242              	.LVL141:
 1243              		.loc 1 666 0
 1244 0026 2846     		mov	r0, r5
 1245 0028 70BD     		pop	{r4, r5, r6, pc}
 1246              	.LVL142:
 1247              	.L88:
 1248 002a 00BF     		.align	2
 1249              	.L87:
 1250 002c 00000000 		.word	SPID2
 1251              		.cfi_endproc
 1252              	.LFE286:
 1253              		.size	CC2520_RXBUF, .-CC2520_RXBUF
 1254              		.section	.text.CC2520_RXBUF8,"ax",%progbits
ARM GAS  /tmp/cctBdhRt.s 			page 23


 1255              		.align	2
 1256              		.p2align 4,,15
 1257              		.global	CC2520_RXBUF8
 1258              		.thumb
 1259              		.thumb_func
 1260              		.type	CC2520_RXBUF8, %function
 1261              	CC2520_RXBUF8:
 1262              	.LFB287:
 1263              		.loc 1 679 0
 1264              		.cfi_startproc
 1265              		@ args = 0, pretend = 0, frame = 0
 1266              		@ frame_needed = 0, uses_anonymous_args = 0
 1267 0000 38B5     		push	{r3, r4, r5, lr}
 1268              		.cfi_def_cfa_offset 16
 1269              		.cfi_offset 3, -16
 1270              		.cfi_offset 4, -12
 1271              		.cfi_offset 5, -8
 1272              		.cfi_offset 14, -4
 1273              		.loc 1 681 0
 1274 0002 084C     		ldr	r4, .L91
 1275 0004 2046     		mov	r0, r4
 1276 0006 FFF7FEFF 		bl	spiSelect
 1277              	.LVL143:
 1278              		.loc 1 682 0
 1279 000a 3020     		movs	r0, #48
 1280 000c FFF7FEFF 		bl	halSpiExc
 1281              	.LVL144:
 1282              		.loc 1 683 0
 1283 0010 0020     		movs	r0, #0
 1284 0012 FFF7FEFF 		bl	halSpiExc
 1285              	.LVL145:
 1286 0016 0546     		mov	r5, r0
 1287              	.LVL146:
 1288              		.loc 1 684 0
 1289 0018 2046     		mov	r0, r4
 1290 001a FFF7FEFF 		bl	spiUnselect
 1291              	.LVL147:
 1292              		.loc 1 686 0
 1293 001e 2846     		mov	r0, r5
 1294 0020 38BD     		pop	{r3, r4, r5, pc}
 1295              	.LVL148:
 1296              	.L92:
 1297 0022 00BF     		.align	2
 1298              	.L91:
 1299 0024 00000000 		.word	SPID2
 1300              		.cfi_endproc
 1301              	.LFE287:
 1302              		.size	CC2520_RXBUF8, .-CC2520_RXBUF8
 1303              		.section	.text.CC2520_RXBUF16,"ax",%progbits
 1304              		.align	2
 1305              		.p2align 4,,15
 1306              		.global	CC2520_RXBUF16
 1307              		.thumb
 1308              		.thumb_func
 1309              		.type	CC2520_RXBUF16, %function
 1310              	CC2520_RXBUF16:
 1311              	.LFB288:
ARM GAS  /tmp/cctBdhRt.s 			page 24


 1312              		.loc 1 699 0
 1313              		.cfi_startproc
 1314              		@ args = 0, pretend = 0, frame = 0
 1315              		@ frame_needed = 0, uses_anonymous_args = 0
 1316 0000 38B5     		push	{r3, r4, r5, lr}
 1317              		.cfi_def_cfa_offset 16
 1318              		.cfi_offset 3, -16
 1319              		.cfi_offset 4, -12
 1320              		.cfi_offset 5, -8
 1321              		.cfi_offset 14, -4
 1322              		.loc 1 701 0
 1323 0002 0C4D     		ldr	r5, .L95
 1324 0004 2846     		mov	r0, r5
 1325 0006 FFF7FEFF 		bl	spiSelect
 1326              	.LVL149:
 1327              		.loc 1 702 0
 1328 000a 3020     		movs	r0, #48
 1329 000c FFF7FEFF 		bl	halSpiExc
 1330              	.LVL150:
 1331              		.loc 1 703 0
 1332 0010 0020     		movs	r0, #0
 1333 0012 FFF7FEFF 		bl	halSpiExc
 1334              	.LVL151:
 1335 0016 4FF00004 		mov	r4, #0	@ movhi
 1336              	.LVL152:
 1337 001a 60F30704 		bfi	r4, r0, #0, #8
 1338              	.LVL153:
 1339              		.loc 1 704 0
 1340 001e 0020     		movs	r0, #0
 1341 0020 FFF7FEFF 		bl	halSpiExc
 1342              	.LVL154:
 1343 0024 60F30F24 		bfi	r4, r0, #8, #8
 1344              		.loc 1 705 0
 1345 0028 2846     		mov	r0, r5
 1346 002a FFF7FEFF 		bl	spiUnselect
 1347              	.LVL155:
 1348              		.loc 1 707 0
 1349 002e A0B2     		uxth	r0, r4
 1350 0030 38BD     		pop	{r3, r4, r5, pc}
 1351              	.LVL156:
 1352              	.L96:
 1353 0032 00BF     		.align	2
 1354              	.L95:
 1355 0034 00000000 		.word	SPID2
 1356              		.cfi_endproc
 1357              	.LFE288:
 1358              		.size	CC2520_RXBUF16, .-CC2520_RXBUF16
 1359              		.section	.text.CC2520_RXBUFCP_BEGIN,"ax",%progbits
 1360              		.align	2
 1361              		.p2align 4,,15
 1362              		.global	CC2520_RXBUFCP_BEGIN
 1363              		.thumb
 1364              		.thumb_func
 1365              		.type	CC2520_RXBUFCP_BEGIN, %function
 1366              	CC2520_RXBUFCP_BEGIN:
 1367              	.LFB289:
 1368              		.loc 1 721 0
ARM GAS  /tmp/cctBdhRt.s 			page 25


 1369              		.cfi_startproc
 1370              		@ args = 0, pretend = 0, frame = 0
 1371              		@ frame_needed = 0, uses_anonymous_args = 0
 1372              	.LVL157:
 1373 0000 70B5     		push	{r4, r5, r6, lr}
 1374              		.cfi_def_cfa_offset 16
 1375              		.cfi_offset 4, -16
 1376              		.cfi_offset 5, -12
 1377              		.cfi_offset 6, -8
 1378              		.cfi_offset 14, -4
 1379              		.loc 1 721 0
 1380 0002 0646     		mov	r6, r0
 1381              		.loc 1 723 0
 1382 0004 0948     		ldr	r0, .L101
 1383              	.LVL158:
 1384              		.loc 1 721 0
 1385 0006 0C46     		mov	r4, r1
 1386              		.loc 1 723 0
 1387 0008 FFF7FEFF 		bl	spiSelect
 1388              	.LVL159:
 1389              		.loc 1 724 0
 1390 000c 3820     		movs	r0, #56
 1391 000e FFF7FEFF 		bl	halSpiExc
 1392              	.LVL160:
 1393 0012 0546     		mov	r5, r0
 1394              	.LVL161:
 1395              		.loc 1 726 0
 1396 0014 300A     		lsrs	r0, r6, #8
 1397              		.loc 1 725 0
 1398 0016 24B1     		cbz	r4, .L98
 1399              		.loc 1 726 0
 1400 0018 FFF7FEFF 		bl	halSpiExc
 1401              	.LVL162:
 1402 001c 2070     		strb	r0, [r4]
 1403              		.loc 1 731 0
 1404 001e 2846     		mov	r0, r5
 1405 0020 70BD     		pop	{r4, r5, r6, pc}
 1406              	.LVL163:
 1407              	.L98:
 1408              		.loc 1 728 0
 1409 0022 FFF7FEFF 		bl	halSpiExc
 1410              	.LVL164:
 1411              		.loc 1 731 0
 1412 0026 2846     		mov	r0, r5
 1413 0028 70BD     		pop	{r4, r5, r6, pc}
 1414              	.LVL165:
 1415              	.L102:
 1416 002a 00BF     		.align	2
 1417              	.L101:
 1418 002c 00000000 		.word	SPID2
 1419              		.cfi_endproc
 1420              	.LFE289:
 1421              		.size	CC2520_RXBUFCP_BEGIN, .-CC2520_RXBUFCP_BEGIN
 1422              		.section	.text.CC2520_RXBUFCP_END,"ax",%progbits
 1423              		.align	2
 1424              		.p2align 4,,15
 1425              		.global	CC2520_RXBUFCP_END
ARM GAS  /tmp/cctBdhRt.s 			page 26


 1426              		.thumb
 1427              		.thumb_func
 1428              		.type	CC2520_RXBUFCP_END, %function
 1429              	CC2520_RXBUFCP_END:
 1430              	.LFB290:
 1431              		.loc 1 747 0
 1432              		.cfi_startproc
 1433              		@ args = 0, pretend = 0, frame = 0
 1434              		@ frame_needed = 0, uses_anonymous_args = 0
 1435              	.LVL166:
 1436 0000 70B5     		push	{r4, r5, r6, lr}
 1437              		.cfi_def_cfa_offset 16
 1438              		.cfi_offset 4, -16
 1439              		.cfi_offset 5, -12
 1440              		.cfi_offset 6, -8
 1441              		.cfi_offset 14, -4
 1442              		.loc 1 749 0
 1443 0002 C0B2     		uxtb	r0, r0
 1444              	.LVL167:
 1445              		.loc 1 747 0
 1446 0004 0C46     		mov	r4, r1
 1447 0006 1646     		mov	r6, r2
 1448              		.loc 1 749 0
 1449 0008 FFF7FEFF 		bl	halSpiExc
 1450              	.LVL168:
 1451 000c 0546     		mov	r5, r0
 1452              	.LVL169:
 1453              		.loc 1 750 0
 1454 000e 24B1     		cbz	r4, .L104
 1455              		.loc 1 750 0 is_stmt 0 discriminator 1
 1456 0010 2146     		mov	r1, r4
 1457 0012 3246     		mov	r2, r6
 1458 0014 0348     		ldr	r0, .L109
 1459 0016 FFF7FEFF 		bl	spiReceive
 1460              	.LVL170:
 1461              	.L104:
 1462              		.loc 1 751 0 is_stmt 1
 1463 001a 0248     		ldr	r0, .L109
 1464 001c FFF7FEFF 		bl	spiUnselect
 1465              	.LVL171:
 1466              		.loc 1 753 0
 1467 0020 2846     		mov	r0, r5
 1468 0022 70BD     		pop	{r4, r5, r6, pc}
 1469              	.LVL172:
 1470              	.L110:
 1471              		.align	2
 1472              	.L109:
 1473 0024 00000000 		.word	SPID2
 1474              		.cfi_endproc
 1475              	.LFE290:
 1476              		.size	CC2520_RXBUFCP_END, .-CC2520_RXBUFCP_END
 1477              		.section	.text.CC2520_RXBUFMOV,"ax",%progbits
 1478              		.align	2
 1479              		.p2align 4,,15
 1480              		.global	CC2520_RXBUFMOV
 1481              		.thumb
 1482              		.thumb_func
ARM GAS  /tmp/cctBdhRt.s 			page 27


 1483              		.type	CC2520_RXBUFMOV, %function
 1484              	CC2520_RXBUFMOV:
 1485              	.LFB291:
 1486              		.loc 1 770 0
 1487              		.cfi_startproc
 1488              		@ args = 0, pretend = 0, frame = 0
 1489              		@ frame_needed = 0, uses_anonymous_args = 0
 1490              	.LVL173:
 1491 0000 F8B5     		push	{r3, r4, r5, r6, r7, lr}
 1492              		.cfi_def_cfa_offset 24
 1493              		.cfi_offset 3, -24
 1494              		.cfi_offset 4, -20
 1495              		.cfi_offset 5, -16
 1496              		.cfi_offset 6, -12
 1497              		.cfi_offset 7, -8
 1498              		.cfi_offset 14, -4
 1499              		.loc 1 770 0
 1500 0002 0646     		mov	r6, r0
 1501              		.loc 1 772 0
 1502 0004 0E48     		ldr	r0, .L115
 1503              	.LVL174:
 1504              		.loc 1 770 0
 1505 0006 1746     		mov	r7, r2
 1506 0008 0C46     		mov	r4, r1
 1507 000a 1D46     		mov	r5, r3
 1508              		.loc 1 772 0
 1509 000c FFF7FEFF 		bl	spiSelect
 1510              	.LVL175:
 1511              		.loc 1 773 0
 1512 0010 46F03200 		orr	r0, r6, #50
 1513 0014 FFF7FEFF 		bl	halSpiExc
 1514              	.LVL176:
 1515 0018 0646     		mov	r6, r0
 1516              	.LVL177:
 1517              		.loc 1 775 0
 1518 001a 3846     		mov	r0, r7
 1519              		.loc 1 774 0
 1520 001c 6DB1     		cbz	r5, .L112
 1521              		.loc 1 775 0
 1522 001e FFF7FEFF 		bl	halSpiExc
 1523              	.LVL178:
 1524 0022 2870     		strb	r0, [r5]
 1525              	.L113:
 1526              		.loc 1 779 0
 1527 0024 200A     		lsrs	r0, r4, #8
 1528 0026 FFF7FEFF 		bl	halSpiExc
 1529              	.LVL179:
 1530              		.loc 1 780 0
 1531 002a E0B2     		uxtb	r0, r4
 1532 002c FFF7FEFF 		bl	halSpiExc
 1533              	.LVL180:
 1534              		.loc 1 781 0
 1535 0030 0348     		ldr	r0, .L115
 1536 0032 FFF7FEFF 		bl	spiUnselect
 1537              	.LVL181:
 1538              		.loc 1 783 0
 1539 0036 3046     		mov	r0, r6
ARM GAS  /tmp/cctBdhRt.s 			page 28


 1540 0038 F8BD     		pop	{r3, r4, r5, r6, r7, pc}
 1541              	.LVL182:
 1542              	.L112:
 1543              		.loc 1 777 0
 1544 003a FFF7FEFF 		bl	halSpiExc
 1545              	.LVL183:
 1546 003e F1E7     		b	.L113
 1547              	.L116:
 1548              		.align	2
 1549              	.L115:
 1550 0040 00000000 		.word	SPID2
 1551              		.cfi_endproc
 1552              	.LFE291:
 1553              		.size	CC2520_RXBUFMOV, .-CC2520_RXBUFMOV
 1554              		.section	.text.CC2520_TXBUF,"ax",%progbits
 1555              		.align	2
 1556              		.p2align 4,,15
 1557              		.global	CC2520_TXBUF
 1558              		.thumb
 1559              		.thumb_func
 1560              		.type	CC2520_TXBUF, %function
 1561              	CC2520_TXBUF:
 1562              	.LFB292:
 1563              		.loc 1 797 0
 1564              		.cfi_startproc
 1565              		@ args = 0, pretend = 0, frame = 0
 1566              		@ frame_needed = 0, uses_anonymous_args = 0
 1567              	.LVL184:
 1568 0000 70B5     		push	{r4, r5, r6, lr}
 1569              		.cfi_def_cfa_offset 16
 1570              		.cfi_offset 4, -16
 1571              		.cfi_offset 5, -12
 1572              		.cfi_offset 6, -8
 1573              		.cfi_offset 14, -4
 1574              		.loc 1 797 0
 1575 0002 0446     		mov	r4, r0
 1576              		.loc 1 799 0
 1577 0004 0948     		ldr	r0, .L123
 1578              	.LVL185:
 1579              		.loc 1 797 0
 1580 0006 0E46     		mov	r6, r1
 1581              		.loc 1 799 0
 1582 0008 FFF7FEFF 		bl	spiSelect
 1583              	.LVL186:
 1584              		.loc 1 800 0
 1585 000c 3A20     		movs	r0, #58
 1586 000e FFF7FEFF 		bl	halSpiExc
 1587              	.LVL187:
 1588 0012 0546     		mov	r5, r0
 1589              	.LVL188:
 1590              		.loc 1 801 0
 1591 0014 24B1     		cbz	r4, .L118
 1592              		.loc 1 801 0 is_stmt 0 discriminator 1
 1593 0016 2146     		mov	r1, r4
 1594 0018 3246     		mov	r2, r6
 1595 001a 0448     		ldr	r0, .L123
 1596 001c FFF7FEFF 		bl	spiSend
ARM GAS  /tmp/cctBdhRt.s 			page 29


 1597              	.LVL189:
 1598              	.L118:
 1599              		.loc 1 802 0 is_stmt 1
 1600 0020 0248     		ldr	r0, .L123
 1601 0022 FFF7FEFF 		bl	spiUnselect
 1602              	.LVL190:
 1603              		.loc 1 804 0
 1604 0026 2846     		mov	r0, r5
 1605 0028 70BD     		pop	{r4, r5, r6, pc}
 1606              	.LVL191:
 1607              	.L124:
 1608 002a 00BF     		.align	2
 1609              	.L123:
 1610 002c 00000000 		.word	SPID2
 1611              		.cfi_endproc
 1612              	.LFE292:
 1613              		.size	CC2520_TXBUF, .-CC2520_TXBUF
 1614              		.section	.text.CC2520_TXBUF8,"ax",%progbits
 1615              		.align	2
 1616              		.p2align 4,,15
 1617              		.global	CC2520_TXBUF8
 1618              		.thumb
 1619              		.thumb_func
 1620              		.type	CC2520_TXBUF8, %function
 1621              	CC2520_TXBUF8:
 1622              	.LFB293:
 1623              		.loc 1 817 0
 1624              		.cfi_startproc
 1625              		@ args = 0, pretend = 0, frame = 0
 1626              		@ frame_needed = 0, uses_anonymous_args = 0
 1627              	.LVL192:
 1628 0000 38B5     		push	{r3, r4, r5, lr}
 1629              		.cfi_def_cfa_offset 16
 1630              		.cfi_offset 3, -16
 1631              		.cfi_offset 4, -12
 1632              		.cfi_offset 5, -8
 1633              		.cfi_offset 14, -4
 1634              		.loc 1 818 0
 1635 0002 084C     		ldr	r4, .L127
 1636              		.loc 1 817 0
 1637 0004 0546     		mov	r5, r0
 1638              		.loc 1 818 0
 1639 0006 2046     		mov	r0, r4
 1640              	.LVL193:
 1641 0008 FFF7FEFF 		bl	spiSelect
 1642              	.LVL194:
 1643              		.loc 1 819 0
 1644 000c 3A20     		movs	r0, #58
 1645 000e FFF7FEFF 		bl	halSpiExc
 1646              	.LVL195:
 1647              		.loc 1 820 0
 1648 0012 2846     		mov	r0, r5
 1649 0014 FFF7FEFF 		bl	halSpiExc
 1650              	.LVL196:
 1651              		.loc 1 821 0
 1652 0018 2046     		mov	r0, r4
 1653              		.loc 1 822 0
ARM GAS  /tmp/cctBdhRt.s 			page 30


 1654 001a BDE83840 		pop	{r3, r4, r5, lr}
 1655              		.cfi_restore 14
 1656              		.cfi_restore 5
 1657              		.cfi_restore 4
 1658              		.cfi_restore 3
 1659              		.cfi_def_cfa_offset 0
 1660              		.loc 1 821 0
 1661 001e FFF7FEBF 		b	spiUnselect
 1662              	.LVL197:
 1663              	.L128:
 1664 0022 00BF     		.align	2
 1665              	.L127:
 1666 0024 00000000 		.word	SPID2
 1667              		.cfi_endproc
 1668              	.LFE293:
 1669              		.size	CC2520_TXBUF8, .-CC2520_TXBUF8
 1670              		.section	.text.CC2520_TXBUF16,"ax",%progbits
 1671              		.align	2
 1672              		.p2align 4,,15
 1673              		.global	CC2520_TXBUF16
 1674              		.thumb
 1675              		.thumb_func
 1676              		.type	CC2520_TXBUF16, %function
 1677              	CC2520_TXBUF16:
 1678              	.LFB294:
 1679              		.loc 1 835 0
 1680              		.cfi_startproc
 1681              		@ args = 0, pretend = 0, frame = 0
 1682              		@ frame_needed = 0, uses_anonymous_args = 0
 1683              	.LVL198:
 1684 0000 38B5     		push	{r3, r4, r5, lr}
 1685              		.cfi_def_cfa_offset 16
 1686              		.cfi_offset 3, -16
 1687              		.cfi_offset 4, -12
 1688              		.cfi_offset 5, -8
 1689              		.cfi_offset 14, -4
 1690              		.loc 1 836 0
 1691 0002 094C     		ldr	r4, .L131
 1692              		.loc 1 835 0
 1693 0004 0546     		mov	r5, r0
 1694              		.loc 1 836 0
 1695 0006 2046     		mov	r0, r4
 1696              	.LVL199:
 1697 0008 FFF7FEFF 		bl	spiSelect
 1698              	.LVL200:
 1699              		.loc 1 837 0
 1700 000c 3A20     		movs	r0, #58
 1701 000e FFF7FEFF 		bl	halSpiExc
 1702              	.LVL201:
 1703              		.loc 1 838 0
 1704 0012 E8B2     		uxtb	r0, r5
 1705 0014 FFF7FEFF 		bl	halSpiExc
 1706              	.LVL202:
 1707              		.loc 1 839 0
 1708 0018 280A     		lsrs	r0, r5, #8
 1709 001a FFF7FEFF 		bl	halSpiExc
 1710              	.LVL203:
ARM GAS  /tmp/cctBdhRt.s 			page 31


 1711              		.loc 1 840 0
 1712 001e 2046     		mov	r0, r4
 1713              		.loc 1 841 0
 1714 0020 BDE83840 		pop	{r3, r4, r5, lr}
 1715              		.cfi_restore 14
 1716              		.cfi_restore 5
 1717              		.cfi_restore 4
 1718              		.cfi_restore 3
 1719              		.cfi_def_cfa_offset 0
 1720              		.loc 1 840 0
 1721 0024 FFF7FEBF 		b	spiUnselect
 1722              	.LVL204:
 1723              	.L132:
 1724              		.align	2
 1725              	.L131:
 1726 0028 00000000 		.word	SPID2
 1727              		.cfi_endproc
 1728              	.LFE294:
 1729              		.size	CC2520_TXBUF16, .-CC2520_TXBUF16
 1730              		.section	.text.CC2520_TXBUFCP,"ax",%progbits
 1731              		.align	2
 1732              		.p2align 4,,15
 1733              		.global	CC2520_TXBUFCP
 1734              		.thumb
 1735              		.thumb_func
 1736              		.type	CC2520_TXBUFCP, %function
 1737              	CC2520_TXBUFCP:
 1738              	.LFB295:
 1739              		.loc 1 857 0
 1740              		.cfi_startproc
 1741              		@ args = 0, pretend = 0, frame = 0
 1742              		@ frame_needed = 0, uses_anonymous_args = 0
 1743              	.LVL205:
 1744 0000 F8B5     		push	{r3, r4, r5, r6, r7, lr}
 1745              		.cfi_def_cfa_offset 24
 1746              		.cfi_offset 3, -24
 1747              		.cfi_offset 4, -20
 1748              		.cfi_offset 5, -16
 1749              		.cfi_offset 6, -12
 1750              		.cfi_offset 7, -8
 1751              		.cfi_offset 14, -4
 1752              		.loc 1 857 0
 1753 0002 0646     		mov	r6, r0
 1754              		.loc 1 859 0
 1755 0004 0E48     		ldr	r0, .L137
 1756              	.LVL206:
 1757              		.loc 1 857 0
 1758 0006 1746     		mov	r7, r2
 1759 0008 0C46     		mov	r4, r1
 1760 000a 1D46     		mov	r5, r3
 1761              		.loc 1 859 0
 1762 000c FFF7FEFF 		bl	spiSelect
 1763              	.LVL207:
 1764              		.loc 1 860 0
 1765 0010 46F03E00 		orr	r0, r6, #62
 1766 0014 FFF7FEFF 		bl	halSpiExc
 1767              	.LVL208:
ARM GAS  /tmp/cctBdhRt.s 			page 32


 1768 0018 0646     		mov	r6, r0
 1769              	.LVL209:
 1770              		.loc 1 862 0
 1771 001a 3846     		mov	r0, r7
 1772              		.loc 1 861 0
 1773 001c 6DB1     		cbz	r5, .L134
 1774              		.loc 1 862 0
 1775 001e FFF7FEFF 		bl	halSpiExc
 1776              	.LVL210:
 1777 0022 2870     		strb	r0, [r5]
 1778              	.L135:
 1779              		.loc 1 866 0
 1780 0024 200A     		lsrs	r0, r4, #8
 1781 0026 FFF7FEFF 		bl	halSpiExc
 1782              	.LVL211:
 1783              		.loc 1 867 0
 1784 002a E0B2     		uxtb	r0, r4
 1785 002c FFF7FEFF 		bl	halSpiExc
 1786              	.LVL212:
 1787              		.loc 1 868 0
 1788 0030 0348     		ldr	r0, .L137
 1789 0032 FFF7FEFF 		bl	spiUnselect
 1790              	.LVL213:
 1791              		.loc 1 870 0
 1792 0036 3046     		mov	r0, r6
 1793 0038 F8BD     		pop	{r3, r4, r5, r6, r7, pc}
 1794              	.LVL214:
 1795              	.L134:
 1796              		.loc 1 864 0
 1797 003a FFF7FEFF 		bl	halSpiExc
 1798              	.LVL215:
 1799 003e F1E7     		b	.L135
 1800              	.L138:
 1801              		.align	2
 1802              	.L137:
 1803 0040 00000000 		.word	SPID2
 1804              		.cfi_endproc
 1805              	.LFE295:
 1806              		.size	CC2520_TXBUFCP, .-CC2520_TXBUFCP
 1807              		.section	.text.CC2520_RANDOM,"ax",%progbits
 1808              		.align	2
 1809              		.p2align 4,,15
 1810              		.global	CC2520_RANDOM
 1811              		.thumb
 1812              		.thumb_func
 1813              		.type	CC2520_RANDOM, %function
 1814              	CC2520_RANDOM:
 1815              	.LFB296:
 1816              		.loc 1 884 0
 1817              		.cfi_startproc
 1818              		@ args = 0, pretend = 0, frame = 0
 1819              		@ frame_needed = 0, uses_anonymous_args = 0
 1820              	.LVL216:
 1821 0000 70B5     		push	{r4, r5, r6, lr}
 1822              		.cfi_def_cfa_offset 16
 1823              		.cfi_offset 4, -16
 1824              		.cfi_offset 5, -12
ARM GAS  /tmp/cctBdhRt.s 			page 33


 1825              		.cfi_offset 6, -8
 1826              		.cfi_offset 14, -4
 1827              		.loc 1 884 0
 1828 0002 0446     		mov	r4, r0
 1829              		.loc 1 886 0
 1830 0004 0A48     		ldr	r0, .L145
 1831              	.LVL217:
 1832              		.loc 1 884 0
 1833 0006 0E46     		mov	r6, r1
 1834              		.loc 1 886 0
 1835 0008 FFF7FEFF 		bl	spiSelect
 1836              	.LVL218:
 1837              		.loc 1 887 0
 1838 000c 3C20     		movs	r0, #60
 1839 000e FFF7FEFF 		bl	halSpiExc
 1840              	.LVL219:
 1841 0012 0546     		mov	r5, r0
 1842              	.LVL220:
 1843              		.loc 1 888 0
 1844 0014 0020     		movs	r0, #0
 1845 0016 FFF7FEFF 		bl	halSpiExc
 1846              	.LVL221:
 1847              		.loc 1 889 0
 1848 001a 24B1     		cbz	r4, .L140
 1849              		.loc 1 889 0 is_stmt 0 discriminator 1
 1850 001c 2146     		mov	r1, r4
 1851 001e 3246     		mov	r2, r6
 1852 0020 0348     		ldr	r0, .L145
 1853 0022 FFF7FEFF 		bl	spiReceive
 1854              	.LVL222:
 1855              	.L140:
 1856              		.loc 1 890 0 is_stmt 1
 1857 0026 0248     		ldr	r0, .L145
 1858 0028 FFF7FEFF 		bl	spiUnselect
 1859              	.LVL223:
 1860              		.loc 1 892 0
 1861 002c 2846     		mov	r0, r5
 1862 002e 70BD     		pop	{r4, r5, r6, pc}
 1863              	.LVL224:
 1864              	.L146:
 1865              		.align	2
 1866              	.L145:
 1867 0030 00000000 		.word	SPID2
 1868              		.cfi_endproc
 1869              	.LFE296:
 1870              		.size	CC2520_RANDOM, .-CC2520_RANDOM
 1871              		.section	.text.CC2520_RANDOM8,"ax",%progbits
 1872              		.align	2
 1873              		.p2align 4,,15
 1874              		.global	CC2520_RANDOM8
 1875              		.thumb
 1876              		.thumb_func
 1877              		.type	CC2520_RANDOM8, %function
 1878              	CC2520_RANDOM8:
 1879              	.LFB297:
 1880              		.loc 1 905 0
 1881              		.cfi_startproc
ARM GAS  /tmp/cctBdhRt.s 			page 34


 1882              		@ args = 0, pretend = 0, frame = 0
 1883              		@ frame_needed = 0, uses_anonymous_args = 0
 1884 0000 38B5     		push	{r3, r4, r5, lr}
 1885              		.cfi_def_cfa_offset 16
 1886              		.cfi_offset 3, -16
 1887              		.cfi_offset 4, -12
 1888              		.cfi_offset 5, -8
 1889              		.cfi_offset 14, -4
 1890              		.loc 1 907 0
 1891 0002 094C     		ldr	r4, .L149
 1892 0004 2046     		mov	r0, r4
 1893 0006 FFF7FEFF 		bl	spiSelect
 1894              	.LVL225:
 1895              		.loc 1 908 0
 1896 000a 3C20     		movs	r0, #60
 1897 000c FFF7FEFF 		bl	halSpiExc
 1898              	.LVL226:
 1899              		.loc 1 909 0
 1900 0010 0020     		movs	r0, #0
 1901 0012 FFF7FEFF 		bl	halSpiExc
 1902              	.LVL227:
 1903              		.loc 1 910 0
 1904 0016 0020     		movs	r0, #0
 1905 0018 FFF7FEFF 		bl	halSpiExc
 1906              	.LVL228:
 1907 001c 0546     		mov	r5, r0
 1908              	.LVL229:
 1909              		.loc 1 911 0
 1910 001e 2046     		mov	r0, r4
 1911 0020 FFF7FEFF 		bl	spiUnselect
 1912              	.LVL230:
 1913              		.loc 1 913 0
 1914 0024 2846     		mov	r0, r5
 1915 0026 38BD     		pop	{r3, r4, r5, pc}
 1916              	.LVL231:
 1917              	.L150:
 1918              		.align	2
 1919              	.L149:
 1920 0028 00000000 		.word	SPID2
 1921              		.cfi_endproc
 1922              	.LFE297:
 1923              		.size	CC2520_RANDOM8, .-CC2520_RANDOM8
 1924              		.section	.text.CC2520_RANDOM16,"ax",%progbits
 1925              		.align	2
 1926              		.p2align 4,,15
 1927              		.global	CC2520_RANDOM16
 1928              		.thumb
 1929              		.thumb_func
 1930              		.type	CC2520_RANDOM16, %function
 1931              	CC2520_RANDOM16:
 1932              	.LFB298:
 1933              		.loc 1 926 0
 1934              		.cfi_startproc
 1935              		@ args = 0, pretend = 0, frame = 0
 1936              		@ frame_needed = 0, uses_anonymous_args = 0
 1937 0000 38B5     		push	{r3, r4, r5, lr}
 1938              		.cfi_def_cfa_offset 16
ARM GAS  /tmp/cctBdhRt.s 			page 35


 1939              		.cfi_offset 3, -16
 1940              		.cfi_offset 4, -12
 1941              		.cfi_offset 5, -8
 1942              		.cfi_offset 14, -4
 1943              		.loc 1 928 0
 1944 0002 0D4D     		ldr	r5, .L153
 1945 0004 2846     		mov	r0, r5
 1946 0006 FFF7FEFF 		bl	spiSelect
 1947              	.LVL232:
 1948              		.loc 1 929 0
 1949 000a 3C20     		movs	r0, #60
 1950 000c FFF7FEFF 		bl	halSpiExc
 1951              	.LVL233:
 1952              		.loc 1 930 0
 1953 0010 0020     		movs	r0, #0
 1954 0012 FFF7FEFF 		bl	halSpiExc
 1955              	.LVL234:
 1956              		.loc 1 931 0
 1957 0016 0020     		movs	r0, #0
 1958 0018 FFF7FEFF 		bl	halSpiExc
 1959              	.LVL235:
 1960 001c 4FF00004 		mov	r4, #0	@ movhi
 1961              	.LVL236:
 1962 0020 60F30704 		bfi	r4, r0, #0, #8
 1963              	.LVL237:
 1964              		.loc 1 932 0
 1965 0024 0020     		movs	r0, #0
 1966 0026 FFF7FEFF 		bl	halSpiExc
 1967              	.LVL238:
 1968 002a 60F30F24 		bfi	r4, r0, #8, #8
 1969              		.loc 1 933 0
 1970 002e 2846     		mov	r0, r5
 1971 0030 FFF7FEFF 		bl	spiUnselect
 1972              	.LVL239:
 1973              		.loc 1 935 0
 1974 0034 A0B2     		uxth	r0, r4
 1975 0036 38BD     		pop	{r3, r4, r5, pc}
 1976              	.LVL240:
 1977              	.L154:
 1978              		.align	2
 1979              	.L153:
 1980 0038 00000000 		.word	SPID2
 1981              		.cfi_endproc
 1982              	.LFE298:
 1983              		.size	CC2520_RANDOM16, .-CC2520_RANDOM16
 1984              		.section	.text.CC2520_RXMASKOR,"ax",%progbits
 1985              		.align	2
 1986              		.p2align 4,,15
 1987              		.global	CC2520_RXMASKOR
 1988              		.thumb
 1989              		.thumb_func
 1990              		.type	CC2520_RXMASKOR, %function
 1991              	CC2520_RXMASKOR:
 1992              	.LFB299:
 1993              		.loc 1 948 0
 1994              		.cfi_startproc
 1995              		@ args = 0, pretend = 0, frame = 0
ARM GAS  /tmp/cctBdhRt.s 			page 36


 1996              		@ frame_needed = 0, uses_anonymous_args = 0
 1997              	.LVL241:
 1998 0000 70B5     		push	{r4, r5, r6, lr}
 1999              		.cfi_def_cfa_offset 16
 2000              		.cfi_offset 4, -16
 2001              		.cfi_offset 5, -12
 2002              		.cfi_offset 6, -8
 2003              		.cfi_offset 14, -4
 2004              		.loc 1 950 0
 2005 0002 0A4C     		ldr	r4, .L157
 2006              		.loc 1 948 0
 2007 0004 0546     		mov	r5, r0
 2008              		.loc 1 950 0
 2009 0006 2046     		mov	r0, r4
 2010              	.LVL242:
 2011 0008 FFF7FEFF 		bl	spiSelect
 2012              	.LVL243:
 2013              		.loc 1 951 0
 2014 000c 4F20     		movs	r0, #79
 2015 000e FFF7FEFF 		bl	halSpiExc
 2016              	.LVL244:
 2017 0012 0646     		mov	r6, r0
 2018              	.LVL245:
 2019              		.loc 1 952 0
 2020 0014 280A     		lsrs	r0, r5, #8
 2021 0016 FFF7FEFF 		bl	halSpiExc
 2022              	.LVL246:
 2023              		.loc 1 953 0
 2024 001a E8B2     		uxtb	r0, r5
 2025 001c FFF7FEFF 		bl	halSpiExc
 2026              	.LVL247:
 2027              		.loc 1 954 0
 2028 0020 2046     		mov	r0, r4
 2029 0022 FFF7FEFF 		bl	spiUnselect
 2030              	.LVL248:
 2031              		.loc 1 956 0
 2032 0026 3046     		mov	r0, r6
 2033 0028 70BD     		pop	{r4, r5, r6, pc}
 2034              	.LVL249:
 2035              	.L158:
 2036 002a 00BF     		.align	2
 2037              	.L157:
 2038 002c 00000000 		.word	SPID2
 2039              		.cfi_endproc
 2040              	.LFE299:
 2041              		.size	CC2520_RXMASKOR, .-CC2520_RXMASKOR
 2042              		.section	.text.CC2520_RXMASKAND,"ax",%progbits
 2043              		.align	2
 2044              		.p2align 4,,15
 2045              		.global	CC2520_RXMASKAND
 2046              		.thumb
 2047              		.thumb_func
 2048              		.type	CC2520_RXMASKAND, %function
 2049              	CC2520_RXMASKAND:
 2050              	.LFB300:
 2051              		.loc 1 969 0
 2052              		.cfi_startproc
ARM GAS  /tmp/cctBdhRt.s 			page 37


 2053              		@ args = 0, pretend = 0, frame = 0
 2054              		@ frame_needed = 0, uses_anonymous_args = 0
 2055              	.LVL250:
 2056 0000 70B5     		push	{r4, r5, r6, lr}
 2057              		.cfi_def_cfa_offset 16
 2058              		.cfi_offset 4, -16
 2059              		.cfi_offset 5, -12
 2060              		.cfi_offset 6, -8
 2061              		.cfi_offset 14, -4
 2062              		.loc 1 971 0
 2063 0002 0A4C     		ldr	r4, .L161
 2064              		.loc 1 969 0
 2065 0004 0546     		mov	r5, r0
 2066              		.loc 1 971 0
 2067 0006 2046     		mov	r0, r4
 2068              	.LVL251:
 2069 0008 FFF7FEFF 		bl	spiSelect
 2070              	.LVL252:
 2071              		.loc 1 972 0
 2072 000c 4E20     		movs	r0, #78
 2073 000e FFF7FEFF 		bl	halSpiExc
 2074              	.LVL253:
 2075 0012 0646     		mov	r6, r0
 2076              	.LVL254:
 2077              		.loc 1 973 0
 2078 0014 280A     		lsrs	r0, r5, #8
 2079 0016 FFF7FEFF 		bl	halSpiExc
 2080              	.LVL255:
 2081              		.loc 1 974 0
 2082 001a E8B2     		uxtb	r0, r5
 2083 001c FFF7FEFF 		bl	halSpiExc
 2084              	.LVL256:
 2085              		.loc 1 975 0
 2086 0020 2046     		mov	r0, r4
 2087 0022 FFF7FEFF 		bl	spiUnselect
 2088              	.LVL257:
 2089              		.loc 1 977 0
 2090 0026 3046     		mov	r0, r6
 2091 0028 70BD     		pop	{r4, r5, r6, pc}
 2092              	.LVL258:
 2093              	.L162:
 2094 002a 00BF     		.align	2
 2095              	.L161:
 2096 002c 00000000 		.word	SPID2
 2097              		.cfi_endproc
 2098              	.LFE300:
 2099              		.size	CC2520_RXMASKAND, .-CC2520_RXMASKAND
 2100              		.section	.text.CC2520_MEMCP,"ax",%progbits
 2101              		.align	2
 2102              		.p2align 4,,15
 2103              		.global	CC2520_MEMCP
 2104              		.thumb
 2105              		.thumb_func
 2106              		.type	CC2520_MEMCP, %function
 2107              	CC2520_MEMCP:
 2108              	.LFB301:
 2109              		.loc 1 993 0
ARM GAS  /tmp/cctBdhRt.s 			page 38


 2110              		.cfi_startproc
 2111              		@ args = 0, pretend = 0, frame = 0
 2112              		@ frame_needed = 0, uses_anonymous_args = 0
 2113              	.LVL259:
 2114 0000 30B5     		push	{r4, r5, lr}
 2115              		.cfi_def_cfa_offset 12
 2116              		.cfi_offset 4, -12
 2117              		.cfi_offset 5, -8
 2118              		.cfi_offset 14, -4
 2119 0002 83B0     		sub	sp, sp, #12
 2120              		.cfi_def_cfa_offset 24
 2121              		.loc 1 993 0
 2122 0004 0D46     		mov	r5, r1
 2123 0006 1446     		mov	r4, r2
 2124              		.loc 1 994 0
 2125 0008 0146     		mov	r1, r0
 2126              	.LVL260:
 2127 000a 0093     		str	r3, [sp]
 2128 000c 2A46     		mov	r2, r5
 2129              	.LVL261:
 2130 000e 2346     		mov	r3, r4
 2131              	.LVL262:
 2132 0010 5020     		movs	r0, #80
 2133              	.LVL263:
 2134 0012 FFF7FEFF 		bl	CC2520_INS_MEMCP_COMMON
 2135              	.LVL264:
 2136              		.loc 1 995 0
 2137 0016 03B0     		add	sp, sp, #12
 2138              		.cfi_def_cfa_offset 12
 2139              		@ sp needed
 2140 0018 30BD     		pop	{r4, r5, pc}
 2141              		.cfi_endproc
 2142              	.LFE301:
 2143              		.size	CC2520_MEMCP, .-CC2520_MEMCP
 2144 001a 00BF     		.section	.text.CC2520_MEMCPR,"ax",%progbits
 2145              		.align	2
 2146              		.p2align 4,,15
 2147              		.global	CC2520_MEMCPR
 2148              		.thumb
 2149              		.thumb_func
 2150              		.type	CC2520_MEMCPR, %function
 2151              	CC2520_MEMCPR:
 2152              	.LFB302:
 2153              		.loc 1 1011 0
 2154              		.cfi_startproc
 2155              		@ args = 0, pretend = 0, frame = 0
 2156              		@ frame_needed = 0, uses_anonymous_args = 0
 2157              	.LVL265:
 2158 0000 30B5     		push	{r4, r5, lr}
 2159              		.cfi_def_cfa_offset 12
 2160              		.cfi_offset 4, -12
 2161              		.cfi_offset 5, -8
 2162              		.cfi_offset 14, -4
 2163 0002 83B0     		sub	sp, sp, #12
 2164              		.cfi_def_cfa_offset 24
 2165              		.loc 1 1011 0
 2166 0004 0D46     		mov	r5, r1
ARM GAS  /tmp/cctBdhRt.s 			page 39


 2167 0006 1446     		mov	r4, r2
 2168              		.loc 1 1012 0
 2169 0008 0146     		mov	r1, r0
 2170              	.LVL266:
 2171 000a 0093     		str	r3, [sp]
 2172 000c 2A46     		mov	r2, r5
 2173              	.LVL267:
 2174 000e 2346     		mov	r3, r4
 2175              	.LVL268:
 2176 0010 5220     		movs	r0, #82
 2177              	.LVL269:
 2178 0012 FFF7FEFF 		bl	CC2520_INS_MEMCP_COMMON
 2179              	.LVL270:
 2180              		.loc 1 1013 0
 2181 0016 03B0     		add	sp, sp, #12
 2182              		.cfi_def_cfa_offset 12
 2183              		@ sp needed
 2184 0018 30BD     		pop	{r4, r5, pc}
 2185              		.cfi_endproc
 2186              	.LFE302:
 2187              		.size	CC2520_MEMCPR, .-CC2520_MEMCPR
 2188 001a 00BF     		.section	.text.CC2520_MEMXCP,"ax",%progbits
 2189              		.align	2
 2190              		.p2align 4,,15
 2191              		.global	CC2520_MEMXCP
 2192              		.thumb
 2193              		.thumb_func
 2194              		.type	CC2520_MEMXCP, %function
 2195              	CC2520_MEMXCP:
 2196              	.LFB303:
 2197              		.loc 1 1029 0
 2198              		.cfi_startproc
 2199              		@ args = 0, pretend = 0, frame = 0
 2200              		@ frame_needed = 0, uses_anonymous_args = 0
 2201              	.LVL271:
 2202 0000 30B5     		push	{r4, r5, lr}
 2203              		.cfi_def_cfa_offset 12
 2204              		.cfi_offset 4, -12
 2205              		.cfi_offset 5, -8
 2206              		.cfi_offset 14, -4
 2207 0002 83B0     		sub	sp, sp, #12
 2208              		.cfi_def_cfa_offset 24
 2209              		.loc 1 1029 0
 2210 0004 0D46     		mov	r5, r1
 2211 0006 1446     		mov	r4, r2
 2212              		.loc 1 1030 0
 2213 0008 0146     		mov	r1, r0
 2214              	.LVL272:
 2215 000a 0093     		str	r3, [sp]
 2216 000c 2A46     		mov	r2, r5
 2217              	.LVL273:
 2218 000e 2346     		mov	r3, r4
 2219              	.LVL274:
 2220 0010 5420     		movs	r0, #84
 2221              	.LVL275:
 2222 0012 FFF7FEFF 		bl	CC2520_INS_MEMCP_COMMON
 2223              	.LVL276:
ARM GAS  /tmp/cctBdhRt.s 			page 40


 2224              		.loc 1 1031 0
 2225 0016 03B0     		add	sp, sp, #12
 2226              		.cfi_def_cfa_offset 12
 2227              		@ sp needed
 2228 0018 30BD     		pop	{r4, r5, pc}
 2229              		.cfi_endproc
 2230              	.LFE303:
 2231              		.size	CC2520_MEMXCP, .-CC2520_MEMXCP
 2232 001a 00BF     		.section	.text.CC2520_MEMXWR,"ax",%progbits
 2233              		.align	2
 2234              		.p2align 4,,15
 2235              		.global	CC2520_MEMXWR
 2236              		.thumb
 2237              		.thumb_func
 2238              		.type	CC2520_MEMXWR, %function
 2239              	CC2520_MEMXWR:
 2240              	.LFB304:
 2241              		.loc 1 1046 0
 2242              		.cfi_startproc
 2243              		@ args = 0, pretend = 0, frame = 0
 2244              		@ frame_needed = 0, uses_anonymous_args = 0
 2245              	.LVL277:
 2246 0000 F8B5     		push	{r3, r4, r5, r6, r7, lr}
 2247              		.cfi_def_cfa_offset 24
 2248              		.cfi_offset 3, -24
 2249              		.cfi_offset 4, -20
 2250              		.cfi_offset 5, -16
 2251              		.cfi_offset 6, -12
 2252              		.cfi_offset 7, -8
 2253              		.cfi_offset 14, -4
 2254              		.loc 1 1046 0
 2255 0002 0446     		mov	r4, r0
 2256              		.loc 1 1048 0
 2257 0004 0C48     		ldr	r0, .L175
 2258              	.LVL278:
 2259              		.loc 1 1046 0
 2260 0006 0D46     		mov	r5, r1
 2261 0008 1746     		mov	r7, r2
 2262              		.loc 1 1048 0
 2263 000a FFF7FEFF 		bl	spiSelect
 2264              	.LVL279:
 2265              		.loc 1 1049 0
 2266 000e 5620     		movs	r0, #86
 2267 0010 FFF7FEFF 		bl	halSpiExc
 2268              	.LVL280:
 2269 0014 0646     		mov	r6, r0
 2270              	.LVL281:
 2271              		.loc 1 1050 0
 2272 0016 200A     		lsrs	r0, r4, #8
 2273 0018 FFF7FEFF 		bl	halSpiExc
 2274              	.LVL282:
 2275              		.loc 1 1051 0
 2276 001c E0B2     		uxtb	r0, r4
 2277 001e FFF7FEFF 		bl	halSpiExc
 2278              	.LVL283:
 2279              		.loc 1 1052 0
 2280 0022 25B1     		cbz	r5, .L170
ARM GAS  /tmp/cctBdhRt.s 			page 41


 2281              		.loc 1 1052 0 is_stmt 0 discriminator 1
 2282 0024 2946     		mov	r1, r5
 2283 0026 3A46     		mov	r2, r7
 2284 0028 0348     		ldr	r0, .L175
 2285 002a FFF7FEFF 		bl	spiSend
 2286              	.LVL284:
 2287              	.L170:
 2288              		.loc 1 1053 0 is_stmt 1
 2289 002e 0248     		ldr	r0, .L175
 2290 0030 FFF7FEFF 		bl	spiUnselect
 2291              	.LVL285:
 2292              		.loc 1 1055 0
 2293 0034 3046     		mov	r0, r6
 2294 0036 F8BD     		pop	{r3, r4, r5, r6, r7, pc}
 2295              	.LVL286:
 2296              	.L176:
 2297              		.align	2
 2298              	.L175:
 2299 0038 00000000 		.word	SPID2
 2300              		.cfi_endproc
 2301              	.LFE304:
 2302              		.size	CC2520_MEMXWR, .-CC2520_MEMXWR
 2303              		.section	.text.CC2520_BSET,"ax",%progbits
 2304              		.align	2
 2305              		.p2align 4,,15
 2306              		.global	CC2520_BSET
 2307              		.thumb
 2308              		.thumb_func
 2309              		.type	CC2520_BSET, %function
 2310              	CC2520_BSET:
 2311              	.LFB305:
 2312              		.loc 1 1068 0
 2313              		.cfi_startproc
 2314              		@ args = 0, pretend = 0, frame = 0
 2315              		@ frame_needed = 0, uses_anonymous_args = 0
 2316              	.LVL287:
 2317 0000 70B5     		push	{r4, r5, r6, lr}
 2318              		.cfi_def_cfa_offset 16
 2319              		.cfi_offset 4, -16
 2320              		.cfi_offset 5, -12
 2321              		.cfi_offset 6, -8
 2322              		.cfi_offset 14, -4
 2323              		.loc 1 1070 0
 2324 0002 084C     		ldr	r4, .L179
 2325              		.loc 1 1068 0
 2326 0004 0646     		mov	r6, r0
 2327              		.loc 1 1070 0
 2328 0006 2046     		mov	r0, r4
 2329              	.LVL288:
 2330 0008 FFF7FEFF 		bl	spiSelect
 2331              	.LVL289:
 2332              		.loc 1 1071 0
 2333 000c 5920     		movs	r0, #89
 2334 000e FFF7FEFF 		bl	halSpiExc
 2335              	.LVL290:
 2336 0012 0546     		mov	r5, r0
 2337              	.LVL291:
ARM GAS  /tmp/cctBdhRt.s 			page 42


 2338              		.loc 1 1072 0
 2339 0014 3046     		mov	r0, r6
 2340 0016 FFF7FEFF 		bl	halSpiExc
 2341              	.LVL292:
 2342              		.loc 1 1073 0
 2343 001a 2046     		mov	r0, r4
 2344 001c FFF7FEFF 		bl	spiUnselect
 2345              	.LVL293:
 2346              		.loc 1 1075 0
 2347 0020 2846     		mov	r0, r5
 2348 0022 70BD     		pop	{r4, r5, r6, pc}
 2349              	.LVL294:
 2350              	.L180:
 2351              		.align	2
 2352              	.L179:
 2353 0024 00000000 		.word	SPID2
 2354              		.cfi_endproc
 2355              	.LFE305:
 2356              		.size	CC2520_BSET, .-CC2520_BSET
 2357              		.section	.text.CC2520_BCLR,"ax",%progbits
 2358              		.align	2
 2359              		.p2align 4,,15
 2360              		.global	CC2520_BCLR
 2361              		.thumb
 2362              		.thumb_func
 2363              		.type	CC2520_BCLR, %function
 2364              	CC2520_BCLR:
 2365              	.LFB306:
 2366              		.loc 1 1088 0
 2367              		.cfi_startproc
 2368              		@ args = 0, pretend = 0, frame = 0
 2369              		@ frame_needed = 0, uses_anonymous_args = 0
 2370              	.LVL295:
 2371 0000 70B5     		push	{r4, r5, r6, lr}
 2372              		.cfi_def_cfa_offset 16
 2373              		.cfi_offset 4, -16
 2374              		.cfi_offset 5, -12
 2375              		.cfi_offset 6, -8
 2376              		.cfi_offset 14, -4
 2377              		.loc 1 1090 0
 2378 0002 084C     		ldr	r4, .L183
 2379              		.loc 1 1088 0
 2380 0004 0646     		mov	r6, r0
 2381              		.loc 1 1090 0
 2382 0006 2046     		mov	r0, r4
 2383              	.LVL296:
 2384 0008 FFF7FEFF 		bl	spiSelect
 2385              	.LVL297:
 2386              		.loc 1 1091 0
 2387 000c 5820     		movs	r0, #88
 2388 000e FFF7FEFF 		bl	halSpiExc
 2389              	.LVL298:
 2390 0012 0546     		mov	r5, r0
 2391              	.LVL299:
 2392              		.loc 1 1092 0
 2393 0014 3046     		mov	r0, r6
 2394 0016 FFF7FEFF 		bl	halSpiExc
ARM GAS  /tmp/cctBdhRt.s 			page 43


 2395              	.LVL300:
 2396              		.loc 1 1093 0
 2397 001a 2046     		mov	r0, r4
 2398 001c FFF7FEFF 		bl	spiUnselect
 2399              	.LVL301:
 2400              		.loc 1 1095 0
 2401 0020 2846     		mov	r0, r5
 2402 0022 70BD     		pop	{r4, r5, r6, pc}
 2403              	.LVL302:
 2404              	.L184:
 2405              		.align	2
 2406              	.L183:
 2407 0024 00000000 		.word	SPID2
 2408              		.cfi_endproc
 2409              	.LFE306:
 2410              		.size	CC2520_BCLR, .-CC2520_BCLR
 2411              		.section	.text.CC2520_CTR,"ax",%progbits
 2412              		.align	2
 2413              		.p2align 4,,15
 2414              		.global	CC2520_CTR
 2415              		.thumb
 2416              		.thumb_func
 2417              		.type	CC2520_CTR, %function
 2418              	CC2520_CTR:
 2419              	.LFB307:
 2420              		.loc 1 1114 0
 2421              		.cfi_startproc
 2422              		@ args = 8, pretend = 0, frame = 0
 2423              		@ frame_needed = 0, uses_anonymous_args = 0
 2424              	.LVL303:
 2425 0000 2DE9F047 		push	{r4, r5, r6, r7, r8, r9, r10, lr}
 2426              		.cfi_def_cfa_offset 32
 2427              		.cfi_offset 4, -32
 2428              		.cfi_offset 5, -28
 2429              		.cfi_offset 6, -24
 2430              		.cfi_offset 7, -20
 2431              		.cfi_offset 8, -16
 2432              		.cfi_offset 9, -12
 2433              		.cfi_offset 10, -8
 2434              		.cfi_offset 14, -4
 2435              		.loc 1 1116 0
 2436 0004 164C     		ldr	r4, .L187
 2437              		.loc 1 1114 0
 2438 0006 BDF82060 		ldrh	r6, [sp, #32]
 2439 000a BDF82450 		ldrh	r5, [sp, #36]
 2440 000e 0746     		mov	r7, r0
 2441              		.loc 1 1116 0
 2442 0010 2046     		mov	r0, r4
 2443              	.LVL304:
 2444              		.loc 1 1114 0
 2445 0012 8A46     		mov	r10, r1
 2446 0014 9146     		mov	r9, r2
 2447 0016 9846     		mov	r8, r3
 2448              		.loc 1 1116 0
 2449 0018 FFF7FEFF 		bl	spiSelect
 2450              	.LVL305:
 2451              		.loc 1 1117 0
ARM GAS  /tmp/cctBdhRt.s 			page 44


 2452 001c 47F06000 		orr	r0, r7, #96
 2453 0020 FFF7FEFF 		bl	halSpiExc
 2454              	.LVL306:
 2455 0024 0746     		mov	r7, r0
 2456              	.LVL307:
 2457              		.loc 1 1118 0
 2458 0026 5046     		mov	r0, r10
 2459 0028 FFF7FEFF 		bl	halSpiExc
 2460              	.LVL308:
 2461              		.loc 1 1119 0
 2462 002c 4846     		mov	r0, r9
 2463 002e FFF7FEFF 		bl	halSpiExc
 2464              	.LVL309:
 2465              		.loc 1 1120 0
 2466 0032 4046     		mov	r0, r8
 2467 0034 FFF7FEFF 		bl	halSpiExc
 2468              	.LVL310:
 2469              		.loc 1 1121 0
 2470 0038 2B0A     		lsrs	r3, r5, #8
 2471 003a 300A     		lsrs	r0, r6, #8
 2472 003c 43EA0010 		orr	r0, r3, r0, lsl #4
 2473 0040 C0B2     		uxtb	r0, r0
 2474 0042 FFF7FEFF 		bl	halSpiExc
 2475              	.LVL311:
 2476              		.loc 1 1122 0
 2477 0046 F0B2     		uxtb	r0, r6
 2478 0048 FFF7FEFF 		bl	halSpiExc
 2479              	.LVL312:
 2480              		.loc 1 1123 0
 2481 004c E8B2     		uxtb	r0, r5
 2482 004e FFF7FEFF 		bl	halSpiExc
 2483              	.LVL313:
 2484              		.loc 1 1124 0
 2485 0052 2046     		mov	r0, r4
 2486 0054 FFF7FEFF 		bl	spiUnselect
 2487              	.LVL314:
 2488              		.loc 1 1126 0
 2489 0058 3846     		mov	r0, r7
 2490 005a BDE8F087 		pop	{r4, r5, r6, r7, r8, r9, r10, pc}
 2491              	.LVL315:
 2492              	.L188:
 2493 005e 00BF     		.align	2
 2494              	.L187:
 2495 0060 00000000 		.word	SPID2
 2496              		.cfi_endproc
 2497              	.LFE307:
 2498              		.size	CC2520_CTR, .-CC2520_CTR
 2499              		.section	.text.CC2520_UCTR,"ax",%progbits
 2500              		.align	2
 2501              		.p2align 4,,15
 2502              		.global	CC2520_UCTR
 2503              		.thumb
 2504              		.thumb_func
 2505              		.type	CC2520_UCTR, %function
 2506              	CC2520_UCTR:
 2507              	.LFB308:
 2508              		.loc 1 1144 0
ARM GAS  /tmp/cctBdhRt.s 			page 45


 2509              		.cfi_startproc
 2510              		@ args = 8, pretend = 0, frame = 0
 2511              		@ frame_needed = 0, uses_anonymous_args = 0
 2512              		@ link register save eliminated.
 2513              	.LVL316:
 2514 0000 30B4     		push	{r4, r5}
 2515              		.cfi_def_cfa_offset 8
 2516              		.cfi_offset 4, -8
 2517              		.cfi_offset 5, -4
 2518              		.loc 1 1144 0
 2519 0002 BDF80850 		ldrh	r5, [sp, #8]
 2520 0006 BDF80C40 		ldrh	r4, [sp, #12]
 2521              		.loc 1 1145 0
 2522 000a 0295     		str	r5, [sp, #8]
 2523              	.LVL317:
 2524 000c 0394     		str	r4, [sp, #12]
 2525              	.LVL318:
 2526              		.loc 1 1146 0
 2527 000e 30BC     		pop	{r4, r5}
 2528              		.cfi_restore 5
 2529              		.cfi_restore 4
 2530              		.cfi_def_cfa_offset 0
 2531              		.loc 1 1145 0
 2532 0010 FFF7FEBF 		b	CC2520_CTR
 2533              	.LVL319:
 2534              		.cfi_endproc
 2535              	.LFE308:
 2536              		.size	CC2520_UCTR, .-CC2520_UCTR
 2537              		.section	.text.CC2520_CBCMAC,"ax",%progbits
 2538              		.align	2
 2539              		.p2align 4,,15
 2540              		.global	CC2520_CBCMAC
 2541              		.thumb
 2542              		.thumb_func
 2543              		.type	CC2520_CBCMAC, %function
 2544              	CC2520_CBCMAC:
 2545              	.LFB309:
 2546              		.loc 1 1165 0
 2547              		.cfi_startproc
 2548              		@ args = 8, pretend = 0, frame = 0
 2549              		@ frame_needed = 0, uses_anonymous_args = 0
 2550              	.LVL320:
 2551 0000 2DE9F047 		push	{r4, r5, r6, r7, r8, r9, r10, lr}
 2552              		.cfi_def_cfa_offset 32
 2553              		.cfi_offset 4, -32
 2554              		.cfi_offset 5, -28
 2555              		.cfi_offset 6, -24
 2556              		.cfi_offset 7, -20
 2557              		.cfi_offset 8, -16
 2558              		.cfi_offset 9, -12
 2559              		.cfi_offset 10, -8
 2560              		.cfi_offset 14, -4
 2561              		.loc 1 1167 0
 2562 0004 164C     		ldr	r4, .L193
 2563              		.loc 1 1165 0
 2564 0006 BDF82050 		ldrh	r5, [sp, #32]
 2565 000a 9DF82480 		ldrb	r8, [sp, #36]	@ zero_extendqisi2
ARM GAS  /tmp/cctBdhRt.s 			page 46


 2566 000e 0746     		mov	r7, r0
 2567              		.loc 1 1167 0
 2568 0010 2046     		mov	r0, r4
 2569              	.LVL321:
 2570              		.loc 1 1165 0
 2571 0012 8A46     		mov	r10, r1
 2572 0014 9146     		mov	r9, r2
 2573 0016 1E46     		mov	r6, r3
 2574              		.loc 1 1167 0
 2575 0018 FFF7FEFF 		bl	spiSelect
 2576              	.LVL322:
 2577              		.loc 1 1168 0
 2578 001c 47F06400 		orr	r0, r7, #100
 2579 0020 FFF7FEFF 		bl	halSpiExc
 2580              	.LVL323:
 2581 0024 0746     		mov	r7, r0
 2582              	.LVL324:
 2583              		.loc 1 1169 0
 2584 0026 5046     		mov	r0, r10
 2585 0028 FFF7FEFF 		bl	halSpiExc
 2586              	.LVL325:
 2587              		.loc 1 1170 0
 2588 002c 4846     		mov	r0, r9
 2589 002e FFF7FEFF 		bl	halSpiExc
 2590              	.LVL326:
 2591              		.loc 1 1171 0
 2592 0032 2B0A     		lsrs	r3, r5, #8
 2593 0034 300A     		lsrs	r0, r6, #8
 2594 0036 43EA0010 		orr	r0, r3, r0, lsl #4
 2595 003a C0B2     		uxtb	r0, r0
 2596 003c FFF7FEFF 		bl	halSpiExc
 2597              	.LVL327:
 2598              		.loc 1 1172 0
 2599 0040 F0B2     		uxtb	r0, r6
 2600 0042 FFF7FEFF 		bl	halSpiExc
 2601              	.LVL328:
 2602              		.loc 1 1173 0
 2603 0046 E8B2     		uxtb	r0, r5
 2604 0048 FFF7FEFF 		bl	halSpiExc
 2605              	.LVL329:
 2606              		.loc 1 1174 0
 2607 004c 4046     		mov	r0, r8
 2608 004e FFF7FEFF 		bl	halSpiExc
 2609              	.LVL330:
 2610              		.loc 1 1175 0
 2611 0052 2046     		mov	r0, r4
 2612 0054 FFF7FEFF 		bl	spiUnselect
 2613              	.LVL331:
 2614              		.loc 1 1177 0
 2615 0058 3846     		mov	r0, r7
 2616 005a BDE8F087 		pop	{r4, r5, r6, r7, r8, r9, r10, pc}
 2617              	.LVL332:
 2618              	.L194:
 2619 005e 00BF     		.align	2
 2620              	.L193:
 2621 0060 00000000 		.word	SPID2
 2622              		.cfi_endproc
ARM GAS  /tmp/cctBdhRt.s 			page 47


 2623              	.LFE309:
 2624              		.size	CC2520_CBCMAC, .-CC2520_CBCMAC
 2625              		.section	.text.CC2520_UCBCMAC,"ax",%progbits
 2626              		.align	2
 2627              		.p2align 4,,15
 2628              		.global	CC2520_UCBCMAC
 2629              		.thumb
 2630              		.thumb_func
 2631              		.type	CC2520_UCBCMAC, %function
 2632              	CC2520_UCBCMAC:
 2633              	.LFB310:
 2634              		.loc 1 1195 0
 2635              		.cfi_startproc
 2636              		@ args = 4, pretend = 0, frame = 0
 2637              		@ frame_needed = 0, uses_anonymous_args = 0
 2638              	.LVL333:
 2639 0000 2DE9F843 		push	{r3, r4, r5, r6, r7, r8, r9, lr}
 2640              		.cfi_def_cfa_offset 32
 2641              		.cfi_offset 3, -32
 2642              		.cfi_offset 4, -28
 2643              		.cfi_offset 5, -24
 2644              		.cfi_offset 6, -20
 2645              		.cfi_offset 7, -16
 2646              		.cfi_offset 8, -12
 2647              		.cfi_offset 9, -8
 2648              		.cfi_offset 14, -4
 2649              		.loc 1 1197 0
 2650 0004 114C     		ldr	r4, .L197
 2651              		.loc 1 1195 0
 2652 0006 9DF82070 		ldrb	r7, [sp, #32]	@ zero_extendqisi2
 2653 000a 0646     		mov	r6, r0
 2654              		.loc 1 1197 0
 2655 000c 2046     		mov	r0, r4
 2656              	.LVL334:
 2657              		.loc 1 1195 0
 2658 000e 1D46     		mov	r5, r3
 2659 0010 8946     		mov	r9, r1
 2660 0012 9046     		mov	r8, r2
 2661              		.loc 1 1197 0
 2662 0014 FFF7FEFF 		bl	spiSelect
 2663              	.LVL335:
 2664              		.loc 1 1198 0
 2665 0018 46F06600 		orr	r0, r6, #102
 2666 001c FFF7FEFF 		bl	halSpiExc
 2667              	.LVL336:
 2668 0020 0646     		mov	r6, r0
 2669              	.LVL337:
 2670              		.loc 1 1199 0
 2671 0022 4846     		mov	r0, r9
 2672 0024 FFF7FEFF 		bl	halSpiExc
 2673              	.LVL338:
 2674              		.loc 1 1200 0
 2675 0028 4046     		mov	r0, r8
 2676 002a FFF7FEFF 		bl	halSpiExc
 2677              	.LVL339:
 2678              		.loc 1 1201 0
 2679 002e 280A     		lsrs	r0, r5, #8
ARM GAS  /tmp/cctBdhRt.s 			page 48


 2680 0030 FFF7FEFF 		bl	halSpiExc
 2681              	.LVL340:
 2682              		.loc 1 1202 0
 2683 0034 E8B2     		uxtb	r0, r5
 2684 0036 FFF7FEFF 		bl	halSpiExc
 2685              	.LVL341:
 2686              		.loc 1 1203 0
 2687 003a 3846     		mov	r0, r7
 2688 003c FFF7FEFF 		bl	halSpiExc
 2689              	.LVL342:
 2690              		.loc 1 1204 0
 2691 0040 2046     		mov	r0, r4
 2692 0042 FFF7FEFF 		bl	spiUnselect
 2693              	.LVL343:
 2694              		.loc 1 1206 0
 2695 0046 3046     		mov	r0, r6
 2696 0048 BDE8F883 		pop	{r3, r4, r5, r6, r7, r8, r9, pc}
 2697              	.LVL344:
 2698              	.L198:
 2699              		.align	2
 2700              	.L197:
 2701 004c 00000000 		.word	SPID2
 2702              		.cfi_endproc
 2703              	.LFE310:
 2704              		.size	CC2520_UCBCMAC, .-CC2520_UCBCMAC
 2705              		.section	.text.CC2520_CCM,"ax",%progbits
 2706              		.align	2
 2707              		.p2align 4,,15
 2708              		.global	CC2520_CCM
 2709              		.thumb
 2710              		.thumb_func
 2711              		.type	CC2520_CCM, %function
 2712              	CC2520_CCM:
 2713              	.LFB311:
 2714              		.loc 1 1228 0
 2715              		.cfi_startproc
 2716              		@ args = 16, pretend = 0, frame = 8
 2717              		@ frame_needed = 0, uses_anonymous_args = 0
 2718              	.LVL345:
 2719 0000 2DE9F04F 		push	{r4, r5, r6, r7, r8, r9, r10, fp, lr}
 2720              		.cfi_def_cfa_offset 36
 2721              		.cfi_offset 4, -36
 2722              		.cfi_offset 5, -32
 2723              		.cfi_offset 6, -28
 2724              		.cfi_offset 7, -24
 2725              		.cfi_offset 8, -20
 2726              		.cfi_offset 9, -16
 2727              		.cfi_offset 10, -12
 2728              		.cfi_offset 11, -8
 2729              		.cfi_offset 14, -4
 2730              		.loc 1 1230 0
 2731 0004 1C4C     		ldr	r4, .L201
 2732              		.loc 1 1228 0
 2733 0006 83B0     		sub	sp, sp, #12
 2734              		.cfi_def_cfa_offset 48
 2735              		.loc 1 1228 0
 2736 0008 0746     		mov	r7, r0
ARM GAS  /tmp/cctBdhRt.s 			page 49


 2737              		.loc 1 1230 0
 2738 000a 2046     		mov	r0, r4
 2739              	.LVL346:
 2740              		.loc 1 1228 0
 2741 000c 9346     		mov	fp, r2
 2742 000e 9A46     		mov	r10, r3
 2743 0010 BDF83060 		ldrh	r6, [sp, #48]
 2744 0014 BDF83450 		ldrh	r5, [sp, #52]
 2745 0018 0191     		str	r1, [sp, #4]
 2746 001a 9DF83890 		ldrb	r9, [sp, #56]	@ zero_extendqisi2
 2747 001e 9DF83C80 		ldrb	r8, [sp, #60]	@ zero_extendqisi2
 2748              		.loc 1 1230 0
 2749 0022 FFF7FEFF 		bl	spiSelect
 2750              	.LVL347:
 2751              		.loc 1 1231 0
 2752 0026 47F06800 		orr	r0, r7, #104
 2753 002a FFF7FEFF 		bl	halSpiExc
 2754              	.LVL348:
 2755              		.loc 1 1232 0
 2756 002e 0199     		ldr	r1, [sp, #4]
 2757              		.loc 1 1231 0
 2758 0030 0746     		mov	r7, r0
 2759              	.LVL349:
 2760              		.loc 1 1232 0
 2761 0032 0846     		mov	r0, r1
 2762 0034 FFF7FEFF 		bl	halSpiExc
 2763              	.LVL350:
 2764              		.loc 1 1233 0
 2765 0038 5846     		mov	r0, fp
 2766 003a FFF7FEFF 		bl	halSpiExc
 2767              	.LVL351:
 2768              		.loc 1 1234 0
 2769 003e 5046     		mov	r0, r10
 2770 0040 FFF7FEFF 		bl	halSpiExc
 2771              	.LVL352:
 2772              		.loc 1 1235 0
 2773 0044 2B0A     		lsrs	r3, r5, #8
 2774 0046 300A     		lsrs	r0, r6, #8
 2775 0048 43EA0010 		orr	r0, r3, r0, lsl #4
 2776 004c C0B2     		uxtb	r0, r0
 2777 004e FFF7FEFF 		bl	halSpiExc
 2778              	.LVL353:
 2779              		.loc 1 1236 0
 2780 0052 F0B2     		uxtb	r0, r6
 2781 0054 FFF7FEFF 		bl	halSpiExc
 2782              	.LVL354:
 2783              		.loc 1 1237 0
 2784 0058 E8B2     		uxtb	r0, r5
 2785 005a FFF7FEFF 		bl	halSpiExc
 2786              	.LVL355:
 2787              		.loc 1 1238 0
 2788 005e 4846     		mov	r0, r9
 2789 0060 FFF7FEFF 		bl	halSpiExc
 2790              	.LVL356:
 2791              		.loc 1 1239 0
 2792 0064 4046     		mov	r0, r8
 2793 0066 FFF7FEFF 		bl	halSpiExc
ARM GAS  /tmp/cctBdhRt.s 			page 50


 2794              	.LVL357:
 2795              		.loc 1 1240 0
 2796 006a 2046     		mov	r0, r4
 2797 006c FFF7FEFF 		bl	spiUnselect
 2798              	.LVL358:
 2799              		.loc 1 1242 0
 2800 0070 3846     		mov	r0, r7
 2801 0072 03B0     		add	sp, sp, #12
 2802              		.cfi_def_cfa_offset 36
 2803              		@ sp needed
 2804 0074 BDE8F08F 		pop	{r4, r5, r6, r7, r8, r9, r10, fp, pc}
 2805              	.LVL359:
 2806              	.L202:
 2807              		.align	2
 2808              	.L201:
 2809 0078 00000000 		.word	SPID2
 2810              		.cfi_endproc
 2811              	.LFE311:
 2812              		.size	CC2520_CCM, .-CC2520_CCM
 2813              		.section	.text.CC2520_UCCM,"ax",%progbits
 2814              		.align	2
 2815              		.p2align 4,,15
 2816              		.global	CC2520_UCCM
 2817              		.thumb
 2818              		.thumb_func
 2819              		.type	CC2520_UCCM, %function
 2820              	CC2520_UCCM:
 2821              	.LFB312:
 2822              		.loc 1 1264 0
 2823              		.cfi_startproc
 2824              		@ args = 16, pretend = 0, frame = 8
 2825              		@ frame_needed = 0, uses_anonymous_args = 0
 2826              	.LVL360:
 2827 0000 2DE9F04F 		push	{r4, r5, r6, r7, r8, r9, r10, fp, lr}
 2828              		.cfi_def_cfa_offset 36
 2829              		.cfi_offset 4, -36
 2830              		.cfi_offset 5, -32
 2831              		.cfi_offset 6, -28
 2832              		.cfi_offset 7, -24
 2833              		.cfi_offset 8, -20
 2834              		.cfi_offset 9, -16
 2835              		.cfi_offset 10, -12
 2836              		.cfi_offset 11, -8
 2837              		.cfi_offset 14, -4
 2838              		.loc 1 1266 0
 2839 0004 1C4C     		ldr	r4, .L205
 2840              		.loc 1 1264 0
 2841 0006 83B0     		sub	sp, sp, #12
 2842              		.cfi_def_cfa_offset 48
 2843              		.loc 1 1264 0
 2844 0008 0746     		mov	r7, r0
 2845              		.loc 1 1266 0
 2846 000a 2046     		mov	r0, r4
 2847              	.LVL361:
 2848              		.loc 1 1264 0
 2849 000c 9346     		mov	fp, r2
 2850 000e 9A46     		mov	r10, r3
ARM GAS  /tmp/cctBdhRt.s 			page 51


 2851 0010 BDF83060 		ldrh	r6, [sp, #48]
 2852 0014 BDF83450 		ldrh	r5, [sp, #52]
 2853 0018 0191     		str	r1, [sp, #4]
 2854 001a 9DF83890 		ldrb	r9, [sp, #56]	@ zero_extendqisi2
 2855 001e 9DF83C80 		ldrb	r8, [sp, #60]	@ zero_extendqisi2
 2856              		.loc 1 1266 0
 2857 0022 FFF7FEFF 		bl	spiSelect
 2858              	.LVL362:
 2859              		.loc 1 1267 0
 2860 0026 47F06A00 		orr	r0, r7, #106
 2861 002a FFF7FEFF 		bl	halSpiExc
 2862              	.LVL363:
 2863              		.loc 1 1268 0
 2864 002e 0199     		ldr	r1, [sp, #4]
 2865              		.loc 1 1267 0
 2866 0030 0746     		mov	r7, r0
 2867              	.LVL364:
 2868              		.loc 1 1268 0
 2869 0032 0846     		mov	r0, r1
 2870 0034 FFF7FEFF 		bl	halSpiExc
 2871              	.LVL365:
 2872              		.loc 1 1269 0
 2873 0038 5846     		mov	r0, fp
 2874 003a FFF7FEFF 		bl	halSpiExc
 2875              	.LVL366:
 2876              		.loc 1 1270 0
 2877 003e 5046     		mov	r0, r10
 2878 0040 FFF7FEFF 		bl	halSpiExc
 2879              	.LVL367:
 2880              		.loc 1 1271 0
 2881 0044 2B0A     		lsrs	r3, r5, #8
 2882 0046 300A     		lsrs	r0, r6, #8
 2883 0048 43EA0010 		orr	r0, r3, r0, lsl #4
 2884 004c C0B2     		uxtb	r0, r0
 2885 004e FFF7FEFF 		bl	halSpiExc
 2886              	.LVL368:
 2887              		.loc 1 1272 0
 2888 0052 F0B2     		uxtb	r0, r6
 2889 0054 FFF7FEFF 		bl	halSpiExc
 2890              	.LVL369:
 2891              		.loc 1 1273 0
 2892 0058 E8B2     		uxtb	r0, r5
 2893 005a FFF7FEFF 		bl	halSpiExc
 2894              	.LVL370:
 2895              		.loc 1 1274 0
 2896 005e 4846     		mov	r0, r9
 2897 0060 FFF7FEFF 		bl	halSpiExc
 2898              	.LVL371:
 2899              		.loc 1 1275 0
 2900 0064 4046     		mov	r0, r8
 2901 0066 FFF7FEFF 		bl	halSpiExc
 2902              	.LVL372:
 2903              		.loc 1 1276 0
 2904 006a 2046     		mov	r0, r4
 2905 006c FFF7FEFF 		bl	spiUnselect
 2906              	.LVL373:
 2907              		.loc 1 1278 0
ARM GAS  /tmp/cctBdhRt.s 			page 52


 2908 0070 3846     		mov	r0, r7
 2909 0072 03B0     		add	sp, sp, #12
 2910              		.cfi_def_cfa_offset 36
 2911              		@ sp needed
 2912 0074 BDE8F08F 		pop	{r4, r5, r6, r7, r8, r9, r10, fp, pc}
 2913              	.LVL374:
 2914              	.L206:
 2915              		.align	2
 2916              	.L205:
 2917 0078 00000000 		.word	SPID2
 2918              		.cfi_endproc
 2919              	.LFE312:
 2920              		.size	CC2520_UCCM, .-CC2520_UCCM
 2921              		.section	.text.CC2520_ECB,"ax",%progbits
 2922              		.align	2
 2923              		.p2align 4,,15
 2924              		.global	CC2520_ECB
 2925              		.thumb
 2926              		.thumb_func
 2927              		.type	CC2520_ECB, %function
 2928              	CC2520_ECB:
 2929              	.LFB313:
 2930              		.loc 1 1295 0
 2931              		.cfi_startproc
 2932              		@ args = 4, pretend = 0, frame = 0
 2933              		@ frame_needed = 0, uses_anonymous_args = 0
 2934              	.LVL375:
 2935 0000 2DE9F843 		push	{r3, r4, r5, r6, r7, r8, r9, lr}
 2936              		.cfi_def_cfa_offset 32
 2937              		.cfi_offset 3, -32
 2938              		.cfi_offset 4, -28
 2939              		.cfi_offset 5, -24
 2940              		.cfi_offset 6, -20
 2941              		.cfi_offset 7, -16
 2942              		.cfi_offset 8, -12
 2943              		.cfi_offset 9, -8
 2944              		.cfi_offset 14, -4
 2945              		.loc 1 1297 0
 2946 0004 134C     		ldr	r4, .L209
 2947              		.loc 1 1295 0
 2948 0006 BDF82050 		ldrh	r5, [sp, #32]
 2949 000a 0746     		mov	r7, r0
 2950              		.loc 1 1297 0
 2951 000c 2046     		mov	r0, r4
 2952              	.LVL376:
 2953              		.loc 1 1295 0
 2954 000e 1E46     		mov	r6, r3
 2955 0010 8946     		mov	r9, r1
 2956 0012 9046     		mov	r8, r2
 2957              		.loc 1 1297 0
 2958 0014 FFF7FEFF 		bl	spiSelect
 2959              	.LVL377:
 2960              		.loc 1 1298 0
 2961 0018 47F07000 		orr	r0, r7, #112
 2962 001c FFF7FEFF 		bl	halSpiExc
 2963              	.LVL378:
 2964 0020 0746     		mov	r7, r0
ARM GAS  /tmp/cctBdhRt.s 			page 53


 2965              	.LVL379:
 2966              		.loc 1 1299 0
 2967 0022 4846     		mov	r0, r9
 2968 0024 FFF7FEFF 		bl	halSpiExc
 2969              	.LVL380:
 2970              		.loc 1 1300 0
 2971 0028 300A     		lsrs	r0, r6, #8
 2972 002a 40EA0810 		orr	r0, r0, r8, lsl #4
 2973 002e C0B2     		uxtb	r0, r0
 2974 0030 FFF7FEFF 		bl	halSpiExc
 2975              	.LVL381:
 2976              		.loc 1 1301 0
 2977 0034 F0B2     		uxtb	r0, r6
 2978 0036 FFF7FEFF 		bl	halSpiExc
 2979              	.LVL382:
 2980              		.loc 1 1302 0
 2981 003a 280A     		lsrs	r0, r5, #8
 2982 003c FFF7FEFF 		bl	halSpiExc
 2983              	.LVL383:
 2984              		.loc 1 1303 0
 2985 0040 E8B2     		uxtb	r0, r5
 2986 0042 FFF7FEFF 		bl	halSpiExc
 2987              	.LVL384:
 2988              		.loc 1 1304 0
 2989 0046 2046     		mov	r0, r4
 2990 0048 FFF7FEFF 		bl	spiUnselect
 2991              	.LVL385:
 2992              		.loc 1 1306 0
 2993 004c 3846     		mov	r0, r7
 2994 004e BDE8F883 		pop	{r3, r4, r5, r6, r7, r8, r9, pc}
 2995              	.LVL386:
 2996              	.L210:
 2997 0052 00BF     		.align	2
 2998              	.L209:
 2999 0054 00000000 		.word	SPID2
 3000              		.cfi_endproc
 3001              	.LFE313:
 3002              		.size	CC2520_ECB, .-CC2520_ECB
 3003              		.section	.text.CC2520_ECBO,"ax",%progbits
 3004              		.align	2
 3005              		.p2align 4,,15
 3006              		.global	CC2520_ECBO
 3007              		.thumb
 3008              		.thumb_func
 3009              		.type	CC2520_ECBO, %function
 3010              	CC2520_ECBO:
 3011              	.LFB314:
 3012              		.loc 1 1322 0
 3013              		.cfi_startproc
 3014              		@ args = 0, pretend = 0, frame = 0
 3015              		@ frame_needed = 0, uses_anonymous_args = 0
 3016              	.LVL387:
 3017 0000 2DE9F041 		push	{r4, r5, r6, r7, r8, lr}
 3018              		.cfi_def_cfa_offset 24
 3019              		.cfi_offset 4, -24
 3020              		.cfi_offset 5, -20
 3021              		.cfi_offset 6, -16
ARM GAS  /tmp/cctBdhRt.s 			page 54


 3022              		.cfi_offset 7, -12
 3023              		.cfi_offset 8, -8
 3024              		.cfi_offset 14, -4
 3025              		.loc 1 1324 0
 3026 0004 0F4C     		ldr	r4, .L213
 3027              		.loc 1 1322 0
 3028 0006 0646     		mov	r6, r0
 3029              		.loc 1 1324 0
 3030 0008 2046     		mov	r0, r4
 3031              	.LVL388:
 3032              		.loc 1 1322 0
 3033 000a 1D46     		mov	r5, r3
 3034 000c 8846     		mov	r8, r1
 3035 000e 1746     		mov	r7, r2
 3036              		.loc 1 1324 0
 3037 0010 FFF7FEFF 		bl	spiSelect
 3038              	.LVL389:
 3039              		.loc 1 1325 0
 3040 0014 46F07200 		orr	r0, r6, #114
 3041 0018 FFF7FEFF 		bl	halSpiExc
 3042              	.LVL390:
 3043 001c 0646     		mov	r6, r0
 3044              	.LVL391:
 3045              		.loc 1 1326 0
 3046 001e 4046     		mov	r0, r8
 3047 0020 FFF7FEFF 		bl	halSpiExc
 3048              	.LVL392:
 3049              		.loc 1 1327 0
 3050 0024 280A     		lsrs	r0, r5, #8
 3051 0026 40EA0710 		orr	r0, r0, r7, lsl #4
 3052 002a C0B2     		uxtb	r0, r0
 3053 002c FFF7FEFF 		bl	halSpiExc
 3054              	.LVL393:
 3055              		.loc 1 1328 0
 3056 0030 E8B2     		uxtb	r0, r5
 3057 0032 FFF7FEFF 		bl	halSpiExc
 3058              	.LVL394:
 3059              		.loc 1 1329 0
 3060 0036 2046     		mov	r0, r4
 3061 0038 FFF7FEFF 		bl	spiUnselect
 3062              	.LVL395:
 3063              		.loc 1 1331 0
 3064 003c 3046     		mov	r0, r6
 3065 003e BDE8F081 		pop	{r4, r5, r6, r7, r8, pc}
 3066              	.LVL396:
 3067              	.L214:
 3068 0042 00BF     		.align	2
 3069              	.L213:
 3070 0044 00000000 		.word	SPID2
 3071              		.cfi_endproc
 3072              	.LFE314:
 3073              		.size	CC2520_ECBO, .-CC2520_ECBO
 3074              		.section	.text.CC2520_ECBX,"ax",%progbits
 3075              		.align	2
 3076              		.p2align 4,,15
 3077              		.global	CC2520_ECBX
 3078              		.thumb
ARM GAS  /tmp/cctBdhRt.s 			page 55


 3079              		.thumb_func
 3080              		.type	CC2520_ECBX, %function
 3081              	CC2520_ECBX:
 3082              	.LFB315:
 3083              		.loc 1 1348 0
 3084              		.cfi_startproc
 3085              		@ args = 4, pretend = 0, frame = 0
 3086              		@ frame_needed = 0, uses_anonymous_args = 0
 3087              	.LVL397:
 3088 0000 2DE9F843 		push	{r3, r4, r5, r6, r7, r8, r9, lr}
 3089              		.cfi_def_cfa_offset 32
 3090              		.cfi_offset 3, -32
 3091              		.cfi_offset 4, -28
 3092              		.cfi_offset 5, -24
 3093              		.cfi_offset 6, -20
 3094              		.cfi_offset 7, -16
 3095              		.cfi_offset 8, -12
 3096              		.cfi_offset 9, -8
 3097              		.cfi_offset 14, -4
 3098              		.loc 1 1350 0
 3099 0004 134C     		ldr	r4, .L217
 3100              		.loc 1 1348 0
 3101 0006 BDF82050 		ldrh	r5, [sp, #32]
 3102 000a 0746     		mov	r7, r0
 3103              		.loc 1 1350 0
 3104 000c 2046     		mov	r0, r4
 3105              	.LVL398:
 3106              		.loc 1 1348 0
 3107 000e 1E46     		mov	r6, r3
 3108 0010 8946     		mov	r9, r1
 3109 0012 9046     		mov	r8, r2
 3110              		.loc 1 1350 0
 3111 0014 FFF7FEFF 		bl	spiSelect
 3112              	.LVL399:
 3113              		.loc 1 1351 0
 3114 0018 47F07400 		orr	r0, r7, #116
 3115 001c FFF7FEFF 		bl	halSpiExc
 3116              	.LVL400:
 3117 0020 0746     		mov	r7, r0
 3118              	.LVL401:
 3119              		.loc 1 1352 0
 3120 0022 4846     		mov	r0, r9
 3121 0024 FFF7FEFF 		bl	halSpiExc
 3122              	.LVL402:
 3123              		.loc 1 1353 0
 3124 0028 300A     		lsrs	r0, r6, #8
 3125 002a 40EA0810 		orr	r0, r0, r8, lsl #4
 3126 002e C0B2     		uxtb	r0, r0
 3127 0030 FFF7FEFF 		bl	halSpiExc
 3128              	.LVL403:
 3129              		.loc 1 1354 0
 3130 0034 F0B2     		uxtb	r0, r6
 3131 0036 FFF7FEFF 		bl	halSpiExc
 3132              	.LVL404:
 3133              		.loc 1 1355 0
 3134 003a 280A     		lsrs	r0, r5, #8
 3135 003c FFF7FEFF 		bl	halSpiExc
ARM GAS  /tmp/cctBdhRt.s 			page 56


 3136              	.LVL405:
 3137              		.loc 1 1356 0
 3138 0040 E8B2     		uxtb	r0, r5
 3139 0042 FFF7FEFF 		bl	halSpiExc
 3140              	.LVL406:
 3141              		.loc 1 1357 0
 3142 0046 2046     		mov	r0, r4
 3143 0048 FFF7FEFF 		bl	spiUnselect
 3144              	.LVL407:
 3145              		.loc 1 1359 0
 3146 004c 3846     		mov	r0, r7
 3147 004e BDE8F883 		pop	{r3, r4, r5, r6, r7, r8, r9, pc}
 3148              	.LVL408:
 3149              	.L218:
 3150 0052 00BF     		.align	2
 3151              	.L217:
 3152 0054 00000000 		.word	SPID2
 3153              		.cfi_endproc
 3154              	.LFE315:
 3155              		.size	CC2520_ECBX, .-CC2520_ECBX
 3156              		.section	.text.CC2520_ECBXO,"ax",%progbits
 3157              		.align	2
 3158              		.p2align 4,,15
 3159              		.global	CC2520_ECBXO
 3160              		.thumb
 3161              		.thumb_func
 3162              		.type	CC2520_ECBXO, %function
 3163              	CC2520_ECBXO:
 3164              	.LFB316:
 3165              		.loc 1 1375 0
 3166              		.cfi_startproc
 3167              		@ args = 0, pretend = 0, frame = 0
 3168              		@ frame_needed = 0, uses_anonymous_args = 0
 3169              	.LVL409:
 3170 0000 2DE9F041 		push	{r4, r5, r6, r7, r8, lr}
 3171              		.cfi_def_cfa_offset 24
 3172              		.cfi_offset 4, -24
 3173              		.cfi_offset 5, -20
 3174              		.cfi_offset 6, -16
 3175              		.cfi_offset 7, -12
 3176              		.cfi_offset 8, -8
 3177              		.cfi_offset 14, -4
 3178              		.loc 1 1377 0
 3179 0004 0F4C     		ldr	r4, .L221
 3180              		.loc 1 1375 0
 3181 0006 0646     		mov	r6, r0
 3182              		.loc 1 1377 0
 3183 0008 2046     		mov	r0, r4
 3184              	.LVL410:
 3185              		.loc 1 1375 0
 3186 000a 1D46     		mov	r5, r3
 3187 000c 8846     		mov	r8, r1
 3188 000e 1746     		mov	r7, r2
 3189              		.loc 1 1377 0
 3190 0010 FFF7FEFF 		bl	spiSelect
 3191              	.LVL411:
 3192              		.loc 1 1378 0
ARM GAS  /tmp/cctBdhRt.s 			page 57


 3193 0014 46F07600 		orr	r0, r6, #118
 3194 0018 FFF7FEFF 		bl	halSpiExc
 3195              	.LVL412:
 3196 001c 0646     		mov	r6, r0
 3197              	.LVL413:
 3198              		.loc 1 1379 0
 3199 001e 4046     		mov	r0, r8
 3200 0020 FFF7FEFF 		bl	halSpiExc
 3201              	.LVL414:
 3202              		.loc 1 1380 0
 3203 0024 280A     		lsrs	r0, r5, #8
 3204 0026 40EA0710 		orr	r0, r0, r7, lsl #4
 3205 002a C0B2     		uxtb	r0, r0
 3206 002c FFF7FEFF 		bl	halSpiExc
 3207              	.LVL415:
 3208              		.loc 1 1381 0
 3209 0030 E8B2     		uxtb	r0, r5
 3210 0032 FFF7FEFF 		bl	halSpiExc
 3211              	.LVL416:
 3212              		.loc 1 1382 0
 3213 0036 2046     		mov	r0, r4
 3214 0038 FFF7FEFF 		bl	spiUnselect
 3215              	.LVL417:
 3216              		.loc 1 1384 0
 3217 003c 3046     		mov	r0, r6
 3218 003e BDE8F081 		pop	{r4, r5, r6, r7, r8, pc}
 3219              	.LVL418:
 3220              	.L222:
 3221 0042 00BF     		.align	2
 3222              	.L221:
 3223 0044 00000000 		.word	SPID2
 3224              		.cfi_endproc
 3225              	.LFE316:
 3226              		.size	CC2520_ECBXO, .-CC2520_ECBXO
 3227              		.section	.text.CC2520_INC,"ax",%progbits
 3228              		.align	2
 3229              		.p2align 4,,15
 3230              		.global	CC2520_INC
 3231              		.thumb
 3232              		.thumb_func
 3233              		.type	CC2520_INC, %function
 3234              	CC2520_INC:
 3235              	.LFB317:
 3236              		.loc 1 1400 0
 3237              		.cfi_startproc
 3238              		@ args = 0, pretend = 0, frame = 0
 3239              		@ frame_needed = 0, uses_anonymous_args = 0
 3240              	.LVL419:
 3241 0000 F8B5     		push	{r3, r4, r5, r6, r7, lr}
 3242              		.cfi_def_cfa_offset 24
 3243              		.cfi_offset 3, -24
 3244              		.cfi_offset 4, -20
 3245              		.cfi_offset 5, -16
 3246              		.cfi_offset 6, -12
 3247              		.cfi_offset 7, -8
 3248              		.cfi_offset 14, -4
 3249              		.loc 1 1402 0
ARM GAS  /tmp/cctBdhRt.s 			page 58


 3250 0002 0D4C     		ldr	r4, .L225
 3251              		.loc 1 1400 0
 3252 0004 0646     		mov	r6, r0
 3253              		.loc 1 1402 0
 3254 0006 2046     		mov	r0, r4
 3255              	.LVL420:
 3256              		.loc 1 1400 0
 3257 0008 1546     		mov	r5, r2
 3258 000a 0F46     		mov	r7, r1
 3259              		.loc 1 1402 0
 3260 000c FFF7FEFF 		bl	spiSelect
 3261              	.LVL421:
 3262              		.loc 1 1403 0
 3263 0010 46F07800 		orr	r0, r6, #120
 3264 0014 FFF7FEFF 		bl	halSpiExc
 3265              	.LVL422:
 3266 0018 0646     		mov	r6, r0
 3267              	.LVL423:
 3268              		.loc 1 1404 0
 3269 001a 280A     		lsrs	r0, r5, #8
 3270 001c 40EA0710 		orr	r0, r0, r7, lsl #4
 3271 0020 C0B2     		uxtb	r0, r0
 3272 0022 FFF7FEFF 		bl	halSpiExc
 3273              	.LVL424:
 3274              		.loc 1 1405 0
 3275 0026 E8B2     		uxtb	r0, r5
 3276 0028 FFF7FEFF 		bl	halSpiExc
 3277              	.LVL425:
 3278              		.loc 1 1406 0
 3279 002c 2046     		mov	r0, r4
 3280 002e FFF7FEFF 		bl	spiUnselect
 3281              	.LVL426:
 3282              		.loc 1 1408 0
 3283 0032 3046     		mov	r0, r6
 3284 0034 F8BD     		pop	{r3, r4, r5, r6, r7, pc}
 3285              	.LVL427:
 3286              	.L226:
 3287 0036 00BF     		.align	2
 3288              	.L225:
 3289 0038 00000000 		.word	SPID2
 3290              		.cfi_endproc
 3291              	.LFE317:
 3292              		.size	CC2520_INC, .-CC2520_INC
 3293              		.section	.text.CC2520_ABORT,"ax",%progbits
 3294              		.align	2
 3295              		.p2align 4,,15
 3296              		.global	CC2520_ABORT
 3297              		.thumb
 3298              		.thumb_func
 3299              		.type	CC2520_ABORT, %function
 3300              	CC2520_ABORT:
 3301              	.LFB318:
 3302              		.loc 1 1421 0
 3303              		.cfi_startproc
 3304              		@ args = 0, pretend = 0, frame = 0
 3305              		@ frame_needed = 0, uses_anonymous_args = 0
 3306              	.LVL428:
ARM GAS  /tmp/cctBdhRt.s 			page 59


 3307 0000 70B5     		push	{r4, r5, r6, lr}
 3308              		.cfi_def_cfa_offset 16
 3309              		.cfi_offset 4, -16
 3310              		.cfi_offset 5, -12
 3311              		.cfi_offset 6, -8
 3312              		.cfi_offset 14, -4
 3313              		.loc 1 1423 0
 3314 0002 084C     		ldr	r4, .L229
 3315              		.loc 1 1421 0
 3316 0004 0646     		mov	r6, r0
 3317              		.loc 1 1423 0
 3318 0006 2046     		mov	r0, r4
 3319              	.LVL429:
 3320 0008 FFF7FEFF 		bl	spiSelect
 3321              	.LVL430:
 3322              		.loc 1 1424 0
 3323 000c 7F20     		movs	r0, #127
 3324 000e FFF7FEFF 		bl	halSpiExc
 3325              	.LVL431:
 3326 0012 0546     		mov	r5, r0
 3327              	.LVL432:
 3328              		.loc 1 1425 0
 3329 0014 3046     		mov	r0, r6
 3330 0016 FFF7FEFF 		bl	halSpiExc
 3331              	.LVL433:
 3332              		.loc 1 1426 0
 3333 001a 2046     		mov	r0, r4
 3334 001c FFF7FEFF 		bl	spiUnselect
 3335              	.LVL434:
 3336              		.loc 1 1428 0
 3337 0020 2846     		mov	r0, r5
 3338 0022 70BD     		pop	{r4, r5, r6, pc}
 3339              	.LVL435:
 3340              	.L230:
 3341              		.align	2
 3342              	.L229:
 3343 0024 00000000 		.word	SPID2
 3344              		.cfi_endproc
 3345              	.LFE318:
 3346              		.size	CC2520_ABORT, .-CC2520_ABORT
 3347              		.section	.text.CC2520_REGRD,"ax",%progbits
 3348              		.align	2
 3349              		.p2align 4,,15
 3350              		.global	CC2520_REGRD
 3351              		.thumb
 3352              		.thumb_func
 3353              		.type	CC2520_REGRD, %function
 3354              	CC2520_REGRD:
 3355              	.LFB319:
 3356              		.loc 1 1443 0
 3357              		.cfi_startproc
 3358              		@ args = 0, pretend = 0, frame = 0
 3359              		@ frame_needed = 0, uses_anonymous_args = 0
 3360              	.LVL436:
 3361 0000 70B5     		push	{r4, r5, r6, lr}
 3362              		.cfi_def_cfa_offset 16
 3363              		.cfi_offset 4, -16
ARM GAS  /tmp/cctBdhRt.s 			page 60


 3364              		.cfi_offset 5, -12
 3365              		.cfi_offset 6, -8
 3366              		.cfi_offset 14, -4
 3367              		.loc 1 1443 0
 3368 0002 0546     		mov	r5, r0
 3369              		.loc 1 1445 0
 3370 0004 0A48     		ldr	r0, .L237
 3371              	.LVL437:
 3372              		.loc 1 1443 0
 3373 0006 0C46     		mov	r4, r1
 3374 0008 1646     		mov	r6, r2
 3375              		.loc 1 1445 0
 3376 000a FFF7FEFF 		bl	spiSelect
 3377              	.LVL438:
 3378              		.loc 1 1446 0
 3379 000e 45F08000 		orr	r0, r5, #128
 3380 0012 FFF7FEFF 		bl	halSpiExc
 3381              	.LVL439:
 3382 0016 0546     		mov	r5, r0
 3383              	.LVL440:
 3384              		.loc 1 1447 0
 3385 0018 24B1     		cbz	r4, .L232
 3386              		.loc 1 1447 0 is_stmt 0 discriminator 1
 3387 001a 2146     		mov	r1, r4
 3388 001c 3246     		mov	r2, r6
 3389 001e 0448     		ldr	r0, .L237
 3390 0020 FFF7FEFF 		bl	spiReceive
 3391              	.LVL441:
 3392              	.L232:
 3393              		.loc 1 1448 0 is_stmt 1
 3394 0024 0248     		ldr	r0, .L237
 3395 0026 FFF7FEFF 		bl	spiUnselect
 3396              	.LVL442:
 3397              		.loc 1 1450 0
 3398 002a 2846     		mov	r0, r5
 3399 002c 70BD     		pop	{r4, r5, r6, pc}
 3400              	.LVL443:
 3401              	.L238:
 3402 002e 00BF     		.align	2
 3403              	.L237:
 3404 0030 00000000 		.word	SPID2
 3405              		.cfi_endproc
 3406              	.LFE319:
 3407              		.size	CC2520_REGRD, .-CC2520_REGRD
 3408              		.section	.text.CC2520_REGRD8,"ax",%progbits
 3409              		.align	2
 3410              		.p2align 4,,15
 3411              		.global	CC2520_REGRD8
 3412              		.thumb
 3413              		.thumb_func
 3414              		.type	CC2520_REGRD8, %function
 3415              	CC2520_REGRD8:
 3416              	.LFB320:
 3417              		.loc 1 1463 0
 3418              		.cfi_startproc
 3419              		@ args = 0, pretend = 0, frame = 0
 3420              		@ frame_needed = 0, uses_anonymous_args = 0
ARM GAS  /tmp/cctBdhRt.s 			page 61


 3421              	.LVL444:
 3422 0000 38B5     		push	{r3, r4, r5, lr}
 3423              		.cfi_def_cfa_offset 16
 3424              		.cfi_offset 3, -16
 3425              		.cfi_offset 4, -12
 3426              		.cfi_offset 5, -8
 3427              		.cfi_offset 14, -4
 3428              		.loc 1 1465 0
 3429 0002 094C     		ldr	r4, .L241
 3430              		.loc 1 1463 0
 3431 0004 0546     		mov	r5, r0
 3432              		.loc 1 1465 0
 3433 0006 2046     		mov	r0, r4
 3434              	.LVL445:
 3435 0008 FFF7FEFF 		bl	spiSelect
 3436              	.LVL446:
 3437              		.loc 1 1466 0
 3438 000c 45F08000 		orr	r0, r5, #128
 3439 0010 FFF7FEFF 		bl	halSpiExc
 3440              	.LVL447:
 3441              		.loc 1 1467 0
 3442 0014 0020     		movs	r0, #0
 3443 0016 FFF7FEFF 		bl	halSpiExc
 3444              	.LVL448:
 3445 001a 0546     		mov	r5, r0
 3446              	.LVL449:
 3447              		.loc 1 1468 0
 3448 001c 2046     		mov	r0, r4
 3449 001e FFF7FEFF 		bl	spiUnselect
 3450              	.LVL450:
 3451              		.loc 1 1470 0
 3452 0022 2846     		mov	r0, r5
 3453 0024 38BD     		pop	{r3, r4, r5, pc}
 3454              	.LVL451:
 3455              	.L242:
 3456 0026 00BF     		.align	2
 3457              	.L241:
 3458 0028 00000000 		.word	SPID2
 3459              		.cfi_endproc
 3460              	.LFE320:
 3461              		.size	CC2520_REGRD8, .-CC2520_REGRD8
 3462              		.section	.text.CC2520_REGRD16,"ax",%progbits
 3463              		.align	2
 3464              		.p2align 4,,15
 3465              		.global	CC2520_REGRD16
 3466              		.thumb
 3467              		.thumb_func
 3468              		.type	CC2520_REGRD16, %function
 3469              	CC2520_REGRD16:
 3470              	.LFB321:
 3471              		.loc 1 1483 0
 3472              		.cfi_startproc
 3473              		@ args = 0, pretend = 0, frame = 0
 3474              		@ frame_needed = 0, uses_anonymous_args = 0
 3475              	.LVL452:
 3476 0000 38B5     		push	{r3, r4, r5, lr}
 3477              		.cfi_def_cfa_offset 16
ARM GAS  /tmp/cctBdhRt.s 			page 62


 3478              		.cfi_offset 3, -16
 3479              		.cfi_offset 4, -12
 3480              		.cfi_offset 5, -8
 3481              		.cfi_offset 14, -4
 3482              		.loc 1 1485 0
 3483 0002 0D4D     		ldr	r5, .L245
 3484              		.loc 1 1483 0
 3485 0004 0446     		mov	r4, r0
 3486              		.loc 1 1485 0
 3487 0006 2846     		mov	r0, r5
 3488              	.LVL453:
 3489 0008 FFF7FEFF 		bl	spiSelect
 3490              	.LVL454:
 3491              		.loc 1 1486 0
 3492 000c 44F08000 		orr	r0, r4, #128
 3493 0010 FFF7FEFF 		bl	halSpiExc
 3494              	.LVL455:
 3495              		.loc 1 1487 0
 3496 0014 0020     		movs	r0, #0
 3497 0016 FFF7FEFF 		bl	halSpiExc
 3498              	.LVL456:
 3499 001a 4FF00004 		mov	r4, #0	@ movhi
 3500              	.LVL457:
 3501 001e 60F30704 		bfi	r4, r0, #0, #8
 3502              	.LVL458:
 3503              		.loc 1 1488 0
 3504 0022 0020     		movs	r0, #0
 3505 0024 FFF7FEFF 		bl	halSpiExc
 3506              	.LVL459:
 3507 0028 60F30F24 		bfi	r4, r0, #8, #8
 3508              		.loc 1 1489 0
 3509 002c 2846     		mov	r0, r5
 3510 002e FFF7FEFF 		bl	spiUnselect
 3511              	.LVL460:
 3512              		.loc 1 1491 0
 3513 0032 A0B2     		uxth	r0, r4
 3514 0034 38BD     		pop	{r3, r4, r5, pc}
 3515              	.LVL461:
 3516              	.L246:
 3517 0036 00BF     		.align	2
 3518              	.L245:
 3519 0038 00000000 		.word	SPID2
 3520              		.cfi_endproc
 3521              	.LFE321:
 3522              		.size	CC2520_REGRD16, .-CC2520_REGRD16
 3523              		.section	.text.CC2520_REGRD24,"ax",%progbits
 3524              		.align	2
 3525              		.p2align 4,,15
 3526              		.global	CC2520_REGRD24
 3527              		.thumb
 3528              		.thumb_func
 3529              		.type	CC2520_REGRD24, %function
 3530              	CC2520_REGRD24:
 3531              	.LFB322:
 3532              		.loc 1 1504 0
 3533              		.cfi_startproc
 3534              		@ args = 0, pretend = 0, frame = 0
ARM GAS  /tmp/cctBdhRt.s 			page 63


 3535              		@ frame_needed = 0, uses_anonymous_args = 0
 3536              	.LVL462:
 3537 0000 38B5     		push	{r3, r4, r5, lr}
 3538              		.cfi_def_cfa_offset 16
 3539              		.cfi_offset 3, -16
 3540              		.cfi_offset 4, -12
 3541              		.cfi_offset 5, -8
 3542              		.cfi_offset 14, -4
 3543              		.loc 1 1506 0
 3544 0002 104D     		ldr	r5, .L249
 3545              		.loc 1 1504 0
 3546 0004 0446     		mov	r4, r0
 3547              		.loc 1 1506 0
 3548 0006 2846     		mov	r0, r5
 3549              	.LVL463:
 3550 0008 FFF7FEFF 		bl	spiSelect
 3551              	.LVL464:
 3552              		.loc 1 1507 0
 3553 000c 44F08000 		orr	r0, r4, #128
 3554 0010 FFF7FEFF 		bl	halSpiExc
 3555              	.LVL465:
 3556              		.loc 1 1508 0
 3557 0014 0020     		movs	r0, #0
 3558 0016 FFF7FEFF 		bl	halSpiExc
 3559              	.LVL466:
 3560 001a 0024     		movs	r4, #0
 3561              	.LVL467:
 3562 001c 60F30704 		bfi	r4, r0, #0, #8
 3563              	.LVL468:
 3564              		.loc 1 1509 0
 3565 0020 0020     		movs	r0, #0
 3566 0022 FFF7FEFF 		bl	halSpiExc
 3567              	.LVL469:
 3568 0026 60F30F24 		bfi	r4, r0, #8, #8
 3569              		.loc 1 1510 0
 3570 002a 0020     		movs	r0, #0
 3571 002c FFF7FEFF 		bl	halSpiExc
 3572              	.LVL470:
 3573 0030 60F31744 		bfi	r4, r0, #16, #8
 3574              		.loc 1 1511 0
 3575 0034 6FF31F64 		bfc	r4, #24, #8
 3576              		.loc 1 1512 0
 3577 0038 2846     		mov	r0, r5
 3578 003a FFF7FEFF 		bl	spiUnselect
 3579              	.LVL471:
 3580              		.loc 1 1514 0
 3581 003e 2046     		mov	r0, r4
 3582 0040 38BD     		pop	{r3, r4, r5, pc}
 3583              	.LVL472:
 3584              	.L250:
 3585 0042 00BF     		.align	2
 3586              	.L249:
 3587 0044 00000000 		.word	SPID2
 3588              		.cfi_endproc
 3589              	.LFE322:
 3590              		.size	CC2520_REGRD24, .-CC2520_REGRD24
 3591              		.section	.text.CC2520_REGWR,"ax",%progbits
ARM GAS  /tmp/cctBdhRt.s 			page 64


 3592              		.align	2
 3593              		.p2align 4,,15
 3594              		.global	CC2520_REGWR
 3595              		.thumb
 3596              		.thumb_func
 3597              		.type	CC2520_REGWR, %function
 3598              	CC2520_REGWR:
 3599              	.LFB323:
 3600              		.loc 1 1529 0
 3601              		.cfi_startproc
 3602              		@ args = 0, pretend = 0, frame = 0
 3603              		@ frame_needed = 0, uses_anonymous_args = 0
 3604              	.LVL473:
 3605 0000 70B5     		push	{r4, r5, r6, lr}
 3606              		.cfi_def_cfa_offset 16
 3607              		.cfi_offset 4, -16
 3608              		.cfi_offset 5, -12
 3609              		.cfi_offset 6, -8
 3610              		.cfi_offset 14, -4
 3611              		.loc 1 1529 0
 3612 0002 0546     		mov	r5, r0
 3613              		.loc 1 1531 0
 3614 0004 0A48     		ldr	r0, .L257
 3615              	.LVL474:
 3616              		.loc 1 1529 0
 3617 0006 0C46     		mov	r4, r1
 3618 0008 1646     		mov	r6, r2
 3619              		.loc 1 1531 0
 3620 000a FFF7FEFF 		bl	spiSelect
 3621              	.LVL475:
 3622              		.loc 1 1532 0
 3623 000e 45F0C000 		orr	r0, r5, #192
 3624 0012 FFF7FEFF 		bl	halSpiExc
 3625              	.LVL476:
 3626 0016 0546     		mov	r5, r0
 3627              	.LVL477:
 3628              		.loc 1 1533 0
 3629 0018 24B1     		cbz	r4, .L252
 3630              		.loc 1 1533 0 is_stmt 0 discriminator 1
 3631 001a 2146     		mov	r1, r4
 3632 001c 3246     		mov	r2, r6
 3633 001e 0448     		ldr	r0, .L257
 3634 0020 FFF7FEFF 		bl	spiSend
 3635              	.LVL478:
 3636              	.L252:
 3637              		.loc 1 1534 0 is_stmt 1
 3638 0024 0248     		ldr	r0, .L257
 3639 0026 FFF7FEFF 		bl	spiUnselect
 3640              	.LVL479:
 3641              		.loc 1 1536 0
 3642 002a 2846     		mov	r0, r5
 3643 002c 70BD     		pop	{r4, r5, r6, pc}
 3644              	.LVL480:
 3645              	.L258:
 3646 002e 00BF     		.align	2
 3647              	.L257:
 3648 0030 00000000 		.word	SPID2
ARM GAS  /tmp/cctBdhRt.s 			page 65


 3649              		.cfi_endproc
 3650              	.LFE323:
 3651              		.size	CC2520_REGWR, .-CC2520_REGWR
 3652              		.section	.text.CC2520_REGWR8,"ax",%progbits
 3653              		.align	2
 3654              		.p2align 4,,15
 3655              		.global	CC2520_REGWR8
 3656              		.thumb
 3657              		.thumb_func
 3658              		.type	CC2520_REGWR8, %function
 3659              	CC2520_REGWR8:
 3660              	.LFB324:
 3661              		.loc 1 1550 0
 3662              		.cfi_startproc
 3663              		@ args = 0, pretend = 0, frame = 0
 3664              		@ frame_needed = 0, uses_anonymous_args = 0
 3665              	.LVL481:
 3666 0000 70B5     		push	{r4, r5, r6, lr}
 3667              		.cfi_def_cfa_offset 16
 3668              		.cfi_offset 4, -16
 3669              		.cfi_offset 5, -12
 3670              		.cfi_offset 6, -8
 3671              		.cfi_offset 14, -4
 3672              		.loc 1 1551 0
 3673 0002 094C     		ldr	r4, .L261
 3674              		.loc 1 1550 0
 3675 0004 0646     		mov	r6, r0
 3676              		.loc 1 1551 0
 3677 0006 2046     		mov	r0, r4
 3678              	.LVL482:
 3679              		.loc 1 1550 0
 3680 0008 0D46     		mov	r5, r1
 3681              		.loc 1 1551 0
 3682 000a FFF7FEFF 		bl	spiSelect
 3683              	.LVL483:
 3684              		.loc 1 1552 0
 3685 000e 46F0C000 		orr	r0, r6, #192
 3686 0012 FFF7FEFF 		bl	halSpiExc
 3687              	.LVL484:
 3688              		.loc 1 1553 0
 3689 0016 2846     		mov	r0, r5
 3690 0018 FFF7FEFF 		bl	halSpiExc
 3691              	.LVL485:
 3692              		.loc 1 1554 0
 3693 001c 2046     		mov	r0, r4
 3694              		.loc 1 1556 0
 3695 001e BDE87040 		pop	{r4, r5, r6, lr}
 3696              		.cfi_restore 14
 3697              		.cfi_restore 6
 3698              		.cfi_restore 5
 3699              		.cfi_restore 4
 3700              		.cfi_def_cfa_offset 0
 3701              		.loc 1 1554 0
 3702 0022 FFF7FEBF 		b	spiUnselect
 3703              	.LVL486:
 3704              	.L262:
 3705 0026 00BF     		.align	2
ARM GAS  /tmp/cctBdhRt.s 			page 66


 3706              	.L261:
 3707 0028 00000000 		.word	SPID2
 3708              		.cfi_endproc
 3709              	.LFE324:
 3710              		.size	CC2520_REGWR8, .-CC2520_REGWR8
 3711              		.section	.text.CC2520_REGWR16,"ax",%progbits
 3712              		.align	2
 3713              		.p2align 4,,15
 3714              		.global	CC2520_REGWR16
 3715              		.thumb
 3716              		.thumb_func
 3717              		.type	CC2520_REGWR16, %function
 3718              	CC2520_REGWR16:
 3719              	.LFB325:
 3720              		.loc 1 1570 0
 3721              		.cfi_startproc
 3722              		@ args = 0, pretend = 0, frame = 0
 3723              		@ frame_needed = 0, uses_anonymous_args = 0
 3724              	.LVL487:
 3725 0000 70B5     		push	{r4, r5, r6, lr}
 3726              		.cfi_def_cfa_offset 16
 3727              		.cfi_offset 4, -16
 3728              		.cfi_offset 5, -12
 3729              		.cfi_offset 6, -8
 3730              		.cfi_offset 14, -4
 3731              		.loc 1 1571 0
 3732 0002 0A4C     		ldr	r4, .L265
 3733              		.loc 1 1570 0
 3734 0004 0646     		mov	r6, r0
 3735              		.loc 1 1571 0
 3736 0006 2046     		mov	r0, r4
 3737              	.LVL488:
 3738              		.loc 1 1570 0
 3739 0008 0D46     		mov	r5, r1
 3740              		.loc 1 1571 0
 3741 000a FFF7FEFF 		bl	spiSelect
 3742              	.LVL489:
 3743              		.loc 1 1572 0
 3744 000e 46F0C000 		orr	r0, r6, #192
 3745 0012 FFF7FEFF 		bl	halSpiExc
 3746              	.LVL490:
 3747              		.loc 1 1573 0
 3748 0016 E8B2     		uxtb	r0, r5
 3749 0018 FFF7FEFF 		bl	halSpiExc
 3750              	.LVL491:
 3751              		.loc 1 1574 0
 3752 001c 280A     		lsrs	r0, r5, #8
 3753 001e FFF7FEFF 		bl	halSpiExc
 3754              	.LVL492:
 3755              		.loc 1 1575 0
 3756 0022 2046     		mov	r0, r4
 3757              		.loc 1 1576 0
 3758 0024 BDE87040 		pop	{r4, r5, r6, lr}
 3759              		.cfi_restore 14
 3760              		.cfi_restore 6
 3761              		.cfi_restore 5
 3762              		.cfi_restore 4
ARM GAS  /tmp/cctBdhRt.s 			page 67


 3763              		.cfi_def_cfa_offset 0
 3764              		.loc 1 1575 0
 3765 0028 FFF7FEBF 		b	spiUnselect
 3766              	.LVL493:
 3767              	.L266:
 3768              		.align	2
 3769              	.L265:
 3770 002c 00000000 		.word	SPID2
 3771              		.cfi_endproc
 3772              	.LFE325:
 3773              		.size	CC2520_REGWR16, .-CC2520_REGWR16
 3774              		.section	.text.CC2520_REGWR24,"ax",%progbits
 3775              		.align	2
 3776              		.p2align 4,,15
 3777              		.global	CC2520_REGWR24
 3778              		.thumb
 3779              		.thumb_func
 3780              		.type	CC2520_REGWR24, %function
 3781              	CC2520_REGWR24:
 3782              	.LFB326:
 3783              		.loc 1 1590 0
 3784              		.cfi_startproc
 3785              		@ args = 0, pretend = 0, frame = 0
 3786              		@ frame_needed = 0, uses_anonymous_args = 0
 3787              	.LVL494:
 3788 0000 70B5     		push	{r4, r5, r6, lr}
 3789              		.cfi_def_cfa_offset 16
 3790              		.cfi_offset 4, -16
 3791              		.cfi_offset 5, -12
 3792              		.cfi_offset 6, -8
 3793              		.cfi_offset 14, -4
 3794              		.loc 1 1591 0
 3795 0002 0D4D     		ldr	r5, .L269
 3796              		.loc 1 1590 0
 3797 0004 0646     		mov	r6, r0
 3798              		.loc 1 1591 0
 3799 0006 2846     		mov	r0, r5
 3800              	.LVL495:
 3801              		.loc 1 1590 0
 3802 0008 0C46     		mov	r4, r1
 3803              		.loc 1 1591 0
 3804 000a FFF7FEFF 		bl	spiSelect
 3805              	.LVL496:
 3806              		.loc 1 1592 0
 3807 000e 46F0C000 		orr	r0, r6, #192
 3808 0012 FFF7FEFF 		bl	halSpiExc
 3809              	.LVL497:
 3810              		.loc 1 1593 0
 3811 0016 E0B2     		uxtb	r0, r4
 3812 0018 FFF7FEFF 		bl	halSpiExc
 3813              	.LVL498:
 3814              		.loc 1 1594 0
 3815 001c C4F30720 		ubfx	r0, r4, #8, #8
 3816 0020 FFF7FEFF 		bl	halSpiExc
 3817              	.LVL499:
 3818              		.loc 1 1595 0
 3819 0024 C4F30740 		ubfx	r0, r4, #16, #8
ARM GAS  /tmp/cctBdhRt.s 			page 68


 3820 0028 FFF7FEFF 		bl	halSpiExc
 3821              	.LVL500:
 3822              		.loc 1 1596 0
 3823 002c 2846     		mov	r0, r5
 3824              		.loc 1 1597 0
 3825 002e BDE87040 		pop	{r4, r5, r6, lr}
 3826              		.cfi_restore 14
 3827              		.cfi_restore 6
 3828              		.cfi_restore 5
 3829              		.cfi_restore 4
 3830              		.cfi_def_cfa_offset 0
 3831              	.LVL501:
 3832              		.loc 1 1596 0
 3833 0032 FFF7FEBF 		b	spiUnselect
 3834              	.LVL502:
 3835              	.L270:
 3836 0036 00BF     		.align	2
 3837              	.L269:
 3838 0038 00000000 		.word	SPID2
 3839              		.cfi_endproc
 3840              	.LFE326:
 3841              		.size	CC2520_REGWR24, .-CC2520_REGWR24
 3842              		.text
 3843              	.Letext0:
 3844              		.file 2 "/usr/arm-none-eabi/include/machine/_default_types.h"
 3845              		.file 3 "/usr/arm-none-eabi/include/sys/_stdint.h"
 3846              		.file 4 "/usr/lib/gcc/arm-none-eabi/4.9.3/include/stddef.h"
 3847              		.file 5 "ChibiOS_3.0.2/os/rt/ports/ARMCMx/compilers/GCC/chtypes.h"
 3848              		.file 6 "ChibiOS_3.0.2/os/rt/include/chsystypes.h"
 3849              		.file 7 "ChibiOS_3.0.2/os/rt/include/chschd.h"
 3850              		.file 8 "ChibiOS_3.0.2/os/ext/CMSIS/ST/stm32f407xx.h"
 3851              		.file 9 "ChibiOS_3.0.2/os/rt/ports/ARMCMx/chcore.h"
 3852              		.file 10 "ChibiOS_3.0.2/os/rt/ports/ARMCMx/chcore_v7m.h"
 3853              		.file 11 "ChibiOS_3.0.2/os/rt/include/chtm.h"
 3854              		.file 12 "ChibiOS_3.0.2/os/rt/include/chsem.h"
 3855              		.file 13 "ChibiOS_3.0.2/os/rt/include/chmtx.h"
 3856              		.file 14 "ChibiOS_3.0.2/os/hal/ports/STM32/STM32F4xx/stm32_dma.h"
 3857              		.file 15 "ChibiOS_3.0.2/os/hal/ports/STM32/LLD/GPIOv2/pal_lld.h"
 3858              		.file 16 "ChibiOS_3.0.2/os/hal/include/spi.h"
 3859              		.file 17 "ChibiOS_3.0.2/os/hal/ports/STM32/LLD/SPIv1/spi_lld.h"
 3860              		.file 18 "cc2520/driver/hal_types.h"
 3861              		.file 19 "ChibiOS_3.0.2/os/ext/CMSIS/include/core_cm4.h"
 3862              		.file 20 "cc2520/driver/stm32_hw.h"