ARM GAS  /tmp/ccUdagvO.s 			page 1


   1              		.syntax unified
   2              		.cpu cortex-m4
   3              		.eabi_attribute 27, 1
   4              		.eabi_attribute 28, 1
   5              		.fpu fpv4-sp-d16
   6              		.eabi_attribute 20, 1
   7              		.eabi_attribute 21, 1
   8              		.eabi_attribute 23, 3
   9              		.eabi_attribute 24, 1
  10              		.eabi_attribute 25, 1
  11              		.eabi_attribute 26, 1
  12              		.eabi_attribute 30, 2
  13              		.eabi_attribute 34, 1
  14              		.eabi_attribute 18, 4
  15              		.thumb
  16              		.file	"i2c_lld.c"
  17              		.text
  18              	.Ltext0:
  19              		.cfi_sections	.debug_frame
  20              		.section	.text.i2c_lld_serve_event_interrupt,"ax",%progbits
  21              		.align	2
  22              		.p2align 4,,15
  23              		.thumb
  24              		.thumb_func
  25              		.type	i2c_lld_serve_event_interrupt, %function
  26              	i2c_lld_serve_event_interrupt:
  27              	.LFB259:
  28              		.file 1 "ChibiOS_3.0.2/os/hal/ports/STM32/LLD/I2Cv1/i2c_lld.c"
  29              		.loc 1 245 0
  30              		.cfi_startproc
  31              		@ args = 0, pretend = 0, frame = 0
  32              		@ frame_needed = 0, uses_anonymous_args = 0
  33              	.LVL0:
  34 0000 38B5     		push	{r3, r4, r5, lr}
  35              		.cfi_def_cfa_offset 16
  36              		.cfi_offset 3, -16
  37              		.cfi_offset 4, -12
  38              		.cfi_offset 5, -8
  39              		.cfi_offset 14, -4
  40              		.loc 1 246 0
  41 0002 446B     		ldr	r4, [r0, #52]
  42              	.LVL1:
  43              		.loc 1 253 0
  44 0004 384A     		ldr	r2, .L19
  45              		.loc 1 247 0
  46 0006 A369     		ldr	r3, [r4, #24]
  47              	.LVL2:
  48              		.loc 1 248 0
  49 0008 6569     		ldr	r5, [r4, #20]
  50              	.LVL3:
  51              		.loc 1 253 0
  52 000a 45EA0343 		orr	r3, r5, r3, lsl #16
  53              	.LVL4:
  54 000e 23F07F43 		bic	r3, r3, #-16777216
  55 0012 9342     		cmp	r3, r2
  56 0014 4BD0     		beq	.L3
  57 0016 1BD8     		bhi	.L4
ARM GAS  /tmp/ccUdagvO.s 			page 2


  58 0018 073A     		subs	r2, r2, #7
  59 001a 9342     		cmp	r3, r2
  60 001c 3BD0     		beq	.L5
  61 001e 0132     		adds	r2, r2, #1
  62 0020 9342     		cmp	r3, r2
  63 0022 10D1     		bne	.L2
  64              		.loc 1 267 0
  65 0024 6268     		ldr	r2, [r4, #4]
  66              		.loc 1 268 0
  67 0026 C36A     		ldr	r3, [r0, #44]
  68              		.loc 1 267 0
  69 0028 22F40072 		bic	r2, r2, #512
  70              		.loc 1 268 0
  71 002c 1B68     		ldr	r3, [r3]
  72              		.loc 1 267 0
  73 002e 6260     		str	r2, [r4, #4]
  74              		.loc 1 268 0
  75 0030 1A68     		ldr	r2, [r3]
  76 0032 42F00102 		orr	r2, r2, #1
  77 0036 1A60     		str	r2, [r3]
  78              		.loc 1 269 0
  79 0038 6268     		ldr	r2, [r4, #4]
  80 003a 42F48052 		orr	r2, r2, #4096
  81 003e 6260     		str	r2, [r4, #4]
  82              		.loc 1 270 0
  83 0040 5B68     		ldr	r3, [r3, #4]
  84 0042 012B     		cmp	r3, #1
  85 0044 4AD9     		bls	.L18
  86              	.LVL5:
  87              	.L2:
  88              		.loc 1 293 0
  89 0046 15F00A0F 		tst	r5, #10
  90              		.loc 1 294 0
  91 004a 18BF     		it	ne
  92 004c A369     		ldrne	r3, [r4, #24]
  93 004e 38BD     		pop	{r3, r4, r5, pc}
  94              	.LVL6:
  95              	.L4:
  96              		.loc 1 253 0
  97 0050 264A     		ldr	r2, .L19+4
  98 0052 9342     		cmp	r3, r2
  99 0054 10D0     		beq	.L7
 100 0056 0232     		adds	r2, r2, #2
 101 0058 9342     		cmp	r3, r2
 102 005a F4D1     		bne	.L2
 103              		.loc 1 279 0
 104 005c C36A     		ldr	r3, [r0, #44]
 105 005e 1B68     		ldr	r3, [r3]
 106 0060 5968     		ldr	r1, [r3, #4]
 107 0062 0029     		cmp	r1, #0
 108 0064 2CD0     		beq	.L10
 109              		.loc 1 281 0
 110 0066 028C     		ldrh	r2, [r0, #32]
 111              		.loc 1 282 0
 112 0068 2368     		ldr	r3, [r4]
 113              		.loc 1 281 0
 114 006a 42F00102 		orr	r2, r2, #1
ARM GAS  /tmp/ccUdagvO.s 			page 3


 115              		.loc 1 282 0
 116 006e 43F4A063 		orr	r3, r3, #1280
 117              		.loc 1 281 0
 118 0072 0284     		strh	r2, [r0, #32]	@ movhi
 119              		.loc 1 282 0
 120 0074 2360     		str	r3, [r4]
 121              		.loc 1 283 0
 122 0076 38BD     		pop	{r3, r4, r5, pc}
 123              	.LVL7:
 124              	.L7:
 125              		.loc 1 274 0
 126 0078 6368     		ldr	r3, [r4, #4]
 127              		.loc 1 275 0
 128 007a 026B     		ldr	r2, [r0, #48]
 129              		.loc 1 274 0
 130 007c 23F40073 		bic	r3, r3, #512
 131              		.loc 1 275 0
 132 0080 1268     		ldr	r2, [r2]
 133              		.loc 1 274 0
 134 0082 6360     		str	r3, [r4, #4]
 135              		.loc 1 275 0
 136 0084 1368     		ldr	r3, [r2]
 137 0086 43F00103 		orr	r3, r3, #1
 138 008a 1360     		str	r3, [r2]
 139              		.loc 1 293 0
 140 008c 15F00A0F 		tst	r5, #10
 141              		.loc 1 294 0
 142 0090 18BF     		it	ne
 143 0092 A369     		ldrne	r3, [r4, #24]
 144 0094 38BD     		pop	{r3, r4, r5, pc}
 145              	.LVL8:
 146              	.L5:
 147              		.loc 1 255 0
 148 0096 038C     		ldrh	r3, [r0, #32]
 149 0098 1A0A     		lsrs	r2, r3, #8
 150 009a 0BD0     		beq	.L16
 151              		.loc 1 257 0
 152 009c 03F00103 		and	r3, r3, #1
 153 00a0 43F0F003 		orr	r3, r3, #240
 154 00a4 02F00602 		and	r2, r2, #6
 155 00a8 1343     		orrs	r3, r3, r2
 156 00aa 2361     		str	r3, [r4, #16]
 157 00ac CBE7     		b	.L2
 158              	.L3:
 159              		.loc 1 264 0
 160 00ae 038C     		ldrh	r3, [r0, #32]
 161 00b0 C3F34703 		ubfx	r3, r3, #1, #8
 162              	.L16:
 163 00b4 2361     		str	r3, [r4, #16]
 164              		.loc 1 293 0
 165 00b6 15F00A0F 		tst	r5, #10
 166              		.loc 1 294 0
 167 00ba 18BF     		it	ne
 168 00bc A369     		ldrne	r3, [r4, #24]
 169 00be 38BD     		pop	{r3, r4, r5, pc}
 170              	.LVL9:
 171              	.L10:
ARM GAS  /tmp/ccUdagvO.s 			page 4


 172              		.loc 1 285 0
 173 00c0 6368     		ldr	r3, [r4, #4]
 174 00c2 23F40073 		bic	r3, r3, #512
 175 00c6 6360     		str	r3, [r4, #4]
 176              		.loc 1 286 0
 177 00c8 2368     		ldr	r3, [r4]
 178 00ca 43F40073 		orr	r3, r3, #512
 179 00ce 2360     		str	r3, [r4]
 180              	.LBB182:
 181              	.LBB183:
 182              	.LBB184:
 183              	.LBB185:
 184              	.LBB186:
 185              	.LBB187:
 186              		.file 2 "ChibiOS_3.0.2/os/ext/CMSIS/include/core_cmFunc.h"
 187              		.loc 2 342 0
 188              	@ 342 "ChibiOS_3.0.2/os/ext/CMSIS/include/core_cmFunc.h" 1
 189 00d0 72B6     		cpsid i
 190              	@ 0 "" 2
 191              	.LVL10:
 192              		.thumb
 193              	.LBE187:
 194              	.LBE186:
 195              	.LBE185:
 196              	.LBE184:
 197              	.LBE183:
 198              	.LBE182:
 199              	.LBB188:
 200              	.LBB189:
 201              		.file 3 "ChibiOS_3.0.2/os/hal/osal/rt/osal.h"
 202              		.loc 3 728 0
 203 00d2 1C30     		adds	r0, r0, #28
 204              	.LVL11:
 205 00d4 FFF7FEFF 		bl	chThdResumeI
 206              	.LVL12:
 207              	.LBE189:
 208              	.LBE188:
 209              	.LBB190:
 210              	.LBB191:
 211              	.LBB192:
 212              	.LBB193:
 213              	.LBB194:
 214              	.LBB195:
 215              		.loc 2 331 0
 216              	@ 331 "ChibiOS_3.0.2/os/ext/CMSIS/include/core_cmFunc.h" 1
 217 00d8 62B6     		cpsie i
 218              	@ 0 "" 2
 219              		.thumb
 220 00da B4E7     		b	.L2
 221              	.LVL13:
 222              	.L18:
 223              	.LBE195:
 224              	.LBE194:
 225              	.LBE193:
 226              	.LBE192:
 227              	.LBE191:
 228              	.LBE190:
ARM GAS  /tmp/ccUdagvO.s 			page 5


 229              		.loc 1 271 0
 230 00dc 2368     		ldr	r3, [r4]
 231 00de 23F48063 		bic	r3, r3, #1024
 232 00e2 2360     		str	r3, [r4]
 233 00e4 AFE7     		b	.L2
 234              	.L20:
 235 00e6 00BF     		.align	2
 236              	.L19:
 237 00e8 08000300 		.word	196616
 238 00ec 82000700 		.word	458882
 239              		.cfi_endproc
 240              	.LFE259:
 241              		.size	i2c_lld_serve_event_interrupt, .-i2c_lld_serve_event_interrupt
 242              		.section	.text.i2c_lld_serve_error_interrupt,"ax",%progbits
 243              		.align	2
 244              		.p2align 4,,15
 245              		.thumb
 246              		.thumb_func
 247              		.type	i2c_lld_serve_error_interrupt, %function
 248              	i2c_lld_serve_error_interrupt:
 249              	.LFB262:
 250              		.loc 1 359 0
 251              		.cfi_startproc
 252              		@ args = 0, pretend = 0, frame = 0
 253              		@ frame_needed = 0, uses_anonymous_args = 0
 254              	.LVL14:
 255 0000 70B5     		push	{r4, r5, r6, lr}
 256              		.cfi_def_cfa_offset 16
 257              		.cfi_offset 4, -16
 258              		.cfi_offset 5, -12
 259              		.cfi_offset 6, -8
 260              		.cfi_offset 14, -4
 261              		.loc 1 362 0
 262 0002 056B     		ldr	r5, [r0, #48]
 263 0004 2A68     		ldr	r2, [r5]
 264 0006 1368     		ldr	r3, [r2]
 265 0008 23F01F03 		bic	r3, r3, #31
 266 000c 1360     		str	r3, [r2]
 267              	.L22:
 268              		.loc 1 362 0 is_stmt 0 discriminator 2
 269 000e 1368     		ldr	r3, [r2]
 270 0010 DE07     		lsls	r6, r3, #31
 271 0012 FCD4     		bmi	.L22
 272              		.loc 1 362 0 discriminator 3
 273 0014 2E7A     		ldrb	r6, [r5, #8]	@ zero_extendqisi2
 274              		.loc 1 363 0 is_stmt 1 discriminator 3
 275 0016 C46A     		ldr	r4, [r0, #44]
 276              		.loc 1 362 0 discriminator 3
 277 0018 6D68     		ldr	r5, [r5, #4]
 278              		.loc 1 363 0 discriminator 3
 279 001a 2268     		ldr	r2, [r4]
 280              		.loc 1 362 0 discriminator 3
 281 001c 3D23     		movs	r3, #61
 282 001e B340     		lsls	r3, r3, r6
 283 0020 2B60     		str	r3, [r5]
 284              		.loc 1 363 0 discriminator 3
 285 0022 1368     		ldr	r3, [r2]
ARM GAS  /tmp/ccUdagvO.s 			page 6


 286 0024 23F01F03 		bic	r3, r3, #31
 287 0028 1360     		str	r3, [r2]
 288              	.L23:
 289              		.loc 1 363 0 is_stmt 0 discriminator 2
 290 002a 1368     		ldr	r3, [r2]
 291 002c 13F00103 		ands	r3, r3, #1
 292 0030 FBD1     		bne	.L23
 293              		.loc 1 363 0 discriminator 3
 294 0032 257A     		ldrb	r5, [r4, #8]	@ zero_extendqisi2
 295 0034 6468     		ldr	r4, [r4, #4]
 296 0036 3D22     		movs	r2, #61
 297 0038 AA40     		lsls	r2, r2, r5
 298              		.loc 1 367 0 is_stmt 1 discriminator 3
 299 003a CD05     		lsls	r5, r1, #23
 300              		.loc 1 363 0 discriminator 3
 301 003c 2260     		str	r2, [r4]
 302              		.loc 1 368 0 discriminator 3
 303 003e 48BF     		it	mi
 304 0040 0123     		movmi	r3, #1
 305              		.loc 1 370 0 discriminator 3
 306 0042 8C05     		lsls	r4, r1, #22
 307              		.loc 1 368 0 discriminator 3
 308 0044 8360     		str	r3, [r0, #8]
 309              		.loc 1 371 0 discriminator 3
 310 0046 44BF     		itt	mi
 311 0048 43F00203 		orrmi	r3, r3, #2
 312 004c 8360     		strmi	r3, [r0, #8]
 313              		.loc 1 373 0 discriminator 3
 314 004e 4A05     		lsls	r2, r1, #21
 315 0050 0BD5     		bpl	.L27
 316              		.loc 1 374 0
 317 0052 426B     		ldr	r2, [r0, #52]
 318 0054 5468     		ldr	r4, [r2, #4]
 319 0056 24F40074 		bic	r4, r4, #512
 320 005a 5460     		str	r4, [r2, #4]
 321              		.loc 1 375 0
 322 005c 1468     		ldr	r4, [r2]
 323              		.loc 1 376 0
 324 005e 43F00403 		orr	r3, r3, #4
 325              		.loc 1 375 0
 326 0062 44F40074 		orr	r4, r4, #512
 327 0066 1460     		str	r4, [r2]
 328              		.loc 1 376 0
 329 0068 8360     		str	r3, [r0, #8]
 330              	.L27:
 331              		.loc 1 379 0
 332 006a 0E05     		lsls	r6, r1, #20
 333              		.loc 1 380 0
 334 006c 44BF     		itt	mi
 335 006e 43F00803 		orrmi	r3, r3, #8
 336 0072 8360     		strmi	r3, [r0, #8]
 337              		.loc 1 382 0
 338 0074 4D04     		lsls	r5, r1, #17
 339              		.loc 1 383 0
 340 0076 44BF     		itt	mi
 341 0078 43F02003 		orrmi	r3, r3, #32
 342 007c 8360     		strmi	r3, [r0, #8]
ARM GAS  /tmp/ccUdagvO.s 			page 7


 343              		.loc 1 385 0
 344 007e CC04     		lsls	r4, r1, #19
 345 0080 0CD5     		bpl	.L30
 346              		.loc 1 386 0
 347 0082 43F01003 		orr	r3, r3, #16
 348              		.loc 1 388 0
 349 0086 0904     		lsls	r1, r1, #16
 350              	.LVL15:
 351              		.loc 1 386 0
 352 0088 8360     		str	r3, [r0, #8]
 353              		.loc 1 388 0
 354 008a 0CD4     		bmi	.L31
 355              	.L32:
 356              	.LBB196:
 357              	.LBB197:
 358              	.LBB198:
 359              	.LBB199:
 360              	.LBB200:
 361              	.LBB201:
 362              		.loc 2 342 0
 363              	@ 342 "ChibiOS_3.0.2/os/ext/CMSIS/include/core_cmFunc.h" 1
 364 008c 72B6     		cpsid i
 365              	@ 0 "" 2
 366              	.LVL16:
 367              		.thumb
 368              	.LBE201:
 369              	.LBE200:
 370              	.LBE199:
 371              	.LBE198:
 372              	.LBE197:
 373              	.LBE196:
 374              	.LBB202:
 375              	.LBB203:
 376              		.loc 3 728 0
 377 008e 6FF00101 		mvn	r1, #1
 378 0092 1C30     		adds	r0, r0, #28
 379              	.LVL17:
 380 0094 FFF7FEFF 		bl	chThdResumeI
 381              	.LVL18:
 382              	.LBE203:
 383              	.LBE202:
 384              	.LBB204:
 385              	.LBB205:
 386              	.LBB206:
 387              	.LBB207:
 388              	.LBB208:
 389              	.LBB209:
 390              		.loc 2 331 0
 391              	@ 331 "ChibiOS_3.0.2/os/ext/CMSIS/include/core_cmFunc.h" 1
 392 0098 62B6     		cpsie i
 393              	@ 0 "" 2
 394              		.thumb
 395 009a 70BD     		pop	{r4, r5, r6, pc}
 396              	.LVL19:
 397              	.L30:
 398              	.LBE209:
 399              	.LBE208:
ARM GAS  /tmp/ccUdagvO.s 			page 8


 400              	.LBE207:
 401              	.LBE206:
 402              	.LBE205:
 403              	.LBE204:
 404              		.loc 1 388 0
 405 009c 0A04     		lsls	r2, r1, #16
 406 009e 02D4     		bmi	.L31
 407              		.loc 1 392 0
 408 00a0 002B     		cmp	r3, #0
 409 00a2 F3D1     		bne	.L32
 410 00a4 70BD     		pop	{r4, r5, r6, pc}
 411              	.LVL20:
 412              	.L31:
 413              		.loc 1 389 0
 414 00a6 43F04003 		orr	r3, r3, #64
 415 00aa 8360     		str	r3, [r0, #8]
 416 00ac EEE7     		b	.L32
 417              		.cfi_endproc
 418              	.LFE262:
 419              		.size	i2c_lld_serve_error_interrupt, .-i2c_lld_serve_error_interrupt
 420 00ae 00BF     		.section	.text.i2c_lld_serve_tx_end_irq,"ax",%progbits
 421              		.align	2
 422              		.p2align 4,,15
 423              		.thumb
 424              		.thumb_func
 425              		.type	i2c_lld_serve_tx_end_irq, %function
 426              	i2c_lld_serve_tx_end_irq:
 427              	.LFB261:
 428              		.loc 1 332 0
 429              		.cfi_startproc
 430              		@ args = 0, pretend = 0, frame = 0
 431              		@ frame_needed = 0, uses_anonymous_args = 0
 432              	.LVL21:
 433              		.loc 1 337 0
 434 0000 11F00C0F 		tst	r1, #12
 435              		.loc 1 332 0
 436 0004 38B5     		push	{r3, r4, r5, lr}
 437              		.cfi_def_cfa_offset 16
 438              		.cfi_offset 3, -16
 439              		.cfi_offset 4, -12
 440              		.cfi_offset 5, -8
 441              		.cfi_offset 14, -4
 442              		.loc 1 332 0
 443 0006 0546     		mov	r5, r0
 444              		.loc 1 333 0
 445 0008 446B     		ldr	r4, [r0, #52]
 446              	.LVL22:
 447              		.loc 1 337 0
 448 000a 12D1     		bne	.L62
 449              	.LVL23:
 450              	.L55:
 451              		.loc 1 344 0
 452 000c 296B     		ldr	r1, [r5, #48]
 453 000e 0A68     		ldr	r2, [r1]
 454 0010 1368     		ldr	r3, [r2]
 455 0012 23F01F03 		bic	r3, r3, #31
 456 0016 1360     		str	r3, [r2]
ARM GAS  /tmp/ccUdagvO.s 			page 9


 457              	.L56:
 458              		.loc 1 344 0 is_stmt 0 discriminator 2
 459 0018 1368     		ldr	r3, [r2]
 460 001a DB07     		lsls	r3, r3, #31
 461 001c FCD4     		bmi	.L56
 462              		.loc 1 344 0 discriminator 3
 463 001e 087A     		ldrb	r0, [r1, #8]	@ zero_extendqisi2
 464 0020 4A68     		ldr	r2, [r1, #4]
 465 0022 3D23     		movs	r3, #61
 466 0024 8340     		lsls	r3, r3, r0
 467 0026 1360     		str	r3, [r2]
 468              		.loc 1 348 0 is_stmt 1 discriminator 3
 469 0028 6368     		ldr	r3, [r4, #4]
 470 002a 43F40073 		orr	r3, r3, #512
 471 002e 6360     		str	r3, [r4, #4]
 472 0030 38BD     		pop	{r3, r4, r5, pc}
 473              	.LVL24:
 474              	.L62:
 475              	.LBB210:
 476              	.LBB211:
 477              		.loc 3 462 0
 478 0032 0248     		ldr	r0, .L63
 479              	.LVL25:
 480 0034 FFF7FEFF 		bl	chSysHalt
 481              	.LVL26:
 482 0038 E8E7     		b	.L55
 483              	.L64:
 484 003a 00BF     		.align	2
 485              	.L63:
 486 003c 00000000 		.word	.LC0
 487              	.LBE211:
 488              	.LBE210:
 489              		.cfi_endproc
 490              	.LFE261:
 491              		.size	i2c_lld_serve_tx_end_irq, .-i2c_lld_serve_tx_end_irq
 492              		.section	.text.i2c_lld_serve_rx_end_irq,"ax",%progbits
 493              		.align	2
 494              		.p2align 4,,15
 495              		.thumb
 496              		.thumb_func
 497              		.type	i2c_lld_serve_rx_end_irq, %function
 498              	i2c_lld_serve_rx_end_irq:
 499              	.LFB260:
 500              		.loc 1 305 0
 501              		.cfi_startproc
 502              		@ args = 0, pretend = 0, frame = 0
 503              		@ frame_needed = 0, uses_anonymous_args = 0
 504              	.LVL27:
 505              		.loc 1 310 0
 506 0000 11F00C0F 		tst	r1, #12
 507              		.loc 1 305 0
 508 0004 38B5     		push	{r3, r4, r5, lr}
 509              		.cfi_def_cfa_offset 16
 510              		.cfi_offset 3, -16
 511              		.cfi_offset 4, -12
 512              		.cfi_offset 5, -8
 513              		.cfi_offset 14, -4
ARM GAS  /tmp/ccUdagvO.s 			page 10


 514              		.loc 1 305 0
 515 0006 0546     		mov	r5, r0
 516              		.loc 1 306 0
 517 0008 446B     		ldr	r4, [r0, #52]
 518              	.LVL28:
 519              		.loc 1 310 0
 520 000a 21D1     		bne	.L73
 521              	.LVL29:
 522              	.L66:
 523              		.loc 1 317 0
 524 000c EA6A     		ldr	r2, [r5, #44]
 525 000e 1368     		ldr	r3, [r2]
 526 0010 1968     		ldr	r1, [r3]
 527 0012 21F01F01 		bic	r1, r1, #31
 528 0016 1960     		str	r1, [r3]
 529              	.L67:
 530              		.loc 1 317 0 is_stmt 0 discriminator 2
 531 0018 1968     		ldr	r1, [r3]
 532 001a 11F00101 		ands	r1, r1, #1
 533 001e FBD1     		bne	.L67
 534              		.loc 1 317 0 discriminator 3
 535 0020 107A     		ldrb	r0, [r2, #8]	@ zero_extendqisi2
 536 0022 5268     		ldr	r2, [r2, #4]
 537 0024 3D23     		movs	r3, #61
 538 0026 8340     		lsls	r3, r3, r0
 539 0028 1360     		str	r3, [r2]
 540              		.loc 1 319 0 is_stmt 1 discriminator 3
 541 002a 6368     		ldr	r3, [r4, #4]
 542 002c 23F48053 		bic	r3, r3, #4096
 543 0030 6360     		str	r3, [r4, #4]
 544              		.loc 1 320 0 discriminator 3
 545 0032 2368     		ldr	r3, [r4]
 546 0034 23F48063 		bic	r3, r3, #1024
 547 0038 2360     		str	r3, [r4]
 548              		.loc 1 321 0 discriminator 3
 549 003a 2368     		ldr	r3, [r4]
 550 003c 43F40073 		orr	r3, r3, #512
 551 0040 2360     		str	r3, [r4]
 552              	.LBB212:
 553              	.LBB213:
 554              	.LBB214:
 555              	.LBB215:
 556              	.LBB216:
 557              	.LBB217:
 558              		.loc 2 342 0 discriminator 3
 559              	@ 342 "ChibiOS_3.0.2/os/ext/CMSIS/include/core_cmFunc.h" 1
 560 0042 72B6     		cpsid i
 561              	@ 0 "" 2
 562              	.LVL30:
 563              		.thumb
 564              	.LBE217:
 565              	.LBE216:
 566              	.LBE215:
 567              	.LBE214:
 568              	.LBE213:
 569              	.LBE212:
 570              	.LBB218:
ARM GAS  /tmp/ccUdagvO.s 			page 11


 571              	.LBB219:
 572              		.loc 3 728 0 discriminator 3
 573 0044 05F11C00 		add	r0, r5, #28
 574              	.LVL31:
 575 0048 FFF7FEFF 		bl	chThdResumeI
 576              	.LVL32:
 577              	.LBE219:
 578              	.LBE218:
 579              	.LBB220:
 580              	.LBB221:
 581              	.LBB222:
 582              	.LBB223:
 583              	.LBB224:
 584              	.LBB225:
 585              		.loc 2 331 0 discriminator 3
 586              	@ 331 "ChibiOS_3.0.2/os/ext/CMSIS/include/core_cmFunc.h" 1
 587 004c 62B6     		cpsie i
 588              	@ 0 "" 2
 589              		.thumb
 590 004e 38BD     		pop	{r3, r4, r5, pc}
 591              	.LVL33:
 592              	.L73:
 593              	.LBE225:
 594              	.LBE224:
 595              	.LBE223:
 596              	.LBE222:
 597              	.LBE221:
 598              	.LBE220:
 599              	.LBB226:
 600              	.LBB227:
 601              		.loc 3 462 0
 602 0050 0148     		ldr	r0, .L74
 603              	.LVL34:
 604 0052 FFF7FEFF 		bl	chSysHalt
 605              	.LVL35:
 606 0056 D9E7     		b	.L66
 607              	.L75:
 608              		.align	2
 609              	.L74:
 610 0058 00000000 		.word	.LC0
 611              	.LBE227:
 612              	.LBE226:
 613              		.cfi_endproc
 614              	.LFE260:
 615              		.size	i2c_lld_serve_rx_end_irq, .-i2c_lld_serve_rx_end_irq
 616              		.section	.text.VectorBC,"ax",%progbits
 617              		.align	2
 618              		.p2align 4,,15
 619              		.global	VectorBC
 620              		.thumb
 621              		.thumb_func
 622              		.type	VectorBC, %function
 623              	VectorBC:
 624              	.LFB263:
 625              		.loc 1 406 0
 626              		.cfi_startproc
 627              		@ args = 0, pretend = 0, frame = 0
ARM GAS  /tmp/ccUdagvO.s 			page 12


 628              		@ frame_needed = 0, uses_anonymous_args = 0
 629 0000 08B5     		push	{r3, lr}
 630              		.cfi_def_cfa_offset 8
 631              		.cfi_offset 3, -8
 632              		.cfi_offset 14, -4
 633              		.loc 1 410 0
 634 0002 0348     		ldr	r0, .L78
 635 0004 FFF7FEFF 		bl	i2c_lld_serve_event_interrupt
 636              	.LVL36:
 637              		.loc 1 413 0
 638 0008 BDE80840 		pop	{r3, lr}
 639              		.cfi_restore 14
 640              		.cfi_restore 3
 641              		.cfi_def_cfa_offset 0
 642              		.loc 1 412 0
 643 000c FFF7FEBF 		b	_port_irq_epilogue
 644              	.LVL37:
 645              	.L79:
 646              		.align	2
 647              	.L78:
 648 0010 00000000 		.word	.LANCHOR0
 649              		.cfi_endproc
 650              	.LFE263:
 651              		.size	VectorBC, .-VectorBC
 652              		.section	.text.VectorC0,"ax",%progbits
 653              		.align	2
 654              		.p2align 4,,15
 655              		.global	VectorC0
 656              		.thumb
 657              		.thumb_func
 658              		.type	VectorC0, %function
 659              	VectorC0:
 660              	.LFB264:
 661              		.loc 1 418 0
 662              		.cfi_startproc
 663              		@ args = 0, pretend = 0, frame = 0
 664              		@ frame_needed = 0, uses_anonymous_args = 0
 665              		.loc 1 419 0
 666 0000 0748     		ldr	r0, .L82
 667 0002 426B     		ldr	r2, [r0, #52]
 668 0004 5169     		ldr	r1, [r2, #20]
 669              	.LVL38:
 670              		.loc 1 418 0
 671 0006 08B5     		push	{r3, lr}
 672              		.cfi_def_cfa_offset 8
 673              		.cfi_offset 3, -8
 674              		.cfi_offset 14, -4
 675 0008 89B2     		uxth	r1, r1
 676              		.loc 1 423 0
 677 000a 01F45F43 		and	r3, r1, #57088
 678 000e DB43     		mvns	r3, r3
 679 0010 5361     		str	r3, [r2, #20]
 680              		.loc 1 424 0
 681 0012 FFF7FEFF 		bl	i2c_lld_serve_error_interrupt
 682              	.LVL39:
 683              		.loc 1 427 0
 684 0016 BDE80840 		pop	{r3, lr}
ARM GAS  /tmp/ccUdagvO.s 			page 13


 685              		.cfi_restore 14
 686              		.cfi_restore 3
 687              		.cfi_def_cfa_offset 0
 688              		.loc 1 426 0
 689 001a FFF7FEBF 		b	_port_irq_epilogue
 690              	.LVL40:
 691              	.L83:
 692 001e 00BF     		.align	2
 693              	.L82:
 694 0020 00000000 		.word	.LANCHOR0
 695              		.cfi_endproc
 696              	.LFE264:
 697              		.size	VectorC0, .-VectorC0
 698              		.section	.text.VectorC4,"ax",%progbits
 699              		.align	2
 700              		.p2align 4,,15
 701              		.global	VectorC4
 702              		.thumb
 703              		.thumb_func
 704              		.type	VectorC4, %function
 705              	VectorC4:
 706              	.LFB265:
 707              		.loc 1 436 0
 708              		.cfi_startproc
 709              		@ args = 0, pretend = 0, frame = 0
 710              		@ frame_needed = 0, uses_anonymous_args = 0
 711 0000 08B5     		push	{r3, lr}
 712              		.cfi_def_cfa_offset 8
 713              		.cfi_offset 3, -8
 714              		.cfi_offset 14, -4
 715              		.loc 1 440 0
 716 0002 0348     		ldr	r0, .L86
 717 0004 FFF7FEFF 		bl	i2c_lld_serve_event_interrupt
 718              	.LVL41:
 719              		.loc 1 443 0
 720 0008 BDE80840 		pop	{r3, lr}
 721              		.cfi_restore 14
 722              		.cfi_restore 3
 723              		.cfi_def_cfa_offset 0
 724              		.loc 1 442 0
 725 000c FFF7FEBF 		b	_port_irq_epilogue
 726              	.LVL42:
 727              	.L87:
 728              		.align	2
 729              	.L86:
 730 0010 00000000 		.word	.LANCHOR1
 731              		.cfi_endproc
 732              	.LFE265:
 733              		.size	VectorC4, .-VectorC4
 734              		.section	.text.VectorC8,"ax",%progbits
 735              		.align	2
 736              		.p2align 4,,15
 737              		.global	VectorC8
 738              		.thumb
 739              		.thumb_func
 740              		.type	VectorC8, %function
 741              	VectorC8:
ARM GAS  /tmp/ccUdagvO.s 			page 14


 742              	.LFB266:
 743              		.loc 1 450 0
 744              		.cfi_startproc
 745              		@ args = 0, pretend = 0, frame = 0
 746              		@ frame_needed = 0, uses_anonymous_args = 0
 747              		.loc 1 451 0
 748 0000 0748     		ldr	r0, .L90
 749 0002 426B     		ldr	r2, [r0, #52]
 750 0004 5169     		ldr	r1, [r2, #20]
 751              	.LVL43:
 752              		.loc 1 450 0
 753 0006 08B5     		push	{r3, lr}
 754              		.cfi_def_cfa_offset 8
 755              		.cfi_offset 3, -8
 756              		.cfi_offset 14, -4
 757 0008 89B2     		uxth	r1, r1
 758              		.loc 1 455 0
 759 000a 01F45F43 		and	r3, r1, #57088
 760 000e DB43     		mvns	r3, r3
 761 0010 5361     		str	r3, [r2, #20]
 762              		.loc 1 456 0
 763 0012 FFF7FEFF 		bl	i2c_lld_serve_error_interrupt
 764              	.LVL44:
 765              		.loc 1 459 0
 766 0016 BDE80840 		pop	{r3, lr}
 767              		.cfi_restore 14
 768              		.cfi_restore 3
 769              		.cfi_def_cfa_offset 0
 770              		.loc 1 458 0
 771 001a FFF7FEBF 		b	_port_irq_epilogue
 772              	.LVL45:
 773              	.L91:
 774 001e 00BF     		.align	2
 775              	.L90:
 776 0020 00000000 		.word	.LANCHOR1
 777              		.cfi_endproc
 778              	.LFE266:
 779              		.size	VectorC8, .-VectorC8
 780              		.section	.text.i2c_lld_init,"ax",%progbits
 781              		.align	2
 782              		.p2align 4,,15
 783              		.global	i2c_lld_init
 784              		.thumb
 785              		.thumb_func
 786              		.type	i2c_lld_init, %function
 787              	i2c_lld_init:
 788              	.LFB267:
 789              		.loc 1 503 0
 790              		.cfi_startproc
 791              		@ args = 0, pretend = 0, frame = 0
 792              		@ frame_needed = 0, uses_anonymous_args = 0
 793 0000 F8B5     		push	{r3, r4, r5, r6, r7, lr}
 794              		.cfi_def_cfa_offset 24
 795              		.cfi_offset 3, -24
 796              		.cfi_offset 4, -20
 797              		.cfi_offset 5, -16
 798              		.cfi_offset 6, -12
ARM GAS  /tmp/ccUdagvO.s 			page 15


 799              		.cfi_offset 7, -8
 800              		.cfi_offset 14, -4
 801              		.loc 1 506 0
 802 0002 0D4E     		ldr	r6, .L94
 803              		.loc 1 514 0
 804 0004 0D4D     		ldr	r5, .L94+4
 805              		.loc 1 509 0
 806 0006 0E4C     		ldr	r4, .L94+8
 807              		.loc 1 506 0
 808 0008 3046     		mov	r0, r6
 809 000a FFF7FEFF 		bl	i2cObjectInit
 810              	.LVL46:
 811              		.loc 1 508 0
 812 000e 0D4B     		ldr	r3, .L94+12
 813 0010 7363     		str	r3, [r6, #52]
 814              		.loc 1 507 0
 815 0012 0027     		movs	r7, #0
 816              		.loc 1 510 0
 817 0014 04F14803 		add	r3, r4, #72
 818              		.loc 1 514 0
 819 0018 2846     		mov	r0, r5
 820              		.loc 1 509 0
 821 001a F462     		str	r4, [r6, #44]
 822              		.loc 1 510 0
 823 001c 3363     		str	r3, [r6, #48]
 824              		.loc 1 507 0
 825 001e F761     		str	r7, [r6, #28]
 826              		.loc 1 514 0
 827 0020 FFF7FEFF 		bl	i2cObjectInit
 828              	.LVL47:
 829              		.loc 1 517 0
 830 0024 04F11803 		add	r3, r4, #24
 831              		.loc 1 516 0
 832 0028 074A     		ldr	r2, .L94+16
 833              		.loc 1 515 0
 834 002a EF61     		str	r7, [r5, #28]
 835              		.loc 1 518 0
 836 002c 5434     		adds	r4, r4, #84
 837              		.loc 1 516 0
 838 002e 6A63     		str	r2, [r5, #52]
 839              		.loc 1 517 0
 840 0030 EB62     		str	r3, [r5, #44]
 841              		.loc 1 518 0
 842 0032 2C63     		str	r4, [r5, #48]
 843 0034 F8BD     		pop	{r3, r4, r5, r6, r7, pc}
 844              	.L95:
 845 0036 00BF     		.align	2
 846              	.L94:
 847 0038 00000000 		.word	.LANCHOR0
 848 003c 00000000 		.word	.LANCHOR1
 849 0040 00000000 		.word	_stm32_dma_streams
 850 0044 00540040 		.word	1073763328
 851 0048 00580040 		.word	1073764352
 852              		.cfi_endproc
 853              	.LFE267:
 854              		.size	i2c_lld_init, .-i2c_lld_init
 855              		.section	.text.i2c_lld_start,"ax",%progbits
ARM GAS  /tmp/ccUdagvO.s 			page 16


 856              		.align	2
 857              		.p2align 4,,15
 858              		.global	i2c_lld_start
 859              		.thumb
 860              		.thumb_func
 861              		.type	i2c_lld_start, %function
 862              	i2c_lld_start:
 863              	.LFB268:
 864              		.loc 1 537 0
 865              		.cfi_startproc
 866              		@ args = 0, pretend = 0, frame = 0
 867              		@ frame_needed = 0, uses_anonymous_args = 0
 868              	.LVL48:
 869 0000 2DE9F843 		push	{r3, r4, r5, r6, r7, r8, r9, lr}
 870              		.cfi_def_cfa_offset 32
 871              		.cfi_offset 3, -32
 872              		.cfi_offset 4, -28
 873              		.cfi_offset 5, -24
 874              		.cfi_offset 6, -20
 875              		.cfi_offset 7, -16
 876              		.cfi_offset 8, -12
 877              		.cfi_offset 9, -8
 878              		.cfi_offset 14, -4
 879              		.loc 1 550 0
 880 0004 0378     		ldrb	r3, [r0]	@ zero_extendqisi2
 881              		.loc 1 538 0
 882 0006 456B     		ldr	r5, [r0, #52]
 883              	.LVL49:
 884              		.loc 1 540 0
 885 0008 40F25642 		movw	r2, #1110
 886 000c 8262     		str	r2, [r0, #40]
 887              		.loc 1 550 0
 888 000e 012B     		cmp	r3, #1
 889              		.loc 1 544 0
 890 0010 40F21642 		movw	r2, #1046
 891              		.loc 1 537 0
 892 0014 0446     		mov	r4, r0
 893              		.loc 1 544 0
 894 0016 4262     		str	r2, [r0, #36]
 895              		.loc 1 550 0
 896 0018 43D0     		beq	.L112
 897              	.L108:
 898              		.loc 1 538 0
 899 001a 2B46     		mov	r3, r5
 900              	.LVL50:
 901              	.L97:
 902              		.loc 1 632 0
 903 001c E16A     		ldr	r1, [r4, #44]
 904              		.loc 1 633 0
 905 001e 226B     		ldr	r2, [r4, #48]
 906 0020 6068     		ldr	r0, [r4, #4]
 907              	.LVL51:
 908              		.loc 1 632 0
 909 0022 D1F80090 		ldr	r9, [r1]
 910              		.loc 1 633 0
 911 0026 D2F80080 		ldr	r8, [r2]
 912              	.LBB234:
ARM GAS  /tmp/ccUdagvO.s 			page 17


 913              	.LBB235:
 914              		.loc 1 146 0
 915 002a 4468     		ldr	r4, [r0, #4]
 916              	.LVL52:
 917              		.loc 1 147 0
 918 002c 90F808E0 		ldrb	lr, [r0, #8]	@ zero_extendqisi2
 919              	.LVL53:
 920              		.loc 1 161 0
 921 0030 644E     		ldr	r6, .L118
 922              	.LBE235:
 923              	.LBE234:
 924              		.loc 1 632 0
 925 0032 05F11001 		add	r1, r5, #16
 926              		.loc 1 638 0
 927 0036 4FF41067 		mov	r7, #2304
 928              		.loc 1 636 0
 929 003a 4FF4004C 		mov	ip, #32768
 930              		.loc 1 637 0
 931 003e 0022     		movs	r2, #0
 932              		.loc 1 632 0
 933 0040 C9F80810 		str	r1, [r9, #8]
 934              		.loc 1 633 0
 935 0044 C8F80810 		str	r1, [r8, #8]
 936              		.loc 1 636 0
 937 0048 C5F800C0 		str	ip, [r5]
 938              		.loc 1 637 0
 939 004c 2A60     		str	r2, [r5]
 940              		.loc 1 638 0
 941 004e 6F60     		str	r7, [r5, #4]
 942              	.LBB239:
 943              	.LBB236:
 944              		.loc 1 154 0
 945 0050 5F68     		ldr	r7, [r3, #4]
 946 0052 4FF6C071 		movw	r1, #65472
 947 0056 3940     		ands	r1, r1, r7
 948 0058 5960     		str	r1, [r3, #4]
 949              		.loc 1 155 0
 950 005a 5968     		ldr	r1, [r3, #4]
 951              		.loc 1 161 0
 952 005c B442     		cmp	r4, r6
 953              		.loc 1 155 0
 954 005e 41F02A01 		orr	r1, r1, #42
 955 0062 5960     		str	r1, [r3, #4]
 956              	.LVL54:
 957              		.loc 1 161 0
 958 0064 54DD     		ble	.L113
 959              		.loc 1 177 0
 960 0066 5849     		ldr	r1, .L118+4
 961 0068 8C42     		cmp	r4, r1
 962 006a 09DC     		bgt	.L100
 963              		.loc 1 183 0
 964 006c BEF1020F 		cmp	lr, #2
 965 0070 6DD0     		beq	.L114
 966              		.loc 1 189 0
 967 0072 BEF1030F 		cmp	lr, #3
 968 0076 5DD0     		beq	.L115
 969 0078 48F6FF72 		movw	r2, #36863
ARM GAS  /tmp/ccUdagvO.s 			page 18


 970              	.LVL55:
 971              	.L102:
 972              		.loc 1 202 0
 973 007c 0D21     		movs	r1, #13
 974 007e 1962     		str	r1, [r3, #32]
 975              	.L100:
 976              		.loc 1 207 0
 977 0080 DA61     		str	r2, [r3, #28]
 978              	.LVL56:
 979              	.LBE236:
 980              	.LBE239:
 981              	.LBB240:
 982              	.LBB241:
 983              		.loc 1 223 0
 984 0082 0178     		ldrb	r1, [r0]	@ zero_extendqisi2
 985              		.loc 1 222 0
 986 0084 1A68     		ldr	r2, [r3]
 987              		.loc 1 223 0
 988 0086 0229     		cmp	r1, #2
 989              		.loc 1 222 0
 990 0088 92B2     		uxth	r2, r2
 991              	.LVL57:
 992              		.loc 1 223 0
 993 008a 4DD0     		beq	.L104
 994 008c 0329     		cmp	r1, #3
 995 008e 48D0     		beq	.L105
 996 0090 0129     		cmp	r1, #1
 997 0092 39D0     		beq	.L116
 998              	.L103:
 999              		.loc 1 235 0
 1000 0094 1A60     		str	r2, [r3]
 1001              	.LVL58:
 1002              	.LBE241:
 1003              	.LBE240:
 1004              		.loc 1 645 0
 1005 0096 2B68     		ldr	r3, [r5]
 1006              	.LVL59:
 1007 0098 43F00103 		orr	r3, r3, #1
 1008 009c 2B60     		str	r3, [r5]
 1009 009e BDE8F883 		pop	{r3, r4, r5, r6, r7, r8, r9, pc}
 1010              	.LVL60:
 1011              	.L112:
 1012              		.loc 1 553 0
 1013 00a2 4A4B     		ldr	r3, .L118+8
 1014 00a4 9842     		cmp	r0, r3
 1015 00a6 60D0     		beq	.L117
 1016              		.loc 1 579 0
 1017 00a8 494B     		ldr	r3, .L118+12
 1018 00aa 9842     		cmp	r0, r3
 1019 00ac B5D1     		bne	.L108
 1020              	.LBB244:
 1021              		.loc 1 582 0
 1022 00ae 494E     		ldr	r6, .L118+16
 1023              		.loc 1 583 0
 1024 00b0 C06A     		ldr	r0, [r0, #44]
 1025              	.LVL61:
 1026              		.loc 1 582 0
ARM GAS  /tmp/ccUdagvO.s 			page 19


 1027 00b2 336A     		ldr	r3, [r6, #32]
 1028              		.loc 1 583 0
 1029 00b4 484A     		ldr	r2, .L118+20
 1030              		.loc 1 582 0
 1031 00b6 43F48003 		orr	r3, r3, #4194304
 1032 00ba 0027     		movs	r7, #0
 1033 00bc 3362     		str	r3, [r6, #32]
 1034              		.loc 1 583 0
 1035 00be 0521     		movs	r1, #5
 1036 00c0 2346     		mov	r3, r4
 1037              		.loc 1 582 0
 1038 00c2 3762     		str	r7, [r6, #32]
 1039              		.loc 1 583 0
 1040 00c4 FFF7FEFF 		bl	dmaStreamAllocate
 1041              	.LVL62:
 1042              		.loc 1 588 0
 1043 00c8 444A     		ldr	r2, .L118+24
 1044 00ca 206B     		ldr	r0, [r4, #48]
 1045 00cc 0521     		movs	r1, #5
 1046 00ce 2346     		mov	r3, r4
 1047 00d0 FFF7FEFF 		bl	dmaStreamAllocate
 1048              	.LVL63:
 1049              		.loc 1 593 0
 1050 00d4 336C     		ldr	r3, [r6, #64]
 1051 00d6 43F48003 		orr	r3, r3, #4194304
 1052 00da 3364     		str	r3, [r6, #64]
 1053              		.loc 1 594 0
 1054 00dc 2120     		movs	r0, #33
 1055 00de 0521     		movs	r1, #5
 1056 00e0 FFF7FEFF 		bl	nvicEnableVector
 1057              	.LVL64:
 1058              		.loc 1 595 0
 1059 00e4 0521     		movs	r1, #5
 1060 00e6 2220     		movs	r0, #34
 1061 00e8 FFF7FEFF 		bl	nvicEnableVector
 1062              	.LVL65:
 1063              		.loc 1 597 0
 1064 00ec 616A     		ldr	r1, [r4, #36]
 1065              		.loc 1 599 0
 1066 00ee A26A     		ldr	r2, [r4, #40]
 1067 00f0 636B     		ldr	r3, [r4, #52]
 1068              		.loc 1 597 0
 1069 00f2 41F06061 		orr	r1, r1, #234881024
 1070              		.loc 1 599 0
 1071 00f6 42F06062 		orr	r2, r2, #234881024
 1072              		.loc 1 597 0
 1073 00fa 41F44031 		orr	r1, r1, #196608
 1074              		.loc 1 599 0
 1075 00fe 42F44032 		orr	r2, r2, #196608
 1076              		.loc 1 597 0
 1077 0102 6162     		str	r1, [r4, #36]
 1078              		.loc 1 599 0
 1079 0104 A262     		str	r2, [r4, #40]
 1080 0106 89E7     		b	.L97
 1081              	.LVL66:
 1082              	.L116:
 1083              	.LBE244:
ARM GAS  /tmp/ccUdagvO.s 			page 20


 1084              	.LBB245:
 1085              	.LBB242:
 1086              		.loc 1 225 0
 1087 0108 22F00A02 		bic	r2, r2, #10
 1088              	.LVL67:
 1089 010c 92B2     		uxth	r2, r2
 1090              	.LVL68:
 1091 010e C1E7     		b	.L103
 1092              	.LVL69:
 1093              	.L113:
 1094              	.LBE242:
 1095              	.LBE245:
 1096              	.LBB246:
 1097              	.LBB237:
 1098              		.loc 1 175 0
 1099 0110 2B21     		movs	r1, #43
 1100              		.loc 1 168 0
 1101 0112 6400     		lsls	r4, r4, #1
 1102              	.LVL70:
 1103 0114 324A     		ldr	r2, .L118+28
 1104              		.loc 1 175 0
 1105 0116 1962     		str	r1, [r3, #32]
 1106              		.loc 1 168 0
 1107 0118 B2FBF4F2 		udiv	r2, r2, r4
 1108 011c C2F30B02 		ubfx	r2, r2, #0, #12
 1109 0120 AEE7     		b	.L100
 1110              	.LVL71:
 1111              	.L105:
 1112              	.LBE237:
 1113              	.LBE246:
 1114              	.LBB247:
 1115              	.LBB243:
 1116              		.loc 1 232 0
 1117 0122 42F00A02 		orr	r2, r2, #10
 1118              	.LVL72:
 1119 0126 B5E7     		b	.L103
 1120              	.L104:
 1121              	.LVL73:
 1122              		.loc 1 229 0
 1123 0128 22F00802 		bic	r2, r2, #8
 1124              	.LVL74:
 1125 012c 92B2     		uxth	r2, r2
 1126 012e 42F00202 		orr	r2, r2, #2
 1127              	.LVL75:
 1128 0132 AFE7     		b	.L103
 1129              	.LVL76:
 1130              	.L115:
 1131              	.LBE243:
 1132              	.LBE247:
 1133              	.LBB248:
 1134              	.LBB238:
 1135              		.loc 1 193 0
 1136 0134 04EB8402 		add	r2, r4, r4, lsl #2
 1137 0138 02EB8204 		add	r4, r2, r2, lsl #2
 1138              	.LVL77:
 1139 013c 284A     		ldr	r2, .L118+28
 1140 013e B2FBF4F2 		udiv	r2, r2, r4
ARM GAS  /tmp/ccUdagvO.s 			page 21


 1141 0142 6FEA8242 		mvn	r2, r2, lsl #18
 1142 0146 6FEA9242 		mvn	r2, r2, lsr #18
 1143 014a 92B2     		uxth	r2, r2
 1144 014c 96E7     		b	.L102
 1145              	.LVL78:
 1146              	.L114:
 1147              		.loc 1 187 0
 1148 014e 01F11E71 		add	r1, r1, #41418752
 1149 0152 04EB4402 		add	r2, r4, r4, lsl #1
 1150 0156 01F53131 		add	r1, r1, #181248
 1151 015a B1FBF2F2 		udiv	r2, r1, r2
 1152 015e 6FEA4242 		mvn	r2, r2, lsl #17
 1153 0162 6FEA5242 		mvn	r2, r2, lsr #17
 1154 0166 92B2     		uxth	r2, r2
 1155 0168 88E7     		b	.L102
 1156              	.LVL79:
 1157              	.L117:
 1158              	.LBE238:
 1159              	.LBE248:
 1160              	.LBB249:
 1161              		.loc 1 556 0
 1162 016a 1A4E     		ldr	r6, .L118+16
 1163              		.loc 1 557 0
 1164 016c C06A     		ldr	r0, [r0, #44]
 1165              	.LVL80:
 1166              		.loc 1 556 0
 1167 016e 336A     		ldr	r3, [r6, #32]
 1168              		.loc 1 557 0
 1169 0170 194A     		ldr	r2, .L118+20
 1170              		.loc 1 556 0
 1171 0172 43F40013 		orr	r3, r3, #2097152
 1172 0176 0027     		movs	r7, #0
 1173 0178 3362     		str	r3, [r6, #32]
 1174              		.loc 1 557 0
 1175 017a 0521     		movs	r1, #5
 1176 017c 2346     		mov	r3, r4
 1177              		.loc 1 556 0
 1178 017e 3762     		str	r7, [r6, #32]
 1179              		.loc 1 557 0
 1180 0180 FFF7FEFF 		bl	dmaStreamAllocate
 1181              	.LVL81:
 1182              		.loc 1 562 0
 1183 0184 154A     		ldr	r2, .L118+24
 1184 0186 206B     		ldr	r0, [r4, #48]
 1185 0188 0521     		movs	r1, #5
 1186 018a 2346     		mov	r3, r4
 1187 018c FFF7FEFF 		bl	dmaStreamAllocate
 1188              	.LVL82:
 1189              		.loc 1 567 0
 1190 0190 336C     		ldr	r3, [r6, #64]
 1191 0192 43F40013 		orr	r3, r3, #2097152
 1192 0196 3364     		str	r3, [r6, #64]
 1193              		.loc 1 568 0
 1194 0198 1F20     		movs	r0, #31
 1195 019a 0521     		movs	r1, #5
 1196 019c FFF7FEFF 		bl	nvicEnableVector
 1197              	.LVL83:
ARM GAS  /tmp/ccUdagvO.s 			page 22


 1198              		.loc 1 569 0
 1199 01a0 0521     		movs	r1, #5
 1200 01a2 2020     		movs	r0, #32
 1201 01a4 FFF7FEFF 		bl	nvicEnableVector
 1202              	.LVL84:
 1203              		.loc 1 571 0
 1204 01a8 616A     		ldr	r1, [r4, #36]
 1205              		.loc 1 573 0
 1206 01aa A26A     		ldr	r2, [r4, #40]
 1207 01ac 636B     		ldr	r3, [r4, #52]
 1208              		.loc 1 571 0
 1209 01ae 41F00071 		orr	r1, r1, #33554432
 1210              		.loc 1 573 0
 1211 01b2 42F00072 		orr	r2, r2, #33554432
 1212              		.loc 1 571 0
 1213 01b6 41F44031 		orr	r1, r1, #196608
 1214              		.loc 1 573 0
 1215 01ba 42F44032 		orr	r2, r2, #196608
 1216              		.loc 1 571 0
 1217 01be 6162     		str	r1, [r4, #36]
 1218              		.loc 1 573 0
 1219 01c0 A262     		str	r2, [r4, #40]
 1220 01c2 2BE7     		b	.L97
 1221              	.L119:
 1222              		.align	2
 1223              	.L118:
 1224 01c4 A0860100 		.word	100000
 1225 01c8 801A0600 		.word	400000
 1226 01cc 00000000 		.word	.LANCHOR0
 1227 01d0 00000000 		.word	.LANCHOR1
 1228 01d4 00380240 		.word	1073887232
 1229 01d8 00000000 		.word	i2c_lld_serve_rx_end_irq
 1230 01dc 00000000 		.word	i2c_lld_serve_tx_end_irq
 1231 01e0 80DE8002 		.word	42000000
 1232              	.LBE249:
 1233              		.cfi_endproc
 1234              	.LFE268:
 1235              		.size	i2c_lld_start, .-i2c_lld_start
 1236              		.section	.text.i2c_lld_stop,"ax",%progbits
 1237              		.align	2
 1238              		.p2align 4,,15
 1239              		.global	i2c_lld_stop
 1240              		.thumb
 1241              		.thumb_func
 1242              		.type	i2c_lld_stop, %function
 1243              	i2c_lld_stop:
 1244              	.LFB269:
 1245              		.loc 1 655 0
 1246              		.cfi_startproc
 1247              		@ args = 0, pretend = 0, frame = 0
 1248              		@ frame_needed = 0, uses_anonymous_args = 0
 1249              	.LVL85:
 1250              		.loc 1 658 0
 1251 0000 0378     		ldrb	r3, [r0]	@ zero_extendqisi2
 1252 0002 012B     		cmp	r3, #1
 1253 0004 32D0     		beq	.L130
 1254              	.LVL86:
ARM GAS  /tmp/ccUdagvO.s 			page 23


 1255              	.LBB252:
 1256              	.LBB253:
 1257              		.loc 1 132 0
 1258 0006 016B     		ldr	r1, [r0, #48]
 1259              		.loc 1 123 0
 1260 0008 436B     		ldr	r3, [r0, #52]
 1261              	.LVL87:
 1262              		.loc 1 132 0
 1263 000a 0A68     		ldr	r2, [r1]
 1264              	.LBE253:
 1265              	.LBE252:
 1266              		.loc 1 655 0
 1267 000c 70B5     		push	{r4, r5, r6, lr}
 1268              		.cfi_def_cfa_offset 16
 1269              		.cfi_offset 4, -16
 1270              		.cfi_offset 5, -12
 1271              		.cfi_offset 6, -8
 1272              		.cfi_offset 14, -4
 1273              	.LBB255:
 1274              	.LBB254:
 1275              		.loc 1 127 0
 1276 000e 0024     		movs	r4, #0
 1277              		.loc 1 126 0
 1278 0010 4FF40045 		mov	r5, #32768
 1279 0014 1D60     		str	r5, [r3]
 1280              		.loc 1 127 0
 1281 0016 1C60     		str	r4, [r3]
 1282              		.loc 1 128 0
 1283 0018 5C60     		str	r4, [r3, #4]
 1284              		.loc 1 129 0
 1285 001a 5C61     		str	r4, [r3, #20]
 1286              		.loc 1 132 0
 1287 001c 1368     		ldr	r3, [r2]
 1288              	.LVL88:
 1289 001e 23F01F03 		bic	r3, r3, #31
 1290 0022 1360     		str	r3, [r2]
 1291              	.L123:
 1292 0024 1368     		ldr	r3, [r2]
 1293 0026 DC07     		lsls	r4, r3, #31
 1294 0028 FCD4     		bmi	.L123
 1295 002a 0E7A     		ldrb	r6, [r1, #8]	@ zero_extendqisi2
 1296              		.loc 1 133 0
 1297 002c C46A     		ldr	r4, [r0, #44]
 1298              		.loc 1 132 0
 1299 002e 4D68     		ldr	r5, [r1, #4]
 1300              		.loc 1 133 0
 1301 0030 2268     		ldr	r2, [r4]
 1302              		.loc 1 132 0
 1303 0032 3D23     		movs	r3, #61
 1304 0034 B340     		lsls	r3, r3, r6
 1305 0036 2B60     		str	r3, [r5]
 1306              		.loc 1 133 0
 1307 0038 1368     		ldr	r3, [r2]
 1308 003a 23F01F03 		bic	r3, r3, #31
 1309 003e 1360     		str	r3, [r2]
 1310              	.L124:
 1311 0040 1368     		ldr	r3, [r2]
ARM GAS  /tmp/ccUdagvO.s 			page 24


 1312 0042 DB07     		lsls	r3, r3, #31
 1313 0044 FCD4     		bmi	.L124
 1314 0046 0546     		mov	r5, r0
 1315 0048 207A     		ldrb	r0, [r4, #8]	@ zero_extendqisi2
 1316              	.LVL89:
 1317 004a 6268     		ldr	r2, [r4, #4]
 1318 004c 3D23     		movs	r3, #61
 1319 004e 8340     		lsls	r3, r3, r0
 1320 0050 1360     		str	r3, [r2]
 1321              	.LBE254:
 1322              	.LBE255:
 1323              		.loc 1 662 0
 1324 0052 0846     		mov	r0, r1
 1325 0054 FFF7FEFF 		bl	dmaStreamRelease
 1326              	.LVL90:
 1327              		.loc 1 663 0
 1328 0058 E86A     		ldr	r0, [r5, #44]
 1329 005a FFF7FEFF 		bl	dmaStreamRelease
 1330              	.LVL91:
 1331              		.loc 1 666 0
 1332 005e 104B     		ldr	r3, .L133
 1333 0060 9D42     		cmp	r5, r3
 1334 0062 10D0     		beq	.L131
 1335              		.loc 1 674 0
 1336 0064 0F4B     		ldr	r3, .L133+4
 1337 0066 9D42     		cmp	r5, r3
 1338 0068 01D0     		beq	.L132
 1339              	.L120:
 1340 006a 70BD     		pop	{r4, r5, r6, pc}
 1341              	.LVL92:
 1342              	.L130:
 1343              		.cfi_def_cfa_offset 0
 1344              		.cfi_restore 4
 1345              		.cfi_restore 5
 1346              		.cfi_restore 6
 1347              		.cfi_restore 14
 1348 006c 7047     		bx	lr
 1349              	.LVL93:
 1350              	.L132:
 1351              		.cfi_def_cfa_offset 16
 1352              		.cfi_offset 4, -16
 1353              		.cfi_offset 5, -12
 1354              		.cfi_offset 6, -8
 1355              		.cfi_offset 14, -4
 1356              		.loc 1 675 0
 1357 006e 2120     		movs	r0, #33
 1358 0070 FFF7FEFF 		bl	nvicDisableVector
 1359              	.LVL94:
 1360              		.loc 1 676 0
 1361 0074 2220     		movs	r0, #34
 1362 0076 FFF7FEFF 		bl	nvicDisableVector
 1363              	.LVL95:
 1364              		.loc 1 677 0
 1365 007a 0B4A     		ldr	r2, .L133+8
 1366 007c 136C     		ldr	r3, [r2, #64]
 1367 007e 23F48003 		bic	r3, r3, #4194304
 1368 0082 1364     		str	r3, [r2, #64]
ARM GAS  /tmp/ccUdagvO.s 			page 25


 1369 0084 F1E7     		b	.L120
 1370              	.L131:
 1371              		.loc 1 667 0
 1372 0086 1F20     		movs	r0, #31
 1373 0088 FFF7FEFF 		bl	nvicDisableVector
 1374              	.LVL96:
 1375              		.loc 1 668 0
 1376 008c 2020     		movs	r0, #32
 1377 008e FFF7FEFF 		bl	nvicDisableVector
 1378              	.LVL97:
 1379              		.loc 1 669 0
 1380 0092 054A     		ldr	r2, .L133+8
 1381 0094 136C     		ldr	r3, [r2, #64]
 1382 0096 23F40013 		bic	r3, r3, #2097152
 1383 009a 1364     		str	r3, [r2, #64]
 1384 009c 70BD     		pop	{r4, r5, r6, pc}
 1385              	.LVL98:
 1386              	.L134:
 1387 009e 00BF     		.align	2
 1388              	.L133:
 1389 00a0 00000000 		.word	.LANCHOR0
 1390 00a4 00000000 		.word	.LANCHOR1
 1391 00a8 00380240 		.word	1073887232
 1392              		.cfi_endproc
 1393              	.LFE269:
 1394              		.size	i2c_lld_stop, .-i2c_lld_stop
 1395              		.section	.text.i2c_lld_master_receive_timeout,"ax",%progbits
 1396              		.align	2
 1397              		.p2align 4,,15
 1398              		.global	i2c_lld_master_receive_timeout
 1399              		.thumb
 1400              		.thumb_func
 1401              		.type	i2c_lld_master_receive_timeout, %function
 1402              	i2c_lld_master_receive_timeout:
 1403              	.LFB270:
 1404              		.loc 1 716 0
 1405              		.cfi_startproc
 1406              		@ args = 4, pretend = 0, frame = 0
 1407              		@ frame_needed = 0, uses_anonymous_args = 0
 1408              		@ link register save eliminated.
 1409              	.LVL99:
 1410              		.loc 1 728 0
 1411 0000 4900     		lsls	r1, r1, #1
 1412              	.LVL100:
 1413              		.loc 1 716 0
 1414 0002 F0B4     		push	{r4, r5, r6, r7}
 1415              		.cfi_def_cfa_offset 16
 1416              		.cfi_offset 4, -16
 1417              		.cfi_offset 5, -12
 1418              		.cfi_offset 6, -8
 1419              		.cfi_offset 7, -4
 1420              		.loc 1 728 0
 1421 0004 41F00101 		orr	r1, r1, #1
 1422              		.loc 1 725 0
 1423 0008 0024     		movs	r4, #0
 1424              		.loc 1 728 0
 1425 000a 0184     		strh	r1, [r0, #32]	@ movhi
ARM GAS  /tmp/ccUdagvO.s 			page 26


 1426              		.loc 1 725 0
 1427 000c 8460     		str	r4, [r0, #8]
 1428              		.loc 1 716 0
 1429 000e 0499     		ldr	r1, [sp, #16]
 1430              		.loc 1 717 0
 1431 0010 446B     		ldr	r4, [r0, #52]
 1432              	.LVL101:
 1433              	.LBB256:
 1434              	.LBB257:
 1435              	.LBB258:
 1436              	.LBB259:
 1437              	.LBB260:
 1438              	.LBB261:
 1439              		.loc 2 331 0
 1440              	@ 331 "ChibiOS_3.0.2/os/ext/CMSIS/include/core_cmFunc.h" 1
 1441 0012 62B6     		cpsie i
 1442              	@ 0 "" 2
 1443              		.thumb
 1444              	.LBE261:
 1445              	.LBE260:
 1446              	.LBE259:
 1447              	.LBE258:
 1448              	.LBE257:
 1449              	.LBE256:
 1450              		.loc 1 734 0
 1451 0014 C56A     		ldr	r5, [r0, #44]
 1452 0016 476A     		ldr	r7, [r0, #36]
 1453 0018 2E68     		ldr	r6, [r5]
 1454              	.LBB262:
 1455              	.LBB263:
 1456              	.LBB264:
 1457              		.file 4 "ChibiOS_3.0.2/os/rt/include/chvt.h"
 1458              		.loc 4 231 0
 1459 001a 114D     		ldr	r5, .L142
 1460              	.LBE264:
 1461              	.LBE263:
 1462              	.LBE262:
 1463              		.loc 1 734 0
 1464 001c 3760     		str	r7, [r6]
 1465              		.loc 1 735 0
 1466 001e F260     		str	r2, [r6, #12]
 1467              		.loc 1 736 0
 1468 0020 7360     		str	r3, [r6, #4]
 1469              	.LBB267:
 1470              	.LBB266:
 1471              	.LBB265:
 1472              		.loc 4 231 0
 1473 0022 AA6A     		ldr	r2, [r5, #40]
 1474              	.LVL102:
 1475 0024 00E0     		b	.L139
 1476              	.LVL103:
 1477              	.L141:
 1478              	.LBE265:
 1479              	.LBE266:
 1480              	.LBE267:
 1481              	.LBB268:
 1482              	.LBB269:
ARM GAS  /tmp/ccUdagvO.s 			page 27


 1483              	.LBB270:
 1484              	.LBB271:
 1485              	.LBB272:
 1486              	.LBB273:
 1487              		.loc 2 331 0
 1488              	@ 331 "ChibiOS_3.0.2/os/ext/CMSIS/include/core_cmFunc.h" 1
 1489 0026 62B6     		cpsie i
 1490              	@ 0 "" 2
 1491              	.LVL104:
 1492              		.thumb
 1493              	.L139:
 1494              	.LBE273:
 1495              	.LBE272:
 1496              	.LBE271:
 1497              	.LBE270:
 1498              	.LBE269:
 1499              	.LBE268:
 1500              	.LBB274:
 1501              	.LBB275:
 1502              	.LBB276:
 1503              	.LBB277:
 1504              	.LBB278:
 1505              		.loc 2 342 0
 1506              	@ 342 "ChibiOS_3.0.2/os/ext/CMSIS/include/core_cmFunc.h" 1
 1507 0028 72B6     		cpsid i
 1508              	@ 0 "" 2
 1509              		.thumb
 1510              	.LBE278:
 1511              	.LBE277:
 1512              	.LBE276:
 1513              	.LBE275:
 1514              	.LBE274:
 1515              		.loc 1 749 0
 1516 002a A369     		ldr	r3, [r4, #24]
 1517 002c 9E07     		lsls	r6, r3, #30
 1518 002e 02D4     		bmi	.L136
 1519              		.loc 1 749 0 is_stmt 0 discriminator 1
 1520 0030 2368     		ldr	r3, [r4]
 1521 0032 9B05     		lsls	r3, r3, #22
 1522 0034 08D5     		bpl	.L137
 1523              	.L136:
 1524              	.LBB279:
 1525              	.LBB280:
 1526              	.LBB281:
 1527              		.loc 4 231 0 is_stmt 1
 1528 0036 AB6A     		ldr	r3, [r5, #40]
 1529              	.LVL105:
 1530              	.LBE281:
 1531              	.LBE280:
 1532              	.LBE279:
 1533              	.LBB282:
 1534              	.LBB283:
 1535              	.LBB284:
 1536              		.loc 4 288 0
 1537 0038 9B1A     		subs	r3, r3, r2
 1538              	.LVL106:
 1539              	.LBE284:
ARM GAS  /tmp/ccUdagvO.s 			page 28


 1540              	.LBE283:
 1541              	.LBE282:
 1542              		.loc 1 754 0
 1543 003a B3F5FA7F 		cmp	r3, #500
 1544 003e F2D3     		bcc	.L141
 1545              		.loc 1 766 0
 1546 0040 4FF0FF30 		mov	r0, #-1
 1547              	.LVL107:
 1548 0044 F0BC     		pop	{r4, r5, r6, r7}
 1549              		.cfi_remember_state
 1550              		.cfi_restore 7
 1551              		.cfi_restore 6
 1552              		.cfi_restore 5
 1553              		.cfi_restore 4
 1554              		.cfi_def_cfa_offset 0
 1555              	.LVL108:
 1556 0046 7047     		bx	lr
 1557              	.LVL109:
 1558              	.L137:
 1559              		.cfi_restore_state
 1560              		.loc 1 761 0
 1561 0048 6368     		ldr	r3, [r4, #4]
 1562 004a 43F40073 		orr	r3, r3, #512
 1563 004e 6360     		str	r3, [r4, #4]
 1564              	.LVL110:
 1565              		.loc 1 762 0
 1566 0050 2368     		ldr	r3, [r4]
 1567 0052 43F4A063 		orr	r3, r3, #1280
 1568 0056 2360     		str	r3, [r4]
 1569              	.LBB285:
 1570              	.LBB286:
 1571              		.loc 3 713 0
 1572 0058 1C30     		adds	r0, r0, #28
 1573              	.LVL111:
 1574              	.LBE286:
 1575              	.LBE285:
 1576              		.loc 1 766 0
 1577 005a F0BC     		pop	{r4, r5, r6, r7}
 1578              		.cfi_restore 7
 1579              		.cfi_restore 6
 1580              		.cfi_restore 5
 1581              		.cfi_restore 4
 1582              		.cfi_def_cfa_offset 0
 1583              	.LVL112:
 1584              	.LBB288:
 1585              	.LBB287:
 1586              		.loc 3 713 0
 1587 005c FFF7FEBF 		b	chThdSuspendTimeoutS
 1588              	.LVL113:
 1589              	.L143:
 1590              		.align	2
 1591              	.L142:
 1592 0060 00000000 		.word	ch
 1593              	.LBE287:
 1594              	.LBE288:
 1595              		.cfi_endproc
 1596              	.LFE270:
ARM GAS  /tmp/ccUdagvO.s 			page 29


 1597              		.size	i2c_lld_master_receive_timeout, .-i2c_lld_master_receive_timeout
 1598              		.section	.text.i2c_lld_master_transmit_timeout,"ax",%progbits
 1599              		.align	2
 1600              		.p2align 4,,15
 1601              		.global	i2c_lld_master_transmit_timeout
 1602              		.thumb
 1603              		.thumb_func
 1604              		.type	i2c_lld_master_transmit_timeout, %function
 1605              	i2c_lld_master_transmit_timeout:
 1606              	.LFB271:
 1607              		.loc 1 796 0
 1608              		.cfi_startproc
 1609              		@ args = 12, pretend = 0, frame = 0
 1610              		@ frame_needed = 0, uses_anonymous_args = 0
 1611              	.LVL114:
 1612 0000 2DE9F043 		push	{r4, r5, r6, r7, r8, r9, lr}
 1613              		.cfi_def_cfa_offset 28
 1614              		.cfi_offset 4, -28
 1615              		.cfi_offset 5, -24
 1616              		.cfi_offset 6, -20
 1617              		.cfi_offset 7, -16
 1618              		.cfi_offset 8, -12
 1619              		.cfi_offset 9, -8
 1620              		.cfi_offset 14, -4
 1621              		.loc 1 808 0
 1622 0004 4900     		lsls	r1, r1, #1
 1623              	.LVL115:
 1624              		.loc 1 805 0
 1625 0006 0024     		movs	r4, #0
 1626              		.loc 1 808 0
 1627 0008 0184     		strh	r1, [r0, #32]	@ movhi
 1628              		.loc 1 805 0
 1629 000a 8460     		str	r4, [r0, #8]
 1630              		.loc 1 796 0
 1631 000c 9446     		mov	ip, r2
 1632 000e 9846     		mov	r8, r3
 1633              		.loc 1 797 0
 1634 0010 446B     		ldr	r4, [r0, #52]
 1635              	.LVL116:
 1636              		.loc 1 796 0
 1637 0012 DDF81C90 		ldr	r9, [sp, #28]
 1638 0016 0899     		ldr	r1, [sp, #32]
 1639 0018 DDF824E0 		ldr	lr, [sp, #36]
 1640              	.LBB289:
 1641              	.LBB290:
 1642              	.LBB291:
 1643              	.LBB292:
 1644              	.LBB293:
 1645              	.LBB294:
 1646              		.loc 2 331 0
 1647              	@ 331 "ChibiOS_3.0.2/os/ext/CMSIS/include/core_cmFunc.h" 1
 1648 001c 62B6     		cpsie i
 1649              	@ 0 "" 2
 1650              		.thumb
 1651              	.LBE294:
 1652              	.LBE293:
 1653              	.LBE292:
ARM GAS  /tmp/ccUdagvO.s 			page 30


 1654              	.LBE291:
 1655              	.LBE290:
 1656              	.LBE289:
 1657              		.loc 1 814 0
 1658 001e 056B     		ldr	r5, [r0, #48]
 1659              		.loc 1 819 0
 1660 0020 C26A     		ldr	r2, [r0, #44]
 1661              	.LVL117:
 1662              		.loc 1 814 0
 1663 0022 2F68     		ldr	r7, [r5]
 1664              		.loc 1 819 0
 1665 0024 1668     		ldr	r6, [r2]
 1666              		.loc 1 814 0
 1667 0026 836A     		ldr	r3, [r0, #40]
 1668              	.LVL118:
 1669              		.loc 1 819 0
 1670 0028 426A     		ldr	r2, [r0, #36]
 1671              	.LBB295:
 1672              	.LBB296:
 1673              	.LBB297:
 1674              		.loc 4 231 0
 1675 002a 154D     		ldr	r5, .L151
 1676              	.LBE297:
 1677              	.LBE296:
 1678              	.LBE295:
 1679              		.loc 1 814 0
 1680 002c 3B60     		str	r3, [r7]
 1681              		.loc 1 815 0
 1682 002e C7F80CC0 		str	ip, [r7, #12]
 1683              		.loc 1 816 0
 1684 0032 C7F80480 		str	r8, [r7, #4]
 1685              		.loc 1 819 0
 1686 0036 3260     		str	r2, [r6]
 1687              		.loc 1 820 0
 1688 0038 C6F80C90 		str	r9, [r6, #12]
 1689              		.loc 1 821 0
 1690 003c 7160     		str	r1, [r6, #4]
 1691              	.LBB300:
 1692              	.LBB299:
 1693              	.LBB298:
 1694              		.loc 4 231 0
 1695 003e AA6A     		ldr	r2, [r5, #40]
 1696              	.LVL119:
 1697 0040 00E0     		b	.L148
 1698              	.LVL120:
 1699              	.L150:
 1700              	.LBE298:
 1701              	.LBE299:
 1702              	.LBE300:
 1703              	.LBB301:
 1704              	.LBB302:
 1705              	.LBB303:
 1706              	.LBB304:
 1707              	.LBB305:
 1708              	.LBB306:
 1709              		.loc 2 331 0
 1710              	@ 331 "ChibiOS_3.0.2/os/ext/CMSIS/include/core_cmFunc.h" 1
ARM GAS  /tmp/ccUdagvO.s 			page 31


 1711 0042 62B6     		cpsie i
 1712              	@ 0 "" 2
 1713              	.LVL121:
 1714              		.thumb
 1715              	.L148:
 1716              	.LBE306:
 1717              	.LBE305:
 1718              	.LBE304:
 1719              	.LBE303:
 1720              	.LBE302:
 1721              	.LBE301:
 1722              	.LBB307:
 1723              	.LBB308:
 1724              	.LBB309:
 1725              	.LBB310:
 1726              	.LBB311:
 1727              		.loc 2 342 0
 1728              	@ 342 "ChibiOS_3.0.2/os/ext/CMSIS/include/core_cmFunc.h" 1
 1729 0044 72B6     		cpsid i
 1730              	@ 0 "" 2
 1731              		.thumb
 1732              	.LBE311:
 1733              	.LBE310:
 1734              	.LBE309:
 1735              	.LBE308:
 1736              	.LBE307:
 1737              		.loc 1 834 0
 1738 0046 A369     		ldr	r3, [r4, #24]
 1739 0048 9907     		lsls	r1, r3, #30
 1740 004a 02D4     		bmi	.L145
 1741              		.loc 1 834 0 is_stmt 0 discriminator 1
 1742 004c 2368     		ldr	r3, [r4]
 1743 004e 9B05     		lsls	r3, r3, #22
 1744 0050 08D5     		bpl	.L146
 1745              	.L145:
 1746              	.LBB312:
 1747              	.LBB313:
 1748              	.LBB314:
 1749              		.loc 4 231 0 is_stmt 1
 1750 0052 AB6A     		ldr	r3, [r5, #40]
 1751              	.LVL122:
 1752              	.LBE314:
 1753              	.LBE313:
 1754              	.LBE312:
 1755              	.LBB315:
 1756              	.LBB316:
 1757              	.LBB317:
 1758              		.loc 4 288 0
 1759 0054 9B1A     		subs	r3, r3, r2
 1760              	.LVL123:
 1761              	.LBE317:
 1762              	.LBE316:
 1763              	.LBE315:
 1764              		.loc 1 839 0
 1765 0056 B3F5FA7F 		cmp	r3, #500
 1766 005a F2D3     		bcc	.L150
 1767              		.loc 1 851 0
ARM GAS  /tmp/ccUdagvO.s 			page 32


 1768 005c 4FF0FF30 		mov	r0, #-1
 1769              	.LVL124:
 1770 0060 BDE8F083 		pop	{r4, r5, r6, r7, r8, r9, pc}
 1771              	.LVL125:
 1772              	.L146:
 1773              		.loc 1 846 0
 1774 0064 6368     		ldr	r3, [r4, #4]
 1775 0066 43F40073 		orr	r3, r3, #512
 1776 006a 6360     		str	r3, [r4, #4]
 1777              		.loc 1 847 0
 1778 006c 2368     		ldr	r3, [r4]
 1779 006e 43F48073 		orr	r3, r3, #256
 1780              	.LBB318:
 1781              	.LBB319:
 1782              		.loc 3 713 0
 1783 0072 7146     		mov	r1, lr
 1784              	.LBE319:
 1785              	.LBE318:
 1786              		.loc 1 847 0
 1787 0074 2360     		str	r3, [r4]
 1788              	.LBB322:
 1789              	.LBB320:
 1790              		.loc 3 713 0
 1791 0076 1C30     		adds	r0, r0, #28
 1792              	.LVL126:
 1793              	.LBE320:
 1794              	.LBE322:
 1795              		.loc 1 851 0
 1796 0078 BDE8F043 		pop	{r4, r5, r6, r7, r8, r9, lr}
 1797              		.cfi_restore 14
 1798              		.cfi_restore 9
 1799              		.cfi_restore 8
 1800              		.cfi_restore 7
 1801              		.cfi_restore 6
 1802              		.cfi_restore 5
 1803              		.cfi_restore 4
 1804              		.cfi_def_cfa_offset 0
 1805              	.LVL127:
 1806              	.LBB323:
 1807              	.LBB321:
 1808              		.loc 3 713 0
 1809 007c FFF7FEBF 		b	chThdSuspendTimeoutS
 1810              	.LVL128:
 1811              	.L152:
 1812              		.align	2
 1813              	.L151:
 1814 0080 00000000 		.word	ch
 1815              	.LBE321:
 1816              	.LBE323:
 1817              		.cfi_endproc
 1818              	.LFE271:
 1819              		.size	i2c_lld_master_transmit_timeout, .-i2c_lld_master_transmit_timeout
 1820              		.global	I2CD2
 1821              		.global	I2CD1
 1822              		.section	.rodata.str1.4,"aMS",%progbits,1
 1823              		.align	2
 1824              	.LC0:
ARM GAS  /tmp/ccUdagvO.s 			page 33


 1825 0000 444D4120 		.ascii	"DMA failure\000"
 1825      6661696C 
 1825      75726500 
 1826              		.section	.bss.I2CD1,"aw",%nobits
 1827              		.align	2
 1828              		.set	.LANCHOR0,. + 0
 1829              		.type	I2CD1, %object
 1830              		.size	I2CD1, 56
 1831              	I2CD1:
 1832 0000 00000000 		.space	56
 1832      00000000 
 1832      00000000 
 1832      00000000 
 1832      00000000 
 1833              		.section	.bss.I2CD2,"aw",%nobits
 1834              		.align	2
 1835              		.set	.LANCHOR1,. + 0
 1836              		.type	I2CD2, %object
 1837              		.size	I2CD2, 56
 1838              	I2CD2:
 1839 0000 00000000 		.space	56
 1839      00000000 
 1839      00000000 
 1839      00000000 
 1839      00000000 
 1840              		.text
 1841              	.Letext0:
 1842              		.file 5 "/usr/lib/gcc/arm-none-eabi/4.9.3/include/stddef.h"
 1843              		.file 6 "/usr/arm-none-eabi/include/machine/_default_types.h"
 1844              		.file 7 "/usr/arm-none-eabi/include/sys/_stdint.h"
 1845              		.file 8 "ChibiOS_3.0.2/os/rt/ports/ARMCMx/compilers/GCC/chtypes.h"
 1846              		.file 9 "ChibiOS_3.0.2/os/rt/include/chsystypes.h"
 1847              		.file 10 "ChibiOS_3.0.2/os/rt/include/chschd.h"
 1848              		.file 11 "ChibiOS_3.0.2/os/ext/CMSIS/ST/stm32f407xx.h"
 1849              		.file 12 "ChibiOS_3.0.2/os/rt/ports/ARMCMx/chcore.h"
 1850              		.file 13 "ChibiOS_3.0.2/os/rt/ports/ARMCMx/chcore_v7m.h"
 1851              		.file 14 "ChibiOS_3.0.2/os/rt/include/chtm.h"
 1852              		.file 15 "ChibiOS_3.0.2/os/rt/include/chsem.h"
 1853              		.file 16 "ChibiOS_3.0.2/os/rt/include/chmtx.h"
 1854              		.file 17 "ChibiOS_3.0.2/os/hal/ports/STM32/STM32F4xx/stm32_dma.h"
 1855              		.file 18 "ChibiOS_3.0.2/os/hal/include/i2c.h"
 1856              		.file 19 "ChibiOS_3.0.2/os/hal/ports/STM32/LLD/I2Cv1/i2c_lld.h"
 1857              		.file 20 "ChibiOS_3.0.2/os/rt/include/chsys.h"
 1858              		.file 21 "ChibiOS_3.0.2/os/ext/CMSIS/include/core_cm4.h"
 1859              		.file 22 "ChibiOS_3.0.2/os/rt/include/chthreads.h"
 1860              		.file 23 "ChibiOS_3.0.2/os/hal/ports/common/ARMCMx/nvic.h"