ARM GAS  /tmp/ccFbuKoN.s 			page 1


   1              		.syntax unified
   2              		.cpu cortex-m4
   3              		.eabi_attribute 27, 1
   4              		.eabi_attribute 28, 1
   5              		.fpu fpv4-sp-d16
   6              		.eabi_attribute 20, 1
   7              		.eabi_attribute 21, 1
   8              		.eabi_attribute 23, 3
   9              		.eabi_attribute 24, 1
  10              		.eabi_attribute 25, 1
  11              		.eabi_attribute 26, 1
  12              		.eabi_attribute 30, 2
  13              		.eabi_attribute 34, 1
  14              		.eabi_attribute 18, 4
  15              		.thumb
  16              		.file	"led.c"
  17              		.text
  18              	.Ltext0:
  19              		.cfi_sections	.debug_frame
  20              		.section	.text.led_init,"ax",%progbits
  21              		.align	2
  22              		.p2align 4,,15
  23              		.global	led_init
  24              		.thumb
  25              		.thumb_func
  26              		.type	led_init, %function
  27              	led_init:
  28              	.LFB256:
  29              		.file 1 "led.c"
  30              		.loc 1 22 0
  31              		.cfi_startproc
  32              		@ args = 0, pretend = 0, frame = 0
  33              		@ frame_needed = 0, uses_anonymous_args = 0
  34 0000 10B5     		push	{r4, lr}
  35              		.cfi_def_cfa_offset 8
  36              		.cfi_offset 4, -8
  37              		.cfi_offset 14, -4
  38              		.loc 1 23 0
  39 0002 094C     		ldr	r4, .L3
  40 0004 0121     		movs	r1, #1
  41 0006 2046     		mov	r0, r4
  42 0008 1922     		movs	r2, #25
  43 000a FFF7FEFF 		bl	_pal_lld_setgroupmode
  44              	.LVL0:
  45              		.loc 1 26 0
  46 000e 1922     		movs	r2, #25
  47 0010 2046     		mov	r0, r4
  48 0012 0221     		movs	r1, #2
  49 0014 FFF7FEFF 		bl	_pal_lld_setgroupmode
  50              	.LVL1:
  51              	.LBB8:
  52              	.LBB9:
  53              		.loc 1 37 0
  54 0018 4FF48032 		mov	r2, #65536
  55              	.LBE9:
  56              	.LBE8:
  57              	.LBB11:
ARM GAS  /tmp/ccFbuKoN.s 			page 2


  58              	.LBB12:
  59              	.LBB13:
  60              		.loc 1 41 0
  61 001c 4FF40033 		mov	r3, #131072
  62              	.LBE13:
  63              	.LBE12:
  64              	.LBE11:
  65              	.LBB16:
  66              	.LBB10:
  67              		.loc 1 37 0
  68 0020 A261     		str	r2, [r4, #24]
  69              	.LVL2:
  70              	.LBE10:
  71              	.LBE16:
  72              	.LBB17:
  73              	.LBB15:
  74              	.LBB14:
  75              		.loc 1 41 0
  76 0022 A361     		str	r3, [r4, #24]
  77 0024 10BD     		pop	{r4, pc}
  78              	.L4:
  79 0026 00BF     		.align	2
  80              	.L3:
  81 0028 00100240 		.word	1073876992
  82              	.LBE14:
  83              	.LBE15:
  84              	.LBE17:
  85              		.cfi_endproc
  86              	.LFE256:
  87              		.size	led_init, .-led_init
  88              		.section	.text.led_write,"ax",%progbits
  89              		.align	2
  90              		.p2align 4,,15
  91              		.global	led_write
  92              		.thumb
  93              		.thumb_func
  94              		.type	led_write, %function
  95              	led_write:
  96              	.LFB257:
  97              		.loc 1 34 0
  98              		.cfi_startproc
  99              		@ args = 0, pretend = 0, frame = 0
 100              		@ frame_needed = 0, uses_anonymous_args = 0
 101              		@ link register save eliminated.
 102              	.LVL3:
 103              		.loc 1 35 0
 104 0000 68B1     		cbz	r0, .L7
 105 0002 0128     		cmp	r0, #1
 106 0004 0AD1     		bne	.L14
 107              	.LVL4:
 108              	.LBB20:
 109              	.LBB21:
 110              		.loc 1 41 0
 111 0006 11F00101 		ands	r1, r1, #1
 112              	.LVL5:
 113 000a 0CBF     		ite	eq
 114 000c 4FF40033 		moveq	r3, #131072
ARM GAS  /tmp/ccFbuKoN.s 			page 3


 115 0010 0023     		movne	r3, #0
 116 0012 084A     		ldr	r2, .L15
 117 0014 43EA4101 		orr	r1, r3, r1, lsl #1
 118 0018 9161     		str	r1, [r2, #24]
 119 001a 7047     		bx	lr
 120              	.LVL6:
 121              	.L14:
 122 001c 7047     		bx	lr
 123              	.L7:
 124              	.LBE21:
 125              	.LBE20:
 126              		.loc 1 37 0
 127 001e 11F00101 		ands	r1, r1, #1
 128              	.LVL7:
 129 0022 0CBF     		ite	eq
 130 0024 4FF48032 		moveq	r2, #65536
 131 0028 0022     		movne	r2, #0
 132 002a 024B     		ldr	r3, .L15
 133 002c 1143     		orrs	r1, r1, r2
 134 002e 9961     		str	r1, [r3, #24]
 135              		.loc 1 38 0
 136 0030 7047     		bx	lr
 137              	.L16:
 138 0032 00BF     		.align	2
 139              	.L15:
 140 0034 00100240 		.word	1073876992
 141              		.cfi_endproc
 142              	.LFE257:
 143              		.size	led_write, .-led_write
 144              		.section	.text.led_toggle,"ax",%progbits
 145              		.align	2
 146              		.p2align 4,,15
 147              		.global	led_toggle
 148              		.thumb
 149              		.thumb_func
 150              		.type	led_toggle, %function
 151              	led_toggle:
 152              	.LFB258:
 153              		.loc 1 49 0
 154              		.cfi_startproc
 155              		@ args = 0, pretend = 0, frame = 0
 156              		@ frame_needed = 0, uses_anonymous_args = 0
 157              		@ link register save eliminated.
 158              	.LVL8:
 159              		.loc 1 50 0
 160 0000 40B1     		cbz	r0, .L19
 161 0002 0128     		cmp	r0, #1
 162 0004 05D1     		bne	.L21
 163              		.loc 1 56 0
 164 0006 064A     		ldr	r2, .L22
 165 0008 5369     		ldr	r3, [r2, #20]
 166 000a 83F00203 		eor	r3, r3, #2
 167 000e 5361     		str	r3, [r2, #20]
 168 0010 7047     		bx	lr
 169              	.L21:
 170 0012 7047     		bx	lr
 171              	.L19:
ARM GAS  /tmp/ccFbuKoN.s 			page 4


 172              		.loc 1 52 0
 173 0014 024A     		ldr	r2, .L22
 174 0016 5369     		ldr	r3, [r2, #20]
 175 0018 83F00103 		eor	r3, r3, #1
 176 001c 5361     		str	r3, [r2, #20]
 177              		.loc 1 53 0
 178 001e 7047     		bx	lr
 179              	.L23:
 180              		.align	2
 181              	.L22:
 182 0020 00100240 		.word	1073876992
 183              		.cfi_endproc
 184              	.LFE258:
 185              		.size	led_toggle, .-led_toggle
 186              		.text
 187              	.Letext0:
 188              		.file 2 "/usr/arm-none-eabi/include/machine/_default_types.h"
 189              		.file 3 "/usr/arm-none-eabi/include/sys/_stdint.h"
 190              		.file 4 "ChibiOS_3.0.2/os/rt/ports/ARMCMx/compilers/GCC/chtypes.h"
 191              		.file 5 "ChibiOS_3.0.2/os/rt/include/chsystypes.h"
 192              		.file 6 "ChibiOS_3.0.2/os/rt/include/chschd.h"
 193              		.file 7 "ChibiOS_3.0.2/os/rt/ports/ARMCMx/chcore.h"
 194              		.file 8 "ChibiOS_3.0.2/os/rt/ports/ARMCMx/chcore_v7m.h"
 195              		.file 9 "ChibiOS_3.0.2/os/rt/include/chtm.h"
 196              		.file 10 "ChibiOS_3.0.2/os/rt/include/chsem.h"
 197              		.file 11 "ChibiOS_3.0.2/os/rt/include/chmtx.h"
 198              		.file 12 "ChibiOS_3.0.2/os/hal/ports/STM32/LLD/GPIOv2/pal_lld.h"
 199              		.file 13 "ChibiOS_3.0.2/os/ext/CMSIS/include/core_cm4.h"