ARM GAS  /tmp/ccFbuKoN.s 			page 1


   1              		.syntax unified
   2              		.cpu cortex-m4
   3              		.eabi_attribute 27, 1
   4              		.eabi_attribute 28, 1
   5              		.fpu fpv4-sp-d16
   6              		.eabi_attribute 20, 1
   7              		.eabi_attribute 21, 1
   8              		.eabi_attribute 23, 3
   9              		.eabi_attribute 24, 1
  10              		.eabi_attribute 25, 1
  11              		.eabi_attribute 26, 1
  12              		.eabi_attribute 30, 2
  13              		.eabi_attribute 34, 1
  14              		.eabi_attribute 18, 4
  15              		.thumb
  16              		.file	"led.c"
  17              		.text
  18              	.Ltext0:
  19              		.cfi_sections	.debug_frame
  20              		.section	.text.led_init,"ax",%progbits
  21              		.align	2
  22              		.p2align 4,,15
  23              		.global	led_init
  24              		.thumb
  25              		.thumb_func
  26              		.type	led_init, %function
  27              	led_init:
  28              	.LFB256:
  29              		.file 1 "led.c"
  30              		.loc 1 22 0
  31              		.cfi_startproc
  32              		@ args = 0, pretend = 0, frame = 0
  33              		@ frame_needed = 0, uses_anonymous_args = 0
  34 0000 10B5     		push	{r4, lr}
  35              		.cfi_def_cfa_offset 8
  36              		.cfi_offset 4, -8
  37              		.cfi_offset 14, -4
  38              		.loc 1 23 0
  39 0002 094C     		ldr	r4, .L3
  40 0004 0121     		movs	r1, #1
  41 0006 2046     		mov	r0, r4
  42 0008 1922     		movs	r2, #25
  43 000a FFF7FEFF 		bl	_pal_lld_setgroupmode
  44              	.LVL0:
  45              		.loc 1 26 0
  46 000e 1922     		movs	r2, #25
  47 0010 2046     		mov	r0, r4
  48 0012 0221     		movs	r1, #2
  49 0014 FFF7FEFF 		bl	_pal_lld_setgroupmode
  50              	.LVL1:
  51              	.LBB8:
  52              	.LBB9:
  53              		.loc 1 37 0
  54 0018 4FF48032 		mov	r2, #65536
  55              	.LBE9:
  56              	.LBE8:
  57              	.LBB11:
ARM GAS  /tmp/ccFbuKoN.s 			page 2


  58              	.LBB12:
  59              	.LBB13:
  60              		.loc 1 41 0
  61 001c 4FF40033 		mov	r3, #131072
  62              	.LBE13:
  63              	.LBE12:
  64              	.LBE11:
  65              	.LBB16:
  66              	.LBB10:
  67              		.loc 1 37 0
  68 0020 A261     		str	r2, [r4, #24]
  69              	.LVL2:
  70              	.LBE10:
  71              	.LBE16:
  72              	.LBB17:
  73              	.LBB15:
  74              	.LBB14:
  75              		.loc 1 41 0
  76 0022 A361     		str	r3, [r4, #24]
  77 0024 10BD     		pop	{r4, pc}
  78              	.L4:
  79 0026 00BF     		.align	2
  80              	.L3:
  81 0028 00100240 		.word	1073876992
  82              	.LBE14:
  83              	.LBE15:
  84              	.LBE17:
  85              		.cfi_endproc
  86              	.LFE256:
  87              		.size	led_init, .-led_init
  88              		.section	.text.led_write,"ax",%progbits
  89              		.align	2
  90              		.p2align 4,,15
  91              		.global	led_write
  92              		.thumb
  93              		.thumb_func
  94              		.type	led_write, %function
  95              	led_write:
  96              	.LFB257:
  97              		.loc 1 34 0
  98              		.cfi_startproc
  99              		@ args = 0, pretend = 0, frame = 0
 100              		@ frame_needed = 0, uses_anonymous_args = 0
 101              		@ link register save eliminated.
 102              	.LVL3:
 103              		.loc 1 35 0
 104 0000 68B1     		cbz	r0, .L7
 105 0002 0128     		cmp	r0, #1
 106 0004 0AD1     		bne	.L14
 107              	.LVL4:
 108              	.LBB20:
 109              	.LBB21:
 110              		.loc 1 41 0
 111 0006 11F00101 		ands	r1, r1, #1
 112              	.LVL5:
 113 000a 0CBF     		ite	eq
 114 000c 4FF40033 		moveq	r3, #131072
ARM GAS  /tmp/ccFbuKoN.s 			page 3


 115 0010 0023     		movne	r3, #0
 116 0012 084A     		ldr	r2, .L15
 117 0014 43EA4101 		orr	r1, r3, r1, lsl #1
 118 0018 9161     		str	r1, [r2, #24]
 119 001a 7047     		bx	lr
 120              	.LVL6:
 121              	.L14:
 122 001c 7047     		bx	lr
 123              	.L7:
 124              	.LBE21:
 125              	.LBE20:
 126              		.loc 1 37 0
 127 001e 11F00101 		ands	r1, r1, #1
 128              	.LVL7:
 129 0022 0CBF     		ite	eq
 130 0024 4FF48032 		moveq	r2, #65536
 131 0028 0022     		movne	r2, #0
 132 002a 024B     		ldr	r3, .L15
 133 002c 1143     		orrs	r1, r1, r2
 134 002e 9961     		str	r1, [r3, #24]
 135              		.loc 1 38 0
 136 0030 7047     		bx	lr
 137              	.L16:
 138 0032 00BF     		.align	2
 139              	.L15:
 140 0034 00100240 		.word	1073876992
 141              		.cfi_endproc
 142              	.LFE257:
 143              		.size	led_write, .-led_write
 144              		.section	.text.led_toggle,"ax",%progbits
 145              		.align	2
 146              		.p2align 4,,15
 147              		.global	led_toggle
 148              		.thumb
 149              		.thumb_func
 150              		.type	led_toggle, %function
 151              	led_toggle:
 152              	.LFB258:
 153              		.loc 1 49 0
 154              		.cfi_startproc
 155              		@ args = 0, pretend = 0, frame = 0
 156              		@ frame_needed = 0, uses_anonymous_args = 0
 157              		@ link register save eliminated.
 158              	.LVL8:
 159              		.loc 1 50 0
 160 0000 40B1     		cbz	r0, .L19
 161 0002 0128     		cmp	r0, #1
 162 0004 05D1     		bne	.L21
 163              		.loc 1 56 0
 164 0006 064A     		ldr	r2, .L22
 165 0008 5369     		ldr	r3, [r2, #20]
 166 000a 83F00203 		eor	r3, r3, #2
 167 000e 5361     		str	r3, [r2, #20]
 168 0010 7047     		bx	lr
 169              	.L21:
 170 0012 7047     		bx	lr
 171              	.L19:
ARM GAS  /tmp/ccFbuKoN.s 			page 4


 172              		.loc 1 52 0
 173 0014 024A     		ldr	r2, .L22
 174 0016 5369     		ldr	r3, [r2, #20]
 175 0018 83F00103 		eor	r3, r3, #1
 176 001c 5361     		str	r3, [r2, #20]
 177              		.loc 1 53 0
 178 001e 7047     		bx	lr
 179              	.L23:
 180              		.align	2
 181              	.L22:
 182 0020 00100240 		.word	1073876992
 183              		.cfi_endproc
 184              	.LFE258:
 185              		.size	led_toggle, .-led_toggle
 186              		.text
 187              	.Letext0:
 188              		.file 2 "/usr/arm-none-eabi/include/machine/_default_types.h"
 189              		.file 3 "/usr/arm-none-eabi/include/sys/_stdint.h"
 190              		.file 4 "ChibiOS_3.0.2/os/rt/ports/ARMCMx/compilers/GCC/chtypes.h"
 191              		.file 5 "ChibiOS_3.0.2/os/rt/include/chsystypes.h"
 192              		.file 6 "ChibiOS_3.0.2/os/rt/include/chschd.h"
 193              		.file 7 "ChibiOS_3.0.2/os/rt/ports/ARMCMx/chcore.h"
 194              		.file 8 "ChibiOS_3.0.2/os/rt/ports/ARMCMx/chcore_v7m.h"
 195              		.file 9 "ChibiOS_3.0.2/os/rt/include/chtm.h"
 196              		.file 10 "ChibiOS_3.0.2/os/rt/include/chsem.h"
 197              		.file 11 "ChibiOS_3.0.2/os/rt/include/chmtx.h"
 198              		.file 12 "ChibiOS_3.0.2/os/hal/ports/STM32/LLD/GPIOv2/pal_lld.h"
 199              		.file 13 "ChibiOS_3.0.2/os/ext/CMSIS/include/core_cm4.h"
 200              		.section	.debug_info,"",%progbits
 201              	.Ldebug_info0:
 202 0000 80090000 		.4byte	0x980
 203 0004 0400     		.2byte	0x4
 204 0006 00000000 		.4byte	.Ldebug_abbrev0
 205 000a 04       		.byte	0x4
 206 000b 01       		.uleb128 0x1
 207 000c 28040000 		.4byte	.LASF124
 208 0010 01       		.byte	0x1
 209 0011 0A020000 		.4byte	.LASF125
 210 0015 ED000000 		.4byte	.LASF126
 211 0019 30000000 		.4byte	.Ldebug_ranges0+0x30
 212 001d 00000000 		.4byte	0
 213 0021 00000000 		.4byte	.Ldebug_line0
 214 0025 02       		.uleb128 0x2
 215 0026 04       		.byte	0x4
 216 0027 05       		.byte	0x5
 217 0028 696E7400 		.ascii	"int\000"
 218 002c 03       		.uleb128 0x3
 219 002d 04       		.byte	0x4
 220 002e 07       		.byte	0x7
 221 002f C5010000 		.4byte	.LASF0
 222 0033 03       		.uleb128 0x3
 223 0034 01       		.byte	0x1
 224 0035 06       		.byte	0x6
 225 0036 DC000000 		.4byte	.LASF1
 226 003a 04       		.uleb128 0x4
 227 003b 23000000 		.4byte	.LASF4
 228 003f 02       		.byte	0x2
ARM GAS  /tmp/ccFbuKoN.s 			page 5


 229 0040 1D       		.byte	0x1d
 230 0041 45000000 		.4byte	0x45
 231 0045 03       		.uleb128 0x3
 232 0046 01       		.byte	0x1
 233 0047 08       		.byte	0x8
 234 0048 64030000 		.4byte	.LASF2
 235 004c 03       		.uleb128 0x3
 236 004d 02       		.byte	0x2
 237 004e 05       		.byte	0x5
 238 004f 7C030000 		.4byte	.LASF3
 239 0053 04       		.uleb128 0x4
 240 0054 1D040000 		.4byte	.LASF5
 241 0058 02       		.byte	0x2
 242 0059 2B       		.byte	0x2b
 243 005a 5E000000 		.4byte	0x5e
 244 005e 03       		.uleb128 0x3
 245 005f 02       		.byte	0x2
 246 0060 07       		.byte	0x7
 247 0061 16020000 		.4byte	.LASF6
 248 0065 04       		.uleb128 0x4
 249 0066 67020000 		.4byte	.LASF7
 250 006a 02       		.byte	0x2
 251 006b 3F       		.byte	0x3f
 252 006c 70000000 		.4byte	0x70
 253 0070 03       		.uleb128 0x3
 254 0071 04       		.byte	0x4
 255 0072 05       		.byte	0x5
 256 0073 58010000 		.4byte	.LASF8
 257 0077 04       		.uleb128 0x4
 258 0078 71050000 		.4byte	.LASF9
 259 007c 02       		.byte	0x2
 260 007d 41       		.byte	0x41
 261 007e 82000000 		.4byte	0x82
 262 0082 03       		.uleb128 0x3
 263 0083 04       		.byte	0x4
 264 0084 07       		.byte	0x7
 265 0085 06040000 		.4byte	.LASF10
 266 0089 03       		.uleb128 0x3
 267 008a 08       		.byte	0x8
 268 008b 05       		.byte	0x5
 269 008c CE000000 		.4byte	.LASF11
 270 0090 04       		.uleb128 0x4
 271 0091 0A030000 		.4byte	.LASF12
 272 0095 02       		.byte	0x2
 273 0096 5B       		.byte	0x5b
 274 0097 9B000000 		.4byte	0x9b
 275 009b 03       		.uleb128 0x3
 276 009c 08       		.byte	0x8
 277 009d 07       		.byte	0x7
 278 009e 62000000 		.4byte	.LASF13
 279 00a2 04       		.uleb128 0x4
 280 00a3 F4050000 		.4byte	.LASF14
 281 00a7 03       		.byte	0x3
 282 00a8 14       		.byte	0x14
 283 00a9 3A000000 		.4byte	0x3a
 284 00ad 04       		.uleb128 0x4
 285 00ae DA010000 		.4byte	.LASF15
ARM GAS  /tmp/ccFbuKoN.s 			page 6


 286 00b2 03       		.byte	0x3
 287 00b3 1A       		.byte	0x1a
 288 00b4 53000000 		.4byte	0x53
 289 00b8 04       		.uleb128 0x4
 290 00b9 5C030000 		.4byte	.LASF16
 291 00bd 03       		.byte	0x3
 292 00be 1F       		.byte	0x1f
 293 00bf 65000000 		.4byte	0x65
 294 00c3 04       		.uleb128 0x4
 295 00c4 DE030000 		.4byte	.LASF17
 296 00c8 03       		.byte	0x3
 297 00c9 20       		.byte	0x20
 298 00ca 77000000 		.4byte	0x77
 299 00ce 04       		.uleb128 0x4
 300 00cf 1A000000 		.4byte	.LASF18
 301 00d3 03       		.byte	0x3
 302 00d4 26       		.byte	0x26
 303 00d5 90000000 		.4byte	0x90
 304 00d9 05       		.uleb128 0x5
 305 00da B8000000 		.4byte	0xb8
 306 00de 05       		.uleb128 0x5
 307 00df C3000000 		.4byte	0xc3
 308 00e3 04       		.uleb128 0x4
 309 00e4 B6050000 		.4byte	.LASF19
 310 00e8 04       		.byte	0x4
 311 00e9 45       		.byte	0x45
 312 00ea C3000000 		.4byte	0xc3
 313 00ee 04       		.uleb128 0x4
 314 00ef 45020000 		.4byte	.LASF20
 315 00f3 04       		.byte	0x4
 316 00f4 48       		.byte	0x48
 317 00f5 A2000000 		.4byte	0xa2
 318 00f9 04       		.uleb128 0x4
 319 00fa 61010000 		.4byte	.LASF21
 320 00fe 04       		.byte	0x4
 321 00ff 49       		.byte	0x49
 322 0100 A2000000 		.4byte	0xa2
 323 0104 04       		.uleb128 0x4
 324 0105 1F030000 		.4byte	.LASF22
 325 0109 04       		.byte	0x4
 326 010a 4A       		.byte	0x4a
 327 010b A2000000 		.4byte	0xa2
 328 010f 04       		.uleb128 0x4
 329 0110 3E010000 		.4byte	.LASF23
 330 0114 04       		.byte	0x4
 331 0115 4B       		.byte	0x4b
 332 0116 A2000000 		.4byte	0xa2
 333 011a 04       		.uleb128 0x4
 334 011b 3E030000 		.4byte	.LASF24
 335 011f 04       		.byte	0x4
 336 0120 4C       		.byte	0x4c
 337 0121 C3000000 		.4byte	0xc3
 338 0125 04       		.uleb128 0x4
 339 0126 33020000 		.4byte	.LASF25
 340 012a 04       		.byte	0x4
 341 012b 4D       		.byte	0x4d
 342 012c B8000000 		.4byte	0xb8
ARM GAS  /tmp/ccFbuKoN.s 			page 7


 343 0130 04       		.uleb128 0x4
 344 0131 5B020000 		.4byte	.LASF26
 345 0135 04       		.byte	0x4
 346 0136 4F       		.byte	0x4f
 347 0137 C3000000 		.4byte	0xc3
 348 013b 04       		.uleb128 0x4
 349 013c BF010000 		.4byte	.LASF27
 350 0140 04       		.byte	0x4
 351 0141 51       		.byte	0x51
 352 0142 B8000000 		.4byte	0xb8
 353 0146 04       		.uleb128 0x4
 354 0147 53050000 		.4byte	.LASF28
 355 014b 05       		.byte	0x5
 356 014c 33       		.byte	0x33
 357 014d C3000000 		.4byte	0xc3
 358 0151 04       		.uleb128 0x4
 359 0152 E5050000 		.4byte	.LASF29
 360 0156 05       		.byte	0x5
 361 0157 3F       		.byte	0x3f
 362 0158 5C010000 		.4byte	0x15c
 363 015c 06       		.uleb128 0x6
 364 015d 29020000 		.4byte	.LASF51
 365 0161 48       		.byte	0x48
 366 0162 06       		.byte	0x6
 367 0163 C2       		.byte	0xc2
 368 0164 61020000 		.4byte	0x261
 369 0168 07       		.uleb128 0x7
 370 0169 A6030000 		.4byte	.LASF30
 371 016d 06       		.byte	0x6
 372 016e C3       		.byte	0xc3
 373 016f 6C020000 		.4byte	0x26c
 374 0173 00       		.byte	0
 375 0174 07       		.uleb128 0x7
 376 0175 37030000 		.4byte	.LASF31
 377 0179 06       		.byte	0x6
 378 017a C5       		.byte	0xc5
 379 017b 6C020000 		.4byte	0x26c
 380 017f 04       		.byte	0x4
 381 0180 07       		.uleb128 0x7
 382 0181 C7000000 		.4byte	.LASF32
 383 0185 06       		.byte	0x6
 384 0186 C7       		.byte	0xc7
 385 0187 1A010000 		.4byte	0x11a
 386 018b 08       		.byte	0x8
 387 018c 07       		.uleb128 0x7
 388 018d 36060000 		.4byte	.LASF33
 389 0191 06       		.byte	0x6
 390 0192 C8       		.byte	0xc8
 391 0193 9C040000 		.4byte	0x49c
 392 0197 0C       		.byte	0xc
 393 0198 07       		.uleb128 0x7
 394 0199 6A010000 		.4byte	.LASF34
 395 019d 06       		.byte	0x6
 396 019e CA       		.byte	0xca
 397 019f 6C020000 		.4byte	0x26c
 398 01a3 10       		.byte	0x10
 399 01a4 07       		.uleb128 0x7
ARM GAS  /tmp/ccFbuKoN.s 			page 8


 400 01a5 CE020000 		.4byte	.LASF35
 401 01a9 06       		.byte	0x6
 402 01aa CB       		.byte	0xcb
 403 01ab 6C020000 		.4byte	0x26c
 404 01af 14       		.byte	0x14
 405 01b0 07       		.uleb128 0x7
 406 01b1 0D060000 		.4byte	.LASF36
 407 01b5 06       		.byte	0x6
 408 01b6 D2       		.byte	0xd2
 409 01b7 E1060000 		.4byte	0x6e1
 410 01bb 18       		.byte	0x18
 411 01bc 07       		.uleb128 0x7
 412 01bd 86030000 		.4byte	.LASF37
 413 01c1 06       		.byte	0x6
 414 01c2 DD       		.byte	0xdd
 415 01c3 F9000000 		.4byte	0xf9
 416 01c7 1C       		.byte	0x1c
 417 01c8 07       		.uleb128 0x7
 418 01c9 AD030000 		.4byte	.LASF38
 419 01cd 06       		.byte	0x6
 420 01ce E1       		.byte	0xe1
 421 01cf EE000000 		.4byte	0xee
 422 01d3 1D       		.byte	0x1d
 423 01d4 07       		.uleb128 0x7
 424 01d5 DE050000 		.4byte	.LASF39
 425 01d9 06       		.byte	0x6
 426 01da E6       		.byte	0xe6
 427 01db 04010000 		.4byte	0x104
 428 01df 1E       		.byte	0x1e
 429 01e0 07       		.uleb128 0x7
 430 01e1 8E030000 		.4byte	.LASF40
 431 01e5 06       		.byte	0x6
 432 01e6 EC       		.byte	0xec
 433 01e7 0F010000 		.4byte	0x10f
 434 01eb 1F       		.byte	0x1f
 435 01ec 07       		.uleb128 0x7
 436 01ed E3010000 		.4byte	.LASF41
 437 01f1 06       		.byte	0x6
 438 01f2 F3       		.byte	0xf3
 439 01f3 F3060000 		.4byte	0x6f3
 440 01f7 20       		.byte	0x20
 441 01f8 08       		.uleb128 0x8
 442 01f9 705F7500 		.ascii	"p_u\000"
 443 01fd 06       		.byte	0x6
 444 01fe 3101     		.2byte	0x131
 445 0200 1C060000 		.4byte	0x61c
 446 0204 24       		.byte	0x24
 447 0205 09       		.uleb128 0x9
 448 0206 8B020000 		.4byte	.LASF42
 449 020a 06       		.byte	0x6
 450 020b 3601     		.2byte	0x136
 451 020d 72020000 		.4byte	0x272
 452 0211 28       		.byte	0x28
 453 0212 09       		.uleb128 0x9
 454 0213 FA010000 		.4byte	.LASF43
 455 0217 06       		.byte	0x6
 456 0218 3C01     		.2byte	0x13c
ARM GAS  /tmp/ccFbuKoN.s 			page 9


 457 021a 96020000 		.4byte	0x296
 458 021e 2C       		.byte	0x2c
 459 021f 09       		.uleb128 0x9
 460 0220 1F060000 		.4byte	.LASF44
 461 0224 06       		.byte	0x6
 462 0225 4001     		.2byte	0x140
 463 0227 25010000 		.4byte	0x125
 464 022b 34       		.byte	0x34
 465 022c 09       		.uleb128 0x9
 466 022d D3030000 		.4byte	.LASF45
 467 0231 06       		.byte	0x6
 468 0232 4601     		.2byte	0x146
 469 0234 30010000 		.4byte	0x130
 470 0238 38       		.byte	0x38
 471 0239 09       		.uleb128 0x9
 472 023a 72030000 		.4byte	.LASF46
 473 023e 06       		.byte	0x6
 474 023f 4D01     		.2byte	0x14d
 475 0241 DB060000 		.4byte	0x6db
 476 0245 3C       		.byte	0x3c
 477 0246 09       		.uleb128 0x9
 478 0247 5D050000 		.4byte	.LASF47
 479 024b 06       		.byte	0x6
 480 024c 5101     		.2byte	0x151
 481 024e 1A010000 		.4byte	0x11a
 482 0252 40       		.byte	0x40
 483 0253 09       		.uleb128 0x9
 484 0254 27010000 		.4byte	.LASF48
 485 0258 06       		.byte	0x6
 486 0259 5801     		.2byte	0x158
 487 025b 49030000 		.4byte	0x349
 488 025f 44       		.byte	0x44
 489 0260 00       		.byte	0
 490 0261 04       		.uleb128 0x4
 491 0262 9E020000 		.4byte	.LASF49
 492 0266 05       		.byte	0x5
 493 0267 44       		.byte	0x44
 494 0268 6C020000 		.4byte	0x26c
 495 026c 0A       		.uleb128 0xa
 496 026d 04       		.byte	0x4
 497 026e 51010000 		.4byte	0x151
 498 0272 04       		.uleb128 0x4
 499 0273 7C020000 		.4byte	.LASF50
 500 0277 05       		.byte	0x5
 501 0278 49       		.byte	0x49
 502 0279 7D020000 		.4byte	0x27d
 503 027d 06       		.uleb128 0x6
 504 027e F6030000 		.4byte	.LASF52
 505 0282 04       		.byte	0x4
 506 0283 06       		.byte	0x6
 507 0284 B0       		.byte	0xb0
 508 0285 96020000 		.4byte	0x296
 509 0289 07       		.uleb128 0x7
 510 028a A6030000 		.4byte	.LASF30
 511 028e 06       		.byte	0x6
 512 028f B1       		.byte	0xb1
 513 0290 6C020000 		.4byte	0x26c
ARM GAS  /tmp/ccFbuKoN.s 			page 10


 514 0294 00       		.byte	0
 515 0295 00       		.byte	0
 516 0296 04       		.uleb128 0x4
 517 0297 C5050000 		.4byte	.LASF53
 518 029b 05       		.byte	0x5
 519 029c 50       		.byte	0x50
 520 029d A1020000 		.4byte	0x2a1
 521 02a1 06       		.uleb128 0x6
 522 02a2 B6000000 		.4byte	.LASF54
 523 02a6 08       		.byte	0x8
 524 02a7 06       		.byte	0x6
 525 02a8 B7       		.byte	0xb7
 526 02a9 C6020000 		.4byte	0x2c6
 527 02ad 07       		.uleb128 0x7
 528 02ae A6030000 		.4byte	.LASF30
 529 02b2 06       		.byte	0x6
 530 02b3 B8       		.byte	0xb8
 531 02b4 6C020000 		.4byte	0x26c
 532 02b8 00       		.byte	0
 533 02b9 07       		.uleb128 0x7
 534 02ba 37030000 		.4byte	.LASF31
 535 02be 06       		.byte	0x6
 536 02bf B9       		.byte	0xb9
 537 02c0 6C020000 		.4byte	0x26c
 538 02c4 04       		.byte	0x4
 539 02c5 00       		.byte	0
 540 02c6 04       		.uleb128 0x4
 541 02c7 00000000 		.4byte	.LASF55
 542 02cb 05       		.byte	0x5
 543 02cc 57       		.byte	0x57
 544 02cd D1020000 		.4byte	0x2d1
 545 02d1 0B       		.uleb128 0xb
 546 02d2 4D020000 		.4byte	.LASF56
 547 02d6 1C       		.byte	0x1c
 548 02d7 06       		.byte	0x6
 549 02d8 9001     		.2byte	0x190
 550 02da 2D030000 		.4byte	0x32d
 551 02de 09       		.uleb128 0x9
 552 02df EE030000 		.4byte	.LASF57
 553 02e3 06       		.byte	0x6
 554 02e4 9101     		.2byte	0x191
 555 02e6 96020000 		.4byte	0x296
 556 02ea 00       		.byte	0
 557 02eb 09       		.uleb128 0x9
 558 02ec 98030000 		.4byte	.LASF58
 559 02f0 06       		.byte	0x6
 560 02f1 9201     		.2byte	0x192
 561 02f3 1A010000 		.4byte	0x11a
 562 02f7 08       		.byte	0x8
 563 02f8 09       		.uleb128 0x9
 564 02f9 D6020000 		.4byte	.LASF59
 565 02fd 06       		.byte	0x6
 566 02fe 9401     		.2byte	0x194
 567 0300 9C040000 		.4byte	0x49c
 568 0304 0C       		.byte	0xc
 569 0305 09       		.uleb128 0x9
 570 0306 82010000 		.4byte	.LASF60
ARM GAS  /tmp/ccFbuKoN.s 			page 11


 571 030a 06       		.byte	0x6
 572 030b 9701     		.2byte	0x197
 573 030d 6C020000 		.4byte	0x26c
 574 0311 10       		.byte	0x10
 575 0312 09       		.uleb128 0x9
 576 0313 F7020000 		.4byte	.LASF61
 577 0317 06       		.byte	0x6
 578 0318 9801     		.2byte	0x198
 579 031a 6C020000 		.4byte	0x26c
 580 031e 14       		.byte	0x14
 581 031f 09       		.uleb128 0x9
 582 0320 ED020000 		.4byte	.LASF62
 583 0324 06       		.byte	0x6
 584 0325 9B01     		.2byte	0x19b
 585 0327 6C020000 		.4byte	0x26c
 586 032b 18       		.byte	0x18
 587 032c 00       		.byte	0
 588 032d 04       		.uleb128 0x4
 589 032e 68050000 		.4byte	.LASF63
 590 0332 05       		.byte	0x5
 591 0333 5C       		.byte	0x5c
 592 0334 38030000 		.4byte	0x338
 593 0338 0A       		.uleb128 0xa
 594 0339 04       		.byte	0x4
 595 033a 3E030000 		.4byte	0x33e
 596 033e 0C       		.uleb128 0xc
 597 033f 49030000 		.4byte	0x349
 598 0343 0D       		.uleb128 0xd
 599 0344 49030000 		.4byte	0x349
 600 0348 00       		.byte	0
 601 0349 0E       		.uleb128 0xe
 602 034a 04       		.byte	0x4
 603 034b 04       		.uleb128 0x4
 604 034c 27030000 		.4byte	.LASF64
 605 0350 05       		.byte	0x5
 606 0351 61       		.byte	0x61
 607 0352 56030000 		.4byte	0x356
 608 0356 0B       		.uleb128 0xb
 609 0357 B5030000 		.4byte	.LASF65
 610 035b 14       		.byte	0x14
 611 035c 06       		.byte	0x6
 612 035d 6B01     		.2byte	0x16b
 613 035f A5030000 		.4byte	0x3a5
 614 0363 09       		.uleb128 0x9
 615 0364 D2010000 		.4byte	.LASF66
 616 0368 06       		.byte	0x6
 617 0369 6C01     		.2byte	0x16c
 618 036b F8060000 		.4byte	0x6f8
 619 036f 00       		.byte	0
 620 0370 09       		.uleb128 0x9
 621 0371 93010000 		.4byte	.LASF67
 622 0375 06       		.byte	0x6
 623 0376 6D01     		.2byte	0x16d
 624 0378 F8060000 		.4byte	0x6f8
 625 037c 04       		.byte	0x4
 626 037d 09       		.uleb128 0x9
 627 037e F1010000 		.4byte	.LASF68
ARM GAS  /tmp/ccFbuKoN.s 			page 12


 628 0382 06       		.byte	0x6
 629 0383 6E01     		.2byte	0x16e
 630 0385 46010000 		.4byte	0x146
 631 0389 08       		.byte	0x8
 632 038a 09       		.uleb128 0x9
 633 038b 3C060000 		.4byte	.LASF69
 634 038f 06       		.byte	0x6
 635 0390 6F01     		.2byte	0x16f
 636 0392 2D030000 		.4byte	0x32d
 637 0396 0C       		.byte	0xc
 638 0397 09       		.uleb128 0x9
 639 0398 BE050000 		.4byte	.LASF70
 640 039c 06       		.byte	0x6
 641 039d 7101     		.2byte	0x171
 642 039f 49030000 		.4byte	0x349
 643 03a3 10       		.byte	0x10
 644 03a4 00       		.byte	0
 645 03a5 04       		.uleb128 0x4
 646 03a6 93000000 		.4byte	.LASF71
 647 03aa 05       		.byte	0x5
 648 03ab 66       		.byte	0x66
 649 03ac B0030000 		.4byte	0x3b0
 650 03b0 0B       		.uleb128 0xb
 651 03b1 B1020000 		.4byte	.LASF72
 652 03b5 10       		.byte	0x10
 653 03b6 06       		.byte	0x6
 654 03b7 7B01     		.2byte	0x17b
 655 03b9 F2030000 		.4byte	0x3f2
 656 03bd 09       		.uleb128 0x9
 657 03be D2010000 		.4byte	.LASF66
 658 03c2 06       		.byte	0x6
 659 03c3 7C01     		.2byte	0x17c
 660 03c5 F8060000 		.4byte	0x6f8
 661 03c9 00       		.byte	0
 662 03ca 09       		.uleb128 0x9
 663 03cb 93010000 		.4byte	.LASF67
 664 03cf 06       		.byte	0x6
 665 03d0 7E01     		.2byte	0x17e
 666 03d2 F8060000 		.4byte	0x6f8
 667 03d6 04       		.byte	0x4
 668 03d7 09       		.uleb128 0x9
 669 03d8 F1010000 		.4byte	.LASF68
 670 03dc 06       		.byte	0x6
 671 03dd 8001     		.2byte	0x180
 672 03df 46010000 		.4byte	0x146
 673 03e3 08       		.byte	0x8
 674 03e4 09       		.uleb128 0x9
 675 03e5 14060000 		.4byte	.LASF73
 676 03e9 06       		.byte	0x6
 677 03ea 8201     		.2byte	0x182
 678 03ec F3060000 		.4byte	0x6f3
 679 03f0 0C       		.byte	0xc
 680 03f1 00       		.byte	0
 681 03f2 04       		.uleb128 0x4
 682 03f3 40000000 		.4byte	.LASF74
 683 03f7 05       		.byte	0x5
 684 03f8 6B       		.byte	0x6b
ARM GAS  /tmp/ccFbuKoN.s 			page 13


 685 03f9 FD030000 		.4byte	0x3fd
 686 03fd 0B       		.uleb128 0xb
 687 03fe 46030000 		.4byte	.LASF75
 688 0402 04       		.byte	0x4
 689 0403 06       		.byte	0x6
 690 0404 A201     		.2byte	0x1a2
 691 0406 18040000 		.4byte	0x418
 692 040a 09       		.uleb128 0x9
 693 040b 7C050000 		.4byte	.LASF76
 694 040f 06       		.byte	0x6
 695 0410 AA01     		.2byte	0x1aa
 696 0412 FE060000 		.4byte	0x6fe
 697 0416 00       		.byte	0
 698 0417 00       		.byte	0
 699 0418 04       		.uleb128 0x4
 700 0419 39020000 		.4byte	.LASF77
 701 041d 05       		.byte	0x5
 702 041e 70       		.byte	0x70
 703 041f 23040000 		.4byte	0x423
 704 0423 0F       		.uleb128 0xf
 705 0424 4E010000 		.4byte	.LASF78
 706 0428 5802     		.2byte	0x258
 707 042a 06       		.byte	0x6
 708 042b C201     		.2byte	0x1c2
 709 042d 7F040000 		.4byte	0x47f
 710 0431 09       		.uleb128 0x9
 711 0432 EE050000 		.4byte	.LASF79
 712 0436 06       		.byte	0x6
 713 0437 C601     		.2byte	0x1c6
 714 0439 C6020000 		.4byte	0x2c6
 715 043d 00       		.byte	0
 716 043e 09       		.uleb128 0x9
 717 043f 37010000 		.4byte	.LASF80
 718 0443 06       		.byte	0x6
 719 0444 CA01     		.2byte	0x1ca
 720 0446 A5030000 		.4byte	0x3a5
 721 044a 1C       		.byte	0x1c
 722 044b 08       		.uleb128 0x8
 723 044c 64626700 		.ascii	"dbg\000"
 724 0450 06       		.byte	0x6
 725 0451 CE01     		.2byte	0x1ce
 726 0453 F2030000 		.4byte	0x3f2
 727 0457 2C       		.byte	0x2c
 728 0458 09       		.uleb128 0x9
 729 0459 88000000 		.4byte	.LASF81
 730 045d 06       		.byte	0x6
 731 045e D201     		.2byte	0x1d2
 732 0460 51010000 		.4byte	0x151
 733 0464 30       		.byte	0x30
 734 0465 08       		.uleb128 0x8
 735 0466 746D00   		.ascii	"tm\000"
 736 0469 06       		.byte	0x6
 737 046a D701     		.2byte	0x1d7
 738 046c 11060000 		.4byte	0x611
 739 0470 78       		.byte	0x78
 740 0471 09       		.uleb128 0x9
 741 0472 B0010000 		.4byte	.LASF82
ARM GAS  /tmp/ccFbuKoN.s 			page 14


 742 0476 06       		.byte	0x6
 743 0477 E301     		.2byte	0x1e3
 744 0479 03070000 		.4byte	0x703
 745 047d 80       		.byte	0x80
 746 047e 00       		.byte	0
 747 047f 03       		.uleb128 0x3
 748 0480 04       		.byte	0x4
 749 0481 07       		.byte	0x7
 750 0482 95020000 		.4byte	.LASF83
 751 0486 04       		.uleb128 0x4
 752 0487 8A010000 		.4byte	.LASF84
 753 048b 07       		.byte	0x7
 754 048c 65       		.byte	0x65
 755 048d 49030000 		.4byte	0x349
 756 0491 04       		.uleb128 0x4
 757 0492 71020000 		.4byte	.LASF85
 758 0496 07       		.byte	0x7
 759 0497 6D       		.byte	0x6d
 760 0498 CE000000 		.4byte	0xce
 761 049c 06       		.uleb128 0x6
 762 049d 98050000 		.4byte	.LASF86
 763 04a1 04       		.byte	0x4
 764 04a2 07       		.byte	0x7
 765 04a3 89       		.byte	0x89
 766 04a4 B5040000 		.4byte	0x4b5
 767 04a8 10       		.uleb128 0x10
 768 04a9 72313300 		.ascii	"r13\000"
 769 04ad 07       		.byte	0x7
 770 04ae 8A       		.byte	0x8a
 771 04af F6050000 		.4byte	0x5f6
 772 04b3 00       		.byte	0
 773 04b4 00       		.byte	0
 774 04b5 06       		.uleb128 0x6
 775 04b6 34000000 		.4byte	.LASF87
 776 04ba 64       		.byte	0x64
 777 04bb 08       		.byte	0x8
 778 04bc F4       		.byte	0xf4
 779 04bd F6050000 		.4byte	0x5f6
 780 04c1 10       		.uleb128 0x10
 781 04c2 73313600 		.ascii	"s16\000"
 782 04c6 08       		.byte	0x8
 783 04c7 F6       		.byte	0xf6
 784 04c8 86040000 		.4byte	0x486
 785 04cc 00       		.byte	0
 786 04cd 10       		.uleb128 0x10
 787 04ce 73313700 		.ascii	"s17\000"
 788 04d2 08       		.byte	0x8
 789 04d3 F7       		.byte	0xf7
 790 04d4 86040000 		.4byte	0x486
 791 04d8 04       		.byte	0x4
 792 04d9 10       		.uleb128 0x10
 793 04da 73313800 		.ascii	"s18\000"
 794 04de 08       		.byte	0x8
 795 04df F8       		.byte	0xf8
 796 04e0 86040000 		.4byte	0x486
 797 04e4 08       		.byte	0x8
 798 04e5 10       		.uleb128 0x10
ARM GAS  /tmp/ccFbuKoN.s 			page 15


 799 04e6 73313900 		.ascii	"s19\000"
 800 04ea 08       		.byte	0x8
 801 04eb F9       		.byte	0xf9
 802 04ec 86040000 		.4byte	0x486
 803 04f0 0C       		.byte	0xc
 804 04f1 10       		.uleb128 0x10
 805 04f2 73323000 		.ascii	"s20\000"
 806 04f6 08       		.byte	0x8
 807 04f7 FA       		.byte	0xfa
 808 04f8 86040000 		.4byte	0x486
 809 04fc 10       		.byte	0x10
 810 04fd 10       		.uleb128 0x10
 811 04fe 73323100 		.ascii	"s21\000"
 812 0502 08       		.byte	0x8
 813 0503 FB       		.byte	0xfb
 814 0504 86040000 		.4byte	0x486
 815 0508 14       		.byte	0x14
 816 0509 10       		.uleb128 0x10
 817 050a 73323200 		.ascii	"s22\000"
 818 050e 08       		.byte	0x8
 819 050f FC       		.byte	0xfc
 820 0510 86040000 		.4byte	0x486
 821 0514 18       		.byte	0x18
 822 0515 10       		.uleb128 0x10
 823 0516 73323300 		.ascii	"s23\000"
 824 051a 08       		.byte	0x8
 825 051b FD       		.byte	0xfd
 826 051c 86040000 		.4byte	0x486
 827 0520 1C       		.byte	0x1c
 828 0521 10       		.uleb128 0x10
 829 0522 73323400 		.ascii	"s24\000"
 830 0526 08       		.byte	0x8
 831 0527 FE       		.byte	0xfe
 832 0528 86040000 		.4byte	0x486
 833 052c 20       		.byte	0x20
 834 052d 10       		.uleb128 0x10
 835 052e 73323500 		.ascii	"s25\000"
 836 0532 08       		.byte	0x8
 837 0533 FF       		.byte	0xff
 838 0534 86040000 		.4byte	0x486
 839 0538 24       		.byte	0x24
 840 0539 08       		.uleb128 0x8
 841 053a 73323600 		.ascii	"s26\000"
 842 053e 08       		.byte	0x8
 843 053f 0001     		.2byte	0x100
 844 0541 86040000 		.4byte	0x486
 845 0545 28       		.byte	0x28
 846 0546 08       		.uleb128 0x8
 847 0547 73323700 		.ascii	"s27\000"
 848 054b 08       		.byte	0x8
 849 054c 0101     		.2byte	0x101
 850 054e 86040000 		.4byte	0x486
 851 0552 2C       		.byte	0x2c
 852 0553 08       		.uleb128 0x8
 853 0554 73323800 		.ascii	"s28\000"
 854 0558 08       		.byte	0x8
 855 0559 0201     		.2byte	0x102
ARM GAS  /tmp/ccFbuKoN.s 			page 16


 856 055b 86040000 		.4byte	0x486
 857 055f 30       		.byte	0x30
 858 0560 08       		.uleb128 0x8
 859 0561 73323900 		.ascii	"s29\000"
 860 0565 08       		.byte	0x8
 861 0566 0301     		.2byte	0x103
 862 0568 86040000 		.4byte	0x486
 863 056c 34       		.byte	0x34
 864 056d 08       		.uleb128 0x8
 865 056e 73333000 		.ascii	"s30\000"
 866 0572 08       		.byte	0x8
 867 0573 0401     		.2byte	0x104
 868 0575 86040000 		.4byte	0x486
 869 0579 38       		.byte	0x38
 870 057a 08       		.uleb128 0x8
 871 057b 73333100 		.ascii	"s31\000"
 872 057f 08       		.byte	0x8
 873 0580 0501     		.2byte	0x105
 874 0582 86040000 		.4byte	0x486
 875 0586 3C       		.byte	0x3c
 876 0587 08       		.uleb128 0x8
 877 0588 723400   		.ascii	"r4\000"
 878 058b 08       		.byte	0x8
 879 058c 0701     		.2byte	0x107
 880 058e 86040000 		.4byte	0x486
 881 0592 40       		.byte	0x40
 882 0593 08       		.uleb128 0x8
 883 0594 723500   		.ascii	"r5\000"
 884 0597 08       		.byte	0x8
 885 0598 0801     		.2byte	0x108
 886 059a 86040000 		.4byte	0x486
 887 059e 44       		.byte	0x44
 888 059f 08       		.uleb128 0x8
 889 05a0 723600   		.ascii	"r6\000"
 890 05a3 08       		.byte	0x8
 891 05a4 0901     		.2byte	0x109
 892 05a6 86040000 		.4byte	0x486
 893 05aa 48       		.byte	0x48
 894 05ab 08       		.uleb128 0x8
 895 05ac 723700   		.ascii	"r7\000"
 896 05af 08       		.byte	0x8
 897 05b0 0A01     		.2byte	0x10a
 898 05b2 86040000 		.4byte	0x486
 899 05b6 4C       		.byte	0x4c
 900 05b7 08       		.uleb128 0x8
 901 05b8 723800   		.ascii	"r8\000"
 902 05bb 08       		.byte	0x8
 903 05bc 0B01     		.2byte	0x10b
 904 05be 86040000 		.4byte	0x486
 905 05c2 50       		.byte	0x50
 906 05c3 08       		.uleb128 0x8
 907 05c4 723900   		.ascii	"r9\000"
 908 05c7 08       		.byte	0x8
 909 05c8 0C01     		.2byte	0x10c
 910 05ca 86040000 		.4byte	0x486
 911 05ce 54       		.byte	0x54
 912 05cf 08       		.uleb128 0x8
ARM GAS  /tmp/ccFbuKoN.s 			page 17


 913 05d0 72313000 		.ascii	"r10\000"
 914 05d4 08       		.byte	0x8
 915 05d5 0D01     		.2byte	0x10d
 916 05d7 86040000 		.4byte	0x486
 917 05db 58       		.byte	0x58
 918 05dc 08       		.uleb128 0x8
 919 05dd 72313100 		.ascii	"r11\000"
 920 05e1 08       		.byte	0x8
 921 05e2 0E01     		.2byte	0x10e
 922 05e4 86040000 		.4byte	0x486
 923 05e8 5C       		.byte	0x5c
 924 05e9 08       		.uleb128 0x8
 925 05ea 6C7200   		.ascii	"lr\000"
 926 05ed 08       		.byte	0x8
 927 05ee 0F01     		.2byte	0x10f
 928 05f0 86040000 		.4byte	0x486
 929 05f4 60       		.byte	0x60
 930 05f5 00       		.byte	0
 931 05f6 0A       		.uleb128 0xa
 932 05f7 04       		.byte	0x4
 933 05f8 B5040000 		.4byte	0x4b5
 934 05fc 11       		.uleb128 0x11
 935 05fd 04       		.byte	0x4
 936 05fe 09       		.byte	0x9
 937 05ff 38       		.byte	0x38
 938 0600 11060000 		.4byte	0x611
 939 0604 07       		.uleb128 0x7
 940 0605 86050000 		.4byte	.LASF88
 941 0609 09       		.byte	0x9
 942 060a 3C       		.byte	0x3c
 943 060b E3000000 		.4byte	0xe3
 944 060f 00       		.byte	0
 945 0610 00       		.byte	0
 946 0611 04       		.uleb128 0x4
 947 0612 DC020000 		.4byte	.LASF89
 948 0616 09       		.byte	0x9
 949 0617 3D       		.byte	0x3d
 950 0618 FC050000 		.4byte	0x5fc
 951 061c 12       		.uleb128 0x12
 952 061d 04       		.byte	0x4
 953 061e 06       		.byte	0x6
 954 061f FA       		.byte	0xfa
 955 0620 79060000 		.4byte	0x679
 956 0624 13       		.uleb128 0x13
 957 0625 13000000 		.4byte	.LASF90
 958 0629 06       		.byte	0x6
 959 062a 0101     		.2byte	0x101
 960 062c 25010000 		.4byte	0x125
 961 0630 13       		.uleb128 0x13
 962 0631 7F000000 		.4byte	.LASF91
 963 0635 06       		.byte	0x6
 964 0636 0801     		.2byte	0x108
 965 0638 25010000 		.4byte	0x125
 966 063c 13       		.uleb128 0x13
 967 063d FC050000 		.4byte	.LASF92
 968 0641 06       		.byte	0x6
 969 0642 0F01     		.2byte	0x10f
ARM GAS  /tmp/ccFbuKoN.s 			page 18


 970 0644 49030000 		.4byte	0x349
 971 0648 13       		.uleb128 0x13
 972 0649 0D000000 		.4byte	.LASF93
 973 064d 06       		.byte	0x6
 974 064e 1601     		.2byte	0x116
 975 0650 79060000 		.4byte	0x679
 976 0654 13       		.uleb128 0x13
 977 0655 EA010000 		.4byte	.LASF94
 978 0659 06       		.byte	0x6
 979 065a 1E01     		.2byte	0x11e
 980 065c A4060000 		.4byte	0x6a4
 981 0660 13       		.uleb128 0x13
 982 0661 E7030000 		.4byte	.LASF95
 983 0665 06       		.byte	0x6
 984 0666 2701     		.2byte	0x127
 985 0668 DB060000 		.4byte	0x6db
 986 066c 13       		.uleb128 0x13
 987 066d 9F030000 		.4byte	.LASF96
 988 0671 06       		.byte	0x6
 989 0672 2F01     		.2byte	0x12f
 990 0674 30010000 		.4byte	0x130
 991 0678 00       		.byte	0
 992 0679 0A       		.uleb128 0xa
 993 067a 04       		.byte	0x4
 994 067b 61020000 		.4byte	0x261
 995 067f 06       		.uleb128 0x6
 996 0680 C6030000 		.4byte	.LASF97
 997 0684 0C       		.byte	0xc
 998 0685 0A       		.byte	0xa
 999 0686 34       		.byte	0x34
 1000 0687 A4060000 		.4byte	0x6a4
 1001 068b 07       		.uleb128 0x7
 1002 068c 72010000 		.4byte	.LASF98
 1003 0690 0A       		.byte	0xa
 1004 0691 35       		.byte	0x35
 1005 0692 96020000 		.4byte	0x296
 1006 0696 00       		.byte	0
 1007 0697 07       		.uleb128 0x7
 1008 0698 10020000 		.4byte	.LASF99
 1009 069c 0A       		.byte	0xa
 1010 069d 37       		.byte	0x37
 1011 069e 3B010000 		.4byte	0x13b
 1012 06a2 08       		.byte	0x8
 1013 06a3 00       		.byte	0
 1014 06a4 0A       		.uleb128 0xa
 1015 06a5 04       		.byte	0x4
 1016 06a6 7F060000 		.4byte	0x67f
 1017 06aa 06       		.uleb128 0x6
 1018 06ab D5050000 		.4byte	.LASF100
 1019 06af 10       		.byte	0x10
 1020 06b0 0B       		.byte	0xb
 1021 06b1 39       		.byte	0x39
 1022 06b2 DB060000 		.4byte	0x6db
 1023 06b6 07       		.uleb128 0x7
 1024 06b7 2F010000 		.4byte	.LASF101
 1025 06bb 0B       		.byte	0xb
 1026 06bc 3A       		.byte	0x3a
ARM GAS  /tmp/ccFbuKoN.s 			page 19


 1027 06bd 96020000 		.4byte	0x296
 1028 06c1 00       		.byte	0
 1029 06c2 07       		.uleb128 0x7
 1030 06c3 2E060000 		.4byte	.LASF102
 1031 06c7 0B       		.byte	0xb
 1032 06c8 3C       		.byte	0x3c
 1033 06c9 6C020000 		.4byte	0x26c
 1034 06cd 08       		.byte	0x8
 1035 06ce 07       		.uleb128 0x7
 1036 06cf 4C050000 		.4byte	.LASF103
 1037 06d3 0B       		.byte	0xb
 1038 06d4 3E       		.byte	0x3e
 1039 06d5 1E070000 		.4byte	0x71e
 1040 06d9 0C       		.byte	0xc
 1041 06da 00       		.byte	0
 1042 06db 0A       		.uleb128 0xa
 1043 06dc 04       		.byte	0x4
 1044 06dd AA060000 		.4byte	0x6aa
 1045 06e1 0A       		.uleb128 0xa
 1046 06e2 04       		.byte	0x4
 1047 06e3 E7060000 		.4byte	0x6e7
 1048 06e7 14       		.uleb128 0x14
 1049 06e8 EC060000 		.4byte	0x6ec
 1050 06ec 03       		.uleb128 0x3
 1051 06ed 01       		.byte	0x1
 1052 06ee 08       		.byte	0x8
 1053 06ef 18040000 		.4byte	.LASF104
 1054 06f3 05       		.uleb128 0x5
 1055 06f4 46010000 		.4byte	0x146
 1056 06f8 0A       		.uleb128 0xa
 1057 06f9 04       		.byte	0x4
 1058 06fa 4B030000 		.4byte	0x34b
 1059 06fe 05       		.uleb128 0x5
 1060 06ff E1060000 		.4byte	0x6e1
 1061 0703 15       		.uleb128 0x15
 1062 0704 91040000 		.4byte	0x491
 1063 0708 13070000 		.4byte	0x713
 1064 070c 16       		.uleb128 0x16
 1065 070d 7F040000 		.4byte	0x47f
 1066 0711 3A       		.byte	0x3a
 1067 0712 00       		.byte	0
 1068 0713 04       		.uleb128 0x4
 1069 0714 A8010000 		.4byte	.LASF105
 1070 0718 0B       		.byte	0xb
 1071 0719 34       		.byte	0x34
 1072 071a AA060000 		.4byte	0x6aa
 1073 071e 0A       		.uleb128 0xa
 1074 071f 04       		.byte	0x4
 1075 0720 13070000 		.4byte	0x713
 1076 0724 03       		.uleb128 0x3
 1077 0725 01       		.byte	0x1
 1078 0726 02       		.byte	0x2
 1079 0727 56030000 		.4byte	.LASF106
 1080 072b 11       		.uleb128 0x11
 1081 072c 04       		.byte	0x4
 1082 072d 0C       		.byte	0xc
 1083 072e B3       		.byte	0xb3
ARM GAS  /tmp/ccFbuKoN.s 			page 20


 1084 072f 4C070000 		.4byte	0x74c
 1085 0733 10       		.uleb128 0x10
 1086 0734 73657400 		.ascii	"set\000"
 1087 0738 0C       		.byte	0xc
 1088 0739 B4       		.byte	0xb4
 1089 073a AD000000 		.4byte	0xad
 1090 073e 00       		.byte	0
 1091 073f 07       		.uleb128 0x7
 1092 0740 C8020000 		.4byte	.LASF107
 1093 0744 0C       		.byte	0xc
 1094 0745 B5       		.byte	0xb5
 1095 0746 AD000000 		.4byte	0xad
 1096 074a 02       		.byte	0x2
 1097 074b 00       		.byte	0
 1098 074c 12       		.uleb128 0x12
 1099 074d 04       		.byte	0x4
 1100 074e 0C       		.byte	0xc
 1101 074f B1       		.byte	0xb1
 1102 0750 67070000 		.4byte	0x767
 1103 0754 17       		.uleb128 0x17
 1104 0755 5700     		.ascii	"W\000"
 1105 0757 0C       		.byte	0xc
 1106 0758 B2       		.byte	0xb2
 1107 0759 C3000000 		.4byte	0xc3
 1108 075d 17       		.uleb128 0x17
 1109 075e 4800     		.ascii	"H\000"
 1110 0760 0C       		.byte	0xc
 1111 0761 B6       		.byte	0xb6
 1112 0762 2B070000 		.4byte	0x72b
 1113 0766 00       		.byte	0
 1114 0767 11       		.uleb128 0x11
 1115 0768 2C       		.byte	0x2c
 1116 0769 0C       		.byte	0xc
 1117 076a A9       		.byte	0xa9
 1118 076b F4070000 		.4byte	0x7f4
 1119 076f 07       		.uleb128 0x7
 1120 0770 5C000000 		.4byte	.LASF108
 1121 0774 0C       		.byte	0xc
 1122 0775 AB       		.byte	0xab
 1123 0776 DE000000 		.4byte	0xde
 1124 077a 00       		.byte	0
 1125 077b 07       		.uleb128 0x7
 1126 077c 2D000000 		.4byte	.LASF109
 1127 0780 0C       		.byte	0xc
 1128 0781 AC       		.byte	0xac
 1129 0782 DE000000 		.4byte	0xde
 1130 0786 04       		.byte	0x4
 1131 0787 07       		.uleb128 0x7
 1132 0788 7A010000 		.4byte	.LASF110
 1133 078c 0C       		.byte	0xc
 1134 078d AD       		.byte	0xad
 1135 078e DE000000 		.4byte	0xde
 1136 0792 08       		.byte	0x8
 1137 0793 07       		.uleb128 0x7
 1138 0794 79000000 		.4byte	.LASF111
 1139 0798 0C       		.byte	0xc
 1140 0799 AE       		.byte	0xae
ARM GAS  /tmp/ccFbuKoN.s 			page 21


 1141 079a DE000000 		.4byte	0xde
 1142 079e 0C       		.byte	0xc
 1143 079f 10       		.uleb128 0x10
 1144 07a0 49445200 		.ascii	"IDR\000"
 1145 07a4 0C       		.byte	0xc
 1146 07a5 AF       		.byte	0xaf
 1147 07a6 DE000000 		.4byte	0xde
 1148 07aa 10       		.byte	0x10
 1149 07ab 10       		.uleb128 0x10
 1150 07ac 4F445200 		.ascii	"ODR\000"
 1151 07b0 0C       		.byte	0xc
 1152 07b1 B0       		.byte	0xb0
 1153 07b2 DE000000 		.4byte	0xde
 1154 07b6 14       		.byte	0x14
 1155 07b7 07       		.uleb128 0x7
 1156 07b8 E8000000 		.4byte	.LASF112
 1157 07bc 0C       		.byte	0xc
 1158 07bd B7       		.byte	0xb7
 1159 07be F4070000 		.4byte	0x7f4
 1160 07c2 18       		.byte	0x18
 1161 07c3 07       		.uleb128 0x7
 1162 07c4 05020000 		.4byte	.LASF113
 1163 07c8 0C       		.byte	0xc
 1164 07c9 B8       		.byte	0xb8
 1165 07ca DE000000 		.4byte	0xde
 1166 07ce 1C       		.byte	0x1c
 1167 07cf 07       		.uleb128 0x7
 1168 07d0 1A030000 		.4byte	.LASF114
 1169 07d4 0C       		.byte	0xc
 1170 07d5 B9       		.byte	0xb9
 1171 07d6 DE000000 		.4byte	0xde
 1172 07da 20       		.byte	0x20
 1173 07db 07       		.uleb128 0x7
 1174 07dc 15030000 		.4byte	.LASF115
 1175 07e0 0C       		.byte	0xc
 1176 07e1 BA       		.byte	0xba
 1177 07e2 DE000000 		.4byte	0xde
 1178 07e6 24       		.byte	0x24
 1179 07e7 10       		.uleb128 0x10
 1180 07e8 42525200 		.ascii	"BRR\000"
 1181 07ec 0C       		.byte	0xc
 1182 07ed BB       		.byte	0xbb
 1183 07ee DE000000 		.4byte	0xde
 1184 07f2 28       		.byte	0x28
 1185 07f3 00       		.byte	0
 1186 07f4 05       		.uleb128 0x5
 1187 07f5 4C070000 		.4byte	0x74c
 1188 07f9 04       		.uleb128 0x4
 1189 07fa 9B010000 		.4byte	.LASF116
 1190 07fe 0C       		.byte	0xc
 1191 07ff BC       		.byte	0xbc
 1192 0800 67070000 		.4byte	0x767
 1193 0804 18       		.uleb128 0x18
 1194 0805 4F000000 		.4byte	.LASF117
 1195 0809 0C       		.byte	0xc
 1196 080a 0E01     		.2byte	0x10e
 1197 080c C3000000 		.4byte	0xc3
ARM GAS  /tmp/ccFbuKoN.s 			page 22


 1198 0810 18       		.uleb128 0x18
 1199 0811 25060000 		.4byte	.LASF118
 1200 0815 0C       		.byte	0xc
 1201 0816 1301     		.2byte	0x113
 1202 0818 C3000000 		.4byte	0xc3
 1203 081c 18       		.uleb128 0x18
 1204 081d 8D050000 		.4byte	.LASF119
 1205 0821 0C       		.byte	0xc
 1206 0822 1B01     		.2byte	0x11b
 1207 0824 28080000 		.4byte	0x828
 1208 0828 0A       		.uleb128 0xa
 1209 0829 04       		.byte	0x4
 1210 082a F9070000 		.4byte	0x7f9
 1211 082e 19       		.uleb128 0x19
 1212 082f 03060000 		.4byte	.LASF127
 1213 0833 01       		.byte	0x1
 1214 0834 22       		.byte	0x22
 1215 0835 01       		.byte	0x1
 1216 0836 51080000 		.4byte	0x851
 1217 083a 1A       		.uleb128 0x1a
 1218 083b 6E756D00 		.ascii	"num\000"
 1219 083f 01       		.byte	0x1
 1220 0840 22       		.byte	0x22
 1221 0841 25000000 		.4byte	0x25
 1222 0845 1B       		.uleb128 0x1b
 1223 0846 48010000 		.4byte	.LASF120
 1224 084a 01       		.byte	0x1
 1225 084b 22       		.byte	0x22
 1226 084c 25000000 		.4byte	0x25
 1227 0850 00       		.byte	0
 1228 0851 1C       		.uleb128 0x1c
 1229 0852 44060000 		.4byte	.LASF121
 1230 0856 01       		.byte	0x1
 1231 0857 16       		.byte	0x16
 1232 0858 00000000 		.4byte	.LFB256
 1233 085c 2C000000 		.4byte	.LFE256-.LFB256
 1234 0860 01       		.uleb128 0x1
 1235 0861 9C       		.byte	0x9c
 1236 0862 F1080000 		.4byte	0x8f1
 1237 0866 1D       		.uleb128 0x1d
 1238 0867 2E080000 		.4byte	0x82e
 1239 086b 18000000 		.4byte	.LBB8
 1240 086f 00000000 		.4byte	.Ldebug_ranges0+0
 1241 0873 01       		.byte	0x1
 1242 0874 1E       		.byte	0x1e
 1243 0875 86080000 		.4byte	0x886
 1244 0879 1E       		.uleb128 0x1e
 1245 087a 45080000 		.4byte	0x845
 1246 087e 00       		.byte	0
 1247 087f 1E       		.uleb128 0x1e
 1248 0880 3A080000 		.4byte	0x83a
 1249 0884 00       		.byte	0
 1250 0885 00       		.byte	0
 1251 0886 1D       		.uleb128 0x1d
 1252 0887 2E080000 		.4byte	0x82e
 1253 088b 1C000000 		.4byte	.LBB11
 1254 088f 18000000 		.4byte	.Ldebug_ranges0+0x18
ARM GAS  /tmp/ccFbuKoN.s 			page 23


 1255 0893 01       		.byte	0x1
 1256 0894 1F       		.byte	0x1f
 1257 0895 B8080000 		.4byte	0x8b8
 1258 0899 1E       		.uleb128 0x1e
 1259 089a 45080000 		.4byte	0x845
 1260 089e 00       		.byte	0
 1261 089f 1E       		.uleb128 0x1e
 1262 08a0 3A080000 		.4byte	0x83a
 1263 08a4 01       		.byte	0x1
 1264 08a5 1F       		.uleb128 0x1f
 1265 08a6 18000000 		.4byte	.Ldebug_ranges0+0x18
 1266 08aa 1E       		.uleb128 0x1e
 1267 08ab 3A080000 		.4byte	0x83a
 1268 08af 01       		.byte	0x1
 1269 08b0 1E       		.uleb128 0x1e
 1270 08b1 45080000 		.4byte	0x845
 1271 08b5 00       		.byte	0
 1272 08b6 00       		.byte	0
 1273 08b7 00       		.byte	0
 1274 08b8 20       		.uleb128 0x20
 1275 08b9 0E000000 		.4byte	.LVL0
 1276 08bd 6B090000 		.4byte	0x96b
 1277 08c1 D6080000 		.4byte	0x8d6
 1278 08c5 21       		.uleb128 0x21
 1279 08c6 01       		.uleb128 0x1
 1280 08c7 52       		.byte	0x52
 1281 08c8 01       		.uleb128 0x1
 1282 08c9 49       		.byte	0x49
 1283 08ca 21       		.uleb128 0x21
 1284 08cb 01       		.uleb128 0x1
 1285 08cc 51       		.byte	0x51
 1286 08cd 01       		.uleb128 0x1
 1287 08ce 31       		.byte	0x31
 1288 08cf 21       		.uleb128 0x21
 1289 08d0 01       		.uleb128 0x1
 1290 08d1 50       		.byte	0x50
 1291 08d2 02       		.uleb128 0x2
 1292 08d3 74       		.byte	0x74
 1293 08d4 00       		.sleb128 0
 1294 08d5 00       		.byte	0
 1295 08d6 22       		.uleb128 0x22
 1296 08d7 18000000 		.4byte	.LVL1
 1297 08db 6B090000 		.4byte	0x96b
 1298 08df 21       		.uleb128 0x21
 1299 08e0 01       		.uleb128 0x1
 1300 08e1 52       		.byte	0x52
 1301 08e2 01       		.uleb128 0x1
 1302 08e3 49       		.byte	0x49
 1303 08e4 21       		.uleb128 0x21
 1304 08e5 01       		.uleb128 0x1
 1305 08e6 51       		.byte	0x51
 1306 08e7 01       		.uleb128 0x1
 1307 08e8 32       		.byte	0x32
 1308 08e9 21       		.uleb128 0x21
 1309 08ea 01       		.uleb128 0x1
 1310 08eb 50       		.byte	0x50
 1311 08ec 02       		.uleb128 0x2
ARM GAS  /tmp/ccFbuKoN.s 			page 24


 1312 08ed 74       		.byte	0x74
 1313 08ee 00       		.sleb128 0
 1314 08ef 00       		.byte	0
 1315 08f0 00       		.byte	0
 1316 08f1 23       		.uleb128 0x23
 1317 08f2 2E080000 		.4byte	0x82e
 1318 08f6 00000000 		.4byte	.LFB257
 1319 08fa 38000000 		.4byte	.LFE257-.LFB257
 1320 08fe 01       		.uleb128 0x1
 1321 08ff 9C       		.byte	0x9c
 1322 0900 31090000 		.4byte	0x931
 1323 0904 24       		.uleb128 0x24
 1324 0905 3A080000 		.4byte	0x83a
 1325 0909 01       		.uleb128 0x1
 1326 090a 50       		.byte	0x50
 1327 090b 25       		.uleb128 0x25
 1328 090c 45080000 		.4byte	0x845
 1329 0910 00000000 		.4byte	.LLST0
 1330 0914 26       		.uleb128 0x26
 1331 0915 06000000 		.4byte	.LBB20
 1332 0919 18000000 		.4byte	.LBE20-.LBB20
 1333 091d 25       		.uleb128 0x25
 1334 091e 3A080000 		.4byte	0x83a
 1335 0922 3A000000 		.4byte	.LLST1
 1336 0926 25       		.uleb128 0x25
 1337 0927 45080000 		.4byte	0x845
 1338 092b 4E000000 		.4byte	.LLST2
 1339 092f 00       		.byte	0
 1340 0930 00       		.byte	0
 1341 0931 1C       		.uleb128 0x1c
 1342 0932 FF020000 		.4byte	.LASF122
 1343 0936 01       		.byte	0x1
 1344 0937 31       		.byte	0x31
 1345 0938 00000000 		.4byte	.LFB258
 1346 093c 24000000 		.4byte	.LFE258-.LFB258
 1347 0940 01       		.uleb128 0x1
 1348 0941 9C       		.byte	0x9c
 1349 0942 54090000 		.4byte	0x954
 1350 0946 27       		.uleb128 0x27
 1351 0947 6E756D00 		.ascii	"num\000"
 1352 094b 01       		.byte	0x1
 1353 094c 31       		.byte	0x31
 1354 094d 25000000 		.4byte	0x25
 1355 0951 01       		.uleb128 0x1
 1356 0952 50       		.byte	0x50
 1357 0953 00       		.byte	0
 1358 0954 28       		.uleb128 0x28
 1359 0955 A9000000 		.4byte	.LASF123
 1360 0959 0D       		.byte	0xd
 1361 095a A706     		.2byte	0x6a7
 1362 095c D9000000 		.4byte	0xd9
 1363 0960 29       		.uleb128 0x29
 1364 0961 636800   		.ascii	"ch\000"
 1365 0964 06       		.byte	0x6
 1366 0965 0902     		.2byte	0x209
 1367 0967 18040000 		.4byte	0x418
 1368 096b 2A       		.uleb128 0x2a
ARM GAS  /tmp/ccFbuKoN.s 			page 25


 1369 096c A0050000 		.4byte	.LASF128
 1370 0970 0C       		.byte	0xc
 1371 0971 E001     		.2byte	0x1e0
 1372 0973 0D       		.uleb128 0xd
 1373 0974 1C080000 		.4byte	0x81c
 1374 0978 0D       		.uleb128 0xd
 1375 0979 04080000 		.4byte	0x804
 1376 097d 0D       		.uleb128 0xd
 1377 097e 10080000 		.4byte	0x810
 1378 0982 00       		.byte	0
 1379 0983 00       		.byte	0
 1380              		.section	.debug_abbrev,"",%progbits
 1381              	.Ldebug_abbrev0:
 1382 0000 01       		.uleb128 0x1
 1383 0001 11       		.uleb128 0x11
 1384 0002 01       		.byte	0x1
 1385 0003 25       		.uleb128 0x25
 1386 0004 0E       		.uleb128 0xe
 1387 0005 13       		.uleb128 0x13
 1388 0006 0B       		.uleb128 0xb
 1389 0007 03       		.uleb128 0x3
 1390 0008 0E       		.uleb128 0xe
 1391 0009 1B       		.uleb128 0x1b
 1392 000a 0E       		.uleb128 0xe
 1393 000b 55       		.uleb128 0x55
 1394 000c 17       		.uleb128 0x17
 1395 000d 11       		.uleb128 0x11
 1396 000e 01       		.uleb128 0x1
 1397 000f 10       		.uleb128 0x10
 1398 0010 17       		.uleb128 0x17
 1399 0011 00       		.byte	0
 1400 0012 00       		.byte	0
 1401 0013 02       		.uleb128 0x2
 1402 0014 24       		.uleb128 0x24
 1403 0015 00       		.byte	0
 1404 0016 0B       		.uleb128 0xb
 1405 0017 0B       		.uleb128 0xb
 1406 0018 3E       		.uleb128 0x3e
 1407 0019 0B       		.uleb128 0xb
 1408 001a 03       		.uleb128 0x3
 1409 001b 08       		.uleb128 0x8
 1410 001c 00       		.byte	0
 1411 001d 00       		.byte	0
 1412 001e 03       		.uleb128 0x3
 1413 001f 24       		.uleb128 0x24
 1414 0020 00       		.byte	0
 1415 0021 0B       		.uleb128 0xb
 1416 0022 0B       		.uleb128 0xb
 1417 0023 3E       		.uleb128 0x3e
 1418 0024 0B       		.uleb128 0xb
 1419 0025 03       		.uleb128 0x3
 1420 0026 0E       		.uleb128 0xe
 1421 0027 00       		.byte	0
 1422 0028 00       		.byte	0
 1423 0029 04       		.uleb128 0x4
 1424 002a 16       		.uleb128 0x16
 1425 002b 00       		.byte	0
ARM GAS  /tmp/ccFbuKoN.s 			page 26


 1426 002c 03       		.uleb128 0x3
 1427 002d 0E       		.uleb128 0xe
 1428 002e 3A       		.uleb128 0x3a
 1429 002f 0B       		.uleb128 0xb
 1430 0030 3B       		.uleb128 0x3b
 1431 0031 0B       		.uleb128 0xb
 1432 0032 49       		.uleb128 0x49
 1433 0033 13       		.uleb128 0x13
 1434 0034 00       		.byte	0
 1435 0035 00       		.byte	0
 1436 0036 05       		.uleb128 0x5
 1437 0037 35       		.uleb128 0x35
 1438 0038 00       		.byte	0
 1439 0039 49       		.uleb128 0x49
 1440 003a 13       		.uleb128 0x13
 1441 003b 00       		.byte	0
 1442 003c 00       		.byte	0
 1443 003d 06       		.uleb128 0x6
 1444 003e 13       		.uleb128 0x13
 1445 003f 01       		.byte	0x1
 1446 0040 03       		.uleb128 0x3
 1447 0041 0E       		.uleb128 0xe
 1448 0042 0B       		.uleb128 0xb
 1449 0043 0B       		.uleb128 0xb
 1450 0044 3A       		.uleb128 0x3a
 1451 0045 0B       		.uleb128 0xb
 1452 0046 3B       		.uleb128 0x3b
 1453 0047 0B       		.uleb128 0xb
 1454 0048 01       		.uleb128 0x1
 1455 0049 13       		.uleb128 0x13
 1456 004a 00       		.byte	0
 1457 004b 00       		.byte	0
 1458 004c 07       		.uleb128 0x7
 1459 004d 0D       		.uleb128 0xd
 1460 004e 00       		.byte	0
 1461 004f 03       		.uleb128 0x3
 1462 0050 0E       		.uleb128 0xe
 1463 0051 3A       		.uleb128 0x3a
 1464 0052 0B       		.uleb128 0xb
 1465 0053 3B       		.uleb128 0x3b
 1466 0054 0B       		.uleb128 0xb
 1467 0055 49       		.uleb128 0x49
 1468 0056 13       		.uleb128 0x13
 1469 0057 38       		.uleb128 0x38
 1470 0058 0B       		.uleb128 0xb
 1471 0059 00       		.byte	0
 1472 005a 00       		.byte	0
 1473 005b 08       		.uleb128 0x8
 1474 005c 0D       		.uleb128 0xd
 1475 005d 00       		.byte	0
 1476 005e 03       		.uleb128 0x3
 1477 005f 08       		.uleb128 0x8
 1478 0060 3A       		.uleb128 0x3a
 1479 0061 0B       		.uleb128 0xb
 1480 0062 3B       		.uleb128 0x3b
 1481 0063 05       		.uleb128 0x5
 1482 0064 49       		.uleb128 0x49
ARM GAS  /tmp/ccFbuKoN.s 			page 27


 1483 0065 13       		.uleb128 0x13
 1484 0066 38       		.uleb128 0x38
 1485 0067 0B       		.uleb128 0xb
 1486 0068 00       		.byte	0
 1487 0069 00       		.byte	0
 1488 006a 09       		.uleb128 0x9
 1489 006b 0D       		.uleb128 0xd
 1490 006c 00       		.byte	0
 1491 006d 03       		.uleb128 0x3
 1492 006e 0E       		.uleb128 0xe
 1493 006f 3A       		.uleb128 0x3a
 1494 0070 0B       		.uleb128 0xb
 1495 0071 3B       		.uleb128 0x3b
 1496 0072 05       		.uleb128 0x5
 1497 0073 49       		.uleb128 0x49
 1498 0074 13       		.uleb128 0x13
 1499 0075 38       		.uleb128 0x38
 1500 0076 0B       		.uleb128 0xb
 1501 0077 00       		.byte	0
 1502 0078 00       		.byte	0
 1503 0079 0A       		.uleb128 0xa
 1504 007a 0F       		.uleb128 0xf
 1505 007b 00       		.byte	0
 1506 007c 0B       		.uleb128 0xb
 1507 007d 0B       		.uleb128 0xb
 1508 007e 49       		.uleb128 0x49
 1509 007f 13       		.uleb128 0x13
 1510 0080 00       		.byte	0
 1511 0081 00       		.byte	0
 1512 0082 0B       		.uleb128 0xb
 1513 0083 13       		.uleb128 0x13
 1514 0084 01       		.byte	0x1
 1515 0085 03       		.uleb128 0x3
 1516 0086 0E       		.uleb128 0xe
 1517 0087 0B       		.uleb128 0xb
 1518 0088 0B       		.uleb128 0xb
 1519 0089 3A       		.uleb128 0x3a
 1520 008a 0B       		.uleb128 0xb
 1521 008b 3B       		.uleb128 0x3b
 1522 008c 05       		.uleb128 0x5
 1523 008d 01       		.uleb128 0x1
 1524 008e 13       		.uleb128 0x13
 1525 008f 00       		.byte	0
 1526 0090 00       		.byte	0
 1527 0091 0C       		.uleb128 0xc
 1528 0092 15       		.uleb128 0x15
 1529 0093 01       		.byte	0x1
 1530 0094 27       		.uleb128 0x27
 1531 0095 19       		.uleb128 0x19
 1532 0096 01       		.uleb128 0x1
 1533 0097 13       		.uleb128 0x13
 1534 0098 00       		.byte	0
 1535 0099 00       		.byte	0
 1536 009a 0D       		.uleb128 0xd
 1537 009b 05       		.uleb128 0x5
 1538 009c 00       		.byte	0
 1539 009d 49       		.uleb128 0x49
ARM GAS  /tmp/ccFbuKoN.s 			page 28


 1540 009e 13       		.uleb128 0x13
 1541 009f 00       		.byte	0
 1542 00a0 00       		.byte	0
 1543 00a1 0E       		.uleb128 0xe
 1544 00a2 0F       		.uleb128 0xf
 1545 00a3 00       		.byte	0
 1546 00a4 0B       		.uleb128 0xb
 1547 00a5 0B       		.uleb128 0xb
 1548 00a6 00       		.byte	0
 1549 00a7 00       		.byte	0
 1550 00a8 0F       		.uleb128 0xf
 1551 00a9 13       		.uleb128 0x13
 1552 00aa 01       		.byte	0x1
 1553 00ab 03       		.uleb128 0x3
 1554 00ac 0E       		.uleb128 0xe
 1555 00ad 0B       		.uleb128 0xb
 1556 00ae 05       		.uleb128 0x5
 1557 00af 3A       		.uleb128 0x3a
 1558 00b0 0B       		.uleb128 0xb
 1559 00b1 3B       		.uleb128 0x3b
 1560 00b2 05       		.uleb128 0x5
 1561 00b3 01       		.uleb128 0x1
 1562 00b4 13       		.uleb128 0x13
 1563 00b5 00       		.byte	0
 1564 00b6 00       		.byte	0
 1565 00b7 10       		.uleb128 0x10
 1566 00b8 0D       		.uleb128 0xd
 1567 00b9 00       		.byte	0
 1568 00ba 03       		.uleb128 0x3
 1569 00bb 08       		.uleb128 0x8
 1570 00bc 3A       		.uleb128 0x3a
 1571 00bd 0B       		.uleb128 0xb
 1572 00be 3B       		.uleb128 0x3b
 1573 00bf 0B       		.uleb128 0xb
 1574 00c0 49       		.uleb128 0x49
 1575 00c1 13       		.uleb128 0x13
 1576 00c2 38       		.uleb128 0x38
 1577 00c3 0B       		.uleb128 0xb
 1578 00c4 00       		.byte	0
 1579 00c5 00       		.byte	0
 1580 00c6 11       		.uleb128 0x11
 1581 00c7 13       		.uleb128 0x13
 1582 00c8 01       		.byte	0x1
 1583 00c9 0B       		.uleb128 0xb
 1584 00ca 0B       		.uleb128 0xb
 1585 00cb 3A       		.uleb128 0x3a
 1586 00cc 0B       		.uleb128 0xb
 1587 00cd 3B       		.uleb128 0x3b
 1588 00ce 0B       		.uleb128 0xb
 1589 00cf 01       		.uleb128 0x1
 1590 00d0 13       		.uleb128 0x13
 1591 00d1 00       		.byte	0
 1592 00d2 00       		.byte	0
 1593 00d3 12       		.uleb128 0x12
 1594 00d4 17       		.uleb128 0x17
 1595 00d5 01       		.byte	0x1
 1596 00d6 0B       		.uleb128 0xb
ARM GAS  /tmp/ccFbuKoN.s 			page 29


 1597 00d7 0B       		.uleb128 0xb
 1598 00d8 3A       		.uleb128 0x3a
 1599 00d9 0B       		.uleb128 0xb
 1600 00da 3B       		.uleb128 0x3b
 1601 00db 0B       		.uleb128 0xb
 1602 00dc 01       		.uleb128 0x1
 1603 00dd 13       		.uleb128 0x13
 1604 00de 00       		.byte	0
 1605 00df 00       		.byte	0
 1606 00e0 13       		.uleb128 0x13
 1607 00e1 0D       		.uleb128 0xd
 1608 00e2 00       		.byte	0
 1609 00e3 03       		.uleb128 0x3
 1610 00e4 0E       		.uleb128 0xe
 1611 00e5 3A       		.uleb128 0x3a
 1612 00e6 0B       		.uleb128 0xb
 1613 00e7 3B       		.uleb128 0x3b
 1614 00e8 05       		.uleb128 0x5
 1615 00e9 49       		.uleb128 0x49
 1616 00ea 13       		.uleb128 0x13
 1617 00eb 00       		.byte	0
 1618 00ec 00       		.byte	0
 1619 00ed 14       		.uleb128 0x14
 1620 00ee 26       		.uleb128 0x26
 1621 00ef 00       		.byte	0
 1622 00f0 49       		.uleb128 0x49
 1623 00f1 13       		.uleb128 0x13
 1624 00f2 00       		.byte	0
 1625 00f3 00       		.byte	0
 1626 00f4 15       		.uleb128 0x15
 1627 00f5 01       		.uleb128 0x1
 1628 00f6 01       		.byte	0x1
 1629 00f7 49       		.uleb128 0x49
 1630 00f8 13       		.uleb128 0x13
 1631 00f9 01       		.uleb128 0x1
 1632 00fa 13       		.uleb128 0x13
 1633 00fb 00       		.byte	0
 1634 00fc 00       		.byte	0
 1635 00fd 16       		.uleb128 0x16
 1636 00fe 21       		.uleb128 0x21
 1637 00ff 00       		.byte	0
 1638 0100 49       		.uleb128 0x49
 1639 0101 13       		.uleb128 0x13
 1640 0102 2F       		.uleb128 0x2f
 1641 0103 0B       		.uleb128 0xb
 1642 0104 00       		.byte	0
 1643 0105 00       		.byte	0
 1644 0106 17       		.uleb128 0x17
 1645 0107 0D       		.uleb128 0xd
 1646 0108 00       		.byte	0
 1647 0109 03       		.uleb128 0x3
 1648 010a 08       		.uleb128 0x8
 1649 010b 3A       		.uleb128 0x3a
 1650 010c 0B       		.uleb128 0xb
 1651 010d 3B       		.uleb128 0x3b
 1652 010e 0B       		.uleb128 0xb
 1653 010f 49       		.uleb128 0x49
ARM GAS  /tmp/ccFbuKoN.s 			page 30


 1654 0110 13       		.uleb128 0x13
 1655 0111 00       		.byte	0
 1656 0112 00       		.byte	0
 1657 0113 18       		.uleb128 0x18
 1658 0114 16       		.uleb128 0x16
 1659 0115 00       		.byte	0
 1660 0116 03       		.uleb128 0x3
 1661 0117 0E       		.uleb128 0xe
 1662 0118 3A       		.uleb128 0x3a
 1663 0119 0B       		.uleb128 0xb
 1664 011a 3B       		.uleb128 0x3b
 1665 011b 05       		.uleb128 0x5
 1666 011c 49       		.uleb128 0x49
 1667 011d 13       		.uleb128 0x13
 1668 011e 00       		.byte	0
 1669 011f 00       		.byte	0
 1670 0120 19       		.uleb128 0x19
 1671 0121 2E       		.uleb128 0x2e
 1672 0122 01       		.byte	0x1
 1673 0123 3F       		.uleb128 0x3f
 1674 0124 19       		.uleb128 0x19
 1675 0125 03       		.uleb128 0x3
 1676 0126 0E       		.uleb128 0xe
 1677 0127 3A       		.uleb128 0x3a
 1678 0128 0B       		.uleb128 0xb
 1679 0129 3B       		.uleb128 0x3b
 1680 012a 0B       		.uleb128 0xb
 1681 012b 27       		.uleb128 0x27
 1682 012c 19       		.uleb128 0x19
 1683 012d 20       		.uleb128 0x20
 1684 012e 0B       		.uleb128 0xb
 1685 012f 01       		.uleb128 0x1
 1686 0130 13       		.uleb128 0x13
 1687 0131 00       		.byte	0
 1688 0132 00       		.byte	0
 1689 0133 1A       		.uleb128 0x1a
 1690 0134 05       		.uleb128 0x5
 1691 0135 00       		.byte	0
 1692 0136 03       		.uleb128 0x3
 1693 0137 08       		.uleb128 0x8
 1694 0138 3A       		.uleb128 0x3a
 1695 0139 0B       		.uleb128 0xb
 1696 013a 3B       		.uleb128 0x3b
 1697 013b 0B       		.uleb128 0xb
 1698 013c 49       		.uleb128 0x49
 1699 013d 13       		.uleb128 0x13
 1700 013e 00       		.byte	0
 1701 013f 00       		.byte	0
 1702 0140 1B       		.uleb128 0x1b
 1703 0141 05       		.uleb128 0x5
 1704 0142 00       		.byte	0
 1705 0143 03       		.uleb128 0x3
 1706 0144 0E       		.uleb128 0xe
 1707 0145 3A       		.uleb128 0x3a
 1708 0146 0B       		.uleb128 0xb
 1709 0147 3B       		.uleb128 0x3b
 1710 0148 0B       		.uleb128 0xb
ARM GAS  /tmp/ccFbuKoN.s 			page 31


 1711 0149 49       		.uleb128 0x49
 1712 014a 13       		.uleb128 0x13
 1713 014b 00       		.byte	0
 1714 014c 00       		.byte	0
 1715 014d 1C       		.uleb128 0x1c
 1716 014e 2E       		.uleb128 0x2e
 1717 014f 01       		.byte	0x1
 1718 0150 3F       		.uleb128 0x3f
 1719 0151 19       		.uleb128 0x19
 1720 0152 03       		.uleb128 0x3
 1721 0153 0E       		.uleb128 0xe
 1722 0154 3A       		.uleb128 0x3a
 1723 0155 0B       		.uleb128 0xb
 1724 0156 3B       		.uleb128 0x3b
 1725 0157 0B       		.uleb128 0xb
 1726 0158 27       		.uleb128 0x27
 1727 0159 19       		.uleb128 0x19
 1728 015a 11       		.uleb128 0x11
 1729 015b 01       		.uleb128 0x1
 1730 015c 12       		.uleb128 0x12
 1731 015d 06       		.uleb128 0x6
 1732 015e 40       		.uleb128 0x40
 1733 015f 18       		.uleb128 0x18
 1734 0160 9742     		.uleb128 0x2117
 1735 0162 19       		.uleb128 0x19
 1736 0163 01       		.uleb128 0x1
 1737 0164 13       		.uleb128 0x13
 1738 0165 00       		.byte	0
 1739 0166 00       		.byte	0
 1740 0167 1D       		.uleb128 0x1d
 1741 0168 1D       		.uleb128 0x1d
 1742 0169 01       		.byte	0x1
 1743 016a 31       		.uleb128 0x31
 1744 016b 13       		.uleb128 0x13
 1745 016c 52       		.uleb128 0x52
 1746 016d 01       		.uleb128 0x1
 1747 016e 55       		.uleb128 0x55
 1748 016f 17       		.uleb128 0x17
 1749 0170 58       		.uleb128 0x58
 1750 0171 0B       		.uleb128 0xb
 1751 0172 59       		.uleb128 0x59
 1752 0173 0B       		.uleb128 0xb
 1753 0174 01       		.uleb128 0x1
 1754 0175 13       		.uleb128 0x13
 1755 0176 00       		.byte	0
 1756 0177 00       		.byte	0
 1757 0178 1E       		.uleb128 0x1e
 1758 0179 05       		.uleb128 0x5
 1759 017a 00       		.byte	0
 1760 017b 31       		.uleb128 0x31
 1761 017c 13       		.uleb128 0x13
 1762 017d 1C       		.uleb128 0x1c
 1763 017e 0B       		.uleb128 0xb
 1764 017f 00       		.byte	0
 1765 0180 00       		.byte	0
 1766 0181 1F       		.uleb128 0x1f
 1767 0182 0B       		.uleb128 0xb
ARM GAS  /tmp/ccFbuKoN.s 			page 32


 1768 0183 01       		.byte	0x1
 1769 0184 55       		.uleb128 0x55
 1770 0185 17       		.uleb128 0x17
 1771 0186 00       		.byte	0
 1772 0187 00       		.byte	0
 1773 0188 20       		.uleb128 0x20
 1774 0189 898201   		.uleb128 0x4109
 1775 018c 01       		.byte	0x1
 1776 018d 11       		.uleb128 0x11
 1777 018e 01       		.uleb128 0x1
 1778 018f 31       		.uleb128 0x31
 1779 0190 13       		.uleb128 0x13
 1780 0191 01       		.uleb128 0x1
 1781 0192 13       		.uleb128 0x13
 1782 0193 00       		.byte	0
 1783 0194 00       		.byte	0
 1784 0195 21       		.uleb128 0x21
 1785 0196 8A8201   		.uleb128 0x410a
 1786 0199 00       		.byte	0
 1787 019a 02       		.uleb128 0x2
 1788 019b 18       		.uleb128 0x18
 1789 019c 9142     		.uleb128 0x2111
 1790 019e 18       		.uleb128 0x18
 1791 019f 00       		.byte	0
 1792 01a0 00       		.byte	0
 1793 01a1 22       		.uleb128 0x22
 1794 01a2 898201   		.uleb128 0x4109
 1795 01a5 01       		.byte	0x1
 1796 01a6 11       		.uleb128 0x11
 1797 01a7 01       		.uleb128 0x1
 1798 01a8 31       		.uleb128 0x31
 1799 01a9 13       		.uleb128 0x13
 1800 01aa 00       		.byte	0
 1801 01ab 00       		.byte	0
 1802 01ac 23       		.uleb128 0x23
 1803 01ad 2E       		.uleb128 0x2e
 1804 01ae 01       		.byte	0x1
 1805 01af 31       		.uleb128 0x31
 1806 01b0 13       		.uleb128 0x13
 1807 01b1 11       		.uleb128 0x11
 1808 01b2 01       		.uleb128 0x1
 1809 01b3 12       		.uleb128 0x12
 1810 01b4 06       		.uleb128 0x6
 1811 01b5 40       		.uleb128 0x40
 1812 01b6 18       		.uleb128 0x18
 1813 01b7 9742     		.uleb128 0x2117
 1814 01b9 19       		.uleb128 0x19
 1815 01ba 01       		.uleb128 0x1
 1816 01bb 13       		.uleb128 0x13
 1817 01bc 00       		.byte	0
 1818 01bd 00       		.byte	0
 1819 01be 24       		.uleb128 0x24
 1820 01bf 05       		.uleb128 0x5
 1821 01c0 00       		.byte	0
 1822 01c1 31       		.uleb128 0x31
 1823 01c2 13       		.uleb128 0x13
 1824 01c3 02       		.uleb128 0x2
ARM GAS  /tmp/ccFbuKoN.s 			page 33


 1825 01c4 18       		.uleb128 0x18
 1826 01c5 00       		.byte	0
 1827 01c6 00       		.byte	0
 1828 01c7 25       		.uleb128 0x25
 1829 01c8 05       		.uleb128 0x5
 1830 01c9 00       		.byte	0
 1831 01ca 31       		.uleb128 0x31
 1832 01cb 13       		.uleb128 0x13
 1833 01cc 02       		.uleb128 0x2
 1834 01cd 17       		.uleb128 0x17
 1835 01ce 00       		.byte	0
 1836 01cf 00       		.byte	0
 1837 01d0 26       		.uleb128 0x26
 1838 01d1 0B       		.uleb128 0xb
 1839 01d2 01       		.byte	0x1
 1840 01d3 11       		.uleb128 0x11
 1841 01d4 01       		.uleb128 0x1
 1842 01d5 12       		.uleb128 0x12
 1843 01d6 06       		.uleb128 0x6
 1844 01d7 00       		.byte	0
 1845 01d8 00       		.byte	0
 1846 01d9 27       		.uleb128 0x27
 1847 01da 05       		.uleb128 0x5
 1848 01db 00       		.byte	0
 1849 01dc 03       		.uleb128 0x3
 1850 01dd 08       		.uleb128 0x8
 1851 01de 3A       		.uleb128 0x3a
 1852 01df 0B       		.uleb128 0xb
 1853 01e0 3B       		.uleb128 0x3b
 1854 01e1 0B       		.uleb128 0xb
 1855 01e2 49       		.uleb128 0x49
 1856 01e3 13       		.uleb128 0x13
 1857 01e4 02       		.uleb128 0x2
 1858 01e5 18       		.uleb128 0x18
 1859 01e6 00       		.byte	0
 1860 01e7 00       		.byte	0
 1861 01e8 28       		.uleb128 0x28
 1862 01e9 34       		.uleb128 0x34
 1863 01ea 00       		.byte	0
 1864 01eb 03       		.uleb128 0x3
 1865 01ec 0E       		.uleb128 0xe
 1866 01ed 3A       		.uleb128 0x3a
 1867 01ee 0B       		.uleb128 0xb
 1868 01ef 3B       		.uleb128 0x3b
 1869 01f0 05       		.uleb128 0x5
 1870 01f1 49       		.uleb128 0x49
 1871 01f2 13       		.uleb128 0x13
 1872 01f3 3F       		.uleb128 0x3f
 1873 01f4 19       		.uleb128 0x19
 1874 01f5 3C       		.uleb128 0x3c
 1875 01f6 19       		.uleb128 0x19
 1876 01f7 00       		.byte	0
 1877 01f8 00       		.byte	0
 1878 01f9 29       		.uleb128 0x29
 1879 01fa 34       		.uleb128 0x34
 1880 01fb 00       		.byte	0
 1881 01fc 03       		.uleb128 0x3
ARM GAS  /tmp/ccFbuKoN.s 			page 34


 1882 01fd 08       		.uleb128 0x8
 1883 01fe 3A       		.uleb128 0x3a
 1884 01ff 0B       		.uleb128 0xb
 1885 0200 3B       		.uleb128 0x3b
 1886 0201 05       		.uleb128 0x5
 1887 0202 49       		.uleb128 0x49
 1888 0203 13       		.uleb128 0x13
 1889 0204 3F       		.uleb128 0x3f
 1890 0205 19       		.uleb128 0x19
 1891 0206 3C       		.uleb128 0x3c
 1892 0207 19       		.uleb128 0x19
 1893 0208 00       		.byte	0
 1894 0209 00       		.byte	0
 1895 020a 2A       		.uleb128 0x2a
 1896 020b 2E       		.uleb128 0x2e
 1897 020c 01       		.byte	0x1
 1898 020d 3F       		.uleb128 0x3f
 1899 020e 19       		.uleb128 0x19
 1900 020f 03       		.uleb128 0x3
 1901 0210 0E       		.uleb128 0xe
 1902 0211 3A       		.uleb128 0x3a
 1903 0212 0B       		.uleb128 0xb
 1904 0213 3B       		.uleb128 0x3b
 1905 0214 05       		.uleb128 0x5
 1906 0215 27       		.uleb128 0x27
 1907 0216 19       		.uleb128 0x19
 1908 0217 3C       		.uleb128 0x3c
 1909 0218 19       		.uleb128 0x19
 1910 0219 00       		.byte	0
 1911 021a 00       		.byte	0
 1912 021b 00       		.byte	0
 1913              		.section	.debug_loc,"",%progbits
 1914              	.Ldebug_loc0:
 1915              	.LLST0:
 1916 0000 00000000 		.4byte	.LVL3
 1917 0004 0A000000 		.4byte	.LVL5
 1918 0008 0100     		.2byte	0x1
 1919 000a 51       		.byte	0x51
 1920 000b 0A000000 		.4byte	.LVL5
 1921 000f 1C000000 		.4byte	.LVL6
 1922 0013 0400     		.2byte	0x4
 1923 0015 F3       		.byte	0xf3
 1924 0016 01       		.uleb128 0x1
 1925 0017 51       		.byte	0x51
 1926 0018 9F       		.byte	0x9f
 1927 0019 1C000000 		.4byte	.LVL6
 1928 001d 22000000 		.4byte	.LVL7
 1929 0021 0100     		.2byte	0x1
 1930 0023 51       		.byte	0x51
 1931 0024 22000000 		.4byte	.LVL7
 1932 0028 38000000 		.4byte	.LFE257
 1933 002c 0400     		.2byte	0x4
 1934 002e F3       		.byte	0xf3
 1935 002f 01       		.uleb128 0x1
 1936 0030 51       		.byte	0x51
 1937 0031 9F       		.byte	0x9f
 1938 0032 00000000 		.4byte	0
ARM GAS  /tmp/ccFbuKoN.s 			page 35


 1939 0036 00000000 		.4byte	0
 1940              	.LLST1:
 1941 003a 06000000 		.4byte	.LVL4
 1942 003e 1C000000 		.4byte	.LVL6
 1943 0042 0200     		.2byte	0x2
 1944 0044 31       		.byte	0x31
 1945 0045 9F       		.byte	0x9f
 1946 0046 00000000 		.4byte	0
 1947 004a 00000000 		.4byte	0
 1948              	.LLST2:
 1949 004e 06000000 		.4byte	.LVL4
 1950 0052 0A000000 		.4byte	.LVL5
 1951 0056 0100     		.2byte	0x1
 1952 0058 51       		.byte	0x51
 1953 0059 0A000000 		.4byte	.LVL5
 1954 005d 1C000000 		.4byte	.LVL6
 1955 0061 0400     		.2byte	0x4
 1956 0063 F3       		.byte	0xf3
 1957 0064 01       		.uleb128 0x1
 1958 0065 51       		.byte	0x51
 1959 0066 9F       		.byte	0x9f
 1960 0067 00000000 		.4byte	0
 1961 006b 00000000 		.4byte	0
 1962              		.section	.debug_aranges,"",%progbits
 1963 0000 2C000000 		.4byte	0x2c
 1964 0004 0200     		.2byte	0x2
 1965 0006 00000000 		.4byte	.Ldebug_info0
 1966 000a 04       		.byte	0x4
 1967 000b 00       		.byte	0
 1968 000c 0000     		.2byte	0
 1969 000e 0000     		.2byte	0
 1970 0010 00000000 		.4byte	.LFB256
 1971 0014 2C000000 		.4byte	.LFE256-.LFB256
 1972 0018 00000000 		.4byte	.LFB257
 1973 001c 38000000 		.4byte	.LFE257-.LFB257
 1974 0020 00000000 		.4byte	.LFB258
 1975 0024 24000000 		.4byte	.LFE258-.LFB258
 1976 0028 00000000 		.4byte	0
 1977 002c 00000000 		.4byte	0
 1978              		.section	.debug_ranges,"",%progbits
 1979              	.Ldebug_ranges0:
 1980 0000 18000000 		.4byte	.LBB8
 1981 0004 1C000000 		.4byte	.LBE8
 1982 0008 20000000 		.4byte	.LBB16
 1983 000c 22000000 		.4byte	.LBE16
 1984 0010 00000000 		.4byte	0
 1985 0014 00000000 		.4byte	0
 1986 0018 1C000000 		.4byte	.LBB11
 1987 001c 20000000 		.4byte	.LBE11
 1988 0020 22000000 		.4byte	.LBB17
 1989 0024 2C000000 		.4byte	.LBE17
 1990 0028 00000000 		.4byte	0
 1991 002c 00000000 		.4byte	0
 1992 0030 00000000 		.4byte	.LFB256
 1993 0034 2C000000 		.4byte	.LFE256
 1994 0038 00000000 		.4byte	.LFB257
 1995 003c 38000000 		.4byte	.LFE257
ARM GAS  /tmp/ccFbuKoN.s 			page 36


 1996 0040 00000000 		.4byte	.LFB258
 1997 0044 24000000 		.4byte	.LFE258
 1998 0048 00000000 		.4byte	0
 1999 004c 00000000 		.4byte	0
 2000              		.section	.debug_line,"",%progbits
 2001              	.Ldebug_line0:
 2002 0000 FD010000 		.section	.debug_str,"MS",%progbits,1
 2002      0200BA01 
 2002      00000201 
 2002      FB0E0D00 
 2002      01010101 
 2003              	.LASF55:
 2004 0000 72656164 		.ascii	"ready_list_t\000"
 2004      795F6C69 
 2004      73745F74 
 2004      00
 2005              	.LASF93:
 2006 000d 77747472 		.ascii	"wttrp\000"
 2006      7000
 2007              	.LASF90:
 2008 0013 7264796D 		.ascii	"rdymsg\000"
 2008      736700
 2009              	.LASF18:
 2010 001a 75696E74 		.ascii	"uint64_t\000"
 2010      36345F74 
 2010      00
 2011              	.LASF4:
 2012 0023 5F5F7569 		.ascii	"__uint8_t\000"
 2012      6E74385F 
 2012      7400
 2013              	.LASF109:
 2014 002d 4F545950 		.ascii	"OTYPER\000"
 2014      455200
 2015              	.LASF87:
 2016 0034 706F7274 		.ascii	"port_intctx\000"
 2016      5F696E74 
 2016      63747800 
 2017              	.LASF74:
 2018 0040 73797374 		.ascii	"system_debug_t\000"
 2018      656D5F64 
 2018      65627567 
 2018      5F7400
 2019              	.LASF117:
 2020 004f 696F706F 		.ascii	"ioportmask_t\000"
 2020      72746D61 
 2020      736B5F74 
 2020      00
 2021              	.LASF108:
 2022 005c 4D4F4445 		.ascii	"MODER\000"
 2022      5200
 2023              	.LASF13:
 2024 0062 6C6F6E67 		.ascii	"long long unsigned int\000"
 2024      206C6F6E 
 2024      6720756E 
 2024      7369676E 
 2024      65642069 
 2025              	.LASF111:
ARM GAS  /tmp/ccFbuKoN.s 			page 37


 2026 0079 50555044 		.ascii	"PUPDR\000"
 2026      5200
 2027              	.LASF91:
 2028 007f 65786974 		.ascii	"exitcode\000"
 2028      636F6465 
 2028      00
 2029              	.LASF81:
 2030 0088 6D61696E 		.ascii	"mainthread\000"
 2030      74687265 
 2030      616400
 2031              	.LASF71:
 2032 0093 76697274 		.ascii	"virtual_timers_list_t\000"
 2032      75616C5F 
 2032      74696D65 
 2032      72735F6C 
 2032      6973745F 
 2033              	.LASF123:
 2034 00a9 49544D5F 		.ascii	"ITM_RxBuffer\000"
 2034      52784275 
 2034      66666572 
 2034      00
 2035              	.LASF54:
 2036 00b6 63685F74 		.ascii	"ch_threads_queue\000"
 2036      68726561 
 2036      64735F71 
 2036      75657565 
 2036      00
 2037              	.LASF32:
 2038 00c7 705F7072 		.ascii	"p_prio\000"
 2038      696F00
 2039              	.LASF11:
 2040 00ce 6C6F6E67 		.ascii	"long long int\000"
 2040      206C6F6E 
 2040      6720696E 
 2040      7400
 2041              	.LASF1:
 2042 00dc 7369676E 		.ascii	"signed char\000"
 2042      65642063 
 2042      68617200 
 2043              	.LASF112:
 2044 00e8 42535252 		.ascii	"BSRR\000"
 2044      00
 2045              	.LASF126:
 2046 00ed 2F686F6D 		.ascii	"/home/benjamin/Skrivbord/SP-RCCar/Embedded/RC_Contr"
 2046      652F6265 
 2046      6E6A616D 
 2046      696E2F53 
 2046      6B726976 
 2047 0120 6F6C6C65 		.ascii	"oller/\000"
 2047      722F00
 2048              	.LASF48:
 2049 0127 705F6D70 		.ascii	"p_mpool\000"
 2049      6F6F6C00 
 2050              	.LASF101:
 2051 012f 6D5F7175 		.ascii	"m_queue\000"
 2051      65756500 
 2052              	.LASF80:
ARM GAS  /tmp/ccFbuKoN.s 			page 38


 2053 0137 76746C69 		.ascii	"vtlist\000"
 2053      737400
 2054              	.LASF23:
 2055 013e 74736C69 		.ascii	"tslices_t\000"
 2055      6365735F 
 2055      7400
 2056              	.LASF120:
 2057 0148 73746174 		.ascii	"state\000"
 2057      6500
 2058              	.LASF78:
 2059 014e 63685F73 		.ascii	"ch_system\000"
 2059      79737465 
 2059      6D00
 2060              	.LASF8:
 2061 0158 6C6F6E67 		.ascii	"long int\000"
 2061      20696E74 
 2061      00
 2062              	.LASF21:
 2063 0161 74737461 		.ascii	"tstate_t\000"
 2063      74655F74 
 2063      00
 2064              	.LASF34:
 2065 016a 705F6E65 		.ascii	"p_newer\000"
 2065      77657200 
 2066              	.LASF98:
 2067 0172 735F7175 		.ascii	"s_queue\000"
 2067      65756500 
 2068              	.LASF110:
 2069 017a 4F535045 		.ascii	"OSPEEDR\000"
 2069      45445200 
 2070              	.LASF60:
 2071 0182 725F6E65 		.ascii	"r_newer\000"
 2071      77657200 
 2072              	.LASF84:
 2073 018a 72656761 		.ascii	"regarm_t\000"
 2073      726D5F74 
 2073      00
 2074              	.LASF67:
 2075 0193 76745F70 		.ascii	"vt_prev\000"
 2075      72657600 
 2076              	.LASF116:
 2077 019b 73746D33 		.ascii	"stm32_gpio_t\000"
 2077      325F6770 
 2077      696F5F74 
 2077      00
 2078              	.LASF105:
 2079 01a8 6D757465 		.ascii	"mutex_t\000"
 2079      785F7400 
 2080              	.LASF82:
 2081 01b0 69646C65 		.ascii	"idle_thread_wa\000"
 2081      5F746872 
 2081      6561645F 
 2081      776100
 2082              	.LASF27:
 2083 01bf 636E745F 		.ascii	"cnt_t\000"
 2083      7400
 2084              	.LASF0:
ARM GAS  /tmp/ccFbuKoN.s 			page 39


 2085 01c5 756E7369 		.ascii	"unsigned int\000"
 2085      676E6564 
 2085      20696E74 
 2085      00
 2086              	.LASF66:
 2087 01d2 76745F6E 		.ascii	"vt_next\000"
 2087      65787400 
 2088              	.LASF15:
 2089 01da 75696E74 		.ascii	"uint16_t\000"
 2089      31365F74 
 2089      00
 2090              	.LASF41:
 2091 01e3 705F7469 		.ascii	"p_time\000"
 2091      6D6500
 2092              	.LASF94:
 2093 01ea 77747365 		.ascii	"wtsemp\000"
 2093      6D7000
 2094              	.LASF68:
 2095 01f1 76745F64 		.ascii	"vt_delta\000"
 2095      656C7461 
 2095      00
 2096              	.LASF43:
 2097 01fa 705F6D73 		.ascii	"p_msgqueue\000"
 2097      67717565 
 2097      756500
 2098              	.LASF113:
 2099 0205 4C434B52 		.ascii	"LCKR\000"
 2099      00
 2100              	.LASF125:
 2101 020a 6C65642E 		.ascii	"led.c\000"
 2101      6300
 2102              	.LASF99:
 2103 0210 735F636E 		.ascii	"s_cnt\000"
 2103      7400
 2104              	.LASF6:
 2105 0216 73686F72 		.ascii	"short unsigned int\000"
 2105      7420756E 
 2105      7369676E 
 2105      65642069 
 2105      6E7400
 2106              	.LASF51:
 2107 0229 63685F74 		.ascii	"ch_thread\000"
 2107      68726561 
 2107      6400
 2108              	.LASF25:
 2109 0233 6D73675F 		.ascii	"msg_t\000"
 2109      7400
 2110              	.LASF77:
 2111 0239 63685F73 		.ascii	"ch_system_t\000"
 2111      79737465 
 2111      6D5F7400 
 2112              	.LASF20:
 2113 0245 746D6F64 		.ascii	"tmode_t\000"
 2113      655F7400 
 2114              	.LASF56:
 2115 024d 63685F72 		.ascii	"ch_ready_list\000"
 2115      65616479 
ARM GAS  /tmp/ccFbuKoN.s 			page 40


 2115      5F6C6973 
 2115      7400
 2116              	.LASF26:
 2117 025b 6576656E 		.ascii	"eventmask_t\000"
 2117      746D6173 
 2117      6B5F7400 
 2118              	.LASF7:
 2119 0267 5F5F696E 		.ascii	"__int32_t\000"
 2119      7433325F 
 2119      7400
 2120              	.LASF85:
 2121 0271 73746B61 		.ascii	"stkalign_t\000"
 2121      6C69676E 
 2121      5F7400
 2122              	.LASF50:
 2123 027c 74687265 		.ascii	"threads_list_t\000"
 2123      6164735F 
 2123      6C697374 
 2123      5F7400
 2124              	.LASF42:
 2125 028b 705F7761 		.ascii	"p_waiting\000"
 2125      6974696E 
 2125      6700
 2126              	.LASF83:
 2127 0295 73697A65 		.ascii	"sizetype\000"
 2127      74797065 
 2127      00
 2128              	.LASF49:
 2129 029e 74687265 		.ascii	"thread_reference_t\000"
 2129      61645F72 
 2129      65666572 
 2129      656E6365 
 2129      5F7400
 2130              	.LASF72:
 2131 02b1 63685F76 		.ascii	"ch_virtual_timers_list\000"
 2131      69727475 
 2131      616C5F74 
 2131      696D6572 
 2131      735F6C69 
 2132              	.LASF107:
 2133 02c8 636C6561 		.ascii	"clear\000"
 2133      7200
 2134              	.LASF35:
 2135 02ce 705F6F6C 		.ascii	"p_older\000"
 2135      64657200 
 2136              	.LASF59:
 2137 02d6 725F6374 		.ascii	"r_ctx\000"
 2137      7800
 2138              	.LASF89:
 2139 02dc 746D5F63 		.ascii	"tm_calibration_t\000"
 2139      616C6962 
 2139      72617469 
 2139      6F6E5F74 
 2139      00
 2140              	.LASF62:
 2141 02ed 725F6375 		.ascii	"r_current\000"
 2141      7272656E 
ARM GAS  /tmp/ccFbuKoN.s 			page 41


 2141      7400
 2142              	.LASF61:
 2143 02f7 725F6F6C 		.ascii	"r_older\000"
 2143      64657200 
 2144              	.LASF122:
 2145 02ff 6C65645F 		.ascii	"led_toggle\000"
 2145      746F6767 
 2145      6C6500
 2146              	.LASF12:
 2147 030a 5F5F7569 		.ascii	"__uint64_t\000"
 2147      6E743634 
 2147      5F7400
 2148              	.LASF115:
 2149 0315 41465248 		.ascii	"AFRH\000"
 2149      00
 2150              	.LASF114:
 2151 031a 4146524C 		.ascii	"AFRL\000"
 2151      00
 2152              	.LASF22:
 2153 031f 74726566 		.ascii	"trefs_t\000"
 2153      735F7400 
 2154              	.LASF64:
 2155 0327 76697274 		.ascii	"virtual_timer_t\000"
 2155      75616C5F 
 2155      74696D65 
 2155      725F7400 
 2156              	.LASF31:
 2157 0337 705F7072 		.ascii	"p_prev\000"
 2157      657600
 2158              	.LASF24:
 2159 033e 74707269 		.ascii	"tprio_t\000"
 2159      6F5F7400 
 2160              	.LASF75:
 2161 0346 63685F73 		.ascii	"ch_system_debug\000"
 2161      79737465 
 2161      6D5F6465 
 2161      62756700 
 2162              	.LASF106:
 2163 0356 5F426F6F 		.ascii	"_Bool\000"
 2163      6C00
 2164              	.LASF16:
 2165 035c 696E7433 		.ascii	"int32_t\000"
 2165      325F7400 
 2166              	.LASF2:
 2167 0364 756E7369 		.ascii	"unsigned char\000"
 2167      676E6564 
 2167      20636861 
 2167      7200
 2168              	.LASF46:
 2169 0372 705F6D74 		.ascii	"p_mtxlist\000"
 2169      786C6973 
 2169      7400
 2170              	.LASF3:
 2171 037c 73686F72 		.ascii	"short int\000"
 2171      7420696E 
 2171      7400
 2172              	.LASF37:
ARM GAS  /tmp/ccFbuKoN.s 			page 42


 2173 0386 705F7374 		.ascii	"p_state\000"
 2173      61746500 
 2174              	.LASF40:
 2175 038e 705F7072 		.ascii	"p_preempt\000"
 2175      65656D70 
 2175      7400
 2176              	.LASF58:
 2177 0398 725F7072 		.ascii	"r_prio\000"
 2177      696F00
 2178              	.LASF96:
 2179 039f 65776D61 		.ascii	"ewmask\000"
 2179      736B00
 2180              	.LASF30:
 2181 03a6 705F6E65 		.ascii	"p_next\000"
 2181      787400
 2182              	.LASF38:
 2183 03ad 705F666C 		.ascii	"p_flags\000"
 2183      61677300 
 2184              	.LASF65:
 2185 03b5 63685F76 		.ascii	"ch_virtual_timer\000"
 2185      69727475 
 2185      616C5F74 
 2185      696D6572 
 2185      00
 2186              	.LASF97:
 2187 03c6 63685F73 		.ascii	"ch_semaphore\000"
 2187      656D6170 
 2187      686F7265 
 2187      00
 2188              	.LASF45:
 2189 03d3 705F6570 		.ascii	"p_epending\000"
 2189      656E6469 
 2189      6E6700
 2190              	.LASF17:
 2191 03de 75696E74 		.ascii	"uint32_t\000"
 2191      33325F74 
 2191      00
 2192              	.LASF95:
 2193 03e7 77746D74 		.ascii	"wtmtxp\000"
 2193      787000
 2194              	.LASF57:
 2195 03ee 725F7175 		.ascii	"r_queue\000"
 2195      65756500 
 2196              	.LASF52:
 2197 03f6 63685F74 		.ascii	"ch_threads_list\000"
 2197      68726561 
 2197      64735F6C 
 2197      69737400 
 2198              	.LASF10:
 2199 0406 6C6F6E67 		.ascii	"long unsigned int\000"
 2199      20756E73 
 2199      69676E65 
 2199      6420696E 
 2199      7400
 2200              	.LASF104:
 2201 0418 63686172 		.ascii	"char\000"
 2201      00
ARM GAS  /tmp/ccFbuKoN.s 			page 43


 2202              	.LASF5:
 2203 041d 5F5F7569 		.ascii	"__uint16_t\000"
 2203      6E743136 
 2203      5F7400
 2204              	.LASF124:
 2205 0428 474E5520 		.ascii	"GNU C 4.9.3 20150529 (release) [ARM/embedded-4_9-br"
 2205      4320342E 
 2205      392E3320 
 2205      32303135 
 2205      30353239 
 2206 045b 616E6368 		.ascii	"anch revision 227977] -mcpu=cortex-m4 -mfloat-abi=h"
 2206      20726576 
 2206      6973696F 
 2206      6E203232 
 2206      37393737 
 2207 048e 61726420 		.ascii	"ard -mfpu=fpv4-sp-d16 -mno-thumb-interwork -mthumb "
 2207      2D6D6670 
 2207      753D6670 
 2207      76342D73 
 2207      702D6431 
 2208 04c1 2D676764 		.ascii	"-ggdb -O2 -std=gnu99 -fomit-frame-pointer -falign-f"
 2208      62202D4F 
 2208      32202D73 
 2208      74643D67 
 2208      6E753939 
 2209 04f4 756E6374 		.ascii	"unctions=16 -ffunction-sections -fdata-sections -fn"
 2209      696F6E73 
 2209      3D313620 
 2209      2D666675 
 2209      6E637469 
 2210 0527 6F2D636F 		.ascii	"o-common -fsingle-precision-constant\000"
 2210      6D6D6F6E 
 2210      202D6673 
 2210      696E676C 
 2210      652D7072 
 2211              	.LASF103:
 2212 054c 6D5F6E65 		.ascii	"m_next\000"
 2212      787400
 2213              	.LASF28:
 2214 0553 73797374 		.ascii	"systime_t\000"
 2214      696D655F 
 2214      7400
 2215              	.LASF47:
 2216 055d 705F7265 		.ascii	"p_realprio\000"
 2216      616C7072 
 2216      696F00
 2217              	.LASF63:
 2218 0568 76746675 		.ascii	"vtfunc_t\000"
 2218      6E635F74 
 2218      00
 2219              	.LASF9:
 2220 0571 5F5F7569 		.ascii	"__uint32_t\000"
 2220      6E743332 
 2220      5F7400
 2221              	.LASF76:
 2222 057c 70616E69 		.ascii	"panic_msg\000"
 2222      635F6D73 
ARM GAS  /tmp/ccFbuKoN.s 			page 44


 2222      6700
 2223              	.LASF88:
 2224 0586 6F666673 		.ascii	"offset\000"
 2224      657400
 2225              	.LASF119:
 2226 058d 696F706F 		.ascii	"ioportid_t\000"
 2226      72746964 
 2226      5F7400
 2227              	.LASF86:
 2228 0598 636F6E74 		.ascii	"context\000"
 2228      65787400 
 2229              	.LASF128:
 2230 05a0 5F70616C 		.ascii	"_pal_lld_setgroupmode\000"
 2230      5F6C6C64 
 2230      5F736574 
 2230      67726F75 
 2230      706D6F64 
 2231              	.LASF19:
 2232 05b6 7274636E 		.ascii	"rtcnt_t\000"
 2232      745F7400 
 2233              	.LASF70:
 2234 05be 76745F70 		.ascii	"vt_par\000"
 2234      617200
 2235              	.LASF53:
 2236 05c5 74687265 		.ascii	"threads_queue_t\000"
 2236      6164735F 
 2236      71756575 
 2236      655F7400 
 2237              	.LASF100:
 2238 05d5 63685F6D 		.ascii	"ch_mutex\000"
 2238      75746578 
 2238      00
 2239              	.LASF39:
 2240 05de 705F7265 		.ascii	"p_refs\000"
 2240      667300
 2241              	.LASF29:
 2242 05e5 74687265 		.ascii	"thread_t\000"
 2242      61645F74 
 2242      00
 2243              	.LASF79:
 2244 05ee 726C6973 		.ascii	"rlist\000"
 2244      7400
 2245              	.LASF14:
 2246 05f4 75696E74 		.ascii	"uint8_t\000"
 2246      385F7400 
 2247              	.LASF92:
 2248 05fc 77746F62 		.ascii	"wtobjp\000"
 2248      6A7000
 2249              	.LASF127:
 2250 0603 6C65645F 		.ascii	"led_write\000"
 2250      77726974 
 2250      6500
 2251              	.LASF36:
 2252 060d 705F6E61 		.ascii	"p_name\000"
 2252      6D6500
 2253              	.LASF73:
 2254 0614 76745F73 		.ascii	"vt_systime\000"
ARM GAS  /tmp/ccFbuKoN.s 			page 45


 2254      79737469 
 2254      6D6500
 2255              	.LASF44:
 2256 061f 705F6D73 		.ascii	"p_msg\000"
 2256      6700
 2257              	.LASF118:
 2258 0625 696F6D6F 		.ascii	"iomode_t\000"
 2258      64655F74 
 2258      00
 2259              	.LASF102:
 2260 062e 6D5F6F77 		.ascii	"m_owner\000"
 2260      6E657200 
 2261              	.LASF33:
 2262 0636 705F6374 		.ascii	"p_ctx\000"
 2262      7800
 2263              	.LASF69:
 2264 063c 76745F66 		.ascii	"vt_func\000"
 2264      756E6300 
 2265              	.LASF121:
 2266 0644 6C65645F 		.ascii	"led_init\000"
 2266      696E6974 
 2266      00
 2267              		.ident	"GCC: (GNU Tools for ARM Embedded Processors) 4.9.3 20150529 (release) [ARM/embedded-4_9-br
ARM GAS  /tmp/ccFbuKoN.s 			page 46


DEFINED SYMBOLS
                            *ABS*:0000000000000000 led.c
     /tmp/ccFbuKoN.s:21     .text.led_init:0000000000000000 $t
     /tmp/ccFbuKoN.s:27     .text.led_init:0000000000000000 led_init
     /tmp/ccFbuKoN.s:81     .text.led_init:0000000000000028 $d
     /tmp/ccFbuKoN.s:89     .text.led_write:0000000000000000 $t
     /tmp/ccFbuKoN.s:95     .text.led_write:0000000000000000 led_write
     /tmp/ccFbuKoN.s:140    .text.led_write:0000000000000034 $d
     /tmp/ccFbuKoN.s:145    .text.led_toggle:0000000000000000 $t
     /tmp/ccFbuKoN.s:151    .text.led_toggle:0000000000000000 led_toggle
     /tmp/ccFbuKoN.s:182    .text.led_toggle:0000000000000020 $d
                     .debug_frame:0000000000000010 $d

UNDEFINED SYMBOLS
_pal_lld_setgroupmode
