ARM GAS  /tmp/ccxUZ42V.s 			page 1


   1              		.syntax unified
   2              		.cpu cortex-m4
   3              		.eabi_attribute 27, 1
   4              		.eabi_attribute 28, 1
   5              		.fpu fpv4-sp-d16
   6              		.eabi_attribute 20, 1
   7              		.eabi_attribute 21, 1
   8              		.eabi_attribute 23, 3
   9              		.eabi_attribute 24, 1
  10              		.eabi_attribute 25, 1
  11              		.eabi_attribute 26, 1
  12              		.eabi_attribute 30, 2
  13              		.eabi_attribute 34, 1
  14              		.eabi_attribute 18, 4
  15              		.thumb
  16              		.file	"MahonyAHRS.c"
  17              		.text
  18              	.Ltext0:
  19              		.cfi_sections	.debug_frame
  20              		.section	.text.calculateAccConfidence,"ax",%progbits
  21              		.align	2
  22              		.p2align 4,,15
  23              		.thumb
  24              		.thumb_func
  25              		.type	calculateAccConfidence, %function
  26              	calculateAccConfidence:
  27              	.LFB0:
  28              		.file 1 "MahonyAHRS.c"
  29              		.loc 1 30 0
  30              		.cfi_startproc
  31              		@ args = 0, pretend = 0, frame = 8
  32              		@ frame_needed = 0, uses_anonymous_args = 0
  33              	.LVL0:
  34              		.loc 1 36 0
  35 0000 DFED177A 		flds	s15, .L6
  36 0004 D0ED006A 		flds	s13, [r0]
  37 0008 9FED167A 		flds	s14, .L6+4
  38 000c 20EE270A 		fmuls	s0, s0, s15
  39              	.LVL1:
  40              		.loc 1 39 0
  41 0010 F7EE007A 		fconsts	s15, #112
  42              		.loc 1 36 0
  43 0014 A6EE870A 		vfma.f32	s0, s13, s14
  44              	.LVL2:
  45              		.loc 1 30 0
  46 0018 00B5     		push	{lr}
  47              		.cfi_def_cfa_offset 4
  48              		.cfi_offset 14, -4
  49              		.loc 1 39 0
  50 001a 70EE677A 		fsubs	s15, s0, s15
  51              		.loc 1 37 0
  52 001e 80ED000A 		fsts	s0, [r0]
  53              		.loc 1 39 0
  54 0022 B0EEE70A 		fabss	s0, s15
  55              	.LVL3:
  56 0026 F1EEC07A 		fsqrts	s15, s0
  57              		.loc 1 30 0
ARM GAS  /tmp/ccxUZ42V.s 			page 2


  58 002a 83B0     		sub	sp, sp, #12
  59              		.cfi_def_cfa_offset 16
  60              		.loc 1 39 0
  61 002c F4EE677A 		fcmps	s15, s15
  62 0030 F1EE10FA 		fmstat
  63 0034 0FD1     		bne	.L5
  64              	.LVL4:
  65              	.L2:
  66 0036 F7EE000A 		fconsts	s1, #112
  67 003a 70EEE77A 		fsubs	s15, s1, s15
  68 003e 02A8     		add	r0, sp, #8
  69 0040 60ED017A 		fstmdbs	r0!, {s15}
  70              		.loc 1 40 0
  71 0044 9FED080A 		flds	s0, .L6+8
  72 0048 FFF7FEFF 		bl	utils_truncate_number
  73              	.LVL5:
  74              		.loc 1 43 0
  75 004c 9DED010A 		flds	s0, [sp, #4]
  76 0050 03B0     		add	sp, sp, #12
  77              		.cfi_remember_state
  78              		.cfi_def_cfa_offset 4
  79              		@ sp needed
  80 0052 5DF804FB 		ldr	pc, [sp], #4
  81              	.LVL6:
  82              	.L5:
  83              		.cfi_restore_state
  84              		.loc 1 39 0
  85 0056 FFF7FEFF 		bl	sqrtf
  86              	.LVL7:
  87 005a F0EE407A 		fcpys	s15, s0
  88 005e EAE7     		b	.L2
  89              	.L7:
  90              		.align	2
  91              	.L6:
  92 0060 CDCCCC3D 		.word	1036831949
  93 0064 6666663F 		.word	1063675494
  94 0068 00000000 		.word	0
  95              		.cfi_endproc
  96              	.LFE0:
  97              		.size	calculateAccConfidence, .-calculateAccConfidence
  98              		.section	.text.MahonyAHRSInitAttitudeInfo,"ax",%progbits
  99              		.align	2
 100              		.p2align 4,,15
 101              		.global	MahonyAHRSInitAttitudeInfo
 102              		.thumb
 103              		.thumb_func
 104              		.type	MahonyAHRSInitAttitudeInfo, %function
 105              	MahonyAHRSInitAttitudeInfo:
 106              	.LFB1:
 107              		.loc 1 45 0
 108              		.cfi_startproc
 109              		@ args = 0, pretend = 0, frame = 0
 110              		@ frame_needed = 0, uses_anonymous_args = 0
 111              		@ link register save eliminated.
 112              	.LVL8:
 113              		.loc 1 47 0
 114 0000 0023     		movs	r3, #0
ARM GAS  /tmp/ccxUZ42V.s 			page 3


 115              		.loc 1 46 0
 116 0002 4FF07E52 		mov	r2, #1065353216
 117              		.loc 1 54 0
 118 0006 0021     		movs	r1, #0
 119 0008 0162     		str	r1, [r0, #32]
 120              		.loc 1 46 0
 121 000a 0260     		str	r2, [r0]	@ float
 122              		.loc 1 53 0
 123 000c C261     		str	r2, [r0, #28]	@ float
 124              		.loc 1 47 0
 125 000e 4360     		str	r3, [r0, #4]	@ float
 126              		.loc 1 48 0
 127 0010 8360     		str	r3, [r0, #8]	@ float
 128              		.loc 1 49 0
 129 0012 C360     		str	r3, [r0, #12]	@ float
 130              		.loc 1 50 0
 131 0014 0361     		str	r3, [r0, #16]	@ float
 132              		.loc 1 51 0
 133 0016 4361     		str	r3, [r0, #20]	@ float
 134              		.loc 1 52 0
 135 0018 8361     		str	r3, [r0, #24]	@ float
 136 001a 7047     		bx	lr
 137              		.cfi_endproc
 138              	.LFE1:
 139              		.size	MahonyAHRSInitAttitudeInfo, .-MahonyAHRSInitAttitudeInfo
 140              		.section	.text.MahonyAHRSupdateInitialOrientation,"ax",%progbits
 141              		.align	2
 142              		.p2align 4,,15
 143              		.global	MahonyAHRSupdateInitialOrientation
 144              		.thumb
 145              		.thumb_func
 146              		.type	MahonyAHRSupdateInitialOrientation, %function
 147              	MahonyAHRSupdateInitialOrientation:
 148              	.LFB2:
 149              		.loc 1 57 0
 150              		.cfi_startproc
 151              		@ args = 0, pretend = 0, frame = 0
 152              		@ frame_needed = 0, uses_anonymous_args = 0
 153              	.LVL9:
 154 0000 70B5     		push	{r4, r5, r6, lr}
 155              		.cfi_def_cfa_offset 16
 156              		.cfi_offset 4, -16
 157              		.cfi_offset 5, -12
 158              		.cfi_offset 6, -8
 159              		.cfi_offset 14, -4
 160              		.loc 1 63 0
 161 0002 90ED010A 		flds	s0, [r0, #4]
 162 0006 D0ED020A 		flds	s1, [r0, #8]
 163              		.loc 1 57 0
 164 000a 2DED068B 		fstmfdd	sp!, {d8, d9, d10}
 165              		.cfi_def_cfa_offset 40
 166              		.cfi_offset 80, -40
 167              		.cfi_offset 81, -36
 168              		.cfi_offset 82, -32
 169              		.cfi_offset 83, -28
 170              		.cfi_offset 84, -24
 171              		.cfi_offset 85, -20
ARM GAS  /tmp/ccxUZ42V.s 			page 4


 172              		.loc 1 63 0
 173 000e F1EE600A 		fnegs	s1, s1
 174 0012 B1EE400A 		fnegs	s0, s0
 175              		.loc 1 57 0
 176 0016 1446     		mov	r4, r2
 177 0018 0E46     		mov	r6, r1
 178 001a 0546     		mov	r5, r0
 179              		.loc 1 63 0
 180 001c FFF7FEFF 		bl	atan2f
 181              	.LVL10:
 182              		.loc 1 64 0
 183 0020 D5ED020A 		flds	s1, [r5, #8]
 184              		.loc 1 63 0
 185 0024 F0EE408A 		fcpys	s17, s0
 186              	.LVL11:
 187              		.loc 1 64 0
 188 0028 F1EE600A 		fnegs	s1, s1
 189 002c 95ED000A 		flds	s0, [r5]
 190              	.LVL12:
 191 0030 FFF7FEFF 		bl	atan2f
 192              	.LVL13:
 193 0034 B0EE408A 		fcpys	s16, s0
 194              	.LVL14:
 195              		.loc 1 66 0
 196 0038 B0EE680A 		fcpys	s0, s17
 197              	.LVL15:
 198 003c FFF7FEFF 		bl	cosf
 199              	.LVL16:
 200 0040 F0EE409A 		fcpys	s19, s0
 201              	.LVL17:
 202              		.loc 1 67 0
 203 0044 B0EE680A 		fcpys	s0, s17
 204              	.LVL18:
 205 0048 FFF7FEFF 		bl	sinf
 206              	.LVL19:
 207 004c B0EE409A 		fcpys	s18, s0
 208              	.LVL20:
 209              		.loc 1 68 0
 210 0050 B0EE480A 		fcpys	s0, s16
 211              	.LVL21:
 212 0054 FFF7FEFF 		bl	cosf
 213              	.LVL22:
 214 0058 B0EE40AA 		fcpys	s20, s0
 215              	.LVL23:
 216              		.loc 1 69 0
 217 005c B0EE480A 		fcpys	s0, s16
 218              	.LVL24:
 219 0060 FFF7FEFF 		bl	sinf
 220              	.LVL25:
 221              		.loc 1 71 0
 222 0064 D6ED017A 		flds	s15, [r6, #4]
 223 0068 D6ED006A 		flds	s13, [r6]
 224              		.loc 1 69 0
 225 006c B0EE407A 		fcpys	s14, s0
 226              	.LVL26:
 227              		.loc 1 71 0
 228 0070 67EE890A 		fmuls	s1, s15, s18
ARM GAS  /tmp/ccxUZ42V.s 			page 5


 229 0074 96ED020A 		flds	s0, [r6, #8]
 230              	.LVL27:
 231 0078 60EE870A 		fmuls	s1, s1, s14
 232 007c 20EE499A 		fnmuls	s18, s0, s18
 233              	.LVL28:
 234 0080 E6EE8A0A 		vfma.f32	s1, s13, s20
 235              		.loc 1 72 0
 236 0084 A9EEA79A 		vfma.f32	s18, s19, s15
 237              	.LVL29:
 238              		.loc 1 71 0
 239 0088 60EE297A 		fmuls	s15, s0, s19
 240              		.loc 1 74 0
 241 008c B1EE490A 		fnegs	s0, s18
 242 0090 E7EE870A 		vfma.f32	s1, s15, s14
 243              	.LVL30:
 244 0094 FFF7FEFF 		bl	atan2f
 245              	.LVL31:
 246              		.loc 1 76 0
 247 0098 B6EE00AA 		fconsts	s20, #96
 248              	.LVL32:
 249 009c 68EE8A8A 		fmuls	s17, s17, s20
 250              	.LVL33:
 251              		.loc 1 74 0
 252 00a0 F0EE409A 		fcpys	s19, s0
 253              	.LVL34:
 254              		.loc 1 76 0
 255 00a4 B0EE680A 		fcpys	s0, s17
 256              	.LVL35:
 257 00a8 FFF7FEFF 		bl	cosf
 258              	.LVL36:
 259 00ac B0EE409A 		fcpys	s18, s0
 260              	.LVL37:
 261              		.loc 1 77 0
 262 00b0 B0EE680A 		fcpys	s0, s17
 263              	.LVL38:
 264 00b4 FFF7FEFF 		bl	sinf
 265              	.LVL39:
 266              		.loc 1 79 0
 267 00b8 28EE0A8A 		fmuls	s16, s16, s20
 268              	.LVL40:
 269              		.loc 1 77 0
 270 00bc F0EE408A 		fcpys	s17, s0
 271              	.LVL41:
 272              		.loc 1 79 0
 273 00c0 B0EE480A 		fcpys	s0, s16
 274              	.LVL42:
 275 00c4 FFF7FEFF 		bl	cosf
 276              	.LVL43:
 277 00c8 F0EE40AA 		fcpys	s21, s0
 278              	.LVL44:
 279              		.loc 1 80 0
 280 00cc B0EE480A 		fcpys	s0, s16
 281              	.LVL45:
 282 00d0 FFF7FEFF 		bl	sinf
 283              	.LVL46:
 284              		.loc 1 82 0
 285 00d4 29EE8AAA 		fmuls	s20, s19, s20
ARM GAS  /tmp/ccxUZ42V.s 			page 6


 286              		.loc 1 80 0
 287 00d8 B0EE408A 		fcpys	s16, s0
 288              	.LVL47:
 289              		.loc 1 82 0
 290 00dc B0EE4A0A 		fcpys	s0, s20
 291              	.LVL48:
 292 00e0 FFF7FEFF 		bl	cosf
 293              	.LVL49:
 294 00e4 F0EE409A 		fcpys	s19, s0
 295              	.LVL50:
 296              		.loc 1 83 0
 297 00e8 B0EE4A0A 		fcpys	s0, s20
 298              	.LVL51:
 299 00ec FFF7FEFF 		bl	sinf
 300              	.LVL52:
 301              		.loc 1 85 0
 302 00f0 68EE887A 		fmuls	s15, s17, s16
 303              		.loc 1 86 0
 304 00f4 29EE088A 		fmuls	s16, s18, s16
 305              	.LVL53:
 306 00f8 68EEAA8A 		fmuls	s17, s17, s21
 307              	.LVL54:
 308              		.loc 1 85 0
 309 00fc 29EE2A9A 		fmuls	s18, s18, s21
 310              	.LVL55:
 311 0100 27EE806A 		fmuls	s12, s15, s0
 312 0104 60EE486A 		fnmuls	s13, s0, s16
 313 0108 67EEE97A 		fnmuls	s15, s15, s19
 314              		.loc 1 87 0
 315 010c 20EE287A 		fmuls	s14, s0, s17
 316              		.loc 1 85 0
 317 0110 A9EE296A 		vfma.f32	s12, s18, s19
 318              		.loc 1 88 0
 319 0114 E0EE097A 		vfma.f32	s15, s0, s18
 320              		.loc 1 86 0
 321 0118 E8EEA96A 		vfma.f32	s13, s17, s19
 322              		.loc 1 87 0
 323 011c A9EE887A 		vfma.f32	s14, s19, s16
 324              		.loc 1 89 0
 325 0120 BDEC068B 		fldmfdd	sp!, {d8-d10}
 326              		.cfi_restore 84
 327              		.cfi_restore 85
 328              		.cfi_restore 82
 329              		.cfi_restore 83
 330              		.cfi_restore 80
 331              		.cfi_restore 81
 332              		.cfi_def_cfa_offset 16
 333              		.loc 1 85 0
 334 0124 84ED006A 		fsts	s12, [r4]
 335              		.loc 1 88 0
 336 0128 C4ED037A 		fsts	s15, [r4, #12]
 337              		.loc 1 86 0
 338 012c C4ED016A 		fsts	s13, [r4, #4]
 339              		.loc 1 87 0
 340 0130 84ED027A 		fsts	s14, [r4, #8]
 341              		.loc 1 89 0
 342 0134 70BD     		pop	{r4, r5, r6, pc}
ARM GAS  /tmp/ccxUZ42V.s 			page 7


 343              		.cfi_endproc
 344              	.LFE2:
 345              		.size	MahonyAHRSupdateInitialOrientation, .-MahonyAHRSupdateInitialOrientation
 346 0136 00BF     		.section	.text.MahonyAHRSupdateIMU,"ax",%progbits
 347              		.align	2
 348              		.p2align 4,,15
 349              		.global	MahonyAHRSupdateIMU
 350              		.thumb
 351              		.thumb_func
 352              		.type	MahonyAHRSupdateIMU, %function
 353              	MahonyAHRSupdateIMU:
 354              	.LFB4:
 355              		.loc 1 224 0
 356              		.cfi_startproc
 357              		@ args = 0, pretend = 0, frame = 8
 358              		@ frame_needed = 0, uses_anonymous_args = 0
 359              	.LVL56:
 360 0000 10B5     		push	{r4, lr}
 361              		.cfi_def_cfa_offset 8
 362              		.cfi_offset 4, -8
 363              		.cfi_offset 14, -4
 364 0002 2DED088B 		fstmfdd	sp!, {d8, d9, d10, d11}
 365              		.cfi_def_cfa_offset 40
 366              		.cfi_offset 80, -40
 367              		.cfi_offset 81, -36
 368              		.cfi_offset 82, -32
 369              		.cfi_offset 83, -28
 370              		.cfi_offset 84, -24
 371              		.cfi_offset 85, -20
 372              		.cfi_offset 86, -16
 373              		.cfi_offset 87, -12
 374              		.loc 1 235 0
 375 0006 D1ED01BA 		flds	s23, [r1, #4]
 376              		.loc 1 234 0
 377 000a D1ED00AA 		flds	s21, [r1]
 378              		.loc 1 236 0
 379 000e 91ED02BA 		flds	s22, [r1, #8]
 380              		.loc 1 238 0
 381 0012 8F49     		ldr	r1, .L23
 382              	.LVL57:
 383              		.loc 1 230 0
 384 0014 90ED008A 		flds	s16, [r0]
 385              	.LVL58:
 386              		.loc 1 231 0
 387 0018 90ED019A 		flds	s18, [r0, #4]
 388              	.LVL59:
 389              		.loc 1 232 0
 390 001c D0ED028A 		flds	s17, [r0, #8]
 391              	.LVL60:
 392              		.loc 1 242 0
 393 0020 6BEEAB9A 		fmuls	s19, s23, s23
 394              		.loc 1 224 0
 395 0024 B0EE40AA 		fcpys	s20, s0
 396              		.loc 1 242 0
 397 0028 EAEEAA9A 		vfma.f32	s19, s21, s21
 398              		.loc 1 224 0
 399 002c 82B0     		sub	sp, sp, #8
ARM GAS  /tmp/ccxUZ42V.s 			page 8


 400              		.cfi_def_cfa_offset 48
 401              		.loc 1 239 0
 402 002e 0023     		movs	r3, #0
 403              		.loc 1 238 0
 404 0030 0091     		str	r1, [sp]	@ float
 405              		.loc 1 242 0
 406 0032 EBEE0B9A 		vfma.f32	s19, s22, s22
 407              		.loc 1 224 0
 408 0036 1446     		mov	r4, r2
 409              		.loc 1 239 0
 410 0038 0193     		str	r3, [sp, #4]	@ float
 411              		.loc 1 242 0
 412 003a B1EEE90A 		fsqrts	s0, s19
 413              	.LVL61:
 414 003e B4EE400A 		fcmps	s0, s0
 415 0042 F1EE10FA 		fmstat
 416 0046 40F0FE80 		bne	.L22
 417              	.LVL62:
 418              	.L12:
 419              		.loc 1 246 0
 420 004a DFED827A 		flds	s15, .L23+4
 421 004e B4EEE70A 		fcmpes	s0, s15
 422 0052 F1EE10FA 		fmstat
 423 0056 63DC     		bgt	.L18
 424 0058 D4ED014A 		flds	s9, [r4, #4]
 425 005c D4ED036A 		flds	s13, [r4, #12]
 426 0060 D4ED002A 		flds	s5, [r4]
 427 0064 94ED022A 		flds	s4, [r4, #8]
 428              	.LVL63:
 429              	.L13:
 430              		.loc 1 288 0
 431 0068 B6EE003A 		fconsts	s6, #96
 432 006c 2AEE030A 		fmuls	s0, s20, s6
 433              	.LBB12:
 434              	.LBB13:
 435              		.loc 1 353 0
 436 0070 F7EE087A 		fconsts	s15, #120
 437              	.LBE13:
 438              	.LBE12:
 439              		.loc 1 290 0
 440 0074 68EE803A 		fmuls	s7, s17, s0
 441              		.loc 1 288 0
 442 0078 20EE084A 		fmuls	s8, s0, s16
 443              	.LVL64:
 444              		.loc 1 295 0
 445 007c 62EE235A 		fmuls	s11, s4, s7
 446              		.loc 1 289 0
 447 0080 29EE000A 		fmuls	s0, s18, s0
 448              	.LVL65:
 449              		.loc 1 295 0
 450 0084 E2EE845A 		vfma.f32	s11, s5, s8
 451 0088 20EE425A 		fnmuls	s10, s0, s4
 452 008c E0EE665A 		vfms.f32	s11, s0, s13
 453              		.loc 1 294 0
 454 0090 A4EEC45A 		vfms.f32	s10, s9, s8
 455 0094 23EEE46A 		fnmuls	s12, s7, s9
 456 0098 A6EEE35A 		vfms.f32	s10, s13, s7
ARM GAS  /tmp/ccxUZ42V.s 			page 9


 457              		.loc 1 296 0
 458 009c A2EE806A 		vfma.f32	s12, s5, s0
 459              		.loc 1 295 0
 460 00a0 74EEA55A 		fadds	s11, s9, s11
 461              		.loc 1 297 0
 462 00a4 64EE804A 		fmuls	s9, s9, s0
 463              	.LVL66:
 464              		.loc 1 294 0
 465 00a8 32EE855A 		fadds	s10, s5, s10
 466              		.loc 1 296 0
 467 00ac A4EE266A 		vfma.f32	s12, s8, s13
 468              		.loc 1 300 0
 469 00b0 25EEA57A 		fmuls	s14, s11, s11
 470              		.loc 1 297 0
 471 00b4 E2EEA34A 		vfma.f32	s9, s5, s7
 472              		.loc 1 300 0
 473 00b8 A5EE057A 		vfma.f32	s14, s10, s10
 474              		.loc 1 296 0
 475 00bc 32EE066A 		fadds	s12, s4, s12
 476              		.loc 1 297 0
 477 00c0 E2EE444A 		vfms.f32	s9, s4, s8
 478              		.loc 1 300 0
 479 00c4 A6EE067A 		vfma.f32	s14, s12, s12
 480              		.loc 1 297 0
 481 00c8 76EEA46A 		fadds	s13, s13, s9
 482              		.loc 1 300 0
 483 00cc A6EEA67A 		vfma.f32	s14, s13, s13
 484              	.LVL67:
 485              	.LBB15:
 486              	.LBB14:
 487              		.loc 1 352 0
 488 00d0 17EE103A 		fmrs	r3, s14	@ int
 489 00d4 5B10     		asrs	r3, r3, #1
 490              		.loc 1 353 0
 491 00d6 C3F1BE43 		rsb	r3, r3, #1593835520
 492 00da 03F55D13 		add	r3, r3, #3620864
 493 00de 03F5CE53 		add	r3, r3, #6592
 494 00e2 1F33     		adds	r3, r3, #31
 495 00e4 04EE903A 		fmsr	s9, r3
 496              		.loc 1 350 0
 497 00e8 27EE037A 		fmuls	s14, s14, s6
 498              	.LVL68:
 499              		.loc 1 353 0
 500 00ec 27EE247A 		fmuls	s14, s14, s9
 501              	.LVL69:
 502 00f0 E4EEC77A 		vfms.f32	s15, s9, s14
 503 00f4 64EEA77A 		fmuls	s15, s9, s15
 504              	.LVL70:
 505              	.LBE14:
 506              	.LBE15:
 507              		.loc 1 301 0
 508 00f8 25EE275A 		fmuls	s10, s10, s15
 509              	.LVL71:
 510              		.loc 1 302 0
 511 00fc 65EEA75A 		fmuls	s11, s11, s15
 512              		.loc 1 303 0
 513 0100 26EE276A 		fmuls	s12, s12, s15
ARM GAS  /tmp/ccxUZ42V.s 			page 10


 514              		.loc 1 304 0
 515 0104 66EEA76A 		fmuls	s13, s13, s15
 516              		.loc 1 301 0
 517 0108 84ED005A 		fsts	s10, [r4]
 518              		.loc 1 302 0
 519 010c C4ED015A 		fsts	s11, [r4, #4]
 520              		.loc 1 303 0
 521 0110 84ED026A 		fsts	s12, [r4, #8]
 522              		.loc 1 304 0
 523 0114 C4ED036A 		fsts	s13, [r4, #12]
 524              		.loc 1 305 0
 525 0118 02B0     		add	sp, sp, #8
 526              		.cfi_remember_state
 527              		.cfi_def_cfa_offset 40
 528              		@ sp needed
 529 011a BDEC088B 		fldmfdd	sp!, {d8-d11}
 530              		.cfi_restore 86
 531              		.cfi_restore 87
 532              		.cfi_restore 84
 533              		.cfi_restore 85
 534              		.cfi_restore 82
 535              		.cfi_restore 83
 536              		.cfi_restore 80
 537              		.cfi_restore 81
 538              		.cfi_def_cfa_offset 8
 539              	.LVL72:
 540 011e 10BD     		pop	{r4, pc}
 541              	.LVL73:
 542              	.L18:
 543              		.cfi_restore_state
 544              		.loc 1 247 0
 545 0120 04F11C00 		add	r0, r4, #28
 546 0124 FFF7FEFF 		bl	calculateAccConfidence
 547              	.LVL74:
 548              	.LBB16:
 549              	.LBB17:
 550              		.loc 1 352 0
 551 0128 19EE903A 		fmrs	r3, s19	@ int
 552 012c 5B10     		asrs	r3, r3, #1
 553              		.loc 1 353 0
 554 012e C3F1BE43 		rsb	r3, r3, #1593835520
 555 0132 03F55D13 		add	r3, r3, #3620864
 556 0136 03F5CE53 		add	r3, r3, #6592
 557 013a 1F33     		adds	r3, r3, #31
 558              		.loc 1 350 0
 559 013c F6EE007A 		fconsts	s15, #96
 560 0140 69EEA79A 		fmuls	s19, s19, s15
 561              		.loc 1 353 0
 562 0144 07EE903A 		fmsr	s15, r3
 563              	.LBE17:
 564              	.LBE16:
 565              		.loc 1 248 0
 566 0148 9DED005A 		flds	s10, [sp]
 567              		.loc 1 258 0
 568 014c D4ED002A 		flds	s5, [r4]
 569 0150 D4ED036A 		flds	s13, [r4, #12]
 570 0154 94ED022A 		flds	s4, [r4, #8]
ARM GAS  /tmp/ccxUZ42V.s 			page 11


 571 0158 D4ED014A 		flds	s9, [r4, #4]
 572              	.LBB23:
 573              	.LBB18:
 574              		.loc 1 353 0
 575 015c 69EEA79A 		fmuls	s19, s19, s15
 576 0160 06EE103A 		fmsr	s12, r3
 577              	.LBE18:
 578              	.LBE23:
 579              		.loc 1 248 0
 580 0164 25EE005A 		fmuls	s10, s10, s0
 581              	.LBB24:
 582              	.LBB19:
 583              		.loc 1 353 0
 584 0168 F7EE087A 		fconsts	s15, #120
 585              	.LBE19:
 586              	.LBE24:
 587              		.loc 1 260 0
 588 016c BEEE007A 		fconsts	s14, #224
 589              	.LBB25:
 590              	.LBB20:
 591              		.loc 1 353 0
 592 0170 E6EE697A 		vfms.f32	s15, s12, s19
 593              	.LBE20:
 594              	.LBE25:
 595              		.loc 1 268 0
 596 0174 0022     		movs	r2, #0
 597              		.loc 1 260 0
 598 0176 A2EEA27A 		vfma.f32	s14, s5, s5
 599              		.loc 1 248 0
 600 017a 8DED005A 		fsts	s10, [sp]
 601              		.loc 1 249 0
 602 017e 9DED015A 		flds	s10, [sp, #4]
 603              	.LBB26:
 604              	.LBB21:
 605              		.loc 1 353 0
 606 0182 04EE103A 		fmsr	s8, r3
 607              	.LBE21:
 608              	.LBE26:
 609              		.loc 1 259 0
 610 0186 26EE826A 		fmuls	s12, s13, s4
 611 018a 62EE625A 		fnmuls	s11, s4, s5
 612              	.LBB27:
 613              	.LBB22:
 614              		.loc 1 353 0
 615 018e 64EE277A 		fmuls	s15, s8, s15
 616              	.LBE22:
 617              	.LBE27:
 618              		.loc 1 260 0
 619 0192 A6EEA67A 		vfma.f32	s14, s13, s13
 620              		.loc 1 259 0
 621 0196 A4EEA26A 		vfma.f32	s12, s9, s5
 622              		.loc 1 249 0
 623 019a 25EE000A 		fmuls	s0, s10, s0
 624              	.LVL75:
 625              		.loc 1 258 0
 626 019e E4EEA65A 		vfma.f32	s11, s9, s13
 627              		.loc 1 253 0
ARM GAS  /tmp/ccxUZ42V.s 			page 12


 628 01a2 6AEEA7AA 		fmuls	s21, s21, s15
 629              	.LVL76:
 630              		.loc 1 255 0
 631 01a6 2BEE27BA 		fmuls	s22, s22, s15
 632              	.LVL77:
 633              		.loc 1 249 0
 634 01aa 8DED010A 		fsts	s0, [sp, #4]
 635              		.loc 1 254 0
 636 01ae 6BEEA7BA 		fmuls	s23, s23, s15
 637              	.LVL78:
 638              		.loc 1 268 0
 639 01b2 DDED013A 		flds	s7, [sp, #4]
 640 01b6 26EE4B4A 		fnmuls	s8, s12, s22
 641 01ba 27EE6A5A 		fnmuls	s10, s14, s21
 642 01be 65EEEB7A 		fnmuls	s15, s11, s23
 643              	.LVL79:
 644 01c2 F5EEC03A 		fcmpezs	s7
 645              		.loc 1 263 0
 646 01c6 ABEE874A 		vfma.f32	s8, s23, s14
 647              	.LVL80:
 648              		.loc 1 268 0
 649 01ca F1EE10FA 		fmstat
 650              		.loc 1 264 0
 651 01ce B0EE457A 		fcpys	s14, s10
 652              	.LVL81:
 653 01d2 ABEE257A 		vfma.f32	s14, s22, s11
 654              	.LVL82:
 655              		.loc 1 265 0
 656 01d6 EAEE867A 		vfma.f32	s15, s21, s12
 657              	.LVL83:
 658              		.loc 1 268 0
 659 01da 30DD     		ble	.L20
 660              		.loc 1 269 0
 661 01dc DDED011A 		flds	s3, [sp, #4]
 662              		.loc 1 270 0
 663 01e0 9DED013A 		flds	s6, [sp, #4]
 664              		.loc 1 271 0
 665 01e4 DDED013A 		flds	s7, [sp, #4]
 666              		.loc 1 269 0
 667 01e8 94ED045A 		flds	s10, [r4, #16]
 668              		.loc 1 270 0
 669 01ec D4ED055A 		flds	s11, [r4, #20]
 670              	.LVL84:
 671              		.loc 1 271 0
 672 01f0 94ED066A 		flds	s12, [r4, #24]
 673              	.LVL85:
 674              		.loc 1 269 0
 675 01f4 61EE841A 		fmuls	s3, s3, s8
 676              		.loc 1 270 0
 677 01f8 23EE073A 		fmuls	s6, s6, s14
 678              		.loc 1 271 0
 679 01fc 63EEA73A 		fmuls	s7, s7, s15
 680              		.loc 1 269 0
 681 0200 A1EE8A5A 		vfma.f32	s10, s3, s20
 682              		.loc 1 270 0
 683 0204 E3EE0A5A 		vfma.f32	s11, s6, s20
 684              		.loc 1 271 0
ARM GAS  /tmp/ccxUZ42V.s 			page 13


 685 0208 A3EE8A6A 		vfma.f32	s12, s7, s20
 686              		.loc 1 272 0
 687 020c 38EE058A 		fadds	s16, s16, s10
 688              	.LVL86:
 689              		.loc 1 273 0
 690 0210 39EE259A 		fadds	s18, s18, s11
 691              	.LVL87:
 692              		.loc 1 274 0
 693 0214 78EE868A 		fadds	s17, s17, s12
 694              	.LVL88:
 695              		.loc 1 269 0
 696 0218 84ED045A 		fsts	s10, [r4, #16]
 697              		.loc 1 270 0
 698 021c C4ED055A 		fsts	s11, [r4, #20]
 699              		.loc 1 271 0
 700 0220 84ED066A 		fsts	s12, [r4, #24]
 701              	.L17:
 702              		.loc 1 282 0
 703 0224 9DED005A 		flds	s10, [sp]
 704              		.loc 1 283 0
 705 0228 DDED005A 		flds	s11, [sp]
 706              		.loc 1 284 0
 707 022c 9DED006A 		flds	s12, [sp]
 708              		.loc 1 282 0
 709 0230 A5EE048A 		vfma.f32	s16, s10, s8
 710              	.LVL89:
 711              		.loc 1 283 0
 712 0234 A5EE879A 		vfma.f32	s18, s11, s14
 713              	.LVL90:
 714              		.loc 1 284 0
 715 0238 E6EE278A 		vfma.f32	s17, s12, s15
 716              	.LVL91:
 717 023c 14E7     		b	.L13
 718              	.LVL92:
 719              	.L20:
 720              		.loc 1 276 0
 721 023e 2261     		str	r2, [r4, #16]	@ float
 722              		.loc 1 277 0
 723 0240 6261     		str	r2, [r4, #20]	@ float
 724              		.loc 1 278 0
 725 0242 A261     		str	r2, [r4, #24]	@ float
 726 0244 EEE7     		b	.L17
 727              	.LVL93:
 728              	.L22:
 729              		.loc 1 242 0
 730 0246 B0EE690A 		fcpys	s0, s19
 731 024a FFF7FEFF 		bl	sqrtf
 732              	.LVL94:
 733 024e FCE6     		b	.L12
 734              	.L24:
 735              		.align	2
 736              	.L23:
 737 0250 9A99193F 		.word	1058642330
 738 0254 0AD7233C 		.word	1008981770
 739              		.cfi_endproc
 740              	.LFE4:
 741              		.size	MahonyAHRSupdateIMU, .-MahonyAHRSupdateIMU
ARM GAS  /tmp/ccxUZ42V.s 			page 14


 742              		.section	.text.MahonyAHRSupdate,"ax",%progbits
 743              		.align	2
 744              		.p2align 4,,15
 745              		.global	MahonyAHRSupdate
 746              		.thumb
 747              		.thumb_func
 748              		.type	MahonyAHRSupdate, %function
 749              	MahonyAHRSupdate:
 750              	.LFB3:
 751              		.loc 1 96 0
 752              		.cfi_startproc
 753              		@ args = 0, pretend = 0, frame = 32
 754              		@ frame_needed = 0, uses_anonymous_args = 0
 755              	.LVL95:
 756 0000 F0B5     		push	{r4, r5, r6, r7, lr}
 757              		.cfi_def_cfa_offset 20
 758              		.cfi_offset 4, -20
 759              		.cfi_offset 5, -16
 760              		.cfi_offset 6, -12
 761              		.cfi_offset 7, -8
 762              		.cfi_offset 14, -4
 763 0002 2DED108B 		fstmfdd	sp!, {d8, d9, d10, d11, d12, d13, d14, d15}
 764              		.cfi_def_cfa_offset 84
 765              		.cfi_offset 80, -84
 766              		.cfi_offset 81, -80
 767              		.cfi_offset 82, -76
 768              		.cfi_offset 83, -72
 769              		.cfi_offset 84, -68
 770              		.cfi_offset 85, -64
 771              		.cfi_offset 86, -60
 772              		.cfi_offset 87, -56
 773              		.cfi_offset 88, -52
 774              		.cfi_offset 89, -48
 775              		.cfi_offset 90, -44
 776              		.cfi_offset 91, -40
 777              		.cfi_offset 92, -36
 778              		.cfi_offset 93, -32
 779              		.cfi_offset 94, -28
 780              		.cfi_offset 95, -24
 781 0006 1C46     		mov	r4, r3
 782 0008 89B0     		sub	sp, sp, #36
 783              		.cfi_def_cfa_offset 120
 784              		.loc 1 120 0
 785 000a 1B6A     		ldr	r3, [r3, #32]
 786              	.LVL96:
 787              		.loc 1 116 0
 788 000c 5A4D     		ldr	r5, .L44
 789 000e 0695     		str	r5, [sp, #24]	@ float
 790              		.loc 1 117 0
 791 0010 0027     		movs	r7, #0
 792              		.loc 1 96 0
 793 0012 0646     		mov	r6, r0
 794 0014 0D46     		mov	r5, r1
 795 0016 B0EE40AA 		fcpys	s20, s0
 796              		.loc 1 104 0
 797 001a 90ED008A 		flds	s16, [r0]
 798              	.LVL97:
ARM GAS  /tmp/ccxUZ42V.s 			page 15


 799              		.loc 1 105 0
 800 001e 90ED019A 		flds	s18, [r0, #4]
 801              	.LVL98:
 802              		.loc 1 106 0
 803 0022 D0ED028A 		flds	s17, [r0, #8]
 804              	.LVL99:
 805              		.loc 1 108 0
 806 0026 91ED00DA 		flds	s26, [r1]
 807              	.LVL100:
 808              		.loc 1 109 0
 809 002a D1ED01CA 		flds	s25, [r1, #4]
 810              	.LVL101:
 811              		.loc 1 110 0
 812 002e 91ED02CA 		flds	s24, [r1, #8]
 813              	.LVL102:
 814              		.loc 1 112 0
 815 0032 D2ED00AA 		flds	s21, [r2]
 816              	.LVL103:
 817              		.loc 1 113 0
 818 0036 92ED01BA 		flds	s22, [r2, #4]
 819              	.LVL104:
 820              		.loc 1 114 0
 821 003a D2ED02BA 		flds	s23, [r2, #8]
 822              	.LVL105:
 823              		.loc 1 117 0
 824 003e 0797     		str	r7, [sp, #28]	@ float
 825              		.loc 1 120 0
 826 0040 002B     		cmp	r3, #0
 827 0042 00F09080 		beq	.L40
 828              	.LVL106:
 829              	.L26:
 830              		.loc 1 126 0
 831 0046 F5EE40AA 		fcmpzs	s21
 832 004a F1EE10FA 		fmstat
 833 004e 04D1     		bne	.L27
 834              		.loc 1 126 0 is_stmt 0 discriminator 1
 835 0050 B5EE40BA 		fcmpzs	s22
 836 0054 F1EE10FA 		fmstat
 837 0058 78D0     		beq	.L41
 838              	.L27:
 839              		.loc 1 131 0 is_stmt 1
 840 005a 6CEEAC9A 		fmuls	s19, s25, s25
 841 005e EDEE0D9A 		vfma.f32	s19, s26, s26
 842 0062 ECEE0C9A 		vfma.f32	s19, s24, s24
 843 0066 B1EEE90A 		fsqrts	s0, s19
 844 006a B4EE400A 		fcmps	s0, s0
 845 006e F1EE10FA 		fmstat
 846 0072 40F0C881 		bne	.L42
 847              	.L29:
 848              	.LVL107:
 849              		.loc 1 135 0
 850 0076 DFED417A 		flds	s15, .L44+4
 851 007a B4EEE70A 		fcmpes	s0, s15
 852 007e F1EE10FA 		fmstat
 853 0082 7DDC     		bgt	.L36
 854 0084 D4ED003A 		flds	s7, [r4]
 855 0088 94ED016A 		flds	s12, [r4, #4]
ARM GAS  /tmp/ccxUZ42V.s 			page 16


 856 008c 94ED024A 		flds	s8, [r4, #8]
 857 0090 94ED037A 		flds	s14, [r4, #12]
 858              	.LVL108:
 859              	.L30:
 860              		.loc 1 204 0
 861 0094 B6EE003A 		fconsts	s6, #96
 862 0098 2AEE03AA 		fmuls	s20, s20, s6
 863              	.LVL109:
 864              	.LBB28:
 865              	.LBB29:
 866              		.loc 1 353 0
 867 009c F7EE087A 		fconsts	s15, #120
 868              	.LBE29:
 869              	.LBE28:
 870              		.loc 1 206 0
 871 00a0 68EE8A8A 		fmuls	s17, s17, s20
 872              	.LVL110:
 873              		.loc 1 204 0
 874 00a4 2AEE088A 		fmuls	s16, s20, s16
 875              	.LVL111:
 876              		.loc 1 205 0
 877 00a8 29EE0A9A 		fmuls	s18, s18, s20
 878              	.LVL112:
 879              		.loc 1 211 0
 880 00ac 24EE285A 		fmuls	s10, s8, s17
 881 00b0 69EE444A 		fnmuls	s9, s18, s8
 882 00b4 A3EE885A 		vfma.f32	s10, s7, s16
 883              		.loc 1 210 0
 884 00b8 E6EE484A 		vfms.f32	s9, s12, s16
 885              		.loc 1 211 0
 886 00bc A9EE475A 		vfms.f32	s10, s18, s14
 887 00c0 68EEC65A 		fnmuls	s11, s17, s12
 888              		.loc 1 210 0
 889 00c4 E7EE684A 		vfms.f32	s9, s14, s17
 890              		.loc 1 212 0
 891 00c8 E3EE895A 		vfma.f32	s11, s7, s18
 892              		.loc 1 211 0
 893 00cc 36EE055A 		fadds	s10, s12, s10
 894              		.loc 1 213 0
 895 00d0 26EE096A 		fmuls	s12, s12, s18
 896              	.LVL113:
 897              		.loc 1 216 0
 898 00d4 65EE056A 		fmuls	s13, s10, s10
 899              		.loc 1 210 0
 900 00d8 73EEA44A 		fadds	s9, s7, s9
 901              		.loc 1 212 0
 902 00dc E8EE075A 		vfma.f32	s11, s16, s14
 903              		.loc 1 213 0
 904 00e0 A3EEA86A 		vfma.f32	s12, s7, s17
 905              		.loc 1 216 0
 906 00e4 E4EEA46A 		vfma.f32	s13, s9, s9
 907              		.loc 1 212 0
 908 00e8 74EE255A 		fadds	s11, s8, s11
 909              		.loc 1 213 0
 910 00ec A4EE486A 		vfms.f32	s12, s8, s16
 911              		.loc 1 216 0
 912 00f0 E5EEA56A 		vfma.f32	s13, s11, s11
ARM GAS  /tmp/ccxUZ42V.s 			page 17


 913              		.loc 1 213 0
 914 00f4 37EE067A 		fadds	s14, s14, s12
 915              		.loc 1 216 0
 916 00f8 E7EE076A 		vfma.f32	s13, s14, s14
 917              	.LVL114:
 918              	.LBB31:
 919              	.LBB30:
 920              		.loc 1 352 0
 921 00fc 16EE903A 		fmrs	r3, s13	@ int
 922 0100 5A10     		asrs	r2, r3, #1
 923              		.loc 1 353 0
 924 0102 C2F1BE42 		rsb	r2, r2, #1593835520
 925 0106 02F55D12 		add	r2, r2, #3620864
 926 010a 02F5CE52 		add	r2, r2, #6592
 927 010e 1F32     		adds	r2, r2, #31
 928 0110 06EE102A 		fmsr	s12, r2
 929              		.loc 1 350 0
 930 0114 66EE836A 		fmuls	s13, s13, s6
 931              	.LVL115:
 932              		.loc 1 353 0
 933 0118 66EE866A 		fmuls	s13, s13, s12
 934              	.LVL116:
 935 011c E6EE667A 		vfms.f32	s15, s12, s13
 936 0120 66EE277A 		fmuls	s15, s12, s15
 937              	.LVL117:
 938              	.LBE30:
 939              	.LBE31:
 940              		.loc 1 217 0
 941 0124 64EEA74A 		fmuls	s9, s9, s15
 942              	.LVL118:
 943              		.loc 1 218 0
 944 0128 25EE275A 		fmuls	s10, s10, s15
 945              		.loc 1 219 0
 946 012c 65EEA75A 		fmuls	s11, s11, s15
 947              		.loc 1 220 0
 948 0130 27EE277A 		fmuls	s14, s14, s15
 949              		.loc 1 217 0
 950 0134 C4ED004A 		fsts	s9, [r4]
 951              		.loc 1 218 0
 952 0138 84ED015A 		fsts	s10, [r4, #4]
 953              		.loc 1 219 0
 954 013c C4ED025A 		fsts	s11, [r4, #8]
 955              		.loc 1 220 0
 956 0140 84ED037A 		fsts	s14, [r4, #12]
 957              	.LVL119:
 958              	.L25:
 959              		.loc 1 221 0
 960 0144 09B0     		add	sp, sp, #36
 961              		.cfi_remember_state
 962              		.cfi_def_cfa_offset 84
 963              		@ sp needed
 964 0146 BDEC108B 		fldmfdd	sp!, {d8-d15}
 965              		.cfi_restore 94
 966              		.cfi_restore 95
 967              		.cfi_restore 92
 968              		.cfi_restore 93
 969              		.cfi_restore 90
ARM GAS  /tmp/ccxUZ42V.s 			page 18


 970              		.cfi_restore 91
 971              		.cfi_restore 88
 972              		.cfi_restore 89
 973              		.cfi_restore 86
 974              		.cfi_restore 87
 975              		.cfi_restore 84
 976              		.cfi_restore 85
 977              		.cfi_restore 82
 978              		.cfi_restore 83
 979              		.cfi_restore 80
 980              		.cfi_restore 81
 981              		.cfi_def_cfa_offset 20
 982              	.LVL120:
 983 014a F0BD     		pop	{r4, r5, r6, r7, pc}
 984              	.LVL121:
 985              	.L41:
 986              		.cfi_restore_state
 987              		.loc 1 126 0 discriminator 2
 988 014c F5EE40BA 		fcmpzs	s23
 989 0150 F1EE10FA 		fmstat
 990 0154 81D1     		bne	.L27
 991              		.loc 1 127 0
 992 0156 3046     		mov	r0, r6
 993 0158 2946     		mov	r1, r5
 994 015a B0EE4A0A 		fcpys	s0, s20
 995 015e 2246     		mov	r2, r4
 996 0160 FFF7FEFF 		bl	MahonyAHRSupdateIMU
 997              	.LVL122:
 998              		.loc 1 128 0
 999 0164 EEE7     		b	.L25
 1000              	.LVL123:
 1001              	.L40:
 1002              		.loc 1 121 0
 1003 0166 1146     		mov	r1, r2
 1004              	.LVL124:
 1005 0168 2846     		mov	r0, r5
 1006              	.LVL125:
 1007 016a 2246     		mov	r2, r4
 1008              	.LVL126:
 1009 016c FFF7FEFF 		bl	MahonyAHRSupdateInitialOrientation
 1010              	.LVL127:
 1011              		.loc 1 122 0
 1012 0170 0123     		movs	r3, #1
 1013 0172 2362     		str	r3, [r4, #32]
 1014 0174 67E7     		b	.L26
 1015              	.L45:
 1016 0176 00BF     		.align	2
 1017              	.L44:
 1018 0178 9A99193F 		.word	1058642330
 1019 017c 0AD7233C 		.word	1008981770
 1020              	.LVL128:
 1021              	.L36:
 1022              		.loc 1 136 0
 1023 0180 04F11C00 		add	r0, r4, #28
 1024 0184 FFF7FEFF 		bl	calculateAccConfidence
 1025              	.LVL129:
 1026              		.loc 1 147 0
ARM GAS  /tmp/ccxUZ42V.s 			page 19


 1027 0188 6BEE0B7A 		fmuls	s15, s22, s22
 1028              	.LBB32:
 1029              	.LBB33:
 1030              		.loc 1 350 0
 1031 018c F6EE004A 		fconsts	s9, #96
 1032              	.LBE33:
 1033              	.LBE32:
 1034              		.loc 1 147 0
 1035 0190 EAEEAA7A 		vfma.f32	s15, s21, s21
 1036              		.loc 1 154 0
 1037 0194 94ED016A 		flds	s12, [r4, #4]
 1038              		.loc 1 155 0
 1039 0198 94ED024A 		flds	s8, [r4, #8]
 1040              		.loc 1 156 0
 1041 019c 94ED037A 		flds	s14, [r4, #12]
 1042              		.loc 1 153 0
 1043 01a0 D4ED003A 		flds	s7, [r4]
 1044              		.loc 1 137 0
 1045 01a4 DDED065A 		flds	s11, [sp, #24]
 1046              		.loc 1 154 0
 1047 01a8 8DED026A 		fsts	s12, [sp, #8]
 1048              		.loc 1 147 0
 1049 01ac EBEEAB7A 		vfma.f32	s15, s23, s23
 1050              	.LBB42:
 1051              	.LBB34:
 1052              		.loc 1 353 0
 1053 01b0 F7EE086A 		fconsts	s13, #120
 1054              	.LBE34:
 1055              	.LBE42:
 1056              	.LBB43:
 1057              	.LBB44:
 1058              		.loc 1 352 0
 1059 01b4 17EE902A 		fmrs	r2, s15	@ int
 1060 01b8 5210     		asrs	r2, r2, #1
 1061              		.loc 1 353 0
 1062 01ba C2F1BE42 		rsb	r2, r2, #1593835520
 1063 01be 02F55D12 		add	r2, r2, #3620864
 1064 01c2 02F5CE52 		add	r2, r2, #6592
 1065 01c6 1F32     		adds	r2, r2, #31
 1066              		.loc 1 350 0
 1067 01c8 67EEA47A 		fmuls	s15, s15, s9
 1068              		.loc 1 353 0
 1069 01cc 05EE102A 		fmsr	s10, r2
 1070 01d0 03EE102A 		fmsr	s6, r2
 1071 01d4 67EE857A 		fmuls	s15, s15, s10
 1072              	.LBE44:
 1073              	.LBE43:
 1074              		.loc 1 166 0
 1075 01d8 F0EE64DA 		fcpys	s27, s9
 1076              	.LBB48:
 1077              	.LBB45:
 1078              		.loc 1 353 0
 1079 01dc B0EE665A 		fcpys	s10, s13
 1080 01e0 A3EE675A 		vfms.f32	s10, s6, s15
 1081              	.LBE45:
 1082              	.LBE48:
 1083              		.loc 1 166 0
ARM GAS  /tmp/ccxUZ42V.s 			page 20


 1084 01e4 E6EE46DA 		vfms.f32	s27, s12, s12
 1085              	.LBB49:
 1086              	.LBB46:
 1087              		.loc 1 353 0
 1088 01e8 07EE902A 		fmsr	s15, r2
 1089              	.LBE46:
 1090              	.LBE49:
 1091              		.loc 1 158 0
 1092 01ec 66EE042A 		fmuls	s5, s12, s8
 1093              	.LBB50:
 1094              	.LBB47:
 1095              		.loc 1 353 0
 1096 01f0 27EE855A 		fmuls	s10, s15, s10
 1097 01f4 B1EE473A 		fnegs	s6, s14
 1098              	.LBE47:
 1099              	.LBE50:
 1100              		.loc 1 165 0
 1101 01f8 F0EE641A 		fcpys	s3, s9
 1102 01fc B1EE63FA 		fnegs	s30, s7
 1103 0200 F1EE44FA 		fnegs	s31, s8
 1104              		.loc 1 166 0
 1105 0204 F0EE6D7A 		fcpys	s15, s27
 1106 0208 E3EE077A 		vfma.f32	s15, s6, s14
 1107 020c B0EE622A 		fcpys	s4, s5
 1108              		.loc 1 165 0
 1109 0210 EFEE841A 		vfma.f32	s3, s31, s8
 1110 0214 EFEE072A 		vfma.f32	s5, s30, s14
 1111              		.loc 1 149 0
 1112 0218 2BEE05BA 		fmuls	s22, s22, s10
 1113              	.LVL130:
 1114              		.loc 1 166 0
 1115 021c A3EE872A 		vfma.f32	s4, s7, s14
 1116              		.loc 1 161 0
 1117 0220 24EE07EA 		fmuls	s28, s8, s14
 1118              		.loc 1 148 0
 1119 0224 6AEE85AA 		fmuls	s21, s21, s10
 1120              	.LVL131:
 1121              		.loc 1 165 0
 1122 0228 E3EE071A 		vfma.f32	s3, s6, s14
 1123 022c B0EE621A 		fcpys	s2, s5
 1124              		.loc 1 166 0
 1125 0230 67EE8B7A 		fmuls	s15, s15, s22
 1126              		.loc 1 165 0
 1127 0234 21EE0B3A 		fmuls	s6, s2, s22
 1128 0238 CDED042A 		fsts	s5, [sp, #16]
 1129              		.loc 1 159 0
 1130 023c 66EE07EA 		fmuls	s29, s12, s14
 1131              		.loc 1 166 0
 1132 0240 F0EE4E2A 		fcpys	s5, s28
 1133 0244 E2EE2A7A 		vfma.f32	s15, s4, s21
 1134 0248 EFEE062A 		vfma.f32	s5, s30, s12
 1135              		.loc 1 150 0
 1136 024c 6BEE85BA 		fmuls	s23, s23, s10
 1137              	.LVL132:
 1138              		.loc 1 165 0
 1139 0250 B0EE435A 		fcpys	s10, s6
 1140 0254 B0EE6E3A 		fcpys	s6, s29
ARM GAS  /tmp/ccxUZ42V.s 			page 21


 1141 0258 A3EE843A 		vfma.f32	s6, s7, s8
 1142 025c A1EEAA5A 		vfma.f32	s10, s3, s21
 1143              		.loc 1 166 0
 1144 0260 E2EEAB7A 		vfma.f32	s15, s5, s23
 1145              		.loc 1 165 0
 1146 0264 A3EE2B5A 		vfma.f32	s10, s6, s23
 1147              	.LBB51:
 1148              	.LBB35:
 1149              		.loc 1 352 0
 1150 0268 19EE903A 		fmrs	r3, s19	@ int
 1151              	.LBE35:
 1152              	.LBE51:
 1153              		.loc 1 166 0
 1154 026c 77EEA77A 		fadds	s15, s15, s15
 1155              	.LBB52:
 1156              	.LBB36:
 1157              		.loc 1 352 0
 1158 0270 5B10     		asrs	r3, r3, #1
 1159              	.LBE36:
 1160              	.LBE52:
 1161              		.loc 1 165 0
 1162 0272 35EE055A 		fadds	s10, s10, s10
 1163              	.LBB53:
 1164              	.LBB37:
 1165              		.loc 1 353 0
 1166 0276 C3F1BE43 		rsb	r3, r3, #1593835520
 1167              	.LBE37:
 1168              	.LBE53:
 1169              		.loc 1 167 0
 1170 027a 67EEA77A 		fmuls	s15, s15, s15
 1171              	.LBB54:
 1172              	.LBB38:
 1173              		.loc 1 353 0
 1174 027e 03F55D13 		add	r3, r3, #3620864
 1175              	.LBE38:
 1176              	.LBE54:
 1177              		.loc 1 167 0
 1178 0282 E5EE057A 		vfma.f32	s15, s10, s10
 1179              	.LBB55:
 1180              	.LBB39:
 1181              		.loc 1 353 0
 1182 0286 03F5CE53 		add	r3, r3, #6592
 1183 028a 1F33     		adds	r3, r3, #31
 1184              		.loc 1 350 0
 1185 028c 69EEA49A 		fmuls	s19, s19, s9
 1186              		.loc 1 353 0
 1187 0290 05EE103A 		fmsr	s10, r3
 1188 0294 69EE859A 		fmuls	s19, s19, s10
 1189              	.LBE39:
 1190              	.LBE55:
 1191              		.loc 1 167 0
 1192 0298 B1EEE75A 		fsqrts	s10, s15
 1193              	.LBB56:
 1194              	.LBB40:
 1195              		.loc 1 353 0
 1196 029c 04EE903A 		fmsr	s9, r3
 1197 02a0 E4EEE96A 		vfms.f32	s13, s9, s19
ARM GAS  /tmp/ccxUZ42V.s 			page 22


 1198              	.LBE40:
 1199              	.LBE56:
 1200              		.loc 1 137 0
 1201 02a4 65EE805A 		fmuls	s11, s11, s0
 1202              	.LBB57:
 1203              	.LBB41:
 1204              		.loc 1 353 0
 1205 02a8 64EEA66A 		fmuls	s13, s9, s13
 1206              	.LBE41:
 1207              	.LBE57:
 1208              		.loc 1 137 0
 1209 02ac CDED065A 		fsts	s11, [sp, #24]
 1210              		.loc 1 138 0
 1211 02b0 DDED075A 		flds	s11, [sp, #28]
 1212              		.loc 1 165 0
 1213 02b4 CDED031A 		fsts	s3, [sp, #12]
 1214              		.loc 1 138 0
 1215 02b8 25EE800A 		fmuls	s0, s11, s0
 1216              	.LVL133:
 1217              		.loc 1 167 0
 1218 02bc B4EE455A 		fcmps	s10, s10
 1219              		.loc 1 142 0
 1220 02c0 6DEE265A 		fmuls	s11, s26, s13
 1221              		.loc 1 143 0
 1222 02c4 2CEEA6DA 		fmuls	s26, s25, s13
 1223              	.LVL134:
 1224              		.loc 1 144 0
 1225 02c8 6CEE266A 		fmuls	s13, s24, s13
 1226              		.loc 1 167 0
 1227 02cc F1EE10FA 		fmstat
 1228              		.loc 1 165 0
 1229 02d0 8DED053A 		fsts	s6, [sp, #20]
 1230              		.loc 1 142 0
 1231 02d4 CDED005A 		fsts	s11, [sp]
 1232              		.loc 1 144 0
 1233 02d8 CDED016A 		fsts	s13, [sp, #4]
 1234              		.loc 1 138 0
 1235 02dc 8DED070A 		fsts	s0, [sp, #28]
 1236              	.LVL135:
 1237              		.loc 1 153 0
 1238 02e0 F0EE639A 		fcpys	s19, s7
 1239              	.LVL136:
 1240              		.loc 1 155 0
 1241 02e4 F0EE44CA 		fcpys	s25, s8
 1242              	.LVL137:
 1243              		.loc 1 156 0
 1244 02e8 B0EE47CA 		fcpys	s24, s14
 1245              	.LVL138:
 1246              		.loc 1 167 0
 1247 02ec 40F09080 		bne	.L43
 1248              	.LVL139:
 1249              	.L32:
 1250              		.loc 1 168 0
 1251 02f0 DDED027A 		flds	s15, [sp, #8]
 1252              		.loc 1 176 0
 1253 02f4 DDED054A 		flds	s9, [sp, #20]
 1254 02f8 DDED010A 		flds	s1, [sp, #4]
ARM GAS  /tmp/ccxUZ42V.s 			page 23


 1255 02fc 9DED000A 		flds	s0, [sp]
 1256              		.loc 1 184 0
 1257 0300 DDED076A 		flds	s13, [sp, #28]
 1258              		.loc 1 168 0
 1259 0304 A9EEA7EA 		vfma.f32	s28, s19, s15
 1260              	.LVL140:
 1261              		.loc 1 184 0
 1262 0308 0023     		movs	r3, #0
 1263              		.loc 1 168 0
 1264 030a EFEE2CEA 		vfma.f32	s29, s30, s25
 1265              	.LVL141:
 1266 030e 6EEE0B7A 		fmuls	s15, s28, s22
 1267 0312 EFEEACDA 		vfma.f32	s27, s31, s25
 1268              	.LVL142:
 1269 0316 EEEEAA7A 		vfma.f32	s15, s29, s21
 1270              		.loc 1 173 0
 1271 031a FEEE005A 		fconsts	s11, #224
 1272              		.loc 1 168 0
 1273 031e EDEEAB7A 		vfma.f32	s15, s27, s23
 1274              		.loc 1 173 0
 1275 0322 E9EEA95A 		vfma.f32	s11, s19, s19
 1276              		.loc 1 168 0
 1277 0326 77EEA77A 		fadds	s15, s15, s15
 1278              	.LVL143:
 1279              		.loc 1 173 0
 1280 032a ECEE0C5A 		vfma.f32	s11, s24, s24
 1281              	.LVL144:
 1282              		.loc 1 176 0
 1283 032e 6DEEA7DA 		fmuls	s27, s27, s15
 1284              		.loc 1 175 0
 1285 0332 6EEE272A 		fmuls	s5, s28, s15
 1286              		.loc 1 176 0
 1287 0336 E4EE85DA 		vfma.f32	s27, s9, s10
 1288              		.loc 1 175 0
 1289 033a DDED044A 		flds	s9, [sp, #16]
 1290              		.loc 1 174 0
 1291 033e 6EEEA77A 		fmuls	s15, s29, s15
 1292              	.LVL145:
 1293              		.loc 1 175 0
 1294 0342 E4EE852A 		vfma.f32	s5, s9, s10
 1295              		.loc 1 174 0
 1296 0346 DDED034A 		flds	s9, [sp, #12]
 1297 034a E4EE857A 		vfma.f32	s15, s9, s10
 1298              	.LVL146:
 1299 034e 6DEEEA1A 		fnmuls	s3, s27, s21
 1300 0352 2EEECD5A 		fnmuls	s10, s29, s26
 1301              	.LVL147:
 1302 0356 2EEE603A 		fnmuls	s6, s28, s1
 1303 035a 65EEC04A 		fnmuls	s9, s11, s0
 1304 035e 27EECB2A 		fnmuls	s4, s15, s22
 1305 0362 22EEEB1A 		fnmuls	s2, s5, s23
 1306              		.loc 1 180 0
 1307 0366 EBEEA71A 		vfma.f32	s3, s23, s15
 1308              		.loc 1 179 0
 1309 036a ADEE253A 		vfma.f32	s6, s26, s11
 1310              		.loc 1 181 0
 1311 036e F0EE457A 		fcpys	s15, s10
ARM GAS  /tmp/ccxUZ42V.s 			page 24


 1312              	.LVL148:
 1313              		.loc 1 180 0
 1314 0372 F0EE645A 		fcpys	s11, s9
 1315              	.LVL149:
 1316              		.loc 1 179 0
 1317 0376 ABEE2D1A 		vfma.f32	s2, s22, s27
 1318              		.loc 1 181 0
 1319 037a AAEEA22A 		vfma.f32	s4, s21, s5
 1320              		.loc 1 180 0
 1321 037e E0EEAE5A 		vfma.f32	s11, s1, s29
 1322              		.loc 1 181 0
 1323 0382 E0EE0E7A 		vfma.f32	s15, s0, s28
 1324              		.loc 1 184 0
 1325 0386 F5EEC06A 		fcmpezs	s13
 1326 038a F1EE10FA 		fmstat
 1327              		.loc 1 179 0
 1328 038e 33EE015A 		fadds	s10, s6, s2
 1329              	.LVL150:
 1330              		.loc 1 180 0
 1331 0392 75EEA15A 		fadds	s11, s11, s3
 1332              	.LVL151:
 1333              		.loc 1 181 0
 1334 0396 77EE827A 		fadds	s15, s15, s4
 1335              	.LVL152:
 1336              		.loc 1 184 0
 1337 039a 30DD     		ble	.L38
 1338              		.loc 1 185 0
 1339 039c DDED071A 		flds	s3, [sp, #28]
 1340              		.loc 1 186 0
 1341 03a0 9DED072A 		flds	s4, [sp, #28]
 1342              		.loc 1 187 0
 1343 03a4 DDED072A 		flds	s5, [sp, #28]
 1344              	.LVL153:
 1345              		.loc 1 185 0
 1346 03a8 94ED043A 		flds	s6, [r4, #16]
 1347              		.loc 1 186 0
 1348 03ac D4ED054A 		flds	s9, [r4, #20]
 1349              		.loc 1 187 0
 1350 03b0 D4ED066A 		flds	s13, [r4, #24]
 1351              		.loc 1 185 0
 1352 03b4 61EE851A 		fmuls	s3, s3, s10
 1353              		.loc 1 186 0
 1354 03b8 22EE252A 		fmuls	s4, s4, s11
 1355              		.loc 1 187 0
 1356 03bc 62EEA72A 		fmuls	s5, s5, s15
 1357              		.loc 1 185 0
 1358 03c0 A1EE8A3A 		vfma.f32	s6, s3, s20
 1359              		.loc 1 186 0
 1360 03c4 E2EE0A4A 		vfma.f32	s9, s4, s20
 1361              		.loc 1 187 0
 1362 03c8 E2EE8A6A 		vfma.f32	s13, s5, s20
 1363              		.loc 1 188 0
 1364 03cc 38EE038A 		fadds	s16, s16, s6
 1365              	.LVL154:
 1366              		.loc 1 189 0
 1367 03d0 39EE249A 		fadds	s18, s18, s9
 1368              	.LVL155:
ARM GAS  /tmp/ccxUZ42V.s 			page 25


 1369              		.loc 1 190 0
 1370 03d4 78EEA68A 		fadds	s17, s17, s13
 1371              	.LVL156:
 1372              		.loc 1 185 0
 1373 03d8 84ED043A 		fsts	s6, [r4, #16]
 1374              		.loc 1 186 0
 1375 03dc C4ED054A 		fsts	s9, [r4, #20]
 1376              		.loc 1 187 0
 1377 03e0 C4ED066A 		fsts	s13, [r4, #24]
 1378              	.L35:
 1379              		.loc 1 198 0
 1380 03e4 9DED063A 		flds	s6, [sp, #24]
 1381              		.loc 1 199 0
 1382 03e8 DDED064A 		flds	s9, [sp, #24]
 1383              		.loc 1 200 0
 1384 03ec DDED066A 		flds	s13, [sp, #24]
 1385              		.loc 1 198 0
 1386 03f0 A3EE058A 		vfma.f32	s16, s6, s10
 1387              	.LVL157:
 1388              		.loc 1 199 0
 1389 03f4 A4EEA59A 		vfma.f32	s18, s9, s11
 1390              	.LVL158:
 1391              		.loc 1 200 0
 1392 03f8 E6EEA78A 		vfma.f32	s17, s13, s15
 1393              	.LVL159:
 1394 03fc 4AE6     		b	.L30
 1395              	.LVL160:
 1396              	.L38:
 1397              		.loc 1 192 0
 1398 03fe 2361     		str	r3, [r4, #16]	@ float
 1399              		.loc 1 193 0
 1400 0400 6361     		str	r3, [r4, #20]	@ float
 1401              		.loc 1 194 0
 1402 0402 A361     		str	r3, [r4, #24]	@ float
 1403 0404 EEE7     		b	.L35
 1404              	.LVL161:
 1405              	.L42:
 1406              		.loc 1 131 0
 1407 0406 B0EE690A 		fcpys	s0, s19
 1408 040a FFF7FEFF 		bl	sqrtf
 1409              	.LVL162:
 1410 040e 32E6     		b	.L29
 1411              	.LVL163:
 1412              	.L43:
 1413              		.loc 1 167 0
 1414 0410 B0EE670A 		fcpys	s0, s15
 1415 0414 FFF7FEFF 		bl	sqrtf
 1416              	.LVL164:
 1417 0418 D4ED003A 		flds	s7, [r4]
 1418 041c 94ED016A 		flds	s12, [r4, #4]
 1419 0420 94ED024A 		flds	s8, [r4, #8]
 1420 0424 94ED037A 		flds	s14, [r4, #12]
 1421 0428 B0EE405A 		fcpys	s10, s0
 1422 042c 60E7     		b	.L32
 1423              		.cfi_endproc
 1424              	.LFE3:
 1425              		.size	MahonyAHRSupdate, .-MahonyAHRSupdate
ARM GAS  /tmp/ccxUZ42V.s 			page 26


 1426 042e 00BF     		.section	.text.MahonyAHRSGetRoll,"ax",%progbits
 1427              		.align	2
 1428              		.p2align 4,,15
 1429              		.global	MahonyAHRSGetRoll
 1430              		.thumb
 1431              		.thumb_func
 1432              		.type	MahonyAHRSGetRoll, %function
 1433              	MahonyAHRSGetRoll:
 1434              	.LFB5:
 1435              		.loc 1 307 0
 1436              		.cfi_startproc
 1437              		@ args = 0, pretend = 0, frame = 0
 1438              		@ frame_needed = 0, uses_anonymous_args = 0
 1439              	.LVL165:
 1440 0000 08B5     		push	{r3, lr}
 1441              		.cfi_def_cfa_offset 8
 1442              		.cfi_offset 3, -8
 1443              		.cfi_offset 14, -4
 1444 0002 2DED048B 		fstmfdd	sp!, {d8, d9}
 1445              		.cfi_def_cfa_offset 24
 1446              		.cfi_offset 80, -24
 1447              		.cfi_offset 81, -20
 1448              		.cfi_offset 82, -16
 1449              		.cfi_offset 83, -12
 1450              		.loc 1 309 0
 1451 0006 90ED019A 		flds	s18, [r0, #4]
 1452 000a D0ED009A 		flds	s19, [r0]
 1453 000e 90ED028A 		flds	s16, [r0, #8]
 1454 0012 D0ED038A 		flds	s17, [r0, #12]
 1455              	.LVL166:
 1456 0016 29EE490A 		fnmuls	s0, s18, s18
 1457              		.loc 1 310 0
 1458 001a 68EE887A 		fmuls	s15, s17, s16
 1459              		.loc 1 311 0
 1460 001e A9EEA90A 		vfma.f32	s0, s19, s19
 1461              		.loc 1 310 0
 1462 0022 E9EE297A 		vfma.f32	s15, s18, s19
 1463              		.loc 1 311 0
 1464 0026 A8EE480A 		vfms.f32	s0, s16, s16
 1465              		.loc 1 310 0
 1466 002a 77EEA77A 		fadds	s15, s15, s15
 1467              	.LVL167:
 1468              		.loc 1 311 0
 1469 002e A8EEA80A 		vfma.f32	s0, s17, s17
 1470              	.LVL168:
 1471              		.loc 1 313 0
 1472 0032 20EE000A 		fmuls	s0, s0, s0
 1473              	.LVL169:
 1474 0036 A7EEA70A 		vfma.f32	s0, s15, s15
 1475 003a F1EEC07A 		fsqrts	s15, s0
 1476              	.LVL170:
 1477 003e F4EE677A 		fcmps	s15, s15
 1478 0042 F1EE10FA 		fmstat
 1479 0046 0DD1     		bne	.L49
 1480              	.LVL171:
 1481              	.L47:
 1482 0048 28EE698A 		fnmuls	s16, s16, s19
ARM GAS  /tmp/ccxUZ42V.s 			page 27


 1483              	.LVL172:
 1484              		.loc 1 309 0
 1485 004c A9EE288A 		vfma.f32	s16, s18, s17
 1486 0050 38EE080A 		fadds	s0, s16, s16
 1487              		.loc 1 314 0
 1488 0054 BDEC048B 		fldmfdd	sp!, {d8-d9}
 1489              		.cfi_remember_state
 1490              		.cfi_restore 82
 1491              		.cfi_restore 83
 1492              		.cfi_restore 80
 1493              		.cfi_restore 81
 1494              		.cfi_def_cfa_offset 8
 1495              		.loc 1 313 0
 1496 0058 80EE270A 		fdivs	s0, s0, s15
 1497              		.loc 1 314 0
 1498 005c BDE80840 		pop	{r3, lr}
 1499              		.cfi_restore 14
 1500              		.cfi_restore 3
 1501              		.cfi_def_cfa_offset 0
 1502              		.loc 1 313 0
 1503 0060 FFF7FEBF 		b	atanf
 1504              	.LVL173:
 1505              	.L49:
 1506              		.cfi_restore_state
 1507 0064 FFF7FEFF 		bl	sqrtf
 1508              	.LVL174:
 1509 0068 F0EE407A 		fcpys	s15, s0
 1510 006c ECE7     		b	.L47
 1511              		.cfi_endproc
 1512              	.LFE5:
 1513              		.size	MahonyAHRSGetRoll, .-MahonyAHRSGetRoll
 1514 006e 00BF     		.section	.text.MahonyAHRSGetPitch,"ax",%progbits
 1515              		.align	2
 1516              		.p2align 4,,15
 1517              		.global	MahonyAHRSGetPitch
 1518              		.thumb
 1519              		.thumb_func
 1520              		.type	MahonyAHRSGetPitch, %function
 1521              	MahonyAHRSGetPitch:
 1522              	.LFB6:
 1523              		.loc 1 316 0
 1524              		.cfi_startproc
 1525              		@ args = 0, pretend = 0, frame = 0
 1526              		@ frame_needed = 0, uses_anonymous_args = 0
 1527              	.LVL175:
 1528 0000 08B5     		push	{r3, lr}
 1529              		.cfi_def_cfa_offset 8
 1530              		.cfi_offset 3, -8
 1531              		.cfi_offset 14, -4
 1532 0002 2DED048B 		fstmfdd	sp!, {d8, d9}
 1533              		.cfi_def_cfa_offset 24
 1534              		.cfi_offset 80, -24
 1535              		.cfi_offset 81, -20
 1536              		.cfi_offset 82, -16
 1537              		.cfi_offset 83, -12
 1538              		.loc 1 318 0
 1539 0006 90ED019A 		flds	s18, [r0, #4]
ARM GAS  /tmp/ccxUZ42V.s 			page 28


 1540 000a D0ED008A 		flds	s17, [r0]
 1541 000e D0ED029A 		flds	s19, [r0, #8]
 1542 0012 90ED038A 		flds	s16, [r0, #12]
 1543 0016 29EE490A 		fnmuls	s0, s18, s18
 1544 001a 69EEE87A 		fnmuls	s15, s19, s17
 1545              		.loc 1 320 0
 1546 001e A8EEA80A 		vfma.f32	s0, s17, s17
 1547              		.loc 1 318 0
 1548 0022 E9EE087A 		vfma.f32	s15, s18, s16
 1549              		.loc 1 320 0
 1550 0026 A9EEE90A 		vfms.f32	s0, s19, s19
 1551              		.loc 1 318 0
 1552 002a 77EEA77A 		fadds	s15, s15, s15
 1553              	.LVL176:
 1554              		.loc 1 320 0
 1555 002e A8EE080A 		vfma.f32	s0, s16, s16
 1556              	.LVL177:
 1557              		.loc 1 322 0
 1558 0032 20EE000A 		fmuls	s0, s0, s0
 1559              	.LVL178:
 1560 0036 A7EEA70A 		vfma.f32	s0, s15, s15
 1561 003a F1EEC07A 		fsqrts	s15, s0
 1562              	.LVL179:
 1563 003e F4EE677A 		fcmps	s15, s15
 1564 0042 F1EE10FA 		fmstat
 1565 0046 0ED1     		bne	.L53
 1566              	.LVL180:
 1567              	.L51:
 1568              		.loc 1 319 0
 1569 0048 28EE298A 		fmuls	s16, s16, s19
 1570              	.LVL181:
 1571 004c A9EE288A 		vfma.f32	s16, s18, s17
 1572 0050 38EE080A 		fadds	s0, s16, s16
 1573              		.loc 1 322 0
 1574 0054 80EE270A 		fdivs	s0, s0, s15
 1575 0058 FFF7FEFF 		bl	atanf
 1576              	.LVL182:
 1577              		.loc 1 323 0
 1578 005c BDEC048B 		fldmfdd	sp!, {d8-d9}
 1579              		.cfi_remember_state
 1580              		.cfi_restore 82
 1581              		.cfi_restore 83
 1582              		.cfi_restore 80
 1583              		.cfi_restore 81
 1584              		.cfi_def_cfa_offset 8
 1585 0060 B1EE400A 		fnegs	s0, s0
 1586 0064 08BD     		pop	{r3, pc}
 1587              	.LVL183:
 1588              	.L53:
 1589              		.cfi_restore_state
 1590              		.loc 1 322 0
 1591 0066 FFF7FEFF 		bl	sqrtf
 1592              	.LVL184:
 1593 006a F0EE407A 		fcpys	s15, s0
 1594 006e EBE7     		b	.L51
 1595              		.cfi_endproc
 1596              	.LFE6:
ARM GAS  /tmp/ccxUZ42V.s 			page 29


 1597              		.size	MahonyAHRSGetPitch, .-MahonyAHRSGetPitch
 1598              		.section	.text.MahonyAHRSGetYaw,"ax",%progbits
 1599              		.align	2
 1600              		.p2align 4,,15
 1601              		.global	MahonyAHRSGetYaw
 1602              		.thumb
 1603              		.thumb_func
 1604              		.type	MahonyAHRSGetYaw, %function
 1605              	MahonyAHRSGetYaw:
 1606              	.LFB7:
 1607              		.loc 1 325 0
 1608              		.cfi_startproc
 1609              		@ args = 0, pretend = 0, frame = 0
 1610              		@ frame_needed = 0, uses_anonymous_args = 0
 1611              	.LVL185:
 1612              		.loc 1 326 0
 1613 0000 D0ED010A 		flds	s1, [r0, #4]
 1614 0004 D0ED007A 		flds	s15, [r0]
 1615 0008 90ED030A 		flds	s0, [r0, #12]
 1616 000c 90ED026A 		flds	s12, [r0, #8]
 1617 0010 30EEA07A 		fadds	s14, s1, s1
 1618 0014 77EEA76A 		fadds	s13, s15, s15
 1619              		.loc 1 327 0
 1620 0018 60EE870A 		fmuls	s1, s1, s14
 1621 001c 20EE660A 		fnmuls	s0, s0, s13
 1622 0020 E7EEA60A 		vfma.f32	s1, s15, s13
 1623              		.loc 1 325 0
 1624 0024 08B5     		push	{r3, lr}
 1625              		.cfi_def_cfa_offset 8
 1626              		.cfi_offset 3, -8
 1627              		.cfi_offset 14, -4
 1628              		.loc 1 326 0
 1629 0026 F7EE007A 		fconsts	s15, #112
 1630 002a A7EE060A 		vfma.f32	s0, s14, s12
 1631 002e 70EEE70A 		fsubs	s1, s1, s15
 1632 0032 FFF7FEFF 		bl	atan2f
 1633              	.LVL186:
 1634              		.loc 1 328 0
 1635 0036 B1EE400A 		fnegs	s0, s0
 1636 003a 08BD     		pop	{r3, pc}
 1637              		.cfi_endproc
 1638              	.LFE7:
 1639              		.size	MahonyAHRSGetYaw, .-MahonyAHRSGetYaw
 1640              		.section	.text.MahonyAHRSGetRollPitchYaw,"ax",%progbits
 1641              		.align	2
 1642              		.p2align 4,,15
 1643              		.global	MahonyAHRSGetRollPitchYaw
 1644              		.thumb
 1645              		.thumb_func
 1646              		.type	MahonyAHRSGetRollPitchYaw, %function
 1647              	MahonyAHRSGetRollPitchYaw:
 1648              	.LFB8:
 1649              		.loc 1 330 0
 1650              		.cfi_startproc
 1651              		@ args = 0, pretend = 0, frame = 0
 1652              		@ frame_needed = 0, uses_anonymous_args = 0
 1653              	.LVL187:
ARM GAS  /tmp/ccxUZ42V.s 			page 30


 1654 0000 38B5     		push	{r3, r4, r5, lr}
 1655              		.cfi_def_cfa_offset 16
 1656              		.cfi_offset 3, -16
 1657              		.cfi_offset 4, -12
 1658              		.cfi_offset 5, -8
 1659              		.cfi_offset 14, -4
 1660              		.loc 1 332 0
 1661 0002 D1ED016A 		flds	s13, [r1, #4]
 1662 0006 D1ED027A 		flds	s15, [r1, #8]
 1663 000a 91ED037A 		flds	s14, [r1, #12]
 1664              		.loc 1 330 0
 1665 000e 2DED048B 		fstmfdd	sp!, {d8, d9}
 1666              		.cfi_def_cfa_offset 32
 1667              		.cfi_offset 80, -32
 1668              		.cfi_offset 81, -28
 1669              		.cfi_offset 82, -24
 1670              		.cfi_offset 83, -20
 1671              		.loc 1 332 0
 1672 0012 D1ED008A 		flds	s17, [r1]
 1673 0016 26EEE68A 		fnmuls	s16, s13, s13
 1674              		.loc 1 333 0
 1675 001a 27EE279A 		fmuls	s18, s14, s15
 1676              		.loc 1 334 0
 1677 001e A8EEA88A 		vfma.f32	s16, s17, s17
 1678              		.loc 1 330 0
 1679 0022 0C46     		mov	r4, r1
 1680 0024 0546     		mov	r5, r0
 1681              		.loc 1 333 0
 1682 0026 A6EEA89A 		vfma.f32	s18, s13, s17
 1683              		.loc 1 334 0
 1684 002a A7EEE78A 		vfms.f32	s16, s15, s15
 1685 002e 67EEE87A 		fnmuls	s15, s15, s17
 1686 0032 A7EE078A 		vfma.f32	s16, s14, s14
 1687              		.loc 1 333 0
 1688 0036 39EE099A 		fadds	s18, s18, s18
 1689              		.loc 1 336 0
 1690 003a 28EE088A 		fmuls	s16, s16, s16
 1691              		.loc 1 332 0
 1692 003e E6EE877A 		vfma.f32	s15, s13, s14
 1693              		.loc 1 336 0
 1694 0042 B0EE487A 		fcpys	s14, s16
 1695 0046 A9EE097A 		vfma.f32	s14, s18, s18
 1696              		.loc 1 332 0
 1697 004a 77EEA78A 		fadds	s17, s15, s15
 1698              	.LVL188:
 1699              		.loc 1 336 0
 1700 004e B1EEC70A 		fsqrts	s0, s14
 1701 0052 B4EE400A 		fcmps	s0, s0
 1702 0056 F1EE10FA 		fmstat
 1703 005a 37D1     		bne	.L60
 1704              	.LVL189:
 1705              	.L57:
 1706 005c 88EE800A 		fdivs	s0, s17, s0
 1707 0060 FFF7FEFF 		bl	atanf
 1708              	.LVL190:
 1709              		.loc 1 337 0
 1710 0064 A8EEA88A 		vfma.f32	s16, s17, s17
ARM GAS  /tmp/ccxUZ42V.s 			page 31


 1711              		.loc 1 336 0
 1712 0068 85ED000A 		fsts	s0, [r5]
 1713              		.loc 1 337 0
 1714 006c B1EEC80A 		fsqrts	s0, s16
 1715 0070 B4EE400A 		fcmps	s0, s0
 1716 0074 F1EE10FA 		fmstat
 1717 0078 2DD1     		bne	.L61
 1718              	.L58:
 1719 007a 89EE000A 		fdivs	s0, s18, s0
 1720 007e FFF7FEFF 		bl	atanf
 1721              	.LVL191:
 1722 0082 B1EE400A 		fnegs	s0, s0
 1723 0086 85ED010A 		fsts	s0, [r5, #4]
 1724              		.loc 1 338 0
 1725 008a D4ED010A 		flds	s1, [r4, #4]
 1726 008e D4ED007A 		flds	s15, [r4]
 1727 0092 94ED030A 		flds	s0, [r4, #12]
 1728 0096 94ED026A 		flds	s12, [r4, #8]
 1729 009a 30EEA07A 		fadds	s14, s1, s1
 1730 009e 77EEA76A 		fadds	s13, s15, s15
 1731              		.loc 1 339 0
 1732 00a2 60EE870A 		fmuls	s1, s1, s14
 1733 00a6 20EE660A 		fnmuls	s0, s0, s13
 1734 00aa E7EEA60A 		vfma.f32	s1, s15, s13
 1735              		.loc 1 338 0
 1736 00ae F7EE007A 		fconsts	s15, #112
 1737 00b2 A7EE060A 		vfma.f32	s0, s14, s12
 1738 00b6 70EEE70A 		fsubs	s1, s1, s15
 1739 00ba FFF7FEFF 		bl	atan2f
 1740              	.LVL192:
 1741              		.loc 1 340 0
 1742 00be BDEC048B 		fldmfdd	sp!, {d8-d9}
 1743              		.cfi_remember_state
 1744              		.cfi_restore 82
 1745              		.cfi_restore 83
 1746              		.cfi_restore 80
 1747              		.cfi_restore 81
 1748              		.cfi_def_cfa_offset 16
 1749              	.LVL193:
 1750              		.loc 1 338 0
 1751 00c2 B1EE400A 		fnegs	s0, s0
 1752 00c6 85ED020A 		fsts	s0, [r5, #8]
 1753              		.loc 1 340 0
 1754 00ca 38BD     		pop	{r3, r4, r5, pc}
 1755              	.LVL194:
 1756              	.L60:
 1757              		.cfi_restore_state
 1758              		.loc 1 336 0
 1759 00cc B0EE470A 		fcpys	s0, s14
 1760 00d0 FFF7FEFF 		bl	sqrtf
 1761              	.LVL195:
 1762 00d4 C2E7     		b	.L57
 1763              	.L61:
 1764              		.loc 1 337 0
 1765 00d6 B0EE480A 		fcpys	s0, s16
 1766 00da FFF7FEFF 		bl	sqrtf
 1767              	.LVL196:
ARM GAS  /tmp/ccxUZ42V.s 			page 32


 1768 00de CCE7     		b	.L58
 1769              		.cfi_endproc
 1770              	.LFE8:
 1771              		.size	MahonyAHRSGetRollPitchYaw, .-MahonyAHRSGetRollPitchYaw
 1772              		.text
 1773              	.Letext0:
 1774              		.file 2 "datatypes.h"
 1775              		.file 3 "utils.h"
 1776              		.file 4 "/usr/arm-none-eabi/include/math.h"