ARM GAS  /tmp/cccjiBlq.s 			page 1


   1              		.syntax unified
   2              		.cpu cortex-m4
   3              		.eabi_attribute 27, 1
   4              		.eabi_attribute 28, 1
   5              		.fpu fpv4-sp-d16
   6              		.eabi_attribute 20, 1
   7              		.eabi_attribute 21, 1
   8              		.eabi_attribute 23, 3
   9              		.eabi_attribute 24, 1
  10              		.eabi_attribute 25, 1
  11              		.eabi_attribute 26, 1
  12              		.eabi_attribute 30, 2
  13              		.eabi_attribute 34, 1
  14              		.eabi_attribute 18, 4
  15              		.thumb
  16              		.file	"mpu9150.c"
  17              		.text
  18              	.Ltext0:
  19              		.cfi_sections	.debug_frame
  20              		.section	.text.reset_init_mpu,"ax",%progbits
  21              		.align	2
  22              		.p2align 4,,15
  23              		.thumb
  24              		.thumb_func
  25              		.type	reset_init_mpu, %function
  26              	reset_init_mpu:
  27              	.LFB270:
  28              		.file 1 "mpu9150.c"
  29              		.loc 1 355 0
  30              		.cfi_startproc
  31              		@ args = 0, pretend = 0, frame = 8
  32              		@ frame_needed = 0, uses_anonymous_args = 0
  33              	.LVL0:
  34 0000 2DE9F047 		push	{r4, r5, r6, r7, r8, r9, r10, lr}
  35              		.cfi_def_cfa_offset 32
  36              		.cfi_offset 4, -32
  37              		.cfi_offset 5, -28
  38              		.cfi_offset 6, -24
  39              		.cfi_offset 7, -20
  40              		.cfi_offset 8, -16
  41              		.cfi_offset 9, -12
  42              		.cfi_offset 10, -8
  43              		.cfi_offset 14, -4
  44              		.loc 1 358 0
  45 0004 7048     		ldr	r0, .L30
  46 0006 4FF48061 		mov	r1, #1024
  47 000a 0C22     		movs	r2, #12
  48              		.loc 1 355 0
  49 000c 86B0     		sub	sp, sp, #24
  50              		.cfi_def_cfa_offset 56
  51              		.loc 1 358 0
  52 000e FFF7FEFF 		bl	_pal_lld_setgroupmode
  53              	.LVL1:
  54              	.LBB163:
  55              		.loc 1 363 0
  56 0012 6D48     		ldr	r0, .L30
  57              	.LBE163:
ARM GAS  /tmp/cccjiBlq.s 			page 2


  58              		.loc 1 358 0
  59 0014 1024     		movs	r4, #16
  60              	.LBB174:
  61              		.loc 1 363 0
  62 0016 4FF48061 		mov	r1, #1024	@ movhi
  63              	.LBB164:
  64              	.LBB165:
  65              		.loc 1 514 0
  66 001a 0022     		movs	r2, #0
  67              	.LVL2:
  68              	.L6:
  69              	.LBE165:
  70              	.LBE164:
  71              		.loc 1 363 0 discriminator 3
  72 001c 4183     		strh	r1, [r0, #26]	@ movhi
  73              	.LBB169:
  74              	.LBB168:
  75              		.loc 1 514 0 discriminator 3
  76 001e 0492     		str	r2, [sp, #16]
  77 0020 049B     		ldr	r3, [sp, #16]
  78 0022 632B     		cmp	r3, #99
  79 0024 06DC     		bgt	.L5
  80              	.L18:
  81              	.LBB166:
  82              	.LBB167:
  83              		.file 2 "ChibiOS_3.0.2/os/ext/CMSIS/include/core_cmInstr.h"
  84              		.loc 2 327 0
  85              	@ 327 "ChibiOS_3.0.2/os/ext/CMSIS/include/core_cmInstr.h" 1
  86 0026 00BF     		nop
  87              	@ 0 "" 2
  88              		.thumb
  89              	.LBE167:
  90              	.LBE166:
  91              		.loc 1 514 0
  92 0028 049B     		ldr	r3, [sp, #16]
  93 002a 0133     		adds	r3, r3, #1
  94 002c 0493     		str	r3, [sp, #16]
  95 002e 049B     		ldr	r3, [sp, #16]
  96 0030 632B     		cmp	r3, #99
  97 0032 F8DD     		ble	.L18
  98              	.L5:
  99              	.LBE168:
 100              	.LBE169:
 101              		.loc 1 365 0
 102 0034 0183     		strh	r1, [r0, #24]	@ movhi
 103              	.LBB170:
 104              	.LBB171:
 105              		.loc 1 514 0
 106 0036 0592     		str	r2, [sp, #20]
 107 0038 059B     		ldr	r3, [sp, #20]
 108 003a 632B     		cmp	r3, #99
 109 003c 06DC     		bgt	.L4
 110              	.L17:
 111              	.LBB172:
 112              	.LBB173:
 113              		.loc 2 327 0
 114              	@ 327 "ChibiOS_3.0.2/os/ext/CMSIS/include/core_cmInstr.h" 1
ARM GAS  /tmp/cccjiBlq.s 			page 3


 115 003e 00BF     		nop
 116              	@ 0 "" 2
 117              		.thumb
 118              	.LBE173:
 119              	.LBE172:
 120              		.loc 1 514 0
 121 0040 059B     		ldr	r3, [sp, #20]
 122 0042 0133     		adds	r3, r3, #1
 123 0044 0593     		str	r3, [sp, #20]
 124 0046 059B     		ldr	r3, [sp, #20]
 125 0048 632B     		cmp	r3, #99
 126 004a F8DD     		ble	.L17
 127              	.L4:
 128              	.LVL3:
 129              	.LBE171:
 130              	.LBE170:
 131              		.loc 1 362 0
 132 004c 013C     		subs	r4, r4, #1
 133              	.LVL4:
 134 004e E5D1     		bne	.L6
 135              	.LBE174:
 136              		.loc 1 374 0
 137 0050 5E4E     		ldr	r6, .L30+4
 138              		.loc 1 369 0
 139 0052 5D48     		ldr	r0, .L30
 140              		.loc 1 382 0
 141 0054 5E4F     		ldr	r7, .L30+8
 142              		.loc 1 380 0
 143 0056 5F4D     		ldr	r5, .L30+12
 144              		.loc 1 382 0
 145 0058 DFF88081 		ldr	r8, .L30+20
 146              		.loc 1 369 0
 147 005c 40F20E22 		movw	r2, #526
 148 0060 4FF48061 		mov	r1, #1024
 149 0064 FFF7FEFF 		bl	_pal_lld_setgroupmode
 150              	.LVL5:
 151              		.loc 1 374 0
 152 0068 4FF00109 		mov	r9, #1
 153              		.loc 1 375 0
 154 006c 5A49     		ldr	r1, .L30+16
 155              		.loc 1 374 0
 156 006e 86F80090 		strb	r9, [r6]
 157              		.loc 1 375 0
 158 0072 3046     		mov	r0, r6
 159 0074 FFF7FEFF 		bl	i2cStart
 160              	.LVL6:
 161              		.loc 1 376 0
 162 0078 0A20     		movs	r0, #10
 163 007a FFF7FEFF 		bl	chThdSleep
 164              	.LVL7:
 165              		.loc 1 379 0
 166 007e 3046     		mov	r0, r6
 167 0080 FFF7FEFF 		bl	i2cAcquireBus
 168              	.LVL8:
 169              		.loc 1 382 0
 170 0084 3988     		ldrh	r1, [r7]
 171 0086 0194     		str	r4, [sp, #4]
ARM GAS  /tmp/cccjiBlq.s 			page 4


 172 0088 0A23     		movs	r3, #10
 173              		.loc 1 380 0
 174 008a 6B24     		movs	r4, #107
 175              	.LVL9:
 176              		.loc 1 382 0
 177 008c 0293     		str	r3, [sp, #8]
 178 008e CDF80080 		str	r8, [sp]
 179 0092 89B2     		uxth	r1, r1
 180              		.loc 1 380 0
 181 0094 2C70     		strb	r4, [r5]
 182              		.loc 1 382 0
 183 0096 3046     		mov	r0, r6
 184 0098 2A46     		mov	r2, r5
 185 009a 0223     		movs	r3, #2
 186              		.loc 1 381 0
 187 009c 85F80190 		strb	r9, [r5, #1]
 188              		.loc 1 382 0
 189 00a0 FFF7FEFF 		bl	i2cMasterTransmitTimeout
 190              	.LVL10:
 191 00a4 0446     		mov	r4, r0
 192              	.LVL11:
 193              		.loc 1 383 0
 194 00a6 3046     		mov	r0, r6
 195              	.LVL12:
 196 00a8 FFF7FEFF 		bl	i2cReleaseBus
 197              	.LVL13:
 198              		.loc 1 386 0
 199 00ac FCB1     		cbz	r4, .L13
 200              		.loc 1 387 0
 201 00ae 3B88     		ldrh	r3, [r7]
 202              		.loc 1 394 0
 203 00b0 4648     		ldr	r0, .L30+4
 204              		.loc 1 387 0
 205 00b2 9BB2     		uxth	r3, r3
 206 00b4 682B     		cmp	r3, #104
 207              		.loc 1 388 0
 208 00b6 0CBF     		ite	eq
 209 00b8 6923     		moveq	r3, #105
 210              		.loc 1 390 0
 211 00ba 6823     		movne	r3, #104
 212 00bc 3B80     		strh	r3, [r7]	@ movhi
 213              		.loc 1 394 0
 214 00be FFF7FEFF 		bl	i2cAcquireBus
 215              	.LVL14:
 216              		.loc 1 397 0
 217 00c2 3988     		ldrh	r1, [r7]
 218 00c4 4148     		ldr	r0, .L30+4
 219 00c6 CDF80080 		str	r8, [sp]
 220 00ca 0A23     		movs	r3, #10
 221 00cc 0293     		str	r3, [sp, #8]
 222 00ce 0022     		movs	r2, #0
 223              		.loc 1 395 0
 224 00d0 6B23     		movs	r3, #107
 225              		.loc 1 396 0
 226 00d2 0124     		movs	r4, #1
 227              	.LVL15:
 228              		.loc 1 397 0
ARM GAS  /tmp/cccjiBlq.s 			page 5


 229 00d4 0192     		str	r2, [sp, #4]
 230 00d6 89B2     		uxth	r1, r1
 231              		.loc 1 395 0
 232 00d8 2B70     		strb	r3, [r5]
 233              		.loc 1 396 0
 234 00da 6C70     		strb	r4, [r5, #1]
 235              		.loc 1 397 0
 236 00dc 3D4A     		ldr	r2, .L30+12
 237 00de 0223     		movs	r3, #2
 238 00e0 FFF7FEFF 		bl	i2cMasterTransmitTimeout
 239              	.LVL16:
 240 00e4 0446     		mov	r4, r0
 241              	.LVL17:
 242              		.loc 1 398 0
 243 00e6 3948     		ldr	r0, .L30+4
 244              	.LVL18:
 245 00e8 FFF7FEFF 		bl	i2cReleaseBus
 246              	.LVL19:
 247              		.loc 1 400 0
 248 00ec ECB9     		cbnz	r4, .L9
 249              	.L13:
 250              		.loc 1 406 0
 251 00ee 3748     		ldr	r0, .L30+4
 252              		.loc 1 407 0
 253 00f0 384C     		ldr	r4, .L30+12
 254              	.LVL20:
 255              		.loc 1 409 0
 256 00f2 DFF8DCA0 		ldr	r10, .L30+8
 257 00f6 DFF8E490 		ldr	r9, .L30+20
 258              		.loc 1 406 0
 259 00fa FFF7FEFF 		bl	i2cAcquireBus
 260              	.LVL21:
 261              		.loc 1 409 0
 262 00fe 3988     		ldrh	r1, [r7]
 263 0100 3248     		ldr	r0, .L30+4
 264 0102 CDF80080 		str	r8, [sp]
 265 0106 0023     		movs	r3, #0
 266 0108 0193     		str	r3, [sp, #4]
 267 010a 0A26     		movs	r6, #10
 268              		.loc 1 407 0
 269 010c 1C23     		movs	r3, #28
 270              		.loc 1 408 0
 271 010e 1827     		movs	r7, #24
 272              		.loc 1 409 0
 273 0110 0296     		str	r6, [sp, #8]
 274 0112 89B2     		uxth	r1, r1
 275              		.loc 1 407 0
 276 0114 2B70     		strb	r3, [r5]
 277              		.loc 1 408 0
 278 0116 6F70     		strb	r7, [r5, #1]
 279              		.loc 1 409 0
 280 0118 2246     		mov	r2, r4
 281 011a 0223     		movs	r3, #2
 282 011c FFF7FEFF 		bl	i2cMasterTransmitTimeout
 283              	.LVL22:
 284 0120 0546     		mov	r5, r0
 285              	.LVL23:
ARM GAS  /tmp/cccjiBlq.s 			page 6


 286              		.loc 1 410 0
 287 0122 2A48     		ldr	r0, .L30+4
 288              	.LVL24:
 289 0124 FFF7FEFF 		bl	i2cReleaseBus
 290              	.LVL25:
 291              		.loc 1 412 0
 292 0128 1DB1     		cbz	r5, .L29
 293              	.LVL26:
 294              	.L9:
 295              		.loc 1 401 0
 296 012a 0020     		movs	r0, #0
 297              	.L14:
 298              		.loc 1 452 0
 299 012c 06B0     		add	sp, sp, #24
 300              		.cfi_remember_state
 301              		.cfi_def_cfa_offset 32
 302              		@ sp needed
 303 012e BDE8F087 		pop	{r4, r5, r6, r7, r8, r9, r10, pc}
 304              	.LVL27:
 305              	.L29:
 306              		.cfi_restore_state
 307              		.loc 1 417 0
 308 0132 2648     		ldr	r0, .L30+4
 309 0134 FFF7FEFF 		bl	i2cAcquireBus
 310              	.LVL28:
 311              		.loc 1 420 0
 312 0138 BAF80010 		ldrh	r1, [r10]
 313 013c 0195     		str	r5, [sp, #4]
 314              		.loc 1 418 0
 315 013e 1B25     		movs	r5, #27
 316              	.LVL29:
 317              		.loc 1 420 0
 318 0140 CDF80090 		str	r9, [sp]
 319 0144 0296     		str	r6, [sp, #8]
 320 0146 89B2     		uxth	r1, r1
 321              		.loc 1 418 0
 322 0148 2570     		strb	r5, [r4]
 323              		.loc 1 420 0
 324 014a 2048     		ldr	r0, .L30+4
 325              		.loc 1 419 0
 326 014c 6770     		strb	r7, [r4, #1]
 327              		.loc 1 420 0
 328 014e 2246     		mov	r2, r4
 329 0150 0223     		movs	r3, #2
 330 0152 FFF7FEFF 		bl	i2cMasterTransmitTimeout
 331              	.LVL30:
 332 0156 0546     		mov	r5, r0
 333              	.LVL31:
 334              		.loc 1 421 0
 335 0158 1C48     		ldr	r0, .L30+4
 336              	.LVL32:
 337 015a FFF7FEFF 		bl	i2cReleaseBus
 338              	.LVL33:
 339              		.loc 1 423 0
 340 015e 002D     		cmp	r5, #0
 341 0160 E3D1     		bne	.L9
 342              		.loc 1 428 0
ARM GAS  /tmp/cccjiBlq.s 			page 7


 343 0162 1A48     		ldr	r0, .L30+4
 344 0164 FFF7FEFF 		bl	i2cAcquireBus
 345              	.LVL34:
 346              		.loc 1 431 0
 347 0168 BAF80010 		ldrh	r1, [r10]
 348 016c CDF80090 		str	r9, [sp]
 349              		.loc 1 429 0
 350 0170 1A27     		movs	r7, #26
 351              		.loc 1 431 0
 352 0172 0195     		str	r5, [sp, #4]
 353 0174 0296     		str	r6, [sp, #8]
 354 0176 89B2     		uxth	r1, r1
 355              		.loc 1 429 0
 356 0178 2770     		strb	r7, [r4]
 357              		.loc 1 431 0
 358 017a 1448     		ldr	r0, .L30+4
 359              		.loc 1 430 0
 360 017c 6570     		strb	r5, [r4, #1]
 361              		.loc 1 431 0
 362 017e 2246     		mov	r2, r4
 363 0180 0223     		movs	r3, #2
 364 0182 FFF7FEFF 		bl	i2cMasterTransmitTimeout
 365              	.LVL35:
 366 0186 0746     		mov	r7, r0
 367              	.LVL36:
 368              		.loc 1 432 0
 369 0188 1048     		ldr	r0, .L30+4
 370              	.LVL37:
 371 018a FFF7FEFF 		bl	i2cReleaseBus
 372              	.LVL38:
 373              		.loc 1 434 0
 374 018e 002F     		cmp	r7, #0
 375 0190 CBD1     		bne	.L9
 376              		.loc 1 440 0
 377 0192 0E48     		ldr	r0, .L30+4
 378 0194 FFF7FEFF 		bl	i2cAcquireBus
 379              	.LVL39:
 380              		.loc 1 443 0
 381 0198 BAF80010 		ldrh	r1, [r10]
 382 019c 0296     		str	r6, [sp, #8]
 383              		.loc 1 442 0
 384 019e 0225     		movs	r5, #2
 385              		.loc 1 441 0
 386 01a0 3726     		movs	r6, #55
 387              		.loc 1 443 0
 388 01a2 CDF80090 		str	r9, [sp]
 389 01a6 0197     		str	r7, [sp, #4]
 390 01a8 2246     		mov	r2, r4
 391 01aa 89B2     		uxth	r1, r1
 392 01ac 2B46     		mov	r3, r5
 393              		.loc 1 442 0
 394 01ae 6570     		strb	r5, [r4, #1]
 395              		.loc 1 441 0
 396 01b0 2670     		strb	r6, [r4]
 397              		.loc 1 443 0
 398 01b2 0648     		ldr	r0, .L30+4
 399 01b4 FFF7FEFF 		bl	i2cMasterTransmitTimeout
ARM GAS  /tmp/cccjiBlq.s 			page 8


 400              	.LVL40:
 401 01b8 0446     		mov	r4, r0
 402              	.LVL41:
 403              		.loc 1 444 0
 404 01ba 0448     		ldr	r0, .L30+4
 405              	.LVL42:
 406 01bc FFF7FEFF 		bl	i2cReleaseBus
 407              	.LVL43:
 408              		.loc 1 446 0
 409 01c0 B4FA84F0 		clz	r0, r4
 410 01c4 4009     		lsrs	r0, r0, #5
 411 01c6 B1E7     		b	.L14
 412              	.L31:
 413              		.align	2
 414              	.L30:
 415 01c8 00040240 		.word	1073873920
 416 01cc 00000000 		.word	I2CD2
 417 01d0 00000000 		.word	.LANCHOR2
 418 01d4 00000000 		.word	.LANCHOR1
 419 01d8 00000000 		.word	.LANCHOR0
 420 01dc 00000000 		.word	.LANCHOR3
 421              		.cfi_endproc
 422              	.LFE270:
 423              		.size	reset_init_mpu, .-reset_init_mpu
 424              		.section	.text.chprintf,"ax",%progbits
 425              		.align	2
 426              		.p2align 4,,15
 427              		.thumb
 428              		.thumb_func
 429              		.type	chprintf, %function
 430              	chprintf:
 431              	.LFB256:
 432              		.file 3 "ChibiOS_3.0.2/os/hal/lib/streams/chprintf.h"
 433              		.loc 3 69 0
 434              		.cfi_startproc
 435              		@ args = 4, pretend = 12, frame = 8
 436              		@ frame_needed = 0, uses_anonymous_args = 1
 437              	.LVL44:
 438 0000 0EB4     		push	{r1, r2, r3}
 439              		.cfi_def_cfa_offset 12
 440              		.cfi_offset 1, -12
 441              		.cfi_offset 2, -8
 442              		.cfi_offset 3, -4
 443 0002 00B5     		push	{lr}
 444              		.cfi_def_cfa_offset 16
 445              		.cfi_offset 14, -16
 446 0004 82B0     		sub	sp, sp, #8
 447              		.cfi_def_cfa_offset 24
 448              		.loc 3 69 0
 449 0006 03AA     		add	r2, sp, #12
 450 0008 52F8041B 		ldr	r1, [r2], #4
 451              		.loc 3 73 0
 452 000c 0192     		str	r2, [sp, #4]
 453              		.loc 3 74 0
 454 000e FFF7FEFF 		bl	chvprintf
 455              	.LVL45:
 456              		.loc 3 78 0
ARM GAS  /tmp/cccjiBlq.s 			page 9


 457 0012 02B0     		add	sp, sp, #8
 458              		.cfi_def_cfa_offset 16
 459              		@ sp needed
 460 0014 5DF804EB 		ldr	lr, [sp], #4
 461              		.cfi_restore 14
 462              		.cfi_def_cfa_offset 12
 463 0018 03B0     		add	sp, sp, #12
 464              		.cfi_restore 3
 465              		.cfi_restore 2
 466              		.cfi_restore 1
 467              		.cfi_def_cfa_offset 0
 468 001a 7047     		bx	lr
 469              		.cfi_endproc
 470              	.LFE256:
 471              		.size	chprintf, .-chprintf
 472              		.section	.text.mpu_thread,"ax",%progbits
 473              		.align	2
 474              		.p2align 4,,15
 475              		.thumb
 476              		.thumb_func
 477              		.type	mpu_thread, %function
 478              	mpu_thread:
 479              	.LFB269:
 480              		.loc 1 268 0
 481              		.cfi_startproc
 482              		@ args = 0, pretend = 0, frame = 32
 483              		@ frame_needed = 0, uses_anonymous_args = 0
 484              	.LVL46:
 485 0000 2DE9F04F 		push	{r4, r5, r6, r7, r8, r9, r10, fp, lr}
 486              		.cfi_def_cfa_offset 36
 487              		.cfi_offset 4, -36
 488              		.cfi_offset 5, -32
 489              		.cfi_offset 6, -28
 490              		.cfi_offset 7, -24
 491              		.cfi_offset 8, -20
 492              		.cfi_offset 9, -16
 493              		.cfi_offset 10, -12
 494              		.cfi_offset 11, -8
 495              		.cfi_offset 14, -4
 496              	.LBB292:
 497              	.LBB293:
 498              		.file 4 "ChibiOS_3.0.2/os/rt/include/chregistry.h"
 499              		.loc 4 135 0
 500 0004 DFF8B0B2 		ldr	fp, .L61+56
 501 0008 9D4A     		ldr	r2, .L61
 502 000a DBF81830 		ldr	r3, [fp, #24]
 503              	.LBE293:
 504              	.LBE292:
 505              		.loc 1 268 0
 506 000e 8DB0     		sub	sp, sp, #52
 507              		.cfi_def_cfa_offset 88
 508              	.LBB295:
 509              	.LBB294:
 510              		.loc 4 135 0
 511 0010 9A61     		str	r2, [r3, #24]
 512              	.LBE294:
 513              	.LBE295:
ARM GAS  /tmp/cccjiBlq.s 			page 10


 514              	.LBB296:
 515              	.LBB297:
 516              	.LBB298:
 517              	.LBB299:
 518              	.LBB300:
 519              	.LBB301:
 520              		.file 5 "ChibiOS_3.0.2/os/ext/CMSIS/include/core_cmFunc.h"
 521              		.loc 5 342 0
 522              	@ 342 "ChibiOS_3.0.2/os/ext/CMSIS/include/core_cmFunc.h" 1
 523 0012 72B6     		cpsid i
 524              	@ 0 "" 2
 525              		.thumb
 526              	.LBE301:
 527              	.LBE300:
 528              	.LBE299:
 529              	.LBE298:
 530              	.LBB302:
 531              	.LBB303:
 532              		.file 6 "ChibiOS_3.0.2/os/rt/include/chvt.h"
 533              		.loc 6 231 0
 534 0014 DBF82830 		ldr	r3, [fp, #40]
 535              	.LBE303:
 536              	.LBE302:
 537              	.LBB304:
 538              	.LBB305:
 539              	.LBB306:
 540              	.LBB307:
 541              	.LBB308:
 542              		.loc 5 331 0
 543              	@ 331 "ChibiOS_3.0.2/os/ext/CMSIS/include/core_cmFunc.h" 1
 544 0018 62B6     		cpsie i
 545              	@ 0 "" 2
 546              		.thumb
 547              	.LBE308:
 548              	.LBE307:
 549              	.LBE306:
 550              	.LBE305:
 551              	.LBE304:
 552              	.LBE297:
 553              	.LBE296:
 554              		.loc 1 279 0
 555 001a DFF89892 		ldr	r9, .L61+52
 556 001e DFF878A2 		ldr	r10, .L61+24
 557 0022 DFF8A082 		ldr	r8, .L61+68
 558 0026 C9F80030 		str	r3, [r9]
 559              	.LVL47:
 560              	.L35:
 561              	.LBB309:
 562              	.LBB310:
 563              	.LBB311:
 564              		.loc 1 457 0
 565 002a 964A     		ldr	r2, .L61+4
 566              		.loc 1 458 0
 567 002c 9648     		ldr	r0, .L61+8
 568              		.loc 1 459 0
 569 002e 974D     		ldr	r5, .L61+12
 570              		.loc 1 457 0
ARM GAS  /tmp/cccjiBlq.s 			page 11


 571 0030 3B23     		movs	r3, #59
 572 0032 1370     		strb	r3, [r2]
 573              		.loc 1 458 0
 574 0034 FFF7FEFF 		bl	i2cAcquireBus
 575              	.LVL48:
 576              		.loc 1 459 0
 577 0038 954B     		ldr	r3, .L61+16
 578 003a 9348     		ldr	r0, .L61+8
 579 003c 1988     		ldrh	r1, [r3]
 580 003e 934B     		ldr	r3, .L61+12
 581 0040 0093     		str	r3, [sp]
 582 0042 0A26     		movs	r6, #10
 583 0044 0E23     		movs	r3, #14
 584 0046 0193     		str	r3, [sp, #4]
 585 0048 89B2     		uxth	r1, r1
 586 004a 0296     		str	r6, [sp, #8]
 587 004c 8D4A     		ldr	r2, .L61+4
 588 004e 0123     		movs	r3, #1
 589 0050 FFF7FEFF 		bl	i2cMasterTransmitTimeout
 590              	.LVL49:
 591 0054 0446     		mov	r4, r0
 592              	.LVL50:
 593              		.loc 1 460 0
 594 0056 8C48     		ldr	r0, .L61+8
 595              	.LVL51:
 596 0058 FFF7FEFF 		bl	i2cReleaseBus
 597              	.LVL52:
 598              		.loc 1 462 0
 599 005c 002C     		cmp	r4, #0
 600 005e 40F09D80 		bne	.L36
 601              	.LVL53:
 602              	.LBB312:
 603              		.loc 1 468 0
 604 0062 95F800E0 		ldrb	lr, [r5]	@ zero_extendqisi2
 605              	.LBE312:
 606              	.LBB313:
 607              		.loc 1 474 0
 608 0066 697A     		ldrb	r1, [r5, #9]	@ zero_extendqisi2
 609 0068 E87A     		ldrb	r0, [r5, #11]	@ zero_extendqisi2
 610 006a 6A7B     		ldrb	r2, [r5, #13]	@ zero_extendqisi2
 611              	.LBE313:
 612              	.LBB314:
 613              		.loc 1 468 0
 614 006c 6B78     		ldrb	r3, [r5, #1]	@ zero_extendqisi2
 615              	.LBE314:
 616              	.LBB315:
 617              		.loc 1 474 0
 618 006e 95F808C0 		ldrb	ip, [r5, #8]	@ zero_extendqisi2
 619 0072 AE7A     		ldrb	r6, [r5, #10]	@ zero_extendqisi2
 620 0074 2F7B     		ldrb	r7, [r5, #12]	@ zero_extendqisi2
 621              	.LBE315:
 622              	.LBB316:
 623              		.loc 1 468 0
 624 0076 03EB0E23 		add	r3, r3, lr, lsl #8
 625              	.LBE316:
 626              	.LBB317:
 627              		.loc 1 474 0
ARM GAS  /tmp/cccjiBlq.s 			page 12


 628 007a 01EB0C2C 		add	ip, r1, ip, lsl #8
 629              	.LBE317:
 630              	.LBB318:
 631              		.loc 1 468 0
 632 007e 95F802E0 		ldrb	lr, [r5, #2]	@ zero_extendqisi2
 633 0082 E978     		ldrb	r1, [r5, #3]	@ zero_extendqisi2
 634              	.LBE318:
 635              	.LBB319:
 636              		.loc 1 474 0
 637 0084 00EB0626 		add	r6, r0, r6, lsl #8
 638 0088 02EB0727 		add	r7, r2, r7, lsl #8
 639              	.LBE319:
 640              	.LBB320:
 641              		.loc 1 468 0
 642 008c 2879     		ldrb	r0, [r5, #4]	@ zero_extendqisi2
 643 008e 6A79     		ldrb	r2, [r5, #5]	@ zero_extendqisi2
 644 0090 01EB0E21 		add	r1, r1, lr, lsl #8
 645 0094 02EB0022 		add	r2, r2, r0, lsl #8
 646 0098 9BB2     		uxth	r3, r3
 647              	.LBE320:
 648              	.LBB321:
 649              		.loc 1 474 0
 650 009a 1FFA8CF5 		uxth	r5, ip
 651 009e B6B2     		uxth	r6, r6
 652 00a0 BFB2     		uxth	r7, r7
 653              	.LBE321:
 654              	.LBB322:
 655              		.loc 1 468 0
 656 00a2 AAF80210 		strh	r1, [r10, #2]	@ movhi
 657 00a6 AAF80030 		strh	r3, [r10]	@ movhi
 658              	.LVL54:
 659              	.LBE322:
 660              	.LBB323:
 661              		.loc 1 474 0
 662 00aa AAF80650 		strh	r5, [r10, #6]	@ movhi
 663 00ae AAF80860 		strh	r6, [r10, #8]	@ movhi
 664 00b2 AAF80A70 		strh	r7, [r10, #10]	@ movhi
 665              	.LBE323:
 666              	.LBB324:
 667              		.loc 1 468 0
 668 00b6 AAF80420 		strh	r2, [r10, #4]	@ movhi
 669              	.LVL55:
 670 00ba DFF8DCA1 		ldr	r10, .L61+24
 671              	.LBE324:
 672              	.LBB325:
 673              		.loc 1 474 0
 674 00be 2046     		mov	r0, r4
 675 00c0 5146     		mov	r1, r10
 676              	.LVL56:
 677              	.L39:
 678              	.LBE325:
 679              	.LBE311:
 680              	.LBE310:
 681              	.LBB326:
 682              	.LBB327:
 683              		.loc 1 285 0
 684 00c2 38F81020 		ldrh	r2, [r8, r0, lsl #1]
ARM GAS  /tmp/cccjiBlq.s 			page 13


 685 00c6 1BB2     		sxth	r3, r3
 686 00c8 12B2     		sxth	r2, r2
 687 00ca 9A42     		cmp	r2, r3
 688              		.loc 1 284 0
 689 00cc 00F10100 		add	r0, r0, #1
 690              	.LVL57:
 691              		.loc 1 285 0
 692 00d0 78D1     		bne	.L37
 693              		.loc 1 284 0 discriminator 2
 694 00d2 0628     		cmp	r0, #6
 695 00d4 02D0     		beq	.L38
 696 00d6 31F8023F 		ldrh	r3, [r1, #2]!
 697 00da F2E7     		b	.L39
 698              	.L38:
 699              	.LVL58:
 700              	.LBE327:
 701              		.loc 1 292 0
 702 00dc 6D4B     		ldr	r3, .L61+20
 703 00de 6D4A     		ldr	r2, .L61+20
 704 00e0 1B68     		ldr	r3, [r3]
 705 00e2 0133     		adds	r3, r3, #1
 706              		.loc 1 297 0
 707 00e4 042B     		cmp	r3, #4
 708              		.loc 1 292 0
 709 00e6 1360     		str	r3, [r2]
 710              		.loc 1 297 0
 711 00e8 67DC     		bgt	.L59
 712              	.LVL59:
 713              	.L48:
 714              		.loc 1 303 0
 715 00ea 6B4C     		ldr	r4, .L61+24
 716              	.LVL60:
 717 00ec DFF8D4C1 		ldr	ip, .L61+68
 718              		.loc 1 307 0
 719 00f0 DFF8D4E1 		ldr	lr, .L61+72
 720              		.loc 1 303 0
 721 00f4 0FCC     		ldmia	r4!, {r0, r1, r2, r3}
 722              	.LVL61:
 723 00f6 ACE80F00 		stmia	ip!, {r0, r1, r2, r3}
 724 00fa A246     		mov	r10, r4
 725 00fc 5AF81039 		ldr	r3, [r10], #-16
 726 0100 ACF80030 		strh	r3, [ip]	@ movhi
 727              		.loc 1 304 0
 728 0104 654B     		ldr	r3, .L61+28
 729 0106 1988     		ldrh	r1, [r3]
 730              		.loc 1 305 0
 731 0108 5A88     		ldrh	r2, [r3, #2]
 732              		.loc 1 306 0
 733 010a 9B88     		ldrh	r3, [r3, #4]
 734              		.loc 1 304 0
 735 010c 6D1A     		subs	r5, r5, r1
 736              		.loc 1 305 0
 737 010e B61A     		subs	r6, r6, r2
 738              		.loc 1 306 0
 739 0110 FF1A     		subs	r7, r7, r3
 740              		.loc 1 304 0
 741 0112 24F80A5C 		strh	r5, [r4, #-10]	@ movhi
ARM GAS  /tmp/cccjiBlq.s 			page 14


 742              		.loc 1 305 0
 743 0116 AAF80860 		strh	r6, [r10, #8]	@ movhi
 744              		.loc 1 306 0
 745 011a AAF80A70 		strh	r7, [r10, #10]	@ movhi
 746              		.loc 1 307 0
 747 011e 5546     		mov	r5, r10
 748 0120 0FCD     		ldmia	r5!, {r0, r1, r2, r3}
 749 0122 AEE80F00 		stmia	lr!, {r0, r1, r2, r3}
 750 0126 2368     		ldr	r3, [r4]
 751 0128 AEF80030 		strh	r3, [lr]	@ movhi
 752              	.LBB328:
 753              	.LBB329:
 754              	.LBB330:
 755              	.LBB331:
 756              	.LBB332:
 757              	.LBB333:
 758              		.loc 5 342 0
 759              	@ 342 "ChibiOS_3.0.2/os/ext/CMSIS/include/core_cmFunc.h" 1
 760 012c 72B6     		cpsid i
 761              	@ 0 "" 2
 762              		.thumb
 763              	.LBE333:
 764              	.LBE332:
 765              	.LBE331:
 766              	.LBE330:
 767              	.LBB334:
 768              	.LBB335:
 769              		.loc 6 231 0
 770 012e DBF82830 		ldr	r3, [fp, #40]
 771              	.LBE335:
 772              	.LBE334:
 773              	.LBB336:
 774              	.LBB337:
 775              	.LBB338:
 776              	.LBB339:
 777              	.LBB340:
 778              		.loc 5 331 0
 779              	@ 331 "ChibiOS_3.0.2/os/ext/CMSIS/include/core_cmFunc.h" 1
 780 0132 62B6     		cpsie i
 781              	@ 0 "" 2
 782              		.thumb
 783              	.LBE340:
 784              	.LBE339:
 785              	.LBE338:
 786              	.LBE337:
 787              	.LBE336:
 788              	.LBE329:
 789              	.LBE328:
 790              		.loc 1 309 0
 791 0134 5A4A     		ldr	r2, .L61+32
 792 0136 1268     		ldr	r2, [r2]
 793 0138 9B1A     		subs	r3, r3, r2
 794 013a 5A4A     		ldr	r2, .L61+36
 795 013c 1360     		str	r3, [r2]
 796              	.LBB341:
 797              	.LBB342:
 798              	.LBB343:
ARM GAS  /tmp/cccjiBlq.s 			page 15


 799              	.LBB344:
 800              	.LBB345:
 801              	.LBB346:
 802              		.loc 5 342 0
 803              	@ 342 "ChibiOS_3.0.2/os/ext/CMSIS/include/core_cmFunc.h" 1
 804 013e 72B6     		cpsid i
 805              	@ 0 "" 2
 806              		.thumb
 807              	.LBE346:
 808              	.LBE345:
 809              	.LBE344:
 810              	.LBE343:
 811              	.LBB347:
 812              	.LBB348:
 813              		.loc 6 231 0
 814 0140 DBF82820 		ldr	r2, [fp, #40]
 815              	.LBE348:
 816              	.LBE347:
 817              	.LBB349:
 818              	.LBB350:
 819              	.LBB351:
 820              	.LBB352:
 821              	.LBB353:
 822              		.loc 5 331 0
 823              	@ 331 "ChibiOS_3.0.2/os/ext/CMSIS/include/core_cmFunc.h" 1
 824 0144 62B6     		cpsie i
 825              	@ 0 "" 2
 826              		.thumb
 827              	.LBE353:
 828              	.LBE352:
 829              	.LBE351:
 830              	.LBE350:
 831              	.LBE349:
 832              	.LBE342:
 833              	.LBE341:
 834              		.loc 1 312 0
 835 0146 584B     		ldr	r3, .L61+40
 836              		.loc 1 310 0
 837 0148 5549     		ldr	r1, .L61+32
 838              		.loc 1 312 0
 839 014a 1B68     		ldr	r3, [r3]
 840              		.loc 1 310 0
 841 014c 0A60     		str	r2, [r1]
 842              		.loc 1 312 0
 843 014e 03B1     		cbz	r3, .L41
 844              		.loc 1 313 0
 845 0150 9847     		blx	r3
 846              	.LVL62:
 847              	.L41:
 848              		.loc 1 317 0
 849 0152 564B     		ldr	r3, .L61+44
 850 0154 554A     		ldr	r2, .L61+44
 851 0156 1B68     		ldr	r3, [r3]
 852 0158 0133     		adds	r3, r3, #1
 853              		.loc 1 318 0
 854 015a 092B     		cmp	r3, #9
 855              		.loc 1 317 0
ARM GAS  /tmp/cccjiBlq.s 			page 16


 856 015c 1360     		str	r3, [r2]
 857              		.loc 1 318 0
 858 015e 35DC     		bgt	.L60
 859              		.loc 1 333 0
 860 0160 5349     		ldr	r1, .L61+48
 861 0162 D9F80030 		ldr	r3, [r9]
 862 0166 0022     		movs	r2, #0
 863 0168 0A60     		str	r2, [r1]
 864              	.LVL63:
 865              	.L40:
 866              	.LBE326:
 867              		.loc 1 344 0
 868 016a 0A33     		adds	r3, r3, #10
 869 016c C9F80030 		str	r3, [r9]
 870 0170 504C     		ldr	r4, .L61+52
 871              	.LBB370:
 872              	.LBB371:
 873              	.LBB372:
 874              	.LBB373:
 875              	.LBB374:
 876              	.LBB375:
 877              		.loc 5 342 0
 878              	@ 342 "ChibiOS_3.0.2/os/ext/CMSIS/include/core_cmFunc.h" 1
 879 0172 72B6     		cpsid i
 880              	@ 0 "" 2
 881              		.thumb
 882              	.LBE375:
 883              	.LBE374:
 884              	.LBE373:
 885              	.LBE372:
 886              	.LBB376:
 887              	.LBB377:
 888              		.loc 6 231 0
 889 0174 504D     		ldr	r5, .L61+56
 890 0176 DBF82830 		ldr	r3, [fp, #40]
 891              	.LBE377:
 892              	.LBE376:
 893              	.LBB378:
 894              	.LBB379:
 895              	.LBB380:
 896              	.LBB381:
 897              	.LBB382:
 898              		.loc 5 331 0
 899              	@ 331 "ChibiOS_3.0.2/os/ext/CMSIS/include/core_cmFunc.h" 1
 900 017a 62B6     		cpsie i
 901              	@ 0 "" 2
 902              		.thumb
 903              	.LBE382:
 904              	.LBE381:
 905              	.LBE380:
 906              	.LBE379:
 907              	.LBE378:
 908              	.LBE371:
 909              	.LBE370:
 910              		.loc 1 346 0
 911 017c D9F80000 		ldr	r0, [r9]
 912 0180 8342     		cmp	r3, r0
ARM GAS  /tmp/cccjiBlq.s 			page 17


 913 0182 03D2     		bcs	.L45
 914              		.loc 1 347 0
 915 0184 C01A     		subs	r0, r0, r3
 916 0186 FFF7FEFF 		bl	chThdSleep
 917              	.LVL64:
 918 018a 4EE7     		b	.L35
 919              	.L45:
 920              		.loc 1 349 0
 921 018c 0520     		movs	r0, #5
 922 018e FFF7FEFF 		bl	chThdSleep
 923              	.LVL65:
 924              	.LBB383:
 925              	.LBB384:
 926              	.LBB385:
 927              	.LBB386:
 928              	.LBB387:
 929              	.LBB388:
 930              		.loc 5 342 0
 931              	@ 342 "ChibiOS_3.0.2/os/ext/CMSIS/include/core_cmFunc.h" 1
 932 0192 72B6     		cpsid i
 933              	@ 0 "" 2
 934              		.thumb
 935              	.LBE388:
 936              	.LBE387:
 937              	.LBE386:
 938              	.LBE385:
 939              	.LBB389:
 940              	.LBB390:
 941              		.loc 6 231 0
 942 0194 AB6A     		ldr	r3, [r5, #40]
 943              	.LBE390:
 944              	.LBE389:
 945              	.LBB391:
 946              	.LBB392:
 947              	.LBB393:
 948              	.LBB394:
 949              	.LBB395:
 950              		.loc 5 331 0
 951              	@ 331 "ChibiOS_3.0.2/os/ext/CMSIS/include/core_cmFunc.h" 1
 952 0196 62B6     		cpsie i
 953              	@ 0 "" 2
 954              		.thumb
 955              	.LBE395:
 956              	.LBE394:
 957              	.LBE393:
 958              	.LBE392:
 959              	.LBE391:
 960              	.LBE384:
 961              	.LBE383:
 962              		.loc 1 350 0
 963 0198 2360     		str	r3, [r4]
 964 019a 46E7     		b	.L35
 965              	.LVL66:
 966              	.L36:
 967              		.loc 1 338 0
 968 019c 474B     		ldr	r3, .L61+60
 969 019e 1B68     		ldr	r3, [r3]
ARM GAS  /tmp/cccjiBlq.s 			page 18


 970              		.loc 1 339 0
 971 01a0 3046     		mov	r0, r6
 972              		.loc 1 338 0
 973 01a2 0133     		adds	r3, r3, #1
 974              	.L56:
 975 01a4 454A     		ldr	r2, .L61+60
 976              	.LVL67:
 977              	.L57:
 978 01a6 1360     		str	r3, [r2]
 979              		.loc 1 339 0
 980 01a8 FFF7FEFF 		bl	chThdSleep
 981              	.LVL68:
 982              		.loc 1 340 0
 983 01ac FFF7FEFF 		bl	reset_init_mpu
 984              	.LVL69:
 985              	.LBB396:
 986              	.LBB397:
 987              	.LBB398:
 988              	.LBB399:
 989              	.LBB400:
 990              	.LBB401:
 991              		.loc 5 342 0
 992              	@ 342 "ChibiOS_3.0.2/os/ext/CMSIS/include/core_cmFunc.h" 1
 993 01b0 72B6     		cpsid i
 994              	@ 0 "" 2
 995              		.thumb
 996              	.LBE401:
 997              	.LBE400:
 998              	.LBE399:
 999              	.LBE398:
 1000              	.LBB402:
 1001              	.LBB403:
 1002              		.loc 6 231 0
 1003 01b2 DBF82830 		ldr	r3, [fp, #40]
 1004              	.LBE403:
 1005              	.LBE402:
 1006              	.LBB404:
 1007              	.LBB405:
 1008              	.LBB406:
 1009              	.LBB407:
 1010              	.LBB408:
 1011              		.loc 5 331 0
 1012              	@ 331 "ChibiOS_3.0.2/os/ext/CMSIS/include/core_cmFunc.h" 1
 1013 01b6 62B6     		cpsie i
 1014              	@ 0 "" 2
 1015              		.thumb
 1016 01b8 D7E7     		b	.L40
 1017              	.LVL70:
 1018              	.L59:
 1019              	.LBE408:
 1020              	.LBE407:
 1021              	.LBE406:
 1022              	.LBE405:
 1023              	.LBE404:
 1024              	.LBE397:
 1025              	.LBE396:
 1026              	.LBB409:
ARM GAS  /tmp/cccjiBlq.s 			page 19


 1027              		.loc 1 298 0
 1028 01ba 404B     		ldr	r3, .L61+60
 1029 01bc 1B68     		ldr	r3, [r3]
 1030              		.loc 1 299 0
 1031 01be 0A20     		movs	r0, #10
 1032              	.LVL71:
 1033              		.loc 1 298 0
 1034 01c0 0133     		adds	r3, r3, #1
 1035 01c2 EFE7     		b	.L56
 1036              	.LVL72:
 1037              	.L37:
 1038              		.loc 1 294 0
 1039 01c4 334A     		ldr	r2, .L61+20
 1040 01c6 0023     		movs	r3, #0
 1041 01c8 1360     		str	r3, [r2]
 1042 01ca 8EE7     		b	.L48
 1043              	.LVL73:
 1044              	.L60:
 1045              	.LBB354:
 1046              		.loc 1 319 0
 1047 01cc 0021     		movs	r1, #0
 1048 01ce 1160     		str	r1, [r2]
 1049              	.LBB355:
 1050              	.LBB356:
 1051              		.loc 1 485 0
 1052 01d0 2C4C     		ldr	r4, .L61+4
 1053              	.LBE356:
 1054              	.LBE355:
 1055              		.loc 1 320 0
 1056 01d2 374A     		ldr	r2, .L61+48
 1057              	.LBB366:
 1058              	.LBB362:
 1059              		.loc 1 486 0
 1060 01d4 2C48     		ldr	r0, .L61+8
 1061              		.loc 1 487 0
 1062 01d6 2D4F     		ldr	r7, .L61+12
 1063              		.loc 1 485 0
 1064 01d8 0323     		movs	r3, #3
 1065              	.LBE362:
 1066              	.LBE366:
 1067              		.loc 1 320 0
 1068 01da 0125     		movs	r5, #1
 1069 01dc 1560     		str	r5, [r2]
 1070              	.LVL74:
 1071              	.LBB367:
 1072              	.LBB363:
 1073              		.loc 1 485 0
 1074 01de 2370     		strb	r3, [r4]
 1075              		.loc 1 487 0
 1076 01e0 0A26     		movs	r6, #10
 1077              		.loc 1 486 0
 1078 01e2 FFF7FEFF 		bl	i2cAcquireBus
 1079              	.LVL75:
 1080              		.loc 1 487 0
 1081 01e6 0621     		movs	r1, #6
 1082 01e8 284B     		ldr	r3, .L61+12
 1083 01ea 0093     		str	r3, [sp]
ARM GAS  /tmp/cccjiBlq.s 			page 20


 1084 01ec 2246     		mov	r2, r4
 1085 01ee 2B46     		mov	r3, r5
 1086 01f0 0191     		str	r1, [sp, #4]
 1087 01f2 0296     		str	r6, [sp, #8]
 1088 01f4 0C21     		movs	r1, #12
 1089 01f6 2448     		ldr	r0, .L61+8
 1090 01f8 FFF7FEFF 		bl	i2cMasterTransmitTimeout
 1091              	.LVL76:
 1092 01fc 0590     		str	r0, [sp, #20]
 1093              	.LVL77:
 1094              		.loc 1 488 0
 1095 01fe 2248     		ldr	r0, .L61+8
 1096 0200 FFF7FEFF 		bl	i2cReleaseBus
 1097              	.LVL78:
 1098              		.loc 1 490 0
 1099 0204 059B     		ldr	r3, [sp, #20]
 1100 0206 002B     		cmp	r3, #0
 1101 0208 34D1     		bne	.L43
 1102              	.LVL79:
 1103              	.LBB357:
 1104              		.loc 1 495 0
 1105 020a 7A78     		ldrb	r2, [r7, #1]	@ zero_extendqisi2
 1106 020c 0692     		str	r2, [sp, #24]
 1107 020e 3A78     		ldrb	r2, [r7]	@ zero_extendqisi2
 1108 0210 0792     		str	r2, [sp, #28]
 1109              	.LVL80:
 1110 0212 FA78     		ldrb	r2, [r7, #3]	@ zero_extendqisi2
 1111 0214 0892     		str	r2, [sp, #32]
 1112 0216 BA78     		ldrb	r2, [r7, #2]	@ zero_extendqisi2
 1113 0218 0992     		str	r2, [sp, #36]
 1114              	.LVL81:
 1115 021a 7A79     		ldrb	r2, [r7, #5]	@ zero_extendqisi2
 1116              	.LBE357:
 1117              		.loc 1 499 0
 1118 021c 1A48     		ldr	r0, .L61+8
 1119              	.LBB358:
 1120              		.loc 1 495 0
 1121 021e 0A92     		str	r2, [sp, #40]
 1122 0220 3A79     		ldrb	r2, [r7, #4]	@ zero_extendqisi2
 1123 0222 0B92     		str	r2, [sp, #44]
 1124              	.LVL82:
 1125              	.LBE358:
 1126              		.loc 1 499 0
 1127 0224 FFF7FEFF 		bl	i2cAcquireBus
 1128              	.LVL83:
 1129              		.loc 1 502 0
 1130 0228 059B     		ldr	r3, [sp, #20]
 1131 022a 0193     		str	r3, [sp, #4]
 1132 022c 0097     		str	r7, [sp]
 1133 022e 0296     		str	r6, [sp, #8]
 1134 0230 2246     		mov	r2, r4
 1135              		.loc 1 500 0
 1136 0232 2670     		strb	r6, [r4]
 1137              		.loc 1 501 0
 1138 0234 6570     		strb	r5, [r4, #1]
 1139              		.loc 1 502 0
 1140 0236 1448     		ldr	r0, .L61+8
ARM GAS  /tmp/cccjiBlq.s 			page 21


 1141 0238 0C21     		movs	r1, #12
 1142 023a 0223     		movs	r3, #2
 1143 023c FFF7FEFF 		bl	i2cMasterTransmitTimeout
 1144              	.LVL84:
 1145 0240 0446     		mov	r4, r0
 1146              	.LVL85:
 1147              		.loc 1 503 0
 1148 0242 1148     		ldr	r0, .L61+8
 1149              	.LVL86:
 1150 0244 FFF7FEFF 		bl	i2cReleaseBus
 1151              	.LVL87:
 1152              		.loc 1 505 0
 1153 0248 A4B9     		cbnz	r4, .L43
 1154              	.LBB359:
 1155              		.loc 1 495 0
 1156 024a 079B     		ldr	r3, [sp, #28]
 1157 024c 069A     		ldr	r2, [sp, #24]
 1158 024e 0A98     		ldr	r0, [sp, #40]
 1159 0250 03EB0221 		add	r1, r3, r2, lsl #8
 1160 0254 099B     		ldr	r3, [sp, #36]
 1161 0256 089A     		ldr	r2, [sp, #32]
 1162              	.LBE359:
 1163              	.LBE363:
 1164              	.LBE367:
 1165              		.loc 1 325 0
 1166 0258 AAF80C10 		strh	r1, [r10, #12]	@ movhi
 1167              	.LBB368:
 1168              	.LBB364:
 1169              	.LBB360:
 1170              		.loc 1 495 0
 1171 025c 03EB0222 		add	r2, r3, r2, lsl #8
 1172 0260 0B9B     		ldr	r3, [sp, #44]
 1173              	.LBE360:
 1174              	.LBE364:
 1175              	.LBE368:
 1176              		.loc 1 325 0
 1177 0262 AAF80E20 		strh	r2, [r10, #14]	@ movhi
 1178              	.LBB369:
 1179              	.LBB365:
 1180              	.LBB361:
 1181              		.loc 1 495 0
 1182 0266 03EB0023 		add	r3, r3, r0, lsl #8
 1183              	.LBE361:
 1184              	.LBE365:
 1185              	.LBE369:
 1186              		.loc 1 325 0
 1187 026a AAF81030 		strh	r3, [r10, #16]	@ movhi
 1188 026e D9F80030 		ldr	r3, [r9]
 1189 0272 7AE7     		b	.L40
 1190              	.LVL88:
 1191              	.L43:
 1192              		.loc 1 327 0
 1193 0274 124B     		ldr	r3, .L61+64
 1194 0276 124A     		ldr	r2, .L61+64
 1195 0278 1B68     		ldr	r3, [r3]
 1196              		.loc 1 328 0
 1197 027a 0A20     		movs	r0, #10
ARM GAS  /tmp/cccjiBlq.s 			page 22


 1198              		.loc 1 327 0
 1199 027c 0133     		adds	r3, r3, #1
 1200 027e 92E7     		b	.L57
 1201              	.L62:
 1202              		.align	2
 1203              	.L61:
 1204 0280 00000000 		.word	.LC0
 1205 0284 00000000 		.word	.LANCHOR1
 1206 0288 00000000 		.word	I2CD2
 1207 028c 00000000 		.word	.LANCHOR3
 1208 0290 00000000 		.word	.LANCHOR2
 1209 0294 00000000 		.word	.LANCHOR15
 1210 0298 00000000 		.word	.LANCHOR5
 1211 029c 00000000 		.word	.LANCHOR8
 1212 02a0 00000000 		.word	.LANCHOR10
 1213 02a4 00000000 		.word	.LANCHOR11
 1214 02a8 00000000 		.word	.LANCHOR12
 1215 02ac 00000000 		.word	.LANCHOR13
 1216 02b0 00000000 		.word	.LANCHOR14
 1217 02b4 00000000 		.word	.LANCHOR4
 1218 02b8 00000000 		.word	ch
 1219 02bc 00000000 		.word	.LANCHOR7
 1220 02c0 00000000 		.word	.LANCHOR16
 1221 02c4 00000000 		.word	.LANCHOR6
 1222 02c8 00000000 		.word	.LANCHOR9
 1223              	.LBE354:
 1224              	.LBE409:
 1225              	.LBE309:
 1226              		.cfi_endproc
 1227              	.LFE269:
 1228              		.size	mpu_thread, .-mpu_thread
 1229              		.section	.text.mpu9150_init,"ax",%progbits
 1230              		.align	2
 1231              		.p2align 4,,15
 1232              		.global	mpu9150_init
 1233              		.thumb
 1234              		.thumb_func
 1235              		.type	mpu9150_init, %function
 1236              	mpu9150_init:
 1237              	.LFB257:
 1238              		.loc 1 80 0
 1239              		.cfi_startproc
 1240              		@ args = 0, pretend = 0, frame = 0
 1241              		@ frame_needed = 0, uses_anonymous_args = 0
 1242 0000 2DE9F047 		push	{r4, r5, r6, r7, r8, r9, r10, lr}
 1243              		.cfi_def_cfa_offset 32
 1244              		.cfi_offset 4, -32
 1245              		.cfi_offset 5, -28
 1246              		.cfi_offset 6, -24
 1247              		.cfi_offset 7, -20
 1248              		.cfi_offset 8, -16
 1249              		.cfi_offset 9, -12
 1250              		.cfi_offset 10, -8
 1251              		.cfi_offset 14, -4
 1252              		.loc 1 89 0
 1253 0004 234B     		ldr	r3, .L65
 1254              		.loc 1 84 0
ARM GAS  /tmp/cccjiBlq.s 			page 23


 1255 0006 DFF8ACC0 		ldr	ip, .L65+32
 1256              		.loc 1 85 0
 1257 000a DFF8ACE0 		ldr	lr, .L65+36
 1258              		.loc 1 87 0
 1259 000e 224A     		ldr	r2, .L65+4
 1260              		.loc 1 94 0
 1261 0010 224D     		ldr	r5, .L65+8
 1262              		.loc 1 81 0
 1263 0012 DFF8A8A0 		ldr	r10, .L65+40
 1264              		.loc 1 82 0
 1265 0016 DFF8A880 		ldr	r8, .L65+44
 1266              		.loc 1 86 0
 1267 001a 214F     		ldr	r7, .L65+12
 1268              		.loc 1 83 0
 1269 001c DFF8A490 		ldr	r9, .L65+48
 1270              		.loc 1 81 0
 1271 0020 0024     		movs	r4, #0
 1272              		.loc 1 80 0
 1273 0022 82B0     		sub	sp, sp, #8
 1274              		.cfi_def_cfa_offset 40
 1275              		.loc 1 89 0
 1276 0024 1C60     		str	r4, [r3]
 1277 0026 9C80     		strh	r4, [r3, #4]	@ movhi
 1278              		.loc 1 87 0
 1279 0028 6826     		movs	r6, #104
 1280              		.loc 1 91 0
 1281 002a 0220     		movs	r0, #2
 1282 002c 0121     		movs	r1, #1
 1283              		.loc 1 81 0
 1284 002e CAF80040 		str	r4, [r10]
 1285              		.loc 1 83 0
 1286 0032 C9F80040 		str	r4, [r9]
 1287              		.loc 1 82 0
 1288 0036 C8F80040 		str	r4, [r8]
 1289              		.loc 1 84 0
 1290 003a CCF80040 		str	r4, [ip]
 1291              		.loc 1 85 0
 1292 003e CEF80040 		str	r4, [lr]
 1293              		.loc 1 86 0
 1294 0042 3C60     		str	r4, [r7]
 1295              		.loc 1 87 0
 1296 0044 1680     		strh	r6, [r2]	@ movhi
 1297              		.loc 1 91 0
 1298 0046 FFF7FEFF 		bl	RCC_AHB1PeriphClockCmd
 1299              	.LVL89:
 1300              		.loc 1 94 0
 1301 004a 2846     		mov	r0, r5
 1302 004c 4FF48061 		mov	r1, #1024
 1303 0050 40F20E22 		movw	r2, #526
 1304 0054 FFF7FEFF 		bl	_pal_lld_setgroupmode
 1305              	.LVL90:
 1306              		.loc 1 98 0
 1307 0058 2846     		mov	r0, r5
 1308 005a 4FF40061 		mov	r1, #2048
 1309 005e 40F20E22 		movw	r2, #526
 1310 0062 FFF7FEFF 		bl	_pal_lld_setgroupmode
 1311              	.LVL91:
ARM GAS  /tmp/cccjiBlq.s 			page 24


 1312              		.loc 1 102 0
 1313 0066 6420     		movs	r0, #100
 1314 0068 FFF7FEFF 		bl	chThdSleep
 1315              	.LVL92:
 1316              		.loc 1 104 0
 1317 006c 0D4B     		ldr	r3, .L65+16
 1318              		.loc 1 105 0
 1319 006e 0E49     		ldr	r1, .L65+20
 1320              		.loc 1 104 0
 1321 0070 0122     		movs	r2, #1
 1322              		.loc 1 105 0
 1323 0072 1846     		mov	r0, r3
 1324              		.loc 1 104 0
 1325 0074 1A70     		strb	r2, [r3]
 1326              		.loc 1 105 0
 1327 0076 FFF7FEFF 		bl	i2cStart
 1328              	.LVL93:
 1329              		.loc 1 107 0
 1330 007a FFF7FEFF 		bl	reset_init_mpu
 1331              	.LVL94:
 1332              		.loc 1 109 0
 1333 007e 0094     		str	r4, [sp]
 1334 0080 0A4B     		ldr	r3, .L65+24
 1335 0082 0B48     		ldr	r0, .L65+28
 1336 0084 40F69811 		movw	r1, #2456
 1337 0088 4122     		movs	r2, #65
 1338 008a FFF7FEFF 		bl	chThdCreateStatic
 1339              	.LVL95:
 1340              		.loc 1 111 0
 1341 008e 02B0     		add	sp, sp, #8
 1342              		.cfi_def_cfa_offset 32
 1343              		@ sp needed
 1344 0090 BDE8F087 		pop	{r4, r5, r6, r7, r8, r9, r10, pc}
 1345              	.L66:
 1346              		.align	2
 1347              	.L65:
 1348 0094 00000000 		.word	.LANCHOR8
 1349 0098 00000000 		.word	.LANCHOR2
 1350 009c 00040240 		.word	1073873920
 1351 00a0 00000000 		.word	.LANCHOR14
 1352 00a4 00000000 		.word	I2CD2
 1353 00a8 00000000 		.word	.LANCHOR0
 1354 00ac 00000000 		.word	mpu_thread
 1355 00b0 00000000 		.word	.LANCHOR17
 1356 00b4 00000000 		.word	.LANCHOR10
 1357 00b8 00000000 		.word	.LANCHOR11
 1358 00bc 00000000 		.word	.LANCHOR7
 1359 00c0 00000000 		.word	.LANCHOR16
 1360 00c4 00000000 		.word	.LANCHOR12
 1361              		.cfi_endproc
 1362              	.LFE257:
 1363              		.size	mpu9150_init, .-mpu9150_init
 1364              		.section	.text.mpu9150_set_read_callback,"ax",%progbits
 1365              		.align	2
 1366              		.p2align 4,,15
 1367              		.global	mpu9150_set_read_callback
 1368              		.thumb
ARM GAS  /tmp/cccjiBlq.s 			page 25


 1369              		.thumb_func
 1370              		.type	mpu9150_set_read_callback, %function
 1371              	mpu9150_set_read_callback:
 1372              	.LFB258:
 1373              		.loc 1 113 0
 1374              		.cfi_startproc
 1375              		@ args = 0, pretend = 0, frame = 0
 1376              		@ frame_needed = 0, uses_anonymous_args = 0
 1377              		@ link register save eliminated.
 1378              	.LVL96:
 1379              		.loc 1 114 0
 1380 0000 014B     		ldr	r3, .L68
 1381 0002 1860     		str	r0, [r3]
 1382 0004 7047     		bx	lr
 1383              	.L69:
 1384 0006 00BF     		.align	2
 1385              	.L68:
 1386 0008 00000000 		.word	.LANCHOR12
 1387              		.cfi_endproc
 1388              	.LFE258:
 1389              		.size	mpu9150_set_read_callback, .-mpu9150_set_read_callback
 1390              		.section	.text.mpu9150_get_time_since_update,"ax",%progbits
 1391              		.align	2
 1392              		.p2align 4,,15
 1393              		.global	mpu9150_get_time_since_update
 1394              		.thumb
 1395              		.thumb_func
 1396              		.type	mpu9150_get_time_since_update, %function
 1397              	mpu9150_get_time_since_update:
 1398              	.LFB259:
 1399              		.loc 1 121 0
 1400              		.cfi_startproc
 1401              		@ args = 0, pretend = 0, frame = 0
 1402              		@ frame_needed = 0, uses_anonymous_args = 0
 1403              		@ link register save eliminated.
 1404              		.loc 1 122 0
 1405 0000 084A     		ldr	r2, .L71
 1406              	.LBB410:
 1407              	.LBB411:
 1408              	.LBB412:
 1409              	.LBB413:
 1410              		.loc 6 231 0
 1411 0002 094B     		ldr	r3, .L71+4
 1412              	.LBE413:
 1413              	.LBE412:
 1414              	.LBE411:
 1415              	.LBE410:
 1416              		.loc 1 122 0
 1417 0004 1268     		ldr	r2, [r2]
 1418              	.LVL97:
 1419              	.LBB417:
 1420              	.LBB416:
 1421              	.LBB415:
 1422              	.LBB414:
 1423              		.loc 6 231 0
 1424 0006 9B6A     		ldr	r3, [r3, #40]
 1425              	.LBE414:
ARM GAS  /tmp/cccjiBlq.s 			page 26


 1426              	.LBE415:
 1427              		.loc 6 267 0
 1428 0008 9B1A     		subs	r3, r3, r2
 1429 000a 07EE903A 		fmsr	s15, r3	@ int
 1430              	.LBE416:
 1431              	.LBE417:
 1432              		.loc 1 122 0
 1433 000e F8EE677A 		fuitos	s15, s15
 1434 0012 B2EE047A 		fconsts	s14, #36
 1435 0016 C7EE877A 		fdivs	s15, s15, s14
 1436              		.loc 1 124 0
 1437 001a FCEEE77A 		ftouizs	s15, s15
 1438 001e 17EE900A 		fmrs	r0, s15	@ int
 1439 0022 7047     		bx	lr
 1440              	.L72:
 1441              		.align	2
 1442              	.L71:
 1443 0024 00000000 		.word	.LANCHOR10
 1444 0028 00000000 		.word	ch
 1445              		.cfi_endproc
 1446              	.LFE259:
 1447              		.size	mpu9150_get_time_since_update, .-mpu9150_get_time_since_update
 1448              		.section	.text.mpu9150_get_last_sample_duration,"ax",%progbits
 1449              		.align	2
 1450              		.p2align 4,,15
 1451              		.global	mpu9150_get_last_sample_duration
 1452              		.thumb
 1453              		.thumb_func
 1454              		.type	mpu9150_get_last_sample_duration, %function
 1455              	mpu9150_get_last_sample_duration:
 1456              	.LFB260:
 1457              		.loc 1 129 0
 1458              		.cfi_startproc
 1459              		@ args = 0, pretend = 0, frame = 0
 1460              		@ frame_needed = 0, uses_anonymous_args = 0
 1461              		@ link register save eliminated.
 1462              		.loc 1 130 0
 1463 0000 064B     		ldr	r3, .L74
 1464 0002 9FED077A 		flds	s14, .L74+4
 1465 0006 D3ED007A 		flds	s15, [r3]	@ int
 1466 000a 9FED060A 		flds	s0, .L74+8
 1467 000e F8EE677A 		fuitos	s15, s15
 1468 0012 C7EE877A 		fdivs	s15, s15, s14
 1469              		.loc 1 131 0
 1470 0016 27EE800A 		fmuls	s0, s15, s0
 1471 001a 7047     		bx	lr
 1472              	.L75:
 1473              		.align	2
 1474              	.L74:
 1475 001c 00000000 		.word	.LANCHOR11
 1476 0020 00401C46 		.word	1176256512
 1477 0024 00007A44 		.word	1148846080
 1478              		.cfi_endproc
 1479              	.LFE260:
 1480              		.size	mpu9150_get_last_sample_duration, .-mpu9150_get_last_sample_duration
 1481              		.section	.text.mpu9150_get_failed_reads,"ax",%progbits
 1482              		.align	2
ARM GAS  /tmp/cccjiBlq.s 			page 27


 1483              		.p2align 4,,15
 1484              		.global	mpu9150_get_failed_reads
 1485              		.thumb
 1486              		.thumb_func
 1487              		.type	mpu9150_get_failed_reads, %function
 1488              	mpu9150_get_failed_reads:
 1489              	.LFB261:
 1490              		.loc 1 133 0
 1491              		.cfi_startproc
 1492              		@ args = 0, pretend = 0, frame = 0
 1493              		@ frame_needed = 0, uses_anonymous_args = 0
 1494              		@ link register save eliminated.
 1495              		.loc 1 134 0
 1496 0000 014B     		ldr	r3, .L77
 1497 0002 1868     		ldr	r0, [r3]
 1498              		.loc 1 135 0
 1499 0004 7047     		bx	lr
 1500              	.L78:
 1501 0006 00BF     		.align	2
 1502              	.L77:
 1503 0008 00000000 		.word	.LANCHOR7
 1504              		.cfi_endproc
 1505              	.LFE261:
 1506              		.size	mpu9150_get_failed_reads, .-mpu9150_get_failed_reads
 1507              		.section	.text.mpu9150_get_failed_mag_reads,"ax",%progbits
 1508              		.align	2
 1509              		.p2align 4,,15
 1510              		.global	mpu9150_get_failed_mag_reads
 1511              		.thumb
 1512              		.thumb_func
 1513              		.type	mpu9150_get_failed_mag_reads, %function
 1514              	mpu9150_get_failed_mag_reads:
 1515              	.LFB262:
 1516              		.loc 1 137 0
 1517              		.cfi_startproc
 1518              		@ args = 0, pretend = 0, frame = 0
 1519              		@ frame_needed = 0, uses_anonymous_args = 0
 1520              		@ link register save eliminated.
 1521              		.loc 1 138 0
 1522 0000 014B     		ldr	r3, .L80
 1523 0002 1868     		ldr	r0, [r3]
 1524              		.loc 1 139 0
 1525 0004 7047     		bx	lr
 1526              	.L81:
 1527 0006 00BF     		.align	2
 1528              	.L80:
 1529 0008 00000000 		.word	.LANCHOR16
 1530              		.cfi_endproc
 1531              	.LFE262:
 1532              		.size	mpu9150_get_failed_mag_reads, .-mpu9150_get_failed_mag_reads
 1533              		.section	.text.mpu9150_mag_updated,"ax",%progbits
 1534              		.align	2
 1535              		.p2align 4,,15
 1536              		.global	mpu9150_mag_updated
 1537              		.thumb
 1538              		.thumb_func
 1539              		.type	mpu9150_mag_updated, %function
ARM GAS  /tmp/cccjiBlq.s 			page 28


 1540              	mpu9150_mag_updated:
 1541              	.LFB263:
 1542              		.loc 1 144 0
 1543              		.cfi_startproc
 1544              		@ args = 0, pretend = 0, frame = 0
 1545              		@ frame_needed = 0, uses_anonymous_args = 0
 1546              		@ link register save eliminated.
 1547              		.loc 1 145 0
 1548 0000 014B     		ldr	r3, .L83
 1549 0002 1868     		ldr	r0, [r3]
 1550              		.loc 1 146 0
 1551 0004 7047     		bx	lr
 1552              	.L84:
 1553 0006 00BF     		.align	2
 1554              	.L83:
 1555 0008 00000000 		.word	.LANCHOR14
 1556              		.cfi_endproc
 1557              	.LFE263:
 1558              		.size	mpu9150_mag_updated, .-mpu9150_mag_updated
 1559              		.section	.text.mpu9150_sample_gyro_offsets,"ax",%progbits
 1560              		.align	2
 1561              		.p2align 4,,15
 1562              		.global	mpu9150_sample_gyro_offsets
 1563              		.thumb
 1564              		.thumb_func
 1565              		.type	mpu9150_sample_gyro_offsets, %function
 1566              	mpu9150_sample_gyro_offsets:
 1567              	.LFB266:
 1568              		.loc 1 199 0
 1569              		.cfi_startproc
 1570              		@ args = 0, pretend = 0, frame = 16
 1571              		@ frame_needed = 0, uses_anonymous_args = 0
 1572              	.LVL98:
 1573 0000 2DE9F043 		push	{r4, r5, r6, r7, r8, r9, lr}
 1574              		.cfi_def_cfa_offset 28
 1575              		.cfi_offset 4, -28
 1576              		.cfi_offset 5, -24
 1577              		.cfi_offset 6, -20
 1578              		.cfi_offset 7, -16
 1579              		.cfi_offset 8, -12
 1580              		.cfi_offset 9, -8
 1581              		.cfi_offset 14, -4
 1582 0004 85B0     		sub	sp, sp, #20
 1583              		.cfi_def_cfa_offset 48
 1584              		.loc 1 201 0
 1585 0006 0024     		movs	r4, #0
 1586 0008 0194     		str	r4, [sp, #4]
 1587 000a 0294     		str	r4, [sp, #8]
 1588 000c 0394     		str	r4, [sp, #12]
 1589              	.LVL99:
 1590              	.LBB418:
 1591              		.loc 1 203 0
 1592 000e 0746     		mov	r7, r0
 1593 0010 50B3     		cbz	r0, .L88
 1594 0012 DFF86090 		ldr	r9, .L91+4
 1595 0016 2546     		mov	r5, r4
 1596 0018 2646     		mov	r6, r4
ARM GAS  /tmp/cccjiBlq.s 			page 29


 1597 001a A046     		mov	r8, r4
 1598              	.LVL100:
 1599              	.L87:
 1600              		.loc 1 204 0 discriminator 3
 1601 001c B9F80610 		ldrh	r1, [r9, #6]
 1602              		.loc 1 205 0 discriminator 3
 1603 0020 B9F80820 		ldrh	r2, [r9, #8]
 1604              		.loc 1 206 0 discriminator 3
 1605 0024 B9F80A30 		ldrh	r3, [r9, #10]
 1606              		.loc 1 204 0 discriminator 3
 1607 0028 06FA81F6 		sxtah	r6, r6, r1
 1608              		.loc 1 205 0 discriminator 3
 1609 002c 05FA82F5 		sxtah	r5, r5, r2
 1610              		.loc 1 206 0 discriminator 3
 1611 0030 04FA83F4 		sxtah	r4, r4, r3
 1612              		.loc 1 203 0 discriminator 3
 1613 0034 08F10108 		add	r8, r8, #1
 1614              	.LVL101:
 1615              		.loc 1 207 0 discriminator 3
 1616 0038 6420     		movs	r0, #100
 1617              		.loc 1 204 0 discriminator 3
 1618 003a 0196     		str	r6, [sp, #4]
 1619              		.loc 1 205 0 discriminator 3
 1620 003c 0295     		str	r5, [sp, #8]
 1621              		.loc 1 206 0 discriminator 3
 1622 003e 0394     		str	r4, [sp, #12]
 1623              		.loc 1 207 0 discriminator 3
 1624 0040 FFF7FEFF 		bl	chThdSleep
 1625              	.LVL102:
 1626              		.loc 1 203 0 discriminator 3
 1627 0044 B845     		cmp	r8, r7
 1628 0046 E9D1     		bne	.L87
 1629              	.LVL103:
 1630              	.L86:
 1631              	.LBE418:
 1632              		.loc 1 214 0
 1633 0048 094B     		ldr	r3, .L91
 1634              		.loc 1 210 0
 1635 004a 96FBF7F6 		sdiv	r6, r6, r7
 1636              		.loc 1 211 0
 1637 004e 95FBF7F5 		sdiv	r5, r5, r7
 1638              		.loc 1 214 0
 1639 0052 B6B2     		uxth	r6, r6
 1640              		.loc 1 215 0
 1641 0054 ADB2     		uxth	r5, r5
 1642              		.loc 1 212 0
 1643 0056 94FBF7F4 		sdiv	r4, r4, r7
 1644              		.loc 1 216 0
 1645 005a A4B2     		uxth	r4, r4
 1646              		.loc 1 214 0
 1647 005c 1E80     		strh	r6, [r3]	@ movhi
 1648              		.loc 1 215 0
 1649 005e 5D80     		strh	r5, [r3, #2]	@ movhi
 1650              		.loc 1 216 0
 1651 0060 9C80     		strh	r4, [r3, #4]	@ movhi
 1652              		.loc 1 217 0
 1653 0062 05B0     		add	sp, sp, #20
ARM GAS  /tmp/cccjiBlq.s 			page 30


 1654              		.cfi_remember_state
 1655              		.cfi_def_cfa_offset 28
 1656              		@ sp needed
 1657 0064 BDE8F083 		pop	{r4, r5, r6, r7, r8, r9, pc}
 1658              	.LVL104:
 1659              	.L88:
 1660              		.cfi_restore_state
 1661              	.LBB419:
 1662              		.loc 1 203 0
 1663 0068 0446     		mov	r4, r0
 1664 006a 0546     		mov	r5, r0
 1665 006c 0646     		mov	r6, r0
 1666 006e EBE7     		b	.L86
 1667              	.L92:
 1668              		.align	2
 1669              	.L91:
 1670 0070 00000000 		.word	.LANCHOR8
 1671 0074 00000000 		.word	.LANCHOR6
 1672              	.LBE419:
 1673              		.cfi_endproc
 1674              	.LFE266:
 1675              		.size	mpu9150_sample_gyro_offsets, .-mpu9150_sample_gyro_offsets
 1676              		.section	.text.mpu9150_cmd_sample_offsets,"ax",%progbits
 1677              		.align	2
 1678              		.p2align 4,,15
 1679              		.global	mpu9150_cmd_sample_offsets
 1680              		.thumb
 1681              		.thumb_func
 1682              		.type	mpu9150_cmd_sample_offsets, %function
 1683              	mpu9150_cmd_sample_offsets:
 1684              	.LFB265:
 1685              		.loc 1 184 0
 1686              		.cfi_startproc
 1687              		@ args = 0, pretend = 0, frame = 0
 1688              		@ frame_needed = 0, uses_anonymous_args = 0
 1689              	.LVL105:
 1690 0000 30B5     		push	{r4, r5, lr}
 1691              		.cfi_def_cfa_offset 12
 1692              		.cfi_offset 4, -12
 1693              		.cfi_offset 5, -8
 1694              		.cfi_offset 14, -4
 1695              		.loc 1 188 0
 1696 0002 0B49     		ldr	r1, .L95
 1697              	.LVL106:
 1698              		.loc 1 184 0
 1699 0004 83B0     		sub	sp, sp, #12
 1700              		.cfi_def_cfa_offset 24
 1701              		.loc 1 184 0
 1702 0006 0546     		mov	r5, r0
 1703              		.loc 1 188 0
 1704 0008 FFF7FEFF 		bl	chprintf
 1705              	.LVL107:
 1706              		.loc 1 190 0
 1707 000c 6420     		movs	r0, #100
 1708 000e FFF7FEFF 		bl	mpu9150_sample_gyro_offsets
 1709              	.LVL108:
 1710              		.loc 1 196 0
ARM GAS  /tmp/cccjiBlq.s 			page 31


 1711 0012 0848     		ldr	r0, .L95+4
 1712              		.loc 1 192 0
 1713 0014 0849     		ldr	r1, .L95+8
 1714              		.loc 1 196 0
 1715 0016 0288     		ldrh	r2, [r0]
 1716 0018 4388     		ldrh	r3, [r0, #2]
 1717 001a 8488     		ldrh	r4, [r0, #4]
 1718              		.loc 1 192 0
 1719 001c 24B2     		sxth	r4, r4
 1720 001e 2846     		mov	r0, r5
 1721 0020 12B2     		sxth	r2, r2
 1722 0022 0094     		str	r4, [sp]
 1723 0024 1BB2     		sxth	r3, r3
 1724 0026 FFF7FEFF 		bl	chprintf
 1725              	.LVL109:
 1726              		.loc 1 197 0
 1727 002a 03B0     		add	sp, sp, #12
 1728              		.cfi_def_cfa_offset 12
 1729              		@ sp needed
 1730 002c 30BD     		pop	{r4, r5, pc}
 1731              	.LVL110:
 1732              	.L96:
 1733 002e 00BF     		.align	2
 1734              	.L95:
 1735 0030 10000000 		.word	.LC1
 1736 0034 00000000 		.word	.LANCHOR8
 1737 0038 44000000 		.word	.LC2
 1738              		.cfi_endproc
 1739              	.LFE265:
 1740              		.size	mpu9150_cmd_sample_offsets, .-mpu9150_cmd_sample_offsets
 1741              		.section	.text.mpu9150_get_raw_accel_gyro_mag,"ax",%progbits
 1742              		.align	2
 1743              		.p2align 4,,15
 1744              		.global	mpu9150_get_raw_accel_gyro_mag
 1745              		.thumb
 1746              		.thumb_func
 1747              		.type	mpu9150_get_raw_accel_gyro_mag, %function
 1748              	mpu9150_get_raw_accel_gyro_mag:
 1749              	.LFB267:
 1750              		.loc 1 219 0
 1751              		.cfi_startproc
 1752              		@ args = 0, pretend = 0, frame = 0
 1753              		@ frame_needed = 0, uses_anonymous_args = 0
 1754              		@ link register save eliminated.
 1755              	.LVL111:
 1756 0000 30B4     		push	{r4, r5}
 1757              		.cfi_def_cfa_offset 8
 1758              		.cfi_offset 4, -8
 1759              		.cfi_offset 5, -4
 1760              		.loc 1 220 0
 1761 0002 054C     		ldr	r4, .L99
 1762              		.loc 1 219 0
 1763 0004 0546     		mov	r5, r0
 1764              		.loc 1 220 0
 1765 0006 0FCC     		ldmia	r4!, {r0, r1, r2, r3}
 1766              	.LVL112:
 1767 0008 2860     		str	r0, [r5]	@ unaligned
ARM GAS  /tmp/cccjiBlq.s 			page 32


 1768 000a 6960     		str	r1, [r5, #4]	@ unaligned
 1769 000c AA60     		str	r2, [r5, #8]	@ unaligned
 1770 000e EB60     		str	r3, [r5, #12]	@ unaligned
 1771 0010 2388     		ldrh	r3, [r4]	@ unaligned
 1772 0012 2B82     		strh	r3, [r5, #16]	@ unaligned
 1773              		.loc 1 221 0
 1774 0014 30BC     		pop	{r4, r5}
 1775              		.cfi_restore 5
 1776              		.cfi_restore 4
 1777              		.cfi_def_cfa_offset 0
 1778              	.LVL113:
 1779 0016 7047     		bx	lr
 1780              	.L100:
 1781              		.align	2
 1782              	.L99:
 1783 0018 00000000 		.word	.LANCHOR9
 1784              		.cfi_endproc
 1785              	.LFE267:
 1786              		.size	mpu9150_get_raw_accel_gyro_mag, .-mpu9150_get_raw_accel_gyro_mag
 1787              		.section	.text.mpu9150_get_accel_gyro_mag,"ax",%progbits
 1788              		.align	2
 1789              		.p2align 4,,15
 1790              		.global	mpu9150_get_accel_gyro_mag
 1791              		.thumb
 1792              		.thumb_func
 1793              		.type	mpu9150_get_accel_gyro_mag, %function
 1794              	mpu9150_get_accel_gyro_mag:
 1795              	.LFB268:
 1796              		.loc 1 223 0
 1797              		.cfi_startproc
 1798              		@ args = 0, pretend = 0, frame = 0
 1799              		@ frame_needed = 0, uses_anonymous_args = 0
 1800              	.LVL114:
 1801              		.loc 1 224 0
 1802 0000 414B     		ldr	r3, .L103
 1803              		.loc 1 228 0
 1804 0002 DFED425A 		flds	s11, .L103+4
 1805              		.loc 1 233 0
 1806 0006 DFED427A 		flds	s15, .L103+8
 1807              		.loc 1 224 0
 1808 000a DFED421A 		flds	s3, .L103+12
 1809              		.loc 1 233 0
 1810 000e DFED422A 		flds	s5, .L103+16
 1811              		.loc 1 223 0
 1812 0012 2DE9F043 		push	{r4, r5, r6, r7, r8, r9, lr}
 1813              		.cfi_def_cfa_offset 28
 1814              		.cfi_offset 4, -28
 1815              		.cfi_offset 5, -24
 1816              		.cfi_offset 6, -20
 1817              		.cfi_offset 7, -16
 1818              		.cfi_offset 8, -12
 1819              		.cfi_offset 9, -8
 1820              		.cfi_offset 14, -4
 1821              		.loc 1 224 0
 1822 0016 B3F80090 		ldrh	r9, [r3]
 1823              		.loc 1 225 0
 1824 001a B3F80280 		ldrh	r8, [r3, #2]
ARM GAS  /tmp/cccjiBlq.s 			page 33


 1825              		.loc 1 226 0
 1826 001e B3F804C0 		ldrh	ip, [r3, #4]
 1827              		.loc 1 228 0
 1828 0022 B3F806E0 		ldrh	lr, [r3, #6]
 1829              		.loc 1 229 0
 1830 0026 1F89     		ldrh	r7, [r3, #8]
 1831              		.loc 1 230 0
 1832 0028 5E89     		ldrh	r6, [r3, #10]
 1833              		.loc 1 233 0
 1834 002a 9D89     		ldrh	r5, [r3, #12]
 1835              		.loc 1 234 0
 1836 002c DC89     		ldrh	r4, [r3, #14]
 1837              		.loc 1 235 0
 1838 002e 1B8A     		ldrh	r3, [r3, #16]
 1839              		.loc 1 229 0
 1840 0030 3FB2     		sxth	r7, r7
 1841 0032 07EE107A 		fmsr	s14, r7	@ int
 1842              		.loc 1 230 0
 1843 0036 36B2     		sxth	r6, r6
 1844              		.loc 1 229 0
 1845 0038 F8EEC74A 		fsitos	s9, s14
 1846              		.loc 1 230 0
 1847 003c 07EE106A 		fmsr	s14, r6	@ int
 1848              		.loc 1 234 0
 1849 0040 24B2     		sxth	r4, r4
 1850              		.loc 1 230 0
 1851 0042 B8EEC75A 		fsitos	s10, s14
 1852              		.loc 1 234 0
 1853 0046 07EE104A 		fmsr	s14, r4	@ int
 1854              		.loc 1 224 0
 1855 004a 0FFA89F9 		sxth	r9, r9
 1856              		.loc 1 225 0
 1857 004e 0FFA88F8 		sxth	r8, r8
 1858              		.loc 1 226 0
 1859 0052 0FFA8CFC 		sxth	ip, ip
 1860              		.loc 1 228 0
 1861 0056 0FFA8EFE 		sxth	lr, lr
 1862              		.loc 1 233 0
 1863 005a 2DB2     		sxth	r5, r5
 1864              		.loc 1 235 0
 1865 005c 1BB2     		sxth	r3, r3
 1866              		.loc 1 234 0
 1867 005e F8EEC76A 		fsitos	s13, s14
 1868              		.loc 1 224 0
 1869 0062 02EE109A 		fmsr	s4, r9	@ int
 1870              		.loc 1 225 0
 1871 0066 03EE108A 		fmsr	s6, r8	@ int
 1872              		.loc 1 226 0
 1873 006a 03EE90CA 		fmsr	s7, ip	@ int
 1874              		.loc 1 228 0
 1875 006e 04EE10EA 		fmsr	s8, lr	@ int
 1876              		.loc 1 233 0
 1877 0072 06EE105A 		fmsr	s12, r5	@ int
 1878              		.loc 1 235 0
 1879 0076 07EE103A 		fmsr	s14, r3	@ int
 1880              		.loc 1 224 0
 1881 007a B8EEC22A 		fsitos	s4, s4
ARM GAS  /tmp/cccjiBlq.s 			page 34


 1882              		.loc 1 235 0
 1883 007e B8EEC77A 		fsitos	s14, s14
 1884              		.loc 1 225 0
 1885 0082 B8EEC33A 		fsitos	s6, s6
 1886              		.loc 1 226 0
 1887 0086 F8EEE33A 		fsitos	s7, s7
 1888              		.loc 1 228 0
 1889 008a B8EEC44A 		fsitos	s8, s8
 1890              		.loc 1 233 0
 1891 008e B8EEC66A 		fsitos	s12, s12
 1892              		.loc 1 224 0
 1893 0092 B3EE001A 		fconsts	s2, #48
 1894              		.loc 1 228 0
 1895 0096 24EE254A 		fmuls	s8, s8, s11
 1896              		.loc 1 229 0
 1897 009a 64EEA54A 		fmuls	s9, s9, s11
 1898              		.loc 1 233 0
 1899 009e 26EE276A 		fmuls	s12, s12, s15
 1900              		.loc 1 230 0
 1901 00a2 65EE255A 		fmuls	s11, s10, s11
 1902              		.loc 1 234 0
 1903 00a6 66EEA76A 		fmuls	s13, s13, s15
 1904              		.loc 1 224 0
 1905 00aa 22EE012A 		fmuls	s4, s4, s2
 1906              		.loc 1 235 0
 1907 00ae 67EE277A 		fmuls	s15, s14, s15
 1908              		.loc 1 225 0
 1909 00b2 23EE013A 		fmuls	s6, s6, s2
 1910              		.loc 1 226 0
 1911 00b6 63EE813A 		fmuls	s7, s7, s2
 1912              		.loc 1 224 0
 1913 00ba 22EE212A 		fmuls	s4, s4, s3
 1914              		.loc 1 225 0
 1915 00be 23EE213A 		fmuls	s6, s6, s3
 1916              		.loc 1 226 0
 1917 00c2 63EEA13A 		fmuls	s7, s7, s3
 1918              		.loc 1 228 0
 1919 00c6 24EE214A 		fmuls	s8, s8, s3
 1920              		.loc 1 229 0
 1921 00ca 24EEA15A 		fmuls	s10, s9, s3
 1922              		.loc 1 230 0
 1923 00ce 65EEA15A 		fmuls	s11, s11, s3
 1924              		.loc 1 233 0
 1925 00d2 26EE226A 		fmuls	s12, s12, s5
 1926              		.loc 1 234 0
 1927 00d6 26EEA27A 		fmuls	s14, s13, s5
 1928              		.loc 1 235 0
 1929 00da 67EEA27A 		fmuls	s15, s15, s5
 1930              		.loc 1 224 0
 1931 00de 80ED002A 		fsts	s4, [r0]
 1932              		.loc 1 225 0
 1933 00e2 80ED013A 		fsts	s6, [r0, #4]
 1934              		.loc 1 226 0
 1935 00e6 C0ED023A 		fsts	s7, [r0, #8]
 1936              		.loc 1 228 0
 1937 00ea 81ED004A 		fsts	s8, [r1]
 1938              		.loc 1 229 0
ARM GAS  /tmp/cccjiBlq.s 			page 35


 1939 00ee 81ED015A 		fsts	s10, [r1, #4]
 1940              		.loc 1 230 0
 1941 00f2 C1ED025A 		fsts	s11, [r1, #8]
 1942              		.loc 1 233 0
 1943 00f6 82ED006A 		fsts	s12, [r2]
 1944              		.loc 1 234 0
 1945 00fa 82ED017A 		fsts	s14, [r2, #4]
 1946              		.loc 1 235 0
 1947 00fe C2ED027A 		fsts	s15, [r2, #8]
 1948 0102 BDE8F083 		pop	{r4, r5, r6, r7, r8, r9, pc}
 1949              	.L104:
 1950 0106 00BF     		.align	2
 1951              	.L103:
 1952 0108 00000000 		.word	.LANCHOR9
 1953 010c 0000FA44 		.word	1157234688
 1954 0110 00009644 		.word	1150681088
 1955 0114 00000038 		.word	939524096
 1956 0118 00008039 		.word	964689920
 1957              		.cfi_endproc
 1958              	.LFE268:
 1959              		.size	mpu9150_get_accel_gyro_mag, .-mpu9150_get_accel_gyro_mag
 1960              		.global	__aeabi_f2d
 1961              		.section	.text.mpu9150_cmd_print,"ax",%progbits
 1962              		.align	2
 1963              		.p2align 4,,15
 1964              		.global	mpu9150_cmd_print
 1965              		.thumb
 1966              		.thumb_func
 1967              		.type	mpu9150_cmd_print, %function
 1968              	mpu9150_cmd_print:
 1969              	.LFB264:
 1970              		.loc 1 148 0
 1971              		.cfi_startproc
 1972              		@ args = 0, pretend = 0, frame = 48
 1973              		@ frame_needed = 0, uses_anonymous_args = 0
 1974              	.LVL115:
 1975 0000 2DE9F04F 		push	{r4, r5, r6, r7, r8, r9, r10, fp, lr}
 1976              		.cfi_def_cfa_offset 36
 1977              		.cfi_offset 4, -36
 1978              		.cfi_offset 5, -32
 1979              		.cfi_offset 6, -28
 1980              		.cfi_offset 7, -24
 1981              		.cfi_offset 8, -20
 1982              		.cfi_offset 9, -16
 1983              		.cfi_offset 10, -12
 1984              		.cfi_offset 11, -8
 1985              		.cfi_offset 14, -4
 1986 0004 2DED048B 		fstmfdd	sp!, {d8, d9}
 1987              		.cfi_def_cfa_offset 52
 1988              		.cfi_offset 80, -52
 1989              		.cfi_offset 81, -48
 1990              		.cfi_offset 82, -44
 1991              		.cfi_offset 83, -40
 1992 0008 A3B0     		sub	sp, sp, #140
 1993              		.cfi_def_cfa_offset 192
 1994 000a DFF8F4B0 		ldr	fp, .L109+16
 1995 000e DFF8F4A0 		ldr	r10, .L109+20
ARM GAS  /tmp/cccjiBlq.s 			page 36


 1996 0012 374E     		ldr	r6, .L109
 1997              	.LBB420:
 1998              	.LBB421:
 1999              	.LBB422:
 2000              		.loc 1 130 0
 2001 0014 DFED378A 		flds	s17, .L109+4
 2002 0018 9FED378A 		flds	s16, .L109+8
 2003              	.LBE422:
 2004              	.LBE421:
 2005              	.LBE420:
 2006              		.loc 1 148 0
 2007 001c 1790     		str	r0, [sp, #92]
 2008 001e 4FF4FA75 		mov	r5, #500
 2009              	.LVL116:
 2010              	.L106:
 2011              	.LBB435:
 2012              		.loc 1 157 0 discriminator 3
 2013 0022 1FAA     		add	r2, sp, #124
 2014 0024 19A8     		add	r0, sp, #100
 2015 0026 1CA9     		add	r1, sp, #112
 2016 0028 FFF7FEFF 		bl	mpu9150_get_accel_gyro_mag
 2017              	.LVL117:
 2018              		.loc 1 159 0 discriminator 3
 2019 002c 1998     		ldr	r0, [sp, #100]	@ float
 2020 002e DBF80070 		ldr	r7, [fp]
 2021 0032 DAF80040 		ldr	r4, [r10]
 2022 0036 FFF7FEFF 		bl	__aeabi_f2d
 2023              	.LVL118:
 2024 003a 8046     		mov	r8, r0
 2025 003c 1A98     		ldr	r0, [sp, #104]	@ float
 2026 003e 8946     		mov	r9, r1
 2027 0040 FFF7FEFF 		bl	__aeabi_f2d
 2028              	.LVL119:
 2029 0044 CDE90001 		strd	r0, [sp]
 2030 0048 1B98     		ldr	r0, [sp, #108]	@ float
 2031 004a FFF7FEFF 		bl	__aeabi_f2d
 2032              	.LVL120:
 2033 004e CDE90201 		strd	r0, [sp, #8]
 2034 0052 1C98     		ldr	r0, [sp, #112]	@ float
 2035 0054 FFF7FEFF 		bl	__aeabi_f2d
 2036              	.LVL121:
 2037 0058 CDE90401 		strd	r0, [sp, #16]
 2038 005c 1D98     		ldr	r0, [sp, #116]	@ float
 2039 005e FFF7FEFF 		bl	__aeabi_f2d
 2040              	.LVL122:
 2041 0062 CDE90601 		strd	r0, [sp, #24]
 2042 0066 1E98     		ldr	r0, [sp, #120]	@ float
 2043 0068 FFF7FEFF 		bl	__aeabi_f2d
 2044              	.LVL123:
 2045 006c CDE90801 		strd	r0, [sp, #32]
 2046 0070 1F98     		ldr	r0, [sp, #124]	@ float
 2047 0072 FFF7FEFF 		bl	__aeabi_f2d
 2048              	.LVL124:
 2049 0076 CDE90A01 		strd	r0, [sp, #40]
 2050 007a 2098     		ldr	r0, [sp, #128]	@ float
 2051 007c FFF7FEFF 		bl	__aeabi_f2d
 2052              	.LVL125:
ARM GAS  /tmp/cccjiBlq.s 			page 37


 2053              	.LBB426:
 2054              	.LBB423:
 2055              		.loc 1 130 0 discriminator 3
 2056 0080 96ED009A 		flds	s18, [r6]	@ int
 2057              	.LBE423:
 2058              	.LBE426:
 2059              		.loc 1 159 0 discriminator 3
 2060 0084 CDE90C01 		strd	r0, [sp, #48]
 2061 0088 2198     		ldr	r0, [sp, #132]	@ float
 2062 008a FFF7FEFF 		bl	__aeabi_f2d
 2063              	.LVL126:
 2064              	.LBB427:
 2065              	.LBB424:
 2066              		.loc 1 130 0 discriminator 3
 2067 008e F8EE497A 		fuitos	s15, s18
 2068              	.LBE424:
 2069              	.LBE427:
 2070              	.LBB428:
 2071              	.LBB429:
 2072 0092 96ED009A 		flds	s18, [r6]	@ int
 2073              	.LBE429:
 2074              	.LBE428:
 2075              		.loc 1 159 0 discriminator 3
 2076 0096 1097     		str	r7, [sp, #64]
 2077              	.LBB432:
 2078              	.LBB425:
 2079              		.loc 1 130 0 discriminator 3
 2080 0098 C7EEA87A 		fdivs	s15, s15, s17
 2081              	.LBE425:
 2082              	.LBE432:
 2083              		.loc 1 159 0 discriminator 3
 2084 009c CDE90E01 		strd	r0, [sp, #56]
 2085 00a0 1194     		str	r4, [sp, #68]
 2086 00a2 67EE887A 		fmuls	s15, s15, s16
 2087 00a6 17EE900A 		fmrs	r0, s15
 2088 00aa FFF7FEFF 		bl	__aeabi_f2d
 2089              	.LVL127:
 2090              	.LBB433:
 2091              	.LBB430:
 2092              		.loc 1 130 0 discriminator 3
 2093 00ae F8EE497A 		fuitos	s15, s18
 2094              	.LBE430:
 2095              	.LBE433:
 2096              		.loc 1 159 0 discriminator 3
 2097 00b2 CDE91201 		strd	r0, [sp, #72]
 2098              	.LBB434:
 2099              	.LBB431:
 2100              		.loc 1 130 0 discriminator 3
 2101 00b6 C7EEA87A 		fdivs	s15, s15, s17
 2102 00ba 67EE887A 		fmuls	s15, s15, s16
 2103              	.LBE431:
 2104              	.LBE434:
 2105              		.loc 1 159 0 discriminator 3
 2106 00be C8EE277A 		fdivs	s15, s16, s15
 2107 00c2 17EE900A 		fmrs	r0, s15
 2108 00c6 FFF7FEFF 		bl	__aeabi_f2d
 2109              	.LVL128:
ARM GAS  /tmp/cccjiBlq.s 			page 38


 2110 00ca 4246     		mov	r2, r8
 2111 00cc CDE91401 		strd	r0, [sp, #80]
 2112 00d0 4B46     		mov	r3, r9
 2113 00d2 0A49     		ldr	r1, .L109+12
 2114 00d4 1798     		ldr	r0, [sp, #92]
 2115 00d6 FFF7FEFF 		bl	chprintf
 2116              	.LVL129:
 2117              		.loc 1 180 0 discriminator 3
 2118 00da C820     		movs	r0, #200
 2119 00dc FFF7FEFF 		bl	chThdSleep
 2120              	.LVL130:
 2121              		.loc 1 156 0 discriminator 3
 2122 00e0 013D     		subs	r5, r5, #1
 2123              	.LVL131:
 2124 00e2 9ED1     		bne	.L106
 2125              	.LBE435:
 2126              		.loc 1 182 0
 2127 00e4 23B0     		add	sp, sp, #140
 2128              		.cfi_def_cfa_offset 52
 2129              		@ sp needed
 2130 00e6 BDEC048B 		fldmfdd	sp!, {d8-d9}
 2131              		.cfi_restore 82
 2132              		.cfi_restore 83
 2133              		.cfi_restore 80
 2134              		.cfi_restore 81
 2135              		.cfi_def_cfa_offset 36
 2136 00ea BDE8F08F 		pop	{r4, r5, r6, r7, r8, r9, r10, fp, pc}
 2137              	.LVL132:
 2138              	.L110:
 2139 00ee 00BF     		.align	2
 2140              	.L109:
 2141 00f0 00000000 		.word	.LANCHOR11
 2142 00f4 00401C46 		.word	1176256512
 2143 00f8 00007A44 		.word	1148846080
 2144 00fc 74000000 		.word	.LC3
 2145 0100 00000000 		.word	.LANCHOR7
 2146 0104 00000000 		.word	.LANCHOR16
 2147              		.cfi_endproc
 2148              	.LFE264:
 2149              		.size	mpu9150_cmd_print, .-mpu9150_cmd_print
 2150              		.global	mpu9150_gyro_offsets
 2151              		.section	.bss.failed_mag_reads,"aw",%nobits
 2152              		.align	2
 2153              		.set	.LANCHOR16,. + 0
 2154              		.type	failed_mag_reads, %object
 2155              		.size	failed_mag_reads, 4
 2156              	failed_mag_reads:
 2157 0000 00000000 		.space	4
 2158              		.section	.bss.iteration_timer.9710,"aw",%nobits
 2159              		.align	2
 2160              		.set	.LANCHOR4,. + 0
 2161              		.type	iteration_timer.9710, %object
 2162              		.size	iteration_timer.9710, 4
 2163              	iteration_timer.9710:
 2164 0000 00000000 		.space	4
 2165              		.section	.bss.raw_accel_gyro_mag,"aw",%nobits
 2166              		.align	2
ARM GAS  /tmp/cccjiBlq.s 			page 39


 2167              		.set	.LANCHOR9,. + 0
 2168              		.type	raw_accel_gyro_mag, %object
 2169              		.size	raw_accel_gyro_mag, 18
 2170              	raw_accel_gyro_mag:
 2171 0000 00000000 		.space	18
 2171      00000000 
 2171      00000000 
 2171      00000000 
 2171      0000
 2172              		.section	.bss.failed_reads,"aw",%nobits
 2173              		.align	2
 2174              		.set	.LANCHOR7,. + 0
 2175              		.type	failed_reads, %object
 2176              		.size	failed_reads, 4
 2177              	failed_reads:
 2178 0000 00000000 		.space	4
 2179              		.section	.bss.update_time_diff,"aw",%nobits
 2180              		.align	2
 2181              		.set	.LANCHOR11,. + 0
 2182              		.type	update_time_diff, %object
 2183              		.size	update_time_diff, 4
 2184              	update_time_diff:
 2185 0000 00000000 		.space	4
 2186              		.section	.data.mag_cnt.9709,"aw",%progbits
 2187              		.align	2
 2188              		.set	.LANCHOR13,. + 0
 2189              		.type	mag_cnt.9709, %object
 2190              		.size	mag_cnt.9709, 4
 2191              	mag_cnt.9709:
 2192 0000 0A000000 		.word	10
 2193              		.section	.bss.mpu9150_gyro_offsets,"aw",%nobits
 2194              		.align	2
 2195              		.set	.LANCHOR8,. + 0
 2196              		.type	mpu9150_gyro_offsets, %object
 2197              		.size	mpu9150_gyro_offsets, 6
 2198              	mpu9150_gyro_offsets:
 2199 0000 00000000 		.space	6
 2199      0000
 2200              		.section	.bss.tx_buf,"aw",%nobits
 2201              		.align	2
 2202              		.set	.LANCHOR1,. + 0
 2203              		.type	tx_buf, %object
 2204              		.size	tx_buf, 100
 2205              	tx_buf:
 2206 0000 00000000 		.space	100
 2206      00000000 
 2206      00000000 
 2206      00000000 
 2206      00000000 
 2207              		.section	.bss.raw_accel_gyro_mag_no_offset,"aw",%nobits
 2208              		.align	2
 2209              		.set	.LANCHOR6,. + 0
 2210              		.type	raw_accel_gyro_mag_no_offset, %object
 2211              		.size	raw_accel_gyro_mag_no_offset, 18
 2212              	raw_accel_gyro_mag_no_offset:
 2213 0000 00000000 		.space	18
 2213      00000000 
ARM GAS  /tmp/cccjiBlq.s 			page 40


 2213      00000000 
 2213      00000000 
 2213      0000
 2214              		.section	.bss.last_update_time,"aw",%nobits
 2215              		.align	2
 2216              		.set	.LANCHOR10,. + 0
 2217              		.type	last_update_time, %object
 2218              		.size	last_update_time, 4
 2219              	last_update_time:
 2220 0000 00000000 		.space	4
 2221              		.section	.rodata.str1.4,"aMS",%progbits,1
 2222              		.align	2
 2223              	.LC0:
 2224 0000 4D505520 		.ascii	"MPU Sampling\000"
 2224      53616D70 
 2224      6C696E67 
 2224      00
 2225 000d 000000   		.space	3
 2226              	.LC1:
 2227 0010 53616D70 		.ascii	"Sampling the gyro offsets for 100 iterations...\015"
 2227      6C696E67 
 2227      20746865 
 2227      20677972 
 2227      6F206F66 
 2228 0040 0A00     		.ascii	"\012\000"
 2229 0042 0000     		.space	2
 2230              	.LC2:
 2231 0044 4F666673 		.ascii	"Offset X: %d\015\012Offset Y: %d\015\012Offset Z: %"
 2231      65742058 
 2231      3A202564 
 2231      0D0A4F66 
 2231      66736574 
 2232 006b 640D0A0D 		.ascii	"d\015\012\015\012\000"
 2232      0A00
 2233 0071 000000   		.space	3
 2234              	.LC3:
 2235 0074 41636320 		.ascii	"Acc X : %.2f\015\012Acc Y : %.2f\015\012Acc Z : %.2"
 2235      58203A20 
 2235      252E3266 
 2235      0D0A4163 
 2235      63205920 
 2236 009b 660D0A52 		.ascii	"f\015\012Rate X: %.2f\015\012Rate Y: %.2f\015\012Ra"
 2236      61746520 
 2236      583A2025 
 2236      2E32660D 
 2236      0A526174 
 2237 00bc 7465205A 		.ascii	"te Z: %.2f\015\012Mag X: %.2f\015\012Mag Y: %.2f\015"
 2237      3A20252E 
 2237      32660D0A 
 2237      4D616720 
 2237      583A2025 
 2238 00e1 0A4D6167 		.ascii	"\012Mag Z: %.2f\015\012Failed reads: %d\015\012Fail"
 2238      205A3A20 
 2238      252E3266 
 2238      0D0A4661 
 2238      696C6564 
 2239 0105 6564206D 		.ascii	"ed mag reads: %d\015\012Sample duration: %.2f ms / "
ARM GAS  /tmp/cccjiBlq.s 			page 41


 2239      61672072 
 2239      65616473 
 2239      3A202564 
 2239      0D0A5361 
 2240 0132 252E3266 		.ascii	"%.2f Hz\015\012\015\012\000"
 2240      20487A0D 
 2240      0A0D0A00 
 2241              		.section	.bss.identical_reads.9711,"aw",%nobits
 2242              		.align	2
 2243              		.set	.LANCHOR15,. + 0
 2244              		.type	identical_reads.9711, %object
 2245              		.size	identical_reads.9711, 4
 2246              	identical_reads.9711:
 2247 0000 00000000 		.space	4
 2248              		.section	.bss.mpu_thread_wa,"aw",%nobits
 2249              		.align	3
 2250              		.set	.LANCHOR17,. + 0
 2251              		.type	mpu_thread_wa, %object
 2252              		.size	mpu_thread_wa, 2456
 2253              	mpu_thread_wa:
 2254 0000 00000000 		.space	2456
 2254      00000000 
 2254      00000000 
 2254      00000000 
 2254      00000000 
 2255              		.section	.bss.read_callback,"aw",%nobits
 2256              		.align	2
 2257              		.set	.LANCHOR12,. + 0
 2258              		.type	read_callback, %object
 2259              		.size	read_callback, 4
 2260              	read_callback:
 2261 0000 00000000 		.space	4
 2262              		.section	.bss.mag_updated,"aw",%nobits
 2263              		.align	2
 2264              		.set	.LANCHOR14,. + 0
 2265              		.type	mag_updated, %object
 2266              		.size	mag_updated, 4
 2267              	mag_updated:
 2268 0000 00000000 		.space	4
 2269              		.section	.rodata.i2cfg,"a",%progbits
 2270              		.align	2
 2271              		.set	.LANCHOR0,. + 0
 2272              		.type	i2cfg, %object
 2273              		.size	i2cfg, 12
 2274              	i2cfg:
 2275 0000 01       		.byte	1
 2276 0001 000000   		.space	3
 2277 0004 801A0600 		.word	400000
 2278 0008 02       		.byte	2
 2279 0009 000000   		.space	3
 2280              		.section	.bss.raw_accel_gyro_mag_tmp.9708,"aw",%nobits
 2281              		.align	2
 2282              		.set	.LANCHOR5,. + 0
 2283              		.type	raw_accel_gyro_mag_tmp.9708, %object
 2284              		.size	raw_accel_gyro_mag_tmp.9708, 18
 2285              	raw_accel_gyro_mag_tmp.9708:
 2286 0000 00000000 		.space	18
ARM GAS  /tmp/cccjiBlq.s 			page 42


 2286      00000000 
 2286      00000000 
 2286      00000000 
 2286      0000
 2287              		.section	.bss.rx_buf,"aw",%nobits
 2288              		.align	2
 2289              		.set	.LANCHOR3,. + 0
 2290              		.type	rx_buf, %object
 2291              		.size	rx_buf, 100
 2292              	rx_buf:
 2293 0000 00000000 		.space	100
 2293      00000000 
 2293      00000000 
 2293      00000000 
 2293      00000000 
 2294              		.section	.bss.mpu_addr,"aw",%nobits
 2295              		.align	1
 2296              		.set	.LANCHOR2,. + 0
 2297              		.type	mpu_addr, %object
 2298              		.size	mpu_addr, 2
 2299              	mpu_addr:
 2300 0000 0000     		.space	2
 2301              		.text
 2302              	.Letext0:
 2303              		.file 7 "/usr/lib/gcc/arm-none-eabi/4.9.3/include/stddef.h"
 2304              		.file 8 "/usr/arm-none-eabi/include/machine/_default_types.h"
 2305              		.file 9 "/usr/arm-none-eabi/include/sys/_stdint.h"
 2306              		.file 10 "ChibiOS_3.0.2/os/rt/ports/ARMCMx/compilers/GCC/chtypes.h"
 2307              		.file 11 "ChibiOS_3.0.2/os/rt/include/chsystypes.h"
 2308              		.file 12 "ChibiOS_3.0.2/os/rt/include/chschd.h"
 2309              		.file 13 "ChibiOS_3.0.2/os/ext/CMSIS/ST/stm32f407xx.h"
 2310              		.file 14 "ChibiOS_3.0.2/os/ext/CMSIS/ST/stm32f4xx.h"
 2311              		.file 15 "ChibiOS_3.0.2/os/rt/ports/ARMCMx/chcore.h"
 2312              		.file 16 "ChibiOS_3.0.2/os/rt/ports/ARMCMx/chcore_v7m.h"
 2313              		.file 17 "ChibiOS_3.0.2/os/rt/include/chtm.h"
 2314              		.file 18 "ChibiOS_3.0.2/os/rt/include/chsem.h"
 2315              		.file 19 "ChibiOS_3.0.2/os/rt/include/chmtx.h"
 2316              		.file 20 "ChibiOS_3.0.2/os/rt/include/chthreads.h"
 2317              		.file 21 "ChibiOS_3.0.2/os/rt/include/chstreams.h"
 2318              		.file 22 "ChibiOS_3.0.2/os/hal/ports/STM32/STM32F4xx/stm32_dma.h"
 2319              		.file 23 "ChibiOS_3.0.2/os/hal/ports/STM32/LLD/GPIOv2/pal_lld.h"
 2320              		.file 24 "ChibiOS_3.0.2/os/hal/include/i2c.h"
 2321              		.file 25 "ChibiOS_3.0.2/os/hal/ports/STM32/LLD/I2Cv1/i2c_lld.h"
 2322              		.file 26 "/usr/lib/gcc/arm-none-eabi/4.9.3/include/stdarg.h"
 2323              		.file 27 "<built-in>"
 2324              		.file 28 "ChibiOS_3.0.2/os/rt/include/chsys.h"
 2325              		.file 29 "ChibiOS_3.0.2/os/ext/CMSIS/include/core_cm4.h"
 2326              		.file 30 "ChibiOS_3.0.2/ext/stdperiph_stm32f4/inc/stm32f4xx_rcc.h"