ARM GAS  /tmp/ccwUZtBm.s 			page 1


   1              		.syntax unified
   2              		.cpu cortex-m4
   3              		.eabi_attribute 27, 1
   4              		.eabi_attribute 28, 1
   5              		.fpu fpv4-sp-d16
   6              		.eabi_attribute 20, 1
   7              		.eabi_attribute 21, 1
   8              		.eabi_attribute 23, 3
   9              		.eabi_attribute 24, 1
  10              		.eabi_attribute 25, 1
  11              		.eabi_attribute 26, 1
  12              		.eabi_attribute 30, 2
  13              		.eabi_attribute 34, 1
  14              		.eabi_attribute 18, 4
  15              		.thumb
  16              		.file	"pal.c"
  17              		.text
  18              	.Ltext0:
  19              		.cfi_sections	.debug_frame
  20              		.section	.text.palReadBus,"ax",%progbits
  21              		.align	2
  22              		.p2align 4,,15
  23              		.global	palReadBus
  24              		.thumb
  25              		.thumb_func
  26              		.type	palReadBus, %function
  27              	palReadBus:
  28              	.LFB256:
  29              		.file 1 "ChibiOS_3.0.2/os/hal/src/pal.c"
  30              		.loc 1 65 0
  31              		.cfi_startproc
  32              		@ args = 0, pretend = 0, frame = 0
  33              		@ frame_needed = 0, uses_anonymous_args = 0
  34              		@ link register save eliminated.
  35              	.LVL0:
  36              		.loc 1 69 0
  37 0000 0368     		ldr	r3, [r0]
  38 0002 8168     		ldr	r1, [r0, #8]
  39 0004 1B69     		ldr	r3, [r3, #16]
  40 0006 4268     		ldr	r2, [r0, #4]
  41 0008 23FA01F0 		lsr	r0, r3, r1
  42              	.LVL1:
  43              		.loc 1 70 0
  44 000c 1040     		ands	r0, r0, r2
  45 000e 7047     		bx	lr
  46              		.cfi_endproc
  47              	.LFE256:
  48              		.size	palReadBus, .-palReadBus
  49              		.section	.text.palWriteBus,"ax",%progbits
  50              		.align	2
  51              		.p2align 4,,15
  52              		.global	palWriteBus
  53              		.thumb
  54              		.thumb_func
  55              		.type	palWriteBus, %function
  56              	palWriteBus:
  57              	.LFB257:
ARM GAS  /tmp/ccwUZtBm.s 			page 2


  58              		.loc 1 90 0
  59              		.cfi_startproc
  60              		@ args = 0, pretend = 0, frame = 0
  61              		@ frame_needed = 0, uses_anonymous_args = 0
  62              		@ link register save eliminated.
  63              	.LVL2:
  64 0000 30B4     		push	{r4, r5}
  65              		.cfi_def_cfa_offset 8
  66              		.cfi_offset 4, -8
  67              		.cfi_offset 5, -4
  68              		.loc 1 94 0
  69 0002 19C8     		ldmia	r0, {r0, r3, r4}
  70              	.LVL3:
  71 0004 23EA0102 		bic	r2, r3, r1
  72 0008 04F11005 		add	r5, r4, #16
  73 000c 0B40     		ands	r3, r3, r1
  74 000e 03FA04F1 		lsl	r1, r3, r4
  75              	.LVL4:
  76 0012 02FA05F3 		lsl	r3, r2, r5
  77 0016 0B43     		orrs	r3, r3, r1
  78 0018 8361     		str	r3, [r0, #24]
  79              		.loc 1 95 0
  80 001a 30BC     		pop	{r4, r5}
  81              		.cfi_restore 5
  82              		.cfi_restore 4
  83              		.cfi_def_cfa_offset 0
  84 001c 7047     		bx	lr
  85              		.cfi_endproc
  86              	.LFE257:
  87              		.size	palWriteBus, .-palWriteBus
  88 001e 00BF     		.section	.text.palSetBusMode,"ax",%progbits
  89              		.align	2
  90              		.p2align 4,,15
  91              		.global	palSetBusMode
  92              		.thumb
  93              		.thumb_func
  94              		.type	palSetBusMode, %function
  95              	palSetBusMode:
  96              	.LFB258:
  97              		.loc 1 113 0
  98              		.cfi_startproc
  99              		@ args = 0, pretend = 0, frame = 0
 100              		@ frame_needed = 0, uses_anonymous_args = 0
 101              		@ link register save eliminated.
 102              	.LVL5:
 103              		.loc 1 113 0
 104 0000 0A46     		mov	r2, r1
 105              		.loc 1 117 0
 106 0002 0BC8     		ldmia	r0, {r0, r1, r3}
 107              	.LVL6:
 108 0004 9940     		lsls	r1, r1, r3
 109 0006 FFF7FEBF 		b	_pal_lld_setgroupmode
 110              	.LVL7:
 111              		.cfi_endproc
 112              	.LFE258:
 113              		.size	palSetBusMode, .-palSetBusMode
 114 000a 00BF     		.text
ARM GAS  /tmp/ccwUZtBm.s 			page 3


 115              	.Letext0:
 116              		.file 2 "/usr/arm-none-eabi/include/machine/_default_types.h"
 117              		.file 3 "/usr/arm-none-eabi/include/sys/_stdint.h"
 118              		.file 4 "/usr/arm-none-eabi/include/stdint.h"
 119              		.file 5 "ChibiOS_3.0.2/os/rt/ports/ARMCMx/compilers/GCC/chtypes.h"
 120              		.file 6 "ChibiOS_3.0.2/os/rt/include/chsystypes.h"
 121              		.file 7 "ChibiOS_3.0.2/os/rt/include/chschd.h"
 122              		.file 8 "ChibiOS_3.0.2/os/rt/ports/ARMCMx/chcore.h"
 123              		.file 9 "ChibiOS_3.0.2/os/rt/ports/ARMCMx/chcore_v7m.h"
 124              		.file 10 "ChibiOS_3.0.2/os/rt/include/chtm.h"
 125              		.file 11 "ChibiOS_3.0.2/os/rt/include/chsem.h"
 126              		.file 12 "ChibiOS_3.0.2/os/rt/include/chmtx.h"
 127              		.file 13 "ChibiOS_3.0.2/os/hal/ports/STM32/LLD/GPIOv2/pal_lld.h"
 128              		.file 14 "ChibiOS_3.0.2/os/hal/include/pal.h"
 129              		.file 15 "ChibiOS_3.0.2/os/ext/CMSIS/include/core_cm4.h"