ARM GAS  /tmp/ccgG1Gyw.s 			page 1


   1              		.syntax unified
   2              		.cpu cortex-m4
   3              		.eabi_attribute 27, 1
   4              		.eabi_attribute 28, 1
   5              		.fpu fpv4-sp-d16
   6              		.eabi_attribute 20, 1
   7              		.eabi_attribute 21, 1
   8              		.eabi_attribute 23, 3
   9              		.eabi_attribute 24, 1
  10              		.eabi_attribute 25, 1
  11              		.eabi_attribute 26, 1
  12              		.eabi_attribute 30, 2
  13              		.eabi_attribute 34, 1
  14              		.eabi_attribute 18, 4
  15              		.thumb
  16              		.file	"pwm.c"
  17              		.text
  18              	.Ltext0:
  19              		.cfi_sections	.debug_frame
  20              		.section	.text.pwmInit,"ax",%progbits
  21              		.align	2
  22              		.p2align 4,,15
  23              		.global	pwmInit
  24              		.thumb
  25              		.thumb_func
  26              		.type	pwmInit, %function
  27              	pwmInit:
  28              	.LFB256:
  29              		.file 1 "ChibiOS_3.0.2/os/hal/src/pwm.c"
  30              		.loc 1 56 0
  31              		.cfi_startproc
  32              		@ args = 0, pretend = 0, frame = 0
  33              		@ frame_needed = 0, uses_anonymous_args = 0
  34              		@ link register save eliminated.
  35              		.loc 1 58 0
  36 0000 FFF7FEBF 		b	pwm_lld_init
  37              	.LVL0:
  38              		.cfi_endproc
  39              	.LFE256:
  40              		.size	pwmInit, .-pwmInit
  41              		.section	.text.pwmObjectInit,"ax",%progbits
  42              		.align	2
  43              		.p2align 4,,15
  44              		.global	pwmObjectInit
  45              		.thumb
  46              		.thumb_func
  47              		.type	pwmObjectInit, %function
  48              	pwmObjectInit:
  49              	.LFB257:
  50              		.loc 1 68 0
  51              		.cfi_startproc
  52              		@ args = 0, pretend = 0, frame = 0
  53              		@ frame_needed = 0, uses_anonymous_args = 0
  54              		@ link register save eliminated.
  55              	.LVL1:
  56              		.loc 1 71 0
  57 0000 0023     		movs	r3, #0
ARM GAS  /tmp/ccgG1Gyw.s 			page 2


  58              		.loc 1 70 0
  59 0002 0122     		movs	r2, #1
  60 0004 0270     		strb	r2, [r0]
  61              		.loc 1 71 0
  62 0006 4360     		str	r3, [r0, #4]
  63              		.loc 1 72 0
  64 0008 C360     		str	r3, [r0, #12]
  65              		.loc 1 73 0
  66 000a 0374     		strb	r3, [r0, #16]
  67 000c 7047     		bx	lr
  68              		.cfi_endproc
  69              	.LFE257:
  70              		.size	pwmObjectInit, .-pwmObjectInit
  71 000e 00BF     		.section	.text.pwmStart,"ax",%progbits
  72              		.align	2
  73              		.p2align 4,,15
  74              		.global	pwmStart
  75              		.thumb
  76              		.thumb_func
  77              		.type	pwmStart, %function
  78              	pwmStart:
  79              	.LFB258:
  80              		.loc 1 89 0
  81              		.cfi_startproc
  82              		@ args = 0, pretend = 0, frame = 0
  83              		@ frame_needed = 0, uses_anonymous_args = 0
  84              	.LVL2:
  85 0000 10B5     		push	{r4, lr}
  86              		.cfi_def_cfa_offset 8
  87              		.cfi_offset 4, -8
  88              		.cfi_offset 14, -4
  89              		.loc 1 89 0
  90 0002 0446     		mov	r4, r0
  91              	.LBB141:
  92              	.LBB142:
  93              	.LBB143:
  94              	.LBB144:
  95              	.LBB145:
  96              		.file 2 "ChibiOS_3.0.2/os/ext/CMSIS/include/core_cmFunc.h"
  97              		.loc 2 342 0
  98              	@ 342 "ChibiOS_3.0.2/os/ext/CMSIS/include/core_cmFunc.h" 1
  99 0004 72B6     		cpsid i
 100              	@ 0 "" 2
 101              		.thumb
 102              	.LBE145:
 103              	.LBE144:
 104              	.LBE143:
 105              	.LBE142:
 106              	.LBE141:
 107              		.loc 1 97 0
 108 0006 4B68     		ldr	r3, [r1, #4]
 109 0008 8360     		str	r3, [r0, #8]
 110              		.loc 1 96 0
 111 000a 4160     		str	r1, [r0, #4]
 112              		.loc 1 98 0
 113 000c FFF7FEFF 		bl	pwm_lld_start
 114              	.LVL3:
ARM GAS  /tmp/ccgG1Gyw.s 			page 3


 115              		.loc 1 99 0
 116 0010 0022     		movs	r2, #0
 117              		.loc 1 100 0
 118 0012 0223     		movs	r3, #2
 119              		.loc 1 99 0
 120 0014 E260     		str	r2, [r4, #12]
 121              		.loc 1 100 0
 122 0016 2370     		strb	r3, [r4]
 123              	.LBB146:
 124              	.LBB147:
 125              	.LBB148:
 126              	.LBB149:
 127              	.LBB150:
 128              	.LBB151:
 129              		.loc 2 331 0
 130              	@ 331 "ChibiOS_3.0.2/os/ext/CMSIS/include/core_cmFunc.h" 1
 131 0018 62B6     		cpsie i
 132              	@ 0 "" 2
 133              		.thumb
 134 001a 10BD     		pop	{r4, pc}
 135              	.LBE151:
 136              	.LBE150:
 137              	.LBE149:
 138              	.LBE148:
 139              	.LBE147:
 140              	.LBE146:
 141              		.cfi_endproc
 142              	.LFE258:
 143              		.size	pwmStart, .-pwmStart
 144              		.section	.text.pwmStop,"ax",%progbits
 145              		.align	2
 146              		.p2align 4,,15
 147              		.global	pwmStop
 148              		.thumb
 149              		.thumb_func
 150              		.type	pwmStop, %function
 151              	pwmStop:
 152              	.LFB259:
 153              		.loc 1 111 0
 154              		.cfi_startproc
 155              		@ args = 0, pretend = 0, frame = 0
 156              		@ frame_needed = 0, uses_anonymous_args = 0
 157              	.LVL4:
 158 0000 10B5     		push	{r4, lr}
 159              		.cfi_def_cfa_offset 8
 160              		.cfi_offset 4, -8
 161              		.cfi_offset 14, -4
 162              		.loc 1 111 0
 163 0002 0446     		mov	r4, r0
 164              	.LBB152:
 165              	.LBB153:
 166              	.LBB154:
 167              	.LBB155:
 168              	.LBB156:
 169              		.loc 2 342 0
 170              	@ 342 "ChibiOS_3.0.2/os/ext/CMSIS/include/core_cmFunc.h" 1
 171 0004 72B6     		cpsid i
ARM GAS  /tmp/ccgG1Gyw.s 			page 4


 172              	@ 0 "" 2
 173              		.thumb
 174              	.LBE156:
 175              	.LBE155:
 176              	.LBE154:
 177              	.LBE153:
 178              	.LBE152:
 179              		.loc 1 118 0
 180 0006 FFF7FEFF 		bl	pwm_lld_stop
 181              	.LVL5:
 182              		.loc 1 119 0
 183 000a 0022     		movs	r2, #0
 184              		.loc 1 120 0
 185 000c 0123     		movs	r3, #1
 186              		.loc 1 119 0
 187 000e E260     		str	r2, [r4, #12]
 188              		.loc 1 120 0
 189 0010 2370     		strb	r3, [r4]
 190              	.LBB157:
 191              	.LBB158:
 192              	.LBB159:
 193              	.LBB160:
 194              	.LBB161:
 195              	.LBB162:
 196              		.loc 2 331 0
 197              	@ 331 "ChibiOS_3.0.2/os/ext/CMSIS/include/core_cmFunc.h" 1
 198 0012 62B6     		cpsie i
 199              	@ 0 "" 2
 200              		.thumb
 201 0014 10BD     		pop	{r4, pc}
 202              	.LBE162:
 203              	.LBE161:
 204              	.LBE160:
 205              	.LBE159:
 206              	.LBE158:
 207              	.LBE157:
 208              		.cfi_endproc
 209              	.LFE259:
 210              		.size	pwmStop, .-pwmStop
 211 0016 00BF     		.section	.text.pwmChangePeriod,"ax",%progbits
 212              		.align	2
 213              		.p2align 4,,15
 214              		.global	pwmChangePeriod
 215              		.thumb
 216              		.thumb_func
 217              		.type	pwmChangePeriod, %function
 218              	pwmChangePeriod:
 219              	.LFB260:
 220              		.loc 1 139 0
 221              		.cfi_startproc
 222              		@ args = 0, pretend = 0, frame = 0
 223              		@ frame_needed = 0, uses_anonymous_args = 0
 224              		@ link register save eliminated.
 225              	.LVL6:
 226              	.LBB163:
 227              	.LBB164:
 228              	.LBB165:
ARM GAS  /tmp/ccgG1Gyw.s 			page 5


 229              	.LBB166:
 230              	.LBB167:
 231              		.loc 2 342 0
 232              	@ 342 "ChibiOS_3.0.2/os/ext/CMSIS/include/core_cmFunc.h" 1
 233 0000 72B6     		cpsid i
 234              	@ 0 "" 2
 235              		.thumb
 236              	.LBE167:
 237              	.LBE166:
 238              	.LBE165:
 239              	.LBE164:
 240              	.LBE163:
 241              		.loc 1 145 0
 242 0002 8369     		ldr	r3, [r0, #24]
 243 0004 8160     		str	r1, [r0, #8]
 244 0006 0139     		subs	r1, r1, #1
 245              	.LVL7:
 246 0008 D962     		str	r1, [r3, #44]
 247              	.LBB168:
 248              	.LBB169:
 249              	.LBB170:
 250              	.LBB171:
 251              	.LBB172:
 252              	.LBB173:
 253              		.loc 2 331 0
 254              	@ 331 "ChibiOS_3.0.2/os/ext/CMSIS/include/core_cmFunc.h" 1
 255 000a 62B6     		cpsie i
 256              	@ 0 "" 2
 257              		.thumb
 258 000c 7047     		bx	lr
 259              	.LBE173:
 260              	.LBE172:
 261              	.LBE171:
 262              	.LBE170:
 263              	.LBE169:
 264              	.LBE168:
 265              		.cfi_endproc
 266              	.LFE260:
 267              		.size	pwmChangePeriod, .-pwmChangePeriod
 268 000e 00BF     		.section	.text.pwmEnableChannel,"ax",%progbits
 269              		.align	2
 270              		.p2align 4,,15
 271              		.global	pwmEnableChannel
 272              		.thumb
 273              		.thumb_func
 274              		.type	pwmEnableChannel, %function
 275              	pwmEnableChannel:
 276              	.LFB261:
 277              		.loc 1 165 0
 278              		.cfi_startproc
 279              		@ args = 0, pretend = 0, frame = 0
 280              		@ frame_needed = 0, uses_anonymous_args = 0
 281              	.LVL8:
 282 0000 70B5     		push	{r4, r5, r6, lr}
 283              		.cfi_def_cfa_offset 16
 284              		.cfi_offset 4, -16
 285              		.cfi_offset 5, -12
ARM GAS  /tmp/ccgG1Gyw.s 			page 6


 286              		.cfi_offset 6, -8
 287              		.cfi_offset 14, -4
 288              	.LBB174:
 289              	.LBB175:
 290              	.LBB176:
 291              	.LBB177:
 292              	.LBB178:
 293              		.loc 2 342 0
 294              	@ 342 "ChibiOS_3.0.2/os/ext/CMSIS/include/core_cmFunc.h" 1
 295 0002 72B6     		cpsid i
 296              	@ 0 "" 2
 297              		.thumb
 298              	.LBE178:
 299              	.LBE177:
 300              	.LBE176:
 301              	.LBE175:
 302              	.LBE174:
 303              		.loc 1 173 0
 304 0004 0123     		movs	r3, #1
 305 0006 C568     		ldr	r5, [r0, #12]
 306 0008 8B40     		lsls	r3, r3, r1
 307 000a 2B43     		orrs	r3, r3, r5
 308 000c C360     		str	r3, [r0, #12]
 309 000e FFF7FEFF 		bl	pwm_lld_enable_channel
 310              	.LVL9:
 311              	.LBB179:
 312              	.LBB180:
 313              	.LBB181:
 314              	.LBB182:
 315              	.LBB183:
 316              	.LBB184:
 317              		.loc 2 331 0
 318              	@ 331 "ChibiOS_3.0.2/os/ext/CMSIS/include/core_cmFunc.h" 1
 319 0012 62B6     		cpsie i
 320              	@ 0 "" 2
 321              		.thumb
 322 0014 70BD     		pop	{r4, r5, r6, pc}
 323              	.LBE184:
 324              	.LBE183:
 325              	.LBE182:
 326              	.LBE181:
 327              	.LBE180:
 328              	.LBE179:
 329              		.cfi_endproc
 330              	.LFE261:
 331              		.size	pwmEnableChannel, .-pwmEnableChannel
 332 0016 00BF     		.section	.text.pwmDisableChannel,"ax",%progbits
 333              		.align	2
 334              		.p2align 4,,15
 335              		.global	pwmDisableChannel
 336              		.thumb
 337              		.thumb_func
 338              		.type	pwmDisableChannel, %function
 339              	pwmDisableChannel:
 340              	.LFB262:
 341              		.loc 1 192 0
 342              		.cfi_startproc
ARM GAS  /tmp/ccgG1Gyw.s 			page 7


 343              		@ args = 0, pretend = 0, frame = 0
 344              		@ frame_needed = 0, uses_anonymous_args = 0
 345              	.LVL10:
 346 0000 38B5     		push	{r3, r4, r5, lr}
 347              		.cfi_def_cfa_offset 16
 348              		.cfi_offset 3, -16
 349              		.cfi_offset 4, -12
 350              		.cfi_offset 5, -8
 351              		.cfi_offset 14, -4
 352              	.LBB185:
 353              	.LBB186:
 354              	.LBB187:
 355              	.LBB188:
 356              	.LBB189:
 357              		.loc 2 342 0
 358              	@ 342 "ChibiOS_3.0.2/os/ext/CMSIS/include/core_cmFunc.h" 1
 359 0002 72B6     		cpsid i
 360              	@ 0 "" 2
 361              		.thumb
 362              	.LBE189:
 363              	.LBE188:
 364              	.LBE187:
 365              	.LBE186:
 366              	.LBE185:
 367              		.loc 1 200 0
 368 0004 0122     		movs	r2, #1
 369 0006 C368     		ldr	r3, [r0, #12]
 370 0008 8A40     		lsls	r2, r2, r1
 371 000a 23EA0203 		bic	r3, r3, r2
 372 000e C360     		str	r3, [r0, #12]
 373 0010 FFF7FEFF 		bl	pwm_lld_disable_channel
 374              	.LVL11:
 375              	.LBB190:
 376              	.LBB191:
 377              	.LBB192:
 378              	.LBB193:
 379              	.LBB194:
 380              	.LBB195:
 381              		.loc 2 331 0
 382              	@ 331 "ChibiOS_3.0.2/os/ext/CMSIS/include/core_cmFunc.h" 1
 383 0014 62B6     		cpsie i
 384              	@ 0 "" 2
 385              		.thumb
 386 0016 38BD     		pop	{r3, r4, r5, pc}
 387              	.LBE195:
 388              	.LBE194:
 389              	.LBE193:
 390              	.LBE192:
 391              	.LBE191:
 392              	.LBE190:
 393              		.cfi_endproc
 394              	.LFE262:
 395              		.size	pwmDisableChannel, .-pwmDisableChannel
 396              		.section	.text.pwmEnablePeriodicNotification,"ax",%progbits
 397              		.align	2
 398              		.p2align 4,,15
 399              		.global	pwmEnablePeriodicNotification
ARM GAS  /tmp/ccgG1Gyw.s 			page 8


 400              		.thumb
 401              		.thumb_func
 402              		.type	pwmEnablePeriodicNotification, %function
 403              	pwmEnablePeriodicNotification:
 404              	.LFB263:
 405              		.loc 1 214 0
 406              		.cfi_startproc
 407              		@ args = 0, pretend = 0, frame = 0
 408              		@ frame_needed = 0, uses_anonymous_args = 0
 409              	.LVL12:
 410 0000 08B5     		push	{r3, lr}
 411              		.cfi_def_cfa_offset 8
 412              		.cfi_offset 3, -8
 413              		.cfi_offset 14, -4
 414              	.LBB196:
 415              	.LBB197:
 416              	.LBB198:
 417              	.LBB199:
 418              	.LBB200:
 419              		.loc 2 342 0
 420              	@ 342 "ChibiOS_3.0.2/os/ext/CMSIS/include/core_cmFunc.h" 1
 421 0002 72B6     		cpsid i
 422              	@ 0 "" 2
 423              		.thumb
 424              	.LBE200:
 425              	.LBE199:
 426              	.LBE198:
 427              	.LBE197:
 428              	.LBE196:
 429              		.loc 1 223 0
 430 0004 FFF7FEFF 		bl	pwm_lld_enable_periodic_notification
 431              	.LVL13:
 432              	.LBB201:
 433              	.LBB202:
 434              	.LBB203:
 435              	.LBB204:
 436              	.LBB205:
 437              	.LBB206:
 438              		.loc 2 331 0
 439              	@ 331 "ChibiOS_3.0.2/os/ext/CMSIS/include/core_cmFunc.h" 1
 440 0008 62B6     		cpsie i
 441              	@ 0 "" 2
 442              		.thumb
 443 000a 08BD     		pop	{r3, pc}
 444              	.LBE206:
 445              	.LBE205:
 446              	.LBE204:
 447              	.LBE203:
 448              	.LBE202:
 449              	.LBE201:
 450              		.cfi_endproc
 451              	.LFE263:
 452              		.size	pwmEnablePeriodicNotification, .-pwmEnablePeriodicNotification
 453              		.section	.text.pwmDisablePeriodicNotification,"ax",%progbits
 454              		.align	2
 455              		.p2align 4,,15
 456              		.global	pwmDisablePeriodicNotification
ARM GAS  /tmp/ccgG1Gyw.s 			page 9


 457              		.thumb
 458              		.thumb_func
 459              		.type	pwmDisablePeriodicNotification, %function
 460              	pwmDisablePeriodicNotification:
 461              	.LFB264:
 462              		.loc 1 237 0
 463              		.cfi_startproc
 464              		@ args = 0, pretend = 0, frame = 0
 465              		@ frame_needed = 0, uses_anonymous_args = 0
 466              	.LVL14:
 467 0000 08B5     		push	{r3, lr}
 468              		.cfi_def_cfa_offset 8
 469              		.cfi_offset 3, -8
 470              		.cfi_offset 14, -4
 471              	.LBB207:
 472              	.LBB208:
 473              	.LBB209:
 474              	.LBB210:
 475              	.LBB211:
 476              		.loc 2 342 0
 477              	@ 342 "ChibiOS_3.0.2/os/ext/CMSIS/include/core_cmFunc.h" 1
 478 0002 72B6     		cpsid i
 479              	@ 0 "" 2
 480              		.thumb
 481              	.LBE211:
 482              	.LBE210:
 483              	.LBE209:
 484              	.LBE208:
 485              	.LBE207:
 486              		.loc 1 246 0
 487 0004 FFF7FEFF 		bl	pwm_lld_disable_periodic_notification
 488              	.LVL15:
 489              	.LBB212:
 490              	.LBB213:
 491              	.LBB214:
 492              	.LBB215:
 493              	.LBB216:
 494              	.LBB217:
 495              		.loc 2 331 0
 496              	@ 331 "ChibiOS_3.0.2/os/ext/CMSIS/include/core_cmFunc.h" 1
 497 0008 62B6     		cpsie i
 498              	@ 0 "" 2
 499              		.thumb
 500 000a 08BD     		pop	{r3, pc}
 501              	.LBE217:
 502              	.LBE216:
 503              	.LBE215:
 504              	.LBE214:
 505              	.LBE213:
 506              	.LBE212:
 507              		.cfi_endproc
 508              	.LFE264:
 509              		.size	pwmDisablePeriodicNotification, .-pwmDisablePeriodicNotification
 510              		.section	.text.pwmEnableChannelNotification,"ax",%progbits
 511              		.align	2
 512              		.p2align 4,,15
 513              		.global	pwmEnableChannelNotification
ARM GAS  /tmp/ccgG1Gyw.s 			page 10


 514              		.thumb
 515              		.thumb_func
 516              		.type	pwmEnableChannelNotification, %function
 517              	pwmEnableChannelNotification:
 518              	.LFB265:
 519              		.loc 1 262 0
 520              		.cfi_startproc
 521              		@ args = 0, pretend = 0, frame = 0
 522              		@ frame_needed = 0, uses_anonymous_args = 0
 523              	.LVL16:
 524 0000 08B5     		push	{r3, lr}
 525              		.cfi_def_cfa_offset 8
 526              		.cfi_offset 3, -8
 527              		.cfi_offset 14, -4
 528              	.LBB218:
 529              	.LBB219:
 530              	.LBB220:
 531              	.LBB221:
 532              	.LBB222:
 533              		.loc 2 342 0
 534              	@ 342 "ChibiOS_3.0.2/os/ext/CMSIS/include/core_cmFunc.h" 1
 535 0002 72B6     		cpsid i
 536              	@ 0 "" 2
 537              		.thumb
 538              	.LBE222:
 539              	.LBE221:
 540              	.LBE220:
 541              	.LBE219:
 542              	.LBE218:
 543              		.loc 1 274 0
 544 0004 FFF7FEFF 		bl	pwm_lld_enable_channel_notification
 545              	.LVL17:
 546              	.LBB223:
 547              	.LBB224:
 548              	.LBB225:
 549              	.LBB226:
 550              	.LBB227:
 551              	.LBB228:
 552              		.loc 2 331 0
 553              	@ 331 "ChibiOS_3.0.2/os/ext/CMSIS/include/core_cmFunc.h" 1
 554 0008 62B6     		cpsie i
 555              	@ 0 "" 2
 556              		.thumb
 557 000a 08BD     		pop	{r3, pc}
 558              	.LBE228:
 559              	.LBE227:
 560              	.LBE226:
 561              	.LBE225:
 562              	.LBE224:
 563              	.LBE223:
 564              		.cfi_endproc
 565              	.LFE265:
 566              		.size	pwmEnableChannelNotification, .-pwmEnableChannelNotification
 567              		.section	.text.pwmDisableChannelNotification,"ax",%progbits
 568              		.align	2
 569              		.p2align 4,,15
 570              		.global	pwmDisableChannelNotification
ARM GAS  /tmp/ccgG1Gyw.s 			page 11


 571              		.thumb
 572              		.thumb_func
 573              		.type	pwmDisableChannelNotification, %function
 574              	pwmDisableChannelNotification:
 575              	.LFB266:
 576              		.loc 1 290 0
 577              		.cfi_startproc
 578              		@ args = 0, pretend = 0, frame = 0
 579              		@ frame_needed = 0, uses_anonymous_args = 0
 580              	.LVL18:
 581 0000 08B5     		push	{r3, lr}
 582              		.cfi_def_cfa_offset 8
 583              		.cfi_offset 3, -8
 584              		.cfi_offset 14, -4
 585              	.LBB229:
 586              	.LBB230:
 587              	.LBB231:
 588              	.LBB232:
 589              	.LBB233:
 590              		.loc 2 342 0
 591              	@ 342 "ChibiOS_3.0.2/os/ext/CMSIS/include/core_cmFunc.h" 1
 592 0002 72B6     		cpsid i
 593              	@ 0 "" 2
 594              		.thumb
 595              	.LBE233:
 596              	.LBE232:
 597              	.LBE231:
 598              	.LBE230:
 599              	.LBE229:
 600              		.loc 1 302 0
 601 0004 FFF7FEFF 		bl	pwm_lld_disable_channel_notification
 602              	.LVL19:
 603              	.LBB234:
 604              	.LBB235:
 605              	.LBB236:
 606              	.LBB237:
 607              	.LBB238:
 608              	.LBB239:
 609              		.loc 2 331 0
 610              	@ 331 "ChibiOS_3.0.2/os/ext/CMSIS/include/core_cmFunc.h" 1
 611 0008 62B6     		cpsie i
 612              	@ 0 "" 2
 613              		.thumb
 614 000a 08BD     		pop	{r3, pc}
 615              	.LBE239:
 616              	.LBE238:
 617              	.LBE237:
 618              	.LBE236:
 619              	.LBE235:
 620              	.LBE234:
 621              		.cfi_endproc
 622              	.LFE266:
 623              		.size	pwmDisableChannelNotification, .-pwmDisableChannelNotification
 624              		.text
 625              	.Letext0:
 626              		.file 3 "/usr/arm-none-eabi/include/machine/_default_types.h"
 627              		.file 4 "/usr/arm-none-eabi/include/sys/_stdint.h"
ARM GAS  /tmp/ccgG1Gyw.s 			page 12


 628              		.file 5 "ChibiOS_3.0.2/os/rt/ports/ARMCMx/compilers/GCC/chtypes.h"
 629              		.file 6 "ChibiOS_3.0.2/os/rt/include/chsystypes.h"
 630              		.file 7 "ChibiOS_3.0.2/os/rt/include/chschd.h"
 631              		.file 8 "ChibiOS_3.0.2/os/rt/ports/ARMCMx/chcore.h"
 632              		.file 9 "ChibiOS_3.0.2/os/rt/ports/ARMCMx/chcore_v7m.h"
 633              		.file 10 "ChibiOS_3.0.2/os/rt/include/chtm.h"
 634              		.file 11 "ChibiOS_3.0.2/os/rt/include/chsem.h"
 635              		.file 12 "ChibiOS_3.0.2/os/rt/include/chmtx.h"
 636              		.file 13 "ChibiOS_3.0.2/os/hal/include/pwm.h"
 637              		.file 14 "ChibiOS_3.0.2/os/hal/ports/STM32/LLD/TIMv1/pwm_lld.h"
 638              		.file 15 "ChibiOS_3.0.2/os/hal/ports/STM32/LLD/TIMv1/stm32_tim.h"
 639              		.file 16 "ChibiOS_3.0.2/os/rt/include/chsys.h"
 640              		.file 17 "ChibiOS_3.0.2/os/hal/osal/rt/osal.h"
 641              		.file 18 "ChibiOS_3.0.2/os/ext/CMSIS/include/core_cm4.h"