ARM GAS  /tmp/ccgG1Gyw.s 			page 1


   1              		.syntax unified
   2              		.cpu cortex-m4
   3              		.eabi_attribute 27, 1
   4              		.eabi_attribute 28, 1
   5              		.fpu fpv4-sp-d16
   6              		.eabi_attribute 20, 1
   7              		.eabi_attribute 21, 1
   8              		.eabi_attribute 23, 3
   9              		.eabi_attribute 24, 1
  10              		.eabi_attribute 25, 1
  11              		.eabi_attribute 26, 1
  12              		.eabi_attribute 30, 2
  13              		.eabi_attribute 34, 1
  14              		.eabi_attribute 18, 4
  15              		.thumb
  16              		.file	"pwm.c"
  17              		.text
  18              	.Ltext0:
  19              		.cfi_sections	.debug_frame
  20              		.section	.text.pwmInit,"ax",%progbits
  21              		.align	2
  22              		.p2align 4,,15
  23              		.global	pwmInit
  24              		.thumb
  25              		.thumb_func
  26              		.type	pwmInit, %function
  27              	pwmInit:
  28              	.LFB256:
  29              		.file 1 "ChibiOS_3.0.2/os/hal/src/pwm.c"
  30              		.loc 1 56 0
  31              		.cfi_startproc
  32              		@ args = 0, pretend = 0, frame = 0
  33              		@ frame_needed = 0, uses_anonymous_args = 0
  34              		@ link register save eliminated.
  35              		.loc 1 58 0
  36 0000 FFF7FEBF 		b	pwm_lld_init
  37              	.LVL0:
  38              		.cfi_endproc
  39              	.LFE256:
  40              		.size	pwmInit, .-pwmInit
  41              		.section	.text.pwmObjectInit,"ax",%progbits
  42              		.align	2
  43              		.p2align 4,,15
  44              		.global	pwmObjectInit
  45              		.thumb
  46              		.thumb_func
  47              		.type	pwmObjectInit, %function
  48              	pwmObjectInit:
  49              	.LFB257:
  50              		.loc 1 68 0
  51              		.cfi_startproc
  52              		@ args = 0, pretend = 0, frame = 0
  53              		@ frame_needed = 0, uses_anonymous_args = 0
  54              		@ link register save eliminated.
  55              	.LVL1:
  56              		.loc 1 71 0
  57 0000 0023     		movs	r3, #0
ARM GAS  /tmp/ccgG1Gyw.s 			page 2


  58              		.loc 1 70 0
  59 0002 0122     		movs	r2, #1
  60 0004 0270     		strb	r2, [r0]
  61              		.loc 1 71 0
  62 0006 4360     		str	r3, [r0, #4]
  63              		.loc 1 72 0
  64 0008 C360     		str	r3, [r0, #12]
  65              		.loc 1 73 0
  66 000a 0374     		strb	r3, [r0, #16]
  67 000c 7047     		bx	lr
  68              		.cfi_endproc
  69              	.LFE257:
  70              		.size	pwmObjectInit, .-pwmObjectInit
  71 000e 00BF     		.section	.text.pwmStart,"ax",%progbits
  72              		.align	2
  73              		.p2align 4,,15
  74              		.global	pwmStart
  75              		.thumb
  76              		.thumb_func
  77              		.type	pwmStart, %function
  78              	pwmStart:
  79              	.LFB258:
  80              		.loc 1 89 0
  81              		.cfi_startproc
  82              		@ args = 0, pretend = 0, frame = 0
  83              		@ frame_needed = 0, uses_anonymous_args = 0
  84              	.LVL2:
  85 0000 10B5     		push	{r4, lr}
  86              		.cfi_def_cfa_offset 8
  87              		.cfi_offset 4, -8
  88              		.cfi_offset 14, -4
  89              		.loc 1 89 0
  90 0002 0446     		mov	r4, r0
  91              	.LBB141:
  92              	.LBB142:
  93              	.LBB143:
  94              	.LBB144:
  95              	.LBB145:
  96              		.file 2 "ChibiOS_3.0.2/os/ext/CMSIS/include/core_cmFunc.h"
  97              		.loc 2 342 0
  98              	@ 342 "ChibiOS_3.0.2/os/ext/CMSIS/include/core_cmFunc.h" 1
  99 0004 72B6     		cpsid i
 100              	@ 0 "" 2
 101              		.thumb
 102              	.LBE145:
 103              	.LBE144:
 104              	.LBE143:
 105              	.LBE142:
 106              	.LBE141:
 107              		.loc 1 97 0
 108 0006 4B68     		ldr	r3, [r1, #4]
 109 0008 8360     		str	r3, [r0, #8]
 110              		.loc 1 96 0
 111 000a 4160     		str	r1, [r0, #4]
 112              		.loc 1 98 0
 113 000c FFF7FEFF 		bl	pwm_lld_start
 114              	.LVL3:
ARM GAS  /tmp/ccgG1Gyw.s 			page 3


 115              		.loc 1 99 0
 116 0010 0022     		movs	r2, #0
 117              		.loc 1 100 0
 118 0012 0223     		movs	r3, #2
 119              		.loc 1 99 0
 120 0014 E260     		str	r2, [r4, #12]
 121              		.loc 1 100 0
 122 0016 2370     		strb	r3, [r4]
 123              	.LBB146:
 124              	.LBB147:
 125              	.LBB148:
 126              	.LBB149:
 127              	.LBB150:
 128              	.LBB151:
 129              		.loc 2 331 0
 130              	@ 331 "ChibiOS_3.0.2/os/ext/CMSIS/include/core_cmFunc.h" 1
 131 0018 62B6     		cpsie i
 132              	@ 0 "" 2
 133              		.thumb
 134 001a 10BD     		pop	{r4, pc}
 135              	.LBE151:
 136              	.LBE150:
 137              	.LBE149:
 138              	.LBE148:
 139              	.LBE147:
 140              	.LBE146:
 141              		.cfi_endproc
 142              	.LFE258:
 143              		.size	pwmStart, .-pwmStart
 144              		.section	.text.pwmStop,"ax",%progbits
 145              		.align	2
 146              		.p2align 4,,15
 147              		.global	pwmStop
 148              		.thumb
 149              		.thumb_func
 150              		.type	pwmStop, %function
 151              	pwmStop:
 152              	.LFB259:
 153              		.loc 1 111 0
 154              		.cfi_startproc
 155              		@ args = 0, pretend = 0, frame = 0
 156              		@ frame_needed = 0, uses_anonymous_args = 0
 157              	.LVL4:
 158 0000 10B5     		push	{r4, lr}
 159              		.cfi_def_cfa_offset 8
 160              		.cfi_offset 4, -8
 161              		.cfi_offset 14, -4
 162              		.loc 1 111 0
 163 0002 0446     		mov	r4, r0
 164              	.LBB152:
 165              	.LBB153:
 166              	.LBB154:
 167              	.LBB155:
 168              	.LBB156:
 169              		.loc 2 342 0
 170              	@ 342 "ChibiOS_3.0.2/os/ext/CMSIS/include/core_cmFunc.h" 1
 171 0004 72B6     		cpsid i
ARM GAS  /tmp/ccgG1Gyw.s 			page 4


 172              	@ 0 "" 2
 173              		.thumb
 174              	.LBE156:
 175              	.LBE155:
 176              	.LBE154:
 177              	.LBE153:
 178              	.LBE152:
 179              		.loc 1 118 0
 180 0006 FFF7FEFF 		bl	pwm_lld_stop
 181              	.LVL5:
 182              		.loc 1 119 0
 183 000a 0022     		movs	r2, #0
 184              		.loc 1 120 0
 185 000c 0123     		movs	r3, #1
 186              		.loc 1 119 0
 187 000e E260     		str	r2, [r4, #12]
 188              		.loc 1 120 0
 189 0010 2370     		strb	r3, [r4]
 190              	.LBB157:
 191              	.LBB158:
 192              	.LBB159:
 193              	.LBB160:
 194              	.LBB161:
 195              	.LBB162:
 196              		.loc 2 331 0
 197              	@ 331 "ChibiOS_3.0.2/os/ext/CMSIS/include/core_cmFunc.h" 1
 198 0012 62B6     		cpsie i
 199              	@ 0 "" 2
 200              		.thumb
 201 0014 10BD     		pop	{r4, pc}
 202              	.LBE162:
 203              	.LBE161:
 204              	.LBE160:
 205              	.LBE159:
 206              	.LBE158:
 207              	.LBE157:
 208              		.cfi_endproc
 209              	.LFE259:
 210              		.size	pwmStop, .-pwmStop
 211 0016 00BF     		.section	.text.pwmChangePeriod,"ax",%progbits
 212              		.align	2
 213              		.p2align 4,,15
 214              		.global	pwmChangePeriod
 215              		.thumb
 216              		.thumb_func
 217              		.type	pwmChangePeriod, %function
 218              	pwmChangePeriod:
 219              	.LFB260:
 220              		.loc 1 139 0
 221              		.cfi_startproc
 222              		@ args = 0, pretend = 0, frame = 0
 223              		@ frame_needed = 0, uses_anonymous_args = 0
 224              		@ link register save eliminated.
 225              	.LVL6:
 226              	.LBB163:
 227              	.LBB164:
 228              	.LBB165:
ARM GAS  /tmp/ccgG1Gyw.s 			page 5


 229              	.LBB166:
 230              	.LBB167:
 231              		.loc 2 342 0
 232              	@ 342 "ChibiOS_3.0.2/os/ext/CMSIS/include/core_cmFunc.h" 1
 233 0000 72B6     		cpsid i
 234              	@ 0 "" 2
 235              		.thumb
 236              	.LBE167:
 237              	.LBE166:
 238              	.LBE165:
 239              	.LBE164:
 240              	.LBE163:
 241              		.loc 1 145 0
 242 0002 8369     		ldr	r3, [r0, #24]
 243 0004 8160     		str	r1, [r0, #8]
 244 0006 0139     		subs	r1, r1, #1
 245              	.LVL7:
 246 0008 D962     		str	r1, [r3, #44]
 247              	.LBB168:
 248              	.LBB169:
 249              	.LBB170:
 250              	.LBB171:
 251              	.LBB172:
 252              	.LBB173:
 253              		.loc 2 331 0
 254              	@ 331 "ChibiOS_3.0.2/os/ext/CMSIS/include/core_cmFunc.h" 1
 255 000a 62B6     		cpsie i
 256              	@ 0 "" 2
 257              		.thumb
 258 000c 7047     		bx	lr
 259              	.LBE173:
 260              	.LBE172:
 261              	.LBE171:
 262              	.LBE170:
 263              	.LBE169:
 264              	.LBE168:
 265              		.cfi_endproc
 266              	.LFE260:
 267              		.size	pwmChangePeriod, .-pwmChangePeriod
 268 000e 00BF     		.section	.text.pwmEnableChannel,"ax",%progbits
 269              		.align	2
 270              		.p2align 4,,15
 271              		.global	pwmEnableChannel
 272              		.thumb
 273              		.thumb_func
 274              		.type	pwmEnableChannel, %function
 275              	pwmEnableChannel:
 276              	.LFB261:
 277              		.loc 1 165 0
 278              		.cfi_startproc
 279              		@ args = 0, pretend = 0, frame = 0
 280              		@ frame_needed = 0, uses_anonymous_args = 0
 281              	.LVL8:
 282 0000 70B5     		push	{r4, r5, r6, lr}
 283              		.cfi_def_cfa_offset 16
 284              		.cfi_offset 4, -16
 285              		.cfi_offset 5, -12
ARM GAS  /tmp/ccgG1Gyw.s 			page 6


 286              		.cfi_offset 6, -8
 287              		.cfi_offset 14, -4
 288              	.LBB174:
 289              	.LBB175:
 290              	.LBB176:
 291              	.LBB177:
 292              	.LBB178:
 293              		.loc 2 342 0
 294              	@ 342 "ChibiOS_3.0.2/os/ext/CMSIS/include/core_cmFunc.h" 1
 295 0002 72B6     		cpsid i
 296              	@ 0 "" 2
 297              		.thumb
 298              	.LBE178:
 299              	.LBE177:
 300              	.LBE176:
 301              	.LBE175:
 302              	.LBE174:
 303              		.loc 1 173 0
 304 0004 0123     		movs	r3, #1
 305 0006 C568     		ldr	r5, [r0, #12]
 306 0008 8B40     		lsls	r3, r3, r1
 307 000a 2B43     		orrs	r3, r3, r5
 308 000c C360     		str	r3, [r0, #12]
 309 000e FFF7FEFF 		bl	pwm_lld_enable_channel
 310              	.LVL9:
 311              	.LBB179:
 312              	.LBB180:
 313              	.LBB181:
 314              	.LBB182:
 315              	.LBB183:
 316              	.LBB184:
 317              		.loc 2 331 0
 318              	@ 331 "ChibiOS_3.0.2/os/ext/CMSIS/include/core_cmFunc.h" 1
 319 0012 62B6     		cpsie i
 320              	@ 0 "" 2
 321              		.thumb
 322 0014 70BD     		pop	{r4, r5, r6, pc}
 323              	.LBE184:
 324              	.LBE183:
 325              	.LBE182:
 326              	.LBE181:
 327              	.LBE180:
 328              	.LBE179:
 329              		.cfi_endproc
 330              	.LFE261:
 331              		.size	pwmEnableChannel, .-pwmEnableChannel
 332 0016 00BF     		.section	.text.pwmDisableChannel,"ax",%progbits
 333              		.align	2
 334              		.p2align 4,,15
 335              		.global	pwmDisableChannel
 336              		.thumb
 337              		.thumb_func
 338              		.type	pwmDisableChannel, %function
 339              	pwmDisableChannel:
 340              	.LFB262:
 341              		.loc 1 192 0
 342              		.cfi_startproc
ARM GAS  /tmp/ccgG1Gyw.s 			page 7


 343              		@ args = 0, pretend = 0, frame = 0
 344              		@ frame_needed = 0, uses_anonymous_args = 0
 345              	.LVL10:
 346 0000 38B5     		push	{r3, r4, r5, lr}
 347              		.cfi_def_cfa_offset 16
 348              		.cfi_offset 3, -16
 349              		.cfi_offset 4, -12
 350              		.cfi_offset 5, -8
 351              		.cfi_offset 14, -4
 352              	.LBB185:
 353              	.LBB186:
 354              	.LBB187:
 355              	.LBB188:
 356              	.LBB189:
 357              		.loc 2 342 0
 358              	@ 342 "ChibiOS_3.0.2/os/ext/CMSIS/include/core_cmFunc.h" 1
 359 0002 72B6     		cpsid i
 360              	@ 0 "" 2
 361              		.thumb
 362              	.LBE189:
 363              	.LBE188:
 364              	.LBE187:
 365              	.LBE186:
 366              	.LBE185:
 367              		.loc 1 200 0
 368 0004 0122     		movs	r2, #1
 369 0006 C368     		ldr	r3, [r0, #12]
 370 0008 8A40     		lsls	r2, r2, r1
 371 000a 23EA0203 		bic	r3, r3, r2
 372 000e C360     		str	r3, [r0, #12]
 373 0010 FFF7FEFF 		bl	pwm_lld_disable_channel
 374              	.LVL11:
 375              	.LBB190:
 376              	.LBB191:
 377              	.LBB192:
 378              	.LBB193:
 379              	.LBB194:
 380              	.LBB195:
 381              		.loc 2 331 0
 382              	@ 331 "ChibiOS_3.0.2/os/ext/CMSIS/include/core_cmFunc.h" 1
 383 0014 62B6     		cpsie i
 384              	@ 0 "" 2
 385              		.thumb
 386 0016 38BD     		pop	{r3, r4, r5, pc}
 387              	.LBE195:
 388              	.LBE194:
 389              	.LBE193:
 390              	.LBE192:
 391              	.LBE191:
 392              	.LBE190:
 393              		.cfi_endproc
 394              	.LFE262:
 395              		.size	pwmDisableChannel, .-pwmDisableChannel
 396              		.section	.text.pwmEnablePeriodicNotification,"ax",%progbits
 397              		.align	2
 398              		.p2align 4,,15
 399              		.global	pwmEnablePeriodicNotification
ARM GAS  /tmp/ccgG1Gyw.s 			page 8


 400              		.thumb
 401              		.thumb_func
 402              		.type	pwmEnablePeriodicNotification, %function
 403              	pwmEnablePeriodicNotification:
 404              	.LFB263:
 405              		.loc 1 214 0
 406              		.cfi_startproc
 407              		@ args = 0, pretend = 0, frame = 0
 408              		@ frame_needed = 0, uses_anonymous_args = 0
 409              	.LVL12:
 410 0000 08B5     		push	{r3, lr}
 411              		.cfi_def_cfa_offset 8
 412              		.cfi_offset 3, -8
 413              		.cfi_offset 14, -4
 414              	.LBB196:
 415              	.LBB197:
 416              	.LBB198:
 417              	.LBB199:
 418              	.LBB200:
 419              		.loc 2 342 0
 420              	@ 342 "ChibiOS_3.0.2/os/ext/CMSIS/include/core_cmFunc.h" 1
 421 0002 72B6     		cpsid i
 422              	@ 0 "" 2
 423              		.thumb
 424              	.LBE200:
 425              	.LBE199:
 426              	.LBE198:
 427              	.LBE197:
 428              	.LBE196:
 429              		.loc 1 223 0
 430 0004 FFF7FEFF 		bl	pwm_lld_enable_periodic_notification
 431              	.LVL13:
 432              	.LBB201:
 433              	.LBB202:
 434              	.LBB203:
 435              	.LBB204:
 436              	.LBB205:
 437              	.LBB206:
 438              		.loc 2 331 0
 439              	@ 331 "ChibiOS_3.0.2/os/ext/CMSIS/include/core_cmFunc.h" 1
 440 0008 62B6     		cpsie i
 441              	@ 0 "" 2
 442              		.thumb
 443 000a 08BD     		pop	{r3, pc}
 444              	.LBE206:
 445              	.LBE205:
 446              	.LBE204:
 447              	.LBE203:
 448              	.LBE202:
 449              	.LBE201:
 450              		.cfi_endproc
 451              	.LFE263:
 452              		.size	pwmEnablePeriodicNotification, .-pwmEnablePeriodicNotification
 453              		.section	.text.pwmDisablePeriodicNotification,"ax",%progbits
 454              		.align	2
 455              		.p2align 4,,15
 456              		.global	pwmDisablePeriodicNotification
ARM GAS  /tmp/ccgG1Gyw.s 			page 9


 457              		.thumb
 458              		.thumb_func
 459              		.type	pwmDisablePeriodicNotification, %function
 460              	pwmDisablePeriodicNotification:
 461              	.LFB264:
 462              		.loc 1 237 0
 463              		.cfi_startproc
 464              		@ args = 0, pretend = 0, frame = 0
 465              		@ frame_needed = 0, uses_anonymous_args = 0
 466              	.LVL14:
 467 0000 08B5     		push	{r3, lr}
 468              		.cfi_def_cfa_offset 8
 469              		.cfi_offset 3, -8
 470              		.cfi_offset 14, -4
 471              	.LBB207:
 472              	.LBB208:
 473              	.LBB209:
 474              	.LBB210:
 475              	.LBB211:
 476              		.loc 2 342 0
 477              	@ 342 "ChibiOS_3.0.2/os/ext/CMSIS/include/core_cmFunc.h" 1
 478 0002 72B6     		cpsid i
 479              	@ 0 "" 2
 480              		.thumb
 481              	.LBE211:
 482              	.LBE210:
 483              	.LBE209:
 484              	.LBE208:
 485              	.LBE207:
 486              		.loc 1 246 0
 487 0004 FFF7FEFF 		bl	pwm_lld_disable_periodic_notification
 488              	.LVL15:
 489              	.LBB212:
 490              	.LBB213:
 491              	.LBB214:
 492              	.LBB215:
 493              	.LBB216:
 494              	.LBB217:
 495              		.loc 2 331 0
 496              	@ 331 "ChibiOS_3.0.2/os/ext/CMSIS/include/core_cmFunc.h" 1
 497 0008 62B6     		cpsie i
 498              	@ 0 "" 2
 499              		.thumb
 500 000a 08BD     		pop	{r3, pc}
 501              	.LBE217:
 502              	.LBE216:
 503              	.LBE215:
 504              	.LBE214:
 505              	.LBE213:
 506              	.LBE212:
 507              		.cfi_endproc
 508              	.LFE264:
 509              		.size	pwmDisablePeriodicNotification, .-pwmDisablePeriodicNotification
 510              		.section	.text.pwmEnableChannelNotification,"ax",%progbits
 511              		.align	2
 512              		.p2align 4,,15
 513              		.global	pwmEnableChannelNotification
ARM GAS  /tmp/ccgG1Gyw.s 			page 10


 514              		.thumb
 515              		.thumb_func
 516              		.type	pwmEnableChannelNotification, %function
 517              	pwmEnableChannelNotification:
 518              	.LFB265:
 519              		.loc 1 262 0
 520              		.cfi_startproc
 521              		@ args = 0, pretend = 0, frame = 0
 522              		@ frame_needed = 0, uses_anonymous_args = 0
 523              	.LVL16:
 524 0000 08B5     		push	{r3, lr}
 525              		.cfi_def_cfa_offset 8
 526              		.cfi_offset 3, -8
 527              		.cfi_offset 14, -4
 528              	.LBB218:
 529              	.LBB219:
 530              	.LBB220:
 531              	.LBB221:
 532              	.LBB222:
 533              		.loc 2 342 0
 534              	@ 342 "ChibiOS_3.0.2/os/ext/CMSIS/include/core_cmFunc.h" 1
 535 0002 72B6     		cpsid i
 536              	@ 0 "" 2
 537              		.thumb
 538              	.LBE222:
 539              	.LBE221:
 540              	.LBE220:
 541              	.LBE219:
 542              	.LBE218:
 543              		.loc 1 274 0
 544 0004 FFF7FEFF 		bl	pwm_lld_enable_channel_notification
 545              	.LVL17:
 546              	.LBB223:
 547              	.LBB224:
 548              	.LBB225:
 549              	.LBB226:
 550              	.LBB227:
 551              	.LBB228:
 552              		.loc 2 331 0
 553              	@ 331 "ChibiOS_3.0.2/os/ext/CMSIS/include/core_cmFunc.h" 1
 554 0008 62B6     		cpsie i
 555              	@ 0 "" 2
 556              		.thumb
 557 000a 08BD     		pop	{r3, pc}
 558              	.LBE228:
 559              	.LBE227:
 560              	.LBE226:
 561              	.LBE225:
 562              	.LBE224:
 563              	.LBE223:
 564              		.cfi_endproc
 565              	.LFE265:
 566              		.size	pwmEnableChannelNotification, .-pwmEnableChannelNotification
 567              		.section	.text.pwmDisableChannelNotification,"ax",%progbits
 568              		.align	2
 569              		.p2align 4,,15
 570              		.global	pwmDisableChannelNotification
ARM GAS  /tmp/ccgG1Gyw.s 			page 11


 571              		.thumb
 572              		.thumb_func
 573              		.type	pwmDisableChannelNotification, %function
 574              	pwmDisableChannelNotification:
 575              	.LFB266:
 576              		.loc 1 290 0
 577              		.cfi_startproc
 578              		@ args = 0, pretend = 0, frame = 0
 579              		@ frame_needed = 0, uses_anonymous_args = 0
 580              	.LVL18:
 581 0000 08B5     		push	{r3, lr}
 582              		.cfi_def_cfa_offset 8
 583              		.cfi_offset 3, -8
 584              		.cfi_offset 14, -4
 585              	.LBB229:
 586              	.LBB230:
 587              	.LBB231:
 588              	.LBB232:
 589              	.LBB233:
 590              		.loc 2 342 0
 591              	@ 342 "ChibiOS_3.0.2/os/ext/CMSIS/include/core_cmFunc.h" 1
 592 0002 72B6     		cpsid i
 593              	@ 0 "" 2
 594              		.thumb
 595              	.LBE233:
 596              	.LBE232:
 597              	.LBE231:
 598              	.LBE230:
 599              	.LBE229:
 600              		.loc 1 302 0
 601 0004 FFF7FEFF 		bl	pwm_lld_disable_channel_notification
 602              	.LVL19:
 603              	.LBB234:
 604              	.LBB235:
 605              	.LBB236:
 606              	.LBB237:
 607              	.LBB238:
 608              	.LBB239:
 609              		.loc 2 331 0
 610              	@ 331 "ChibiOS_3.0.2/os/ext/CMSIS/include/core_cmFunc.h" 1
 611 0008 62B6     		cpsie i
 612              	@ 0 "" 2
 613              		.thumb
 614 000a 08BD     		pop	{r3, pc}
 615              	.LBE239:
 616              	.LBE238:
 617              	.LBE237:
 618              	.LBE236:
 619              	.LBE235:
 620              	.LBE234:
 621              		.cfi_endproc
 622              	.LFE266:
 623              		.size	pwmDisableChannelNotification, .-pwmDisableChannelNotification
 624              		.text
 625              	.Letext0:
 626              		.file 3 "/usr/arm-none-eabi/include/machine/_default_types.h"
 627              		.file 4 "/usr/arm-none-eabi/include/sys/_stdint.h"
ARM GAS  /tmp/ccgG1Gyw.s 			page 12


 628              		.file 5 "ChibiOS_3.0.2/os/rt/ports/ARMCMx/compilers/GCC/chtypes.h"
 629              		.file 6 "ChibiOS_3.0.2/os/rt/include/chsystypes.h"
 630              		.file 7 "ChibiOS_3.0.2/os/rt/include/chschd.h"
 631              		.file 8 "ChibiOS_3.0.2/os/rt/ports/ARMCMx/chcore.h"
 632              		.file 9 "ChibiOS_3.0.2/os/rt/ports/ARMCMx/chcore_v7m.h"
 633              		.file 10 "ChibiOS_3.0.2/os/rt/include/chtm.h"
 634              		.file 11 "ChibiOS_3.0.2/os/rt/include/chsem.h"
 635              		.file 12 "ChibiOS_3.0.2/os/rt/include/chmtx.h"
 636              		.file 13 "ChibiOS_3.0.2/os/hal/include/pwm.h"
 637              		.file 14 "ChibiOS_3.0.2/os/hal/ports/STM32/LLD/TIMv1/pwm_lld.h"
 638              		.file 15 "ChibiOS_3.0.2/os/hal/ports/STM32/LLD/TIMv1/stm32_tim.h"
 639              		.file 16 "ChibiOS_3.0.2/os/rt/include/chsys.h"
 640              		.file 17 "ChibiOS_3.0.2/os/hal/osal/rt/osal.h"
 641              		.file 18 "ChibiOS_3.0.2/os/ext/CMSIS/include/core_cm4.h"
 642              		.section	.debug_info,"",%progbits
 643              	.Ldebug_info0:
 644 0000 22140000 		.4byte	0x1422
 645 0004 0400     		.2byte	0x4
 646 0006 00000000 		.4byte	.Ldebug_abbrev0
 647 000a 04       		.byte	0x4
 648 000b 01       		.uleb128 0x1
 649 000c 57060000 		.4byte	.LASF167
 650 0010 01       		.byte	0x1
 651 0011 32050000 		.4byte	.LASF168
 652 0015 44010000 		.4byte	.LASF169
 653 0019 00000000 		.4byte	.Ldebug_ranges0+0
 654 001d 00000000 		.4byte	0
 655 0021 00000000 		.4byte	.Ldebug_line0
 656 0025 02       		.uleb128 0x2
 657 0026 04       		.byte	0x4
 658 0027 05       		.byte	0x5
 659 0028 696E7400 		.ascii	"int\000"
 660 002c 03       		.uleb128 0x3
 661 002d 04       		.byte	0x4
 662 002e 07       		.byte	0x7
 663 002f 91020000 		.4byte	.LASF0
 664 0033 03       		.uleb128 0x3
 665 0034 01       		.byte	0x1
 666 0035 06       		.byte	0x6
 667 0036 38010000 		.4byte	.LASF1
 668 003a 04       		.uleb128 0x4
 669 003b 47000000 		.4byte	.LASF5
 670 003f 03       		.byte	0x3
 671 0040 1D       		.byte	0x1d
 672 0041 45000000 		.4byte	0x45
 673 0045 03       		.uleb128 0x3
 674 0046 01       		.byte	0x1
 675 0047 08       		.byte	0x8
 676 0048 FF040000 		.4byte	.LASF2
 677 004c 03       		.uleb128 0x3
 678 004d 02       		.byte	0x2
 679 004e 05       		.byte	0x5
 680 004f 00000000 		.4byte	.LASF3
 681 0053 03       		.uleb128 0x3
 682 0054 02       		.byte	0x2
 683 0055 07       		.byte	0x7
 684 0056 27020000 		.4byte	.LASF4
ARM GAS  /tmp/ccgG1Gyw.s 			page 13


 685 005a 04       		.uleb128 0x4
 686 005b 8A030000 		.4byte	.LASF6
 687 005f 03       		.byte	0x3
 688 0060 3F       		.byte	0x3f
 689 0061 65000000 		.4byte	0x65
 690 0065 03       		.uleb128 0x3
 691 0066 04       		.byte	0x4
 692 0067 05       		.byte	0x5
 693 0068 BD010000 		.4byte	.LASF7
 694 006c 04       		.uleb128 0x4
 695 006d A5070000 		.4byte	.LASF8
 696 0071 03       		.byte	0x3
 697 0072 41       		.byte	0x41
 698 0073 77000000 		.4byte	0x77
 699 0077 03       		.uleb128 0x3
 700 0078 04       		.byte	0x4
 701 0079 07       		.byte	0x7
 702 007a 0F060000 		.4byte	.LASF9
 703 007e 03       		.uleb128 0x3
 704 007f 08       		.byte	0x8
 705 0080 05       		.byte	0x5
 706 0081 6E020000 		.4byte	.LASF10
 707 0085 04       		.uleb128 0x4
 708 0086 83040000 		.4byte	.LASF11
 709 008a 03       		.byte	0x3
 710 008b 5B       		.byte	0x5b
 711 008c 90000000 		.4byte	0x90
 712 0090 03       		.uleb128 0x3
 713 0091 08       		.byte	0x8
 714 0092 07       		.byte	0x7
 715 0093 A4000000 		.4byte	.LASF12
 716 0097 04       		.uleb128 0x4
 717 0098 47080000 		.4byte	.LASF13
 718 009c 04       		.byte	0x4
 719 009d 14       		.byte	0x14
 720 009e 3A000000 		.4byte	0x3a
 721 00a2 04       		.uleb128 0x4
 722 00a3 F7040000 		.4byte	.LASF14
 723 00a7 04       		.byte	0x4
 724 00a8 1F       		.byte	0x1f
 725 00a9 5A000000 		.4byte	0x5a
 726 00ad 04       		.uleb128 0x4
 727 00ae EF050000 		.4byte	.LASF15
 728 00b2 04       		.byte	0x4
 729 00b3 20       		.byte	0x20
 730 00b4 6C000000 		.4byte	0x6c
 731 00b8 04       		.uleb128 0x4
 732 00b9 3E000000 		.4byte	.LASF16
 733 00bd 04       		.byte	0x4
 734 00be 26       		.byte	0x26
 735 00bf 85000000 		.4byte	0x85
 736 00c3 05       		.uleb128 0x5
 737 00c4 A2000000 		.4byte	0xa2
 738 00c8 05       		.uleb128 0x5
 739 00c9 AD000000 		.4byte	0xad
 740 00cd 04       		.uleb128 0x4
 741 00ce FF070000 		.4byte	.LASF17
ARM GAS  /tmp/ccgG1Gyw.s 			page 14


 742 00d2 05       		.byte	0x5
 743 00d3 45       		.byte	0x45
 744 00d4 AD000000 		.4byte	0xad
 745 00d8 04       		.uleb128 0x4
 746 00d9 A4080000 		.4byte	.LASF18
 747 00dd 05       		.byte	0x5
 748 00de 48       		.byte	0x48
 749 00df 97000000 		.4byte	0x97
 750 00e3 04       		.uleb128 0x4
 751 00e4 F8010000 		.4byte	.LASF19
 752 00e8 05       		.byte	0x5
 753 00e9 49       		.byte	0x49
 754 00ea 97000000 		.4byte	0x97
 755 00ee 04       		.uleb128 0x4
 756 00ef 0A000000 		.4byte	.LASF20
 757 00f3 05       		.byte	0x5
 758 00f4 4A       		.byte	0x4a
 759 00f5 97000000 		.4byte	0x97
 760 00f9 04       		.uleb128 0x4
 761 00fa A4010000 		.4byte	.LASF21
 762 00fe 05       		.byte	0x5
 763 00ff 4B       		.byte	0x4b
 764 0100 97000000 		.4byte	0x97
 765 0104 04       		.uleb128 0x4
 766 0105 D9040000 		.4byte	.LASF22
 767 0109 05       		.byte	0x5
 768 010a 4C       		.byte	0x4c
 769 010b AD000000 		.4byte	0xad
 770 010f 04       		.uleb128 0x4
 771 0110 02030000 		.4byte	.LASF23
 772 0114 05       		.byte	0x5
 773 0115 4D       		.byte	0x4d
 774 0116 A2000000 		.4byte	0xa2
 775 011a 04       		.uleb128 0x4
 776 011b 59030000 		.4byte	.LASF24
 777 011f 05       		.byte	0x5
 778 0120 4F       		.byte	0x4f
 779 0121 AD000000 		.4byte	0xad
 780 0125 04       		.uleb128 0x4
 781 0126 8B020000 		.4byte	.LASF25
 782 012a 05       		.byte	0x5
 783 012b 51       		.byte	0x51
 784 012c A2000000 		.4byte	0xa2
 785 0130 04       		.uleb128 0x4
 786 0131 87070000 		.4byte	.LASF26
 787 0135 06       		.byte	0x6
 788 0136 33       		.byte	0x33
 789 0137 AD000000 		.4byte	0xad
 790 013b 04       		.uleb128 0x4
 791 013c 38080000 		.4byte	.LASF27
 792 0140 06       		.byte	0x6
 793 0141 3F       		.byte	0x3f
 794 0142 46010000 		.4byte	0x146
 795 0146 06       		.uleb128 0x6
 796 0147 ED020000 		.4byte	.LASF49
 797 014b 48       		.byte	0x48
 798 014c 07       		.byte	0x7
ARM GAS  /tmp/ccgG1Gyw.s 			page 15


 799 014d C2       		.byte	0xc2
 800 014e 4B020000 		.4byte	0x24b
 801 0152 07       		.uleb128 0x7
 802 0153 71050000 		.4byte	.LASF28
 803 0157 07       		.byte	0x7
 804 0158 C3       		.byte	0xc3
 805 0159 56020000 		.4byte	0x256
 806 015d 00       		.byte	0
 807 015e 07       		.uleb128 0x7
 808 015f D2040000 		.4byte	.LASF29
 809 0163 07       		.byte	0x7
 810 0164 C5       		.byte	0xc5
 811 0165 56020000 		.4byte	0x256
 812 0169 04       		.byte	0x4
 813 016a 07       		.uleb128 0x7
 814 016b 0C010000 		.4byte	.LASF30
 815 016f 07       		.byte	0x7
 816 0170 C7       		.byte	0xc7
 817 0171 04010000 		.4byte	0x104
 818 0175 08       		.byte	0x8
 819 0176 07       		.uleb128 0x7
 820 0177 E8080000 		.4byte	.LASF31
 821 017b 07       		.byte	0x7
 822 017c C8       		.byte	0xc8
 823 017d A6040000 		.4byte	0x4a6
 824 0181 0C       		.byte	0xc
 825 0182 07       		.uleb128 0x7
 826 0183 17020000 		.4byte	.LASF32
 827 0187 07       		.byte	0x7
 828 0188 CA       		.byte	0xca
 829 0189 56020000 		.4byte	0x256
 830 018d 10       		.byte	0x10
 831 018e 07       		.uleb128 0x7
 832 018f 38040000 		.4byte	.LASF33
 833 0193 07       		.byte	0x7
 834 0194 CB       		.byte	0xcb
 835 0195 56020000 		.4byte	0x256
 836 0199 14       		.byte	0x14
 837 019a 07       		.uleb128 0x7
 838 019b 92080000 		.4byte	.LASF34
 839 019f 07       		.byte	0x7
 840 01a0 D2       		.byte	0xd2
 841 01a1 EB060000 		.4byte	0x6eb
 842 01a5 18       		.byte	0x18
 843 01a6 07       		.uleb128 0x7
 844 01a7 51050000 		.4byte	.LASF35
 845 01ab 07       		.byte	0x7
 846 01ac DD       		.byte	0xdd
 847 01ad E3000000 		.4byte	0xe3
 848 01b1 1C       		.byte	0x1c
 849 01b2 07       		.uleb128 0x7
 850 01b3 84050000 		.4byte	.LASF36
 851 01b7 07       		.byte	0x7
 852 01b8 E1       		.byte	0xe1
 853 01b9 D8000000 		.4byte	0xd8
 854 01bd 1D       		.byte	0x1d
 855 01be 07       		.uleb128 0x7
ARM GAS  /tmp/ccgG1Gyw.s 			page 16


 856 01bf 31080000 		.4byte	.LASF37
 857 01c3 07       		.byte	0x7
 858 01c4 E6       		.byte	0xe6
 859 01c5 EE000000 		.4byte	0xee
 860 01c9 1E       		.byte	0x1e
 861 01ca 07       		.uleb128 0x7
 862 01cb 59050000 		.4byte	.LASF38
 863 01cf 07       		.byte	0x7
 864 01d0 EC       		.byte	0xec
 865 01d1 F9000000 		.4byte	0xf9
 866 01d5 1F       		.byte	0x1f
 867 01d6 07       		.uleb128 0x7
 868 01d7 A6020000 		.4byte	.LASF39
 869 01db 07       		.byte	0x7
 870 01dc F3       		.byte	0xf3
 871 01dd FD060000 		.4byte	0x6fd
 872 01e1 20       		.byte	0x20
 873 01e2 08       		.uleb128 0x8
 874 01e3 705F7500 		.ascii	"p_u\000"
 875 01e7 07       		.byte	0x7
 876 01e8 3101     		.2byte	0x131
 877 01ea 26060000 		.4byte	0x626
 878 01ee 24       		.byte	0x24
 879 01ef 09       		.uleb128 0x9
 880 01f0 AC030000 		.4byte	.LASF40
 881 01f4 07       		.byte	0x7
 882 01f5 3601     		.2byte	0x136
 883 01f7 5C020000 		.4byte	0x25c
 884 01fb 28       		.byte	0x28
 885 01fc 09       		.uleb128 0x9
 886 01fd BD020000 		.4byte	.LASF41
 887 0201 07       		.byte	0x7
 888 0202 3C01     		.2byte	0x13c
 889 0204 80020000 		.4byte	0x280
 890 0208 2C       		.byte	0x2c
 891 0209 09       		.uleb128 0x9
 892 020a B8080000 		.4byte	.LASF42
 893 020e 07       		.byte	0x7
 894 020f 4001     		.2byte	0x140
 895 0211 0F010000 		.4byte	0x10f
 896 0215 34       		.byte	0x34
 897 0216 09       		.uleb128 0x9
 898 0217 1E040000 		.4byte	.LASF43
 899 021b 07       		.byte	0x7
 900 021c 4601     		.2byte	0x146
 901 021e 1A010000 		.4byte	0x11a
 902 0222 38       		.byte	0x38
 903 0223 09       		.uleb128 0x9
 904 0224 28050000 		.4byte	.LASF44
 905 0228 07       		.byte	0x7
 906 0229 4D01     		.2byte	0x14d
 907 022b E5060000 		.4byte	0x6e5
 908 022f 3C       		.byte	0x3c
 909 0230 09       		.uleb128 0x9
 910 0231 91070000 		.4byte	.LASF45
 911 0235 07       		.byte	0x7
 912 0236 5101     		.2byte	0x151
ARM GAS  /tmp/ccgG1Gyw.s 			page 17


 913 0238 04010000 		.4byte	0x104
 914 023c 40       		.byte	0x40
 915 023d 09       		.uleb128 0x9
 916 023e 42020000 		.4byte	.LASF46
 917 0242 07       		.byte	0x7
 918 0243 5801     		.2byte	0x158
 919 0245 33030000 		.4byte	0x333
 920 0249 44       		.byte	0x44
 921 024a 00       		.byte	0
 922 024b 04       		.uleb128 0x4
 923 024c C7030000 		.4byte	.LASF47
 924 0250 06       		.byte	0x6
 925 0251 44       		.byte	0x44
 926 0252 56020000 		.4byte	0x256
 927 0256 0A       		.uleb128 0xa
 928 0257 04       		.byte	0x4
 929 0258 3B010000 		.4byte	0x13b
 930 025c 04       		.uleb128 0x4
 931 025d 29040000 		.4byte	.LASF48
 932 0261 06       		.byte	0x6
 933 0262 49       		.byte	0x49
 934 0263 67020000 		.4byte	0x267
 935 0267 06       		.uleb128 0x6
 936 0268 08030000 		.4byte	.LASF50
 937 026c 04       		.byte	0x4
 938 026d 07       		.byte	0x7
 939 026e B0       		.byte	0xb0
 940 026f 80020000 		.4byte	0x280
 941 0273 07       		.uleb128 0x7
 942 0274 71050000 		.4byte	.LASF28
 943 0278 07       		.byte	0x7
 944 0279 B1       		.byte	0xb1
 945 027a 56020000 		.4byte	0x256
 946 027e 00       		.byte	0
 947 027f 00       		.byte	0
 948 0280 04       		.uleb128 0x4
 949 0281 18080000 		.4byte	.LASF51
 950 0285 06       		.byte	0x6
 951 0286 50       		.byte	0x50
 952 0287 8B020000 		.4byte	0x28b
 953 028b 06       		.uleb128 0x6
 954 028c 5D000000 		.4byte	.LASF52
 955 0290 08       		.byte	0x8
 956 0291 07       		.byte	0x7
 957 0292 B7       		.byte	0xb7
 958 0293 B0020000 		.4byte	0x2b0
 959 0297 07       		.uleb128 0x7
 960 0298 71050000 		.4byte	.LASF28
 961 029c 07       		.byte	0x7
 962 029d B8       		.byte	0xb8
 963 029e 56020000 		.4byte	0x256
 964 02a2 00       		.byte	0
 965 02a3 07       		.uleb128 0x7
 966 02a4 D2040000 		.4byte	.LASF29
 967 02a8 07       		.byte	0x7
 968 02a9 B9       		.byte	0xb9
 969 02aa 56020000 		.4byte	0x256
ARM GAS  /tmp/ccgG1Gyw.s 			page 18


 970 02ae 04       		.byte	0x4
 971 02af 00       		.byte	0
 972 02b0 04       		.uleb128 0x4
 973 02b1 1F000000 		.4byte	.LASF53
 974 02b5 06       		.byte	0x6
 975 02b6 57       		.byte	0x57
 976 02b7 BB020000 		.4byte	0x2bb
 977 02bb 0B       		.uleb128 0xb
 978 02bc 4B030000 		.4byte	.LASF54
 979 02c0 1C       		.byte	0x1c
 980 02c1 07       		.byte	0x7
 981 02c2 9001     		.2byte	0x190
 982 02c4 17030000 		.4byte	0x317
 983 02c8 09       		.uleb128 0x9
 984 02c9 FF050000 		.4byte	.LASF55
 985 02cd 07       		.byte	0x7
 986 02ce 9101     		.2byte	0x191
 987 02d0 80020000 		.4byte	0x280
 988 02d4 00       		.byte	0
 989 02d5 09       		.uleb128 0x9
 990 02d6 63050000 		.4byte	.LASF56
 991 02da 07       		.byte	0x7
 992 02db 9201     		.2byte	0x192
 993 02dd 04010000 		.4byte	0x104
 994 02e1 08       		.byte	0x8
 995 02e2 09       		.uleb128 0x9
 996 02e3 4D040000 		.4byte	.LASF57
 997 02e7 07       		.byte	0x7
 998 02e8 9401     		.2byte	0x194
 999 02ea A6040000 		.4byte	0x4a6
 1000 02ee 0C       		.byte	0xc
 1001 02ef 09       		.uleb128 0x9
 1002 02f0 3A020000 		.4byte	.LASF58
 1003 02f4 07       		.byte	0x7
 1004 02f5 9701     		.2byte	0x197
 1005 02f7 56020000 		.4byte	0x256
 1006 02fb 10       		.byte	0x10
 1007 02fc 09       		.uleb128 0x9
 1008 02fd 6E040000 		.4byte	.LASF59
 1009 0301 07       		.byte	0x7
 1010 0302 9801     		.2byte	0x198
 1011 0304 56020000 		.4byte	0x256
 1012 0308 14       		.byte	0x14
 1013 0309 09       		.uleb128 0x9
 1014 030a 64040000 		.4byte	.LASF60
 1015 030e 07       		.byte	0x7
 1016 030f 9B01     		.2byte	0x19b
 1017 0311 56020000 		.4byte	0x256
 1018 0315 18       		.byte	0x18
 1019 0316 00       		.byte	0
 1020 0317 04       		.uleb128 0x4
 1021 0318 9C070000 		.4byte	.LASF61
 1022 031c 06       		.byte	0x6
 1023 031d 5C       		.byte	0x5c
 1024 031e 22030000 		.4byte	0x322
 1025 0322 0A       		.uleb128 0xa
 1026 0323 04       		.byte	0x4
ARM GAS  /tmp/ccgG1Gyw.s 			page 19


 1027 0324 28030000 		.4byte	0x328
 1028 0328 0C       		.uleb128 0xc
 1029 0329 33030000 		.4byte	0x333
 1030 032d 0D       		.uleb128 0xd
 1031 032e 33030000 		.4byte	0x333
 1032 0332 00       		.byte	0
 1033 0333 0E       		.uleb128 0xe
 1034 0334 04       		.byte	0x4
 1035 0335 04       		.uleb128 0x4
 1036 0336 C2040000 		.4byte	.LASF62
 1037 033a 06       		.byte	0x6
 1038 033b 61       		.byte	0x61
 1039 033c 40030000 		.4byte	0x340
 1040 0340 0B       		.uleb128 0xb
 1041 0341 BF050000 		.4byte	.LASF63
 1042 0345 14       		.byte	0x14
 1043 0346 07       		.byte	0x7
 1044 0347 6B01     		.2byte	0x16b
 1045 0349 8F030000 		.4byte	0x38f
 1046 034d 09       		.uleb128 0x9
 1047 034e 9E020000 		.4byte	.LASF64
 1048 0352 07       		.byte	0x7
 1049 0353 6C01     		.2byte	0x16c
 1050 0355 02070000 		.4byte	0x702
 1051 0359 00       		.byte	0
 1052 035a 09       		.uleb128 0x9
 1053 035b 53020000 		.4byte	.LASF65
 1054 035f 07       		.byte	0x7
 1055 0360 6D01     		.2byte	0x16d
 1056 0362 02070000 		.4byte	0x702
 1057 0366 04       		.byte	0x4
 1058 0367 09       		.uleb128 0x9
 1059 0368 B4020000 		.4byte	.LASF66
 1060 036c 07       		.byte	0x7
 1061 036d 6E01     		.2byte	0x16e
 1062 036f 30010000 		.4byte	0x130
 1063 0373 08       		.byte	0x8
 1064 0374 09       		.uleb128 0x9
 1065 0375 EE080000 		.4byte	.LASF67
 1066 0379 07       		.byte	0x7
 1067 037a 6F01     		.2byte	0x16f
 1068 037c 17030000 		.4byte	0x317
 1069 0380 0C       		.byte	0xc
 1070 0381 09       		.uleb128 0x9
 1071 0382 07080000 		.4byte	.LASF68
 1072 0386 07       		.byte	0x7
 1073 0387 7101     		.2byte	0x171
 1074 0389 33030000 		.4byte	0x333
 1075 038d 10       		.byte	0x10
 1076 038e 00       		.byte	0
 1077 038f 04       		.uleb128 0x4
 1078 0390 CF000000 		.4byte	.LASF69
 1079 0394 06       		.byte	0x6
 1080 0395 66       		.byte	0x66
 1081 0396 9A030000 		.4byte	0x39a
 1082 039a 0B       		.uleb128 0xb
 1083 039b DA030000 		.4byte	.LASF70
ARM GAS  /tmp/ccgG1Gyw.s 			page 20


 1084 039f 10       		.byte	0x10
 1085 03a0 07       		.byte	0x7
 1086 03a1 7B01     		.2byte	0x17b
 1087 03a3 DC030000 		.4byte	0x3dc
 1088 03a7 09       		.uleb128 0x9
 1089 03a8 9E020000 		.4byte	.LASF64
 1090 03ac 07       		.byte	0x7
 1091 03ad 7C01     		.2byte	0x17c
 1092 03af 02070000 		.4byte	0x702
 1093 03b3 00       		.byte	0
 1094 03b4 09       		.uleb128 0x9
 1095 03b5 53020000 		.4byte	.LASF65
 1096 03b9 07       		.byte	0x7
 1097 03ba 7E01     		.2byte	0x17e
 1098 03bc 02070000 		.4byte	0x702
 1099 03c0 04       		.byte	0x4
 1100 03c1 09       		.uleb128 0x9
 1101 03c2 B4020000 		.4byte	.LASF66
 1102 03c6 07       		.byte	0x7
 1103 03c7 8001     		.2byte	0x180
 1104 03c9 30010000 		.4byte	0x130
 1105 03cd 08       		.byte	0x8
 1106 03ce 09       		.uleb128 0x9
 1107 03cf 99080000 		.4byte	.LASF71
 1108 03d3 07       		.byte	0x7
 1109 03d4 8201     		.2byte	0x182
 1110 03d6 FD060000 		.4byte	0x6fd
 1111 03da 0C       		.byte	0xc
 1112 03db 00       		.byte	0
 1113 03dc 04       		.uleb128 0x4
 1114 03dd 6E000000 		.4byte	.LASF72
 1115 03e1 06       		.byte	0x6
 1116 03e2 6B       		.byte	0x6b
 1117 03e3 E7030000 		.4byte	0x3e7
 1118 03e7 0B       		.uleb128 0xb
 1119 03e8 E1040000 		.4byte	.LASF73
 1120 03ec 04       		.byte	0x4
 1121 03ed 07       		.byte	0x7
 1122 03ee A201     		.2byte	0x1a2
 1123 03f0 02040000 		.4byte	0x402
 1124 03f4 09       		.uleb128 0x9
 1125 03f5 D5070000 		.4byte	.LASF74
 1126 03f9 07       		.byte	0x7
 1127 03fa AA01     		.2byte	0x1aa
 1128 03fc 08070000 		.4byte	0x708
 1129 0400 00       		.byte	0
 1130 0401 00       		.byte	0
 1131 0402 04       		.uleb128 0x4
 1132 0403 2A030000 		.4byte	.LASF75
 1133 0407 06       		.byte	0x6
 1134 0408 70       		.byte	0x70
 1135 0409 0D040000 		.4byte	0x40d
 1136 040d 0F       		.uleb128 0xf
 1137 040e 9F050000 		.4byte	.LASF76
 1138 0412 5802     		.2byte	0x258
 1139 0414 07       		.byte	0x7
 1140 0415 C201     		.2byte	0x1c2
ARM GAS  /tmp/ccgG1Gyw.s 			page 21


 1141 0417 69040000 		.4byte	0x469
 1142 041b 09       		.uleb128 0x9
 1143 041c 41080000 		.4byte	.LASF77
 1144 0420 07       		.byte	0x7
 1145 0421 C601     		.2byte	0x1c6
 1146 0423 B0020000 		.4byte	0x2b0
 1147 0427 00       		.byte	0
 1148 0428 09       		.uleb128 0x9
 1149 0429 5B020000 		.4byte	.LASF78
 1150 042d 07       		.byte	0x7
 1151 042e CA01     		.2byte	0x1ca
 1152 0430 8F030000 		.4byte	0x38f
 1153 0434 1C       		.byte	0x1c
 1154 0435 08       		.uleb128 0x8
 1155 0436 64626700 		.ascii	"dbg\000"
 1156 043a 07       		.byte	0x7
 1157 043b CE01     		.2byte	0x1ce
 1158 043d DC030000 		.4byte	0x3dc
 1159 0441 2C       		.byte	0x2c
 1160 0442 09       		.uleb128 0x9
 1161 0443 C4000000 		.4byte	.LASF79
 1162 0447 07       		.byte	0x7
 1163 0448 D201     		.2byte	0x1d2
 1164 044a 3B010000 		.4byte	0x13b
 1165 044e 30       		.byte	0x30
 1166 044f 08       		.uleb128 0x8
 1167 0450 746D00   		.ascii	"tm\000"
 1168 0453 07       		.byte	0x7
 1169 0454 D701     		.2byte	0x1d7
 1170 0456 1B060000 		.4byte	0x61b
 1171 045a 78       		.byte	0x78
 1172 045b 09       		.uleb128 0x9
 1173 045c 7C020000 		.4byte	.LASF80
 1174 0460 07       		.byte	0x7
 1175 0461 E301     		.2byte	0x1e3
 1176 0463 0D070000 		.4byte	0x70d
 1177 0467 80       		.byte	0x80
 1178 0468 00       		.byte	0
 1179 0469 03       		.uleb128 0x3
 1180 046a 04       		.byte	0x4
 1181 046b 07       		.byte	0x7
 1182 046c BE030000 		.4byte	.LASF81
 1183 0470 10       		.uleb128 0x10
 1184 0471 AD000000 		.4byte	0xad
 1185 0475 80040000 		.4byte	0x480
 1186 0479 11       		.uleb128 0x11
 1187 047a 69040000 		.4byte	0x469
 1188 047e 01       		.byte	0x1
 1189 047f 00       		.byte	0
 1190 0480 10       		.uleb128 0x10
 1191 0481 AD000000 		.4byte	0xad
 1192 0485 90040000 		.4byte	0x490
 1193 0489 11       		.uleb128 0x11
 1194 048a 69040000 		.4byte	0x469
 1195 048e 03       		.byte	0x3
 1196 048f 00       		.byte	0
 1197 0490 04       		.uleb128 0x4
ARM GAS  /tmp/ccgG1Gyw.s 			page 22


 1198 0491 4A020000 		.4byte	.LASF82
 1199 0495 08       		.byte	0x8
 1200 0496 65       		.byte	0x65
 1201 0497 33030000 		.4byte	0x333
 1202 049b 04       		.uleb128 0x4
 1203 049c 99030000 		.4byte	.LASF83
 1204 04a0 08       		.byte	0x8
 1205 04a1 6D       		.byte	0x6d
 1206 04a2 B8000000 		.4byte	0xb8
 1207 04a6 06       		.uleb128 0x6
 1208 04a7 E6070000 		.4byte	.LASF84
 1209 04ab 04       		.byte	0x4
 1210 04ac 08       		.byte	0x8
 1211 04ad 89       		.byte	0x89
 1212 04ae BF040000 		.4byte	0x4bf
 1213 04b2 12       		.uleb128 0x12
 1214 04b3 72313300 		.ascii	"r13\000"
 1215 04b7 08       		.byte	0x8
 1216 04b8 8A       		.byte	0x8a
 1217 04b9 00060000 		.4byte	0x600
 1218 04bd 00       		.byte	0
 1219 04be 00       		.byte	0
 1220 04bf 06       		.uleb128 0x6
 1221 04c0 51000000 		.4byte	.LASF85
 1222 04c4 64       		.byte	0x64
 1223 04c5 09       		.byte	0x9
 1224 04c6 F4       		.byte	0xf4
 1225 04c7 00060000 		.4byte	0x600
 1226 04cb 12       		.uleb128 0x12
 1227 04cc 73313600 		.ascii	"s16\000"
 1228 04d0 09       		.byte	0x9
 1229 04d1 F6       		.byte	0xf6
 1230 04d2 90040000 		.4byte	0x490
 1231 04d6 00       		.byte	0
 1232 04d7 12       		.uleb128 0x12
 1233 04d8 73313700 		.ascii	"s17\000"
 1234 04dc 09       		.byte	0x9
 1235 04dd F7       		.byte	0xf7
 1236 04de 90040000 		.4byte	0x490
 1237 04e2 04       		.byte	0x4
 1238 04e3 12       		.uleb128 0x12
 1239 04e4 73313800 		.ascii	"s18\000"
 1240 04e8 09       		.byte	0x9
 1241 04e9 F8       		.byte	0xf8
 1242 04ea 90040000 		.4byte	0x490
 1243 04ee 08       		.byte	0x8
 1244 04ef 12       		.uleb128 0x12
 1245 04f0 73313900 		.ascii	"s19\000"
 1246 04f4 09       		.byte	0x9
 1247 04f5 F9       		.byte	0xf9
 1248 04f6 90040000 		.4byte	0x490
 1249 04fa 0C       		.byte	0xc
 1250 04fb 12       		.uleb128 0x12
 1251 04fc 73323000 		.ascii	"s20\000"
 1252 0500 09       		.byte	0x9
 1253 0501 FA       		.byte	0xfa
 1254 0502 90040000 		.4byte	0x490
ARM GAS  /tmp/ccgG1Gyw.s 			page 23


 1255 0506 10       		.byte	0x10
 1256 0507 12       		.uleb128 0x12
 1257 0508 73323100 		.ascii	"s21\000"
 1258 050c 09       		.byte	0x9
 1259 050d FB       		.byte	0xfb
 1260 050e 90040000 		.4byte	0x490
 1261 0512 14       		.byte	0x14
 1262 0513 12       		.uleb128 0x12
 1263 0514 73323200 		.ascii	"s22\000"
 1264 0518 09       		.byte	0x9
 1265 0519 FC       		.byte	0xfc
 1266 051a 90040000 		.4byte	0x490
 1267 051e 18       		.byte	0x18
 1268 051f 12       		.uleb128 0x12
 1269 0520 73323300 		.ascii	"s23\000"
 1270 0524 09       		.byte	0x9
 1271 0525 FD       		.byte	0xfd
 1272 0526 90040000 		.4byte	0x490
 1273 052a 1C       		.byte	0x1c
 1274 052b 12       		.uleb128 0x12
 1275 052c 73323400 		.ascii	"s24\000"
 1276 0530 09       		.byte	0x9
 1277 0531 FE       		.byte	0xfe
 1278 0532 90040000 		.4byte	0x490
 1279 0536 20       		.byte	0x20
 1280 0537 12       		.uleb128 0x12
 1281 0538 73323500 		.ascii	"s25\000"
 1282 053c 09       		.byte	0x9
 1283 053d FF       		.byte	0xff
 1284 053e 90040000 		.4byte	0x490
 1285 0542 24       		.byte	0x24
 1286 0543 08       		.uleb128 0x8
 1287 0544 73323600 		.ascii	"s26\000"
 1288 0548 09       		.byte	0x9
 1289 0549 0001     		.2byte	0x100
 1290 054b 90040000 		.4byte	0x490
 1291 054f 28       		.byte	0x28
 1292 0550 08       		.uleb128 0x8
 1293 0551 73323700 		.ascii	"s27\000"
 1294 0555 09       		.byte	0x9
 1295 0556 0101     		.2byte	0x101
 1296 0558 90040000 		.4byte	0x490
 1297 055c 2C       		.byte	0x2c
 1298 055d 08       		.uleb128 0x8
 1299 055e 73323800 		.ascii	"s28\000"
 1300 0562 09       		.byte	0x9
 1301 0563 0201     		.2byte	0x102
 1302 0565 90040000 		.4byte	0x490
 1303 0569 30       		.byte	0x30
 1304 056a 08       		.uleb128 0x8
 1305 056b 73323900 		.ascii	"s29\000"
 1306 056f 09       		.byte	0x9
 1307 0570 0301     		.2byte	0x103
 1308 0572 90040000 		.4byte	0x490
 1309 0576 34       		.byte	0x34
 1310 0577 08       		.uleb128 0x8
 1311 0578 73333000 		.ascii	"s30\000"
ARM GAS  /tmp/ccgG1Gyw.s 			page 24


 1312 057c 09       		.byte	0x9
 1313 057d 0401     		.2byte	0x104
 1314 057f 90040000 		.4byte	0x490
 1315 0583 38       		.byte	0x38
 1316 0584 08       		.uleb128 0x8
 1317 0585 73333100 		.ascii	"s31\000"
 1318 0589 09       		.byte	0x9
 1319 058a 0501     		.2byte	0x105
 1320 058c 90040000 		.4byte	0x490
 1321 0590 3C       		.byte	0x3c
 1322 0591 08       		.uleb128 0x8
 1323 0592 723400   		.ascii	"r4\000"
 1324 0595 09       		.byte	0x9
 1325 0596 0701     		.2byte	0x107
 1326 0598 90040000 		.4byte	0x490
 1327 059c 40       		.byte	0x40
 1328 059d 08       		.uleb128 0x8
 1329 059e 723500   		.ascii	"r5\000"
 1330 05a1 09       		.byte	0x9
 1331 05a2 0801     		.2byte	0x108
 1332 05a4 90040000 		.4byte	0x490
 1333 05a8 44       		.byte	0x44
 1334 05a9 08       		.uleb128 0x8
 1335 05aa 723600   		.ascii	"r6\000"
 1336 05ad 09       		.byte	0x9
 1337 05ae 0901     		.2byte	0x109
 1338 05b0 90040000 		.4byte	0x490
 1339 05b4 48       		.byte	0x48
 1340 05b5 08       		.uleb128 0x8
 1341 05b6 723700   		.ascii	"r7\000"
 1342 05b9 09       		.byte	0x9
 1343 05ba 0A01     		.2byte	0x10a
 1344 05bc 90040000 		.4byte	0x490
 1345 05c0 4C       		.byte	0x4c
 1346 05c1 08       		.uleb128 0x8
 1347 05c2 723800   		.ascii	"r8\000"
 1348 05c5 09       		.byte	0x9
 1349 05c6 0B01     		.2byte	0x10b
 1350 05c8 90040000 		.4byte	0x490
 1351 05cc 50       		.byte	0x50
 1352 05cd 08       		.uleb128 0x8
 1353 05ce 723900   		.ascii	"r9\000"
 1354 05d1 09       		.byte	0x9
 1355 05d2 0C01     		.2byte	0x10c
 1356 05d4 90040000 		.4byte	0x490
 1357 05d8 54       		.byte	0x54
 1358 05d9 08       		.uleb128 0x8
 1359 05da 72313000 		.ascii	"r10\000"
 1360 05de 09       		.byte	0x9
 1361 05df 0D01     		.2byte	0x10d
 1362 05e1 90040000 		.4byte	0x490
 1363 05e5 58       		.byte	0x58
 1364 05e6 08       		.uleb128 0x8
 1365 05e7 72313100 		.ascii	"r11\000"
 1366 05eb 09       		.byte	0x9
 1367 05ec 0E01     		.2byte	0x10e
 1368 05ee 90040000 		.4byte	0x490
ARM GAS  /tmp/ccgG1Gyw.s 			page 25


 1369 05f2 5C       		.byte	0x5c
 1370 05f3 08       		.uleb128 0x8
 1371 05f4 6C7200   		.ascii	"lr\000"
 1372 05f7 09       		.byte	0x9
 1373 05f8 0F01     		.2byte	0x10f
 1374 05fa 90040000 		.4byte	0x490
 1375 05fe 60       		.byte	0x60
 1376 05ff 00       		.byte	0
 1377 0600 0A       		.uleb128 0xa
 1378 0601 04       		.byte	0x4
 1379 0602 BF040000 		.4byte	0x4bf
 1380 0606 13       		.uleb128 0x13
 1381 0607 04       		.byte	0x4
 1382 0608 0A       		.byte	0xa
 1383 0609 38       		.byte	0x38
 1384 060a 1B060000 		.4byte	0x61b
 1385 060e 07       		.uleb128 0x7
 1386 060f DF070000 		.4byte	.LASF86
 1387 0613 0A       		.byte	0xa
 1388 0614 3C       		.byte	0x3c
 1389 0615 CD000000 		.4byte	0xcd
 1390 0619 00       		.byte	0
 1391 061a 00       		.byte	0
 1392 061b 04       		.uleb128 0x4
 1393 061c 53040000 		.4byte	.LASF87
 1394 0620 0A       		.byte	0xa
 1395 0621 3D       		.byte	0x3d
 1396 0622 06060000 		.4byte	0x606
 1397 0626 14       		.uleb128 0x14
 1398 0627 04       		.byte	0x4
 1399 0628 07       		.byte	0x7
 1400 0629 FA       		.byte	0xfa
 1401 062a 83060000 		.4byte	0x683
 1402 062e 15       		.uleb128 0x15
 1403 062f 37000000 		.4byte	.LASF88
 1404 0633 07       		.byte	0x7
 1405 0634 0101     		.2byte	0x101
 1406 0636 0F010000 		.4byte	0x10f
 1407 063a 15       		.uleb128 0x15
 1408 063b BB000000 		.4byte	.LASF89
 1409 063f 07       		.byte	0x7
 1410 0640 0801     		.2byte	0x108
 1411 0642 0F010000 		.4byte	0x10f
 1412 0646 15       		.uleb128 0x15
 1413 0647 8B080000 		.4byte	.LASF90
 1414 064b 07       		.byte	0x7
 1415 064c 0F01     		.2byte	0x10f
 1416 064e 33030000 		.4byte	0x333
 1417 0652 15       		.uleb128 0x15
 1418 0653 31000000 		.4byte	.LASF91
 1419 0657 07       		.byte	0x7
 1420 0658 1601     		.2byte	0x116
 1421 065a 83060000 		.4byte	0x683
 1422 065e 15       		.uleb128 0x15
 1423 065f AD020000 		.4byte	.LASF92
 1424 0663 07       		.byte	0x7
 1425 0664 1E01     		.2byte	0x11e
ARM GAS  /tmp/ccgG1Gyw.s 			page 26


 1426 0666 AE060000 		.4byte	0x6ae
 1427 066a 15       		.uleb128 0x15
 1428 066b F8050000 		.4byte	.LASF93
 1429 066f 07       		.byte	0x7
 1430 0670 2701     		.2byte	0x127
 1431 0672 E5060000 		.4byte	0x6e5
 1432 0676 15       		.uleb128 0x15
 1433 0677 6A050000 		.4byte	.LASF94
 1434 067b 07       		.byte	0x7
 1435 067c 2F01     		.2byte	0x12f
 1436 067e 1A010000 		.4byte	0x11a
 1437 0682 00       		.byte	0
 1438 0683 0A       		.uleb128 0xa
 1439 0684 04       		.byte	0x4
 1440 0685 4B020000 		.4byte	0x24b
 1441 0689 06       		.uleb128 0x6
 1442 068a D0050000 		.4byte	.LASF95
 1443 068e 0C       		.byte	0xc
 1444 068f 0B       		.byte	0xb
 1445 0690 34       		.byte	0x34
 1446 0691 AE060000 		.4byte	0x6ae
 1447 0695 07       		.uleb128 0x7
 1448 0696 1F020000 		.4byte	.LASF96
 1449 069a 0B       		.byte	0xb
 1450 069b 35       		.byte	0x35
 1451 069c 80020000 		.4byte	0x280
 1452 06a0 00       		.byte	0
 1453 06a1 07       		.uleb128 0x7
 1454 06a2 22050000 		.4byte	.LASF97
 1455 06a6 0B       		.byte	0xb
 1456 06a7 37       		.byte	0x37
 1457 06a8 25010000 		.4byte	0x125
 1458 06ac 08       		.byte	0x8
 1459 06ad 00       		.byte	0
 1460 06ae 0A       		.uleb128 0xa
 1461 06af 04       		.byte	0x4
 1462 06b0 89060000 		.4byte	0x689
 1463 06b4 06       		.uleb128 0x6
 1464 06b5 28080000 		.4byte	.LASF98
 1465 06b9 10       		.byte	0x10
 1466 06ba 0C       		.byte	0xc
 1467 06bb 39       		.byte	0x39
 1468 06bc E5060000 		.4byte	0x6e5
 1469 06c0 07       		.uleb128 0x7
 1470 06c1 0D050000 		.4byte	.LASF99
 1471 06c5 0C       		.byte	0xc
 1472 06c6 3A       		.byte	0x3a
 1473 06c7 80020000 		.4byte	0x280
 1474 06cb 00       		.byte	0
 1475 06cc 07       		.uleb128 0x7
 1476 06cd CF080000 		.4byte	.LASF100
 1477 06d1 0C       		.byte	0xc
 1478 06d2 3C       		.byte	0x3c
 1479 06d3 56020000 		.4byte	0x256
 1480 06d7 08       		.byte	0x8
 1481 06d8 07       		.uleb128 0x7
 1482 06d9 80070000 		.4byte	.LASF101
ARM GAS  /tmp/ccgG1Gyw.s 			page 27


 1483 06dd 0C       		.byte	0xc
 1484 06de 3E       		.byte	0x3e
 1485 06df 28070000 		.4byte	0x728
 1486 06e3 0C       		.byte	0xc
 1487 06e4 00       		.byte	0
 1488 06e5 0A       		.uleb128 0xa
 1489 06e6 04       		.byte	0x4
 1490 06e7 B4060000 		.4byte	0x6b4
 1491 06eb 0A       		.uleb128 0xa
 1492 06ec 04       		.byte	0x4
 1493 06ed F1060000 		.4byte	0x6f1
 1494 06f1 16       		.uleb128 0x16
 1495 06f2 F6060000 		.4byte	0x6f6
 1496 06f6 03       		.uleb128 0x3
 1497 06f7 01       		.byte	0x1
 1498 06f8 08       		.byte	0x8
 1499 06f9 41060000 		.4byte	.LASF102
 1500 06fd 05       		.uleb128 0x5
 1501 06fe 30010000 		.4byte	0x130
 1502 0702 0A       		.uleb128 0xa
 1503 0703 04       		.byte	0x4
 1504 0704 35030000 		.4byte	0x335
 1505 0708 05       		.uleb128 0x5
 1506 0709 EB060000 		.4byte	0x6eb
 1507 070d 10       		.uleb128 0x10
 1508 070e 9B040000 		.4byte	0x49b
 1509 0712 1D070000 		.4byte	0x71d
 1510 0716 11       		.uleb128 0x11
 1511 0717 69040000 		.4byte	0x469
 1512 071b 3A       		.byte	0x3a
 1513 071c 00       		.byte	0
 1514 071d 04       		.uleb128 0x4
 1515 071e A4030000 		.4byte	.LASF103
 1516 0722 0C       		.byte	0xc
 1517 0723 34       		.byte	0x34
 1518 0724 B4060000 		.4byte	0x6b4
 1519 0728 0A       		.uleb128 0xa
 1520 0729 04       		.byte	0x4
 1521 072a 1D070000 		.4byte	0x71d
 1522 072e 03       		.uleb128 0x3
 1523 072f 01       		.byte	0x1
 1524 0730 02       		.byte	0x2
 1525 0731 F1040000 		.4byte	.LASF104
 1526 0735 17       		.uleb128 0x17
 1527 0736 01       		.byte	0x1
 1528 0737 0D       		.byte	0xd
 1529 0738 4A       		.byte	0x4a
 1530 0739 50070000 		.4byte	0x750
 1531 073d 18       		.uleb128 0x18
 1532 073e C4080000 		.4byte	.LASF105
 1533 0742 00       		.sleb128 0
 1534 0743 18       		.uleb128 0x18
 1535 0744 38060000 		.4byte	.LASF106
 1536 0748 01       		.sleb128 1
 1537 0749 18       		.uleb128 0x18
 1538 074a 13010000 		.4byte	.LASF107
 1539 074e 02       		.sleb128 2
ARM GAS  /tmp/ccgG1Gyw.s 			page 28


 1540 074f 00       		.byte	0
 1541 0750 04       		.uleb128 0x4
 1542 0751 77080000 		.4byte	.LASF108
 1543 0755 0D       		.byte	0xd
 1544 0756 4E       		.byte	0x4e
 1545 0757 35070000 		.4byte	0x735
 1546 075b 04       		.uleb128 0x4
 1547 075c 6D080000 		.4byte	.LASF109
 1548 0760 0D       		.byte	0xd
 1549 0761 53       		.byte	0x53
 1550 0762 66070000 		.4byte	0x766
 1551 0766 0B       		.uleb128 0xb
 1552 0767 6D080000 		.4byte	.LASF109
 1553 076b 1C       		.byte	0x1c
 1554 076c 0E       		.byte	0xe
 1555 076d 7901     		.2byte	0x179
 1556 076f CF070000 		.4byte	0x7cf
 1557 0773 09       		.uleb128 0x9
 1558 0774 AE010000 		.4byte	.LASF110
 1559 0778 0E       		.byte	0xe
 1560 0779 7D01     		.2byte	0x17d
 1561 077b 50070000 		.4byte	0x750
 1562 077f 00       		.byte	0
 1563 0780 09       		.uleb128 0x9
 1564 0781 4B060000 		.4byte	.LASF111
 1565 0785 0E       		.byte	0xe
 1566 0786 8101     		.2byte	0x181
 1567 0788 E7090000 		.4byte	0x9e7
 1568 078c 04       		.byte	0x4
 1569 078d 09       		.uleb128 0x9
 1570 078e CE070000 		.4byte	.LASF112
 1571 0792 0E       		.byte	0xe
 1572 0793 8501     		.2byte	0x185
 1573 0795 37090000 		.4byte	0x937
 1574 0799 08       		.byte	0x8
 1575 079a 09       		.uleb128 0x9
 1576 079b 07060000 		.4byte	.LASF113
 1577 079f 0E       		.byte	0xe
 1578 07a0 8901     		.2byte	0x189
 1579 07a2 2B090000 		.4byte	0x92b
 1580 07a6 0C       		.byte	0xc
 1581 07a7 09       		.uleb128 0x9
 1582 07a8 B4010000 		.4byte	.LASF114
 1583 07ac 0E       		.byte	0xe
 1584 07ad 8D01     		.2byte	0x18d
 1585 07af 1F090000 		.4byte	0x91f
 1586 07b3 10       		.byte	0x10
 1587 07b4 09       		.uleb128 0x9
 1588 07b5 BE080000 		.4byte	.LASF115
 1589 07b9 0E       		.byte	0xe
 1590 07ba 9501     		.2byte	0x195
 1591 07bc AD000000 		.4byte	0xad
 1592 07c0 14       		.byte	0x14
 1593 07c1 08       		.uleb128 0x8
 1594 07c2 74696D00 		.ascii	"tim\000"
 1595 07c6 0E       		.byte	0xe
 1596 07c7 9901     		.2byte	0x199
ARM GAS  /tmp/ccgG1Gyw.s 			page 29


 1597 07c9 F2090000 		.4byte	0x9f2
 1598 07cd 18       		.byte	0x18
 1599 07ce 00       		.byte	0
 1600 07cf 04       		.uleb128 0x4
 1601 07d0 09020000 		.4byte	.LASF116
 1602 07d4 0D       		.byte	0xd
 1603 07d5 5A       		.byte	0x5a
 1604 07d6 DA070000 		.4byte	0x7da
 1605 07da 0A       		.uleb128 0xa
 1606 07db 04       		.byte	0x4
 1607 07dc E0070000 		.4byte	0x7e0
 1608 07e0 0C       		.uleb128 0xc
 1609 07e1 EB070000 		.4byte	0x7eb
 1610 07e5 0D       		.uleb128 0xd
 1611 07e6 EB070000 		.4byte	0x7eb
 1612 07ea 00       		.byte	0
 1613 07eb 0A       		.uleb128 0xa
 1614 07ec 04       		.byte	0x4
 1615 07ed 5B070000 		.4byte	0x75b
 1616 07f1 19       		.uleb128 0x19
 1617 07f2 60       		.byte	0x60
 1618 07f3 0F       		.byte	0xf
 1619 07f4 9E01     		.2byte	0x19e
 1620 07f6 FD080000 		.4byte	0x8fd
 1621 07fa 08       		.uleb128 0x8
 1622 07fb 43523100 		.ascii	"CR1\000"
 1623 07ff 0F       		.byte	0xf
 1624 0800 9F01     		.2byte	0x19f
 1625 0802 C8000000 		.4byte	0xc8
 1626 0806 00       		.byte	0
 1627 0807 08       		.uleb128 0x8
 1628 0808 43523200 		.ascii	"CR2\000"
 1629 080c 0F       		.byte	0xf
 1630 080d A001     		.2byte	0x1a0
 1631 080f C8000000 		.4byte	0xc8
 1632 0813 04       		.byte	0x4
 1633 0814 09       		.uleb128 0x9
 1634 0815 FD020000 		.4byte	.LASF117
 1635 0819 0F       		.byte	0xf
 1636 081a A101     		.2byte	0x1a1
 1637 081c C8000000 		.4byte	0xc8
 1638 0820 08       		.byte	0x8
 1639 0821 09       		.uleb128 0x9
 1640 0822 2C000000 		.4byte	.LASF118
 1641 0826 0F       		.byte	0xf
 1642 0827 A201     		.2byte	0x1a2
 1643 0829 C8000000 		.4byte	0xc8
 1644 082d 0C       		.byte	0xc
 1645 082e 08       		.uleb128 0x8
 1646 082f 535200   		.ascii	"SR\000"
 1647 0832 0F       		.byte	0xf
 1648 0833 A301     		.2byte	0x1a3
 1649 0835 C8000000 		.4byte	0xc8
 1650 0839 10       		.byte	0x10
 1651 083a 08       		.uleb128 0x8
 1652 083b 45475200 		.ascii	"EGR\000"
 1653 083f 0F       		.byte	0xf
ARM GAS  /tmp/ccgG1Gyw.s 			page 30


 1654 0840 A401     		.2byte	0x1a4
 1655 0842 C8000000 		.4byte	0xc8
 1656 0846 14       		.byte	0x14
 1657 0847 09       		.uleb128 0x9
 1658 0848 26010000 		.4byte	.LASF119
 1659 084c 0F       		.byte	0xf
 1660 084d A501     		.2byte	0x1a5
 1661 084f C8000000 		.4byte	0xc8
 1662 0853 18       		.byte	0x18
 1663 0854 09       		.uleb128 0x9
 1664 0855 2C010000 		.4byte	.LASF120
 1665 0859 0F       		.byte	0xf
 1666 085a A601     		.2byte	0x1a6
 1667 085c C8000000 		.4byte	0xc8
 1668 0860 1C       		.byte	0x1c
 1669 0861 09       		.uleb128 0x9
 1670 0862 7B070000 		.4byte	.LASF121
 1671 0866 0F       		.byte	0xf
 1672 0867 A701     		.2byte	0x1a7
 1673 0869 C8000000 		.4byte	0xc8
 1674 086d 20       		.byte	0x20
 1675 086e 08       		.uleb128 0x8
 1676 086f 434E5400 		.ascii	"CNT\000"
 1677 0873 0F       		.byte	0xf
 1678 0874 A801     		.2byte	0x1a8
 1679 0876 C8000000 		.4byte	0xc8
 1680 087a 24       		.byte	0x24
 1681 087b 08       		.uleb128 0x8
 1682 087c 50534300 		.ascii	"PSC\000"
 1683 0880 0F       		.byte	0xf
 1684 0881 A901     		.2byte	0x1a9
 1685 0883 C8000000 		.4byte	0xc8
 1686 0887 28       		.byte	0x28
 1687 0888 08       		.uleb128 0x8
 1688 0889 41525200 		.ascii	"ARR\000"
 1689 088d 0F       		.byte	0xf
 1690 088e AA01     		.2byte	0x1aa
 1691 0890 C8000000 		.4byte	0xc8
 1692 0894 2C       		.byte	0x2c
 1693 0895 08       		.uleb128 0x8
 1694 0896 52435200 		.ascii	"RCR\000"
 1695 089a 0F       		.byte	0xf
 1696 089b AB01     		.2byte	0x1ab
 1697 089d C8000000 		.4byte	0xc8
 1698 08a1 30       		.byte	0x30
 1699 08a2 08       		.uleb128 0x8
 1700 08a3 43435200 		.ascii	"CCR\000"
 1701 08a7 0F       		.byte	0xf
 1702 08a8 AC01     		.2byte	0x1ac
 1703 08aa FD080000 		.4byte	0x8fd
 1704 08ae 34       		.byte	0x34
 1705 08af 09       		.uleb128 0x9
 1706 08b0 FD000000 		.4byte	.LASF122
 1707 08b4 0F       		.byte	0xf
 1708 08b5 AD01     		.2byte	0x1ad
 1709 08b7 C8000000 		.4byte	0xc8
 1710 08bb 44       		.byte	0x44
ARM GAS  /tmp/ccgG1Gyw.s 			page 31


 1711 08bc 08       		.uleb128 0x8
 1712 08bd 44435200 		.ascii	"DCR\000"
 1713 08c1 0F       		.byte	0xf
 1714 08c2 AE01     		.2byte	0x1ae
 1715 08c4 C8000000 		.4byte	0xc8
 1716 08c8 48       		.byte	0x48
 1717 08c9 09       		.uleb128 0x9
 1718 08ca 52060000 		.4byte	.LASF123
 1719 08ce 0F       		.byte	0xf
 1720 08cf AF01     		.2byte	0x1af
 1721 08d1 C8000000 		.4byte	0xc8
 1722 08d5 4C       		.byte	0x4c
 1723 08d6 08       		.uleb128 0x8
 1724 08d7 4F5200   		.ascii	"OR\000"
 1725 08da 0F       		.byte	0xf
 1726 08db B001     		.2byte	0x1b0
 1727 08dd C8000000 		.4byte	0xc8
 1728 08e1 50       		.byte	0x50
 1729 08e2 09       		.uleb128 0x9
 1730 08e3 32010000 		.4byte	.LASF124
 1731 08e7 0F       		.byte	0xf
 1732 08e8 B101     		.2byte	0x1b1
 1733 08ea C8000000 		.4byte	0xc8
 1734 08ee 54       		.byte	0x54
 1735 08ef 09       		.uleb128 0x9
 1736 08f0 DD050000 		.4byte	.LASF125
 1737 08f4 0F       		.byte	0xf
 1738 08f5 B201     		.2byte	0x1b2
 1739 08f7 02090000 		.4byte	0x902
 1740 08fb 58       		.byte	0x58
 1741 08fc 00       		.byte	0
 1742 08fd 05       		.uleb128 0x5
 1743 08fe 80040000 		.4byte	0x480
 1744 0902 05       		.uleb128 0x5
 1745 0903 70040000 		.4byte	0x470
 1746 0907 1A       		.uleb128 0x1a
 1747 0908 3F030000 		.4byte	.LASF126
 1748 090c 0F       		.byte	0xf
 1749 090d B301     		.2byte	0x1b3
 1750 090f F1070000 		.4byte	0x7f1
 1751 0913 1A       		.uleb128 0x1a
 1752 0914 8E010000 		.4byte	.LASF127
 1753 0918 0E       		.byte	0xe
 1754 0919 2501     		.2byte	0x125
 1755 091b AD000000 		.4byte	0xad
 1756 091f 1A       		.uleb128 0x1a
 1757 0920 12000000 		.4byte	.LASF128
 1758 0924 0E       		.byte	0xe
 1759 0925 2A01     		.2byte	0x12a
 1760 0927 97000000 		.4byte	0x97
 1761 092b 1A       		.uleb128 0x1a
 1762 092c 78050000 		.4byte	.LASF129
 1763 0930 0E       		.byte	0xe
 1764 0931 2F01     		.2byte	0x12f
 1765 0933 AD000000 		.4byte	0xad
 1766 0937 1A       		.uleb128 0x1a
 1767 0938 82080000 		.4byte	.LASF130
ARM GAS  /tmp/ccgG1Gyw.s 			page 32


 1768 093c 0E       		.byte	0xe
 1769 093d 3401     		.2byte	0x134
 1770 093f AD000000 		.4byte	0xad
 1771 0943 19       		.uleb128 0x19
 1772 0944 08       		.byte	0x8
 1773 0945 0E       		.byte	0xe
 1774 0946 3901     		.2byte	0x139
 1775 0948 67090000 		.4byte	0x967
 1776 094c 09       		.uleb128 0x9
 1777 094d 46060000 		.4byte	.LASF131
 1778 0951 0E       		.byte	0xe
 1779 0952 3D01     		.2byte	0x13d
 1780 0954 13090000 		.4byte	0x913
 1781 0958 00       		.byte	0
 1782 0959 09       		.uleb128 0x9
 1783 095a 36030000 		.4byte	.LASF132
 1784 095e 0E       		.byte	0xe
 1785 095f 4301     		.2byte	0x143
 1786 0961 CF070000 		.4byte	0x7cf
 1787 0965 04       		.byte	0x4
 1788 0966 00       		.byte	0
 1789 0967 1A       		.uleb128 0x1a
 1790 0968 EE070000 		.4byte	.LASF133
 1791 096c 0E       		.byte	0xe
 1792 096d 4501     		.2byte	0x145
 1793 096f 43090000 		.4byte	0x943
 1794 0973 19       		.uleb128 0x19
 1795 0974 34       		.byte	0x34
 1796 0975 0E       		.byte	0xe
 1797 0976 4A01     		.2byte	0x14a
 1798 0978 CB090000 		.4byte	0x9cb
 1799 097c 09       		.uleb128 0x9
 1800 097d 02010000 		.4byte	.LASF134
 1801 0981 0E       		.byte	0xe
 1802 0982 5001     		.2byte	0x150
 1803 0984 AD000000 		.4byte	0xad
 1804 0988 00       		.byte	0
 1805 0989 09       		.uleb128 0x9
 1806 098a CE070000 		.4byte	.LASF112
 1807 098e 0E       		.byte	0xe
 1808 098f 5601     		.2byte	0x156
 1809 0991 37090000 		.4byte	0x937
 1810 0995 04       		.byte	0x4
 1811 0996 09       		.uleb128 0x9
 1812 0997 36030000 		.4byte	.LASF132
 1813 099b 0E       		.byte	0xe
 1814 099c 5C01     		.2byte	0x15c
 1815 099e CF070000 		.4byte	0x7cf
 1816 09a2 08       		.byte	0x8
 1817 09a3 09       		.uleb128 0x9
 1818 09a4 B4010000 		.4byte	.LASF114
 1819 09a8 0E       		.byte	0xe
 1820 09a9 6001     		.2byte	0x160
 1821 09ab CB090000 		.4byte	0x9cb
 1822 09af 0C       		.byte	0xc
 1823 09b0 08       		.uleb128 0x8
 1824 09b1 63723200 		.ascii	"cr2\000"
ARM GAS  /tmp/ccgG1Gyw.s 			page 33


 1825 09b5 0E       		.byte	0xe
 1826 09b6 6601     		.2byte	0x166
 1827 09b8 AD000000 		.4byte	0xad
 1828 09bc 2C       		.byte	0x2c
 1829 09bd 09       		.uleb128 0x9
 1830 09be F6080000 		.4byte	.LASF135
 1831 09c2 0E       		.byte	0xe
 1832 09c3 7301     		.2byte	0x173
 1833 09c5 AD000000 		.4byte	0xad
 1834 09c9 30       		.byte	0x30
 1835 09ca 00       		.byte	0
 1836 09cb 10       		.uleb128 0x10
 1837 09cc 67090000 		.4byte	0x967
 1838 09d0 DB090000 		.4byte	0x9db
 1839 09d4 11       		.uleb128 0x11
 1840 09d5 69040000 		.4byte	0x469
 1841 09d9 03       		.byte	0x3
 1842 09da 00       		.byte	0
 1843 09db 1A       		.uleb128 0x1a
 1844 09dc 0E080000 		.4byte	.LASF136
 1845 09e0 0E       		.byte	0xe
 1846 09e1 7401     		.2byte	0x174
 1847 09e3 73090000 		.4byte	0x973
 1848 09e7 0A       		.uleb128 0xa
 1849 09e8 04       		.byte	0x4
 1850 09e9 ED090000 		.4byte	0x9ed
 1851 09ed 16       		.uleb128 0x16
 1852 09ee DB090000 		.4byte	0x9db
 1853 09f2 0A       		.uleb128 0xa
 1854 09f3 04       		.byte	0x4
 1855 09f4 07090000 		.4byte	0x907
 1856 09f8 1B       		.uleb128 0x1b
 1857 09f9 B4040000 		.4byte	.LASF137
 1858 09fd 02       		.byte	0x2
 1859 09fe 5401     		.2byte	0x154
 1860 0a00 03       		.byte	0x3
 1861 0a01 1B       		.uleb128 0x1b
 1862 0a02 76040000 		.4byte	.LASF138
 1863 0a06 02       		.byte	0x2
 1864 0a07 4901     		.2byte	0x149
 1865 0a09 03       		.byte	0x3
 1866 0a0a 1B       		.uleb128 0x1b
 1867 0a0b 7D000000 		.4byte	.LASF139
 1868 0a0f 09       		.byte	0x9
 1869 0a10 BC01     		.2byte	0x1bc
 1870 0a12 03       		.byte	0x3
 1871 0a13 1B       		.uleb128 0x1b
 1872 0a14 98010000 		.4byte	.LASF140
 1873 0a18 09       		.byte	0x9
 1874 0a19 CA01     		.2byte	0x1ca
 1875 0a1b 03       		.byte	0x3
 1876 0a1c 1B       		.uleb128 0x1b
 1877 0a1d 95050000 		.4byte	.LASF141
 1878 0a21 10       		.byte	0x10
 1879 0a22 5A01     		.2byte	0x15a
 1880 0a24 03       		.byte	0x3
 1881 0a25 1C       		.uleb128 0x1c
ARM GAS  /tmp/ccgG1Gyw.s 			page 34


 1882 0a26 AC080000 		.4byte	.LASF170
 1883 0a2a 10       		.byte	0x10
 1884 0a2b 6601     		.2byte	0x166
 1885 0a2d 03       		.byte	0x3
 1886 0a2e 400A0000 		.4byte	0xa40
 1887 0a32 1D       		.uleb128 0x1d
 1888 0a33 8C050000 		.4byte	.LASF149
 1889 0a37 500A0000 		.4byte	0xa50
 1890 0a3b AC080000 		.4byte	.LASF170
 1891 0a3f 00       		.byte	0
 1892 0a40 10       		.uleb128 0x10
 1893 0a41 F6060000 		.4byte	0x6f6
 1894 0a45 500A0000 		.4byte	0xa50
 1895 0a49 11       		.uleb128 0x11
 1896 0a4a 69040000 		.4byte	0x469
 1897 0a4e 0B       		.byte	0xb
 1898 0a4f 00       		.byte	0
 1899 0a50 16       		.uleb128 0x16
 1900 0a51 400A0000 		.4byte	0xa40
 1901 0a55 1B       		.uleb128 0x1b
 1902 0a56 62020000 		.4byte	.LASF142
 1903 0a5a 11       		.byte	0x11
 1904 0a5b EB01     		.2byte	0x1eb
 1905 0a5d 03       		.byte	0x3
 1906 0a5e 1B       		.uleb128 0x1b
 1907 0a5f A9050000 		.4byte	.LASF143
 1908 0a63 11       		.byte	0x11
 1909 0a64 F601     		.2byte	0x1f6
 1910 0a66 03       		.byte	0x3
 1911 0a67 1E       		.uleb128 0x1e
 1912 0a68 01020000 		.4byte	.LASF144
 1913 0a6c 01       		.byte	0x1
 1914 0a6d 38       		.byte	0x38
 1915 0a6e 00000000 		.4byte	.LFB256
 1916 0a72 04000000 		.4byte	.LFE256-.LFB256
 1917 0a76 01       		.uleb128 0x1
 1918 0a77 9C       		.byte	0x9c
 1919 0a78 860A0000 		.4byte	0xa86
 1920 0a7c 1F       		.uleb128 0x1f
 1921 0a7d 04000000 		.4byte	.LVL0
 1922 0a81 78130000 		.4byte	0x1378
 1923 0a85 00       		.byte	0
 1924 0a86 1E       		.uleb128 0x1e
 1925 0a87 10040000 		.4byte	.LASF145
 1926 0a8b 01       		.byte	0x1
 1927 0a8c 44       		.byte	0x44
 1928 0a8d 00000000 		.4byte	.LFB257
 1929 0a91 0E000000 		.4byte	.LFE257-.LFB257
 1930 0a95 01       		.uleb128 0x1
 1931 0a96 9C       		.byte	0x9c
 1932 0a97 A90A0000 		.4byte	0xaa9
 1933 0a9b 20       		.uleb128 0x20
 1934 0a9c 94030000 		.4byte	.LASF147
 1935 0aa0 01       		.byte	0x1
 1936 0aa1 44       		.byte	0x44
 1937 0aa2 EB070000 		.4byte	0x7eb
 1938 0aa6 01       		.uleb128 0x1
ARM GAS  /tmp/ccgG1Gyw.s 			page 35


 1939 0aa7 50       		.byte	0x50
 1940 0aa8 00       		.byte	0
 1941 0aa9 1E       		.uleb128 0x1e
 1942 0aaa 1D010000 		.4byte	.LASF146
 1943 0aae 01       		.byte	0x1
 1944 0aaf 59       		.byte	0x59
 1945 0ab0 00000000 		.4byte	.LFB258
 1946 0ab4 1C000000 		.4byte	.LFE258-.LFB258
 1947 0ab8 01       		.uleb128 0x1
 1948 0ab9 9C       		.byte	0x9c
 1949 0aba 910B0000 		.4byte	0xb91
 1950 0abe 21       		.uleb128 0x21
 1951 0abf 94030000 		.4byte	.LASF147
 1952 0ac3 01       		.byte	0x1
 1953 0ac4 59       		.byte	0x59
 1954 0ac5 EB070000 		.4byte	0x7eb
 1955 0ac9 00000000 		.4byte	.LLST0
 1956 0acd 21       		.uleb128 0x21
 1957 0ace 4B060000 		.4byte	.LASF111
 1958 0ad2 01       		.byte	0x1
 1959 0ad3 59       		.byte	0x59
 1960 0ad4 E7090000 		.4byte	0x9e7
 1961 0ad8 1E000000 		.4byte	.LLST1
 1962 0adc 22       		.uleb128 0x22
 1963 0add 8C050000 		.4byte	.LASF149
 1964 0ae1 A10B0000 		.4byte	0xba1
 1965 0ae5 23       		.uleb128 0x23
 1966 0ae6 550A0000 		.4byte	0xa55
 1967 0aea 04000000 		.4byte	.LBB141
 1968 0aee 02000000 		.4byte	.LBE141-.LBB141
 1969 0af2 01       		.byte	0x1
 1970 0af3 5D       		.byte	0x5d
 1971 0af4 2B0B0000 		.4byte	0xb2b
 1972 0af8 24       		.uleb128 0x24
 1973 0af9 1C0A0000 		.4byte	0xa1c
 1974 0afd 04000000 		.4byte	.LBB142
 1975 0b01 02000000 		.4byte	.LBE142-.LBB142
 1976 0b05 11       		.byte	0x11
 1977 0b06 ED01     		.2byte	0x1ed
 1978 0b08 24       		.uleb128 0x24
 1979 0b09 0A0A0000 		.4byte	0xa0a
 1980 0b0d 04000000 		.4byte	.LBB143
 1981 0b11 02000000 		.4byte	.LBE143-.LBB143
 1982 0b15 10       		.byte	0x10
 1983 0b16 5C01     		.2byte	0x15c
 1984 0b18 25       		.uleb128 0x25
 1985 0b19 F8090000 		.4byte	0x9f8
 1986 0b1d 04000000 		.4byte	.LBB144
 1987 0b21 02000000 		.4byte	.LBE144-.LBB144
 1988 0b25 09       		.byte	0x9
 1989 0b26 C101     		.2byte	0x1c1
 1990 0b28 00       		.byte	0
 1991 0b29 00       		.byte	0
 1992 0b2a 00       		.byte	0
 1993 0b2b 23       		.uleb128 0x23
 1994 0b2c 5E0A0000 		.4byte	0xa5e
 1995 0b30 18000000 		.4byte	.LBB146
ARM GAS  /tmp/ccgG1Gyw.s 			page 36


 1996 0b34 04000000 		.4byte	.LBE146-.LBB146
 1997 0b38 01       		.byte	0x1
 1998 0b39 65       		.byte	0x65
 1999 0b3a 800B0000 		.4byte	0xb80
 2000 0b3e 24       		.uleb128 0x24
 2001 0b3f 250A0000 		.4byte	0xa25
 2002 0b43 18000000 		.4byte	.LBB147
 2003 0b47 04000000 		.4byte	.LBE147-.LBB147
 2004 0b4b 11       		.byte	0x11
 2005 0b4c F801     		.2byte	0x1f8
 2006 0b4e 26       		.uleb128 0x26
 2007 0b4f 18000000 		.4byte	.LBB148
 2008 0b53 04000000 		.4byte	.LBE148-.LBB148
 2009 0b57 27       		.uleb128 0x27
 2010 0b58 320A0000 		.4byte	0xa32
 2011 0b5c 24       		.uleb128 0x24
 2012 0b5d 130A0000 		.4byte	0xa13
 2013 0b61 18000000 		.4byte	.LBB149
 2014 0b65 04000000 		.4byte	.LBE149-.LBB149
 2015 0b69 10       		.byte	0x10
 2016 0b6a 7301     		.2byte	0x173
 2017 0b6c 25       		.uleb128 0x25
 2018 0b6d 010A0000 		.4byte	0xa01
 2019 0b71 18000000 		.4byte	.LBB150
 2020 0b75 04000000 		.4byte	.LBE150-.LBB150
 2021 0b79 09       		.byte	0x9
 2022 0b7a CF01     		.2byte	0x1cf
 2023 0b7c 00       		.byte	0
 2024 0b7d 00       		.byte	0
 2025 0b7e 00       		.byte	0
 2026 0b7f 00       		.byte	0
 2027 0b80 28       		.uleb128 0x28
 2028 0b81 10000000 		.4byte	.LVL3
 2029 0b85 80130000 		.4byte	0x1380
 2030 0b89 29       		.uleb128 0x29
 2031 0b8a 01       		.uleb128 0x1
 2032 0b8b 50       		.byte	0x50
 2033 0b8c 02       		.uleb128 0x2
 2034 0b8d 74       		.byte	0x74
 2035 0b8e 00       		.sleb128 0
 2036 0b8f 00       		.byte	0
 2037 0b90 00       		.byte	0
 2038 0b91 10       		.uleb128 0x10
 2039 0b92 F6060000 		.4byte	0x6f6
 2040 0b96 A10B0000 		.4byte	0xba1
 2041 0b9a 11       		.uleb128 0x11
 2042 0b9b 69040000 		.4byte	0x469
 2043 0b9f 08       		.byte	0x8
 2044 0ba0 00       		.byte	0
 2045 0ba1 16       		.uleb128 0x16
 2046 0ba2 910B0000 		.4byte	0xb91
 2047 0ba6 1E       		.uleb128 0x1e
 2048 0ba7 B6030000 		.4byte	.LASF148
 2049 0bab 01       		.byte	0x1
 2050 0bac 6F       		.byte	0x6f
 2051 0bad 00000000 		.4byte	.LFB259
 2052 0bb1 16000000 		.4byte	.LFE259-.LFB259
ARM GAS  /tmp/ccgG1Gyw.s 			page 37


 2053 0bb5 01       		.uleb128 0x1
 2054 0bb6 9C       		.byte	0x9c
 2055 0bb7 7F0C0000 		.4byte	0xc7f
 2056 0bbb 21       		.uleb128 0x21
 2057 0bbc 94030000 		.4byte	.LASF147
 2058 0bc0 01       		.byte	0x1
 2059 0bc1 6F       		.byte	0x6f
 2060 0bc2 EB070000 		.4byte	0x7eb
 2061 0bc6 3F000000 		.4byte	.LLST2
 2062 0bca 22       		.uleb128 0x22
 2063 0bcb 8C050000 		.4byte	.LASF149
 2064 0bcf 8F0C0000 		.4byte	0xc8f
 2065 0bd3 23       		.uleb128 0x23
 2066 0bd4 550A0000 		.4byte	0xa55
 2067 0bd8 04000000 		.4byte	.LBB152
 2068 0bdc 02000000 		.4byte	.LBE152-.LBB152
 2069 0be0 01       		.byte	0x1
 2070 0be1 73       		.byte	0x73
 2071 0be2 190C0000 		.4byte	0xc19
 2072 0be6 24       		.uleb128 0x24
 2073 0be7 1C0A0000 		.4byte	0xa1c
 2074 0beb 04000000 		.4byte	.LBB153
 2075 0bef 02000000 		.4byte	.LBE153-.LBB153
 2076 0bf3 11       		.byte	0x11
 2077 0bf4 ED01     		.2byte	0x1ed
 2078 0bf6 24       		.uleb128 0x24
 2079 0bf7 0A0A0000 		.4byte	0xa0a
 2080 0bfb 04000000 		.4byte	.LBB154
 2081 0bff 02000000 		.4byte	.LBE154-.LBB154
 2082 0c03 10       		.byte	0x10
 2083 0c04 5C01     		.2byte	0x15c
 2084 0c06 25       		.uleb128 0x25
 2085 0c07 F8090000 		.4byte	0x9f8
 2086 0c0b 04000000 		.4byte	.LBB155
 2087 0c0f 02000000 		.4byte	.LBE155-.LBB155
 2088 0c13 09       		.byte	0x9
 2089 0c14 C101     		.2byte	0x1c1
 2090 0c16 00       		.byte	0
 2091 0c17 00       		.byte	0
 2092 0c18 00       		.byte	0
 2093 0c19 23       		.uleb128 0x23
 2094 0c1a 5E0A0000 		.4byte	0xa5e
 2095 0c1e 12000000 		.4byte	.LBB157
 2096 0c22 04000000 		.4byte	.LBE157-.LBB157
 2097 0c26 01       		.byte	0x1
 2098 0c27 79       		.byte	0x79
 2099 0c28 6E0C0000 		.4byte	0xc6e
 2100 0c2c 24       		.uleb128 0x24
 2101 0c2d 250A0000 		.4byte	0xa25
 2102 0c31 12000000 		.4byte	.LBB158
 2103 0c35 04000000 		.4byte	.LBE158-.LBB158
 2104 0c39 11       		.byte	0x11
 2105 0c3a F801     		.2byte	0x1f8
 2106 0c3c 26       		.uleb128 0x26
 2107 0c3d 12000000 		.4byte	.LBB159
 2108 0c41 04000000 		.4byte	.LBE159-.LBB159
 2109 0c45 27       		.uleb128 0x27
ARM GAS  /tmp/ccgG1Gyw.s 			page 38


 2110 0c46 320A0000 		.4byte	0xa32
 2111 0c4a 24       		.uleb128 0x24
 2112 0c4b 130A0000 		.4byte	0xa13
 2113 0c4f 12000000 		.4byte	.LBB160
 2114 0c53 04000000 		.4byte	.LBE160-.LBB160
 2115 0c57 10       		.byte	0x10
 2116 0c58 7301     		.2byte	0x173
 2117 0c5a 25       		.uleb128 0x25
 2118 0c5b 010A0000 		.4byte	0xa01
 2119 0c5f 12000000 		.4byte	.LBB161
 2120 0c63 04000000 		.4byte	.LBE161-.LBB161
 2121 0c67 09       		.byte	0x9
 2122 0c68 CF01     		.2byte	0x1cf
 2123 0c6a 00       		.byte	0
 2124 0c6b 00       		.byte	0
 2125 0c6c 00       		.byte	0
 2126 0c6d 00       		.byte	0
 2127 0c6e 28       		.uleb128 0x28
 2128 0c6f 0A000000 		.4byte	.LVL5
 2129 0c73 92130000 		.4byte	0x1392
 2130 0c77 29       		.uleb128 0x29
 2131 0c78 01       		.uleb128 0x1
 2132 0c79 50       		.byte	0x50
 2133 0c7a 02       		.uleb128 0x2
 2134 0c7b 74       		.byte	0x74
 2135 0c7c 00       		.sleb128 0
 2136 0c7d 00       		.byte	0
 2137 0c7e 00       		.byte	0
 2138 0c7f 10       		.uleb128 0x10
 2139 0c80 F6060000 		.4byte	0x6f6
 2140 0c84 8F0C0000 		.4byte	0xc8f
 2141 0c88 11       		.uleb128 0x11
 2142 0c89 69040000 		.4byte	0x469
 2143 0c8d 07       		.byte	0x7
 2144 0c8e 00       		.byte	0
 2145 0c8f 16       		.uleb128 0x16
 2146 0c90 7F0C0000 		.4byte	0xc7f
 2147 0c94 1E       		.uleb128 0x1e
 2148 0c95 7E010000 		.4byte	.LASF150
 2149 0c99 01       		.byte	0x1
 2150 0c9a 8B       		.byte	0x8b
 2151 0c9b 00000000 		.4byte	.LFB260
 2152 0c9f 0E000000 		.4byte	.LFE260-.LFB260
 2153 0ca3 01       		.uleb128 0x1
 2154 0ca4 9C       		.byte	0x9c
 2155 0ca5 660D0000 		.4byte	0xd66
 2156 0ca9 20       		.uleb128 0x20
 2157 0caa 94030000 		.4byte	.LASF147
 2158 0cae 01       		.byte	0x1
 2159 0caf 8B       		.byte	0x8b
 2160 0cb0 EB070000 		.4byte	0x7eb
 2161 0cb4 01       		.uleb128 0x1
 2162 0cb5 50       		.byte	0x50
 2163 0cb6 21       		.uleb128 0x21
 2164 0cb7 CE070000 		.4byte	.LASF112
 2165 0cbb 01       		.byte	0x1
 2166 0cbc 8B       		.byte	0x8b
ARM GAS  /tmp/ccgG1Gyw.s 			page 39


 2167 0cbd 37090000 		.4byte	0x937
 2168 0cc1 5D000000 		.4byte	.LLST3
 2169 0cc5 22       		.uleb128 0x22
 2170 0cc6 8C050000 		.4byte	.LASF149
 2171 0cca 760D0000 		.4byte	0xd76
 2172 0cce 23       		.uleb128 0x23
 2173 0ccf 550A0000 		.4byte	0xa55
 2174 0cd3 00000000 		.4byte	.LBB163
 2175 0cd7 02000000 		.4byte	.LBE163-.LBB163
 2176 0cdb 01       		.byte	0x1
 2177 0cdc 8F       		.byte	0x8f
 2178 0cdd 140D0000 		.4byte	0xd14
 2179 0ce1 24       		.uleb128 0x24
 2180 0ce2 1C0A0000 		.4byte	0xa1c
 2181 0ce6 00000000 		.4byte	.LBB164
 2182 0cea 02000000 		.4byte	.LBE164-.LBB164
 2183 0cee 11       		.byte	0x11
 2184 0cef ED01     		.2byte	0x1ed
 2185 0cf1 24       		.uleb128 0x24
 2186 0cf2 0A0A0000 		.4byte	0xa0a
 2187 0cf6 00000000 		.4byte	.LBB165
 2188 0cfa 02000000 		.4byte	.LBE165-.LBB165
 2189 0cfe 10       		.byte	0x10
 2190 0cff 5C01     		.2byte	0x15c
 2191 0d01 25       		.uleb128 0x25
 2192 0d02 F8090000 		.4byte	0x9f8
 2193 0d06 00000000 		.4byte	.LBB166
 2194 0d0a 02000000 		.4byte	.LBE166-.LBB166
 2195 0d0e 09       		.byte	0x9
 2196 0d0f C101     		.2byte	0x1c1
 2197 0d11 00       		.byte	0
 2198 0d12 00       		.byte	0
 2199 0d13 00       		.byte	0
 2200 0d14 2A       		.uleb128 0x2a
 2201 0d15 5E0A0000 		.4byte	0xa5e
 2202 0d19 0A000000 		.4byte	.LBB168
 2203 0d1d 04000000 		.4byte	.LBE168-.LBB168
 2204 0d21 01       		.byte	0x1
 2205 0d22 92       		.byte	0x92
 2206 0d23 24       		.uleb128 0x24
 2207 0d24 250A0000 		.4byte	0xa25
 2208 0d28 0A000000 		.4byte	.LBB169
 2209 0d2c 04000000 		.4byte	.LBE169-.LBB169
 2210 0d30 11       		.byte	0x11
 2211 0d31 F801     		.2byte	0x1f8
 2212 0d33 26       		.uleb128 0x26
 2213 0d34 0A000000 		.4byte	.LBB170
 2214 0d38 04000000 		.4byte	.LBE170-.LBB170
 2215 0d3c 27       		.uleb128 0x27
 2216 0d3d 320A0000 		.4byte	0xa32
 2217 0d41 24       		.uleb128 0x24
 2218 0d42 130A0000 		.4byte	0xa13
 2219 0d46 0A000000 		.4byte	.LBB171
 2220 0d4a 04000000 		.4byte	.LBE171-.LBB171
 2221 0d4e 10       		.byte	0x10
 2222 0d4f 7301     		.2byte	0x173
 2223 0d51 25       		.uleb128 0x25
ARM GAS  /tmp/ccgG1Gyw.s 			page 40


 2224 0d52 010A0000 		.4byte	0xa01
 2225 0d56 0A000000 		.4byte	.LBB172
 2226 0d5a 04000000 		.4byte	.LBE172-.LBB172
 2227 0d5e 09       		.byte	0x9
 2228 0d5f CF01     		.2byte	0x1cf
 2229 0d61 00       		.byte	0
 2230 0d62 00       		.byte	0
 2231 0d63 00       		.byte	0
 2232 0d64 00       		.byte	0
 2233 0d65 00       		.byte	0
 2234 0d66 10       		.uleb128 0x10
 2235 0d67 F6060000 		.4byte	0x6f6
 2236 0d6b 760D0000 		.4byte	0xd76
 2237 0d6f 11       		.uleb128 0x11
 2238 0d70 69040000 		.4byte	0x469
 2239 0d74 0F       		.byte	0xf
 2240 0d75 00       		.byte	0
 2241 0d76 16       		.uleb128 0x16
 2242 0d77 660D0000 		.4byte	0xd66
 2243 0d7b 1E       		.uleb128 0x1e
 2244 0d7c D7080000 		.4byte	.LASF151
 2245 0d80 01       		.byte	0x1
 2246 0d81 A3       		.byte	0xa3
 2247 0d82 00000000 		.4byte	.LFB261
 2248 0d86 16000000 		.4byte	.LFE261-.LFB261
 2249 0d8a 01       		.uleb128 0x1
 2250 0d8b 9C       		.byte	0x9c
 2251 0d8c 7A0E0000 		.4byte	0xe7a
 2252 0d90 21       		.uleb128 0x21
 2253 0d91 94030000 		.4byte	.LASF147
 2254 0d95 01       		.byte	0x1
 2255 0d96 A3       		.byte	0xa3
 2256 0d97 EB070000 		.4byte	0x7eb
 2257 0d9b 7C000000 		.4byte	.LLST4
 2258 0d9f 21       		.uleb128 0x21
 2259 0da0 B7050000 		.4byte	.LASF152
 2260 0da4 01       		.byte	0x1
 2261 0da5 A4       		.byte	0xa4
 2262 0da6 1F090000 		.4byte	0x91f
 2263 0daa 9D000000 		.4byte	.LLST5
 2264 0dae 21       		.uleb128 0x21
 2265 0daf F7020000 		.4byte	.LASF153
 2266 0db3 01       		.byte	0x1
 2267 0db4 A5       		.byte	0xa5
 2268 0db5 37090000 		.4byte	0x937
 2269 0db9 BE000000 		.4byte	.LLST6
 2270 0dbd 22       		.uleb128 0x22
 2271 0dbe 8C050000 		.4byte	.LASF149
 2272 0dc2 8A0E0000 		.4byte	0xe8a
 2273 0dc6 23       		.uleb128 0x23
 2274 0dc7 550A0000 		.4byte	0xa55
 2275 0dcb 02000000 		.4byte	.LBB174
 2276 0dcf 02000000 		.4byte	.LBE174-.LBB174
 2277 0dd3 01       		.byte	0x1
 2278 0dd4 A9       		.byte	0xa9
 2279 0dd5 0C0E0000 		.4byte	0xe0c
 2280 0dd9 24       		.uleb128 0x24
ARM GAS  /tmp/ccgG1Gyw.s 			page 41


 2281 0dda 1C0A0000 		.4byte	0xa1c
 2282 0dde 02000000 		.4byte	.LBB175
 2283 0de2 02000000 		.4byte	.LBE175-.LBB175
 2284 0de6 11       		.byte	0x11
 2285 0de7 ED01     		.2byte	0x1ed
 2286 0de9 24       		.uleb128 0x24
 2287 0dea 0A0A0000 		.4byte	0xa0a
 2288 0dee 02000000 		.4byte	.LBB176
 2289 0df2 02000000 		.4byte	.LBE176-.LBB176
 2290 0df6 10       		.byte	0x10
 2291 0df7 5C01     		.2byte	0x15c
 2292 0df9 25       		.uleb128 0x25
 2293 0dfa F8090000 		.4byte	0x9f8
 2294 0dfe 02000000 		.4byte	.LBB177
 2295 0e02 02000000 		.4byte	.LBE177-.LBB177
 2296 0e06 09       		.byte	0x9
 2297 0e07 C101     		.2byte	0x1c1
 2298 0e09 00       		.byte	0
 2299 0e0a 00       		.byte	0
 2300 0e0b 00       		.byte	0
 2301 0e0c 23       		.uleb128 0x23
 2302 0e0d 5E0A0000 		.4byte	0xa5e
 2303 0e11 12000000 		.4byte	.LBB179
 2304 0e15 04000000 		.4byte	.LBE179-.LBB179
 2305 0e19 01       		.byte	0x1
 2306 0e1a AF       		.byte	0xaf
 2307 0e1b 610E0000 		.4byte	0xe61
 2308 0e1f 24       		.uleb128 0x24
 2309 0e20 250A0000 		.4byte	0xa25
 2310 0e24 12000000 		.4byte	.LBB180
 2311 0e28 04000000 		.4byte	.LBE180-.LBB180
 2312 0e2c 11       		.byte	0x11
 2313 0e2d F801     		.2byte	0x1f8
 2314 0e2f 26       		.uleb128 0x26
 2315 0e30 12000000 		.4byte	.LBB181
 2316 0e34 04000000 		.4byte	.LBE181-.LBB181
 2317 0e38 27       		.uleb128 0x27
 2318 0e39 320A0000 		.4byte	0xa32
 2319 0e3d 24       		.uleb128 0x24
 2320 0e3e 130A0000 		.4byte	0xa13
 2321 0e42 12000000 		.4byte	.LBB182
 2322 0e46 04000000 		.4byte	.LBE182-.LBB182
 2323 0e4a 10       		.byte	0x10
 2324 0e4b 7301     		.2byte	0x173
 2325 0e4d 25       		.uleb128 0x25
 2326 0e4e 010A0000 		.4byte	0xa01
 2327 0e52 12000000 		.4byte	.LBB183
 2328 0e56 04000000 		.4byte	.LBE183-.LBB183
 2329 0e5a 09       		.byte	0x9
 2330 0e5b CF01     		.2byte	0x1cf
 2331 0e5d 00       		.byte	0
 2332 0e5e 00       		.byte	0
 2333 0e5f 00       		.byte	0
 2334 0e60 00       		.byte	0
 2335 0e61 28       		.uleb128 0x28
 2336 0e62 12000000 		.4byte	.LVL9
 2337 0e66 A4130000 		.4byte	0x13a4
ARM GAS  /tmp/ccgG1Gyw.s 			page 42


 2338 0e6a 29       		.uleb128 0x29
 2339 0e6b 01       		.uleb128 0x1
 2340 0e6c 52       		.byte	0x52
 2341 0e6d 03       		.uleb128 0x3
 2342 0e6e F3       		.byte	0xf3
 2343 0e6f 01       		.uleb128 0x1
 2344 0e70 52       		.byte	0x52
 2345 0e71 29       		.uleb128 0x29
 2346 0e72 01       		.uleb128 0x1
 2347 0e73 50       		.byte	0x50
 2348 0e74 03       		.uleb128 0x3
 2349 0e75 F3       		.byte	0xf3
 2350 0e76 01       		.uleb128 0x1
 2351 0e77 50       		.byte	0x50
 2352 0e78 00       		.byte	0
 2353 0e79 00       		.byte	0
 2354 0e7a 10       		.uleb128 0x10
 2355 0e7b F6060000 		.4byte	0x6f6
 2356 0e7f 8A0E0000 		.4byte	0xe8a
 2357 0e83 11       		.uleb128 0x11
 2358 0e84 69040000 		.4byte	0x469
 2359 0e88 10       		.byte	0x10
 2360 0e89 00       		.byte	0
 2361 0e8a 16       		.uleb128 0x16
 2362 0e8b 7A0E0000 		.4byte	0xe7a
 2363 0e8f 1E       		.uleb128 0x1e
 2364 0e90 18030000 		.4byte	.LASF154
 2365 0e94 01       		.byte	0x1
 2366 0e95 C0       		.byte	0xc0
 2367 0e96 00000000 		.4byte	.LFB262
 2368 0e9a 18000000 		.4byte	.LFE262-.LFB262
 2369 0e9e 01       		.uleb128 0x1
 2370 0e9f 9C       		.byte	0x9c
 2371 0ea0 780F0000 		.4byte	0xf78
 2372 0ea4 21       		.uleb128 0x21
 2373 0ea5 94030000 		.4byte	.LASF147
 2374 0ea9 01       		.byte	0x1
 2375 0eaa C0       		.byte	0xc0
 2376 0eab EB070000 		.4byte	0x7eb
 2377 0eaf DF000000 		.4byte	.LLST7
 2378 0eb3 21       		.uleb128 0x21
 2379 0eb4 B7050000 		.4byte	.LASF152
 2380 0eb8 01       		.byte	0x1
 2381 0eb9 C0       		.byte	0xc0
 2382 0eba 1F090000 		.4byte	0x91f
 2383 0ebe 00010000 		.4byte	.LLST8
 2384 0ec2 22       		.uleb128 0x22
 2385 0ec3 8C050000 		.4byte	.LASF149
 2386 0ec7 880F0000 		.4byte	0xf88
 2387 0ecb 23       		.uleb128 0x23
 2388 0ecc 550A0000 		.4byte	0xa55
 2389 0ed0 02000000 		.4byte	.LBB185
 2390 0ed4 02000000 		.4byte	.LBE185-.LBB185
 2391 0ed8 01       		.byte	0x1
 2392 0ed9 C4       		.byte	0xc4
 2393 0eda 110F0000 		.4byte	0xf11
 2394 0ede 24       		.uleb128 0x24
ARM GAS  /tmp/ccgG1Gyw.s 			page 43


 2395 0edf 1C0A0000 		.4byte	0xa1c
 2396 0ee3 02000000 		.4byte	.LBB186
 2397 0ee7 02000000 		.4byte	.LBE186-.LBB186
 2398 0eeb 11       		.byte	0x11
 2399 0eec ED01     		.2byte	0x1ed
 2400 0eee 24       		.uleb128 0x24
 2401 0eef 0A0A0000 		.4byte	0xa0a
 2402 0ef3 02000000 		.4byte	.LBB187
 2403 0ef7 02000000 		.4byte	.LBE187-.LBB187
 2404 0efb 10       		.byte	0x10
 2405 0efc 5C01     		.2byte	0x15c
 2406 0efe 25       		.uleb128 0x25
 2407 0eff F8090000 		.4byte	0x9f8
 2408 0f03 02000000 		.4byte	.LBB188
 2409 0f07 02000000 		.4byte	.LBE188-.LBB188
 2410 0f0b 09       		.byte	0x9
 2411 0f0c C101     		.2byte	0x1c1
 2412 0f0e 00       		.byte	0
 2413 0f0f 00       		.byte	0
 2414 0f10 00       		.byte	0
 2415 0f11 23       		.uleb128 0x23
 2416 0f12 5E0A0000 		.4byte	0xa5e
 2417 0f16 14000000 		.4byte	.LBB190
 2418 0f1a 04000000 		.4byte	.LBE190-.LBB190
 2419 0f1e 01       		.byte	0x1
 2420 0f1f CA       		.byte	0xca
 2421 0f20 660F0000 		.4byte	0xf66
 2422 0f24 24       		.uleb128 0x24
 2423 0f25 250A0000 		.4byte	0xa25
 2424 0f29 14000000 		.4byte	.LBB191
 2425 0f2d 04000000 		.4byte	.LBE191-.LBB191
 2426 0f31 11       		.byte	0x11
 2427 0f32 F801     		.2byte	0x1f8
 2428 0f34 26       		.uleb128 0x26
 2429 0f35 14000000 		.4byte	.LBB192
 2430 0f39 04000000 		.4byte	.LBE192-.LBB192
 2431 0f3d 27       		.uleb128 0x27
 2432 0f3e 320A0000 		.4byte	0xa32
 2433 0f42 24       		.uleb128 0x24
 2434 0f43 130A0000 		.4byte	0xa13
 2435 0f47 14000000 		.4byte	.LBB193
 2436 0f4b 04000000 		.4byte	.LBE193-.LBB193
 2437 0f4f 10       		.byte	0x10
 2438 0f50 7301     		.2byte	0x173
 2439 0f52 25       		.uleb128 0x25
 2440 0f53 010A0000 		.4byte	0xa01
 2441 0f57 14000000 		.4byte	.LBB194
 2442 0f5b 04000000 		.4byte	.LBE194-.LBB194
 2443 0f5f 09       		.byte	0x9
 2444 0f60 CF01     		.2byte	0x1cf
 2445 0f62 00       		.byte	0
 2446 0f63 00       		.byte	0
 2447 0f64 00       		.byte	0
 2448 0f65 00       		.byte	0
 2449 0f66 28       		.uleb128 0x28
 2450 0f67 14000000 		.4byte	.LVL11
 2451 0f6b C0130000 		.4byte	0x13c0
ARM GAS  /tmp/ccgG1Gyw.s 			page 44


 2452 0f6f 29       		.uleb128 0x29
 2453 0f70 01       		.uleb128 0x1
 2454 0f71 50       		.byte	0x50
 2455 0f72 03       		.uleb128 0x3
 2456 0f73 F3       		.byte	0xf3
 2457 0f74 01       		.uleb128 0x1
 2458 0f75 50       		.byte	0x50
 2459 0f76 00       		.byte	0
 2460 0f77 00       		.byte	0
 2461 0f78 10       		.uleb128 0x10
 2462 0f79 F6060000 		.4byte	0x6f6
 2463 0f7d 880F0000 		.4byte	0xf88
 2464 0f81 11       		.uleb128 0x11
 2465 0f82 69040000 		.4byte	0x469
 2466 0f86 11       		.byte	0x11
 2467 0f87 00       		.byte	0
 2468 0f88 16       		.uleb128 0x16
 2469 0f89 780F0000 		.4byte	0xf78
 2470 0f8d 1E       		.uleb128 0x1e
 2471 0f8e B0070000 		.4byte	.LASF155
 2472 0f92 01       		.byte	0x1
 2473 0f93 D6       		.byte	0xd6
 2474 0f94 00000000 		.4byte	.LFB263
 2475 0f98 0C000000 		.4byte	.LFE263-.LFB263
 2476 0f9c 01       		.uleb128 0x1
 2477 0f9d 9C       		.byte	0x9c
 2478 0f9e 67100000 		.4byte	0x1067
 2479 0fa2 21       		.uleb128 0x21
 2480 0fa3 94030000 		.4byte	.LASF147
 2481 0fa7 01       		.byte	0x1
 2482 0fa8 D6       		.byte	0xd6
 2483 0fa9 EB070000 		.4byte	0x7eb
 2484 0fad 21010000 		.4byte	.LLST9
 2485 0fb1 22       		.uleb128 0x22
 2486 0fb2 8C050000 		.4byte	.LASF149
 2487 0fb6 77100000 		.4byte	0x1077
 2488 0fba 23       		.uleb128 0x23
 2489 0fbb 550A0000 		.4byte	0xa55
 2490 0fbf 02000000 		.4byte	.LBB196
 2491 0fc3 02000000 		.4byte	.LBE196-.LBB196
 2492 0fc7 01       		.byte	0x1
 2493 0fc8 DA       		.byte	0xda
 2494 0fc9 00100000 		.4byte	0x1000
 2495 0fcd 24       		.uleb128 0x24
 2496 0fce 1C0A0000 		.4byte	0xa1c
 2497 0fd2 02000000 		.4byte	.LBB197
 2498 0fd6 02000000 		.4byte	.LBE197-.LBB197
 2499 0fda 11       		.byte	0x11
 2500 0fdb ED01     		.2byte	0x1ed
 2501 0fdd 24       		.uleb128 0x24
 2502 0fde 0A0A0000 		.4byte	0xa0a
 2503 0fe2 02000000 		.4byte	.LBB198
 2504 0fe6 02000000 		.4byte	.LBE198-.LBB198
 2505 0fea 10       		.byte	0x10
 2506 0feb 5C01     		.2byte	0x15c
 2507 0fed 25       		.uleb128 0x25
 2508 0fee F8090000 		.4byte	0x9f8
ARM GAS  /tmp/ccgG1Gyw.s 			page 45


 2509 0ff2 02000000 		.4byte	.LBB199
 2510 0ff6 02000000 		.4byte	.LBE199-.LBB199
 2511 0ffa 09       		.byte	0x9
 2512 0ffb C101     		.2byte	0x1c1
 2513 0ffd 00       		.byte	0
 2514 0ffe 00       		.byte	0
 2515 0fff 00       		.byte	0
 2516 1000 23       		.uleb128 0x23
 2517 1001 5E0A0000 		.4byte	0xa5e
 2518 1005 08000000 		.4byte	.LBB201
 2519 1009 04000000 		.4byte	.LBE201-.LBB201
 2520 100d 01       		.byte	0x1
 2521 100e E1       		.byte	0xe1
 2522 100f 55100000 		.4byte	0x1055
 2523 1013 24       		.uleb128 0x24
 2524 1014 250A0000 		.4byte	0xa25
 2525 1018 08000000 		.4byte	.LBB202
 2526 101c 04000000 		.4byte	.LBE202-.LBB202
 2527 1020 11       		.byte	0x11
 2528 1021 F801     		.2byte	0x1f8
 2529 1023 26       		.uleb128 0x26
 2530 1024 08000000 		.4byte	.LBB203
 2531 1028 04000000 		.4byte	.LBE203-.LBB203
 2532 102c 27       		.uleb128 0x27
 2533 102d 320A0000 		.4byte	0xa32
 2534 1031 24       		.uleb128 0x24
 2535 1032 130A0000 		.4byte	0xa13
 2536 1036 08000000 		.4byte	.LBB204
 2537 103a 04000000 		.4byte	.LBE204-.LBB204
 2538 103e 10       		.byte	0x10
 2539 103f 7301     		.2byte	0x173
 2540 1041 25       		.uleb128 0x25
 2541 1042 010A0000 		.4byte	0xa01
 2542 1046 08000000 		.4byte	.LBB205
 2543 104a 04000000 		.4byte	.LBE205-.LBB205
 2544 104e 09       		.byte	0x9
 2545 104f CF01     		.2byte	0x1cf
 2546 1051 00       		.byte	0
 2547 1052 00       		.byte	0
 2548 1053 00       		.byte	0
 2549 1054 00       		.byte	0
 2550 1055 28       		.uleb128 0x28
 2551 1056 08000000 		.4byte	.LVL13
 2552 105a D7130000 		.4byte	0x13d7
 2553 105e 29       		.uleb128 0x29
 2554 105f 01       		.uleb128 0x1
 2555 1060 50       		.byte	0x50
 2556 1061 03       		.uleb128 0x3
 2557 1062 F3       		.byte	0xf3
 2558 1063 01       		.uleb128 0x1
 2559 1064 50       		.byte	0x50
 2560 1065 00       		.byte	0
 2561 1066 00       		.byte	0
 2562 1067 10       		.uleb128 0x10
 2563 1068 F6060000 		.4byte	0x6f6
 2564 106c 77100000 		.4byte	0x1077
 2565 1070 11       		.uleb128 0x11
ARM GAS  /tmp/ccgG1Gyw.s 			page 46


 2566 1071 69040000 		.4byte	0x469
 2567 1075 1D       		.byte	0x1d
 2568 1076 00       		.byte	0
 2569 1077 16       		.uleb128 0x16
 2570 1078 67100000 		.4byte	0x1067
 2571 107c 1E       		.uleb128 0x1e
 2572 107d F1030000 		.4byte	.LASF156
 2573 1081 01       		.byte	0x1
 2574 1082 ED       		.byte	0xed
 2575 1083 00000000 		.4byte	.LFB264
 2576 1087 0C000000 		.4byte	.LFE264-.LFB264
 2577 108b 01       		.uleb128 0x1
 2578 108c 9C       		.byte	0x9c
 2579 108d 56110000 		.4byte	0x1156
 2580 1091 21       		.uleb128 0x21
 2581 1092 94030000 		.4byte	.LASF147
 2582 1096 01       		.byte	0x1
 2583 1097 ED       		.byte	0xed
 2584 1098 EB070000 		.4byte	0x7eb
 2585 109c 42010000 		.4byte	.LLST10
 2586 10a0 22       		.uleb128 0x22
 2587 10a1 8C050000 		.4byte	.LASF149
 2588 10a5 66110000 		.4byte	0x1166
 2589 10a9 23       		.uleb128 0x23
 2590 10aa 550A0000 		.4byte	0xa55
 2591 10ae 02000000 		.4byte	.LBB207
 2592 10b2 02000000 		.4byte	.LBE207-.LBB207
 2593 10b6 01       		.byte	0x1
 2594 10b7 F1       		.byte	0xf1
 2595 10b8 EF100000 		.4byte	0x10ef
 2596 10bc 24       		.uleb128 0x24
 2597 10bd 1C0A0000 		.4byte	0xa1c
 2598 10c1 02000000 		.4byte	.LBB208
 2599 10c5 02000000 		.4byte	.LBE208-.LBB208
 2600 10c9 11       		.byte	0x11
 2601 10ca ED01     		.2byte	0x1ed
 2602 10cc 24       		.uleb128 0x24
 2603 10cd 0A0A0000 		.4byte	0xa0a
 2604 10d1 02000000 		.4byte	.LBB209
 2605 10d5 02000000 		.4byte	.LBE209-.LBB209
 2606 10d9 10       		.byte	0x10
 2607 10da 5C01     		.2byte	0x15c
 2608 10dc 25       		.uleb128 0x25
 2609 10dd F8090000 		.4byte	0x9f8
 2610 10e1 02000000 		.4byte	.LBB210
 2611 10e5 02000000 		.4byte	.LBE210-.LBB210
 2612 10e9 09       		.byte	0x9
 2613 10ea C101     		.2byte	0x1c1
 2614 10ec 00       		.byte	0
 2615 10ed 00       		.byte	0
 2616 10ee 00       		.byte	0
 2617 10ef 23       		.uleb128 0x23
 2618 10f0 5E0A0000 		.4byte	0xa5e
 2619 10f4 08000000 		.4byte	.LBB212
 2620 10f8 04000000 		.4byte	.LBE212-.LBB212
 2621 10fc 01       		.byte	0x1
 2622 10fd F8       		.byte	0xf8
ARM GAS  /tmp/ccgG1Gyw.s 			page 47


 2623 10fe 44110000 		.4byte	0x1144
 2624 1102 24       		.uleb128 0x24
 2625 1103 250A0000 		.4byte	0xa25
 2626 1107 08000000 		.4byte	.LBB213
 2627 110b 04000000 		.4byte	.LBE213-.LBB213
 2628 110f 11       		.byte	0x11
 2629 1110 F801     		.2byte	0x1f8
 2630 1112 26       		.uleb128 0x26
 2631 1113 08000000 		.4byte	.LBB214
 2632 1117 04000000 		.4byte	.LBE214-.LBB214
 2633 111b 27       		.uleb128 0x27
 2634 111c 320A0000 		.4byte	0xa32
 2635 1120 24       		.uleb128 0x24
 2636 1121 130A0000 		.4byte	0xa13
 2637 1125 08000000 		.4byte	.LBB215
 2638 1129 04000000 		.4byte	.LBE215-.LBB215
 2639 112d 10       		.byte	0x10
 2640 112e 7301     		.2byte	0x173
 2641 1130 25       		.uleb128 0x25
 2642 1131 010A0000 		.4byte	0xa01
 2643 1135 08000000 		.4byte	.LBB216
 2644 1139 04000000 		.4byte	.LBE216-.LBB216
 2645 113d 09       		.byte	0x9
 2646 113e CF01     		.2byte	0x1cf
 2647 1140 00       		.byte	0
 2648 1141 00       		.byte	0
 2649 1142 00       		.byte	0
 2650 1143 00       		.byte	0
 2651 1144 28       		.uleb128 0x28
 2652 1145 08000000 		.4byte	.LVL15
 2653 1149 E9130000 		.4byte	0x13e9
 2654 114d 29       		.uleb128 0x29
 2655 114e 01       		.uleb128 0x1
 2656 114f 50       		.byte	0x50
 2657 1150 03       		.uleb128 0x3
 2658 1151 F3       		.byte	0xf3
 2659 1152 01       		.uleb128 0x1
 2660 1153 50       		.byte	0x50
 2661 1154 00       		.byte	0
 2662 1155 00       		.byte	0
 2663 1156 10       		.uleb128 0x10
 2664 1157 F6060000 		.4byte	0x6f6
 2665 115b 66110000 		.4byte	0x1166
 2666 115f 11       		.uleb128 0x11
 2667 1160 69040000 		.4byte	0x469
 2668 1164 1E       		.byte	0x1e
 2669 1165 00       		.byte	0
 2670 1166 16       		.uleb128 0x16
 2671 1167 56110000 		.4byte	0x1156
 2672 116b 2B       		.uleb128 0x2b
 2673 116c 87000000 		.4byte	.LASF157
 2674 1170 01       		.byte	0x1
 2675 1171 0601     		.2byte	0x106
 2676 1173 00000000 		.4byte	.LFB265
 2677 1177 0C000000 		.4byte	.LFE265-.LFB265
 2678 117b 01       		.uleb128 0x1
 2679 117c 9C       		.byte	0x9c
ARM GAS  /tmp/ccgG1Gyw.s 			page 48


 2680 117d 59120000 		.4byte	0x1259
 2681 1181 2C       		.uleb128 0x2c
 2682 1182 94030000 		.4byte	.LASF147
 2683 1186 01       		.byte	0x1
 2684 1187 0601     		.2byte	0x106
 2685 1189 EB070000 		.4byte	0x7eb
 2686 118d 63010000 		.4byte	.LLST11
 2687 1191 2C       		.uleb128 0x2c
 2688 1192 B7050000 		.4byte	.LASF152
 2689 1196 01       		.byte	0x1
 2690 1197 0601     		.2byte	0x106
 2691 1199 1F090000 		.4byte	0x91f
 2692 119d 84010000 		.4byte	.LLST12
 2693 11a1 22       		.uleb128 0x22
 2694 11a2 8C050000 		.4byte	.LASF149
 2695 11a6 69120000 		.4byte	0x1269
 2696 11aa 2D       		.uleb128 0x2d
 2697 11ab 550A0000 		.4byte	0xa55
 2698 11af 02000000 		.4byte	.LBB218
 2699 11b3 02000000 		.4byte	.LBE218-.LBB218
 2700 11b7 01       		.byte	0x1
 2701 11b8 0A01     		.2byte	0x10a
 2702 11ba F1110000 		.4byte	0x11f1
 2703 11be 24       		.uleb128 0x24
 2704 11bf 1C0A0000 		.4byte	0xa1c
 2705 11c3 02000000 		.4byte	.LBB219
 2706 11c7 02000000 		.4byte	.LBE219-.LBB219
 2707 11cb 11       		.byte	0x11
 2708 11cc ED01     		.2byte	0x1ed
 2709 11ce 24       		.uleb128 0x24
 2710 11cf 0A0A0000 		.4byte	0xa0a
 2711 11d3 02000000 		.4byte	.LBB220
 2712 11d7 02000000 		.4byte	.LBE220-.LBB220
 2713 11db 10       		.byte	0x10
 2714 11dc 5C01     		.2byte	0x15c
 2715 11de 25       		.uleb128 0x25
 2716 11df F8090000 		.4byte	0x9f8
 2717 11e3 02000000 		.4byte	.LBB221
 2718 11e7 02000000 		.4byte	.LBE221-.LBB221
 2719 11eb 09       		.byte	0x9
 2720 11ec C101     		.2byte	0x1c1
 2721 11ee 00       		.byte	0
 2722 11ef 00       		.byte	0
 2723 11f0 00       		.byte	0
 2724 11f1 2D       		.uleb128 0x2d
 2725 11f2 5E0A0000 		.4byte	0xa5e
 2726 11f6 08000000 		.4byte	.LBB223
 2727 11fa 04000000 		.4byte	.LBE223-.LBB223
 2728 11fe 01       		.byte	0x1
 2729 11ff 1401     		.2byte	0x114
 2730 1201 47120000 		.4byte	0x1247
 2731 1205 24       		.uleb128 0x24
 2732 1206 250A0000 		.4byte	0xa25
 2733 120a 08000000 		.4byte	.LBB224
 2734 120e 04000000 		.4byte	.LBE224-.LBB224
 2735 1212 11       		.byte	0x11
 2736 1213 F801     		.2byte	0x1f8
ARM GAS  /tmp/ccgG1Gyw.s 			page 49


 2737 1215 26       		.uleb128 0x26
 2738 1216 08000000 		.4byte	.LBB225
 2739 121a 04000000 		.4byte	.LBE225-.LBB225
 2740 121e 27       		.uleb128 0x27
 2741 121f 320A0000 		.4byte	0xa32
 2742 1223 24       		.uleb128 0x24
 2743 1224 130A0000 		.4byte	0xa13
 2744 1228 08000000 		.4byte	.LBB226
 2745 122c 04000000 		.4byte	.LBE226-.LBB226
 2746 1230 10       		.byte	0x10
 2747 1231 7301     		.2byte	0x173
 2748 1233 25       		.uleb128 0x25
 2749 1234 010A0000 		.4byte	0xa01
 2750 1238 08000000 		.4byte	.LBB227
 2751 123c 04000000 		.4byte	.LBE227-.LBB227
 2752 1240 09       		.byte	0x9
 2753 1241 CF01     		.2byte	0x1cf
 2754 1243 00       		.byte	0
 2755 1244 00       		.byte	0
 2756 1245 00       		.byte	0
 2757 1246 00       		.byte	0
 2758 1247 28       		.uleb128 0x28
 2759 1248 08000000 		.4byte	.LVL17
 2760 124c FB130000 		.4byte	0x13fb
 2761 1250 29       		.uleb128 0x29
 2762 1251 01       		.uleb128 0x1
 2763 1252 50       		.byte	0x50
 2764 1253 03       		.uleb128 0x3
 2765 1254 F3       		.byte	0xf3
 2766 1255 01       		.uleb128 0x1
 2767 1256 50       		.byte	0x50
 2768 1257 00       		.byte	0
 2769 1258 00       		.byte	0
 2770 1259 10       		.uleb128 0x10
 2771 125a F6060000 		.4byte	0x6f6
 2772 125e 69120000 		.4byte	0x1269
 2773 1262 11       		.uleb128 0x11
 2774 1263 69040000 		.4byte	0x469
 2775 1267 1C       		.byte	0x1c
 2776 1268 00       		.byte	0
 2777 1269 16       		.uleb128 0x16
 2778 126a 59120000 		.4byte	0x1259
 2779 126e 2B       		.uleb128 0x2b
 2780 126f 4F080000 		.4byte	.LASF158
 2781 1273 01       		.byte	0x1
 2782 1274 2201     		.2byte	0x122
 2783 1276 00000000 		.4byte	.LFB266
 2784 127a 0C000000 		.4byte	.LFE266-.LFB266
 2785 127e 01       		.uleb128 0x1
 2786 127f 9C       		.byte	0x9c
 2787 1280 5C130000 		.4byte	0x135c
 2788 1284 2C       		.uleb128 0x2c
 2789 1285 94030000 		.4byte	.LASF147
 2790 1289 01       		.byte	0x1
 2791 128a 2201     		.2byte	0x122
 2792 128c EB070000 		.4byte	0x7eb
 2793 1290 A5010000 		.4byte	.LLST13
ARM GAS  /tmp/ccgG1Gyw.s 			page 50


 2794 1294 2C       		.uleb128 0x2c
 2795 1295 B7050000 		.4byte	.LASF152
 2796 1299 01       		.byte	0x1
 2797 129a 2201     		.2byte	0x122
 2798 129c 1F090000 		.4byte	0x91f
 2799 12a0 C6010000 		.4byte	.LLST14
 2800 12a4 22       		.uleb128 0x22
 2801 12a5 8C050000 		.4byte	.LASF149
 2802 12a9 5C130000 		.4byte	0x135c
 2803 12ad 2D       		.uleb128 0x2d
 2804 12ae 550A0000 		.4byte	0xa55
 2805 12b2 02000000 		.4byte	.LBB229
 2806 12b6 02000000 		.4byte	.LBE229-.LBB229
 2807 12ba 01       		.byte	0x1
 2808 12bb 2601     		.2byte	0x126
 2809 12bd F4120000 		.4byte	0x12f4
 2810 12c1 24       		.uleb128 0x24
 2811 12c2 1C0A0000 		.4byte	0xa1c
 2812 12c6 02000000 		.4byte	.LBB230
 2813 12ca 02000000 		.4byte	.LBE230-.LBB230
 2814 12ce 11       		.byte	0x11
 2815 12cf ED01     		.2byte	0x1ed
 2816 12d1 24       		.uleb128 0x24
 2817 12d2 0A0A0000 		.4byte	0xa0a
 2818 12d6 02000000 		.4byte	.LBB231
 2819 12da 02000000 		.4byte	.LBE231-.LBB231
 2820 12de 10       		.byte	0x10
 2821 12df 5C01     		.2byte	0x15c
 2822 12e1 25       		.uleb128 0x25
 2823 12e2 F8090000 		.4byte	0x9f8
 2824 12e6 02000000 		.4byte	.LBB232
 2825 12ea 02000000 		.4byte	.LBE232-.LBB232
 2826 12ee 09       		.byte	0x9
 2827 12ef C101     		.2byte	0x1c1
 2828 12f1 00       		.byte	0
 2829 12f2 00       		.byte	0
 2830 12f3 00       		.byte	0
 2831 12f4 2D       		.uleb128 0x2d
 2832 12f5 5E0A0000 		.4byte	0xa5e
 2833 12f9 08000000 		.4byte	.LBB234
 2834 12fd 04000000 		.4byte	.LBE234-.LBB234
 2835 1301 01       		.byte	0x1
 2836 1302 3001     		.2byte	0x130
 2837 1304 4A130000 		.4byte	0x134a
 2838 1308 24       		.uleb128 0x24
 2839 1309 250A0000 		.4byte	0xa25
 2840 130d 08000000 		.4byte	.LBB235
 2841 1311 04000000 		.4byte	.LBE235-.LBB235
 2842 1315 11       		.byte	0x11
 2843 1316 F801     		.2byte	0x1f8
 2844 1318 26       		.uleb128 0x26
 2845 1319 08000000 		.4byte	.LBB236
 2846 131d 04000000 		.4byte	.LBE236-.LBB236
 2847 1321 27       		.uleb128 0x27
 2848 1322 320A0000 		.4byte	0xa32
 2849 1326 24       		.uleb128 0x24
 2850 1327 130A0000 		.4byte	0xa13
ARM GAS  /tmp/ccgG1Gyw.s 			page 51


 2851 132b 08000000 		.4byte	.LBB237
 2852 132f 04000000 		.4byte	.LBE237-.LBB237
 2853 1333 10       		.byte	0x10
 2854 1334 7301     		.2byte	0x173
 2855 1336 25       		.uleb128 0x25
 2856 1337 010A0000 		.4byte	0xa01
 2857 133b 08000000 		.4byte	.LBB238
 2858 133f 04000000 		.4byte	.LBE238-.LBB238
 2859 1343 09       		.byte	0x9
 2860 1344 CF01     		.2byte	0x1cf
 2861 1346 00       		.byte	0
 2862 1347 00       		.byte	0
 2863 1348 00       		.byte	0
 2864 1349 00       		.byte	0
 2865 134a 28       		.uleb128 0x28
 2866 134b 08000000 		.4byte	.LVL19
 2867 134f 12140000 		.4byte	0x1412
 2868 1353 29       		.uleb128 0x29
 2869 1354 01       		.uleb128 0x1
 2870 1355 50       		.byte	0x50
 2871 1356 03       		.uleb128 0x3
 2872 1357 F3       		.byte	0xf3
 2873 1358 01       		.uleb128 0x1
 2874 1359 50       		.byte	0x50
 2875 135a 00       		.byte	0
 2876 135b 00       		.byte	0
 2877 135c 16       		.uleb128 0x16
 2878 135d 67100000 		.4byte	0x1067
 2879 1361 2E       		.uleb128 0x2e
 2880 1362 15050000 		.4byte	.LASF159
 2881 1366 12       		.byte	0x12
 2882 1367 A706     		.2byte	0x6a7
 2883 1369 C3000000 		.4byte	0xc3
 2884 136d 2F       		.uleb128 0x2f
 2885 136e 636800   		.ascii	"ch\000"
 2886 1371 07       		.byte	0x7
 2887 1372 0902     		.2byte	0x209
 2888 1374 02040000 		.4byte	0x402
 2889 1378 30       		.uleb128 0x30
 2890 1379 40040000 		.4byte	.LASF171
 2891 137d 0E       		.byte	0xe
 2892 137e D601     		.2byte	0x1d6
 2893 1380 31       		.uleb128 0x31
 2894 1381 C6010000 		.4byte	.LASF160
 2895 1385 0E       		.byte	0xe
 2896 1386 D701     		.2byte	0x1d7
 2897 1388 92130000 		.4byte	0x1392
 2898 138c 0D       		.uleb128 0xd
 2899 138d EB070000 		.4byte	0x7eb
 2900 1391 00       		.byte	0
 2901 1392 31       		.uleb128 0x31
 2902 1393 E2050000 		.4byte	.LASF161
 2903 1397 0E       		.byte	0xe
 2904 1398 D801     		.2byte	0x1d8
 2905 139a A4130000 		.4byte	0x13a4
 2906 139e 0D       		.uleb128 0xd
 2907 139f EB070000 		.4byte	0x7eb
ARM GAS  /tmp/ccgG1Gyw.s 			page 52


 2908 13a3 00       		.byte	0
 2909 13a4 31       		.uleb128 0x31
 2910 13a5 21060000 		.4byte	.LASF162
 2911 13a9 0E       		.byte	0xe
 2912 13aa D901     		.2byte	0x1d9
 2913 13ac C0130000 		.4byte	0x13c0
 2914 13b0 0D       		.uleb128 0xd
 2915 13b1 EB070000 		.4byte	0x7eb
 2916 13b5 0D       		.uleb128 0xd
 2917 13b6 1F090000 		.4byte	0x91f
 2918 13ba 0D       		.uleb128 0xd
 2919 13bb 37090000 		.4byte	0x937
 2920 13bf 00       		.byte	0
 2921 13c0 31       		.uleb128 0x31
 2922 13c1 E5000000 		.4byte	.LASF163
 2923 13c5 0E       		.byte	0xe
 2924 13c6 DC01     		.2byte	0x1dc
 2925 13c8 D7130000 		.4byte	0x13d7
 2926 13cc 0D       		.uleb128 0xd
 2927 13cd EB070000 		.4byte	0x7eb
 2928 13d1 0D       		.uleb128 0xd
 2929 13d2 1F090000 		.4byte	0x91f
 2930 13d6 00       		.byte	0
 2931 13d7 31       		.uleb128 0x31
 2932 13d8 C8020000 		.4byte	.LASF164
 2933 13dc 0E       		.byte	0xe
 2934 13dd DD01     		.2byte	0x1dd
 2935 13df E9130000 		.4byte	0x13e9
 2936 13e3 0D       		.uleb128 0xd
 2937 13e4 EB070000 		.4byte	0x7eb
 2938 13e8 00       		.byte	0
 2939 13e9 31       		.uleb128 0x31
 2940 13ea 8E040000 		.4byte	.LASF165
 2941 13ee 0E       		.byte	0xe
 2942 13ef DE01     		.2byte	0x1de
 2943 13f1 FB130000 		.4byte	0x13fb
 2944 13f5 0D       		.uleb128 0xd
 2945 13f6 EB070000 		.4byte	0x7eb
 2946 13fa 00       		.byte	0
 2947 13fb 31       		.uleb128 0x31
 2948 13fc D4010000 		.4byte	.LASF166
 2949 1400 0E       		.byte	0xe
 2950 1401 DF01     		.2byte	0x1df
 2951 1403 12140000 		.4byte	0x1412
 2952 1407 0D       		.uleb128 0xd
 2953 1408 EB070000 		.4byte	0x7eb
 2954 140c 0D       		.uleb128 0xd
 2955 140d 1F090000 		.4byte	0x91f
 2956 1411 00       		.byte	0
 2957 1412 32       		.uleb128 0x32
 2958 1413 65030000 		.4byte	.LASF172
 2959 1417 0E       		.byte	0xe
 2960 1418 E101     		.2byte	0x1e1
 2961 141a 0D       		.uleb128 0xd
 2962 141b EB070000 		.4byte	0x7eb
 2963 141f 0D       		.uleb128 0xd
 2964 1420 1F090000 		.4byte	0x91f
ARM GAS  /tmp/ccgG1Gyw.s 			page 53


 2965 1424 00       		.byte	0
 2966 1425 00       		.byte	0
 2967              		.section	.debug_abbrev,"",%progbits
 2968              	.Ldebug_abbrev0:
 2969 0000 01       		.uleb128 0x1
 2970 0001 11       		.uleb128 0x11
 2971 0002 01       		.byte	0x1
 2972 0003 25       		.uleb128 0x25
 2973 0004 0E       		.uleb128 0xe
 2974 0005 13       		.uleb128 0x13
 2975 0006 0B       		.uleb128 0xb
 2976 0007 03       		.uleb128 0x3
 2977 0008 0E       		.uleb128 0xe
 2978 0009 1B       		.uleb128 0x1b
 2979 000a 0E       		.uleb128 0xe
 2980 000b 55       		.uleb128 0x55
 2981 000c 17       		.uleb128 0x17
 2982 000d 11       		.uleb128 0x11
 2983 000e 01       		.uleb128 0x1
 2984 000f 10       		.uleb128 0x10
 2985 0010 17       		.uleb128 0x17
 2986 0011 00       		.byte	0
 2987 0012 00       		.byte	0
 2988 0013 02       		.uleb128 0x2
 2989 0014 24       		.uleb128 0x24
 2990 0015 00       		.byte	0
 2991 0016 0B       		.uleb128 0xb
 2992 0017 0B       		.uleb128 0xb
 2993 0018 3E       		.uleb128 0x3e
 2994 0019 0B       		.uleb128 0xb
 2995 001a 03       		.uleb128 0x3
 2996 001b 08       		.uleb128 0x8
 2997 001c 00       		.byte	0
 2998 001d 00       		.byte	0
 2999 001e 03       		.uleb128 0x3
 3000 001f 24       		.uleb128 0x24
 3001 0020 00       		.byte	0
 3002 0021 0B       		.uleb128 0xb
 3003 0022 0B       		.uleb128 0xb
 3004 0023 3E       		.uleb128 0x3e
 3005 0024 0B       		.uleb128 0xb
 3006 0025 03       		.uleb128 0x3
 3007 0026 0E       		.uleb128 0xe
 3008 0027 00       		.byte	0
 3009 0028 00       		.byte	0
 3010 0029 04       		.uleb128 0x4
 3011 002a 16       		.uleb128 0x16
 3012 002b 00       		.byte	0
 3013 002c 03       		.uleb128 0x3
 3014 002d 0E       		.uleb128 0xe
 3015 002e 3A       		.uleb128 0x3a
 3016 002f 0B       		.uleb128 0xb
 3017 0030 3B       		.uleb128 0x3b
 3018 0031 0B       		.uleb128 0xb
 3019 0032 49       		.uleb128 0x49
 3020 0033 13       		.uleb128 0x13
 3021 0034 00       		.byte	0
ARM GAS  /tmp/ccgG1Gyw.s 			page 54


 3022 0035 00       		.byte	0
 3023 0036 05       		.uleb128 0x5
 3024 0037 35       		.uleb128 0x35
 3025 0038 00       		.byte	0
 3026 0039 49       		.uleb128 0x49
 3027 003a 13       		.uleb128 0x13
 3028 003b 00       		.byte	0
 3029 003c 00       		.byte	0
 3030 003d 06       		.uleb128 0x6
 3031 003e 13       		.uleb128 0x13
 3032 003f 01       		.byte	0x1
 3033 0040 03       		.uleb128 0x3
 3034 0041 0E       		.uleb128 0xe
 3035 0042 0B       		.uleb128 0xb
 3036 0043 0B       		.uleb128 0xb
 3037 0044 3A       		.uleb128 0x3a
 3038 0045 0B       		.uleb128 0xb
 3039 0046 3B       		.uleb128 0x3b
 3040 0047 0B       		.uleb128 0xb
 3041 0048 01       		.uleb128 0x1
 3042 0049 13       		.uleb128 0x13
 3043 004a 00       		.byte	0
 3044 004b 00       		.byte	0
 3045 004c 07       		.uleb128 0x7
 3046 004d 0D       		.uleb128 0xd
 3047 004e 00       		.byte	0
 3048 004f 03       		.uleb128 0x3
 3049 0050 0E       		.uleb128 0xe
 3050 0051 3A       		.uleb128 0x3a
 3051 0052 0B       		.uleb128 0xb
 3052 0053 3B       		.uleb128 0x3b
 3053 0054 0B       		.uleb128 0xb
 3054 0055 49       		.uleb128 0x49
 3055 0056 13       		.uleb128 0x13
 3056 0057 38       		.uleb128 0x38
 3057 0058 0B       		.uleb128 0xb
 3058 0059 00       		.byte	0
 3059 005a 00       		.byte	0
 3060 005b 08       		.uleb128 0x8
 3061 005c 0D       		.uleb128 0xd
 3062 005d 00       		.byte	0
 3063 005e 03       		.uleb128 0x3
 3064 005f 08       		.uleb128 0x8
 3065 0060 3A       		.uleb128 0x3a
 3066 0061 0B       		.uleb128 0xb
 3067 0062 3B       		.uleb128 0x3b
 3068 0063 05       		.uleb128 0x5
 3069 0064 49       		.uleb128 0x49
 3070 0065 13       		.uleb128 0x13
 3071 0066 38       		.uleb128 0x38
 3072 0067 0B       		.uleb128 0xb
 3073 0068 00       		.byte	0
 3074 0069 00       		.byte	0
 3075 006a 09       		.uleb128 0x9
 3076 006b 0D       		.uleb128 0xd
 3077 006c 00       		.byte	0
 3078 006d 03       		.uleb128 0x3
ARM GAS  /tmp/ccgG1Gyw.s 			page 55


 3079 006e 0E       		.uleb128 0xe
 3080 006f 3A       		.uleb128 0x3a
 3081 0070 0B       		.uleb128 0xb
 3082 0071 3B       		.uleb128 0x3b
 3083 0072 05       		.uleb128 0x5
 3084 0073 49       		.uleb128 0x49
 3085 0074 13       		.uleb128 0x13
 3086 0075 38       		.uleb128 0x38
 3087 0076 0B       		.uleb128 0xb
 3088 0077 00       		.byte	0
 3089 0078 00       		.byte	0
 3090 0079 0A       		.uleb128 0xa
 3091 007a 0F       		.uleb128 0xf
 3092 007b 00       		.byte	0
 3093 007c 0B       		.uleb128 0xb
 3094 007d 0B       		.uleb128 0xb
 3095 007e 49       		.uleb128 0x49
 3096 007f 13       		.uleb128 0x13
 3097 0080 00       		.byte	0
 3098 0081 00       		.byte	0
 3099 0082 0B       		.uleb128 0xb
 3100 0083 13       		.uleb128 0x13
 3101 0084 01       		.byte	0x1
 3102 0085 03       		.uleb128 0x3
 3103 0086 0E       		.uleb128 0xe
 3104 0087 0B       		.uleb128 0xb
 3105 0088 0B       		.uleb128 0xb
 3106 0089 3A       		.uleb128 0x3a
 3107 008a 0B       		.uleb128 0xb
 3108 008b 3B       		.uleb128 0x3b
 3109 008c 05       		.uleb128 0x5
 3110 008d 01       		.uleb128 0x1
 3111 008e 13       		.uleb128 0x13
 3112 008f 00       		.byte	0
 3113 0090 00       		.byte	0
 3114 0091 0C       		.uleb128 0xc
 3115 0092 15       		.uleb128 0x15
 3116 0093 01       		.byte	0x1
 3117 0094 27       		.uleb128 0x27
 3118 0095 19       		.uleb128 0x19
 3119 0096 01       		.uleb128 0x1
 3120 0097 13       		.uleb128 0x13
 3121 0098 00       		.byte	0
 3122 0099 00       		.byte	0
 3123 009a 0D       		.uleb128 0xd
 3124 009b 05       		.uleb128 0x5
 3125 009c 00       		.byte	0
 3126 009d 49       		.uleb128 0x49
 3127 009e 13       		.uleb128 0x13
 3128 009f 00       		.byte	0
 3129 00a0 00       		.byte	0
 3130 00a1 0E       		.uleb128 0xe
 3131 00a2 0F       		.uleb128 0xf
 3132 00a3 00       		.byte	0
 3133 00a4 0B       		.uleb128 0xb
 3134 00a5 0B       		.uleb128 0xb
 3135 00a6 00       		.byte	0
ARM GAS  /tmp/ccgG1Gyw.s 			page 56


 3136 00a7 00       		.byte	0
 3137 00a8 0F       		.uleb128 0xf
 3138 00a9 13       		.uleb128 0x13
 3139 00aa 01       		.byte	0x1
 3140 00ab 03       		.uleb128 0x3
 3141 00ac 0E       		.uleb128 0xe
 3142 00ad 0B       		.uleb128 0xb
 3143 00ae 05       		.uleb128 0x5
 3144 00af 3A       		.uleb128 0x3a
 3145 00b0 0B       		.uleb128 0xb
 3146 00b1 3B       		.uleb128 0x3b
 3147 00b2 05       		.uleb128 0x5
 3148 00b3 01       		.uleb128 0x1
 3149 00b4 13       		.uleb128 0x13
 3150 00b5 00       		.byte	0
 3151 00b6 00       		.byte	0
 3152 00b7 10       		.uleb128 0x10
 3153 00b8 01       		.uleb128 0x1
 3154 00b9 01       		.byte	0x1
 3155 00ba 49       		.uleb128 0x49
 3156 00bb 13       		.uleb128 0x13
 3157 00bc 01       		.uleb128 0x1
 3158 00bd 13       		.uleb128 0x13
 3159 00be 00       		.byte	0
 3160 00bf 00       		.byte	0
 3161 00c0 11       		.uleb128 0x11
 3162 00c1 21       		.uleb128 0x21
 3163 00c2 00       		.byte	0
 3164 00c3 49       		.uleb128 0x49
 3165 00c4 13       		.uleb128 0x13
 3166 00c5 2F       		.uleb128 0x2f
 3167 00c6 0B       		.uleb128 0xb
 3168 00c7 00       		.byte	0
 3169 00c8 00       		.byte	0
 3170 00c9 12       		.uleb128 0x12
 3171 00ca 0D       		.uleb128 0xd
 3172 00cb 00       		.byte	0
 3173 00cc 03       		.uleb128 0x3
 3174 00cd 08       		.uleb128 0x8
 3175 00ce 3A       		.uleb128 0x3a
 3176 00cf 0B       		.uleb128 0xb
 3177 00d0 3B       		.uleb128 0x3b
 3178 00d1 0B       		.uleb128 0xb
 3179 00d2 49       		.uleb128 0x49
 3180 00d3 13       		.uleb128 0x13
 3181 00d4 38       		.uleb128 0x38
 3182 00d5 0B       		.uleb128 0xb
 3183 00d6 00       		.byte	0
 3184 00d7 00       		.byte	0
 3185 00d8 13       		.uleb128 0x13
 3186 00d9 13       		.uleb128 0x13
 3187 00da 01       		.byte	0x1
 3188 00db 0B       		.uleb128 0xb
 3189 00dc 0B       		.uleb128 0xb
 3190 00dd 3A       		.uleb128 0x3a
 3191 00de 0B       		.uleb128 0xb
 3192 00df 3B       		.uleb128 0x3b
ARM GAS  /tmp/ccgG1Gyw.s 			page 57


 3193 00e0 0B       		.uleb128 0xb
 3194 00e1 01       		.uleb128 0x1
 3195 00e2 13       		.uleb128 0x13
 3196 00e3 00       		.byte	0
 3197 00e4 00       		.byte	0
 3198 00e5 14       		.uleb128 0x14
 3199 00e6 17       		.uleb128 0x17
 3200 00e7 01       		.byte	0x1
 3201 00e8 0B       		.uleb128 0xb
 3202 00e9 0B       		.uleb128 0xb
 3203 00ea 3A       		.uleb128 0x3a
 3204 00eb 0B       		.uleb128 0xb
 3205 00ec 3B       		.uleb128 0x3b
 3206 00ed 0B       		.uleb128 0xb
 3207 00ee 01       		.uleb128 0x1
 3208 00ef 13       		.uleb128 0x13
 3209 00f0 00       		.byte	0
 3210 00f1 00       		.byte	0
 3211 00f2 15       		.uleb128 0x15
 3212 00f3 0D       		.uleb128 0xd
 3213 00f4 00       		.byte	0
 3214 00f5 03       		.uleb128 0x3
 3215 00f6 0E       		.uleb128 0xe
 3216 00f7 3A       		.uleb128 0x3a
 3217 00f8 0B       		.uleb128 0xb
 3218 00f9 3B       		.uleb128 0x3b
 3219 00fa 05       		.uleb128 0x5
 3220 00fb 49       		.uleb128 0x49
 3221 00fc 13       		.uleb128 0x13
 3222 00fd 00       		.byte	0
 3223 00fe 00       		.byte	0
 3224 00ff 16       		.uleb128 0x16
 3225 0100 26       		.uleb128 0x26
 3226 0101 00       		.byte	0
 3227 0102 49       		.uleb128 0x49
 3228 0103 13       		.uleb128 0x13
 3229 0104 00       		.byte	0
 3230 0105 00       		.byte	0
 3231 0106 17       		.uleb128 0x17
 3232 0107 04       		.uleb128 0x4
 3233 0108 01       		.byte	0x1
 3234 0109 0B       		.uleb128 0xb
 3235 010a 0B       		.uleb128 0xb
 3236 010b 3A       		.uleb128 0x3a
 3237 010c 0B       		.uleb128 0xb
 3238 010d 3B       		.uleb128 0x3b
 3239 010e 0B       		.uleb128 0xb
 3240 010f 01       		.uleb128 0x1
 3241 0110 13       		.uleb128 0x13
 3242 0111 00       		.byte	0
 3243 0112 00       		.byte	0
 3244 0113 18       		.uleb128 0x18
 3245 0114 28       		.uleb128 0x28
 3246 0115 00       		.byte	0
 3247 0116 03       		.uleb128 0x3
 3248 0117 0E       		.uleb128 0xe
 3249 0118 1C       		.uleb128 0x1c
ARM GAS  /tmp/ccgG1Gyw.s 			page 58


 3250 0119 0D       		.uleb128 0xd
 3251 011a 00       		.byte	0
 3252 011b 00       		.byte	0
 3253 011c 19       		.uleb128 0x19
 3254 011d 13       		.uleb128 0x13
 3255 011e 01       		.byte	0x1
 3256 011f 0B       		.uleb128 0xb
 3257 0120 0B       		.uleb128 0xb
 3258 0121 3A       		.uleb128 0x3a
 3259 0122 0B       		.uleb128 0xb
 3260 0123 3B       		.uleb128 0x3b
 3261 0124 05       		.uleb128 0x5
 3262 0125 01       		.uleb128 0x1
 3263 0126 13       		.uleb128 0x13
 3264 0127 00       		.byte	0
 3265 0128 00       		.byte	0
 3266 0129 1A       		.uleb128 0x1a
 3267 012a 16       		.uleb128 0x16
 3268 012b 00       		.byte	0
 3269 012c 03       		.uleb128 0x3
 3270 012d 0E       		.uleb128 0xe
 3271 012e 3A       		.uleb128 0x3a
 3272 012f 0B       		.uleb128 0xb
 3273 0130 3B       		.uleb128 0x3b
 3274 0131 05       		.uleb128 0x5
 3275 0132 49       		.uleb128 0x49
 3276 0133 13       		.uleb128 0x13
 3277 0134 00       		.byte	0
 3278 0135 00       		.byte	0
 3279 0136 1B       		.uleb128 0x1b
 3280 0137 2E       		.uleb128 0x2e
 3281 0138 00       		.byte	0
 3282 0139 03       		.uleb128 0x3
 3283 013a 0E       		.uleb128 0xe
 3284 013b 3A       		.uleb128 0x3a
 3285 013c 0B       		.uleb128 0xb
 3286 013d 3B       		.uleb128 0x3b
 3287 013e 05       		.uleb128 0x5
 3288 013f 27       		.uleb128 0x27
 3289 0140 19       		.uleb128 0x19
 3290 0141 20       		.uleb128 0x20
 3291 0142 0B       		.uleb128 0xb
 3292 0143 00       		.byte	0
 3293 0144 00       		.byte	0
 3294 0145 1C       		.uleb128 0x1c
 3295 0146 2E       		.uleb128 0x2e
 3296 0147 01       		.byte	0x1
 3297 0148 03       		.uleb128 0x3
 3298 0149 0E       		.uleb128 0xe
 3299 014a 3A       		.uleb128 0x3a
 3300 014b 0B       		.uleb128 0xb
 3301 014c 3B       		.uleb128 0x3b
 3302 014d 05       		.uleb128 0x5
 3303 014e 27       		.uleb128 0x27
 3304 014f 19       		.uleb128 0x19
 3305 0150 20       		.uleb128 0x20
 3306 0151 0B       		.uleb128 0xb
ARM GAS  /tmp/ccgG1Gyw.s 			page 59


 3307 0152 01       		.uleb128 0x1
 3308 0153 13       		.uleb128 0x13
 3309 0154 00       		.byte	0
 3310 0155 00       		.byte	0
 3311 0156 1D       		.uleb128 0x1d
 3312 0157 34       		.uleb128 0x34
 3313 0158 00       		.byte	0
 3314 0159 03       		.uleb128 0x3
 3315 015a 0E       		.uleb128 0xe
 3316 015b 49       		.uleb128 0x49
 3317 015c 13       		.uleb128 0x13
 3318 015d 34       		.uleb128 0x34
 3319 015e 19       		.uleb128 0x19
 3320 015f 1C       		.uleb128 0x1c
 3321 0160 0E       		.uleb128 0xe
 3322 0161 00       		.byte	0
 3323 0162 00       		.byte	0
 3324 0163 1E       		.uleb128 0x1e
 3325 0164 2E       		.uleb128 0x2e
 3326 0165 01       		.byte	0x1
 3327 0166 3F       		.uleb128 0x3f
 3328 0167 19       		.uleb128 0x19
 3329 0168 03       		.uleb128 0x3
 3330 0169 0E       		.uleb128 0xe
 3331 016a 3A       		.uleb128 0x3a
 3332 016b 0B       		.uleb128 0xb
 3333 016c 3B       		.uleb128 0x3b
 3334 016d 0B       		.uleb128 0xb
 3335 016e 27       		.uleb128 0x27
 3336 016f 19       		.uleb128 0x19
 3337 0170 11       		.uleb128 0x11
 3338 0171 01       		.uleb128 0x1
 3339 0172 12       		.uleb128 0x12
 3340 0173 06       		.uleb128 0x6
 3341 0174 40       		.uleb128 0x40
 3342 0175 18       		.uleb128 0x18
 3343 0176 9742     		.uleb128 0x2117
 3344 0178 19       		.uleb128 0x19
 3345 0179 01       		.uleb128 0x1
 3346 017a 13       		.uleb128 0x13
 3347 017b 00       		.byte	0
 3348 017c 00       		.byte	0
 3349 017d 1F       		.uleb128 0x1f
 3350 017e 898201   		.uleb128 0x4109
 3351 0181 00       		.byte	0
 3352 0182 11       		.uleb128 0x11
 3353 0183 01       		.uleb128 0x1
 3354 0184 9542     		.uleb128 0x2115
 3355 0186 19       		.uleb128 0x19
 3356 0187 31       		.uleb128 0x31
 3357 0188 13       		.uleb128 0x13
 3358 0189 00       		.byte	0
 3359 018a 00       		.byte	0
 3360 018b 20       		.uleb128 0x20
 3361 018c 05       		.uleb128 0x5
 3362 018d 00       		.byte	0
 3363 018e 03       		.uleb128 0x3
ARM GAS  /tmp/ccgG1Gyw.s 			page 60


 3364 018f 0E       		.uleb128 0xe
 3365 0190 3A       		.uleb128 0x3a
 3366 0191 0B       		.uleb128 0xb
 3367 0192 3B       		.uleb128 0x3b
 3368 0193 0B       		.uleb128 0xb
 3369 0194 49       		.uleb128 0x49
 3370 0195 13       		.uleb128 0x13
 3371 0196 02       		.uleb128 0x2
 3372 0197 18       		.uleb128 0x18
 3373 0198 00       		.byte	0
 3374 0199 00       		.byte	0
 3375 019a 21       		.uleb128 0x21
 3376 019b 05       		.uleb128 0x5
 3377 019c 00       		.byte	0
 3378 019d 03       		.uleb128 0x3
 3379 019e 0E       		.uleb128 0xe
 3380 019f 3A       		.uleb128 0x3a
 3381 01a0 0B       		.uleb128 0xb
 3382 01a1 3B       		.uleb128 0x3b
 3383 01a2 0B       		.uleb128 0xb
 3384 01a3 49       		.uleb128 0x49
 3385 01a4 13       		.uleb128 0x13
 3386 01a5 02       		.uleb128 0x2
 3387 01a6 17       		.uleb128 0x17
 3388 01a7 00       		.byte	0
 3389 01a8 00       		.byte	0
 3390 01a9 22       		.uleb128 0x22
 3391 01aa 34       		.uleb128 0x34
 3392 01ab 00       		.byte	0
 3393 01ac 03       		.uleb128 0x3
 3394 01ad 0E       		.uleb128 0xe
 3395 01ae 49       		.uleb128 0x49
 3396 01af 13       		.uleb128 0x13
 3397 01b0 34       		.uleb128 0x34
 3398 01b1 19       		.uleb128 0x19
 3399 01b2 00       		.byte	0
 3400 01b3 00       		.byte	0
 3401 01b4 23       		.uleb128 0x23
 3402 01b5 1D       		.uleb128 0x1d
 3403 01b6 01       		.byte	0x1
 3404 01b7 31       		.uleb128 0x31
 3405 01b8 13       		.uleb128 0x13
 3406 01b9 11       		.uleb128 0x11
 3407 01ba 01       		.uleb128 0x1
 3408 01bb 12       		.uleb128 0x12
 3409 01bc 06       		.uleb128 0x6
 3410 01bd 58       		.uleb128 0x58
 3411 01be 0B       		.uleb128 0xb
 3412 01bf 59       		.uleb128 0x59
 3413 01c0 0B       		.uleb128 0xb
 3414 01c1 01       		.uleb128 0x1
 3415 01c2 13       		.uleb128 0x13
 3416 01c3 00       		.byte	0
 3417 01c4 00       		.byte	0
 3418 01c5 24       		.uleb128 0x24
 3419 01c6 1D       		.uleb128 0x1d
 3420 01c7 01       		.byte	0x1
ARM GAS  /tmp/ccgG1Gyw.s 			page 61


 3421 01c8 31       		.uleb128 0x31
 3422 01c9 13       		.uleb128 0x13
 3423 01ca 11       		.uleb128 0x11
 3424 01cb 01       		.uleb128 0x1
 3425 01cc 12       		.uleb128 0x12
 3426 01cd 06       		.uleb128 0x6
 3427 01ce 58       		.uleb128 0x58
 3428 01cf 0B       		.uleb128 0xb
 3429 01d0 59       		.uleb128 0x59
 3430 01d1 05       		.uleb128 0x5
 3431 01d2 00       		.byte	0
 3432 01d3 00       		.byte	0
 3433 01d4 25       		.uleb128 0x25
 3434 01d5 1D       		.uleb128 0x1d
 3435 01d6 00       		.byte	0
 3436 01d7 31       		.uleb128 0x31
 3437 01d8 13       		.uleb128 0x13
 3438 01d9 11       		.uleb128 0x11
 3439 01da 01       		.uleb128 0x1
 3440 01db 12       		.uleb128 0x12
 3441 01dc 06       		.uleb128 0x6
 3442 01dd 58       		.uleb128 0x58
 3443 01de 0B       		.uleb128 0xb
 3444 01df 59       		.uleb128 0x59
 3445 01e0 05       		.uleb128 0x5
 3446 01e1 00       		.byte	0
 3447 01e2 00       		.byte	0
 3448 01e3 26       		.uleb128 0x26
 3449 01e4 0B       		.uleb128 0xb
 3450 01e5 01       		.byte	0x1
 3451 01e6 11       		.uleb128 0x11
 3452 01e7 01       		.uleb128 0x1
 3453 01e8 12       		.uleb128 0x12
 3454 01e9 06       		.uleb128 0x6
 3455 01ea 00       		.byte	0
 3456 01eb 00       		.byte	0
 3457 01ec 27       		.uleb128 0x27
 3458 01ed 34       		.uleb128 0x34
 3459 01ee 00       		.byte	0
 3460 01ef 31       		.uleb128 0x31
 3461 01f0 13       		.uleb128 0x13
 3462 01f1 00       		.byte	0
 3463 01f2 00       		.byte	0
 3464 01f3 28       		.uleb128 0x28
 3465 01f4 898201   		.uleb128 0x4109
 3466 01f7 01       		.byte	0x1
 3467 01f8 11       		.uleb128 0x11
 3468 01f9 01       		.uleb128 0x1
 3469 01fa 31       		.uleb128 0x31
 3470 01fb 13       		.uleb128 0x13
 3471 01fc 00       		.byte	0
 3472 01fd 00       		.byte	0
 3473 01fe 29       		.uleb128 0x29
 3474 01ff 8A8201   		.uleb128 0x410a
 3475 0202 00       		.byte	0
 3476 0203 02       		.uleb128 0x2
 3477 0204 18       		.uleb128 0x18
ARM GAS  /tmp/ccgG1Gyw.s 			page 62


 3478 0205 9142     		.uleb128 0x2111
 3479 0207 18       		.uleb128 0x18
 3480 0208 00       		.byte	0
 3481 0209 00       		.byte	0
 3482 020a 2A       		.uleb128 0x2a
 3483 020b 1D       		.uleb128 0x1d
 3484 020c 01       		.byte	0x1
 3485 020d 31       		.uleb128 0x31
 3486 020e 13       		.uleb128 0x13
 3487 020f 11       		.uleb128 0x11
 3488 0210 01       		.uleb128 0x1
 3489 0211 12       		.uleb128 0x12
 3490 0212 06       		.uleb128 0x6
 3491 0213 58       		.uleb128 0x58
 3492 0214 0B       		.uleb128 0xb
 3493 0215 59       		.uleb128 0x59
 3494 0216 0B       		.uleb128 0xb
 3495 0217 00       		.byte	0
 3496 0218 00       		.byte	0
 3497 0219 2B       		.uleb128 0x2b
 3498 021a 2E       		.uleb128 0x2e
 3499 021b 01       		.byte	0x1
 3500 021c 3F       		.uleb128 0x3f
 3501 021d 19       		.uleb128 0x19
 3502 021e 03       		.uleb128 0x3
 3503 021f 0E       		.uleb128 0xe
 3504 0220 3A       		.uleb128 0x3a
 3505 0221 0B       		.uleb128 0xb
 3506 0222 3B       		.uleb128 0x3b
 3507 0223 05       		.uleb128 0x5
 3508 0224 27       		.uleb128 0x27
 3509 0225 19       		.uleb128 0x19
 3510 0226 11       		.uleb128 0x11
 3511 0227 01       		.uleb128 0x1
 3512 0228 12       		.uleb128 0x12
 3513 0229 06       		.uleb128 0x6
 3514 022a 40       		.uleb128 0x40
 3515 022b 18       		.uleb128 0x18
 3516 022c 9742     		.uleb128 0x2117
 3517 022e 19       		.uleb128 0x19
 3518 022f 01       		.uleb128 0x1
 3519 0230 13       		.uleb128 0x13
 3520 0231 00       		.byte	0
 3521 0232 00       		.byte	0
 3522 0233 2C       		.uleb128 0x2c
 3523 0234 05       		.uleb128 0x5
 3524 0235 00       		.byte	0
 3525 0236 03       		.uleb128 0x3
 3526 0237 0E       		.uleb128 0xe
 3527 0238 3A       		.uleb128 0x3a
 3528 0239 0B       		.uleb128 0xb
 3529 023a 3B       		.uleb128 0x3b
 3530 023b 05       		.uleb128 0x5
 3531 023c 49       		.uleb128 0x49
 3532 023d 13       		.uleb128 0x13
 3533 023e 02       		.uleb128 0x2
 3534 023f 17       		.uleb128 0x17
ARM GAS  /tmp/ccgG1Gyw.s 			page 63


 3535 0240 00       		.byte	0
 3536 0241 00       		.byte	0
 3537 0242 2D       		.uleb128 0x2d
 3538 0243 1D       		.uleb128 0x1d
 3539 0244 01       		.byte	0x1
 3540 0245 31       		.uleb128 0x31
 3541 0246 13       		.uleb128 0x13
 3542 0247 11       		.uleb128 0x11
 3543 0248 01       		.uleb128 0x1
 3544 0249 12       		.uleb128 0x12
 3545 024a 06       		.uleb128 0x6
 3546 024b 58       		.uleb128 0x58
 3547 024c 0B       		.uleb128 0xb
 3548 024d 59       		.uleb128 0x59
 3549 024e 05       		.uleb128 0x5
 3550 024f 01       		.uleb128 0x1
 3551 0250 13       		.uleb128 0x13
 3552 0251 00       		.byte	0
 3553 0252 00       		.byte	0
 3554 0253 2E       		.uleb128 0x2e
 3555 0254 34       		.uleb128 0x34
 3556 0255 00       		.byte	0
 3557 0256 03       		.uleb128 0x3
 3558 0257 0E       		.uleb128 0xe
 3559 0258 3A       		.uleb128 0x3a
 3560 0259 0B       		.uleb128 0xb
 3561 025a 3B       		.uleb128 0x3b
 3562 025b 05       		.uleb128 0x5
 3563 025c 49       		.uleb128 0x49
 3564 025d 13       		.uleb128 0x13
 3565 025e 3F       		.uleb128 0x3f
 3566 025f 19       		.uleb128 0x19
 3567 0260 3C       		.uleb128 0x3c
 3568 0261 19       		.uleb128 0x19
 3569 0262 00       		.byte	0
 3570 0263 00       		.byte	0
 3571 0264 2F       		.uleb128 0x2f
 3572 0265 34       		.uleb128 0x34
 3573 0266 00       		.byte	0
 3574 0267 03       		.uleb128 0x3
 3575 0268 08       		.uleb128 0x8
 3576 0269 3A       		.uleb128 0x3a
 3577 026a 0B       		.uleb128 0xb
 3578 026b 3B       		.uleb128 0x3b
 3579 026c 05       		.uleb128 0x5
 3580 026d 49       		.uleb128 0x49
 3581 026e 13       		.uleb128 0x13
 3582 026f 3F       		.uleb128 0x3f
 3583 0270 19       		.uleb128 0x19
 3584 0271 3C       		.uleb128 0x3c
 3585 0272 19       		.uleb128 0x19
 3586 0273 00       		.byte	0
 3587 0274 00       		.byte	0
 3588 0275 30       		.uleb128 0x30
 3589 0276 2E       		.uleb128 0x2e
 3590 0277 00       		.byte	0
 3591 0278 3F       		.uleb128 0x3f
ARM GAS  /tmp/ccgG1Gyw.s 			page 64


 3592 0279 19       		.uleb128 0x19
 3593 027a 03       		.uleb128 0x3
 3594 027b 0E       		.uleb128 0xe
 3595 027c 3A       		.uleb128 0x3a
 3596 027d 0B       		.uleb128 0xb
 3597 027e 3B       		.uleb128 0x3b
 3598 027f 05       		.uleb128 0x5
 3599 0280 27       		.uleb128 0x27
 3600 0281 19       		.uleb128 0x19
 3601 0282 3C       		.uleb128 0x3c
 3602 0283 19       		.uleb128 0x19
 3603 0284 00       		.byte	0
 3604 0285 00       		.byte	0
 3605 0286 31       		.uleb128 0x31
 3606 0287 2E       		.uleb128 0x2e
 3607 0288 01       		.byte	0x1
 3608 0289 3F       		.uleb128 0x3f
 3609 028a 19       		.uleb128 0x19
 3610 028b 03       		.uleb128 0x3
 3611 028c 0E       		.uleb128 0xe
 3612 028d 3A       		.uleb128 0x3a
 3613 028e 0B       		.uleb128 0xb
 3614 028f 3B       		.uleb128 0x3b
 3615 0290 05       		.uleb128 0x5
 3616 0291 27       		.uleb128 0x27
 3617 0292 19       		.uleb128 0x19
 3618 0293 3C       		.uleb128 0x3c
 3619 0294 19       		.uleb128 0x19
 3620 0295 01       		.uleb128 0x1
 3621 0296 13       		.uleb128 0x13
 3622 0297 00       		.byte	0
 3623 0298 00       		.byte	0
 3624 0299 32       		.uleb128 0x32
 3625 029a 2E       		.uleb128 0x2e
 3626 029b 01       		.byte	0x1
 3627 029c 3F       		.uleb128 0x3f
 3628 029d 19       		.uleb128 0x19
 3629 029e 03       		.uleb128 0x3
 3630 029f 0E       		.uleb128 0xe
 3631 02a0 3A       		.uleb128 0x3a
 3632 02a1 0B       		.uleb128 0xb
 3633 02a2 3B       		.uleb128 0x3b
 3634 02a3 05       		.uleb128 0x5
 3635 02a4 27       		.uleb128 0x27
 3636 02a5 19       		.uleb128 0x19
 3637 02a6 3C       		.uleb128 0x3c
 3638 02a7 19       		.uleb128 0x19
 3639 02a8 00       		.byte	0
 3640 02a9 00       		.byte	0
 3641 02aa 00       		.byte	0
 3642              		.section	.debug_loc,"",%progbits
 3643              	.Ldebug_loc0:
 3644              	.LLST0:
 3645 0000 00000000 		.4byte	.LVL2
 3646 0004 0F000000 		.4byte	.LVL3-1
 3647 0008 0100     		.2byte	0x1
 3648 000a 50       		.byte	0x50
ARM GAS  /tmp/ccgG1Gyw.s 			page 65


 3649 000b 0F000000 		.4byte	.LVL3-1
 3650 000f 1C000000 		.4byte	.LFE258
 3651 0013 0100     		.2byte	0x1
 3652 0015 54       		.byte	0x54
 3653 0016 00000000 		.4byte	0
 3654 001a 00000000 		.4byte	0
 3655              	.LLST1:
 3656 001e 00000000 		.4byte	.LVL2
 3657 0022 0F000000 		.4byte	.LVL3-1
 3658 0026 0100     		.2byte	0x1
 3659 0028 51       		.byte	0x51
 3660 0029 0F000000 		.4byte	.LVL3-1
 3661 002d 1C000000 		.4byte	.LFE258
 3662 0031 0400     		.2byte	0x4
 3663 0033 F3       		.byte	0xf3
 3664 0034 01       		.uleb128 0x1
 3665 0035 51       		.byte	0x51
 3666 0036 9F       		.byte	0x9f
 3667 0037 00000000 		.4byte	0
 3668 003b 00000000 		.4byte	0
 3669              	.LLST2:
 3670 003f 00000000 		.4byte	.LVL4
 3671 0043 09000000 		.4byte	.LVL5-1
 3672 0047 0100     		.2byte	0x1
 3673 0049 50       		.byte	0x50
 3674 004a 09000000 		.4byte	.LVL5-1
 3675 004e 16000000 		.4byte	.LFE259
 3676 0052 0100     		.2byte	0x1
 3677 0054 54       		.byte	0x54
 3678 0055 00000000 		.4byte	0
 3679 0059 00000000 		.4byte	0
 3680              	.LLST3:
 3681 005d 00000000 		.4byte	.LVL6
 3682 0061 08000000 		.4byte	.LVL7
 3683 0065 0100     		.2byte	0x1
 3684 0067 51       		.byte	0x51
 3685 0068 08000000 		.4byte	.LVL7
 3686 006c 0E000000 		.4byte	.LFE260
 3687 0070 0200     		.2byte	0x2
 3688 0072 70       		.byte	0x70
 3689 0073 08       		.sleb128 8
 3690 0074 00000000 		.4byte	0
 3691 0078 00000000 		.4byte	0
 3692              	.LLST4:
 3693 007c 00000000 		.4byte	.LVL8
 3694 0080 11000000 		.4byte	.LVL9-1
 3695 0084 0100     		.2byte	0x1
 3696 0086 50       		.byte	0x50
 3697 0087 11000000 		.4byte	.LVL9-1
 3698 008b 16000000 		.4byte	.LFE261
 3699 008f 0400     		.2byte	0x4
 3700 0091 F3       		.byte	0xf3
 3701 0092 01       		.uleb128 0x1
 3702 0093 50       		.byte	0x50
 3703 0094 9F       		.byte	0x9f
 3704 0095 00000000 		.4byte	0
 3705 0099 00000000 		.4byte	0
ARM GAS  /tmp/ccgG1Gyw.s 			page 66


 3706              	.LLST5:
 3707 009d 00000000 		.4byte	.LVL8
 3708 00a1 11000000 		.4byte	.LVL9-1
 3709 00a5 0100     		.2byte	0x1
 3710 00a7 51       		.byte	0x51
 3711 00a8 11000000 		.4byte	.LVL9-1
 3712 00ac 16000000 		.4byte	.LFE261
 3713 00b0 0400     		.2byte	0x4
 3714 00b2 F3       		.byte	0xf3
 3715 00b3 01       		.uleb128 0x1
 3716 00b4 51       		.byte	0x51
 3717 00b5 9F       		.byte	0x9f
 3718 00b6 00000000 		.4byte	0
 3719 00ba 00000000 		.4byte	0
 3720              	.LLST6:
 3721 00be 00000000 		.4byte	.LVL8
 3722 00c2 11000000 		.4byte	.LVL9-1
 3723 00c6 0100     		.2byte	0x1
 3724 00c8 52       		.byte	0x52
 3725 00c9 11000000 		.4byte	.LVL9-1
 3726 00cd 16000000 		.4byte	.LFE261
 3727 00d1 0400     		.2byte	0x4
 3728 00d3 F3       		.byte	0xf3
 3729 00d4 01       		.uleb128 0x1
 3730 00d5 52       		.byte	0x52
 3731 00d6 9F       		.byte	0x9f
 3732 00d7 00000000 		.4byte	0
 3733 00db 00000000 		.4byte	0
 3734              	.LLST7:
 3735 00df 00000000 		.4byte	.LVL10
 3736 00e3 13000000 		.4byte	.LVL11-1
 3737 00e7 0100     		.2byte	0x1
 3738 00e9 50       		.byte	0x50
 3739 00ea 13000000 		.4byte	.LVL11-1
 3740 00ee 18000000 		.4byte	.LFE262
 3741 00f2 0400     		.2byte	0x4
 3742 00f4 F3       		.byte	0xf3
 3743 00f5 01       		.uleb128 0x1
 3744 00f6 50       		.byte	0x50
 3745 00f7 9F       		.byte	0x9f
 3746 00f8 00000000 		.4byte	0
 3747 00fc 00000000 		.4byte	0
 3748              	.LLST8:
 3749 0100 00000000 		.4byte	.LVL10
 3750 0104 13000000 		.4byte	.LVL11-1
 3751 0108 0100     		.2byte	0x1
 3752 010a 51       		.byte	0x51
 3753 010b 13000000 		.4byte	.LVL11-1
 3754 010f 18000000 		.4byte	.LFE262
 3755 0113 0400     		.2byte	0x4
 3756 0115 F3       		.byte	0xf3
 3757 0116 01       		.uleb128 0x1
 3758 0117 51       		.byte	0x51
 3759 0118 9F       		.byte	0x9f
 3760 0119 00000000 		.4byte	0
 3761 011d 00000000 		.4byte	0
 3762              	.LLST9:
ARM GAS  /tmp/ccgG1Gyw.s 			page 67


 3763 0121 00000000 		.4byte	.LVL12
 3764 0125 07000000 		.4byte	.LVL13-1
 3765 0129 0100     		.2byte	0x1
 3766 012b 50       		.byte	0x50
 3767 012c 07000000 		.4byte	.LVL13-1
 3768 0130 0C000000 		.4byte	.LFE263
 3769 0134 0400     		.2byte	0x4
 3770 0136 F3       		.byte	0xf3
 3771 0137 01       		.uleb128 0x1
 3772 0138 50       		.byte	0x50
 3773 0139 9F       		.byte	0x9f
 3774 013a 00000000 		.4byte	0
 3775 013e 00000000 		.4byte	0
 3776              	.LLST10:
 3777 0142 00000000 		.4byte	.LVL14
 3778 0146 07000000 		.4byte	.LVL15-1
 3779 014a 0100     		.2byte	0x1
 3780 014c 50       		.byte	0x50
 3781 014d 07000000 		.4byte	.LVL15-1
 3782 0151 0C000000 		.4byte	.LFE264
 3783 0155 0400     		.2byte	0x4
 3784 0157 F3       		.byte	0xf3
 3785 0158 01       		.uleb128 0x1
 3786 0159 50       		.byte	0x50
 3787 015a 9F       		.byte	0x9f
 3788 015b 00000000 		.4byte	0
 3789 015f 00000000 		.4byte	0
 3790              	.LLST11:
 3791 0163 00000000 		.4byte	.LVL16
 3792 0167 07000000 		.4byte	.LVL17-1
 3793 016b 0100     		.2byte	0x1
 3794 016d 50       		.byte	0x50
 3795 016e 07000000 		.4byte	.LVL17-1
 3796 0172 0C000000 		.4byte	.LFE265
 3797 0176 0400     		.2byte	0x4
 3798 0178 F3       		.byte	0xf3
 3799 0179 01       		.uleb128 0x1
 3800 017a 50       		.byte	0x50
 3801 017b 9F       		.byte	0x9f
 3802 017c 00000000 		.4byte	0
 3803 0180 00000000 		.4byte	0
 3804              	.LLST12:
 3805 0184 00000000 		.4byte	.LVL16
 3806 0188 07000000 		.4byte	.LVL17-1
 3807 018c 0100     		.2byte	0x1
 3808 018e 51       		.byte	0x51
 3809 018f 07000000 		.4byte	.LVL17-1
 3810 0193 0C000000 		.4byte	.LFE265
 3811 0197 0400     		.2byte	0x4
 3812 0199 F3       		.byte	0xf3
 3813 019a 01       		.uleb128 0x1
 3814 019b 51       		.byte	0x51
 3815 019c 9F       		.byte	0x9f
 3816 019d 00000000 		.4byte	0
 3817 01a1 00000000 		.4byte	0
 3818              	.LLST13:
 3819 01a5 00000000 		.4byte	.LVL18
ARM GAS  /tmp/ccgG1Gyw.s 			page 68


 3820 01a9 07000000 		.4byte	.LVL19-1
 3821 01ad 0100     		.2byte	0x1
 3822 01af 50       		.byte	0x50
 3823 01b0 07000000 		.4byte	.LVL19-1
 3824 01b4 0C000000 		.4byte	.LFE266
 3825 01b8 0400     		.2byte	0x4
 3826 01ba F3       		.byte	0xf3
 3827 01bb 01       		.uleb128 0x1
 3828 01bc 50       		.byte	0x50
 3829 01bd 9F       		.byte	0x9f
 3830 01be 00000000 		.4byte	0
 3831 01c2 00000000 		.4byte	0
 3832              	.LLST14:
 3833 01c6 00000000 		.4byte	.LVL18
 3834 01ca 07000000 		.4byte	.LVL19-1
 3835 01ce 0100     		.2byte	0x1
 3836 01d0 51       		.byte	0x51
 3837 01d1 07000000 		.4byte	.LVL19-1
 3838 01d5 0C000000 		.4byte	.LFE266
 3839 01d9 0400     		.2byte	0x4
 3840 01db F3       		.byte	0xf3
 3841 01dc 01       		.uleb128 0x1
 3842 01dd 51       		.byte	0x51
 3843 01de 9F       		.byte	0x9f
 3844 01df 00000000 		.4byte	0
 3845 01e3 00000000 		.4byte	0
 3846              		.section	.debug_aranges,"",%progbits
 3847 0000 6C000000 		.4byte	0x6c
 3848 0004 0200     		.2byte	0x2
 3849 0006 00000000 		.4byte	.Ldebug_info0
 3850 000a 04       		.byte	0x4
 3851 000b 00       		.byte	0
 3852 000c 0000     		.2byte	0
 3853 000e 0000     		.2byte	0
 3854 0010 00000000 		.4byte	.LFB256
 3855 0014 04000000 		.4byte	.LFE256-.LFB256
 3856 0018 00000000 		.4byte	.LFB257
 3857 001c 0E000000 		.4byte	.LFE257-.LFB257
 3858 0020 00000000 		.4byte	.LFB258
 3859 0024 1C000000 		.4byte	.LFE258-.LFB258
 3860 0028 00000000 		.4byte	.LFB259
 3861 002c 16000000 		.4byte	.LFE259-.LFB259
 3862 0030 00000000 		.4byte	.LFB260
 3863 0034 0E000000 		.4byte	.LFE260-.LFB260
 3864 0038 00000000 		.4byte	.LFB261
 3865 003c 16000000 		.4byte	.LFE261-.LFB261
 3866 0040 00000000 		.4byte	.LFB262
 3867 0044 18000000 		.4byte	.LFE262-.LFB262
 3868 0048 00000000 		.4byte	.LFB263
 3869 004c 0C000000 		.4byte	.LFE263-.LFB263
 3870 0050 00000000 		.4byte	.LFB264
 3871 0054 0C000000 		.4byte	.LFE264-.LFB264
 3872 0058 00000000 		.4byte	.LFB265
 3873 005c 0C000000 		.4byte	.LFE265-.LFB265
 3874 0060 00000000 		.4byte	.LFB266
 3875 0064 0C000000 		.4byte	.LFE266-.LFB266
 3876 0068 00000000 		.4byte	0
ARM GAS  /tmp/ccgG1Gyw.s 			page 69


 3877 006c 00000000 		.4byte	0
 3878              		.section	.debug_ranges,"",%progbits
 3879              	.Ldebug_ranges0:
 3880 0000 00000000 		.4byte	.LFB256
 3881 0004 04000000 		.4byte	.LFE256
 3882 0008 00000000 		.4byte	.LFB257
 3883 000c 0E000000 		.4byte	.LFE257
 3884 0010 00000000 		.4byte	.LFB258
 3885 0014 1C000000 		.4byte	.LFE258
 3886 0018 00000000 		.4byte	.LFB259
 3887 001c 16000000 		.4byte	.LFE259
 3888 0020 00000000 		.4byte	.LFB260
 3889 0024 0E000000 		.4byte	.LFE260
 3890 0028 00000000 		.4byte	.LFB261
 3891 002c 16000000 		.4byte	.LFE261
 3892 0030 00000000 		.4byte	.LFB262
 3893 0034 18000000 		.4byte	.LFE262
 3894 0038 00000000 		.4byte	.LFB263
 3895 003c 0C000000 		.4byte	.LFE263
 3896 0040 00000000 		.4byte	.LFB264
 3897 0044 0C000000 		.4byte	.LFE264
 3898 0048 00000000 		.4byte	.LFB265
 3899 004c 0C000000 		.4byte	.LFE265
 3900 0050 00000000 		.4byte	.LFB266
 3901 0054 0C000000 		.4byte	.LFE266
 3902 0058 00000000 		.4byte	0
 3903 005c 00000000 		.4byte	0
 3904              		.section	.debug_line,"",%progbits
 3905              	.Ldebug_line0:
 3906 0000 AF030000 		.section	.debug_str,"MS",%progbits,1
 3906      02004A02 
 3906      00000201 
 3906      FB0E0D00 
 3906      01010101 
 3907              	.LASF3:
 3908 0000 73686F72 		.ascii	"short int\000"
 3908      7420696E 
 3908      7400
 3909              	.LASF20:
 3910 000a 74726566 		.ascii	"trefs_t\000"
 3910      735F7400 
 3911              	.LASF128:
 3912 0012 70776D63 		.ascii	"pwmchannel_t\000"
 3912      68616E6E 
 3912      656C5F74 
 3912      00
 3913              	.LASF53:
 3914 001f 72656164 		.ascii	"ready_list_t\000"
 3914      795F6C69 
 3914      73745F74 
 3914      00
 3915              	.LASF118:
 3916 002c 44494552 		.ascii	"DIER\000"
 3916      00
 3917              	.LASF91:
 3918 0031 77747472 		.ascii	"wttrp\000"
 3918      7000
ARM GAS  /tmp/ccgG1Gyw.s 			page 70


 3919              	.LASF88:
 3920 0037 7264796D 		.ascii	"rdymsg\000"
 3920      736700
 3921              	.LASF16:
 3922 003e 75696E74 		.ascii	"uint64_t\000"
 3922      36345F74 
 3922      00
 3923              	.LASF5:
 3924 0047 5F5F7569 		.ascii	"__uint8_t\000"
 3924      6E74385F 
 3924      7400
 3925              	.LASF85:
 3926 0051 706F7274 		.ascii	"port_intctx\000"
 3926      5F696E74 
 3926      63747800 
 3927              	.LASF52:
 3928 005d 63685F74 		.ascii	"ch_threads_queue\000"
 3928      68726561 
 3928      64735F71 
 3928      75657565 
 3928      00
 3929              	.LASF72:
 3930 006e 73797374 		.ascii	"system_debug_t\000"
 3930      656D5F64 
 3930      65627567 
 3930      5F7400
 3931              	.LASF139:
 3932 007d 706F7274 		.ascii	"port_lock\000"
 3932      5F6C6F63 
 3932      6B00
 3933              	.LASF157:
 3934 0087 70776D45 		.ascii	"pwmEnableChannelNotification\000"
 3934      6E61626C 
 3934      65436861 
 3934      6E6E656C 
 3934      4E6F7469 
 3935              	.LASF12:
 3936 00a4 6C6F6E67 		.ascii	"long long unsigned int\000"
 3936      206C6F6E 
 3936      6720756E 
 3936      7369676E 
 3936      65642069 
 3937              	.LASF89:
 3938 00bb 65786974 		.ascii	"exitcode\000"
 3938      636F6465 
 3938      00
 3939              	.LASF79:
 3940 00c4 6D61696E 		.ascii	"mainthread\000"
 3940      74687265 
 3940      616400
 3941              	.LASF69:
 3942 00cf 76697274 		.ascii	"virtual_timers_list_t\000"
 3942      75616C5F 
 3942      74696D65 
 3942      72735F6C 
 3942      6973745F 
 3943              	.LASF163:
ARM GAS  /tmp/ccgG1Gyw.s 			page 71


 3944 00e5 70776D5F 		.ascii	"pwm_lld_disable_channel\000"
 3944      6C6C645F 
 3944      64697361 
 3944      626C655F 
 3944      6368616E 
 3945              	.LASF122:
 3946 00fd 42445452 		.ascii	"BDTR\000"
 3946      00
 3947              	.LASF134:
 3948 0102 66726571 		.ascii	"frequency\000"
 3948      75656E63 
 3948      7900
 3949              	.LASF30:
 3950 010c 705F7072 		.ascii	"p_prio\000"
 3950      696F00
 3951              	.LASF107:
 3952 0113 50574D5F 		.ascii	"PWM_READY\000"
 3952      52454144 
 3952      5900
 3953              	.LASF146:
 3954 011d 70776D53 		.ascii	"pwmStart\000"
 3954      74617274 
 3954      00
 3955              	.LASF119:
 3956 0126 43434D52 		.ascii	"CCMR1\000"
 3956      3100
 3957              	.LASF120:
 3958 012c 43434D52 		.ascii	"CCMR2\000"
 3958      3200
 3959              	.LASF124:
 3960 0132 43434D52 		.ascii	"CCMR3\000"
 3960      3300
 3961              	.LASF1:
 3962 0138 7369676E 		.ascii	"signed char\000"
 3962      65642063 
 3962      68617200 
 3963              	.LASF169:
 3964 0144 2F686F6D 		.ascii	"/home/benjamin/Skrivbord/SP-RCCar/Embedded/RC_Contr"
 3964      652F6265 
 3964      6E6A616D 
 3964      696E2F53 
 3964      6B726976 
 3965 0177 6F6C6C65 		.ascii	"oller/\000"
 3965      722F00
 3966              	.LASF150:
 3967 017e 70776D43 		.ascii	"pwmChangePeriod\000"
 3967      68616E67 
 3967      65506572 
 3967      696F6400 
 3968              	.LASF127:
 3969 018e 70776D6D 		.ascii	"pwmmode_t\000"
 3969      6F64655F 
 3969      7400
 3970              	.LASF140:
 3971 0198 706F7274 		.ascii	"port_unlock\000"
 3971      5F756E6C 
 3971      6F636B00 
ARM GAS  /tmp/ccgG1Gyw.s 			page 72


 3972              	.LASF21:
 3973 01a4 74736C69 		.ascii	"tslices_t\000"
 3973      6365735F 
 3973      7400
 3974              	.LASF110:
 3975 01ae 73746174 		.ascii	"state\000"
 3975      6500
 3976              	.LASF114:
 3977 01b4 6368616E 		.ascii	"channels\000"
 3977      6E656C73 
 3977      00
 3978              	.LASF7:
 3979 01bd 6C6F6E67 		.ascii	"long int\000"
 3979      20696E74 
 3979      00
 3980              	.LASF160:
 3981 01c6 70776D5F 		.ascii	"pwm_lld_start\000"
 3981      6C6C645F 
 3981      73746172 
 3981      7400
 3982              	.LASF166:
 3983 01d4 70776D5F 		.ascii	"pwm_lld_enable_channel_notification\000"
 3983      6C6C645F 
 3983      656E6162 
 3983      6C655F63 
 3983      68616E6E 
 3984              	.LASF19:
 3985 01f8 74737461 		.ascii	"tstate_t\000"
 3985      74655F74 
 3985      00
 3986              	.LASF144:
 3987 0201 70776D49 		.ascii	"pwmInit\000"
 3987      6E697400 
 3988              	.LASF116:
 3989 0209 70776D63 		.ascii	"pwmcallback_t\000"
 3989      616C6C62 
 3989      61636B5F 
 3989      7400
 3990              	.LASF32:
 3991 0217 705F6E65 		.ascii	"p_newer\000"
 3991      77657200 
 3992              	.LASF96:
 3993 021f 735F7175 		.ascii	"s_queue\000"
 3993      65756500 
 3994              	.LASF4:
 3995 0227 73686F72 		.ascii	"short unsigned int\000"
 3995      7420756E 
 3995      7369676E 
 3995      65642069 
 3995      6E7400
 3996              	.LASF58:
 3997 023a 725F6E65 		.ascii	"r_newer\000"
 3997      77657200 
 3998              	.LASF46:
 3999 0242 705F6D70 		.ascii	"p_mpool\000"
 3999      6F6F6C00 
 4000              	.LASF82:
ARM GAS  /tmp/ccgG1Gyw.s 			page 73


 4001 024a 72656761 		.ascii	"regarm_t\000"
 4001      726D5F74 
 4001      00
 4002              	.LASF65:
 4003 0253 76745F70 		.ascii	"vt_prev\000"
 4003      72657600 
 4004              	.LASF78:
 4005 025b 76746C69 		.ascii	"vtlist\000"
 4005      737400
 4006              	.LASF142:
 4007 0262 6F73616C 		.ascii	"osalSysLock\000"
 4007      5379734C 
 4007      6F636B00 
 4008              	.LASF10:
 4009 026e 6C6F6E67 		.ascii	"long long int\000"
 4009      206C6F6E 
 4009      6720696E 
 4009      7400
 4010              	.LASF80:
 4011 027c 69646C65 		.ascii	"idle_thread_wa\000"
 4011      5F746872 
 4011      6561645F 
 4011      776100
 4012              	.LASF25:
 4013 028b 636E745F 		.ascii	"cnt_t\000"
 4013      7400
 4014              	.LASF0:
 4015 0291 756E7369 		.ascii	"unsigned int\000"
 4015      676E6564 
 4015      20696E74 
 4015      00
 4016              	.LASF64:
 4017 029e 76745F6E 		.ascii	"vt_next\000"
 4017      65787400 
 4018              	.LASF39:
 4019 02a6 705F7469 		.ascii	"p_time\000"
 4019      6D6500
 4020              	.LASF92:
 4021 02ad 77747365 		.ascii	"wtsemp\000"
 4021      6D7000
 4022              	.LASF66:
 4023 02b4 76745F64 		.ascii	"vt_delta\000"
 4023      656C7461 
 4023      00
 4024              	.LASF41:
 4025 02bd 705F6D73 		.ascii	"p_msgqueue\000"
 4025      67717565 
 4025      756500
 4026              	.LASF164:
 4027 02c8 70776D5F 		.ascii	"pwm_lld_enable_periodic_notification\000"
 4027      6C6C645F 
 4027      656E6162 
 4027      6C655F70 
 4027      6572696F 
 4028              	.LASF49:
 4029 02ed 63685F74 		.ascii	"ch_thread\000"
 4029      68726561 
ARM GAS  /tmp/ccgG1Gyw.s 			page 74


 4029      6400
 4030              	.LASF153:
 4031 02f7 77696474 		.ascii	"width\000"
 4031      6800
 4032              	.LASF117:
 4033 02fd 534D4352 		.ascii	"SMCR\000"
 4033      00
 4034              	.LASF23:
 4035 0302 6D73675F 		.ascii	"msg_t\000"
 4035      7400
 4036              	.LASF50:
 4037 0308 63685F74 		.ascii	"ch_threads_list\000"
 4037      68726561 
 4037      64735F6C 
 4037      69737400 
 4038              	.LASF154:
 4039 0318 70776D44 		.ascii	"pwmDisableChannel\000"
 4039      69736162 
 4039      6C654368 
 4039      616E6E65 
 4039      6C00
 4040              	.LASF75:
 4041 032a 63685F73 		.ascii	"ch_system_t\000"
 4041      79737465 
 4041      6D5F7400 
 4042              	.LASF132:
 4043 0336 63616C6C 		.ascii	"callback\000"
 4043      6261636B 
 4043      00
 4044              	.LASF126:
 4045 033f 73746D33 		.ascii	"stm32_tim_t\000"
 4045      325F7469 
 4045      6D5F7400 
 4046              	.LASF54:
 4047 034b 63685F72 		.ascii	"ch_ready_list\000"
 4047      65616479 
 4047      5F6C6973 
 4047      7400
 4048              	.LASF24:
 4049 0359 6576656E 		.ascii	"eventmask_t\000"
 4049      746D6173 
 4049      6B5F7400 
 4050              	.LASF172:
 4051 0365 70776D5F 		.ascii	"pwm_lld_disable_channel_notification\000"
 4051      6C6C645F 
 4051      64697361 
 4051      626C655F 
 4051      6368616E 
 4052              	.LASF6:
 4053 038a 5F5F696E 		.ascii	"__int32_t\000"
 4053      7433325F 
 4053      7400
 4054              	.LASF147:
 4055 0394 70776D70 		.ascii	"pwmp\000"
 4055      00
 4056              	.LASF83:
 4057 0399 73746B61 		.ascii	"stkalign_t\000"
ARM GAS  /tmp/ccgG1Gyw.s 			page 75


 4057      6C69676E 
 4057      5F7400
 4058              	.LASF103:
 4059 03a4 6D757465 		.ascii	"mutex_t\000"
 4059      785F7400 
 4060              	.LASF40:
 4061 03ac 705F7761 		.ascii	"p_waiting\000"
 4061      6974696E 
 4061      6700
 4062              	.LASF148:
 4063 03b6 70776D53 		.ascii	"pwmStop\000"
 4063      746F7000 
 4064              	.LASF81:
 4065 03be 73697A65 		.ascii	"sizetype\000"
 4065      74797065 
 4065      00
 4066              	.LASF47:
 4067 03c7 74687265 		.ascii	"thread_reference_t\000"
 4067      61645F72 
 4067      65666572 
 4067      656E6365 
 4067      5F7400
 4068              	.LASF70:
 4069 03da 63685F76 		.ascii	"ch_virtual_timers_list\000"
 4069      69727475 
 4069      616C5F74 
 4069      696D6572 
 4069      735F6C69 
 4070              	.LASF156:
 4071 03f1 70776D44 		.ascii	"pwmDisablePeriodicNotification\000"
 4071      69736162 
 4071      6C655065 
 4071      72696F64 
 4071      69634E6F 
 4072              	.LASF145:
 4073 0410 70776D4F 		.ascii	"pwmObjectInit\000"
 4073      626A6563 
 4073      74496E69 
 4073      7400
 4074              	.LASF43:
 4075 041e 705F6570 		.ascii	"p_epending\000"
 4075      656E6469 
 4075      6E6700
 4076              	.LASF48:
 4077 0429 74687265 		.ascii	"threads_list_t\000"
 4077      6164735F 
 4077      6C697374 
 4077      5F7400
 4078              	.LASF33:
 4079 0438 705F6F6C 		.ascii	"p_older\000"
 4079      64657200 
 4080              	.LASF171:
 4081 0440 70776D5F 		.ascii	"pwm_lld_init\000"
 4081      6C6C645F 
 4081      696E6974 
 4081      00
 4082              	.LASF57:
ARM GAS  /tmp/ccgG1Gyw.s 			page 76


 4083 044d 725F6374 		.ascii	"r_ctx\000"
 4083      7800
 4084              	.LASF87:
 4085 0453 746D5F63 		.ascii	"tm_calibration_t\000"
 4085      616C6962 
 4085      72617469 
 4085      6F6E5F74 
 4085      00
 4086              	.LASF60:
 4087 0464 725F6375 		.ascii	"r_current\000"
 4087      7272656E 
 4087      7400
 4088              	.LASF59:
 4089 046e 725F6F6C 		.ascii	"r_older\000"
 4089      64657200 
 4090              	.LASF138:
 4091 0476 5F5F656E 		.ascii	"__enable_irq\000"
 4091      61626C65 
 4091      5F697271 
 4091      00
 4092              	.LASF11:
 4093 0483 5F5F7569 		.ascii	"__uint64_t\000"
 4093      6E743634 
 4093      5F7400
 4094              	.LASF165:
 4095 048e 70776D5F 		.ascii	"pwm_lld_disable_periodic_notification\000"
 4095      6C6C645F 
 4095      64697361 
 4095      626C655F 
 4095      70657269 
 4096              	.LASF137:
 4097 04b4 5F5F6469 		.ascii	"__disable_irq\000"
 4097      7361626C 
 4097      655F6972 
 4097      7100
 4098              	.LASF62:
 4099 04c2 76697274 		.ascii	"virtual_timer_t\000"
 4099      75616C5F 
 4099      74696D65 
 4099      725F7400 
 4100              	.LASF29:
 4101 04d2 705F7072 		.ascii	"p_prev\000"
 4101      657600
 4102              	.LASF22:
 4103 04d9 74707269 		.ascii	"tprio_t\000"
 4103      6F5F7400 
 4104              	.LASF73:
 4105 04e1 63685F73 		.ascii	"ch_system_debug\000"
 4105      79737465 
 4105      6D5F6465 
 4105      62756700 
 4106              	.LASF104:
 4107 04f1 5F426F6F 		.ascii	"_Bool\000"
 4107      6C00
 4108              	.LASF14:
 4109 04f7 696E7433 		.ascii	"int32_t\000"
 4109      325F7400 
ARM GAS  /tmp/ccgG1Gyw.s 			page 77


 4110              	.LASF2:
 4111 04ff 756E7369 		.ascii	"unsigned char\000"
 4111      676E6564 
 4111      20636861 
 4111      7200
 4112              	.LASF99:
 4113 050d 6D5F7175 		.ascii	"m_queue\000"
 4113      65756500 
 4114              	.LASF159:
 4115 0515 49544D5F 		.ascii	"ITM_RxBuffer\000"
 4115      52784275 
 4115      66666572 
 4115      00
 4116              	.LASF97:
 4117 0522 735F636E 		.ascii	"s_cnt\000"
 4117      7400
 4118              	.LASF44:
 4119 0528 705F6D74 		.ascii	"p_mtxlist\000"
 4119      786C6973 
 4119      7400
 4120              	.LASF168:
 4121 0532 43686962 		.ascii	"ChibiOS_3.0.2/os/hal/src/pwm.c\000"
 4121      694F535F 
 4121      332E302E 
 4121      322F6F73 
 4121      2F68616C 
 4122              	.LASF35:
 4123 0551 705F7374 		.ascii	"p_state\000"
 4123      61746500 
 4124              	.LASF38:
 4125 0559 705F7072 		.ascii	"p_preempt\000"
 4125      65656D70 
 4125      7400
 4126              	.LASF56:
 4127 0563 725F7072 		.ascii	"r_prio\000"
 4127      696F00
 4128              	.LASF94:
 4129 056a 65776D61 		.ascii	"ewmask\000"
 4129      736B00
 4130              	.LASF28:
 4131 0571 705F6E65 		.ascii	"p_next\000"
 4131      787400
 4132              	.LASF129:
 4133 0578 70776D63 		.ascii	"pwmchnmsk_t\000"
 4133      686E6D73 
 4133      6B5F7400 
 4134              	.LASF36:
 4135 0584 705F666C 		.ascii	"p_flags\000"
 4135      61677300 
 4136              	.LASF149:
 4137 058c 5F5F6675 		.ascii	"__func__\000"
 4137      6E635F5F 
 4137      00
 4138              	.LASF141:
 4139 0595 63685379 		.ascii	"chSysLock\000"
 4139      734C6F63 
 4139      6B00
ARM GAS  /tmp/ccgG1Gyw.s 			page 78


 4140              	.LASF76:
 4141 059f 63685F73 		.ascii	"ch_system\000"
 4141      79737465 
 4141      6D00
 4142              	.LASF143:
 4143 05a9 6F73616C 		.ascii	"osalSysUnlock\000"
 4143      53797355 
 4143      6E6C6F63 
 4143      6B00
 4144              	.LASF152:
 4145 05b7 6368616E 		.ascii	"channel\000"
 4145      6E656C00 
 4146              	.LASF63:
 4147 05bf 63685F76 		.ascii	"ch_virtual_timer\000"
 4147      69727475 
 4147      616C5F74 
 4147      696D6572 
 4147      00
 4148              	.LASF95:
 4149 05d0 63685F73 		.ascii	"ch_semaphore\000"
 4149      656D6170 
 4149      686F7265 
 4149      00
 4150              	.LASF125:
 4151 05dd 43435852 		.ascii	"CCXR\000"
 4151      00
 4152              	.LASF161:
 4153 05e2 70776D5F 		.ascii	"pwm_lld_stop\000"
 4153      6C6C645F 
 4153      73746F70 
 4153      00
 4154              	.LASF15:
 4155 05ef 75696E74 		.ascii	"uint32_t\000"
 4155      33325F74 
 4155      00
 4156              	.LASF93:
 4157 05f8 77746D74 		.ascii	"wtmtxp\000"
 4157      787000
 4158              	.LASF55:
 4159 05ff 725F7175 		.ascii	"r_queue\000"
 4159      65756500 
 4160              	.LASF113:
 4161 0607 656E6162 		.ascii	"enabled\000"
 4161      6C656400 
 4162              	.LASF9:
 4163 060f 6C6F6E67 		.ascii	"long unsigned int\000"
 4163      20756E73 
 4163      69676E65 
 4163      6420696E 
 4163      7400
 4164              	.LASF162:
 4165 0621 70776D5F 		.ascii	"pwm_lld_enable_channel\000"
 4165      6C6C645F 
 4165      656E6162 
 4165      6C655F63 
 4165      68616E6E 
 4166              	.LASF106:
ARM GAS  /tmp/ccgG1Gyw.s 			page 79


 4167 0638 50574D5F 		.ascii	"PWM_STOP\000"
 4167      53544F50 
 4167      00
 4168              	.LASF102:
 4169 0641 63686172 		.ascii	"char\000"
 4169      00
 4170              	.LASF131:
 4171 0646 6D6F6465 		.ascii	"mode\000"
 4171      00
 4172              	.LASF111:
 4173 064b 636F6E66 		.ascii	"config\000"
 4173      696700
 4174              	.LASF123:
 4175 0652 444D4152 		.ascii	"DMAR\000"
 4175      00
 4176              	.LASF167:
 4177 0657 474E5520 		.ascii	"GNU C 4.9.3 20150529 (release) [ARM/embedded-4_9-br"
 4177      4320342E 
 4177      392E3320 
 4177      32303135 
 4177      30353239 
 4178 068a 616E6368 		.ascii	"anch revision 227977] -mcpu=cortex-m4 -mfloat-abi=h"
 4178      20726576 
 4178      6973696F 
 4178      6E203232 
 4178      37393737 
 4179 06bd 61726420 		.ascii	"ard -mfpu=fpv4-sp-d16 -mno-thumb-interwork -mthumb "
 4179      2D6D6670 
 4179      753D6670 
 4179      76342D73 
 4179      702D6431 
 4180 06f0 2D676764 		.ascii	"-ggdb -O2 -std=gnu99 -fomit-frame-pointer -falign-f"
 4180      62202D4F 
 4180      32202D73 
 4180      74643D67 
 4180      6E753939 
 4181 0723 756E6374 		.ascii	"unctions=16 -ffunction-sections -fdata-sections -fn"
 4181      696F6E73 
 4181      3D313620 
 4181      2D666675 
 4181      6E637469 
 4182 0756 6F2D636F 		.ascii	"o-common -fsingle-precision-constant\000"
 4182      6D6D6F6E 
 4182      202D6673 
 4182      696E676C 
 4182      652D7072 
 4183              	.LASF121:
 4184 077b 43434552 		.ascii	"CCER\000"
 4184      00
 4185              	.LASF101:
 4186 0780 6D5F6E65 		.ascii	"m_next\000"
 4186      787400
 4187              	.LASF26:
 4188 0787 73797374 		.ascii	"systime_t\000"
 4188      696D655F 
 4188      7400
 4189              	.LASF45:
ARM GAS  /tmp/ccgG1Gyw.s 			page 80


 4190 0791 705F7265 		.ascii	"p_realprio\000"
 4190      616C7072 
 4190      696F00
 4191              	.LASF61:
 4192 079c 76746675 		.ascii	"vtfunc_t\000"
 4192      6E635F74 
 4192      00
 4193              	.LASF8:
 4194 07a5 5F5F7569 		.ascii	"__uint32_t\000"
 4194      6E743332 
 4194      5F7400
 4195              	.LASF155:
 4196 07b0 70776D45 		.ascii	"pwmEnablePeriodicNotification\000"
 4196      6E61626C 
 4196      65506572 
 4196      696F6469 
 4196      634E6F74 
 4197              	.LASF112:
 4198 07ce 70657269 		.ascii	"period\000"
 4198      6F6400
 4199              	.LASF74:
 4200 07d5 70616E69 		.ascii	"panic_msg\000"
 4200      635F6D73 
 4200      6700
 4201              	.LASF86:
 4202 07df 6F666673 		.ascii	"offset\000"
 4202      657400
 4203              	.LASF84:
 4204 07e6 636F6E74 		.ascii	"context\000"
 4204      65787400 
 4205              	.LASF133:
 4206 07ee 50574D43 		.ascii	"PWMChannelConfig\000"
 4206      68616E6E 
 4206      656C436F 
 4206      6E666967 
 4206      00
 4207              	.LASF17:
 4208 07ff 7274636E 		.ascii	"rtcnt_t\000"
 4208      745F7400 
 4209              	.LASF68:
 4210 0807 76745F70 		.ascii	"vt_par\000"
 4210      617200
 4211              	.LASF136:
 4212 080e 50574D43 		.ascii	"PWMConfig\000"
 4212      6F6E6669 
 4212      6700
 4213              	.LASF51:
 4214 0818 74687265 		.ascii	"threads_queue_t\000"
 4214      6164735F 
 4214      71756575 
 4214      655F7400 
 4215              	.LASF98:
 4216 0828 63685F6D 		.ascii	"ch_mutex\000"
 4216      75746578 
 4216      00
 4217              	.LASF37:
 4218 0831 705F7265 		.ascii	"p_refs\000"
ARM GAS  /tmp/ccgG1Gyw.s 			page 81


 4218      667300
 4219              	.LASF27:
 4220 0838 74687265 		.ascii	"thread_t\000"
 4220      61645F74 
 4220      00
 4221              	.LASF77:
 4222 0841 726C6973 		.ascii	"rlist\000"
 4222      7400
 4223              	.LASF13:
 4224 0847 75696E74 		.ascii	"uint8_t\000"
 4224      385F7400 
 4225              	.LASF158:
 4226 084f 70776D44 		.ascii	"pwmDisableChannelNotification\000"
 4226      69736162 
 4226      6C654368 
 4226      616E6E65 
 4226      6C4E6F74 
 4227              	.LASF109:
 4228 086d 50574D44 		.ascii	"PWMDriver\000"
 4228      72697665 
 4228      7200
 4229              	.LASF108:
 4230 0877 70776D73 		.ascii	"pwmstate_t\000"
 4230      74617465 
 4230      5F7400
 4231              	.LASF130:
 4232 0882 70776D63 		.ascii	"pwmcnt_t\000"
 4232      6E745F74 
 4232      00
 4233              	.LASF90:
 4234 088b 77746F62 		.ascii	"wtobjp\000"
 4234      6A7000
 4235              	.LASF34:
 4236 0892 705F6E61 		.ascii	"p_name\000"
 4236      6D6500
 4237              	.LASF71:
 4238 0899 76745F73 		.ascii	"vt_systime\000"
 4238      79737469 
 4238      6D6500
 4239              	.LASF18:
 4240 08a4 746D6F64 		.ascii	"tmode_t\000"
 4240      655F7400 
 4241              	.LASF170:
 4242 08ac 63685379 		.ascii	"chSysUnlock\000"
 4242      73556E6C 
 4242      6F636B00 
 4243              	.LASF42:
 4244 08b8 705F6D73 		.ascii	"p_msg\000"
 4244      6700
 4245              	.LASF115:
 4246 08be 636C6F63 		.ascii	"clock\000"
 4246      6B00
 4247              	.LASF105:
 4248 08c4 50574D5F 		.ascii	"PWM_UNINIT\000"
 4248      554E494E 
 4248      495400
 4249              	.LASF100:
ARM GAS  /tmp/ccgG1Gyw.s 			page 82


 4250 08cf 6D5F6F77 		.ascii	"m_owner\000"
 4250      6E657200 
 4251              	.LASF151:
 4252 08d7 70776D45 		.ascii	"pwmEnableChannel\000"
 4252      6E61626C 
 4252      65436861 
 4252      6E6E656C 
 4252      00
 4253              	.LASF31:
 4254 08e8 705F6374 		.ascii	"p_ctx\000"
 4254      7800
 4255              	.LASF67:
 4256 08ee 76745F66 		.ascii	"vt_func\000"
 4256      756E6300 
 4257              	.LASF135:
 4258 08f6 64696572 		.ascii	"dier\000"
 4258      00
 4259              		.ident	"GCC: (GNU Tools for ARM Embedded Processors) 4.9.3 20150529 (release) [ARM/embedded-4_9-br
ARM GAS  /tmp/ccgG1Gyw.s 			page 83


DEFINED SYMBOLS
                            *ABS*:0000000000000000 pwm.c
     /tmp/ccgG1Gyw.s:21     .text.pwmInit:0000000000000000 $t
     /tmp/ccgG1Gyw.s:27     .text.pwmInit:0000000000000000 pwmInit
     /tmp/ccgG1Gyw.s:42     .text.pwmObjectInit:0000000000000000 $t
     /tmp/ccgG1Gyw.s:48     .text.pwmObjectInit:0000000000000000 pwmObjectInit
     /tmp/ccgG1Gyw.s:72     .text.pwmStart:0000000000000000 $t
     /tmp/ccgG1Gyw.s:78     .text.pwmStart:0000000000000000 pwmStart
     /tmp/ccgG1Gyw.s:145    .text.pwmStop:0000000000000000 $t
     /tmp/ccgG1Gyw.s:151    .text.pwmStop:0000000000000000 pwmStop
     /tmp/ccgG1Gyw.s:212    .text.pwmChangePeriod:0000000000000000 $t
     /tmp/ccgG1Gyw.s:218    .text.pwmChangePeriod:0000000000000000 pwmChangePeriod
     /tmp/ccgG1Gyw.s:269    .text.pwmEnableChannel:0000000000000000 $t
     /tmp/ccgG1Gyw.s:275    .text.pwmEnableChannel:0000000000000000 pwmEnableChannel
     /tmp/ccgG1Gyw.s:333    .text.pwmDisableChannel:0000000000000000 $t
     /tmp/ccgG1Gyw.s:339    .text.pwmDisableChannel:0000000000000000 pwmDisableChannel
     /tmp/ccgG1Gyw.s:397    .text.pwmEnablePeriodicNotification:0000000000000000 $t
     /tmp/ccgG1Gyw.s:403    .text.pwmEnablePeriodicNotification:0000000000000000 pwmEnablePeriodicNotification
     /tmp/ccgG1Gyw.s:454    .text.pwmDisablePeriodicNotification:0000000000000000 $t
     /tmp/ccgG1Gyw.s:460    .text.pwmDisablePeriodicNotification:0000000000000000 pwmDisablePeriodicNotification
     /tmp/ccgG1Gyw.s:511    .text.pwmEnableChannelNotification:0000000000000000 $t
     /tmp/ccgG1Gyw.s:517    .text.pwmEnableChannelNotification:0000000000000000 pwmEnableChannelNotification
     /tmp/ccgG1Gyw.s:568    .text.pwmDisableChannelNotification:0000000000000000 $t
     /tmp/ccgG1Gyw.s:574    .text.pwmDisableChannelNotification:0000000000000000 pwmDisableChannelNotification
                     .debug_frame:0000000000000010 $d

UNDEFINED SYMBOLS
pwm_lld_init
pwm_lld_start
pwm_lld_stop
pwm_lld_enable_channel
pwm_lld_disable_channel
pwm_lld_enable_periodic_notification
pwm_lld_disable_periodic_notification
pwm_lld_enable_channel_notification
pwm_lld_disable_channel_notification
