ARM GAS  /tmp/ccbAOLeB.s 			page 1


   1              		.syntax unified
   2              		.cpu cortex-m4
   3              		.eabi_attribute 27, 1
   4              		.eabi_attribute 28, 1
   5              		.fpu fpv4-sp-d16
   6              		.eabi_attribute 20, 1
   7              		.eabi_attribute 21, 1
   8              		.eabi_attribute 23, 3
   9              		.eabi_attribute 24, 1
  10              		.eabi_attribute 25, 1
  11              		.eabi_attribute 26, 1
  12              		.eabi_attribute 30, 2
  13              		.eabi_attribute 34, 1
  14              		.eabi_attribute 18, 4
  15              		.thumb
  16              		.file	"rf_control.c"
  17              		.text
  18              	.Ltext0:
  19              		.cfi_sections	.debug_frame
  20              		.section	.text.rf_tx_thread,"ax",%progbits
  21              		.align	2
  22              		.p2align 4,,15
  23              		.thumb
  24              		.thumb_func
  25              		.type	rf_tx_thread, %function
  26              	rf_tx_thread:
  27              	.LFB259:
  28              		.file 1 "rf_control.c"
  29              		.loc 1 126 0
  30              		.cfi_startproc
  31              		@ Volatile: function does not return.
  32              		@ args = 0, pretend = 0, frame = 0
  33              		@ frame_needed = 0, uses_anonymous_args = 0
  34              	.LVL0:
  35              	.LBB68:
  36              	.LBB69:
  37              		.file 2 "ChibiOS_3.0.2/os/rt/include/chregistry.h"
  38              		.loc 2 135 0
  39 0000 154B     		ldr	r3, .L9
  40              	.LBE69:
  41              	.LBE68:
  42              		.loc 1 131 0
  43 0002 164A     		ldr	r2, .L9+4
  44              	.LBB72:
  45              	.LBB70:
  46              		.loc 2 135 0
  47 0004 9B69     		ldr	r3, [r3, #24]
  48 0006 DFF86480 		ldr	r8, .L9+20
  49 000a 1549     		ldr	r1, .L9+8
  50 000c 154C     		ldr	r4, .L9+12
  51 000e 164D     		ldr	r5, .L9+16
  52 0010 DFF85C90 		ldr	r9, .L9+24
  53              	.LBE70:
  54              	.LBE72:
  55              		.loc 1 126 0
  56 0014 80B5     		push	{r7, lr}
  57              		.cfi_def_cfa_offset 8
ARM GAS  /tmp/ccbAOLeB.s 			page 2


  58              		.cfi_offset 7, -8
  59              		.cfi_offset 14, -4
  60              	.LBB73:
  61              	.LBB71:
  62              		.loc 2 135 0
  63 0016 9961     		str	r1, [r3, #24]
  64              	.LBE71:
  65              	.LBE73:
  66              		.loc 1 131 0
  67 0018 1360     		str	r3, [r2]
  68              		.loc 1 141 0
  69 001a 4746     		mov	r7, r8
  70              	.LVL1:
  71              	.L5:
  72              		.loc 1 134 0
  73 001c 0120     		movs	r0, #1
  74 001e FFF7FEFF 		bl	chEvtWaitAny
  75              	.LVL2:
  76              		.loc 1 136 0
  77 0022 6420     		movs	r0, #100
  78 0024 FFF7FEFF 		bl	chThdSleep
  79              	.LVL3:
  80              		.loc 1 143 0
  81 0028 0026     		movs	r6, #0
  82              	.L2:
  83 002a D8F80030 		ldr	r3, [r8]
  84              	.L3:
  85              		.loc 1 138 0
  86 002e D9F80020 		ldr	r2, [r9]
  87              		.loc 1 139 0
  88 0032 C3EB0321 		rsb	r1, r3, r3, lsl #8
  89              		.loc 1 138 0
  90 0036 9A42     		cmp	r2, r3
  91              		.loc 1 139 0
  92 0038 4FF6FF70 		movw	r0, #65535
  93 003c 2144     		add	r1, r1, r4
  94              		.loc 1 138 0
  95 003e EDD0     		beq	.L5
  96              		.loc 1 139 0
  97 0040 EA5C     		ldrb	r2, [r5, r3]	@ zero_extendqisi2
  98 0042 FFF7FEFF 		bl	basicRfSendPacket
  99              	.LVL4:
 100              		.loc 1 141 0
 101 0046 D8F80030 		ldr	r3, [r8]
 102 004a 0133     		adds	r3, r3, #1
 103              		.loc 1 142 0
 104 004c 092B     		cmp	r3, #9
 105              		.loc 1 141 0
 106 004e C8F80030 		str	r3, [r8]
 107              		.loc 1 142 0
 108 0052 ECDD     		ble	.L3
 109              		.loc 1 143 0
 110 0054 3E60     		str	r6, [r7]
 111 0056 E8E7     		b	.L2
 112              	.L10:
 113              		.align	2
 114              	.L9:
ARM GAS  /tmp/ccbAOLeB.s 			page 3


 115 0058 00000000 		.word	ch
 116 005c 00000000 		.word	.LANCHOR0
 117 0060 00000000 		.word	.LC0
 118 0064 00000000 		.word	.LANCHOR1
 119 0068 00000000 		.word	.LANCHOR2
 120 006c 00000000 		.word	.LANCHOR3
 121 0070 00000000 		.word	.LANCHOR4
 122              		.cfi_endproc
 123              	.LFE259:
 124              		.size	rf_tx_thread, .-rf_tx_thread
 125              		.section	.text.rf_control_thread,"ax",%progbits
 126              		.align	2
 127              		.p2align 4,,15
 128              		.thumb
 129              		.thumb_func
 130              		.type	rf_control_thread, %function
 131              	rf_control_thread:
 132              	.LFB258:
 133              		.loc 1 106 0
 134              		.cfi_startproc
 135              		@ args = 0, pretend = 0, frame = 0
 136              		@ frame_needed = 0, uses_anonymous_args = 0
 137              	.LVL5:
 138 0000 08B5     		push	{r3, lr}
 139              		.cfi_def_cfa_offset 8
 140              		.cfi_offset 3, -8
 141              		.cfi_offset 14, -4
 142              	.LBB74:
 143              	.LBB75:
 144              		.loc 2 135 0
 145 0002 0A4B     		ldr	r3, .L18
 146 0004 0A4A     		ldr	r2, .L18+4
 147 0006 9B69     		ldr	r3, [r3, #24]
 148 0008 9A61     		str	r2, [r3, #24]
 149 000a 02E0     		b	.L13
 150              	.LVL6:
 151              	.L12:
 152              	.LBE75:
 153              	.LBE74:
 154              		.loc 1 122 0
 155 000c 0120     		movs	r0, #1
 156 000e FFF7FEFF 		bl	chThdSleep
 157              	.LVL7:
 158              	.L13:
 159              		.loc 1 113 0
 160 0012 FFF7FEFF 		bl	basicRfPacketIsReady
 161              	.LVL8:
 162 0016 0028     		cmp	r0, #0
 163 0018 F8D0     		beq	.L12
 164              		.loc 1 114 0
 165 001a FF21     		movs	r1, #255
 166 001c 0022     		movs	r2, #0
 167 001e 0548     		ldr	r0, .L18+8
 168 0020 FFF7FEFF 		bl	basicRfReceive
 169              	.LVL9:
 170              		.loc 1 119 0
 171 0024 0020     		movs	r0, #0
ARM GAS  /tmp/ccbAOLeB.s 			page 4


 172 0026 FFF7FEFF 		bl	led_toggle
 173              	.LVL10:
 174 002a EFE7     		b	.L12
 175              	.L19:
 176              		.align	2
 177              	.L18:
 178 002c 00000000 		.word	ch
 179 0030 08000000 		.word	.LC1
 180 0034 00000000 		.word	.LANCHOR5
 181              		.cfi_endproc
 182              	.LFE258:
 183              		.size	rf_control_thread, .-rf_control_thread
 184              		.section	.text.wakeup_tx,"ax",%progbits
 185              		.align	2
 186              		.p2align 4,,15
 187              		.thumb
 188              		.thumb_func
 189              		.type	wakeup_tx, %function
 190              	wakeup_tx:
 191              	.LFB260:
 192              		.loc 1 149 0
 193              		.cfi_startproc
 194              		@ args = 0, pretend = 0, frame = 0
 195              		@ frame_needed = 0, uses_anonymous_args = 0
 196              	.LVL11:
 197 0000 08B5     		push	{r3, lr}
 198              		.cfi_def_cfa_offset 8
 199              		.cfi_offset 3, -8
 200              		.cfi_offset 14, -4
 201              	.LBB76:
 202              	.LBB77:
 203              	.LBB78:
 204              	.LBB79:
 205              	.LBB80:
 206              		.file 3 "ChibiOS_3.0.2/os/ext/CMSIS/include/core_cmFunc.h"
 207              		.loc 3 342 0
 208              	@ 342 "ChibiOS_3.0.2/os/ext/CMSIS/include/core_cmFunc.h" 1
 209 0002 72B6     		cpsid i
 210              	@ 0 "" 2
 211              		.thumb
 212              	.LBE80:
 213              	.LBE79:
 214              	.LBE78:
 215              	.LBE77:
 216              	.LBE76:
 217              		.loc 1 153 0
 218 0004 034B     		ldr	r3, .L22
 219 0006 0121     		movs	r1, #1
 220 0008 1868     		ldr	r0, [r3]
 221              	.LVL12:
 222 000a FFF7FEFF 		bl	chEvtSignalI
 223              	.LVL13:
 224              	.LBB81:
 225              	.LBB82:
 226              	.LBB83:
 227              	.LBB84:
 228              	.LBB85:
ARM GAS  /tmp/ccbAOLeB.s 			page 5


 229              		.loc 3 331 0
 230              	@ 331 "ChibiOS_3.0.2/os/ext/CMSIS/include/core_cmFunc.h" 1
 231 000e 62B6     		cpsie i
 232              	@ 0 "" 2
 233              		.thumb
 234 0010 08BD     		pop	{r3, pc}
 235              	.L23:
 236 0012 00BF     		.align	2
 237              	.L22:
 238 0014 00000000 		.word	.LANCHOR0
 239              	.LBE85:
 240              	.LBE84:
 241              	.LBE83:
 242              	.LBE82:
 243              	.LBE81:
 244              		.cfi_endproc
 245              	.LFE260:
 246              		.size	wakeup_tx, .-wakeup_tx
 247              		.section	.text.rf_control_init,"ax",%progbits
 248              		.align	2
 249              		.p2align 4,,15
 250              		.global	rf_control_init
 251              		.thumb
 252              		.thumb_func
 253              		.type	rf_control_init, %function
 254              	rf_control_init:
 255              	.LFB256:
 256              		.loc 1 45 0
 257              		.cfi_startproc
 258              		@ args = 0, pretend = 0, frame = 0
 259              		@ frame_needed = 0, uses_anonymous_args = 0
 260 0000 30B5     		push	{r4, r5, lr}
 261              		.cfi_def_cfa_offset 12
 262              		.cfi_offset 4, -12
 263              		.cfi_offset 5, -8
 264              		.cfi_offset 14, -4
 265              		.loc 1 46 0
 266 0002 154A     		ldr	r2, .L28
 267              		.loc 1 47 0
 268 0004 154B     		ldr	r3, .L28+4
 269              		.loc 1 46 0
 270 0006 0024     		movs	r4, #0
 271              		.loc 1 45 0
 272 0008 83B0     		sub	sp, sp, #12
 273              		.cfi_def_cfa_offset 24
 274              		.loc 1 46 0
 275 000a 1460     		str	r4, [r2]
 276              		.loc 1 47 0
 277 000c 1C60     		str	r4, [r3]
 278              		.loc 1 50 0
 279 000e FFF7FEFF 		bl	halAssyInit
 280              	.LVL14:
 281              		.loc 1 51 0
 282 0012 134B     		ldr	r3, .L28+8
 283              		.loc 1 52 0
 284 0014 0C21     		movs	r1, #12
 285              		.loc 1 54 0
ARM GAS  /tmp/ccbAOLeB.s 			page 6


 286 0016 0122     		movs	r2, #1
 287              		.loc 1 51 0
 288 0018 4FF61125 		movw	r5, #64017
 289              		.loc 1 59 0
 290 001c 1846     		mov	r0, r3
 291              		.loc 1 53 0
 292 001e 5C71     		strb	r4, [r3, #5]
 293              		.loc 1 51 0
 294 0020 5D80     		strh	r5, [r3, #2]	@ movhi
 295              		.loc 1 52 0
 296 0022 1971     		strb	r1, [r3, #4]
 297              		.loc 1 54 0
 298 0024 1A80     		strh	r2, [r3]	@ movhi
 299              		.loc 1 59 0
 300 0026 FFF7FEFF 		bl	basicRfInit
 301              	.LVL15:
 302 002a 0128     		cmp	r0, #1
 303 002c 00D1     		bne	.L25
 304              	.L26:
 305              		.loc 1 60 0 discriminator 1
 306 002e FEE7     		b	.L26
 307              	.L25:
 308              		.loc 1 63 0
 309 0030 FFF7FEFF 		bl	basicRfReceiveOn
 310              	.LVL16:
 311              		.loc 1 65 0
 312 0034 0094     		str	r4, [sp]
 313 0036 0B4B     		ldr	r3, .L28+12
 314 0038 0B48     		ldr	r0, .L28+16
 315 003a 40F69811 		movw	r1, #2456
 316 003e 4022     		movs	r2, #64
 317 0040 FFF7FEFF 		bl	chThdCreateStatic
 318              	.LVL17:
 319              		.loc 1 67 0
 320 0044 0094     		str	r4, [sp]
 321 0046 094B     		ldr	r3, .L28+20
 322 0048 0948     		ldr	r0, .L28+24
 323 004a 4FF4B361 		mov	r1, #1432
 324 004e 4022     		movs	r2, #64
 325 0050 FFF7FEFF 		bl	chThdCreateStatic
 326              	.LVL18:
 327              		.loc 1 69 0
 328 0054 03B0     		add	sp, sp, #12
 329              		.cfi_def_cfa_offset 12
 330              		@ sp needed
 331 0056 30BD     		pop	{r4, r5, pc}
 332              	.L29:
 333              		.align	2
 334              	.L28:
 335 0058 00000000 		.word	.LANCHOR3
 336 005c 00000000 		.word	.LANCHOR4
 337 0060 00000000 		.word	.LANCHOR6
 338 0064 00000000 		.word	rf_control_thread
 339 0068 00000000 		.word	.LANCHOR7
 340 006c 00000000 		.word	rf_tx_thread
 341 0070 00000000 		.word	.LANCHOR8
 342              		.cfi_endproc
ARM GAS  /tmp/ccbAOLeB.s 			page 7


 343              	.LFE256:
 344              		.size	rf_control_init, .-rf_control_init
 345              		.section	.text.rf_control_send_packet,"ax",%progbits
 346              		.align	2
 347              		.p2align 4,,15
 348              		.global	rf_control_send_packet
 349              		.thumb
 350              		.thumb_func
 351              		.type	rf_control_send_packet, %function
 352              	rf_control_send_packet:
 353              	.LFB257:
 354              		.loc 1 77 0
 355              		.cfi_startproc
 356              		@ args = 0, pretend = 0, frame = 0
 357              		@ frame_needed = 0, uses_anonymous_args = 0
 358              	.LVL19:
 359 0000 70B5     		push	{r4, r5, r6, lr}
 360              		.cfi_def_cfa_offset 16
 361              		.cfi_offset 4, -16
 362              		.cfi_offset 5, -12
 363              		.cfi_offset 6, -8
 364              		.cfi_offset 14, -4
 365              		.loc 1 78 0
 366 0002 0F4D     		ldr	r5, .L37
 367 0004 0F4A     		ldr	r2, .L37+4
 368 0006 2C68     		ldr	r4, [r5]
 369              		.loc 1 77 0
 370 0008 0E46     		mov	r6, r1
 371              		.loc 1 78 0
 372 000a C4EB0423 		rsb	r3, r4, r4, lsl #8
 373 000e 0146     		mov	r1, r0
 374              	.LVL20:
 375 0010 D018     		adds	r0, r2, r3
 376              	.LVL21:
 377 0012 3246     		mov	r2, r6
 378 0014 FFF7FEFF 		bl	memcpy
 379              	.LVL22:
 380              		.loc 1 81 0
 381 0018 631C     		adds	r3, r4, #1
 382              		.loc 1 79 0
 383 001a 0B4A     		ldr	r2, .L37+8
 384              		.loc 1 82 0
 385 001c 092B     		cmp	r3, #9
 386              		.loc 1 83 0
 387 001e C8BF     		it	gt
 388 0020 0023     		movgt	r3, #0
 389              		.loc 1 79 0
 390 0022 1655     		strb	r6, [r2, r4]
 391              		.loc 1 83 0
 392 0024 2B60     		str	r3, [r5]
 393              	.LBB99:
 394              	.LBB100:
 395              	.LBB101:
 396              	.LBB102:
 397              		.loc 3 342 0
 398              	@ 342 "ChibiOS_3.0.2/os/ext/CMSIS/include/core_cmFunc.h" 1
 399 0026 72B6     		cpsid i
ARM GAS  /tmp/ccbAOLeB.s 			page 8


 400              	@ 0 "" 2
 401              	.LVL23:
 402              		.thumb
 403 0028 0848     		ldr	r0, .L37+12
 404              	.LBE102:
 405              	.LBE101:
 406              	.LBE100:
 407              	.LBE99:
 408              		.loc 1 87 0
 409 002a C368     		ldr	r3, [r0, #12]
 410 002c 0BB1     		cbz	r3, .L36
 411              	.LBB103:
 412              	.LBB104:
 413              	.LBB105:
 414              	.LBB106:
 415              	.LBB107:
 416              		.loc 3 331 0
 417              	@ 331 "ChibiOS_3.0.2/os/ext/CMSIS/include/core_cmFunc.h" 1
 418 002e 62B6     		cpsie i
 419              	@ 0 "" 2
 420              		.thumb
 421 0030 70BD     		pop	{r4, r5, r6, pc}
 422              	.L36:
 423              	.LVL24:
 424              	.LBE107:
 425              	.LBE106:
 426              	.LBE105:
 427              	.LBE104:
 428              	.LBE103:
 429              	.LBB112:
 430              	.LBB113:
 431              		.file 4 "ChibiOS_3.0.2/os/rt/include/chvt.h"
 432              		.loc 4 424 0
 433 0032 3221     		movs	r1, #50
 434 0034 064A     		ldr	r2, .L37+16
 435 0036 FFF7FEFF 		bl	chVTDoSetI
 436              	.LVL25:
 437              	.LBE113:
 438              	.LBE112:
 439              	.LBB114:
 440              	.LBB111:
 441              	.LBB110:
 442              	.LBB109:
 443              	.LBB108:
 444              		.loc 3 331 0
 445              	@ 331 "ChibiOS_3.0.2/os/ext/CMSIS/include/core_cmFunc.h" 1
 446 003a 62B6     		cpsie i
 447              	@ 0 "" 2
 448              		.thumb
 449 003c 70BD     		pop	{r4, r5, r6, pc}
 450              	.L38:
 451 003e 00BF     		.align	2
 452              	.L37:
 453 0040 00000000 		.word	.LANCHOR4
 454 0044 00000000 		.word	.LANCHOR1
 455 0048 00000000 		.word	.LANCHOR2
 456 004c 00000000 		.word	.LANCHOR9
ARM GAS  /tmp/ccbAOLeB.s 			page 9


 457 0050 00000000 		.word	wakeup_tx
 458              	.LBE108:
 459              	.LBE109:
 460              	.LBE110:
 461              	.LBE111:
 462              	.LBE114:
 463              		.cfi_endproc
 464              	.LFE257:
 465              		.size	rf_control_send_packet, .-rf_control_send_packet
 466              		.section	.bss.rf_control_thread_wa,"aw",%nobits
 467              		.align	3
 468              		.set	.LANCHOR7,. + 0
 469              		.type	rf_control_thread_wa, %object
 470              		.size	rf_control_thread_wa, 2456
 471              	rf_control_thread_wa:
 472 0000 00000000 		.space	2456
 472      00000000 
 472      00000000 
 472      00000000 
 472      00000000 
 473              		.section	.bss.tx_buffer,"aw",%nobits
 474              		.align	2
 475              		.set	.LANCHOR1,. + 0
 476              		.type	tx_buffer, %object
 477              		.size	tx_buffer, 2550
 478              	tx_buffer:
 479 0000 00000000 		.space	2550
 479      00000000 
 479      00000000 
 479      00000000 
 479      00000000 
 480              		.section	.bss.rx_buffer,"aw",%nobits
 481              		.align	2
 482              		.set	.LANCHOR5,. + 0
 483              		.type	rx_buffer, %object
 484              		.size	rx_buffer, 255
 485              	rx_buffer:
 486 0000 00000000 		.space	255
 486      00000000 
 486      00000000 
 486      00000000 
 486      00000000 
 487              		.section	.bss.tx_tp,"aw",%nobits
 488              		.align	2
 489              		.set	.LANCHOR0,. + 0
 490              		.type	tx_tp, %object
 491              		.size	tx_tp, 4
 492              	tx_tp:
 493 0000 00000000 		.space	4
 494              		.section	.bss.rf_tx_thread_wa,"aw",%nobits
 495              		.align	3
 496              		.set	.LANCHOR8,. + 0
 497              		.type	rf_tx_thread_wa, %object
 498              		.size	rf_tx_thread_wa, 1432
 499              	rf_tx_thread_wa:
 500 0000 00000000 		.space	1432
 500      00000000 
ARM GAS  /tmp/ccbAOLeB.s 			page 10


 500      00000000 
 500      00000000 
 500      00000000 
 501              		.section	.bss.tx_slot_write,"aw",%nobits
 502              		.align	2
 503              		.set	.LANCHOR4,. + 0
 504              		.type	tx_slot_write, %object
 505              		.size	tx_slot_write, 4
 506              	tx_slot_write:
 507 0000 00000000 		.space	4
 508              		.section	.bss.tx_slot_len,"aw",%nobits
 509              		.align	2
 510              		.set	.LANCHOR2,. + 0
 511              		.type	tx_slot_len, %object
 512              		.size	tx_slot_len, 10
 513              	tx_slot_len:
 514 0000 00000000 		.space	10
 514      00000000 
 514      0000
 515              		.section	.rodata.str1.4,"aMS",%progbits,1
 516              		.align	2
 517              	.LC0:
 518 0000 52462054 		.ascii	"RF Tx\000"
 518      7800
 519 0006 0000     		.space	2
 520              	.LC1:
 521 0008 52462043 		.ascii	"RF Control\000"
 521      6F6E7472 
 521      6F6C00
 522              		.section	.bss.vt,"aw",%nobits
 523              		.align	2
 524              		.set	.LANCHOR9,. + 0
 525              		.type	vt, %object
 526              		.size	vt, 20
 527              	vt:
 528 0000 00000000 		.space	20
 528      00000000 
 528      00000000 
 528      00000000 
 528      00000000 
 529              		.section	.bss.basicRfConfig,"aw",%nobits
 530              		.align	2
 531              		.set	.LANCHOR6,. + 0
 532              		.type	basicRfConfig, %object
 533              		.size	basicRfConfig, 6
 534              	basicRfConfig:
 535 0000 00000000 		.space	6
 535      0000
 536              		.section	.bss.tx_slot_read,"aw",%nobits
 537              		.align	2
 538              		.set	.LANCHOR3,. + 0
 539              		.type	tx_slot_read, %object
 540              		.size	tx_slot_read, 4
 541              	tx_slot_read:
 542 0000 00000000 		.space	4
 543              		.text
 544              	.Letext0:
ARM GAS  /tmp/ccbAOLeB.s 			page 11


 545              		.file 5 "/usr/lib/gcc/arm-none-eabi/4.9.3/include/stddef.h"
 546              		.file 6 "/usr/arm-none-eabi/include/machine/_default_types.h"
 547              		.file 7 "/usr/arm-none-eabi/include/sys/_stdint.h"
 548              		.file 8 "ChibiOS_3.0.2/os/rt/ports/ARMCMx/compilers/GCC/chtypes.h"
 549              		.file 9 "ChibiOS_3.0.2/os/rt/include/chsystypes.h"
 550              		.file 10 "ChibiOS_3.0.2/os/rt/include/chschd.h"
 551              		.file 11 "ChibiOS_3.0.2/os/rt/ports/ARMCMx/chcore.h"
 552              		.file 12 "ChibiOS_3.0.2/os/rt/ports/ARMCMx/chcore_v7m.h"
 553              		.file 13 "ChibiOS_3.0.2/os/rt/include/chtm.h"
 554              		.file 14 "ChibiOS_3.0.2/os/rt/include/chsem.h"
 555              		.file 15 "ChibiOS_3.0.2/os/rt/include/chmtx.h"
 556              		.file 16 "ChibiOS_3.0.2/os/rt/include/chthreads.h"
 557              		.file 17 "cc2520/driver/hal_types.h"
 558              		.file 18 "cc2520/basicrf/basic_rf.h"
 559              		.file 19 "ChibiOS_3.0.2/os/rt/include/chsys.h"
 560              		.file 20 "ChibiOS_3.0.2/os/rt/include/chevents.h"
 561              		.file 21 "led.h"
 562              		.file 22 "cc2520/driver/stm32_hw.h"
 563              		.file 23 "ChibiOS_3.0.2/os/ext/CMSIS/include/core_cm4.h"