ARM GAS  /tmp/ccawirHI.s 			page 1


   1              		.syntax unified
   2              		.cpu cortex-m4
   3              		.eabi_attribute 27, 1
   4              		.eabi_attribute 28, 1
   5              		.fpu fpv4-sp-d16
   6              		.eabi_attribute 20, 1
   7              		.eabi_attribute 21, 1
   8              		.eabi_attribute 23, 3
   9              		.eabi_attribute 24, 1
  10              		.eabi_attribute 25, 1
  11              		.eabi_attribute 26, 1
  12              		.eabi_attribute 30, 2
  13              		.eabi_attribute 34, 1
  14              		.eabi_attribute 18, 4
  15              		.thumb
  16              		.file	"serial_usb.c"
  17              		.text
  18              	.Ltext0:
  19              		.cfi_sections	.debug_frame
  20              		.section	.text.onotify,"ax",%progbits
  21              		.align	2
  22              		.p2align 4,,15
  23              		.thumb
  24              		.thumb_func
  25              		.type	onotify, %function
  26              	onotify:
  27              	.LFB265:
  28              		.file 1 "ChibiOS_3.0.2/os/hal/src/serial_usb.c"
  29              		.loc 1 144 0
  30              		.cfi_startproc
  31              		@ args = 0, pretend = 0, frame = 0
  32              		@ frame_needed = 0, uses_anonymous_args = 0
  33              	.LVL0:
  34 0000 10B5     		push	{r4, lr}
  35              		.cfi_def_cfa_offset 8
  36              		.cfi_offset 4, -8
  37              		.cfi_offset 14, -4
  38              		.loc 1 146 0
  39 0002 046A     		ldr	r4, [r0, #32]
  40              	.LVL1:
  41              		.loc 1 150 0
  42 0004 D4F85422 		ldr	r2, [r4, #596]
  43 0008 1368     		ldr	r3, [r2]
  44 000a 1978     		ldrb	r1, [r3]	@ zero_extendqisi2
  45 000c 0429     		cmp	r1, #4
  46 000e 00D0     		beq	.L8
  47              	.L1:
  48 0010 10BD     		pop	{r4, pc}
  49              	.LVL2:
  50              	.L8:
  51              		.loc 1 150 0 is_stmt 0 discriminator 1
  52 0012 217A     		ldrb	r1, [r4, #8]	@ zero_extendqisi2
  53 0014 0229     		cmp	r1, #2
  54 0016 FBD1     		bne	.L1
  55              		.loc 1 157 0 is_stmt 1
  56 0018 1179     		ldrb	r1, [r2, #4]	@ zero_extendqisi2
  57 001a 1A89     		ldrh	r2, [r3, #8]
ARM GAS  /tmp/ccawirHI.s 			page 2


  58 001c 0123     		movs	r3, #1
  59 001e 8B40     		lsls	r3, r3, r1
  60 0020 1342     		tst	r3, r2
  61 0022 F5D1     		bne	.L1
  62              	.LVL3:
  63              	.LBB200:
  64              	.LBB201:
  65              		.file 2 "ChibiOS_3.0.2/os/rt/include/chqueues.h"
  66              		.loc 2 357 0
  67 0024 226C     		ldr	r2, [r4, #64]
  68 0026 E36B     		ldr	r3, [r4, #60]
  69 0028 A16B     		ldr	r1, [r4, #56]
  70 002a D31A     		subs	r3, r2, r3
  71              	.LBE201:
  72              	.LBE200:
  73              		.loc 1 158 0
  74 002c 5B1A     		subs	r3, r3, r1
  75 002e EFD0     		beq	.L1
  76              	.LBB202:
  77              	.LBB203:
  78              	.LBB204:
  79              	.LBB205:
  80              	.LBB206:
  81              	.LBB207:
  82              		.file 3 "ChibiOS_3.0.2/os/ext/CMSIS/include/core_cmFunc.h"
  83              		.loc 3 331 0
  84              	@ 331 "ChibiOS_3.0.2/os/ext/CMSIS/include/core_cmFunc.h" 1
  85 0030 62B6     		cpsie i
  86              	@ 0 "" 2
  87              		.thumb
  88              	.LBE207:
  89              	.LBE206:
  90              	.LBE205:
  91              	.LBE204:
  92              	.LBE203:
  93              	.LBE202:
  94              		.loc 1 161 0
  95 0032 D4F85422 		ldr	r2, [r4, #596]
  96 0036 1068     		ldr	r0, [r2]
  97              	.LVL4:
  98 0038 1179     		ldrb	r1, [r2, #4]	@ zero_extendqisi2
  99 003a 04F13002 		add	r2, r4, #48
 100              	.LVL5:
 101 003e FFF7FEFF 		bl	usbPrepareQueuedTransmit
 102              	.LVL6:
 103              	.LBB208:
 104              	.LBB209:
 105              	.LBB210:
 106              	.LBB211:
 107              	.LBB212:
 108              		.loc 3 342 0
 109              	@ 342 "ChibiOS_3.0.2/os/ext/CMSIS/include/core_cmFunc.h" 1
 110 0042 72B6     		cpsid i
 111              	@ 0 "" 2
 112              		.thumb
 113              	.LBE212:
 114              	.LBE211:
ARM GAS  /tmp/ccawirHI.s 			page 3


 115              	.LBE210:
 116              	.LBE209:
 117              	.LBE208:
 118              		.loc 1 166 0
 119 0044 D4F85432 		ldr	r3, [r4, #596]
 120              		.loc 1 169 0
 121 0048 BDE81040 		pop	{r4, lr}
 122              		.cfi_restore 14
 123              		.cfi_restore 4
 124              		.cfi_def_cfa_offset 0
 125              	.LVL7:
 126              		.loc 1 166 0
 127 004c 1868     		ldr	r0, [r3]
 128 004e 1979     		ldrb	r1, [r3, #4]	@ zero_extendqisi2
 129 0050 FFF7FEBF 		b	usbStartTransmitI
 130              	.LVL8:
 131              		.cfi_endproc
 132              	.LFE265:
 133              		.size	onotify, .-onotify
 134              		.section	.text.inotify,"ax",%progbits
 135              		.align	2
 136              		.p2align 4,,15
 137              		.thumb
 138              		.thumb_func
 139              		.type	inotify, %function
 140              	inotify:
 141              	.LFB264:
 142              		.loc 1 109 0
 143              		.cfi_startproc
 144              		@ args = 0, pretend = 0, frame = 0
 145              		@ frame_needed = 0, uses_anonymous_args = 0
 146              	.LVL9:
 147 0000 10B5     		push	{r4, lr}
 148              		.cfi_def_cfa_offset 8
 149              		.cfi_offset 4, -8
 150              		.cfi_offset 14, -4
 151              		.loc 1 111 0
 152 0002 046A     		ldr	r4, [r0, #32]
 153              	.LVL10:
 154              		.loc 1 115 0
 155 0004 D4F85422 		ldr	r2, [r4, #596]
 156 0008 1368     		ldr	r3, [r2]
 157 000a 1978     		ldrb	r1, [r3]	@ zero_extendqisi2
 158 000c 0429     		cmp	r1, #4
 159 000e 00D0     		beq	.L12
 160              	.LVL11:
 161              	.L9:
 162 0010 10BD     		pop	{r4, pc}
 163              	.LVL12:
 164              	.L12:
 165              		.loc 1 115 0 is_stmt 0 discriminator 1
 166 0012 217A     		ldrb	r1, [r4, #8]	@ zero_extendqisi2
 167 0014 0229     		cmp	r1, #2
 168 0016 FBD1     		bne	.L9
 169              		.loc 1 123 0 is_stmt 1
 170 0018 5179     		ldrb	r1, [r2, #5]	@ zero_extendqisi2
 171              		.loc 1 124 0
ARM GAS  /tmp/ccawirHI.s 			page 4


 172 001a 5889     		ldrh	r0, [r3, #10]
 173              	.LVL13:
 174              		.loc 1 123 0
 175 001c 03EB8103 		add	r3, r3, r1, lsl #2
 176              		.loc 1 124 0
 177 0020 0122     		movs	r2, #1
 178              		.loc 1 123 0
 179 0022 DB68     		ldr	r3, [r3, #12]
 180              		.loc 1 124 0
 181 0024 8A40     		lsls	r2, r2, r1
 182 0026 0242     		tst	r2, r0
 183              		.loc 1 123 0
 184 0028 5B8A     		ldrh	r3, [r3, #18]
 185              	.LVL14:
 186              		.loc 1 124 0
 187 002a F1D1     		bne	.L9
 188              	.LVL15:
 189              	.LBB213:
 190              	.LBB214:
 191              		.loc 2 290 0
 192 002c A269     		ldr	r2, [r4, #24]
 193 002e E169     		ldr	r1, [r4, #28]
 194 0030 6069     		ldr	r0, [r4, #20]
 195 0032 891A     		subs	r1, r1, r2
 196 0034 0A1A     		subs	r2, r1, r0
 197              	.LBE214:
 198              	.LBE213:
 199              		.loc 1 125 0
 200 0036 9342     		cmp	r3, r2
 201 0038 EAD8     		bhi	.L9
 202              	.LBB215:
 203              	.LBB216:
 204              	.LBB217:
 205              	.LBB218:
 206              	.LBB219:
 207              	.LBB220:
 208              		.loc 3 331 0
 209              	@ 331 "ChibiOS_3.0.2/os/ext/CMSIS/include/core_cmFunc.h" 1
 210 003a 62B6     		cpsie i
 211              	@ 0 "" 2
 212              	.LVL16:
 213              		.thumb
 214              	.LBE220:
 215              	.LBE219:
 216              	.LBE218:
 217              	.LBE217:
 218              	.LBE216:
 219              	.LBE215:
 220              		.loc 1 128 0
 221 003c B2FBF3F2 		udiv	r2, r2, r3
 222              	.LVL17:
 223              		.loc 1 129 0
 224 0040 D4F85412 		ldr	r1, [r4, #596]
 225              	.LVL18:
 226 0044 03FB02F3 		mul	r3, r3, r2
 227              	.LVL19:
 228 0048 0868     		ldr	r0, [r1]
ARM GAS  /tmp/ccawirHI.s 			page 5


 229 004a 4979     		ldrb	r1, [r1, #5]	@ zero_extendqisi2
 230 004c 04F10C02 		add	r2, r4, #12
 231              	.LVL20:
 232 0050 FFF7FEFF 		bl	usbPrepareQueuedReceive
 233              	.LVL21:
 234              	.LBB221:
 235              	.LBB222:
 236              	.LBB223:
 237              	.LBB224:
 238              	.LBB225:
 239              		.loc 3 342 0
 240              	@ 342 "ChibiOS_3.0.2/os/ext/CMSIS/include/core_cmFunc.h" 1
 241 0054 72B6     		cpsid i
 242              	@ 0 "" 2
 243              		.thumb
 244              	.LBE225:
 245              	.LBE224:
 246              	.LBE223:
 247              	.LBE222:
 248              	.LBE221:
 249              		.loc 1 134 0
 250 0056 D4F85432 		ldr	r3, [r4, #596]
 251              		.loc 1 137 0
 252 005a BDE81040 		pop	{r4, lr}
 253              		.cfi_restore 14
 254              		.cfi_restore 4
 255              		.cfi_def_cfa_offset 0
 256              	.LVL22:
 257              		.loc 1 134 0
 258 005e 1868     		ldr	r0, [r3]
 259 0060 5979     		ldrb	r1, [r3, #5]	@ zero_extendqisi2
 260 0062 FFF7FEBF 		b	usbStartReceiveI
 261              	.LVL23:
 262              		.cfi_endproc
 263              	.LFE264:
 264              		.size	inotify, .-inotify
 265 0066 00BF     		.section	.text.readt,"ax",%progbits
 266              		.align	2
 267              		.p2align 4,,15
 268              		.thumb
 269              		.thumb_func
 270              		.type	readt, %function
 271              	readt:
 272              	.LFB263:
 273              		.loc 1 94 0
 274              		.cfi_startproc
 275              		@ args = 0, pretend = 0, frame = 0
 276              		@ frame_needed = 0, uses_anonymous_args = 0
 277              		@ link register save eliminated.
 278              	.LVL24:
 279              		.loc 1 96 0
 280 0000 0C30     		adds	r0, r0, #12
 281              	.LVL25:
 282 0002 FFF7FEBF 		b	chIQReadTimeout
 283              	.LVL26:
 284              		.cfi_endproc
 285              	.LFE263:
ARM GAS  /tmp/ccawirHI.s 			page 6


 286              		.size	readt, .-readt
 287 0006 00BF     		.section	.text.read,"ax",%progbits
 288              		.align	2
 289              		.p2align 4,,15
 290              		.thumb
 291              		.thumb_func
 292              		.type	read, %function
 293              	read:
 294              	.LFB257:
 295              		.loc 1 63 0
 296              		.cfi_startproc
 297              		@ args = 0, pretend = 0, frame = 0
 298              		@ frame_needed = 0, uses_anonymous_args = 0
 299              		@ link register save eliminated.
 300              	.LVL27:
 301              		.loc 1 65 0
 302 0000 0C30     		adds	r0, r0, #12
 303              	.LVL28:
 304 0002 4FF0FF33 		mov	r3, #-1
 305 0006 FFF7FEBF 		b	chIQReadTimeout
 306              	.LVL29:
 307              		.cfi_endproc
 308              	.LFE257:
 309              		.size	read, .-read
 310 000a 00BF     		.section	.text.writet,"ax",%progbits
 311              		.align	2
 312              		.p2align 4,,15
 313              		.thumb
 314              		.thumb_func
 315              		.type	writet, %function
 316              	writet:
 317              	.LFB262:
 318              		.loc 1 89 0
 319              		.cfi_startproc
 320              		@ args = 0, pretend = 0, frame = 0
 321              		@ frame_needed = 0, uses_anonymous_args = 0
 322              		@ link register save eliminated.
 323              	.LVL30:
 324              		.loc 1 91 0
 325 0000 3030     		adds	r0, r0, #48
 326              	.LVL31:
 327 0002 FFF7FEBF 		b	chOQWriteTimeout
 328              	.LVL32:
 329              		.cfi_endproc
 330              	.LFE262:
 331              		.size	writet, .-writet
 332 0006 00BF     		.section	.text.write,"ax",%progbits
 333              		.align	2
 334              		.p2align 4,,15
 335              		.thumb
 336              		.thumb_func
 337              		.type	write, %function
 338              	write:
 339              	.LFB256:
 340              		.loc 1 57 0
 341              		.cfi_startproc
 342              		@ args = 0, pretend = 0, frame = 0
ARM GAS  /tmp/ccawirHI.s 			page 7


 343              		@ frame_needed = 0, uses_anonymous_args = 0
 344              		@ link register save eliminated.
 345              	.LVL33:
 346              		.loc 1 59 0
 347 0000 3030     		adds	r0, r0, #48
 348              	.LVL34:
 349 0002 4FF0FF33 		mov	r3, #-1
 350 0006 FFF7FEBF 		b	chOQWriteTimeout
 351              	.LVL35:
 352              		.cfi_endproc
 353              	.LFE256:
 354              		.size	write, .-write
 355 000a 00BF     		.section	.text.gett,"ax",%progbits
 356              		.align	2
 357              		.p2align 4,,15
 358              		.thumb
 359              		.thumb_func
 360              		.type	gett, %function
 361              	gett:
 362              	.LFB261:
 363              		.loc 1 84 0
 364              		.cfi_startproc
 365              		@ args = 0, pretend = 0, frame = 0
 366              		@ frame_needed = 0, uses_anonymous_args = 0
 367              		@ link register save eliminated.
 368              	.LVL36:
 369              		.loc 1 86 0
 370 0000 0C30     		adds	r0, r0, #12
 371              	.LVL37:
 372 0002 FFF7FEBF 		b	chIQGetTimeout
 373              	.LVL38:
 374              		.cfi_endproc
 375              	.LFE261:
 376              		.size	gett, .-gett
 377 0006 00BF     		.section	.text.get,"ax",%progbits
 378              		.align	2
 379              		.p2align 4,,15
 380              		.thumb
 381              		.thumb_func
 382              		.type	get, %function
 383              	get:
 384              	.LFB259:
 385              		.loc 1 74 0
 386              		.cfi_startproc
 387              		@ args = 0, pretend = 0, frame = 0
 388              		@ frame_needed = 0, uses_anonymous_args = 0
 389              		@ link register save eliminated.
 390              	.LVL39:
 391              		.loc 1 76 0
 392 0000 0C30     		adds	r0, r0, #12
 393              	.LVL40:
 394 0002 4FF0FF31 		mov	r1, #-1
 395 0006 FFF7FEBF 		b	chIQGetTimeout
 396              	.LVL41:
 397              		.cfi_endproc
 398              	.LFE259:
 399              		.size	get, .-get
ARM GAS  /tmp/ccawirHI.s 			page 8


 400 000a 00BF     		.section	.text.putt,"ax",%progbits
 401              		.align	2
 402              		.p2align 4,,15
 403              		.thumb
 404              		.thumb_func
 405              		.type	putt, %function
 406              	putt:
 407              	.LFB260:
 408              		.loc 1 79 0
 409              		.cfi_startproc
 410              		@ args = 0, pretend = 0, frame = 0
 411              		@ frame_needed = 0, uses_anonymous_args = 0
 412              		@ link register save eliminated.
 413              	.LVL42:
 414              		.loc 1 81 0
 415 0000 3030     		adds	r0, r0, #48
 416              	.LVL43:
 417 0002 FFF7FEBF 		b	chOQPutTimeout
 418              	.LVL44:
 419              		.cfi_endproc
 420              	.LFE260:
 421              		.size	putt, .-putt
 422 0006 00BF     		.section	.text.put,"ax",%progbits
 423              		.align	2
 424              		.p2align 4,,15
 425              		.thumb
 426              		.thumb_func
 427              		.type	put, %function
 428              	put:
 429              	.LFB258:
 430              		.loc 1 69 0
 431              		.cfi_startproc
 432              		@ args = 0, pretend = 0, frame = 0
 433              		@ frame_needed = 0, uses_anonymous_args = 0
 434              		@ link register save eliminated.
 435              	.LVL45:
 436              		.loc 1 71 0
 437 0000 3030     		adds	r0, r0, #48
 438              	.LVL46:
 439 0002 4FF0FF32 		mov	r2, #-1
 440 0006 FFF7FEBF 		b	chOQPutTimeout
 441              	.LVL47:
 442              		.cfi_endproc
 443              	.LFE258:
 444              		.size	put, .-put
 445 000a 00BF     		.section	.text.sduInit,"ax",%progbits
 446              		.align	2
 447              		.p2align 4,,15
 448              		.global	sduInit
 449              		.thumb
 450              		.thumb_func
 451              		.type	sduInit, %function
 452              	sduInit:
 453              	.LFB266:
 454              		.loc 1 182 0
 455              		.cfi_startproc
 456              		@ args = 0, pretend = 0, frame = 0
ARM GAS  /tmp/ccawirHI.s 			page 9


 457              		@ frame_needed = 0, uses_anonymous_args = 0
 458              		@ link register save eliminated.
 459 0000 7047     		bx	lr
 460              		.cfi_endproc
 461              	.LFE266:
 462              		.size	sduInit, .-sduInit
 463 0002 00BF     		.section	.text.sduObjectInit,"ax",%progbits
 464              		.align	2
 465              		.p2align 4,,15
 466              		.global	sduObjectInit
 467              		.thumb
 468              		.thumb_func
 469              		.type	sduObjectInit, %function
 470              	sduObjectInit:
 471              	.LFB267:
 472              		.loc 1 194 0
 473              		.cfi_startproc
 474              		@ args = 0, pretend = 0, frame = 0
 475              		@ frame_needed = 0, uses_anonymous_args = 0
 476              	.LVL48:
 477              		.loc 1 194 0
 478 0000 10B5     		push	{r4, lr}
 479              		.cfi_def_cfa_offset 8
 480              		.cfi_offset 4, -8
 481              		.cfi_offset 14, -4
 482              		.loc 1 196 0
 483 0002 0346     		mov	r3, r0
 484 0004 0E4A     		ldr	r2, .L24
 485 0006 43F8042B 		str	r2, [r3], #4
 486              	.LVL49:
 487              		.loc 1 194 0
 488 000a 82B0     		sub	sp, sp, #8
 489              		.cfi_def_cfa_offset 16
 490              		.loc 1 194 0
 491 000c 0446     		mov	r4, r0
 492              		.loc 1 198 0
 493 000e 0122     		movs	r2, #1
 494              		.loc 1 199 0
 495 0010 0090     		str	r0, [sp]
 496 0012 04F15401 		add	r1, r4, #84
 497              	.LBB226:
 498              	.LBB227:
 499              	.LBB228:
 500              		.file 4 "ChibiOS_3.0.2/os/rt/include/chevents.h"
 501              		.loc 4 172 0
 502 0016 4360     		str	r3, [r0, #4]
 503              	.LBE228:
 504              	.LBE227:
 505              	.LBE226:
 506              		.loc 1 198 0
 507 0018 0272     		strb	r2, [r0, #8]
 508              		.loc 1 199 0
 509 001a 0A4B     		ldr	r3, .L24+4
 510              	.LVL50:
 511 001c 0C30     		adds	r0, r0, #12
 512              	.LVL51:
 513 001e 4FF48072 		mov	r2, #256
ARM GAS  /tmp/ccawirHI.s 			page 10


 514 0022 FFF7FEFF 		bl	chIQObjectInit
 515              	.LVL52:
 516              		.loc 1 200 0
 517 0026 0094     		str	r4, [sp]
 518 0028 04F13000 		add	r0, r4, #48
 519 002c 04F5AA71 		add	r1, r4, #340
 520 0030 4FF48072 		mov	r2, #256
 521 0034 044B     		ldr	r3, .L24+8
 522 0036 FFF7FEFF 		bl	chOQObjectInit
 523              	.LVL53:
 524              		.loc 1 201 0
 525 003a 02B0     		add	sp, sp, #8
 526              		.cfi_def_cfa_offset 8
 527              		@ sp needed
 528 003c 10BD     		pop	{r4, pc}
 529              	.LVL54:
 530              	.L25:
 531 003e 00BF     		.align	2
 532              	.L24:
 533 0040 00000000 		.word	.LANCHOR0
 534 0044 00000000 		.word	inotify
 535 0048 00000000 		.word	onotify
 536              		.cfi_endproc
 537              	.LFE267:
 538              		.size	sduObjectInit, .-sduObjectInit
 539              		.section	.text.sduStart,"ax",%progbits
 540              		.align	2
 541              		.p2align 4,,15
 542              		.global	sduStart
 543              		.thumb
 544              		.thumb_func
 545              		.type	sduStart, %function
 546              	sduStart:
 547              	.LFB268:
 548              		.loc 1 211 0
 549              		.cfi_startproc
 550              		@ args = 0, pretend = 0, frame = 0
 551              		@ frame_needed = 0, uses_anonymous_args = 0
 552              		@ link register save eliminated.
 553              	.LVL55:
 554              		.loc 1 212 0
 555 0000 0B68     		ldr	r3, [r1]
 556              	.LVL56:
 557              	.LBB229:
 558              	.LBB230:
 559              	.LBB231:
 560              	.LBB232:
 561              	.LBB233:
 562              		.loc 3 342 0
 563              	@ 342 "ChibiOS_3.0.2/os/ext/CMSIS/include/core_cmFunc.h" 1
 564 0002 72B6     		cpsid i
 565              	@ 0 "" 2
 566              		.thumb
 567              	.LBE233:
 568              	.LBE232:
 569              	.LBE231:
 570              	.LBE230:
ARM GAS  /tmp/ccawirHI.s 			page 11


 571              	.LBE229:
 572              		.loc 1 219 0
 573 0004 0A79     		ldrb	r2, [r1, #4]	@ zero_extendqisi2
 574 0006 03EB8202 		add	r2, r3, r2, lsl #2
 575 000a 9061     		str	r0, [r2, #24]
 576              		.loc 1 220 0
 577 000c 4A79     		ldrb	r2, [r1, #5]	@ zero_extendqisi2
 578 000e 0932     		adds	r2, r2, #9
 579 0010 43F82200 		str	r0, [r3, r2, lsl #2]
 580              		.loc 1 221 0
 581 0014 8A79     		ldrb	r2, [r1, #6]	@ zero_extendqisi2
 582 0016 12B1     		cbz	r2, .L27
 583              		.loc 1 222 0
 584 0018 03EB8203 		add	r3, r3, r2, lsl #2
 585              	.LVL57:
 586 001c 9861     		str	r0, [r3, #24]
 587              	.L27:
 588              		.loc 1 225 0
 589 001e 0223     		movs	r3, #2
 590              		.loc 1 224 0
 591 0020 C0F85412 		str	r1, [r0, #596]
 592              		.loc 1 225 0
 593 0024 0372     		strb	r3, [r0, #8]
 594              	.LBB234:
 595              	.LBB235:
 596              	.LBB236:
 597              	.LBB237:
 598              	.LBB238:
 599              	.LBB239:
 600              		.loc 3 331 0
 601              	@ 331 "ChibiOS_3.0.2/os/ext/CMSIS/include/core_cmFunc.h" 1
 602 0026 62B6     		cpsie i
 603              	@ 0 "" 2
 604              		.thumb
 605 0028 7047     		bx	lr
 606              	.LBE239:
 607              	.LBE238:
 608              	.LBE237:
 609              	.LBE236:
 610              	.LBE235:
 611              	.LBE234:
 612              		.cfi_endproc
 613              	.LFE268:
 614              		.size	sduStart, .-sduStart
 615 002a 00BF     		.section	.text.sduStop,"ax",%progbits
 616              		.align	2
 617              		.p2align 4,,15
 618              		.global	sduStop
 619              		.thumb
 620              		.thumb_func
 621              		.type	sduStop, %function
 622              	sduStop:
 623              	.LFB269:
 624              		.loc 1 238 0
 625              		.cfi_startproc
 626              		@ args = 0, pretend = 0, frame = 0
 627              		@ frame_needed = 0, uses_anonymous_args = 0
ARM GAS  /tmp/ccawirHI.s 			page 12


 628              	.LVL58:
 629              		.loc 1 239 0
 630 0000 D0F85432 		ldr	r3, [r0, #596]
 631              		.loc 1 238 0
 632 0004 10B5     		push	{r4, lr}
 633              		.cfi_def_cfa_offset 8
 634              		.cfi_offset 4, -8
 635              		.cfi_offset 14, -4
 636              		.loc 1 239 0
 637 0006 1A68     		ldr	r2, [r3]
 638              	.LVL59:
 639              		.loc 1 238 0
 640 0008 0446     		mov	r4, r0
 641              	.LBB240:
 642              	.LBB241:
 643              	.LBB242:
 644              	.LBB243:
 645              	.LBB244:
 646              		.loc 3 342 0
 647              	@ 342 "ChibiOS_3.0.2/os/ext/CMSIS/include/core_cmFunc.h" 1
 648 000a 72B6     		cpsid i
 649              	@ 0 "" 2
 650              		.thumb
 651              	.LBE244:
 652              	.LBE243:
 653              	.LBE242:
 654              	.LBE241:
 655              	.LBE240:
 656              		.loc 1 248 0
 657 000c D0F85412 		ldr	r1, [r0, #596]
 658 0010 0B79     		ldrb	r3, [r1, #4]	@ zero_extendqisi2
 659 0012 0533     		adds	r3, r3, #5
 660 0014 02EB8303 		add	r3, r2, r3, lsl #2
 661 0018 0020     		movs	r0, #0
 662              	.LVL60:
 663 001a 5860     		str	r0, [r3, #4]
 664              		.loc 1 249 0
 665 001c 4B79     		ldrb	r3, [r1, #5]	@ zero_extendqisi2
 666 001e 0933     		adds	r3, r3, #9
 667 0020 42F82300 		str	r0, [r2, r3, lsl #2]
 668              		.loc 1 250 0
 669 0024 8B79     		ldrb	r3, [r1, #6]	@ zero_extendqisi2
 670 0026 1BB1     		cbz	r3, .L32
 671              		.loc 1 251 0
 672 0028 0533     		adds	r3, r3, #5
 673 002a 02EB8302 		add	r2, r2, r3, lsl #2
 674              	.LVL61:
 675 002e 5060     		str	r0, [r2, #4]
 676              	.L32:
 677              		.loc 1 253 0
 678 0030 0123     		movs	r3, #1
 679 0032 2372     		strb	r3, [r4, #8]
 680              	.LVL62:
 681              	.LBB245:
 682              	.LBB246:
 683              		.file 5 "ChibiOS_3.0.2/os/hal/osal/rt/osal.h"
 684              		.loc 5 844 0
ARM GAS  /tmp/ccawirHI.s 			page 13


 685 0034 0221     		movs	r1, #2
 686 0036 201D     		adds	r0, r4, #4
 687              	.LVL63:
 688 0038 FFF7FEFF 		bl	chEvtBroadcastFlagsI
 689              	.LVL64:
 690              	.LBE246:
 691              	.LBE245:
 692              		.loc 1 257 0
 693 003c 04F10C00 		add	r0, r4, #12
 694 0040 FFF7FEFF 		bl	chIQResetI
 695              	.LVL65:
 696              		.loc 1 258 0
 697 0044 04F13000 		add	r0, r4, #48
 698 0048 FFF7FEFF 		bl	chIQResetI
 699              	.LVL66:
 700              	.LBB247:
 701              	.LBB248:
 702              		.loc 5 600 0
 703 004c FFF7FEFF 		bl	chSchRescheduleS
 704              	.LVL67:
 705              	.LBE248:
 706              	.LBE247:
 707              	.LBB249:
 708              	.LBB250:
 709              	.LBB251:
 710              	.LBB252:
 711              	.LBB253:
 712              	.LBB254:
 713              		.loc 3 331 0
 714              	@ 331 "ChibiOS_3.0.2/os/ext/CMSIS/include/core_cmFunc.h" 1
 715 0050 62B6     		cpsie i
 716              	@ 0 "" 2
 717              		.thumb
 718 0052 10BD     		pop	{r4, pc}
 719              	.LBE254:
 720              	.LBE253:
 721              	.LBE252:
 722              	.LBE251:
 723              	.LBE250:
 724              	.LBE249:
 725              		.cfi_endproc
 726              	.LFE269:
 727              		.size	sduStop, .-sduStop
 728              		.section	.text.sduConfigureHookI,"ax",%progbits
 729              		.align	2
 730              		.p2align 4,,15
 731              		.global	sduConfigureHookI
 732              		.thumb
 733              		.thumb_func
 734              		.type	sduConfigureHookI, %function
 735              	sduConfigureHookI:
 736              	.LFB270:
 737              		.loc 1 270 0
 738              		.cfi_startproc
 739              		@ args = 0, pretend = 0, frame = 0
 740              		@ frame_needed = 0, uses_anonymous_args = 0
 741              	.LVL68:
ARM GAS  /tmp/ccawirHI.s 			page 14


 742 0000 70B5     		push	{r4, r5, r6, lr}
 743              		.cfi_def_cfa_offset 16
 744              		.cfi_offset 4, -16
 745              		.cfi_offset 5, -12
 746              		.cfi_offset 6, -8
 747              		.cfi_offset 14, -4
 748              		.loc 1 271 0
 749 0002 D0F85432 		ldr	r3, [r0, #596]
 750              		.loc 1 273 0
 751 0006 00F10C06 		add	r6, r0, #12
 752              		.loc 1 270 0
 753 000a 0446     		mov	r4, r0
 754              		.loc 1 273 0
 755 000c 3046     		mov	r0, r6
 756              	.LVL69:
 757              		.loc 1 271 0
 758 000e 1D68     		ldr	r5, [r3]
 759              	.LVL70:
 760              		.loc 1 273 0
 761 0010 FFF7FEFF 		bl	chIQResetI
 762              	.LVL71:
 763              		.loc 1 274 0
 764 0014 04F13000 		add	r0, r4, #48
 765 0018 FFF7FEFF 		bl	chOQResetI
 766              	.LVL72:
 767              	.LBB255:
 768              	.LBB256:
 769              		.loc 5 844 0
 770 001c 201D     		adds	r0, r4, #4
 771              	.LVL73:
 772 001e 0121     		movs	r1, #1
 773 0020 FFF7FEFF 		bl	chEvtBroadcastFlagsI
 774              	.LVL74:
 775              	.LBE256:
 776              	.LBE255:
 777              		.loc 1 279 0
 778 0024 D4F85432 		ldr	r3, [r4, #596]
 779 0028 5979     		ldrb	r1, [r3, #5]	@ zero_extendqisi2
 780 002a 05EB8103 		add	r3, r5, r1, lsl #2
 781              		.loc 1 278 0
 782 002e 2846     		mov	r0, r5
 783              		.loc 1 279 0
 784 0030 DB68     		ldr	r3, [r3, #12]
 785              		.loc 1 278 0
 786 0032 3246     		mov	r2, r6
 787 0034 5B8A     		ldrh	r3, [r3, #18]
 788 0036 FFF7FEFF 		bl	usbPrepareQueuedReceive
 789              	.LVL75:
 790              		.loc 1 280 0
 791 003a D4F85432 		ldr	r3, [r4, #596]
 792 003e 2846     		mov	r0, r5
 793 0040 5979     		ldrb	r1, [r3, #5]	@ zero_extendqisi2
 794              		.loc 1 281 0
 795 0042 BDE87040 		pop	{r4, r5, r6, lr}
 796              		.cfi_restore 14
 797              		.cfi_restore 6
 798              		.cfi_restore 5
ARM GAS  /tmp/ccawirHI.s 			page 15


 799              		.cfi_restore 4
 800              		.cfi_def_cfa_offset 0
 801              	.LVL76:
 802              		.loc 1 280 0
 803 0046 FFF7FEBF 		b	usbStartReceiveI
 804              	.LVL77:
 805              		.cfi_endproc
 806              	.LFE270:
 807              		.size	sduConfigureHookI, .-sduConfigureHookI
 808 004a 00BF     		.section	.text.sduRequestsHook,"ax",%progbits
 809              		.align	2
 810              		.p2align 4,,15
 811              		.global	sduRequestsHook
 812              		.thumb
 813              		.thumb_func
 814              		.type	sduRequestsHook, %function
 815              	sduRequestsHook:
 816              	.LFB271:
 817              		.loc 1 298 0
 818              		.cfi_startproc
 819              		@ args = 0, pretend = 0, frame = 0
 820              		@ frame_needed = 0, uses_anonymous_args = 0
 821              		@ link register save eliminated.
 822              	.LVL78:
 823              		.loc 1 300 0
 824 0000 90F84430 		ldrb	r3, [r0, #68]	@ zero_extendqisi2
 825 0004 03F06003 		and	r3, r3, #96
 826 0008 202B     		cmp	r3, #32
 827 000a 01D0     		beq	.L47
 828              	.L46:
 829              		.loc 1 313 0
 830 000c 0020     		movs	r0, #0
 831              	.LVL79:
 832              		.loc 1 317 0
 833 000e 7047     		bx	lr
 834              	.LVL80:
 835              	.L47:
 836              		.loc 1 301 0
 837 0010 90F84530 		ldrb	r3, [r0, #69]	@ zero_extendqisi2
 838 0014 212B     		cmp	r3, #33
 839 0016 03D0     		beq	.L43
 840 0018 222B     		cmp	r3, #34
 841 001a 09D0     		beq	.L42
 842 001c 202B     		cmp	r3, #32
 843 001e F5D1     		bne	.L46
 844              	.L43:
 845              		.loc 1 306 0
 846 0020 064B     		ldr	r3, .L48
 847 0022 8363     		str	r3, [r0, #56]
 848 0024 0722     		movs	r2, #7
 849 0026 0023     		movs	r3, #0
 850 0028 C263     		str	r2, [r0, #60]
 851 002a 0364     		str	r3, [r0, #64]
 852              		.loc 1 307 0
 853 002c 0120     		movs	r0, #1
 854              	.LVL81:
 855 002e 7047     		bx	lr
ARM GAS  /tmp/ccawirHI.s 			page 16


 856              	.LVL82:
 857              	.L42:
 858              		.loc 1 310 0
 859 0030 0023     		movs	r3, #0
 860 0032 8363     		str	r3, [r0, #56]
 861 0034 C363     		str	r3, [r0, #60]
 862 0036 0364     		str	r3, [r0, #64]
 863              		.loc 1 311 0
 864 0038 0120     		movs	r0, #1
 865              	.LVL83:
 866 003a 7047     		bx	lr
 867              	.L49:
 868              		.align	2
 869              	.L48:
 870 003c 00000000 		.word	.LANCHOR1
 871              		.cfi_endproc
 872              	.LFE271:
 873              		.size	sduRequestsHook, .-sduRequestsHook
 874              		.section	.text.sduDataTransmitted,"ax",%progbits
 875              		.align	2
 876              		.p2align 4,,15
 877              		.global	sduDataTransmitted
 878              		.thumb
 879              		.thumb_func
 880              		.type	sduDataTransmitted, %function
 881              	sduDataTransmitted:
 882              	.LFB272:
 883              		.loc 1 327 0
 884              		.cfi_startproc
 885              		@ args = 0, pretend = 0, frame = 0
 886              		@ frame_needed = 0, uses_anonymous_args = 0
 887              	.LVL84:
 888              		.loc 1 329 0
 889 0000 00EB8103 		add	r3, r0, r1, lsl #2
 890              		.loc 1 327 0
 891 0004 70B5     		push	{r4, r5, r6, lr}
 892              		.cfi_def_cfa_offset 16
 893              		.cfi_offset 4, -16
 894              		.cfi_offset 5, -12
 895              		.cfi_offset 6, -8
 896              		.cfi_offset 14, -4
 897              		.loc 1 329 0
 898 0006 9C69     		ldr	r4, [r3, #24]
 899              	.LVL85:
 900              		.loc 1 331 0
 901 0008 9CB1     		cbz	r4, .L50
 902 000a 0E46     		mov	r6, r1
 903 000c 0546     		mov	r5, r0
 904              	.LBB257:
 905              	.LBB258:
 906              	.LBB259:
 907              	.LBB260:
 908              	.LBB261:
 909              	.LBB262:
 910              		.loc 3 342 0
 911              	@ 342 "ChibiOS_3.0.2/os/ext/CMSIS/include/core_cmFunc.h" 1
 912 000e 72B6     		cpsid i
ARM GAS  /tmp/ccawirHI.s 			page 17


 913              	@ 0 "" 2
 914              	.LVL86:
 915              		.thumb
 916              	.LBE262:
 917              	.LBE261:
 918              	.LBE260:
 919              	.LBE259:
 920              	.LBE258:
 921              	.LBE257:
 922              	.LBB263:
 923              	.LBB264:
 924              		.loc 5 844 0
 925 0010 0821     		movs	r1, #8
 926              	.LVL87:
 927 0012 201D     		adds	r0, r4, #4
 928              	.LVL88:
 929 0014 FFF7FEFF 		bl	chEvtBroadcastFlagsI
 930              	.LVL89:
 931              	.LBE264:
 932              	.LBE263:
 933              	.LBB265:
 934              	.LBB266:
 935              		.loc 2 357 0
 936 0018 226C     		ldr	r2, [r4, #64]
 937 001a E36B     		ldr	r3, [r4, #60]
 938 001c A16B     		ldr	r1, [r4, #56]
 939 001e D31A     		subs	r3, r2, r3
 940              	.LBE266:
 941              	.LBE265:
 942              		.loc 1 339 0
 943 0020 5B1A     		subs	r3, r3, r1
 944 0022 0BD1     		bne	.L61
 945              		.loc 1 349 0
 946 0024 05EB8603 		add	r3, r5, r6, lsl #2
 947 0028 DB68     		ldr	r3, [r3, #12]
 948 002a 5A69     		ldr	r2, [r3, #20]
 949 002c 5268     		ldr	r2, [r2, #4]
 950 002e 0AB9     		cbnz	r2, .L62
 951              	.L53:
 952              	.LBB267:
 953              	.LBB268:
 954              	.LBB269:
 955              	.LBB270:
 956              	.LBB271:
 957              	.LBB272:
 958              		.loc 3 331 0
 959              	@ 331 "ChibiOS_3.0.2/os/ext/CMSIS/include/core_cmFunc.h" 1
 960 0030 62B6     		cpsie i
 961              	@ 0 "" 2
 962              	.LVL90:
 963              		.thumb
 964              	.L50:
 965 0032 70BD     		pop	{r4, r5, r6, pc}
 966              	.LVL91:
 967              	.L62:
 968              	.LBE272:
 969              	.LBE271:
ARM GAS  /tmp/ccawirHI.s 			page 18


 970              	.LBE270:
 971              	.LBE269:
 972              	.LBE268:
 973              	.LBE267:
 974              		.loc 1 351 0 discriminator 1
 975 0034 1B8A     		ldrh	r3, [r3, #16]
 976 0036 013B     		subs	r3, r3, #1
 977              		.loc 1 349 0 discriminator 1
 978 0038 1340     		ands	r3, r3, r2
 979 003a F9D1     		bne	.L53
 980              	.L61:
 981              	.LBB273:
 982              	.LBB274:
 983              	.LBB275:
 984              	.LBB276:
 985              	.LBB277:
 986              	.LBB278:
 987              		.loc 3 331 0
 988              	@ 331 "ChibiOS_3.0.2/os/ext/CMSIS/include/core_cmFunc.h" 1
 989 003c 62B6     		cpsie i
 990              	@ 0 "" 2
 991              		.thumb
 992              	.LBE278:
 993              	.LBE277:
 994              	.LBE276:
 995              	.LBE275:
 996              	.LBE274:
 997              	.LBE273:
 998              		.loc 1 358 0
 999 003e 04F13002 		add	r2, r4, #48
 1000 0042 2846     		mov	r0, r5
 1001 0044 3146     		mov	r1, r6
 1002 0046 FFF7FEFF 		bl	usbPrepareQueuedTransmit
 1003              	.LVL92:
 1004              	.LBB279:
 1005              	.LBB280:
 1006              	.LBB281:
 1007              	.LBB282:
 1008              	.LBB283:
 1009              	.LBB284:
 1010              		.loc 3 342 0
 1011              	@ 342 "ChibiOS_3.0.2/os/ext/CMSIS/include/core_cmFunc.h" 1
 1012 004a 72B6     		cpsid i
 1013              	@ 0 "" 2
 1014              		.thumb
 1015              	.LBE284:
 1016              	.LBE283:
 1017              	.LBE282:
 1018              	.LBE281:
 1019              	.LBE280:
 1020              	.LBE279:
 1021              		.loc 1 361 0
 1022 004c 2846     		mov	r0, r5
 1023 004e 3146     		mov	r1, r6
 1024 0050 FFF7FEFF 		bl	usbStartTransmitI
 1025              	.LVL93:
 1026 0054 ECE7     		b	.L53
ARM GAS  /tmp/ccawirHI.s 			page 19


 1027              		.cfi_endproc
 1028              	.LFE272:
 1029              		.size	sduDataTransmitted, .-sduDataTransmitted
 1030 0056 00BF     		.section	.text.sduDataReceived,"ax",%progbits
 1031              		.align	2
 1032              		.p2align 4,,15
 1033              		.global	sduDataReceived
 1034              		.thumb
 1035              		.thumb_func
 1036              		.type	sduDataReceived, %function
 1037              	sduDataReceived:
 1038              	.LFB273:
 1039              		.loc 1 376 0
 1040              		.cfi_startproc
 1041              		@ args = 0, pretend = 0, frame = 0
 1042              		@ frame_needed = 0, uses_anonymous_args = 0
 1043              	.LVL94:
 1044              		.loc 1 378 0
 1045 0000 01F10903 		add	r3, r1, #9
 1046              		.loc 1 376 0
 1047 0004 2DE9F041 		push	{r4, r5, r6, r7, r8, lr}
 1048              		.cfi_def_cfa_offset 24
 1049              		.cfi_offset 4, -24
 1050              		.cfi_offset 5, -20
 1051              		.cfi_offset 6, -16
 1052              		.cfi_offset 7, -12
 1053              		.cfi_offset 8, -8
 1054              		.cfi_offset 14, -4
 1055              		.loc 1 378 0
 1056 0008 50F82360 		ldr	r6, [r0, r3, lsl #2]
 1057              	.LVL95:
 1058              		.loc 1 380 0
 1059 000c 96B1     		cbz	r6, .L63
 1060 000e 8046     		mov	r8, r0
 1061 0010 0F46     		mov	r7, r1
 1062              	.LBB285:
 1063              	.LBB286:
 1064              	.LBB287:
 1065              	.LBB288:
 1066              	.LBB289:
 1067              	.LBB290:
 1068              		.loc 3 342 0
 1069              	@ 342 "ChibiOS_3.0.2/os/ext/CMSIS/include/core_cmFunc.h" 1
 1070 0012 72B6     		cpsid i
 1071              	@ 0 "" 2
 1072              	.LVL96:
 1073              		.thumb
 1074              	.LBE290:
 1075              	.LBE289:
 1076              	.LBE288:
 1077              	.LBE287:
 1078              	.LBE286:
 1079              	.LBE285:
 1080              	.LBB291:
 1081              	.LBB292:
 1082              		.loc 5 844 0
 1083 0014 0421     		movs	r1, #4
ARM GAS  /tmp/ccawirHI.s 			page 20


 1084              	.LVL97:
 1085 0016 7018     		adds	r0, r6, r1
 1086              	.LVL98:
 1087 0018 FFF7FEFF 		bl	chEvtBroadcastFlagsI
 1088              	.LVL99:
 1089              	.LBE292:
 1090              	.LBE291:
 1091              		.loc 1 389 0
 1092 001c 08EB8703 		add	r3, r8, r7, lsl #2
 1093              	.LBB293:
 1094              	.LBB294:
 1095              		.loc 2 290 0
 1096 0020 B469     		ldr	r4, [r6, #24]
 1097              	.LBE294:
 1098              	.LBE293:
 1099              		.loc 1 389 0
 1100 0022 DA68     		ldr	r2, [r3, #12]
 1101              	.LBB297:
 1102              	.LBB295:
 1103              		.loc 2 290 0
 1104 0024 F569     		ldr	r5, [r6, #28]
 1105 0026 7369     		ldr	r3, [r6, #20]
 1106              	.LBE295:
 1107              	.LBE297:
 1108              		.loc 1 389 0
 1109 0028 518A     		ldrh	r1, [r2, #18]
 1110              	.LVL100:
 1111              	.LBB298:
 1112              	.LBB296:
 1113              		.loc 2 290 0
 1114 002a 2D1B     		subs	r5, r5, r4
 1115 002c EC1A     		subs	r4, r5, r3
 1116              	.LBE296:
 1117              	.LBE298:
 1118              		.loc 1 390 0
 1119 002e A142     		cmp	r1, r4
 1120 0030 02D9     		bls	.L70
 1121              	.LVL101:
 1122              	.L65:
 1123              	.LBB299:
 1124              	.LBB300:
 1125              	.LBB301:
 1126              	.LBB302:
 1127              	.LBB303:
 1128              	.LBB304:
 1129              		.loc 3 331 0
 1130              	@ 331 "ChibiOS_3.0.2/os/ext/CMSIS/include/core_cmFunc.h" 1
 1131 0032 62B6     		cpsie i
 1132              	@ 0 "" 2
 1133              	.LVL102:
 1134              		.thumb
 1135              	.L63:
 1136 0034 BDE8F081 		pop	{r4, r5, r6, r7, r8, pc}
 1137              	.LVL103:
 1138              	.L70:
 1139              	.LBE304:
 1140              	.LBE303:
ARM GAS  /tmp/ccawirHI.s 			page 21


 1141              	.LBE302:
 1142              	.LBE301:
 1143              	.LBE300:
 1144              	.LBE299:
 1145              	.LBB305:
 1146              	.LBB306:
 1147              	.LBB307:
 1148              	.LBB308:
 1149              	.LBB309:
 1150              	.LBB310:
 1151              	@ 331 "ChibiOS_3.0.2/os/ext/CMSIS/include/core_cmFunc.h" 1
 1152 0038 62B6     		cpsie i
 1153              	@ 0 "" 2
 1154              	.LVL104:
 1155              		.thumb
 1156              	.LBE310:
 1157              	.LBE309:
 1158              	.LBE308:
 1159              	.LBE307:
 1160              	.LBE306:
 1161              	.LBE305:
 1162              		.loc 1 395 0
 1163 003a B4FBF1F3 		udiv	r3, r4, r1
 1164              		.loc 1 396 0
 1165 003e 06F10C02 		add	r2, r6, #12
 1166 0042 01FB03F3 		mul	r3, r1, r3
 1167              	.LVL105:
 1168 0046 4046     		mov	r0, r8
 1169 0048 3946     		mov	r1, r7
 1170              	.LVL106:
 1171 004a FFF7FEFF 		bl	usbPrepareQueuedReceive
 1172              	.LVL107:
 1173              	.LBB311:
 1174              	.LBB312:
 1175              	.LBB313:
 1176              	.LBB314:
 1177              	.LBB315:
 1178              	.LBB316:
 1179              		.loc 3 342 0
 1180              	@ 342 "ChibiOS_3.0.2/os/ext/CMSIS/include/core_cmFunc.h" 1
 1181 004e 72B6     		cpsid i
 1182              	@ 0 "" 2
 1183              		.thumb
 1184              	.LBE316:
 1185              	.LBE315:
 1186              	.LBE314:
 1187              	.LBE313:
 1188              	.LBE312:
 1189              	.LBE311:
 1190              		.loc 1 399 0
 1191 0050 4046     		mov	r0, r8
 1192 0052 3946     		mov	r1, r7
 1193 0054 FFF7FEFF 		bl	usbStartReceiveI
 1194              	.LVL108:
 1195 0058 EBE7     		b	.L65
 1196              		.cfi_endproc
 1197              	.LFE273:
ARM GAS  /tmp/ccawirHI.s 			page 22


 1198              		.size	sduDataReceived, .-sduDataReceived
 1199 005a 00BF     		.section	.text.sduInterruptTransmitted,"ax",%progbits
 1200              		.align	2
 1201              		.p2align 4,,15
 1202              		.global	sduInterruptTransmitted
 1203              		.thumb
 1204              		.thumb_func
 1205              		.type	sduInterruptTransmitted, %function
 1206              	sduInterruptTransmitted:
 1207              	.LFB274:
 1208              		.loc 1 412 0
 1209              		.cfi_startproc
 1210              		@ args = 0, pretend = 0, frame = 0
 1211              		@ frame_needed = 0, uses_anonymous_args = 0
 1212              		@ link register save eliminated.
 1213              	.LVL109:
 1214 0000 7047     		bx	lr
 1215              		.cfi_endproc
 1216              	.LFE274:
 1217              		.size	sduInterruptTransmitted, .-sduInterruptTransmitted
 1218 0002 00BF     		.section	.rodata.vmt,"a",%progbits
 1219              		.align	2
 1220              		.set	.LANCHOR0,. + 0
 1221              		.type	vmt, %object
 1222              		.size	vmt, 32
 1223              	vmt:
 1224 0000 00000000 		.word	write
 1225 0004 00000000 		.word	read
 1226 0008 00000000 		.word	put
 1227 000c 00000000 		.word	get
 1228 0010 00000000 		.word	putt
 1229 0014 00000000 		.word	gett
 1230 0018 00000000 		.word	writet
 1231 001c 00000000 		.word	readt
 1232              		.section	.data.linecoding,"aw",%progbits
 1233              		.align	2
 1234              		.set	.LANCHOR1,. + 0
 1235              		.type	linecoding, %object
 1236              		.size	linecoding, 7
 1237              	linecoding:
 1238 0000 00       		.byte	0
 1239 0001 96       		.byte	-106
 1240 0002 00       		.byte	0
 1241 0003 00       		.byte	0
 1242 0004 00       		.byte	0
 1243 0005 00       		.byte	0
 1244 0006 08       		.byte	8
 1245              		.text
 1246              	.Letext0:
 1247              		.file 6 "/usr/lib/gcc/arm-none-eabi/4.9.3/include/stddef.h"
 1248              		.file 7 "/usr/arm-none-eabi/include/machine/_default_types.h"
 1249              		.file 8 "/usr/arm-none-eabi/include/sys/_stdint.h"
 1250              		.file 9 "ChibiOS_3.0.2/os/rt/ports/ARMCMx/compilers/GCC/chtypes.h"
 1251              		.file 10 "ChibiOS_3.0.2/os/rt/include/chsystypes.h"
 1252              		.file 11 "ChibiOS_3.0.2/os/rt/include/chschd.h"
 1253              		.file 12 "ChibiOS_3.0.2/os/rt/ports/ARMCMx/chcore.h"
 1254              		.file 13 "ChibiOS_3.0.2/os/rt/ports/ARMCMx/chcore_v7m.h"
ARM GAS  /tmp/ccawirHI.s 			page 23


 1255              		.file 14 "ChibiOS_3.0.2/os/rt/include/chtm.h"
 1256              		.file 15 "ChibiOS_3.0.2/os/rt/include/chsem.h"
 1257              		.file 16 "ChibiOS_3.0.2/os/rt/include/chmtx.h"
 1258              		.file 17 "ChibiOS_3.0.2/os/hal/include/usb.h"
 1259              		.file 18 "ChibiOS_3.0.2/os/hal/ports/STM32/LLD/OTGv1/usb_lld.h"
 1260              		.file 19 "ChibiOS_3.0.2/os/hal/ports/STM32/LLD/OTGv1/stm32_otg.h"
 1261              		.file 20 "ChibiOS_3.0.2/os/hal/include/serial_usb.h"
 1262              		.file 21 "ChibiOS_3.0.2/os/rt/include/chsys.h"
 1263              		.file 22 "ChibiOS_3.0.2/os/ext/CMSIS/include/core_cm4.h"