ARM GAS  /tmp/ccM18M7v.s 			page 1


   1              		.syntax unified
   2              		.cpu cortex-m4
   3              		.eabi_attribute 27, 1
   4              		.eabi_attribute 28, 1
   5              		.fpu fpv4-sp-d16
   6              		.eabi_attribute 20, 1
   7              		.eabi_attribute 21, 1
   8              		.eabi_attribute 23, 3
   9              		.eabi_attribute 24, 1
  10              		.eabi_attribute 25, 1
  11              		.eabi_attribute 26, 1
  12              		.eabi_attribute 30, 2
  13              		.eabi_attribute 34, 1
  14              		.eabi_attribute 18, 4
  15              		.thumb
  16              		.file	"spi_lld.c"
  17              		.text
  18              	.Ltext0:
  19              		.cfi_sections	.debug_frame
  20              		.section	.text.spi_lld_serve_tx_interrupt,"ax",%progbits
  21              		.align	2
  22              		.p2align 4,,15
  23              		.thumb
  24              		.thumb_func
  25              		.type	spi_lld_serve_tx_interrupt, %function
  26              	spi_lld_serve_tx_interrupt:
  27              	.LFB257:
  28              		.file 1 "ChibiOS_3.0.2/os/hal/ports/STM32/LLD/SPIv1/spi_lld.c"
  29              		.loc 1 158 0
  30              		.cfi_startproc
  31              		@ args = 0, pretend = 0, frame = 0
  32              		@ frame_needed = 0, uses_anonymous_args = 0
  33              		@ link register save eliminated.
  34              	.LVL0:
  35              		.loc 1 163 0
  36 0000 11F00C0F 		tst	r1, #12
  37 0004 00D1     		bne	.L4
  38 0006 7047     		bx	lr
  39              	.L4:
  40              	.LVL1:
  41              	.LBB56:
  42              	.LBB57:
  43              		.file 2 "ChibiOS_3.0.2/os/hal/osal/rt/osal.h"
  44              		.loc 2 462 0
  45 0008 0148     		ldr	r0, .L5
  46              	.LVL2:
  47 000a FFF7FEBF 		b	chSysHalt
  48              	.LVL3:
  49              	.L6:
  50 000e 00BF     		.align	2
  51              	.L5:
  52 0010 00000000 		.word	.LC0
  53              	.LBE57:
  54              	.LBE56:
  55              		.cfi_endproc
  56              	.LFE257:
  57              		.size	spi_lld_serve_tx_interrupt, .-spi_lld_serve_tx_interrupt
ARM GAS  /tmp/ccM18M7v.s 			page 2


  58              		.section	.text.spi_lld_serve_rx_interrupt,"ax",%progbits
  59              		.align	2
  60              		.p2align 4,,15
  61              		.thumb
  62              		.thumb_func
  63              		.type	spi_lld_serve_rx_interrupt, %function
  64              	spi_lld_serve_rx_interrupt:
  65              	.LFB256:
  66              		.loc 1 132 0
  67              		.cfi_startproc
  68              		@ args = 0, pretend = 0, frame = 0
  69              		@ frame_needed = 0, uses_anonymous_args = 0
  70              	.LVL4:
  71              		.loc 1 136 0
  72 0000 11F00C0F 		tst	r1, #12
  73              		.loc 1 132 0
  74 0004 38B5     		push	{r3, r4, r5, lr}
  75              		.cfi_def_cfa_offset 16
  76              		.cfi_offset 3, -16
  77              		.cfi_offset 4, -12
  78              		.cfi_offset 5, -8
  79              		.cfi_offset 14, -4
  80              		.loc 1 132 0
  81 0006 0446     		mov	r4, r0
  82              		.loc 1 136 0
  83 0008 30D1     		bne	.L22
  84              	.LVL5:
  85              	.L8:
  86              		.loc 1 144 0
  87 000a 606A     		ldr	r0, [r4, #36]
  88 000c 0268     		ldr	r2, [r0]
  89 000e 1368     		ldr	r3, [r2]
  90 0010 23F01F03 		bic	r3, r3, #31
  91 0014 1360     		str	r3, [r2]
  92              	.L9:
  93              		.loc 1 144 0 is_stmt 0 discriminator 2
  94 0016 1368     		ldr	r3, [r2]
  95 0018 D907     		lsls	r1, r3, #31
  96 001a FCD4     		bmi	.L9
  97              		.loc 1 144 0 discriminator 3
  98 001c 057A     		ldrb	r5, [r0, #8]	@ zero_extendqisi2
  99              		.loc 1 145 0 is_stmt 1 discriminator 3
 100 001e 216A     		ldr	r1, [r4, #32]
 101              		.loc 1 144 0 discriminator 3
 102 0020 4068     		ldr	r0, [r0, #4]
 103              		.loc 1 145 0 discriminator 3
 104 0022 0A68     		ldr	r2, [r1]
 105              		.loc 1 144 0 discriminator 3
 106 0024 3D23     		movs	r3, #61
 107 0026 AB40     		lsls	r3, r3, r5
 108 0028 0360     		str	r3, [r0]
 109              		.loc 1 145 0 discriminator 3
 110 002a 1368     		ldr	r3, [r2]
 111 002c 23F01F03 		bic	r3, r3, #31
 112 0030 1360     		str	r3, [r2]
 113              	.L10:
 114              		.loc 1 145 0 is_stmt 0 discriminator 2
ARM GAS  /tmp/ccM18M7v.s 			page 3


 115 0032 1368     		ldr	r3, [r2]
 116 0034 DB07     		lsls	r3, r3, #31
 117 0036 FCD4     		bmi	.L10
 118              		.loc 1 149 0 is_stmt 1 discriminator 3
 119 0038 6368     		ldr	r3, [r4, #4]
 120              		.loc 1 145 0 discriminator 3
 121 003a 087A     		ldrb	r0, [r1, #8]	@ zero_extendqisi2
 122              		.loc 1 149 0 discriminator 3
 123 003c 1A68     		ldr	r2, [r3]
 124              		.loc 1 145 0 discriminator 3
 125 003e 4968     		ldr	r1, [r1, #4]
 126 0040 3D23     		movs	r3, #61
 127 0042 8340     		lsls	r3, r3, r0
 128 0044 0B60     		str	r3, [r1]
 129              		.loc 1 149 0 discriminator 3
 130 0046 72B1     		cbz	r2, .L11
 131              		.loc 1 149 0 is_stmt 0 discriminator 1
 132 0048 0423     		movs	r3, #4
 133 004a 2370     		strb	r3, [r4]
 134 004c 2046     		mov	r0, r4
 135 004e 9047     		blx	r2
 136              	.LVL6:
 137 0050 2378     		ldrb	r3, [r4]	@ zero_extendqisi2
 138 0052 042B     		cmp	r3, #4
 139 0054 07D0     		beq	.L11
 140              	.L12:
 141              	.LBB58:
 142              	.LBB59:
 143              	.LBB60:
 144              	.LBB61:
 145              	.LBB62:
 146              	.LBB63:
 147              		.file 3 "ChibiOS_3.0.2/os/ext/CMSIS/include/core_cmFunc.h"
 148              		.loc 3 342 0 is_stmt 1 discriminator 4
 149              	@ 342 "ChibiOS_3.0.2/os/ext/CMSIS/include/core_cmFunc.h" 1
 150 0056 72B6     		cpsid i
 151              	@ 0 "" 2
 152              	.LVL7:
 153              		.thumb
 154              	.LBE63:
 155              	.LBE62:
 156              	.LBE61:
 157              	.LBE60:
 158              	.LBE59:
 159              	.LBE58:
 160              	.LBB64:
 161              	.LBB65:
 162              		.loc 2 728 0 discriminator 4
 163 0058 0021     		movs	r1, #0
 164 005a 04F10800 		add	r0, r4, #8
 165              	.LVL8:
 166 005e FFF7FEFF 		bl	chThdResumeI
 167              	.LVL9:
 168              	.LBE65:
 169              	.LBE64:
 170              	.LBB66:
 171              	.LBB67:
ARM GAS  /tmp/ccM18M7v.s 			page 4


 172              	.LBB68:
 173              	.LBB69:
 174              	.LBB70:
 175              	.LBB71:
 176              		.loc 3 331 0 discriminator 4
 177              	@ 331 "ChibiOS_3.0.2/os/ext/CMSIS/include/core_cmFunc.h" 1
 178 0062 62B6     		cpsie i
 179              	@ 0 "" 2
 180              		.thumb
 181 0064 38BD     		pop	{r3, r4, r5, pc}
 182              	.LVL10:
 183              	.L11:
 184              	.LBE71:
 185              	.LBE70:
 186              	.LBE69:
 187              	.LBE68:
 188              	.LBE67:
 189              	.LBE66:
 190              		.loc 1 149 0 discriminator 3
 191 0066 0223     		movs	r3, #2
 192 0068 2370     		strb	r3, [r4]
 193 006a F4E7     		b	.L12
 194              	.LVL11:
 195              	.L22:
 196              	.LBB72:
 197              	.LBB73:
 198              		.loc 2 462 0
 199 006c 0148     		ldr	r0, .L23
 200              	.LVL12:
 201 006e FFF7FEFF 		bl	chSysHalt
 202              	.LVL13:
 203 0072 CAE7     		b	.L8
 204              	.L24:
 205              		.align	2
 206              	.L23:
 207 0074 00000000 		.word	.LC0
 208              	.LBE73:
 209              	.LBE72:
 210              		.cfi_endproc
 211              	.LFE256:
 212              		.size	spi_lld_serve_rx_interrupt, .-spi_lld_serve_rx_interrupt
 213              		.section	.text.spi_lld_init,"ax",%progbits
 214              		.align	2
 215              		.p2align 4,,15
 216              		.global	spi_lld_init
 217              		.thumb
 218              		.thumb_func
 219              		.type	spi_lld_init, %function
 220              	spi_lld_init:
 221              	.LFB258:
 222              		.loc 1 185 0
 223              		.cfi_startproc
 224              		@ args = 0, pretend = 0, frame = 0
 225              		@ frame_needed = 0, uses_anonymous_args = 0
 226 0000 10B5     		push	{r4, lr}
 227              		.cfi_def_cfa_offset 8
 228              		.cfi_offset 4, -8
ARM GAS  /tmp/ccM18M7v.s 			page 5


 229              		.cfi_offset 14, -4
 230              		.loc 1 208 0
 231 0002 0A4C     		ldr	r4, .L27
 232              		.loc 1 187 0
 233 0004 0A4B     		ldr	r3, .L27+4
 234 0006 4FF6FF72 		movw	r2, #65535
 235              		.loc 1 208 0
 236 000a 2046     		mov	r0, r4
 237              		.loc 1 187 0
 238 000c 1A80     		strh	r2, [r3]	@ movhi
 239              		.loc 1 208 0
 240 000e FFF7FEFF 		bl	spiObjectInit
 241              	.LVL14:
 242              		.loc 1 210 0
 243 0012 084B     		ldr	r3, .L27+8
 244              		.loc 1 209 0
 245 0014 0848     		ldr	r0, .L27+12
 246              		.loc 1 212 0
 247 0016 0949     		ldr	r1, .L27+16
 248              		.loc 1 218 0
 249 0018 094A     		ldr	r2, .L27+20
 250              		.loc 1 209 0
 251 001a E061     		str	r0, [r4, #28]
 252              		.loc 1 211 0
 253 001c 03F10C00 		add	r0, r3, #12
 254              		.loc 1 210 0
 255 0020 2362     		str	r3, [r4, #32]
 256              		.loc 1 211 0
 257 0022 6062     		str	r0, [r4, #36]
 258              		.loc 1 212 0
 259 0024 A162     		str	r1, [r4, #40]
 260              		.loc 1 218 0
 261 0026 E262     		str	r2, [r4, #44]
 262 0028 10BD     		pop	{r4, pc}
 263              	.L28:
 264 002a 00BF     		.align	2
 265              	.L27:
 266 002c 00000000 		.word	.LANCHOR1
 267 0030 00000000 		.word	.LANCHOR0
 268 0034 24000000 		.word	_stm32_dma_streams+36
 269 0038 00380040 		.word	1073756160
 270 003c 16000100 		.word	65558
 271 0040 46000100 		.word	65606
 272              		.cfi_endproc
 273              	.LFE258:
 274              		.size	spi_lld_init, .-spi_lld_init
 275              		.section	.text.spi_lld_start,"ax",%progbits
 276              		.align	2
 277              		.p2align 4,,15
 278              		.global	spi_lld_start
 279              		.thumb
 280              		.thumb_func
 281              		.type	spi_lld_start, %function
 282              	spi_lld_start:
 283              	.LFB259:
 284              		.loc 1 305 0
 285              		.cfi_startproc
ARM GAS  /tmp/ccM18M7v.s 			page 6


 286              		@ args = 0, pretend = 0, frame = 0
 287              		@ frame_needed = 0, uses_anonymous_args = 0
 288              	.LVL15:
 289              		.loc 1 308 0
 290 0000 0378     		ldrb	r3, [r0]	@ zero_extendqisi2
 291 0002 012B     		cmp	r3, #1
 292              		.loc 1 305 0
 293 0004 10B5     		push	{r4, lr}
 294              		.cfi_def_cfa_offset 8
 295              		.cfi_offset 4, -8
 296              		.cfi_offset 14, -4
 297              		.loc 1 305 0
 298 0006 0446     		mov	r4, r0
 299              		.loc 1 308 0
 300 0008 1DD0     		beq	.L35
 301 000a C369     		ldr	r3, [r0, #28]
 302              	.LVL16:
 303              	.L30:
 304              		.loc 1 412 0
 305 000c 6268     		ldr	r2, [r4, #4]
 306              		.loc 1 415 0
 307 000e A06A     		ldr	r0, [r4, #40]
 308              		.loc 1 412 0
 309 0010 5289     		ldrh	r2, [r2, #10]
 310              		.loc 1 417 0
 311 0012 E16A     		ldr	r1, [r4, #44]
 312              		.loc 1 415 0
 313 0014 20F4F040 		bic	r0, r0, #30720
 314              		.loc 1 417 0
 315 0018 21F4F041 		bic	r1, r1, #30720
 316              		.loc 1 412 0
 317 001c 12F4006F 		tst	r2, #2048
 318              		.loc 1 422 0
 319 0020 1CBF     		itt	ne
 320 0022 40F42050 		orrne	r0, r0, #10240
 321              		.loc 1 424 0
 322 0026 41F42051 		orrne	r1, r1, #10240
 323              		.loc 1 421 0
 324 002a A062     		str	r0, [r4, #40]
 325              		.loc 1 423 0
 326 002c E162     		str	r1, [r4, #44]
 327              		.loc 1 428 0
 328 002e 42F44172 		orr	r2, r2, #772
 329              		.loc 1 427 0
 330 0032 0020     		movs	r0, #0
 331              		.loc 1 430 0
 332 0034 0721     		movs	r1, #7
 333              		.loc 1 427 0
 334 0036 1860     		str	r0, [r3]
 335              		.loc 1 428 0
 336 0038 1A60     		str	r2, [r3]
 337              		.loc 1 430 0
 338 003a 5960     		str	r1, [r3, #4]
 339              		.loc 1 431 0
 340 003c 1A68     		ldr	r2, [r3]
 341 003e 42F04002 		orr	r2, r2, #64
 342 0042 1A60     		str	r2, [r3]
ARM GAS  /tmp/ccM18M7v.s 			page 7


 343 0044 10BD     		pop	{r4, pc}
 344              	.LVL17:
 345              	.L35:
 346              		.loc 1 326 0
 347 0046 0F4B     		ldr	r3, .L39
 348 0048 9842     		cmp	r0, r3
 349 004a 09D0     		beq	.L38
 350              	.LVL18:
 351              	.L31:
 352              		.loc 1 407 0
 353 004c 216A     		ldr	r1, [r4, #32]
 354              		.loc 1 408 0
 355 004e 626A     		ldr	r2, [r4, #36]
 356              		.loc 1 407 0
 357 0050 E369     		ldr	r3, [r4, #28]
 358 0052 0868     		ldr	r0, [r1]
 359              		.loc 1 408 0
 360 0054 1168     		ldr	r1, [r2]
 361              		.loc 1 407 0
 362 0056 03F10C02 		add	r2, r3, #12
 363 005a 8260     		str	r2, [r0, #8]
 364              		.loc 1 408 0
 365 005c 8A60     		str	r2, [r1, #8]
 366 005e D5E7     		b	.L30
 367              	.LVL19:
 368              	.L38:
 369              	.LBB74:
 370              		.loc 1 328 0
 371 0060 094A     		ldr	r2, .L39+4
 372 0062 006A     		ldr	r0, [r0, #32]
 373              	.LVL20:
 374 0064 0A21     		movs	r1, #10
 375 0066 2346     		mov	r3, r4
 376 0068 FFF7FEFF 		bl	dmaStreamAllocate
 377              	.LVL21:
 378              		.loc 1 333 0
 379 006c 074A     		ldr	r2, .L39+8
 380 006e 606A     		ldr	r0, [r4, #36]
 381 0070 2346     		mov	r3, r4
 382 0072 0A21     		movs	r1, #10
 383 0074 FFF7FEFF 		bl	dmaStreamAllocate
 384              	.LVL22:
 385              		.loc 1 338 0
 386 0078 054A     		ldr	r2, .L39+12
 387 007a 136C     		ldr	r3, [r2, #64]
 388 007c 43F48043 		orr	r3, r3, #16384
 389 0080 1364     		str	r3, [r2, #64]
 390 0082 E3E7     		b	.L31
 391              	.L40:
 392              		.align	2
 393              	.L39:
 394 0084 00000000 		.word	.LANCHOR1
 395 0088 00000000 		.word	spi_lld_serve_rx_interrupt
 396 008c 00000000 		.word	spi_lld_serve_tx_interrupt
 397 0090 00380240 		.word	1073887232
 398              	.LBE74:
 399              		.cfi_endproc
ARM GAS  /tmp/ccM18M7v.s 			page 8


 400              	.LFE259:
 401              		.size	spi_lld_start, .-spi_lld_start
 402              		.section	.text.spi_lld_stop,"ax",%progbits
 403              		.align	2
 404              		.p2align 4,,15
 405              		.global	spi_lld_stop
 406              		.thumb
 407              		.thumb_func
 408              		.type	spi_lld_stop, %function
 409              	spi_lld_stop:
 410              	.LFB260:
 411              		.loc 1 441 0
 412              		.cfi_startproc
 413              		@ args = 0, pretend = 0, frame = 0
 414              		@ frame_needed = 0, uses_anonymous_args = 0
 415              	.LVL23:
 416              		.loc 1 444 0
 417 0000 0378     		ldrb	r3, [r0]	@ zero_extendqisi2
 418 0002 022B     		cmp	r3, #2
 419 0004 00D0     		beq	.L47
 420 0006 7047     		bx	lr
 421              	.L47:
 422              		.loc 1 447 0
 423 0008 C369     		ldr	r3, [r0, #28]
 424              		.loc 1 441 0
 425 000a 10B5     		push	{r4, lr}
 426              		.cfi_def_cfa_offset 8
 427              		.cfi_offset 4, -8
 428              		.cfi_offset 14, -4
 429              		.loc 1 447 0
 430 000c 0022     		movs	r2, #0
 431 000e 0446     		mov	r4, r0
 432              		.loc 1 449 0
 433 0010 006A     		ldr	r0, [r0, #32]
 434              	.LVL24:
 435              		.loc 1 447 0
 436 0012 1A60     		str	r2, [r3]
 437              		.loc 1 448 0
 438 0014 5A60     		str	r2, [r3, #4]
 439              		.loc 1 449 0
 440 0016 FFF7FEFF 		bl	dmaStreamRelease
 441              	.LVL25:
 442              		.loc 1 450 0
 443 001a 606A     		ldr	r0, [r4, #36]
 444 001c FFF7FEFF 		bl	dmaStreamRelease
 445              	.LVL26:
 446              		.loc 1 457 0
 447 0020 044B     		ldr	r3, .L49
 448 0022 9C42     		cmp	r4, r3
 449 0024 00D0     		beq	.L48
 450              	.L41:
 451 0026 10BD     		pop	{r4, pc}
 452              	.LVL27:
 453              	.L48:
 454              		.loc 1 458 0
 455 0028 034A     		ldr	r2, .L49+4
 456 002a 136C     		ldr	r3, [r2, #64]
ARM GAS  /tmp/ccM18M7v.s 			page 9


 457 002c 23F48043 		bic	r3, r3, #16384
 458 0030 1364     		str	r3, [r2, #64]
 459 0032 F8E7     		b	.L41
 460              	.L50:
 461              		.align	2
 462              	.L49:
 463 0034 00000000 		.word	.LANCHOR1
 464 0038 00380240 		.word	1073887232
 465              		.cfi_endproc
 466              	.LFE260:
 467              		.size	spi_lld_stop, .-spi_lld_stop
 468              		.section	.text.spi_lld_select,"ax",%progbits
 469              		.align	2
 470              		.p2align 4,,15
 471              		.global	spi_lld_select
 472              		.thumb
 473              		.thumb_func
 474              		.type	spi_lld_select, %function
 475              	spi_lld_select:
 476              	.LFB261:
 477              		.loc 1 486 0
 478              		.cfi_startproc
 479              		@ args = 0, pretend = 0, frame = 0
 480              		@ frame_needed = 0, uses_anonymous_args = 0
 481              		@ link register save eliminated.
 482              	.LVL28:
 483              		.loc 1 488 0
 484 0000 4368     		ldr	r3, [r0, #4]
 485 0002 1989     		ldrh	r1, [r3, #8]
 486 0004 5A68     		ldr	r2, [r3, #4]
 487 0006 0123     		movs	r3, #1
 488 0008 8B40     		lsls	r3, r3, r1
 489 000a 9BB2     		uxth	r3, r3
 490 000c 5383     		strh	r3, [r2, #26]	@ movhi
 491 000e 7047     		bx	lr
 492              		.cfi_endproc
 493              	.LFE261:
 494              		.size	spi_lld_select, .-spi_lld_select
 495              		.section	.text.spi_lld_unselect,"ax",%progbits
 496              		.align	2
 497              		.p2align 4,,15
 498              		.global	spi_lld_unselect
 499              		.thumb
 500              		.thumb_func
 501              		.type	spi_lld_unselect, %function
 502              	spi_lld_unselect:
 503              	.LFB262:
 504              		.loc 1 499 0
 505              		.cfi_startproc
 506              		@ args = 0, pretend = 0, frame = 0
 507              		@ frame_needed = 0, uses_anonymous_args = 0
 508              		@ link register save eliminated.
 509              	.LVL29:
 510              		.loc 1 501 0
 511 0000 4368     		ldr	r3, [r0, #4]
 512 0002 1989     		ldrh	r1, [r3, #8]
 513 0004 5A68     		ldr	r2, [r3, #4]
ARM GAS  /tmp/ccM18M7v.s 			page 10


 514 0006 0123     		movs	r3, #1
 515 0008 8B40     		lsls	r3, r3, r1
 516 000a 9BB2     		uxth	r3, r3
 517 000c 1383     		strh	r3, [r2, #24]	@ movhi
 518 000e 7047     		bx	lr
 519              		.cfi_endproc
 520              	.LFE262:
 521              		.size	spi_lld_unselect, .-spi_lld_unselect
 522              		.section	.text.spi_lld_ignore,"ax",%progbits
 523              		.align	2
 524              		.p2align 4,,15
 525              		.global	spi_lld_ignore
 526              		.thumb
 527              		.thumb_func
 528              		.type	spi_lld_ignore, %function
 529              	spi_lld_ignore:
 530              	.LFB263:
 531              		.loc 1 515 0
 532              		.cfi_startproc
 533              		@ args = 0, pretend = 0, frame = 0
 534              		@ frame_needed = 0, uses_anonymous_args = 0
 535              		@ link register save eliminated.
 536              	.LVL30:
 537              		.loc 1 517 0
 538 0000 026A     		ldr	r2, [r0, #32]
 539              		.loc 1 521 0
 540 0002 436A     		ldr	r3, [r0, #36]
 541              		.loc 1 517 0
 542 0004 1268     		ldr	r2, [r2]
 543              		.loc 1 521 0
 544 0006 1B68     		ldr	r3, [r3]
 545              		.loc 1 515 0
 546 0008 70B4     		push	{r4, r5, r6}
 547              		.cfi_def_cfa_offset 12
 548              		.cfi_offset 4, -12
 549              		.cfi_offset 5, -8
 550              		.cfi_offset 6, -4
 551              		.loc 1 519 0
 552 000a 856A     		ldr	r5, [r0, #40]
 553              		.loc 1 517 0
 554 000c 094E     		ldr	r6, .L55
 555              		.loc 1 523 0
 556 000e C06A     		ldr	r0, [r0, #44]
 557              	.LVL31:
 558              		.loc 1 521 0
 559 0010 094C     		ldr	r4, .L55+4
 560              		.loc 1 517 0
 561 0012 D660     		str	r6, [r2, #12]
 562              		.loc 1 518 0
 563 0014 5160     		str	r1, [r2, #4]
 564              		.loc 1 519 0
 565 0016 1560     		str	r5, [r2]
 566              		.loc 1 521 0
 567 0018 DC60     		str	r4, [r3, #12]
 568              		.loc 1 522 0
 569 001a 5960     		str	r1, [r3, #4]
 570              		.loc 1 523 0
ARM GAS  /tmp/ccM18M7v.s 			page 11


 571 001c 1860     		str	r0, [r3]
 572              		.loc 1 525 0
 573 001e 1168     		ldr	r1, [r2]
 574              	.LVL32:
 575 0020 41F00101 		orr	r1, r1, #1
 576 0024 1160     		str	r1, [r2]
 577              		.loc 1 526 0
 578 0026 1A68     		ldr	r2, [r3]
 579 0028 42F00102 		orr	r2, r2, #1
 580 002c 1A60     		str	r2, [r3]
 581              		.loc 1 527 0
 582 002e 70BC     		pop	{r4, r5, r6}
 583              		.cfi_restore 6
 584              		.cfi_restore 5
 585              		.cfi_restore 4
 586              		.cfi_def_cfa_offset 0
 587 0030 7047     		bx	lr
 588              	.L56:
 589 0032 00BF     		.align	2
 590              	.L55:
 591 0034 00000000 		.word	.LANCHOR2
 592 0038 00000000 		.word	.LANCHOR0
 593              		.cfi_endproc
 594              	.LFE263:
 595              		.size	spi_lld_ignore, .-spi_lld_ignore
 596              		.section	.text.spi_lld_exchange,"ax",%progbits
 597              		.align	2
 598              		.p2align 4,,15
 599              		.global	spi_lld_exchange
 600              		.thumb
 601              		.thumb_func
 602              		.type	spi_lld_exchange, %function
 603              	spi_lld_exchange:
 604              	.LFB264:
 605              		.loc 1 545 0
 606              		.cfi_startproc
 607              		@ args = 0, pretend = 0, frame = 0
 608              		@ frame_needed = 0, uses_anonymous_args = 0
 609              		@ link register save eliminated.
 610              	.LVL33:
 611 0000 F0B4     		push	{r4, r5, r6, r7}
 612              		.cfi_def_cfa_offset 16
 613              		.cfi_offset 4, -16
 614              		.cfi_offset 5, -12
 615              		.cfi_offset 6, -8
 616              		.cfi_offset 7, -4
 617              		.loc 1 547 0
 618 0002 046A     		ldr	r4, [r0, #32]
 619              		.loc 1 551 0
 620 0004 476A     		ldr	r7, [r0, #36]
 621              		.loc 1 549 0
 622 0006 866A     		ldr	r6, [r0, #40]
 623              		.loc 1 553 0
 624 0008 C56A     		ldr	r5, [r0, #44]
 625              		.loc 1 547 0
 626 000a 2468     		ldr	r4, [r4]
 627              		.loc 1 551 0
ARM GAS  /tmp/ccM18M7v.s 			page 12


 628 000c 3868     		ldr	r0, [r7]
 629              	.LVL34:
 630              		.loc 1 547 0
 631 000e E360     		str	r3, [r4, #12]
 632              		.loc 1 549 0
 633 0010 46F48066 		orr	r6, r6, #1024
 634              		.loc 1 553 0
 635 0014 45F48065 		orr	r5, r5, #1024
 636              		.loc 1 548 0
 637 0018 6160     		str	r1, [r4, #4]
 638              		.loc 1 549 0
 639 001a 2660     		str	r6, [r4]
 640              		.loc 1 551 0
 641 001c C260     		str	r2, [r0, #12]
 642              		.loc 1 552 0
 643 001e 4160     		str	r1, [r0, #4]
 644              		.loc 1 553 0
 645 0020 0560     		str	r5, [r0]
 646              		.loc 1 555 0
 647 0022 2368     		ldr	r3, [r4]
 648              	.LVL35:
 649 0024 43F00103 		orr	r3, r3, #1
 650 0028 2360     		str	r3, [r4]
 651              		.loc 1 556 0
 652 002a 0368     		ldr	r3, [r0]
 653 002c 43F00103 		orr	r3, r3, #1
 654 0030 0360     		str	r3, [r0]
 655              		.loc 1 557 0
 656 0032 F0BC     		pop	{r4, r5, r6, r7}
 657              		.cfi_restore 7
 658              		.cfi_restore 6
 659              		.cfi_restore 5
 660              		.cfi_restore 4
 661              		.cfi_def_cfa_offset 0
 662 0034 7047     		bx	lr
 663              		.cfi_endproc
 664              	.LFE264:
 665              		.size	spi_lld_exchange, .-spi_lld_exchange
 666 0036 00BF     		.section	.text.spi_lld_send,"ax",%progbits
 667              		.align	2
 668              		.p2align 4,,15
 669              		.global	spi_lld_send
 670              		.thumb
 671              		.thumb_func
 672              		.type	spi_lld_send, %function
 673              	spi_lld_send:
 674              	.LFB265:
 675              		.loc 1 572 0
 676              		.cfi_startproc
 677              		@ args = 0, pretend = 0, frame = 0
 678              		@ frame_needed = 0, uses_anonymous_args = 0
 679              		@ link register save eliminated.
 680              	.LVL36:
 681 0000 70B4     		push	{r4, r5, r6}
 682              		.cfi_def_cfa_offset 12
 683              		.cfi_offset 4, -12
 684              		.cfi_offset 5, -8
ARM GAS  /tmp/ccM18M7v.s 			page 13


 685              		.cfi_offset 6, -4
 686              		.loc 1 578 0
 687 0002 436A     		ldr	r3, [r0, #36]
 688              		.loc 1 574 0
 689 0004 046A     		ldr	r4, [r0, #32]
 690              		.loc 1 580 0
 691 0006 C56A     		ldr	r5, [r0, #44]
 692              		.loc 1 574 0
 693 0008 2468     		ldr	r4, [r4]
 694              		.loc 1 578 0
 695 000a 1B68     		ldr	r3, [r3]
 696              		.loc 1 576 0
 697 000c 806A     		ldr	r0, [r0, #40]
 698              	.LVL37:
 699              		.loc 1 574 0
 700 000e 094E     		ldr	r6, .L61
 701 0010 E660     		str	r6, [r4, #12]
 702              		.loc 1 580 0
 703 0012 45F48065 		orr	r5, r5, #1024
 704              		.loc 1 575 0
 705 0016 6160     		str	r1, [r4, #4]
 706              		.loc 1 576 0
 707 0018 2060     		str	r0, [r4]
 708              		.loc 1 578 0
 709 001a DA60     		str	r2, [r3, #12]
 710              		.loc 1 579 0
 711 001c 5960     		str	r1, [r3, #4]
 712              		.loc 1 580 0
 713 001e 1D60     		str	r5, [r3]
 714              		.loc 1 582 0
 715 0020 2268     		ldr	r2, [r4]
 716              	.LVL38:
 717 0022 42F00102 		orr	r2, r2, #1
 718 0026 2260     		str	r2, [r4]
 719              		.loc 1 583 0
 720 0028 1A68     		ldr	r2, [r3]
 721 002a 42F00102 		orr	r2, r2, #1
 722 002e 1A60     		str	r2, [r3]
 723              		.loc 1 584 0
 724 0030 70BC     		pop	{r4, r5, r6}
 725              		.cfi_restore 6
 726              		.cfi_restore 5
 727              		.cfi_restore 4
 728              		.cfi_def_cfa_offset 0
 729 0032 7047     		bx	lr
 730              	.L62:
 731              		.align	2
 732              	.L61:
 733 0034 00000000 		.word	.LANCHOR2
 734              		.cfi_endproc
 735              	.LFE265:
 736              		.size	spi_lld_send, .-spi_lld_send
 737              		.section	.text.spi_lld_receive,"ax",%progbits
 738              		.align	2
 739              		.p2align 4,,15
 740              		.global	spi_lld_receive
 741              		.thumb
ARM GAS  /tmp/ccM18M7v.s 			page 14


 742              		.thumb_func
 743              		.type	spi_lld_receive, %function
 744              	spi_lld_receive:
 745              	.LFB266:
 746              		.loc 1 599 0
 747              		.cfi_startproc
 748              		@ args = 0, pretend = 0, frame = 0
 749              		@ frame_needed = 0, uses_anonymous_args = 0
 750              		@ link register save eliminated.
 751              	.LVL39:
 752 0000 70B4     		push	{r4, r5, r6}
 753              		.cfi_def_cfa_offset 12
 754              		.cfi_offset 4, -12
 755              		.cfi_offset 5, -8
 756              		.cfi_offset 6, -4
 757              		.loc 1 605 0
 758 0002 436A     		ldr	r3, [r0, #36]
 759              		.loc 1 601 0
 760 0004 046A     		ldr	r4, [r0, #32]
 761              		.loc 1 603 0
 762 0006 856A     		ldr	r5, [r0, #40]
 763              		.loc 1 601 0
 764 0008 2468     		ldr	r4, [r4]
 765              		.loc 1 605 0
 766 000a 1B68     		ldr	r3, [r3]
 767              		.loc 1 607 0
 768 000c C06A     		ldr	r0, [r0, #44]
 769              	.LVL40:
 770              		.loc 1 605 0
 771 000e 094E     		ldr	r6, .L65
 772              		.loc 1 601 0
 773 0010 E260     		str	r2, [r4, #12]
 774              		.loc 1 603 0
 775 0012 45F48065 		orr	r5, r5, #1024
 776              		.loc 1 602 0
 777 0016 6160     		str	r1, [r4, #4]
 778              		.loc 1 603 0
 779 0018 2560     		str	r5, [r4]
 780              		.loc 1 605 0
 781 001a DE60     		str	r6, [r3, #12]
 782              		.loc 1 606 0
 783 001c 5960     		str	r1, [r3, #4]
 784              		.loc 1 607 0
 785 001e 1860     		str	r0, [r3]
 786              		.loc 1 609 0
 787 0020 2268     		ldr	r2, [r4]
 788              	.LVL41:
 789 0022 42F00102 		orr	r2, r2, #1
 790 0026 2260     		str	r2, [r4]
 791              		.loc 1 610 0
 792 0028 1A68     		ldr	r2, [r3]
 793 002a 42F00102 		orr	r2, r2, #1
 794 002e 1A60     		str	r2, [r3]
 795              		.loc 1 611 0
 796 0030 70BC     		pop	{r4, r5, r6}
 797              		.cfi_restore 6
 798              		.cfi_restore 5
ARM GAS  /tmp/ccM18M7v.s 			page 15


 799              		.cfi_restore 4
 800              		.cfi_def_cfa_offset 0
 801 0032 7047     		bx	lr
 802              	.L66:
 803              		.align	2
 804              	.L65:
 805 0034 00000000 		.word	.LANCHOR0
 806              		.cfi_endproc
 807              	.LFE266:
 808              		.size	spi_lld_receive, .-spi_lld_receive
 809              		.section	.text.spi_lld_polled_exchange,"ax",%progbits
 810              		.align	2
 811              		.p2align 4,,15
 812              		.global	spi_lld_polled_exchange
 813              		.thumb
 814              		.thumb_func
 815              		.type	spi_lld_polled_exchange, %function
 816              	spi_lld_polled_exchange:
 817              	.LFB267:
 818              		.loc 1 625 0
 819              		.cfi_startproc
 820              		@ args = 0, pretend = 0, frame = 0
 821              		@ frame_needed = 0, uses_anonymous_args = 0
 822              		@ link register save eliminated.
 823              	.LVL42:
 824              		.loc 1 627 0
 825 0000 C269     		ldr	r2, [r0, #28]
 826 0002 D160     		str	r1, [r2, #12]
 827              	.L68:
 828              		.loc 1 628 0 discriminator 1
 829 0004 9368     		ldr	r3, [r2, #8]
 830 0006 DB07     		lsls	r3, r3, #31
 831 0008 FCD5     		bpl	.L68
 832              		.loc 1 630 0
 833 000a D068     		ldr	r0, [r2, #12]
 834              	.LVL43:
 835              		.loc 1 631 0
 836 000c 80B2     		uxth	r0, r0
 837 000e 7047     		bx	lr
 838              		.cfi_endproc
 839              	.LFE267:
 840              		.size	spi_lld_polled_exchange, .-spi_lld_polled_exchange
 841              		.global	SPID2
 842              		.section	.bss.dummytx,"aw",%nobits
 843              		.align	1
 844              		.set	.LANCHOR0,. + 0
 845              		.type	dummytx, %object
 846              		.size	dummytx, 2
 847              	dummytx:
 848 0000 0000     		.space	2
 849              		.section	.bss.SPID2,"aw",%nobits
 850              		.align	2
 851              		.set	.LANCHOR1,. + 0
 852              		.type	SPID2, %object
 853              		.size	SPID2, 48
 854              	SPID2:
 855 0000 00000000 		.space	48
ARM GAS  /tmp/ccM18M7v.s 			page 16


 855      00000000 
 855      00000000 
 855      00000000 
 855      00000000 
 856              		.section	.rodata.str1.4,"aMS",%progbits,1
 857              		.align	2
 858              	.LC0:
 859 0000 444D4120 		.ascii	"DMA failure\000"
 859      6661696C 
 859      75726500 
 860              		.section	.bss.dummyrx,"aw",%nobits
 861              		.align	1
 862              		.set	.LANCHOR2,. + 0
 863              		.type	dummyrx, %object
 864              		.size	dummyrx, 2
 865              	dummyrx:
 866 0000 0000     		.space	2
 867              		.text
 868              	.Letext0:
 869              		.file 4 "/usr/lib/gcc/arm-none-eabi/4.9.3/include/stddef.h"
 870              		.file 5 "/usr/arm-none-eabi/include/machine/_default_types.h"
 871              		.file 6 "/usr/arm-none-eabi/include/sys/_stdint.h"
 872              		.file 7 "ChibiOS_3.0.2/os/rt/ports/ARMCMx/compilers/GCC/chtypes.h"
 873              		.file 8 "ChibiOS_3.0.2/os/rt/include/chsystypes.h"
 874              		.file 9 "ChibiOS_3.0.2/os/rt/include/chschd.h"
 875              		.file 10 "ChibiOS_3.0.2/os/ext/CMSIS/ST/stm32f407xx.h"
 876              		.file 11 "ChibiOS_3.0.2/os/rt/ports/ARMCMx/chcore.h"
 877              		.file 12 "ChibiOS_3.0.2/os/rt/ports/ARMCMx/chcore_v7m.h"
 878              		.file 13 "ChibiOS_3.0.2/os/rt/include/chtm.h"
 879              		.file 14 "ChibiOS_3.0.2/os/rt/include/chsem.h"
 880              		.file 15 "ChibiOS_3.0.2/os/rt/include/chmtx.h"
 881              		.file 16 "ChibiOS_3.0.2/os/hal/ports/STM32/STM32F4xx/stm32_dma.h"
 882              		.file 17 "ChibiOS_3.0.2/os/hal/ports/STM32/LLD/GPIOv2/pal_lld.h"
 883              		.file 18 "ChibiOS_3.0.2/os/hal/include/spi.h"
 884              		.file 19 "ChibiOS_3.0.2/os/hal/ports/STM32/LLD/SPIv1/spi_lld.h"
 885              		.file 20 "ChibiOS_3.0.2/os/rt/include/chsys.h"
 886              		.file 21 "ChibiOS_3.0.2/os/ext/CMSIS/include/core_cm4.h"
 887              		.file 22 "ChibiOS_3.0.2/os/rt/include/chthreads.h"