ARM GAS  /tmp/ccsQReYy.s 			page 1


   1              		.syntax unified
   2              		.cpu cortex-m4
   3              		.eabi_attribute 27, 1
   4              		.eabi_attribute 28, 1
   5              		.fpu fpv4-sp-d16
   6              		.eabi_attribute 20, 1
   7              		.eabi_attribute 21, 1
   8              		.eabi_attribute 23, 3
   9              		.eabi_attribute 24, 1
  10              		.eabi_attribute 25, 1
  11              		.eabi_attribute 26, 1
  12              		.eabi_attribute 30, 2
  13              		.eabi_attribute 34, 1
  14              		.eabi_attribute 18, 4
  15              		.thumb
  16              		.file	"stm32f4xx_rcc.c"
  17              		.text
  18              	.Ltext0:
  19              		.cfi_sections	.debug_frame
  20              		.section	.text.RCC_DeInit,"ax",%progbits
  21              		.align	2
  22              		.p2align 4,,15
  23              		.global	RCC_DeInit
  24              		.thumb
  25              		.thumb_func
  26              		.type	RCC_DeInit, %function
  27              	RCC_DeInit:
  28              	.LFB112:
  29              		.file 1 "ChibiOS_3.0.2/ext/stdperiph_stm32f4/src/stm32f4xx_rcc.c"
  30              		.loc 1 246 0
  31              		.cfi_startproc
  32              		@ args = 0, pretend = 0, frame = 0
  33              		@ frame_needed = 0, uses_anonymous_args = 0
  34              		@ link register save eliminated.
  35              		.loc 1 248 0
  36 0000 0A4B     		ldr	r3, .L2
  37              		.loc 1 257 0
  38 0002 0B48     		ldr	r0, .L2+4
  39              		.loc 1 248 0
  40 0004 1A68     		ldr	r2, [r3]
  41              		.loc 1 251 0
  42 0006 0021     		movs	r1, #0
  43              		.loc 1 248 0
  44 0008 42F00102 		orr	r2, r2, #1
  45 000c 1A60     		str	r2, [r3]
  46              		.loc 1 251 0
  47 000e 9960     		str	r1, [r3, #8]
  48              		.loc 1 254 0
  49 0010 1A68     		ldr	r2, [r3]
  50 0012 22F0A852 		bic	r2, r2, #352321536
  51 0016 22F41022 		bic	r2, r2, #589824
  52 001a 1A60     		str	r2, [r3]
  53              		.loc 1 257 0
  54 001c 5860     		str	r0, [r3, #4]
  55              		.loc 1 270 0
  56 001e 1A68     		ldr	r2, [r3]
  57 0020 22F48022 		bic	r2, r2, #262144
ARM GAS  /tmp/ccsQReYy.s 			page 2


  58 0024 1A60     		str	r2, [r3]
  59              		.loc 1 273 0
  60 0026 D960     		str	r1, [r3, #12]
  61 0028 7047     		bx	lr
  62              	.L3:
  63 002a 00BF     		.align	2
  64              	.L2:
  65 002c 00380240 		.word	1073887232
  66 0030 10300024 		.word	603992080
  67              		.cfi_endproc
  68              	.LFE112:
  69              		.size	RCC_DeInit, .-RCC_DeInit
  70              		.section	.text.RCC_HSEConfig,"ax",%progbits
  71              		.align	2
  72              		.p2align 4,,15
  73              		.global	RCC_HSEConfig
  74              		.thumb
  75              		.thumb_func
  76              		.type	RCC_HSEConfig, %function
  77              	RCC_HSEConfig:
  78              	.LFB113:
  79              		.loc 1 297 0
  80              		.cfi_startproc
  81              		@ args = 0, pretend = 0, frame = 0
  82              		@ frame_needed = 0, uses_anonymous_args = 0
  83              		@ link register save eliminated.
  84              	.LVL0:
  85              		.loc 1 302 0
  86 0000 024B     		ldr	r3, .L5
  87 0002 0022     		movs	r2, #0
  88 0004 1A70     		strb	r2, [r3]
  89              		.loc 1 305 0
  90 0006 1870     		strb	r0, [r3]
  91 0008 7047     		bx	lr
  92              	.L6:
  93 000a 00BF     		.align	2
  94              	.L5:
  95 000c 02380240 		.word	1073887234
  96              		.cfi_endproc
  97              	.LFE113:
  98              		.size	RCC_HSEConfig, .-RCC_HSEConfig
  99              		.section	.text.RCC_WaitForHSEStartUp,"ax",%progbits
 100              		.align	2
 101              		.p2align 4,,15
 102              		.global	RCC_WaitForHSEStartUp
 103              		.thumb
 104              		.thumb_func
 105              		.type	RCC_WaitForHSEStartUp, %function
 106              	RCC_WaitForHSEStartUp:
 107              	.LFB114:
 108              		.loc 1 321 0
 109              		.cfi_startproc
 110              		@ args = 0, pretend = 0, frame = 8
 111              		@ frame_needed = 0, uses_anonymous_args = 0
 112              		@ link register save eliminated.
 113 0000 82B0     		sub	sp, sp, #8
 114              		.cfi_def_cfa_offset 8
ARM GAS  /tmp/ccsQReYy.s 			page 3


 115              		.loc 1 322 0
 116 0002 0023     		movs	r3, #0
 117              	.LBB6:
 118              	.LBB7:
 119              		.loc 1 2750 0
 120 0004 0A4A     		ldr	r2, .L18
 121              	.LBE7:
 122              	.LBE6:
 123              		.loc 1 322 0
 124 0006 0193     		str	r3, [sp, #4]
 125              	.LVL1:
 126 0008 02E0     		b	.L11
 127              	.LVL2:
 128              	.L17:
 129              		.loc 1 330 0
 130 000a B3F5A04F 		cmp	r3, #20480
 131 000e 08D0     		beq	.L10
 132              	.LVL3:
 133              	.L11:
 134              	.LBB10:
 135              	.LBB8:
 136              		.loc 1 2750 0 discriminator 2
 137 0010 1368     		ldr	r3, [r2]
 138              	.LVL4:
 139              		.loc 1 2763 0 discriminator 2
 140 0012 13F4003F 		tst	r3, #131072
 141              	.LBE8:
 142              	.LBE10:
 143              		.loc 1 329 0 discriminator 2
 144 0016 019B     		ldr	r3, [sp, #4]
 145              	.LVL5:
 146 0018 03F10103 		add	r3, r3, #1
 147 001c 0193     		str	r3, [sp, #4]
 148              		.loc 1 330 0 discriminator 2
 149 001e 019B     		ldr	r3, [sp, #4]
 150              	.LBB11:
 151              	.LBB9:
 152              		.loc 1 2763 0 discriminator 2
 153 0020 F3D0     		beq	.L17
 154              	.L10:
 155              	.LVL6:
 156              	.LBE9:
 157              	.LBE11:
 158              	.LBB12:
 159              	.LBB13:
 160              		.loc 1 2750 0
 161 0022 034B     		ldr	r3, .L18
 162 0024 1868     		ldr	r0, [r3]
 163              	.LVL7:
 164              	.LBE13:
 165              	.LBE12:
 166              		.loc 1 340 0
 167 0026 C0F34040 		ubfx	r0, r0, #17, #1
 168              	.LVL8:
 169              		.loc 1 341 0
 170 002a 02B0     		add	sp, sp, #8
 171              		.cfi_def_cfa_offset 0
ARM GAS  /tmp/ccsQReYy.s 			page 4


 172              		@ sp needed
 173 002c 7047     		bx	lr
 174              	.L19:
 175 002e 00BF     		.align	2
 176              	.L18:
 177 0030 00380240 		.word	1073887232
 178              		.cfi_endproc
 179              	.LFE114:
 180              		.size	RCC_WaitForHSEStartUp, .-RCC_WaitForHSEStartUp
 181              		.section	.text.RCC_AdjustHSICalibrationValue,"ax",%progbits
 182              		.align	2
 183              		.p2align 4,,15
 184              		.global	RCC_AdjustHSICalibrationValue
 185              		.thumb
 186              		.thumb_func
 187              		.type	RCC_AdjustHSICalibrationValue, %function
 188              	RCC_AdjustHSICalibrationValue:
 189              	.LFB115:
 190              		.loc 1 352 0
 191              		.cfi_startproc
 192              		@ args = 0, pretend = 0, frame = 0
 193              		@ frame_needed = 0, uses_anonymous_args = 0
 194              		@ link register save eliminated.
 195              	.LVL9:
 196              		.loc 1 357 0
 197 0000 034A     		ldr	r2, .L21
 198 0002 1368     		ldr	r3, [r2]
 199              	.LVL10:
 200              		.loc 1 360 0
 201 0004 23F0F803 		bic	r3, r3, #248
 202              	.LVL11:
 203              		.loc 1 363 0
 204 0008 43EAC000 		orr	r0, r3, r0, lsl #3
 205              	.LVL12:
 206              		.loc 1 366 0
 207 000c 1060     		str	r0, [r2]
 208 000e 7047     		bx	lr
 209              	.L22:
 210              		.align	2
 211              	.L21:
 212 0010 00380240 		.word	1073887232
 213              		.cfi_endproc
 214              	.LFE115:
 215              		.size	RCC_AdjustHSICalibrationValue, .-RCC_AdjustHSICalibrationValue
 216              		.section	.text.RCC_HSICmd,"ax",%progbits
 217              		.align	2
 218              		.p2align 4,,15
 219              		.global	RCC_HSICmd
 220              		.thumb
 221              		.thumb_func
 222              		.type	RCC_HSICmd, %function
 223              	RCC_HSICmd:
 224              	.LFB116:
 225              		.loc 1 388 0
 226              		.cfi_startproc
 227              		@ args = 0, pretend = 0, frame = 0
 228              		@ frame_needed = 0, uses_anonymous_args = 0
ARM GAS  /tmp/ccsQReYy.s 			page 5


 229              		@ link register save eliminated.
 230              	.LVL13:
 231              		.loc 1 392 0
 232 0000 014B     		ldr	r3, .L24
 233 0002 1860     		str	r0, [r3]
 234 0004 7047     		bx	lr
 235              	.L25:
 236 0006 00BF     		.align	2
 237              	.L24:
 238 0008 00004742 		.word	1111949312
 239              		.cfi_endproc
 240              	.LFE116:
 241              		.size	RCC_HSICmd, .-RCC_HSICmd
 242              		.section	.text.RCC_LSEConfig,"ax",%progbits
 243              		.align	2
 244              		.p2align 4,,15
 245              		.global	RCC_LSEConfig
 246              		.thumb
 247              		.thumb_func
 248              		.type	RCC_LSEConfig, %function
 249              	RCC_LSEConfig:
 250              	.LFB117:
 251              		.loc 1 413 0
 252              		.cfi_startproc
 253              		@ args = 0, pretend = 0, frame = 0
 254              		@ frame_needed = 0, uses_anonymous_args = 0
 255              		@ link register save eliminated.
 256              	.LVL14:
 257              		.loc 1 419 0
 258 0000 064B     		ldr	r3, .L31
 259 0002 0022     		movs	r2, #0
 260              		.loc 1 425 0
 261 0004 0128     		cmp	r0, #1
 262              		.loc 1 419 0
 263 0006 1A70     		strb	r2, [r3]
 264              		.loc 1 422 0
 265 0008 1A70     		strb	r2, [r3]
 266              		.loc 1 425 0
 267 000a 05D0     		beq	.L28
 268 000c 0428     		cmp	r0, #4
 269 000e 02D1     		bne	.L30
 270              		.loc 1 433 0
 271 0010 0522     		movs	r2, #5
 272 0012 1A70     		strb	r2, [r3]
 273 0014 7047     		bx	lr
 274              	.L30:
 275 0016 7047     		bx	lr
 276              	.L28:
 277              		.loc 1 429 0
 278 0018 1870     		strb	r0, [r3]
 279              		.loc 1 430 0
 280 001a 7047     		bx	lr
 281              	.L32:
 282              		.align	2
 283              	.L31:
 284 001c 70380240 		.word	1073887344
 285              		.cfi_endproc
ARM GAS  /tmp/ccsQReYy.s 			page 6


 286              	.LFE117:
 287              		.size	RCC_LSEConfig, .-RCC_LSEConfig
 288              		.section	.text.RCC_LSICmd,"ax",%progbits
 289              		.align	2
 290              		.p2align 4,,15
 291              		.global	RCC_LSICmd
 292              		.thumb
 293              		.thumb_func
 294              		.type	RCC_LSICmd, %function
 295              	RCC_LSICmd:
 296              	.LFB118:
 297              		.loc 1 453 0
 298              		.cfi_startproc
 299              		@ args = 0, pretend = 0, frame = 0
 300              		@ frame_needed = 0, uses_anonymous_args = 0
 301              		@ link register save eliminated.
 302              	.LVL15:
 303              		.loc 1 457 0
 304 0000 014B     		ldr	r3, .L34
 305 0002 1860     		str	r0, [r3]
 306 0004 7047     		bx	lr
 307              	.L35:
 308 0006 00BF     		.align	2
 309              	.L34:
 310 0008 800E4742 		.word	1111953024
 311              		.cfi_endproc
 312              	.LFE118:
 313              		.size	RCC_LSICmd, .-RCC_LSICmd
 314              		.section	.text.RCC_PLLCmd,"ax",%progbits
 315              		.align	2
 316              		.p2align 4,,15
 317              		.global	RCC_PLLCmd
 318              		.thumb
 319              		.thumb_func
 320              		.type	RCC_PLLCmd, %function
 321              	RCC_PLLCmd:
 322              	.LFB119:
 323              		.loc 1 576 0
 324              		.cfi_startproc
 325              		@ args = 0, pretend = 0, frame = 0
 326              		@ frame_needed = 0, uses_anonymous_args = 0
 327              		@ link register save eliminated.
 328              	.LVL16:
 329              		.loc 1 579 0
 330 0000 014B     		ldr	r3, .L37
 331 0002 1860     		str	r0, [r3]
 332 0004 7047     		bx	lr
 333              	.L38:
 334 0006 00BF     		.align	2
 335              	.L37:
 336 0008 60004742 		.word	1111949408
 337              		.cfi_endproc
 338              	.LFE119:
 339              		.size	RCC_PLLCmd, .-RCC_PLLCmd
 340              		.section	.text.RCC_PLLI2SCmd,"ax",%progbits
 341              		.align	2
 342              		.p2align 4,,15
ARM GAS  /tmp/ccsQReYy.s 			page 7


 343              		.global	RCC_PLLI2SCmd
 344              		.thumb
 345              		.thumb_func
 346              		.type	RCC_PLLI2SCmd, %function
 347              	RCC_PLLI2SCmd:
 348              	.LFB120:
 349              		.loc 1 745 0
 350              		.cfi_startproc
 351              		@ args = 0, pretend = 0, frame = 0
 352              		@ frame_needed = 0, uses_anonymous_args = 0
 353              		@ link register save eliminated.
 354              	.LVL17:
 355              		.loc 1 748 0
 356 0000 014B     		ldr	r3, .L40
 357 0002 1860     		str	r0, [r3]
 358 0004 7047     		bx	lr
 359              	.L41:
 360 0006 00BF     		.align	2
 361              	.L40:
 362 0008 68004742 		.word	1111949416
 363              		.cfi_endproc
 364              	.LFE120:
 365              		.size	RCC_PLLI2SCmd, .-RCC_PLLI2SCmd
 366              		.section	.text.RCC_PLLSAICmd,"ax",%progbits
 367              		.align	2
 368              		.p2align 4,,15
 369              		.global	RCC_PLLSAICmd
 370              		.thumb
 371              		.thumb_func
 372              		.type	RCC_PLLSAICmd, %function
 373              	RCC_PLLSAICmd:
 374              	.LFB121:
 375              		.loc 1 874 0
 376              		.cfi_startproc
 377              		@ args = 0, pretend = 0, frame = 0
 378              		@ frame_needed = 0, uses_anonymous_args = 0
 379              		@ link register save eliminated.
 380              	.LVL18:
 381              		.loc 1 877 0
 382 0000 014B     		ldr	r3, .L43
 383 0002 1860     		str	r0, [r3]
 384 0004 7047     		bx	lr
 385              	.L44:
 386 0006 00BF     		.align	2
 387              	.L43:
 388 0008 70004742 		.word	1111949424
 389              		.cfi_endproc
 390              	.LFE121:
 391              		.size	RCC_PLLSAICmd, .-RCC_PLLSAICmd
 392              		.section	.text.RCC_ClockSecuritySystemCmd,"ax",%progbits
 393              		.align	2
 394              		.p2align 4,,15
 395              		.global	RCC_ClockSecuritySystemCmd
 396              		.thumb
 397              		.thumb_func
 398              		.type	RCC_ClockSecuritySystemCmd, %function
 399              	RCC_ClockSecuritySystemCmd:
ARM GAS  /tmp/ccsQReYy.s 			page 8


 400              	.LFB122:
 401              		.loc 1 892 0
 402              		.cfi_startproc
 403              		@ args = 0, pretend = 0, frame = 0
 404              		@ frame_needed = 0, uses_anonymous_args = 0
 405              		@ link register save eliminated.
 406              	.LVL19:
 407              		.loc 1 895 0
 408 0000 014B     		ldr	r3, .L46
 409 0002 1860     		str	r0, [r3]
 410 0004 7047     		bx	lr
 411              	.L47:
 412 0006 00BF     		.align	2
 413              	.L46:
 414 0008 4C004742 		.word	1111949388
 415              		.cfi_endproc
 416              	.LFE122:
 417              		.size	RCC_ClockSecuritySystemCmd, .-RCC_ClockSecuritySystemCmd
 418              		.section	.text.RCC_MCO1Config,"ax",%progbits
 419              		.align	2
 420              		.p2align 4,,15
 421              		.global	RCC_MCO1Config
 422              		.thumb
 423              		.thumb_func
 424              		.type	RCC_MCO1Config, %function
 425              	RCC_MCO1Config:
 426              	.LFB123:
 427              		.loc 1 917 0
 428              		.cfi_startproc
 429              		@ args = 0, pretend = 0, frame = 0
 430              		@ frame_needed = 0, uses_anonymous_args = 0
 431              		@ link register save eliminated.
 432              	.LVL20:
 433              		.loc 1 924 0
 434 0000 034A     		ldr	r2, .L49
 435 0002 9368     		ldr	r3, [r2, #8]
 436              	.LVL21:
 437              		.loc 1 927 0
 438 0004 23F0EC63 		bic	r3, r3, #123731968
 439              	.LVL22:
 440 0008 1943     		orrs	r1, r1, r3
 441              	.LVL23:
 442              		.loc 1 930 0
 443 000a 0843     		orrs	r0, r0, r1
 444              	.LVL24:
 445              		.loc 1 933 0
 446 000c 9060     		str	r0, [r2, #8]
 447 000e 7047     		bx	lr
 448              	.L50:
 449              		.align	2
 450              	.L49:
 451 0010 00380240 		.word	1073887232
 452              		.cfi_endproc
 453              	.LFE123:
 454              		.size	RCC_MCO1Config, .-RCC_MCO1Config
 455              		.section	.text.RCC_MCO2Config,"ax",%progbits
 456              		.align	2
ARM GAS  /tmp/ccsQReYy.s 			page 9


 457              		.p2align 4,,15
 458              		.global	RCC_MCO2Config
 459              		.thumb
 460              		.thumb_func
 461              		.type	RCC_MCO2Config, %function
 462              	RCC_MCO2Config:
 463              	.LFB124:
 464              		.loc 1 962 0
 465              		.cfi_startproc
 466              		@ args = 0, pretend = 0, frame = 0
 467              		@ frame_needed = 0, uses_anonymous_args = 0
 468              		@ link register save eliminated.
 469              	.LVL25:
 470              		.loc 1 969 0
 471 0000 034A     		ldr	r2, .L52
 472 0002 9368     		ldr	r3, [r2, #8]
 473              	.LVL26:
 474              		.loc 1 972 0
 475 0004 23F07843 		bic	r3, r3, #-134217728
 476              	.LVL27:
 477 0008 1943     		orrs	r1, r1, r3
 478              	.LVL28:
 479              		.loc 1 975 0
 480 000a 0843     		orrs	r0, r0, r1
 481              	.LVL29:
 482              		.loc 1 978 0
 483 000c 9060     		str	r0, [r2, #8]
 484 000e 7047     		bx	lr
 485              	.L53:
 486              		.align	2
 487              	.L52:
 488 0010 00380240 		.word	1073887232
 489              		.cfi_endproc
 490              	.LFE124:
 491              		.size	RCC_MCO2Config, .-RCC_MCO2Config
 492              		.section	.text.RCC_SYSCLKConfig,"ax",%progbits
 493              		.align	2
 494              		.p2align 4,,15
 495              		.global	RCC_SYSCLKConfig
 496              		.thumb
 497              		.thumb_func
 498              		.type	RCC_SYSCLKConfig, %function
 499              	RCC_SYSCLKConfig:
 500              	.LFB125:
 501              		.loc 1 1162 0
 502              		.cfi_startproc
 503              		@ args = 0, pretend = 0, frame = 0
 504              		@ frame_needed = 0, uses_anonymous_args = 0
 505              		@ link register save eliminated.
 506              	.LVL30:
 507              		.loc 1 1168 0
 508 0000 034A     		ldr	r2, .L55
 509 0002 9368     		ldr	r3, [r2, #8]
 510              	.LVL31:
 511              		.loc 1 1171 0
 512 0004 23F00303 		bic	r3, r3, #3
 513              	.LVL32:
ARM GAS  /tmp/ccsQReYy.s 			page 10


 514              		.loc 1 1174 0
 515 0008 1843     		orrs	r0, r0, r3
 516              	.LVL33:
 517              		.loc 1 1177 0
 518 000a 9060     		str	r0, [r2, #8]
 519 000c 7047     		bx	lr
 520              	.L56:
 521 000e 00BF     		.align	2
 522              	.L55:
 523 0010 00380240 		.word	1073887232
 524              		.cfi_endproc
 525              	.LFE125:
 526              		.size	RCC_SYSCLKConfig, .-RCC_SYSCLKConfig
 527              		.section	.text.RCC_GetSYSCLKSource,"ax",%progbits
 528              		.align	2
 529              		.p2align 4,,15
 530              		.global	RCC_GetSYSCLKSource
 531              		.thumb
 532              		.thumb_func
 533              		.type	RCC_GetSYSCLKSource, %function
 534              	RCC_GetSYSCLKSource:
 535              	.LFB126:
 536              		.loc 1 1191 0
 537              		.cfi_startproc
 538              		@ args = 0, pretend = 0, frame = 0
 539              		@ frame_needed = 0, uses_anonymous_args = 0
 540              		@ link register save eliminated.
 541              		.loc 1 1192 0
 542 0000 024B     		ldr	r3, .L58
 543 0002 9868     		ldr	r0, [r3, #8]
 544              		.loc 1 1193 0
 545 0004 00F00C00 		and	r0, r0, #12
 546 0008 7047     		bx	lr
 547              	.L59:
 548 000a 00BF     		.align	2
 549              	.L58:
 550 000c 00380240 		.word	1073887232
 551              		.cfi_endproc
 552              	.LFE126:
 553              		.size	RCC_GetSYSCLKSource, .-RCC_GetSYSCLKSource
 554              		.section	.text.RCC_HCLKConfig,"ax",%progbits
 555              		.align	2
 556              		.p2align 4,,15
 557              		.global	RCC_HCLKConfig
 558              		.thumb
 559              		.thumb_func
 560              		.type	RCC_HCLKConfig, %function
 561              	RCC_HCLKConfig:
 562              	.LFB127:
 563              		.loc 1 1216 0
 564              		.cfi_startproc
 565              		@ args = 0, pretend = 0, frame = 0
 566              		@ frame_needed = 0, uses_anonymous_args = 0
 567              		@ link register save eliminated.
 568              	.LVL34:
 569              		.loc 1 1222 0
 570 0000 034A     		ldr	r2, .L61
ARM GAS  /tmp/ccsQReYy.s 			page 11


 571 0002 9368     		ldr	r3, [r2, #8]
 572              	.LVL35:
 573              		.loc 1 1225 0
 574 0004 23F0F003 		bic	r3, r3, #240
 575              	.LVL36:
 576              		.loc 1 1228 0
 577 0008 1843     		orrs	r0, r0, r3
 578              	.LVL37:
 579              		.loc 1 1231 0
 580 000a 9060     		str	r0, [r2, #8]
 581 000c 7047     		bx	lr
 582              	.L62:
 583 000e 00BF     		.align	2
 584              	.L61:
 585 0010 00380240 		.word	1073887232
 586              		.cfi_endproc
 587              	.LFE127:
 588              		.size	RCC_HCLKConfig, .-RCC_HCLKConfig
 589              		.section	.text.RCC_PCLK1Config,"ax",%progbits
 590              		.align	2
 591              		.p2align 4,,15
 592              		.global	RCC_PCLK1Config
 593              		.thumb
 594              		.thumb_func
 595              		.type	RCC_PCLK1Config, %function
 596              	RCC_PCLK1Config:
 597              	.LFB128:
 598              		.loc 1 1247 0
 599              		.cfi_startproc
 600              		@ args = 0, pretend = 0, frame = 0
 601              		@ frame_needed = 0, uses_anonymous_args = 0
 602              		@ link register save eliminated.
 603              	.LVL38:
 604              		.loc 1 1253 0
 605 0000 034A     		ldr	r2, .L64
 606 0002 9368     		ldr	r3, [r2, #8]
 607              	.LVL39:
 608              		.loc 1 1256 0
 609 0004 23F4E053 		bic	r3, r3, #7168
 610              	.LVL40:
 611              		.loc 1 1259 0
 612 0008 1843     		orrs	r0, r0, r3
 613              	.LVL41:
 614              		.loc 1 1262 0
 615 000a 9060     		str	r0, [r2, #8]
 616 000c 7047     		bx	lr
 617              	.L65:
 618 000e 00BF     		.align	2
 619              	.L64:
 620 0010 00380240 		.word	1073887232
 621              		.cfi_endproc
 622              	.LFE128:
 623              		.size	RCC_PCLK1Config, .-RCC_PCLK1Config
 624              		.section	.text.RCC_PCLK2Config,"ax",%progbits
 625              		.align	2
 626              		.p2align 4,,15
 627              		.global	RCC_PCLK2Config
ARM GAS  /tmp/ccsQReYy.s 			page 12


 628              		.thumb
 629              		.thumb_func
 630              		.type	RCC_PCLK2Config, %function
 631              	RCC_PCLK2Config:
 632              	.LFB129:
 633              		.loc 1 1278 0
 634              		.cfi_startproc
 635              		@ args = 0, pretend = 0, frame = 0
 636              		@ frame_needed = 0, uses_anonymous_args = 0
 637              		@ link register save eliminated.
 638              	.LVL42:
 639              		.loc 1 1284 0
 640 0000 034A     		ldr	r2, .L67
 641 0002 9368     		ldr	r3, [r2, #8]
 642              	.LVL43:
 643              		.loc 1 1287 0
 644 0004 23F46043 		bic	r3, r3, #57344
 645              	.LVL44:
 646              		.loc 1 1290 0
 647 0008 43EAC000 		orr	r0, r3, r0, lsl #3
 648              	.LVL45:
 649              		.loc 1 1293 0
 650 000c 9060     		str	r0, [r2, #8]
 651 000e 7047     		bx	lr
 652              	.L68:
 653              		.align	2
 654              	.L67:
 655 0010 00380240 		.word	1073887232
 656              		.cfi_endproc
 657              	.LFE129:
 658              		.size	RCC_PCLK2Config, .-RCC_PCLK2Config
 659              		.section	.text.RCC_GetClocksFreq,"ax",%progbits
 660              		.align	2
 661              		.p2align 4,,15
 662              		.global	RCC_GetClocksFreq
 663              		.thumb
 664              		.thumb_func
 665              		.type	RCC_GetClocksFreq, %function
 666              	RCC_GetClocksFreq:
 667              	.LFB130:
 668              		.loc 1 1330 0
 669              		.cfi_startproc
 670              		@ args = 0, pretend = 0, frame = 0
 671              		@ frame_needed = 0, uses_anonymous_args = 0
 672              		@ link register save eliminated.
 673              	.LVL46:
 674 0000 10B4     		push	{r4}
 675              		.cfi_def_cfa_offset 4
 676              		.cfi_offset 4, -4
 677              		.loc 1 1337 0
 678 0002 214C     		ldr	r4, .L81
 679 0004 A368     		ldr	r3, [r4, #8]
 680              	.LVL47:
 681 0006 03F00C03 		and	r3, r3, #12
 682              	.LVL48:
 683              		.loc 1 1339 0
 684 000a 042B     		cmp	r3, #4
ARM GAS  /tmp/ccsQReYy.s 			page 13


 685 000c 1BD0     		beq	.L71
 686 000e 082B     		cmp	r3, #8
 687 0010 1CD0     		beq	.L80
 688              		.loc 1 1395 0
 689 0012 1E4B     		ldr	r3, .L81+4
 690              	.LVL49:
 691 0014 0360     		str	r3, [r0]
 692              	.LVL50:
 693              	.L74:
 694              		.loc 1 1401 0
 695 0016 1C4A     		ldr	r2, .L81
 696              		.loc 1 1403 0
 697 0018 1D49     		ldr	r1, .L81+8
 698              		.loc 1 1401 0
 699 001a 9468     		ldr	r4, [r2, #8]
 700              	.LVL51:
 701              		.loc 1 1402 0
 702 001c C4F30314 		ubfx	r4, r4, #4, #4
 703              	.LVL52:
 704              		.loc 1 1403 0
 705 0020 0C5D     		ldrb	r4, [r1, r4]	@ zero_extendqisi2
 706              	.LVL53:
 707              		.loc 1 1405 0
 708 0022 E340     		lsrs	r3, r3, r4
 709 0024 4360     		str	r3, [r0, #4]
 710              		.loc 1 1408 0
 711 0026 9468     		ldr	r4, [r2, #8]
 712              	.LVL54:
 713              		.loc 1 1409 0
 714 0028 C4F38224 		ubfx	r4, r4, #10, #3
 715              	.LVL55:
 716              		.loc 1 1410 0
 717 002c 0C5D     		ldrb	r4, [r1, r4]	@ zero_extendqisi2
 718              	.LVL56:
 719              		.loc 1 1412 0
 720 002e 23FA04F4 		lsr	r4, r3, r4
 721              	.LVL57:
 722 0032 8460     		str	r4, [r0, #8]
 723              		.loc 1 1415 0
 724 0034 9268     		ldr	r2, [r2, #8]
 725              	.LVL58:
 726              		.loc 1 1420 0
 727 0036 5DF8044B 		ldr	r4, [sp], #4
 728              		.cfi_remember_state
 729              		.cfi_restore 4
 730              		.cfi_def_cfa_offset 0
 731              		.loc 1 1416 0
 732 003a C2F34232 		ubfx	r2, r2, #13, #3
 733              	.LVL59:
 734              		.loc 1 1417 0
 735 003e 8A5C     		ldrb	r2, [r1, r2]	@ zero_extendqisi2
 736              	.LVL60:
 737              		.loc 1 1419 0
 738 0040 D340     		lsrs	r3, r3, r2
 739 0042 C360     		str	r3, [r0, #12]
 740              		.loc 1 1420 0
 741 0044 7047     		bx	lr
ARM GAS  /tmp/ccsQReYy.s 			page 14


 742              	.LVL61:
 743              	.L71:
 744              		.cfi_restore_state
 745              		.loc 1 1345 0
 746 0046 134B     		ldr	r3, .L81+12
 747              	.LVL62:
 748 0048 0360     		str	r3, [r0]
 749              		.loc 1 1346 0
 750 004a E4E7     		b	.L74
 751              	.LVL63:
 752              	.L80:
 753              		.loc 1 1352 0
 754 004c 6368     		ldr	r3, [r4, #4]
 755              	.LVL64:
 756              		.loc 1 1353 0
 757 004e 6168     		ldr	r1, [r4, #4]
 758              		.loc 1 1355 0
 759 0050 13F4800F 		tst	r3, #4194304
 760              		.loc 1 1358 0
 761 0054 6368     		ldr	r3, [r4, #4]
 762              	.LVL65:
 763 0056 18BF     		it	ne
 764 0058 0E4C     		ldrne	r4, .L81+12
 765              		.loc 1 1353 0
 766 005a 01F03F02 		and	r2, r1, #63
 767              	.LVL66:
 768              		.loc 1 1363 0
 769 005e 0CBF     		ite	eq
 770 0060 0A49     		ldreq	r1, .L81+4
 771              		.loc 1 1358 0
 772 0062 B4FBF2F1 		udivne	r1, r4, r2
 773              		.loc 1 1363 0
 774 0066 C3F38813 		ubfx	r3, r3, #6, #9
 775 006a 08BF     		it	eq
 776 006c B1FBF2F1 		udiveq	r1, r1, r2
 777 0070 01FB03F2 		mul	r2, r1, r3
 778              	.LVL67:
 779              		.loc 1 1366 0
 780 0074 044B     		ldr	r3, .L81
 781 0076 5B68     		ldr	r3, [r3, #4]
 782              	.LVL68:
 783 0078 C3F30143 		ubfx	r3, r3, #16, #2
 784              	.LVL69:
 785 007c 0133     		adds	r3, r3, #1
 786 007e 5B00     		lsls	r3, r3, #1
 787              		.loc 1 1367 0
 788 0080 B2FBF3F3 		udiv	r3, r2, r3
 789 0084 0360     		str	r3, [r0]
 790              		.loc 1 1368 0
 791 0086 C6E7     		b	.L74
 792              	.L82:
 793              		.align	2
 794              	.L81:
 795 0088 00380240 		.word	1073887232
 796 008c 0024F400 		.word	16000000
 797 0090 00000000 		.word	.LANCHOR0
 798 0094 00127A00 		.word	8000000
ARM GAS  /tmp/ccsQReYy.s 			page 15


 799              		.cfi_endproc
 800              	.LFE130:
 801              		.size	RCC_GetClocksFreq, .-RCC_GetClocksFreq
 802              		.section	.text.RCC_RTCCLKConfig,"ax",%progbits
 803              		.align	2
 804              		.p2align 4,,15
 805              		.global	RCC_RTCCLKConfig
 806              		.thumb
 807              		.thumb_func
 808              		.type	RCC_RTCCLKConfig, %function
 809              	RCC_RTCCLKConfig:
 810              	.LFB131:
 811              		.loc 1 1483 0
 812              		.cfi_startproc
 813              		@ args = 0, pretend = 0, frame = 0
 814              		@ frame_needed = 0, uses_anonymous_args = 0
 815              		@ link register save eliminated.
 816              	.LVL70:
 817              		.loc 1 1489 0
 818 0000 00F44073 		and	r3, r0, #768
 819 0004 B3F5407F 		cmp	r3, #768
 820 0008 09D1     		bne	.L84
 821              		.loc 1 1491 0
 822 000a 0849     		ldr	r1, .L85
 823 000c 8B68     		ldr	r3, [r1, #8]
 824              	.LVL71:
 825              		.loc 1 1497 0
 826 000e 20F07042 		bic	r2, r0, #-268435456
 827              		.loc 1 1494 0
 828 0012 23F4F813 		bic	r3, r3, #2031616
 829              	.LVL72:
 830              		.loc 1 1497 0
 831 0016 22F44072 		bic	r2, r2, #768
 832 001a 1343     		orrs	r3, r3, r2
 833              	.LVL73:
 834              		.loc 1 1500 0
 835 001c 8B60     		str	r3, [r1, #8]
 836              	.LVL74:
 837              	.L84:
 838              		.loc 1 1504 0
 839 001e 034A     		ldr	r2, .L85
 840 0020 136F     		ldr	r3, [r2, #112]
 841 0022 C0F30B00 		ubfx	r0, r0, #0, #12
 842              	.LVL75:
 843 0026 1843     		orrs	r0, r0, r3
 844 0028 1067     		str	r0, [r2, #112]
 845 002a 7047     		bx	lr
 846              	.L86:
 847              		.align	2
 848              	.L85:
 849 002c 00380240 		.word	1073887232
 850              		.cfi_endproc
 851              	.LFE131:
 852              		.size	RCC_RTCCLKConfig, .-RCC_RTCCLKConfig
 853              		.section	.text.RCC_RTCCLKCmd,"ax",%progbits
 854              		.align	2
 855              		.p2align 4,,15
ARM GAS  /tmp/ccsQReYy.s 			page 16


 856              		.global	RCC_RTCCLKCmd
 857              		.thumb
 858              		.thumb_func
 859              		.type	RCC_RTCCLKCmd, %function
 860              	RCC_RTCCLKCmd:
 861              	.LFB132:
 862              		.loc 1 1515 0
 863              		.cfi_startproc
 864              		@ args = 0, pretend = 0, frame = 0
 865              		@ frame_needed = 0, uses_anonymous_args = 0
 866              		@ link register save eliminated.
 867              	.LVL76:
 868              		.loc 1 1519 0
 869 0000 014B     		ldr	r3, .L88
 870 0002 1860     		str	r0, [r3]
 871 0004 7047     		bx	lr
 872              	.L89:
 873 0006 00BF     		.align	2
 874              	.L88:
 875 0008 3C0E4742 		.word	1111952956
 876              		.cfi_endproc
 877              	.LFE132:
 878              		.size	RCC_RTCCLKCmd, .-RCC_RTCCLKCmd
 879              		.section	.text.RCC_BackupResetCmd,"ax",%progbits
 880              		.align	2
 881              		.p2align 4,,15
 882              		.global	RCC_BackupResetCmd
 883              		.thumb
 884              		.thumb_func
 885              		.type	RCC_BackupResetCmd, %function
 886              	RCC_BackupResetCmd:
 887              	.LFB133:
 888              		.loc 1 1532 0
 889              		.cfi_startproc
 890              		@ args = 0, pretend = 0, frame = 0
 891              		@ frame_needed = 0, uses_anonymous_args = 0
 892              		@ link register save eliminated.
 893              	.LVL77:
 894              		.loc 1 1535 0
 895 0000 014B     		ldr	r3, .L91
 896 0002 1860     		str	r0, [r3]
 897 0004 7047     		bx	lr
 898              	.L92:
 899 0006 00BF     		.align	2
 900              	.L91:
 901 0008 400E4742 		.word	1111952960
 902              		.cfi_endproc
 903              	.LFE133:
 904              		.size	RCC_BackupResetCmd, .-RCC_BackupResetCmd
 905              		.section	.text.RCC_TIMCLKPresConfig,"ax",%progbits
 906              		.align	2
 907              		.p2align 4,,15
 908              		.global	RCC_TIMCLKPresConfig
 909              		.thumb
 910              		.thumb_func
 911              		.type	RCC_TIMCLKPresConfig, %function
 912              	RCC_TIMCLKPresConfig:
ARM GAS  /tmp/ccsQReYy.s 			page 17


 913              	.LFB134:
 914              		.loc 1 1756 0
 915              		.cfi_startproc
 916              		@ args = 0, pretend = 0, frame = 0
 917              		@ frame_needed = 0, uses_anonymous_args = 0
 918              		@ link register save eliminated.
 919              	.LVL78:
 920              		.loc 1 1760 0
 921 0000 014B     		ldr	r3, .L94
 922 0002 1860     		str	r0, [r3]
 923 0004 7047     		bx	lr
 924              	.L95:
 925 0006 00BF     		.align	2
 926              	.L94:
 927 0008 E0114742 		.word	1111953888
 928              		.cfi_endproc
 929              	.LFE134:
 930              		.size	RCC_TIMCLKPresConfig, .-RCC_TIMCLKPresConfig
 931              		.section	.text.RCC_AHB1PeriphClockCmd,"ax",%progbits
 932              		.align	2
 933              		.p2align 4,,15
 934              		.global	RCC_AHB1PeriphClockCmd
 935              		.thumb
 936              		.thumb_func
 937              		.type	RCC_AHB1PeriphClockCmd, %function
 938              	RCC_AHB1PeriphClockCmd:
 939              	.LFB135:
 940              		.loc 1 1798 0
 941              		.cfi_startproc
 942              		@ args = 0, pretend = 0, frame = 0
 943              		@ frame_needed = 0, uses_anonymous_args = 0
 944              		@ link register save eliminated.
 945              	.LVL79:
 946              		.loc 1 1805 0
 947 0000 044A     		ldr	r2, .L100
 948 0002 136B     		ldr	r3, [r2, #48]
 949              		.loc 1 1803 0
 950 0004 19B9     		cbnz	r1, .L99
 951              		.loc 1 1809 0
 952 0006 23EA0000 		bic	r0, r3, r0
 953              	.LVL80:
 954 000a 1063     		str	r0, [r2, #48]
 955 000c 7047     		bx	lr
 956              	.LVL81:
 957              	.L99:
 958              		.loc 1 1805 0
 959 000e 1843     		orrs	r0, r0, r3
 960              	.LVL82:
 961 0010 1063     		str	r0, [r2, #48]
 962 0012 7047     		bx	lr
 963              	.L101:
 964              		.align	2
 965              	.L100:
 966 0014 00380240 		.word	1073887232
 967              		.cfi_endproc
 968              	.LFE135:
 969              		.size	RCC_AHB1PeriphClockCmd, .-RCC_AHB1PeriphClockCmd
ARM GAS  /tmp/ccsQReYy.s 			page 18


 970              		.section	.text.RCC_AHB2PeriphClockCmd,"ax",%progbits
 971              		.align	2
 972              		.p2align 4,,15
 973              		.global	RCC_AHB2PeriphClockCmd
 974              		.thumb
 975              		.thumb_func
 976              		.type	RCC_AHB2PeriphClockCmd, %function
 977              	RCC_AHB2PeriphClockCmd:
 978              	.LFB136:
 979              		.loc 1 1830 0
 980              		.cfi_startproc
 981              		@ args = 0, pretend = 0, frame = 0
 982              		@ frame_needed = 0, uses_anonymous_args = 0
 983              		@ link register save eliminated.
 984              	.LVL83:
 985              		.loc 1 1837 0
 986 0000 044A     		ldr	r2, .L106
 987 0002 536B     		ldr	r3, [r2, #52]
 988              		.loc 1 1835 0
 989 0004 19B9     		cbnz	r1, .L105
 990              		.loc 1 1841 0
 991 0006 23EA0000 		bic	r0, r3, r0
 992              	.LVL84:
 993 000a 5063     		str	r0, [r2, #52]
 994 000c 7047     		bx	lr
 995              	.LVL85:
 996              	.L105:
 997              		.loc 1 1837 0
 998 000e 1843     		orrs	r0, r0, r3
 999              	.LVL86:
 1000 0010 5063     		str	r0, [r2, #52]
 1001 0012 7047     		bx	lr
 1002              	.L107:
 1003              		.align	2
 1004              	.L106:
 1005 0014 00380240 		.word	1073887232
 1006              		.cfi_endproc
 1007              	.LFE136:
 1008              		.size	RCC_AHB2PeriphClockCmd, .-RCC_AHB2PeriphClockCmd
 1009              		.section	.text.RCC_APB1PeriphClockCmd,"ax",%progbits
 1010              		.align	2
 1011              		.p2align 4,,15
 1012              		.global	RCC_APB1PeriphClockCmd
 1013              		.thumb
 1014              		.thumb_func
 1015              		.type	RCC_APB1PeriphClockCmd, %function
 1016              	RCC_APB1PeriphClockCmd:
 1017              	.LFB137:
 1018              		.loc 1 1917 0
 1019              		.cfi_startproc
 1020              		@ args = 0, pretend = 0, frame = 0
 1021              		@ frame_needed = 0, uses_anonymous_args = 0
 1022              		@ link register save eliminated.
 1023              	.LVL87:
 1024              		.loc 1 1924 0
 1025 0000 044A     		ldr	r2, .L112
 1026 0002 136C     		ldr	r3, [r2, #64]
ARM GAS  /tmp/ccsQReYy.s 			page 19


 1027              		.loc 1 1922 0
 1028 0004 19B9     		cbnz	r1, .L111
 1029              		.loc 1 1928 0
 1030 0006 23EA0000 		bic	r0, r3, r0
 1031              	.LVL88:
 1032 000a 1064     		str	r0, [r2, #64]
 1033 000c 7047     		bx	lr
 1034              	.LVL89:
 1035              	.L111:
 1036              		.loc 1 1924 0
 1037 000e 1843     		orrs	r0, r0, r3
 1038              	.LVL90:
 1039 0010 1064     		str	r0, [r2, #64]
 1040 0012 7047     		bx	lr
 1041              	.L113:
 1042              		.align	2
 1043              	.L112:
 1044 0014 00380240 		.word	1073887232
 1045              		.cfi_endproc
 1046              	.LFE137:
 1047              		.size	RCC_APB1PeriphClockCmd, .-RCC_APB1PeriphClockCmd
 1048              		.section	.text.RCC_APB2PeriphClockCmd,"ax",%progbits
 1049              		.align	2
 1050              		.p2align 4,,15
 1051              		.global	RCC_APB2PeriphClockCmd
 1052              		.thumb
 1053              		.thumb_func
 1054              		.type	RCC_APB2PeriphClockCmd, %function
 1055              	RCC_APB2PeriphClockCmd:
 1056              	.LFB138:
 1057              		.loc 1 1964 0
 1058              		.cfi_startproc
 1059              		@ args = 0, pretend = 0, frame = 0
 1060              		@ frame_needed = 0, uses_anonymous_args = 0
 1061              		@ link register save eliminated.
 1062              	.LVL91:
 1063              		.loc 1 1971 0
 1064 0000 044A     		ldr	r2, .L118
 1065 0002 536C     		ldr	r3, [r2, #68]
 1066              		.loc 1 1969 0
 1067 0004 19B9     		cbnz	r1, .L117
 1068              		.loc 1 1975 0
 1069 0006 23EA0000 		bic	r0, r3, r0
 1070              	.LVL92:
 1071 000a 5064     		str	r0, [r2, #68]
 1072 000c 7047     		bx	lr
 1073              	.LVL93:
 1074              	.L117:
 1075              		.loc 1 1971 0
 1076 000e 1843     		orrs	r0, r0, r3
 1077              	.LVL94:
 1078 0010 5064     		str	r0, [r2, #68]
 1079 0012 7047     		bx	lr
 1080              	.L119:
 1081              		.align	2
 1082              	.L118:
 1083 0014 00380240 		.word	1073887232
ARM GAS  /tmp/ccsQReYy.s 			page 20


 1084              		.cfi_endproc
 1085              	.LFE138:
 1086              		.size	RCC_APB2PeriphClockCmd, .-RCC_APB2PeriphClockCmd
 1087              		.section	.text.RCC_AHB1PeriphResetCmd,"ax",%progbits
 1088              		.align	2
 1089              		.p2align 4,,15
 1090              		.global	RCC_AHB1PeriphResetCmd
 1091              		.thumb
 1092              		.thumb_func
 1093              		.type	RCC_AHB1PeriphResetCmd, %function
 1094              	RCC_AHB1PeriphResetCmd:
 1095              	.LFB139:
 1096              		.loc 1 2007 0
 1097              		.cfi_startproc
 1098              		@ args = 0, pretend = 0, frame = 0
 1099              		@ frame_needed = 0, uses_anonymous_args = 0
 1100              		@ link register save eliminated.
 1101              	.LVL95:
 1102              		.loc 1 2014 0
 1103 0000 044A     		ldr	r2, .L124
 1104 0002 1369     		ldr	r3, [r2, #16]
 1105              		.loc 1 2012 0
 1106 0004 19B9     		cbnz	r1, .L123
 1107              		.loc 1 2018 0
 1108 0006 23EA0000 		bic	r0, r3, r0
 1109              	.LVL96:
 1110 000a 1061     		str	r0, [r2, #16]
 1111 000c 7047     		bx	lr
 1112              	.LVL97:
 1113              	.L123:
 1114              		.loc 1 2014 0
 1115 000e 1843     		orrs	r0, r0, r3
 1116              	.LVL98:
 1117 0010 1061     		str	r0, [r2, #16]
 1118 0012 7047     		bx	lr
 1119              	.L125:
 1120              		.align	2
 1121              	.L124:
 1122 0014 00380240 		.word	1073887232
 1123              		.cfi_endproc
 1124              	.LFE139:
 1125              		.size	RCC_AHB1PeriphResetCmd, .-RCC_AHB1PeriphResetCmd
 1126              		.section	.text.RCC_AHB2PeriphResetCmd,"ax",%progbits
 1127              		.align	2
 1128              		.p2align 4,,15
 1129              		.global	RCC_AHB2PeriphResetCmd
 1130              		.thumb
 1131              		.thumb_func
 1132              		.type	RCC_AHB2PeriphResetCmd, %function
 1133              	RCC_AHB2PeriphResetCmd:
 1134              	.LFB140:
 1135              		.loc 1 2036 0
 1136              		.cfi_startproc
 1137              		@ args = 0, pretend = 0, frame = 0
 1138              		@ frame_needed = 0, uses_anonymous_args = 0
 1139              		@ link register save eliminated.
 1140              	.LVL99:
ARM GAS  /tmp/ccsQReYy.s 			page 21


 1141              		.loc 1 2043 0
 1142 0000 044A     		ldr	r2, .L130
 1143 0002 5369     		ldr	r3, [r2, #20]
 1144              		.loc 1 2041 0
 1145 0004 19B9     		cbnz	r1, .L129
 1146              		.loc 1 2047 0
 1147 0006 23EA0000 		bic	r0, r3, r0
 1148              	.LVL100:
 1149 000a 5061     		str	r0, [r2, #20]
 1150 000c 7047     		bx	lr
 1151              	.LVL101:
 1152              	.L129:
 1153              		.loc 1 2043 0
 1154 000e 1843     		orrs	r0, r0, r3
 1155              	.LVL102:
 1156 0010 5061     		str	r0, [r2, #20]
 1157 0012 7047     		bx	lr
 1158              	.L131:
 1159              		.align	2
 1160              	.L130:
 1161 0014 00380240 		.word	1073887232
 1162              		.cfi_endproc
 1163              	.LFE140:
 1164              		.size	RCC_AHB2PeriphResetCmd, .-RCC_AHB2PeriphResetCmd
 1165              		.section	.text.RCC_APB1PeriphResetCmd,"ax",%progbits
 1166              		.align	2
 1167              		.p2align 4,,15
 1168              		.global	RCC_APB1PeriphResetCmd
 1169              		.thumb
 1170              		.thumb_func
 1171              		.type	RCC_APB1PeriphResetCmd, %function
 1172              	RCC_APB1PeriphResetCmd:
 1173              	.LFB141:
 1174              		.loc 1 2117 0
 1175              		.cfi_startproc
 1176              		@ args = 0, pretend = 0, frame = 0
 1177              		@ frame_needed = 0, uses_anonymous_args = 0
 1178              		@ link register save eliminated.
 1179              	.LVL103:
 1180              		.loc 1 2123 0
 1181 0000 044A     		ldr	r2, .L136
 1182 0002 136A     		ldr	r3, [r2, #32]
 1183              		.loc 1 2121 0
 1184 0004 19B9     		cbnz	r1, .L135
 1185              		.loc 1 2127 0
 1186 0006 23EA0000 		bic	r0, r3, r0
 1187              	.LVL104:
 1188 000a 1062     		str	r0, [r2, #32]
 1189 000c 7047     		bx	lr
 1190              	.LVL105:
 1191              	.L135:
 1192              		.loc 1 2123 0
 1193 000e 1843     		orrs	r0, r0, r3
 1194              	.LVL106:
 1195 0010 1062     		str	r0, [r2, #32]
 1196 0012 7047     		bx	lr
 1197              	.L137:
ARM GAS  /tmp/ccsQReYy.s 			page 22


 1198              		.align	2
 1199              	.L136:
 1200 0014 00380240 		.word	1073887232
 1201              		.cfi_endproc
 1202              	.LFE141:
 1203              		.size	RCC_APB1PeriphResetCmd, .-RCC_APB1PeriphResetCmd
 1204              		.section	.text.RCC_APB2PeriphResetCmd,"ax",%progbits
 1205              		.align	2
 1206              		.p2align 4,,15
 1207              		.global	RCC_APB2PeriphResetCmd
 1208              		.thumb
 1209              		.thumb_func
 1210              		.type	RCC_APB2PeriphResetCmd, %function
 1211              	RCC_APB2PeriphResetCmd:
 1212              	.LFB142:
 1213              		.loc 1 2160 0
 1214              		.cfi_startproc
 1215              		@ args = 0, pretend = 0, frame = 0
 1216              		@ frame_needed = 0, uses_anonymous_args = 0
 1217              		@ link register save eliminated.
 1218              	.LVL107:
 1219              		.loc 1 2166 0
 1220 0000 044A     		ldr	r2, .L142
 1221 0002 536A     		ldr	r3, [r2, #36]
 1222              		.loc 1 2164 0
 1223 0004 19B9     		cbnz	r1, .L141
 1224              		.loc 1 2170 0
 1225 0006 23EA0000 		bic	r0, r3, r0
 1226              	.LVL108:
 1227 000a 5062     		str	r0, [r2, #36]
 1228 000c 7047     		bx	lr
 1229              	.LVL109:
 1230              	.L141:
 1231              		.loc 1 2166 0
 1232 000e 1843     		orrs	r0, r0, r3
 1233              	.LVL110:
 1234 0010 5062     		str	r0, [r2, #36]
 1235 0012 7047     		bx	lr
 1236              	.L143:
 1237              		.align	2
 1238              	.L142:
 1239 0014 00380240 		.word	1073887232
 1240              		.cfi_endproc
 1241              	.LFE142:
 1242              		.size	RCC_APB2PeriphResetCmd, .-RCC_APB2PeriphResetCmd
 1243              		.section	.text.RCC_AHB1PeriphClockLPModeCmd,"ax",%progbits
 1244              		.align	2
 1245              		.p2align 4,,15
 1246              		.global	RCC_AHB1PeriphClockLPModeCmd
 1247              		.thumb
 1248              		.thumb_func
 1249              		.type	RCC_AHB1PeriphClockLPModeCmd, %function
 1250              	RCC_AHB1PeriphClockLPModeCmd:
 1251              	.LFB143:
 1252              		.loc 1 2209 0
 1253              		.cfi_startproc
 1254              		@ args = 0, pretend = 0, frame = 0
ARM GAS  /tmp/ccsQReYy.s 			page 23


 1255              		@ frame_needed = 0, uses_anonymous_args = 0
 1256              		@ link register save eliminated.
 1257              	.LVL111:
 1258              		.loc 1 2215 0
 1259 0000 044A     		ldr	r2, .L148
 1260 0002 136D     		ldr	r3, [r2, #80]
 1261              		.loc 1 2213 0
 1262 0004 19B9     		cbnz	r1, .L147
 1263              		.loc 1 2219 0
 1264 0006 23EA0000 		bic	r0, r3, r0
 1265              	.LVL112:
 1266 000a 1065     		str	r0, [r2, #80]
 1267 000c 7047     		bx	lr
 1268              	.LVL113:
 1269              	.L147:
 1270              		.loc 1 2215 0
 1271 000e 1843     		orrs	r0, r0, r3
 1272              	.LVL114:
 1273 0010 1065     		str	r0, [r2, #80]
 1274 0012 7047     		bx	lr
 1275              	.L149:
 1276              		.align	2
 1277              	.L148:
 1278 0014 00380240 		.word	1073887232
 1279              		.cfi_endproc
 1280              	.LFE143:
 1281              		.size	RCC_AHB1PeriphClockLPModeCmd, .-RCC_AHB1PeriphClockLPModeCmd
 1282              		.section	.text.RCC_AHB2PeriphClockLPModeCmd,"ax",%progbits
 1283              		.align	2
 1284              		.p2align 4,,15
 1285              		.global	RCC_AHB2PeriphClockLPModeCmd
 1286              		.thumb
 1287              		.thumb_func
 1288              		.type	RCC_AHB2PeriphClockLPModeCmd, %function
 1289              	RCC_AHB2PeriphClockLPModeCmd:
 1290              	.LFB144:
 1291              		.loc 1 2241 0
 1292              		.cfi_startproc
 1293              		@ args = 0, pretend = 0, frame = 0
 1294              		@ frame_needed = 0, uses_anonymous_args = 0
 1295              		@ link register save eliminated.
 1296              	.LVL115:
 1297              		.loc 1 2247 0
 1298 0000 044A     		ldr	r2, .L154
 1299 0002 536D     		ldr	r3, [r2, #84]
 1300              		.loc 1 2245 0
 1301 0004 19B9     		cbnz	r1, .L153
 1302              		.loc 1 2251 0
 1303 0006 23EA0000 		bic	r0, r3, r0
 1304              	.LVL116:
 1305 000a 5065     		str	r0, [r2, #84]
 1306 000c 7047     		bx	lr
 1307              	.LVL117:
 1308              	.L153:
 1309              		.loc 1 2247 0
 1310 000e 1843     		orrs	r0, r0, r3
 1311              	.LVL118:
ARM GAS  /tmp/ccsQReYy.s 			page 24


 1312 0010 5065     		str	r0, [r2, #84]
 1313 0012 7047     		bx	lr
 1314              	.L155:
 1315              		.align	2
 1316              	.L154:
 1317 0014 00380240 		.word	1073887232
 1318              		.cfi_endproc
 1319              	.LFE144:
 1320              		.size	RCC_AHB2PeriphClockLPModeCmd, .-RCC_AHB2PeriphClockLPModeCmd
 1321              		.section	.text.RCC_APB1PeriphClockLPModeCmd,"ax",%progbits
 1322              		.align	2
 1323              		.p2align 4,,15
 1324              		.global	RCC_APB1PeriphClockLPModeCmd
 1325              		.thumb
 1326              		.thumb_func
 1327              		.type	RCC_APB1PeriphClockLPModeCmd, %function
 1328              	RCC_APB1PeriphClockLPModeCmd:
 1329              	.LFB145:
 1330              		.loc 1 2328 0
 1331              		.cfi_startproc
 1332              		@ args = 0, pretend = 0, frame = 0
 1333              		@ frame_needed = 0, uses_anonymous_args = 0
 1334              		@ link register save eliminated.
 1335              	.LVL119:
 1336              		.loc 1 2334 0
 1337 0000 044A     		ldr	r2, .L160
 1338 0002 136E     		ldr	r3, [r2, #96]
 1339              		.loc 1 2332 0
 1340 0004 19B9     		cbnz	r1, .L159
 1341              		.loc 1 2338 0
 1342 0006 23EA0000 		bic	r0, r3, r0
 1343              	.LVL120:
 1344 000a 1066     		str	r0, [r2, #96]
 1345 000c 7047     		bx	lr
 1346              	.LVL121:
 1347              	.L159:
 1348              		.loc 1 2334 0
 1349 000e 1843     		orrs	r0, r0, r3
 1350              	.LVL122:
 1351 0010 1066     		str	r0, [r2, #96]
 1352 0012 7047     		bx	lr
 1353              	.L161:
 1354              		.align	2
 1355              	.L160:
 1356 0014 00380240 		.word	1073887232
 1357              		.cfi_endproc
 1358              	.LFE145:
 1359              		.size	RCC_APB1PeriphClockLPModeCmd, .-RCC_APB1PeriphClockLPModeCmd
 1360              		.section	.text.RCC_APB2PeriphClockLPModeCmd,"ax",%progbits
 1361              		.align	2
 1362              		.p2align 4,,15
 1363              		.global	RCC_APB2PeriphClockLPModeCmd
 1364              		.thumb
 1365              		.thumb_func
 1366              		.type	RCC_APB2PeriphClockLPModeCmd, %function
 1367              	RCC_APB2PeriphClockLPModeCmd:
 1368              	.LFB146:
ARM GAS  /tmp/ccsQReYy.s 			page 25


 1369              		.loc 1 2375 0
 1370              		.cfi_startproc
 1371              		@ args = 0, pretend = 0, frame = 0
 1372              		@ frame_needed = 0, uses_anonymous_args = 0
 1373              		@ link register save eliminated.
 1374              	.LVL123:
 1375              		.loc 1 2381 0
 1376 0000 044A     		ldr	r2, .L166
 1377 0002 536E     		ldr	r3, [r2, #100]
 1378              		.loc 1 2379 0
 1379 0004 19B9     		cbnz	r1, .L165
 1380              		.loc 1 2385 0
 1381 0006 23EA0000 		bic	r0, r3, r0
 1382              	.LVL124:
 1383 000a 5066     		str	r0, [r2, #100]
 1384 000c 7047     		bx	lr
 1385              	.LVL125:
 1386              	.L165:
 1387              		.loc 1 2381 0
 1388 000e 1843     		orrs	r0, r0, r3
 1389              	.LVL126:
 1390 0010 5066     		str	r0, [r2, #100]
 1391 0012 7047     		bx	lr
 1392              	.L167:
 1393              		.align	2
 1394              	.L166:
 1395 0014 00380240 		.word	1073887232
 1396              		.cfi_endproc
 1397              	.LFE146:
 1398              		.size	RCC_APB2PeriphClockLPModeCmd, .-RCC_APB2PeriphClockLPModeCmd
 1399              		.section	.text.RCC_LSEModeConfig,"ax",%progbits
 1400              		.align	2
 1401              		.p2align 4,,15
 1402              		.global	RCC_LSEModeConfig
 1403              		.thumb
 1404              		.thumb_func
 1405              		.type	RCC_LSEModeConfig, %function
 1406              	RCC_LSEModeConfig:
 1407              	.LFB147:
 1408              		.loc 1 2399 0
 1409              		.cfi_startproc
 1410              		@ args = 0, pretend = 0, frame = 0
 1411              		@ frame_needed = 0, uses_anonymous_args = 0
 1412              		@ link register save eliminated.
 1413              	.LVL127:
 1414              		.loc 1 2405 0
 1415 0000 044A     		ldr	r2, .L171
 1416 0002 136F     		ldr	r3, [r2, #112]
 1417              		.loc 1 2403 0
 1418 0004 0128     		cmp	r0, #1
 1419              		.loc 1 2405 0
 1420 0006 0CBF     		ite	eq
 1421 0008 43F00803 		orreq	r3, r3, #8
 1422              		.loc 1 2409 0
 1423 000c 23F00803 		bicne	r3, r3, #8
 1424 0010 1367     		str	r3, [r2, #112]
 1425 0012 7047     		bx	lr
ARM GAS  /tmp/ccsQReYy.s 			page 26


 1426              	.L172:
 1427              		.align	2
 1428              	.L171:
 1429 0014 00380240 		.word	1073887232
 1430              		.cfi_endproc
 1431              	.LFE147:
 1432              		.size	RCC_LSEModeConfig, .-RCC_LSEModeConfig
 1433              		.section	.text.RCC_ITConfig,"ax",%progbits
 1434              		.align	2
 1435              		.p2align 4,,15
 1436              		.global	RCC_ITConfig
 1437              		.thumb
 1438              		.thumb_func
 1439              		.type	RCC_ITConfig, %function
 1440              	RCC_ITConfig:
 1441              	.LFB148:
 1442              		.loc 1 2701 0
 1443              		.cfi_startproc
 1444              		@ args = 0, pretend = 0, frame = 0
 1445              		@ frame_needed = 0, uses_anonymous_args = 0
 1446              		@ link register save eliminated.
 1447              	.LVL128:
 1448              		.loc 1 2708 0
 1449 0000 044A     		ldr	r2, .L177
 1450 0002 1378     		ldrb	r3, [r2]	@ zero_extendqisi2
 1451              		.loc 1 2705 0
 1452 0004 19B9     		cbnz	r1, .L176
 1453              		.loc 1 2713 0
 1454 0006 23EA0000 		bic	r0, r3, r0
 1455              	.LVL129:
 1456 000a 1070     		strb	r0, [r2]
 1457 000c 7047     		bx	lr
 1458              	.LVL130:
 1459              	.L176:
 1460              		.loc 1 2708 0
 1461 000e 1843     		orrs	r0, r0, r3
 1462              	.LVL131:
 1463 0010 1070     		strb	r0, [r2]
 1464 0012 7047     		bx	lr
 1465              	.L178:
 1466              		.align	2
 1467              	.L177:
 1468 0014 0D380240 		.word	1073887245
 1469              		.cfi_endproc
 1470              	.LFE148:
 1471              		.size	RCC_ITConfig, .-RCC_ITConfig
 1472              		.section	.text.RCC_GetFlagStatus,"ax",%progbits
 1473              		.align	2
 1474              		.p2align 4,,15
 1475              		.global	RCC_GetFlagStatus
 1476              		.thumb
 1477              		.thumb_func
 1478              		.type	RCC_GetFlagStatus, %function
 1479              	RCC_GetFlagStatus:
 1480              	.LFB149:
 1481              		.loc 1 2738 0
 1482              		.cfi_startproc
ARM GAS  /tmp/ccsQReYy.s 			page 27


 1483              		@ args = 0, pretend = 0, frame = 0
 1484              		@ frame_needed = 0, uses_anonymous_args = 0
 1485              		@ link register save eliminated.
 1486              	.LVL132:
 1487              		.loc 1 2747 0
 1488 0000 4309     		lsrs	r3, r0, #5
 1489              	.LVL133:
 1490              		.loc 1 2748 0
 1491 0002 012B     		cmp	r3, #1
 1492 0004 0BD0     		beq	.L183
 1493              		.loc 1 2752 0
 1494 0006 022B     		cmp	r3, #2
 1495              		.loc 1 2754 0
 1496 0008 094B     		ldr	r3, .L184
 1497              	.LVL134:
 1498 000a 0CBF     		ite	eq
 1499 000c 1A6F     		ldreq	r2, [r3, #112]
 1500              	.LVL135:
 1501              		.loc 1 2758 0
 1502 000e 5A6F     		ldrne	r2, [r3, #116]
 1503              	.LVL136:
 1504              		.loc 1 2763 0
 1505 0010 00F01F03 		and	r3, r0, #31
 1506 0014 22FA03F0 		lsr	r0, r2, r3
 1507              	.LVL137:
 1508              		.loc 1 2773 0
 1509 0018 00F00100 		and	r0, r0, #1
 1510 001c 7047     		bx	lr
 1511              	.LVL138:
 1512              	.L183:
 1513              		.loc 1 2750 0
 1514 001e 044B     		ldr	r3, .L184
 1515              	.LVL139:
 1516 0020 1A68     		ldr	r2, [r3]
 1517              	.LVL140:
 1518              		.loc 1 2763 0
 1519 0022 00F01F03 		and	r3, r0, #31
 1520 0026 22FA03F0 		lsr	r0, r2, r3
 1521              	.LVL141:
 1522              		.loc 1 2773 0
 1523 002a 00F00100 		and	r0, r0, #1
 1524 002e 7047     		bx	lr
 1525              	.L185:
 1526              		.align	2
 1527              	.L184:
 1528 0030 00380240 		.word	1073887232
 1529              		.cfi_endproc
 1530              	.LFE149:
 1531              		.size	RCC_GetFlagStatus, .-RCC_GetFlagStatus
 1532              		.section	.text.RCC_ClearFlag,"ax",%progbits
 1533              		.align	2
 1534              		.p2align 4,,15
 1535              		.global	RCC_ClearFlag
 1536              		.thumb
 1537              		.thumb_func
 1538              		.type	RCC_ClearFlag, %function
 1539              	RCC_ClearFlag:
ARM GAS  /tmp/ccsQReYy.s 			page 28


 1540              	.LFB150:
 1541              		.loc 1 2783 0
 1542              		.cfi_startproc
 1543              		@ args = 0, pretend = 0, frame = 0
 1544              		@ frame_needed = 0, uses_anonymous_args = 0
 1545              		@ link register save eliminated.
 1546              		.loc 1 2785 0
 1547 0000 024A     		ldr	r2, .L187
 1548 0002 536F     		ldr	r3, [r2, #116]
 1549 0004 43F08073 		orr	r3, r3, #16777216
 1550 0008 5367     		str	r3, [r2, #116]
 1551 000a 7047     		bx	lr
 1552              	.L188:
 1553              		.align	2
 1554              	.L187:
 1555 000c 00380240 		.word	1073887232
 1556              		.cfi_endproc
 1557              	.LFE150:
 1558              		.size	RCC_ClearFlag, .-RCC_ClearFlag
 1559              		.section	.text.RCC_GetITStatus,"ax",%progbits
 1560              		.align	2
 1561              		.p2align 4,,15
 1562              		.global	RCC_GetITStatus
 1563              		.thumb
 1564              		.thumb_func
 1565              		.type	RCC_GetITStatus, %function
 1566              	RCC_GetITStatus:
 1567              	.LFB151:
 1568              		.loc 1 2803 0
 1569              		.cfi_startproc
 1570              		@ args = 0, pretend = 0, frame = 0
 1571              		@ frame_needed = 0, uses_anonymous_args = 0
 1572              		@ link register save eliminated.
 1573              	.LVL142:
 1574              		.loc 1 2810 0
 1575 0000 034B     		ldr	r3, .L190
 1576 0002 DB68     		ldr	r3, [r3, #12]
 1577              	.LVL143:
 1578 0004 1842     		tst	r0, r3
 1579              		.loc 1 2820 0
 1580 0006 14BF     		ite	ne
 1581 0008 0120     		movne	r0, #1
 1582              	.LVL144:
 1583 000a 0020     		moveq	r0, #0
 1584 000c 7047     		bx	lr
 1585              	.L191:
 1586 000e 00BF     		.align	2
 1587              	.L190:
 1588 0010 00380240 		.word	1073887232
 1589              		.cfi_endproc
 1590              	.LFE151:
 1591              		.size	RCC_GetITStatus, .-RCC_GetITStatus
 1592              		.section	.text.RCC_ClearITPendingBit,"ax",%progbits
 1593              		.align	2
 1594              		.p2align 4,,15
 1595              		.global	RCC_ClearITPendingBit
 1596              		.thumb
ARM GAS  /tmp/ccsQReYy.s 			page 29


 1597              		.thumb_func
 1598              		.type	RCC_ClearITPendingBit, %function
 1599              	RCC_ClearITPendingBit:
 1600              	.LFB152:
 1601              		.loc 1 2837 0
 1602              		.cfi_startproc
 1603              		@ args = 0, pretend = 0, frame = 0
 1604              		@ frame_needed = 0, uses_anonymous_args = 0
 1605              		@ link register save eliminated.
 1606              	.LVL145:
 1607              		.loc 1 2843 0
 1608 0000 014B     		ldr	r3, .L193
 1609 0002 1870     		strb	r0, [r3]
 1610 0004 7047     		bx	lr
 1611              	.L194:
 1612 0006 00BF     		.align	2
 1613              	.L193:
 1614 0008 0E380240 		.word	1073887246
 1615              		.cfi_endproc
 1616              	.LFE152:
 1617              		.size	RCC_ClearITPendingBit, .-RCC_ClearITPendingBit
 1618              		.section	.data.APBAHBPrescTable,"aw",%progbits
 1619              		.align	2
 1620              		.set	.LANCHOR0,. + 0
 1621              		.type	APBAHBPrescTable, %object
 1622              		.size	APBAHBPrescTable, 16
 1623              	APBAHBPrescTable:
 1624 0000 00       		.byte	0
 1625 0001 00       		.byte	0
 1626 0002 00       		.byte	0
 1627 0003 00       		.byte	0
 1628 0004 01       		.byte	1
 1629 0005 02       		.byte	2
 1630 0006 03       		.byte	3
 1631 0007 04       		.byte	4
 1632 0008 01       		.byte	1
 1633 0009 02       		.byte	2
 1634 000a 03       		.byte	3
 1635 000b 04       		.byte	4
 1636 000c 06       		.byte	6
 1637 000d 07       		.byte	7
 1638 000e 08       		.byte	8
 1639 000f 09       		.byte	9
 1640              		.text
 1641              	.Letext0:
 1642              		.file 2 "/usr/arm-none-eabi/include/machine/_default_types.h"
 1643              		.file 3 "/usr/arm-none-eabi/include/sys/_stdint.h"
 1644              		.file 4 "ChibiOS_3.0.2/os/ext/CMSIS/ST/stm32f407xx.h"
 1645              		.file 5 "ChibiOS_3.0.2/os/ext/CMSIS/ST/stm32f4xx.h"
 1646              		.file 6 "ChibiOS_3.0.2/ext/stdperiph_stm32f4/inc/stm32f4xx_rcc.h"
 1647              		.file 7 "ChibiOS_3.0.2/os/ext/CMSIS/include/core_cm4.h"