ARM GAS  /tmp/ccNsm2Dk.s 			page 1


   1              		.syntax unified
   2              		.cpu cortex-m4
   3              		.eabi_attribute 27, 1
   4              		.eabi_attribute 28, 1
   5              		.fpu fpv4-sp-d16
   6              		.eabi_attribute 20, 1
   7              		.eabi_attribute 21, 1
   8              		.eabi_attribute 23, 3
   9              		.eabi_attribute 24, 1
  10              		.eabi_attribute 25, 1
  11              		.eabi_attribute 26, 1
  12              		.eabi_attribute 30, 2
  13              		.eabi_attribute 34, 1
  14              		.eabi_attribute 18, 4
  15              		.thumb
  16              		.file	"stm32_hw.c"
  17              		.text
  18              	.Ltext0:
  19              		.cfi_sections	.debug_frame
  20              		.section	.text.halAssyInit,"ax",%progbits
  21              		.align	2
  22              		.p2align 4,,15
  23              		.global	halAssyInit
  24              		.thumb
  25              		.thumb_func
  26              		.type	halAssyInit, %function
  27              	halAssyInit:
  28              	.LFB258:
  29              		.file 1 "cc2520/driver/stm32_hw.c"
  30              		.loc 1 76 0
  31              		.cfi_startproc
  32              		@ args = 0, pretend = 0, frame = 0
  33              		@ frame_needed = 0, uses_anonymous_args = 0
  34 0000 38B5     		push	{r3, r4, r5, lr}
  35              		.cfi_def_cfa_offset 16
  36              		.cfi_offset 3, -16
  37              		.cfi_offset 4, -12
  38              		.cfi_offset 5, -8
  39              		.cfi_offset 14, -4
  40              		.loc 1 77 0
  41 0002 284C     		ldr	r4, .L3
  42              	.LBB8:
  43              	.LBB9:
  44              		.loc 1 40 0
  45 0004 284D     		ldr	r5, .L3+4
  46              	.LBE9:
  47              	.LBE8:
  48              		.loc 1 77 0
  49 0006 2046     		mov	r0, r4
  50 0008 4FF40071 		mov	r1, #512
  51 000c 0022     		movs	r2, #0
  52 000e FFF7FEFF 		bl	_pal_lld_setgroupmode
  53              	.LVL0:
  54              		.loc 1 78 0
  55 0012 2046     		mov	r0, r4
  56 0014 4FF48061 		mov	r1, #1024
  57 0018 0022     		movs	r2, #0
ARM GAS  /tmp/ccNsm2Dk.s 			page 2


  58 001a FFF7FEFF 		bl	_pal_lld_setgroupmode
  59              	.LVL1:
  60              		.loc 1 79 0
  61 001e 2046     		mov	r0, r4
  62 0020 4FF40061 		mov	r1, #2048
  63 0024 0022     		movs	r2, #0
  64 0026 FFF7FEFF 		bl	_pal_lld_setgroupmode
  65              	.LVL2:
  66              		.loc 1 80 0
  67 002a 2046     		mov	r0, r4
  68 002c 4FF48051 		mov	r1, #4096
  69 0030 0022     		movs	r2, #0
  70 0032 FFF7FEFF 		bl	_pal_lld_setgroupmode
  71              	.LVL3:
  72              		.loc 1 81 0
  73 0036 2046     		mov	r0, r4
  74 0038 4FF40051 		mov	r1, #8192
  75 003c 0022     		movs	r2, #0
  76 003e FFF7FEFF 		bl	_pal_lld_setgroupmode
  77              	.LVL4:
  78              		.loc 1 82 0
  79 0042 2046     		mov	r0, r4
  80 0044 4FF48041 		mov	r1, #16384
  81 0048 0022     		movs	r2, #0
  82 004a FFF7FEFF 		bl	_pal_lld_setgroupmode
  83              	.LVL5:
  84              	.LBB11:
  85              	.LBB10:
  86              		.loc 1 40 0
  87 004e 4FF48051 		mov	r1, #4096
  88 0052 2983     		strh	r1, [r5, #24]	@ movhi
  89              		.loc 1 41 0
  90 0054 2846     		mov	r0, r5
  91 0056 1922     		movs	r2, #25
  92 0058 FFF7FEFF 		bl	_pal_lld_setgroupmode
  93              	.LVL6:
  94              		.loc 1 42 0
  95 005c 2846     		mov	r0, r5
  96 005e 4FF40051 		mov	r1, #8192
  97 0062 40F29A22 		movw	r2, #666
  98 0066 FFF7FEFF 		bl	_pal_lld_setgroupmode
  99              	.LVL7:
 100 006a 2846     		mov	r0, r5
 101 006c 4FF48041 		mov	r1, #16384
 102 0070 40F28222 		movw	r2, #642
 103 0074 FFF7FEFF 		bl	_pal_lld_setgroupmode
 104              	.LVL8:
 105 0078 2846     		mov	r0, r5
 106 007a 40F29A22 		movw	r2, #666
 107 007e 4FF40041 		mov	r1, #32768
 108 0082 FFF7FEFF 		bl	_pal_lld_setgroupmode
 109              	.LVL9:
 110              		.loc 1 44 0
 111 0086 0948     		ldr	r0, .L3+8
 112 0088 0949     		ldr	r1, .L3+12
 113 008a FFF7FEFF 		bl	spiStart
 114              	.LVL10:
ARM GAS  /tmp/ccNsm2Dk.s 			page 3


 115              	.LBE10:
 116              	.LBE11:
 117              	.LBB12:
 118              	.LBB13:
 119              		.loc 1 61 0
 120 008e 4FF00043 		mov	r3, #-2147483648
 121 0092 A361     		str	r3, [r4, #24]
 122              		.loc 1 62 0
 123 0094 2046     		mov	r0, r4
 124 0096 4FF40041 		mov	r1, #32768
 125 009a 1922     		movs	r2, #25
 126              	.LBE13:
 127              	.LBE12:
 128              		.loc 1 89 0
 129 009c BDE83840 		pop	{r3, r4, r5, lr}
 130              		.cfi_restore 14
 131              		.cfi_restore 5
 132              		.cfi_restore 4
 133              		.cfi_restore 3
 134              		.cfi_def_cfa_offset 0
 135              	.LBB15:
 136              	.LBB14:
 137              		.loc 1 62 0
 138 00a0 FFF7FEBF 		b	_pal_lld_setgroupmode
 139              	.LVL11:
 140              	.L4:
 141              		.align	2
 142              	.L3:
 143 00a4 000C0240 		.word	1073875968
 144 00a8 00040240 		.word	1073873920
 145 00ac 00000000 		.word	SPID2
 146 00b0 00000000 		.word	.LANCHOR0
 147              	.LBE14:
 148              	.LBE15:
 149              		.cfi_endproc
 150              	.LFE258:
 151              		.size	halAssyInit, .-halAssyInit
 152              		.section	.text.halSpiExc,"ax",%progbits
 153              		.align	2
 154              		.p2align 4,,15
 155              		.global	halSpiExc
 156              		.thumb
 157              		.thumb_func
 158              		.type	halSpiExc, %function
 159              	halSpiExc:
 160              	.LFB259:
 161              		.loc 1 91 0
 162              		.cfi_startproc
 163              		@ args = 0, pretend = 0, frame = 16
 164              		@ frame_needed = 0, uses_anonymous_args = 0
 165              	.LVL12:
 166 0000 00B5     		push	{lr}
 167              		.cfi_def_cfa_offset 4
 168              		.cfi_offset 14, -4
 169 0002 85B0     		sub	sp, sp, #20
 170              		.cfi_def_cfa_offset 24
 171              		.loc 1 91 0
ARM GAS  /tmp/ccNsm2Dk.s 			page 4


 172 0004 04AA     		add	r2, sp, #16
 173              		.loc 1 93 0
 174 0006 0121     		movs	r1, #1
 175              		.loc 1 91 0
 176 0008 02F8090D 		strb	r0, [r2, #-9]!
 177              		.loc 1 93 0
 178 000c 0DF10F03 		add	r3, sp, #15
 179 0010 0348     		ldr	r0, .L7
 180              	.LVL13:
 181 0012 FFF7FEFF 		bl	spiExchange
 182              	.LVL14:
 183              		.loc 1 95 0
 184 0016 9DF80F00 		ldrb	r0, [sp, #15]	@ zero_extendqisi2
 185 001a 05B0     		add	sp, sp, #20
 186              		.cfi_def_cfa_offset 4
 187              		@ sp needed
 188 001c 5DF804FB 		ldr	pc, [sp], #4
 189              	.LVL15:
 190              	.L8:
 191              		.align	2
 192              	.L7:
 193 0020 00000000 		.word	SPID2
 194              		.cfi_endproc
 195              	.LFE259:
 196              		.size	halSpiExc, .-halSpiExc
 197              		.section	.rodata.spicfg,"a",%progbits
 198              		.align	2
 199              		.set	.LANCHOR0,. + 0
 200              		.type	spicfg, %object
 201              		.size	spicfg, 12
 202              	spicfg:
 203 0000 00000000 		.word	0
 204 0004 00040240 		.word	1073873920
 205 0008 0C00     		.short	12
 206 000a 1000     		.short	16
 207              		.text
 208              	.Letext0:
 209              		.file 2 "/usr/lib/gcc/arm-none-eabi/4.9.3/include/stddef.h"
 210              		.file 3 "/usr/arm-none-eabi/include/machine/_default_types.h"
 211              		.file 4 "/usr/arm-none-eabi/include/sys/_stdint.h"
 212              		.file 5 "ChibiOS_3.0.2/os/rt/ports/ARMCMx/compilers/GCC/chtypes.h"
 213              		.file 6 "ChibiOS_3.0.2/os/rt/include/chsystypes.h"
 214              		.file 7 "ChibiOS_3.0.2/os/rt/include/chschd.h"
 215              		.file 8 "ChibiOS_3.0.2/os/ext/CMSIS/ST/stm32f407xx.h"
 216              		.file 9 "ChibiOS_3.0.2/os/rt/ports/ARMCMx/chcore.h"
 217              		.file 10 "ChibiOS_3.0.2/os/rt/ports/ARMCMx/chcore_v7m.h"
 218              		.file 11 "ChibiOS_3.0.2/os/rt/include/chtm.h"
 219              		.file 12 "ChibiOS_3.0.2/os/rt/include/chsem.h"
 220              		.file 13 "ChibiOS_3.0.2/os/rt/include/chmtx.h"
 221              		.file 14 "ChibiOS_3.0.2/os/hal/ports/STM32/STM32F4xx/stm32_dma.h"
 222              		.file 15 "ChibiOS_3.0.2/os/hal/ports/STM32/LLD/GPIOv2/pal_lld.h"
 223              		.file 16 "ChibiOS_3.0.2/os/hal/include/spi.h"
 224              		.file 17 "ChibiOS_3.0.2/os/hal/ports/STM32/LLD/SPIv1/spi_lld.h"
 225              		.file 18 "ChibiOS_3.0.2/os/ext/CMSIS/include/core_cm4.h"