ARM GAS  /tmp/cc7vJNk9.s 			page 1


   1              		.syntax unified
   2              		.cpu cortex-m4
   3              		.eabi_attribute 27, 1
   4              		.eabi_attribute 28, 1
   5              		.fpu fpv4-sp-d16
   6              		.eabi_attribute 20, 1
   7              		.eabi_attribute 21, 1
   8              		.eabi_attribute 23, 3
   9              		.eabi_attribute 24, 1
  10              		.eabi_attribute 25, 1
  11              		.eabi_attribute 26, 1
  12              		.eabi_attribute 30, 2
  13              		.eabi_attribute 34, 1
  14              		.eabi_attribute 18, 4
  15              		.thumb
  16              		.file	"stm32f4xx_exti.c"
  17              		.text
  18              	.Ltext0:
  19              		.cfi_sections	.debug_frame
  20              		.section	.text.EXTI_DeInit,"ax",%progbits
  21              		.align	2
  22              		.p2align 4,,15
  23              		.global	EXTI_DeInit
  24              		.thumb
  25              		.thumb_func
  26              		.type	EXTI_DeInit, %function
  27              	EXTI_DeInit:
  28              	.LFB112:
  29              		.file 1 "ChibiOS_3.0.2/ext/stdperiph_stm32f4/src/stm32f4xx_exti.c"
  30              		.loc 1 115 0
  31              		.cfi_startproc
  32              		@ args = 0, pretend = 0, frame = 0
  33              		@ frame_needed = 0, uses_anonymous_args = 0
  34              		@ link register save eliminated.
  35              		.loc 1 116 0
  36 0000 044B     		ldr	r3, .L2
  37              		.loc 1 120 0
  38 0002 0549     		ldr	r1, .L2+4
  39              		.loc 1 116 0
  40 0004 0022     		movs	r2, #0
  41 0006 1A60     		str	r2, [r3]
  42              		.loc 1 117 0
  43 0008 5A60     		str	r2, [r3, #4]
  44              		.loc 1 118 0
  45 000a 9A60     		str	r2, [r3, #8]
  46              		.loc 1 119 0
  47 000c DA60     		str	r2, [r3, #12]
  48              		.loc 1 120 0
  49 000e 5961     		str	r1, [r3, #20]
  50 0010 7047     		bx	lr
  51              	.L3:
  52 0012 00BF     		.align	2
  53              	.L2:
  54 0014 003C0140 		.word	1073822720
  55 0018 FFFF7F00 		.word	8388607
  56              		.cfi_endproc
  57              	.LFE112:
ARM GAS  /tmp/cc7vJNk9.s 			page 2


  58              		.size	EXTI_DeInit, .-EXTI_DeInit
  59              		.section	.text.EXTI_Init,"ax",%progbits
  60              		.align	2
  61              		.p2align 4,,15
  62              		.global	EXTI_Init
  63              		.thumb
  64              		.thumb_func
  65              		.type	EXTI_Init, %function
  66              	EXTI_Init:
  67              	.LFB113:
  68              		.loc 1 131 0
  69              		.cfi_startproc
  70              		@ args = 0, pretend = 0, frame = 0
  71              		@ frame_needed = 0, uses_anonymous_args = 0
  72              		@ link register save eliminated.
  73              	.LVL0:
  74              		.loc 1 142 0
  75 0000 8379     		ldrb	r3, [r0, #6]	@ zero_extendqisi2
  76 0002 33B3     		cbz	r3, .L5
  77              		.loc 1 145 0
  78 0004 1C4B     		ldr	r3, .L12
  79              		.loc 1 148 0
  80 0006 0279     		ldrb	r2, [r0, #4]	@ zero_extendqisi2
  81              		.loc 1 157 0
  82 0008 4179     		ldrb	r1, [r0, #5]	@ zero_extendqisi2
  83              		.loc 1 131 0
  84 000a F0B4     		push	{r4, r5, r6, r7}
  85              		.cfi_def_cfa_offset 16
  86              		.cfi_offset 4, -16
  87              		.cfi_offset 5, -12
  88              		.cfi_offset 6, -8
  89              		.cfi_offset 7, -4
  90              		.loc 1 145 0
  91 000c 0468     		ldr	r4, [r0]
  92 000e 1E68     		ldr	r6, [r3]
  93 0010 E743     		mvns	r7, r4
  94 0012 3E40     		ands	r6, r6, r7
  95 0014 1E60     		str	r6, [r3]
  96              		.loc 1 146 0
  97 0016 5D68     		ldr	r5, [r3, #4]
  98              		.loc 1 148 0
  99 0018 02F18042 		add	r2, r2, #1073741824
 100 001c 02F59E32 		add	r2, r2, #80896
 101              		.loc 1 146 0
 102 0020 3D40     		ands	r5, r5, r7
 103 0022 5D60     		str	r5, [r3, #4]
 104              	.LVL1:
 105              		.loc 1 150 0
 106 0024 1568     		ldr	r5, [r2]
 107 0026 2C43     		orrs	r4, r4, r5
 108 0028 1460     		str	r4, [r2]
 109              	.LVL2:
 110              		.loc 1 153 0
 111 002a 0268     		ldr	r2, [r0]
 112 002c 9C68     		ldr	r4, [r3, #8]
 113 002e D543     		mvns	r5, r2
 114 0030 2C40     		ands	r4, r4, r5
ARM GAS  /tmp/cc7vJNk9.s 			page 3


 115 0032 9C60     		str	r4, [r3, #8]
 116              		.loc 1 154 0
 117 0034 D868     		ldr	r0, [r3, #12]
 118              	.LVL3:
 119              		.loc 1 157 0
 120 0036 1029     		cmp	r1, #16
 121              		.loc 1 154 0
 122 0038 00EA0500 		and	r0, r0, r5
 123 003c D860     		str	r0, [r3, #12]
 124              		.loc 1 157 0
 125 003e 13D0     		beq	.L11
 126              	.LVL4:
 127              		.loc 1 166 0
 128 0040 01F18043 		add	r3, r1, #1073741824
 129 0044 03F59E33 		add	r3, r3, #80896
 130              		.loc 1 178 0
 131 0048 F0BC     		pop	{r4, r5, r6, r7}
 132              		.cfi_restore 7
 133              		.cfi_restore 6
 134              		.cfi_restore 5
 135              		.cfi_restore 4
 136              		.cfi_def_cfa_offset 0
 137              		.loc 1 168 0
 138 004a 1968     		ldr	r1, [r3]
 139              	.LVL5:
 140 004c 0A43     		orrs	r2, r2, r1
 141 004e 1A60     		str	r2, [r3]
 142              		.loc 1 178 0
 143 0050 7047     		bx	lr
 144              	.LVL6:
 145              	.L5:
 146              		.loc 1 173 0
 147 0052 0379     		ldrb	r3, [r0, #4]	@ zero_extendqisi2
 148              		.loc 1 176 0
 149 0054 0168     		ldr	r1, [r0]
 150              		.loc 1 173 0
 151 0056 03F18043 		add	r3, r3, #1073741824
 152 005a 03F59E33 		add	r3, r3, #80896
 153              		.loc 1 176 0
 154 005e 1A68     		ldr	r2, [r3]
 155 0060 22EA0102 		bic	r2, r2, r1
 156 0064 1A60     		str	r2, [r3]
 157              	.LVL7:
 158 0066 7047     		bx	lr
 159              	.LVL8:
 160              	.L11:
 161              		.cfi_def_cfa_offset 16
 162              		.cfi_offset 4, -16
 163              		.cfi_offset 5, -12
 164              		.cfi_offset 6, -8
 165              		.cfi_offset 7, -4
 166              		.loc 1 160 0
 167 0068 9968     		ldr	r1, [r3, #8]
 168 006a 1143     		orrs	r1, r1, r2
 169 006c 9960     		str	r1, [r3, #8]
 170              		.loc 1 161 0
 171 006e D968     		ldr	r1, [r3, #12]
ARM GAS  /tmp/cc7vJNk9.s 			page 4


 172 0070 0A43     		orrs	r2, r2, r1
 173 0072 DA60     		str	r2, [r3, #12]
 174              		.loc 1 178 0
 175 0074 F0BC     		pop	{r4, r5, r6, r7}
 176              		.cfi_restore 4
 177              		.cfi_restore 5
 178              		.cfi_restore 6
 179              		.cfi_restore 7
 180              		.cfi_def_cfa_offset 0
 181 0076 7047     		bx	lr
 182              	.L13:
 183              		.align	2
 184              	.L12:
 185 0078 003C0140 		.word	1073822720
 186              		.cfi_endproc
 187              	.LFE113:
 188              		.size	EXTI_Init, .-EXTI_Init
 189              		.section	.text.EXTI_StructInit,"ax",%progbits
 190              		.align	2
 191              		.p2align 4,,15
 192              		.global	EXTI_StructInit
 193              		.thumb
 194              		.thumb_func
 195              		.type	EXTI_StructInit, %function
 196              	EXTI_StructInit:
 197              	.LFB114:
 198              		.loc 1 187 0
 199              		.cfi_startproc
 200              		@ args = 0, pretend = 0, frame = 0
 201              		@ frame_needed = 0, uses_anonymous_args = 0
 202              		@ link register save eliminated.
 203              	.LVL9:
 204              		.loc 1 188 0
 205 0000 0023     		movs	r3, #0
 206              		.loc 1 190 0
 207 0002 0C22     		movs	r2, #12
 208 0004 4271     		strb	r2, [r0, #5]
 209              		.loc 1 188 0
 210 0006 0360     		str	r3, [r0]
 211              		.loc 1 189 0
 212 0008 0371     		strb	r3, [r0, #4]
 213              		.loc 1 191 0
 214 000a 8371     		strb	r3, [r0, #6]
 215 000c 7047     		bx	lr
 216              		.cfi_endproc
 217              	.LFE114:
 218              		.size	EXTI_StructInit, .-EXTI_StructInit
 219 000e 00BF     		.section	.text.EXTI_GenerateSWInterrupt,"ax",%progbits
 220              		.align	2
 221              		.p2align 4,,15
 222              		.global	EXTI_GenerateSWInterrupt
 223              		.thumb
 224              		.thumb_func
 225              		.type	EXTI_GenerateSWInterrupt, %function
 226              	EXTI_GenerateSWInterrupt:
 227              	.LFB115:
 228              		.loc 1 202 0
ARM GAS  /tmp/cc7vJNk9.s 			page 5


 229              		.cfi_startproc
 230              		@ args = 0, pretend = 0, frame = 0
 231              		@ frame_needed = 0, uses_anonymous_args = 0
 232              		@ link register save eliminated.
 233              	.LVL10:
 234              		.loc 1 206 0
 235 0000 024A     		ldr	r2, .L16
 236 0002 1369     		ldr	r3, [r2, #16]
 237 0004 1843     		orrs	r0, r0, r3
 238              	.LVL11:
 239 0006 1061     		str	r0, [r2, #16]
 240 0008 7047     		bx	lr
 241              	.L17:
 242 000a 00BF     		.align	2
 243              	.L16:
 244 000c 003C0140 		.word	1073822720
 245              		.cfi_endproc
 246              	.LFE115:
 247              		.size	EXTI_GenerateSWInterrupt, .-EXTI_GenerateSWInterrupt
 248              		.section	.text.EXTI_GetFlagStatus,"ax",%progbits
 249              		.align	2
 250              		.p2align 4,,15
 251              		.global	EXTI_GetFlagStatus
 252              		.thumb
 253              		.thumb_func
 254              		.type	EXTI_GetFlagStatus, %function
 255              	EXTI_GetFlagStatus:
 256              	.LFB116:
 257              		.loc 1 232 0
 258              		.cfi_startproc
 259              		@ args = 0, pretend = 0, frame = 0
 260              		@ frame_needed = 0, uses_anonymous_args = 0
 261              		@ link register save eliminated.
 262              	.LVL12:
 263              		.loc 1 237 0
 264 0000 034B     		ldr	r3, .L19
 265 0002 5B69     		ldr	r3, [r3, #20]
 266              	.LVL13:
 267 0004 1842     		tst	r0, r3
 268              		.loc 1 246 0
 269 0006 14BF     		ite	ne
 270 0008 0120     		movne	r0, #1
 271              	.LVL14:
 272 000a 0020     		moveq	r0, #0
 273 000c 7047     		bx	lr
 274              	.L20:
 275 000e 00BF     		.align	2
 276              	.L19:
 277 0010 003C0140 		.word	1073822720
 278              		.cfi_endproc
 279              	.LFE116:
 280              		.size	EXTI_GetFlagStatus, .-EXTI_GetFlagStatus
 281              		.section	.text.EXTI_ClearFlag,"ax",%progbits
 282              		.align	2
 283              		.p2align 4,,15
 284              		.global	EXTI_ClearFlag
 285              		.thumb
ARM GAS  /tmp/cc7vJNk9.s 			page 6


 286              		.thumb_func
 287              		.type	EXTI_ClearFlag, %function
 288              	EXTI_ClearFlag:
 289              	.LFB117:
 290              		.loc 1 255 0
 291              		.cfi_startproc
 292              		@ args = 0, pretend = 0, frame = 0
 293              		@ frame_needed = 0, uses_anonymous_args = 0
 294              		@ link register save eliminated.
 295              	.LVL15:
 296              		.loc 1 259 0
 297 0000 014B     		ldr	r3, .L22
 298 0002 5861     		str	r0, [r3, #20]
 299 0004 7047     		bx	lr
 300              	.L23:
 301 0006 00BF     		.align	2
 302              	.L22:
 303 0008 003C0140 		.word	1073822720
 304              		.cfi_endproc
 305              	.LFE117:
 306              		.size	EXTI_ClearFlag, .-EXTI_ClearFlag
 307              		.section	.text.EXTI_GetITStatus,"ax",%progbits
 308              		.align	2
 309              		.p2align 4,,15
 310              		.global	EXTI_GetITStatus
 311              		.thumb
 312              		.thumb_func
 313              		.type	EXTI_GetITStatus, %function
 314              	EXTI_GetITStatus:
 315              	.LFB118:
 316              		.loc 1 269 0
 317              		.cfi_startproc
 318              		@ args = 0, pretend = 0, frame = 0
 319              		@ frame_needed = 0, uses_anonymous_args = 0
 320              		@ link register save eliminated.
 321              	.LVL16:
 322              		.loc 1 274 0
 323 0000 034B     		ldr	r3, .L25
 324 0002 5B69     		ldr	r3, [r3, #20]
 325              	.LVL17:
 326 0004 1842     		tst	r0, r3
 327              		.loc 1 284 0
 328 0006 14BF     		ite	ne
 329 0008 0120     		movne	r0, #1
 330              	.LVL18:
 331 000a 0020     		moveq	r0, #0
 332 000c 7047     		bx	lr
 333              	.L26:
 334 000e 00BF     		.align	2
 335              	.L25:
 336 0010 003C0140 		.word	1073822720
 337              		.cfi_endproc
 338              	.LFE118:
 339              		.size	EXTI_GetITStatus, .-EXTI_GetITStatus
 340              		.section	.text.EXTI_ClearITPendingBit,"ax",%progbits
 341              		.align	2
 342              		.p2align 4,,15
ARM GAS  /tmp/cc7vJNk9.s 			page 7


 343              		.global	EXTI_ClearITPendingBit
 344              		.thumb
 345              		.thumb_func
 346              		.type	EXTI_ClearITPendingBit, %function
 347              	EXTI_ClearITPendingBit:
 348              	.LFB119:
 349              		.loc 1 293 0
 350              		.cfi_startproc
 351              		@ args = 0, pretend = 0, frame = 0
 352              		@ frame_needed = 0, uses_anonymous_args = 0
 353              		@ link register save eliminated.
 354              	.LVL19:
 355              		.loc 1 297 0
 356 0000 014B     		ldr	r3, .L28
 357 0002 5861     		str	r0, [r3, #20]
 358 0004 7047     		bx	lr
 359              	.L29:
 360 0006 00BF     		.align	2
 361              	.L28:
 362 0008 003C0140 		.word	1073822720
 363              		.cfi_endproc
 364              	.LFE119:
 365              		.size	EXTI_ClearITPendingBit, .-EXTI_ClearITPendingBit
 366              		.text
 367              	.Letext0:
 368              		.file 2 "/usr/arm-none-eabi/include/machine/_default_types.h"
 369              		.file 3 "/usr/arm-none-eabi/include/sys/_stdint.h"
 370              		.file 4 "ChibiOS_3.0.2/os/ext/CMSIS/ST/stm32f407xx.h"
 371              		.file 5 "ChibiOS_3.0.2/os/ext/CMSIS/ST/stm32f4xx.h"
 372              		.file 6 "ChibiOS_3.0.2/ext/stdperiph_stm32f4/inc/stm32f4xx_exti.h"
 373              		.file 7 "ChibiOS_3.0.2/os/ext/CMSIS/include/core_cm4.h"