ARM GAS  /tmp/ccs5Nv5k.s 			page 1


   1              		.syntax unified
   2              		.cpu cortex-m4
   3              		.eabi_attribute 27, 1
   4              		.eabi_attribute 28, 1
   5              		.fpu fpv4-sp-d16
   6              		.eabi_attribute 20, 1
   7              		.eabi_attribute 21, 1
   8              		.eabi_attribute 23, 3
   9              		.eabi_attribute 24, 1
  10              		.eabi_attribute 25, 1
  11              		.eabi_attribute 26, 1
  12              		.eabi_attribute 30, 2
  13              		.eabi_attribute 34, 1
  14              		.eabi_attribute 18, 4
  15              		.thumb
  16              		.file	"stm32f4xx_flash.c"
  17              		.text
  18              	.Ltext0:
  19              		.cfi_sections	.debug_frame
  20              		.section	.text.FLASH_SetLatency,"ax",%progbits
  21              		.align	2
  22              		.p2align 4,,15
  23              		.global	FLASH_SetLatency
  24              		.thumb
  25              		.thumb_func
  26              		.type	FLASH_SetLatency, %function
  27              	FLASH_SetLatency:
  28              	.LFB112:
  29              		.file 1 "ChibiOS_3.0.2/ext/stdperiph_stm32f4/src/stm32f4xx_flash.c"
  30              		.loc 1 296 0
  31              		.cfi_startproc
  32              		@ args = 0, pretend = 0, frame = 0
  33              		@ frame_needed = 0, uses_anonymous_args = 0
  34              		@ link register save eliminated.
  35              	.LVL0:
  36              		.loc 1 301 0
  37 0000 014B     		ldr	r3, .L2
  38 0002 C0B2     		uxtb	r0, r0
  39              	.LVL1:
  40 0004 1870     		strb	r0, [r3]
  41 0006 7047     		bx	lr
  42              	.L3:
  43              		.align	2
  44              	.L2:
  45 0008 003C0240 		.word	1073888256
  46              		.cfi_endproc
  47              	.LFE112:
  48              		.size	FLASH_SetLatency, .-FLASH_SetLatency
  49              		.section	.text.FLASH_PrefetchBufferCmd,"ax",%progbits
  50              		.align	2
  51              		.p2align 4,,15
  52              		.global	FLASH_PrefetchBufferCmd
  53              		.thumb
  54              		.thumb_func
  55              		.type	FLASH_PrefetchBufferCmd, %function
  56              	FLASH_PrefetchBufferCmd:
  57              	.LFB113:
ARM GAS  /tmp/ccs5Nv5k.s 			page 2


  58              		.loc 1 311 0
  59              		.cfi_startproc
  60              		@ args = 0, pretend = 0, frame = 0
  61              		@ frame_needed = 0, uses_anonymous_args = 0
  62              		@ link register save eliminated.
  63              	.LVL2:
  64              		.loc 1 318 0
  65 0000 054A     		ldr	r2, .L9
  66 0002 1368     		ldr	r3, [r2]
  67              		.loc 1 316 0
  68 0004 18B9     		cbnz	r0, .L8
  69              		.loc 1 322 0
  70 0006 23F48073 		bic	r3, r3, #256
  71 000a 1360     		str	r3, [r2]
  72 000c 7047     		bx	lr
  73              	.L8:
  74              		.loc 1 318 0
  75 000e 43F48073 		orr	r3, r3, #256
  76 0012 1360     		str	r3, [r2]
  77 0014 7047     		bx	lr
  78              	.L10:
  79 0016 00BF     		.align	2
  80              	.L9:
  81 0018 003C0240 		.word	1073888256
  82              		.cfi_endproc
  83              	.LFE113:
  84              		.size	FLASH_PrefetchBufferCmd, .-FLASH_PrefetchBufferCmd
  85              		.section	.text.FLASH_InstructionCacheCmd,"ax",%progbits
  86              		.align	2
  87              		.p2align 4,,15
  88              		.global	FLASH_InstructionCacheCmd
  89              		.thumb
  90              		.thumb_func
  91              		.type	FLASH_InstructionCacheCmd, %function
  92              	FLASH_InstructionCacheCmd:
  93              	.LFB114:
  94              		.loc 1 333 0
  95              		.cfi_startproc
  96              		@ args = 0, pretend = 0, frame = 0
  97              		@ frame_needed = 0, uses_anonymous_args = 0
  98              		@ link register save eliminated.
  99              	.LVL3:
 100              		.loc 1 339 0
 101 0000 054A     		ldr	r2, .L15
 102 0002 1368     		ldr	r3, [r2]
 103              		.loc 1 337 0
 104 0004 18B9     		cbnz	r0, .L14
 105              		.loc 1 343 0
 106 0006 23F40073 		bic	r3, r3, #512
 107 000a 1360     		str	r3, [r2]
 108 000c 7047     		bx	lr
 109              	.L14:
 110              		.loc 1 339 0
 111 000e 43F40073 		orr	r3, r3, #512
 112 0012 1360     		str	r3, [r2]
 113 0014 7047     		bx	lr
 114              	.L16:
ARM GAS  /tmp/ccs5Nv5k.s 			page 3


 115 0016 00BF     		.align	2
 116              	.L15:
 117 0018 003C0240 		.word	1073888256
 118              		.cfi_endproc
 119              	.LFE114:
 120              		.size	FLASH_InstructionCacheCmd, .-FLASH_InstructionCacheCmd
 121              		.section	.text.FLASH_DataCacheCmd,"ax",%progbits
 122              		.align	2
 123              		.p2align 4,,15
 124              		.global	FLASH_DataCacheCmd
 125              		.thumb
 126              		.thumb_func
 127              		.type	FLASH_DataCacheCmd, %function
 128              	FLASH_DataCacheCmd:
 129              	.LFB115:
 130              		.loc 1 354 0
 131              		.cfi_startproc
 132              		@ args = 0, pretend = 0, frame = 0
 133              		@ frame_needed = 0, uses_anonymous_args = 0
 134              		@ link register save eliminated.
 135              	.LVL4:
 136              		.loc 1 360 0
 137 0000 054A     		ldr	r2, .L21
 138 0002 1368     		ldr	r3, [r2]
 139              		.loc 1 358 0
 140 0004 18B9     		cbnz	r0, .L20
 141              		.loc 1 364 0
 142 0006 23F48063 		bic	r3, r3, #1024
 143 000a 1360     		str	r3, [r2]
 144 000c 7047     		bx	lr
 145              	.L20:
 146              		.loc 1 360 0
 147 000e 43F48063 		orr	r3, r3, #1024
 148 0012 1360     		str	r3, [r2]
 149 0014 7047     		bx	lr
 150              	.L22:
 151 0016 00BF     		.align	2
 152              	.L21:
 153 0018 003C0240 		.word	1073888256
 154              		.cfi_endproc
 155              	.LFE115:
 156              		.size	FLASH_DataCacheCmd, .-FLASH_DataCacheCmd
 157              		.section	.text.FLASH_InstructionCacheReset,"ax",%progbits
 158              		.align	2
 159              		.p2align 4,,15
 160              		.global	FLASH_InstructionCacheReset
 161              		.thumb
 162              		.thumb_func
 163              		.type	FLASH_InstructionCacheReset, %function
 164              	FLASH_InstructionCacheReset:
 165              	.LFB116:
 166              		.loc 1 375 0
 167              		.cfi_startproc
 168              		@ args = 0, pretend = 0, frame = 0
 169              		@ frame_needed = 0, uses_anonymous_args = 0
 170              		@ link register save eliminated.
 171              		.loc 1 376 0
ARM GAS  /tmp/ccs5Nv5k.s 			page 4


 172 0000 024A     		ldr	r2, .L24
 173 0002 1368     		ldr	r3, [r2]
 174 0004 43F40063 		orr	r3, r3, #2048
 175 0008 1360     		str	r3, [r2]
 176 000a 7047     		bx	lr
 177              	.L25:
 178              		.align	2
 179              	.L24:
 180 000c 003C0240 		.word	1073888256
 181              		.cfi_endproc
 182              	.LFE116:
 183              		.size	FLASH_InstructionCacheReset, .-FLASH_InstructionCacheReset
 184              		.section	.text.FLASH_DataCacheReset,"ax",%progbits
 185              		.align	2
 186              		.p2align 4,,15
 187              		.global	FLASH_DataCacheReset
 188              		.thumb
 189              		.thumb_func
 190              		.type	FLASH_DataCacheReset, %function
 191              	FLASH_DataCacheReset:
 192              	.LFB117:
 193              		.loc 1 386 0
 194              		.cfi_startproc
 195              		@ args = 0, pretend = 0, frame = 0
 196              		@ frame_needed = 0, uses_anonymous_args = 0
 197              		@ link register save eliminated.
 198              		.loc 1 387 0
 199 0000 024A     		ldr	r2, .L27
 200 0002 1368     		ldr	r3, [r2]
 201 0004 43F48053 		orr	r3, r3, #4096
 202 0008 1360     		str	r3, [r2]
 203 000a 7047     		bx	lr
 204              	.L28:
 205              		.align	2
 206              	.L27:
 207 000c 003C0240 		.word	1073888256
 208              		.cfi_endproc
 209              	.LFE117:
 210              		.size	FLASH_DataCacheReset, .-FLASH_DataCacheReset
 211              		.section	.text.FLASH_Unlock,"ax",%progbits
 212              		.align	2
 213              		.p2align 4,,15
 214              		.global	FLASH_Unlock
 215              		.thumb
 216              		.thumb_func
 217              		.type	FLASH_Unlock, %function
 218              	FLASH_Unlock:
 219              	.LFB118:
 220              		.loc 1 433 0
 221              		.cfi_startproc
 222              		@ args = 0, pretend = 0, frame = 0
 223              		@ frame_needed = 0, uses_anonymous_args = 0
 224              		@ link register save eliminated.
 225              		.loc 1 434 0
 226 0000 044B     		ldr	r3, .L31
 227 0002 1A69     		ldr	r2, [r3, #16]
 228 0004 002A     		cmp	r2, #0
ARM GAS  /tmp/ccs5Nv5k.s 			page 5


 229 0006 03DA     		bge	.L29
 230              		.loc 1 437 0
 231 0008 0349     		ldr	r1, .L31+4
 232              		.loc 1 438 0
 233 000a 044A     		ldr	r2, .L31+8
 234              		.loc 1 437 0
 235 000c 5960     		str	r1, [r3, #4]
 236              		.loc 1 438 0
 237 000e 5A60     		str	r2, [r3, #4]
 238              	.L29:
 239 0010 7047     		bx	lr
 240              	.L32:
 241 0012 00BF     		.align	2
 242              	.L31:
 243 0014 003C0240 		.word	1073888256
 244 0018 23016745 		.word	1164378403
 245 001c AB89EFCD 		.word	-839939669
 246              		.cfi_endproc
 247              	.LFE118:
 248              		.size	FLASH_Unlock, .-FLASH_Unlock
 249              		.section	.text.FLASH_Lock,"ax",%progbits
 250              		.align	2
 251              		.p2align 4,,15
 252              		.global	FLASH_Lock
 253              		.thumb
 254              		.thumb_func
 255              		.type	FLASH_Lock, %function
 256              	FLASH_Lock:
 257              	.LFB119:
 258              		.loc 1 448 0
 259              		.cfi_startproc
 260              		@ args = 0, pretend = 0, frame = 0
 261              		@ frame_needed = 0, uses_anonymous_args = 0
 262              		@ link register save eliminated.
 263              		.loc 1 450 0
 264 0000 024A     		ldr	r2, .L34
 265 0002 1369     		ldr	r3, [r2, #16]
 266 0004 43F00043 		orr	r3, r3, #-2147483648
 267 0008 1361     		str	r3, [r2, #16]
 268 000a 7047     		bx	lr
 269              	.L35:
 270              		.align	2
 271              	.L34:
 272 000c 003C0240 		.word	1073888256
 273              		.cfi_endproc
 274              	.LFE119:
 275              		.size	FLASH_Lock, .-FLASH_Lock
 276              		.section	.text.FLASH_OB_Unlock,"ax",%progbits
 277              		.align	2
 278              		.p2align 4,,15
 279              		.global	FLASH_OB_Unlock
 280              		.thumb
 281              		.thumb_func
 282              		.type	FLASH_OB_Unlock, %function
 283              	FLASH_OB_Unlock:
 284              	.LFB128:
 285              		.loc 1 990 0
ARM GAS  /tmp/ccs5Nv5k.s 			page 6


 286              		.cfi_startproc
 287              		@ args = 0, pretend = 0, frame = 0
 288              		@ frame_needed = 0, uses_anonymous_args = 0
 289              		@ link register save eliminated.
 290              		.loc 1 991 0
 291 0000 044B     		ldr	r3, .L41
 292 0002 5A69     		ldr	r2, [r3, #20]
 293 0004 D207     		lsls	r2, r2, #31
 294 0006 03D5     		bpl	.L36
 295              		.loc 1 994 0
 296 0008 0349     		ldr	r1, .L41+4
 297              		.loc 1 995 0
 298 000a 044A     		ldr	r2, .L41+8
 299              		.loc 1 994 0
 300 000c 9960     		str	r1, [r3, #8]
 301              		.loc 1 995 0
 302 000e 9A60     		str	r2, [r3, #8]
 303              	.L36:
 304 0010 7047     		bx	lr
 305              	.L42:
 306 0012 00BF     		.align	2
 307              	.L41:
 308 0014 003C0240 		.word	1073888256
 309 0018 3B2A1908 		.word	135866939
 310 001c 7F6E5D4C 		.word	1281191551
 311              		.cfi_endproc
 312              	.LFE128:
 313              		.size	FLASH_OB_Unlock, .-FLASH_OB_Unlock
 314              		.section	.text.FLASH_OB_Lock,"ax",%progbits
 315              		.align	2
 316              		.p2align 4,,15
 317              		.global	FLASH_OB_Lock
 318              		.thumb
 319              		.thumb_func
 320              		.type	FLASH_OB_Lock, %function
 321              	FLASH_OB_Lock:
 322              	.LFB129:
 323              		.loc 1 1005 0
 324              		.cfi_startproc
 325              		@ args = 0, pretend = 0, frame = 0
 326              		@ frame_needed = 0, uses_anonymous_args = 0
 327              		@ link register save eliminated.
 328              		.loc 1 1007 0
 329 0000 024A     		ldr	r2, .L44
 330 0002 5369     		ldr	r3, [r2, #20]
 331 0004 43F00103 		orr	r3, r3, #1
 332 0008 5361     		str	r3, [r2, #20]
 333 000a 7047     		bx	lr
 334              	.L45:
 335              		.align	2
 336              	.L44:
 337 000c 003C0240 		.word	1073888256
 338              		.cfi_endproc
 339              	.LFE129:
 340              		.size	FLASH_OB_Lock, .-FLASH_OB_Lock
 341              		.section	.text.FLASH_OB_PCROPSelectionConfig,"ax",%progbits
 342              		.align	2
ARM GAS  /tmp/ccs5Nv5k.s 			page 7


 343              		.p2align 4,,15
 344              		.global	FLASH_OB_PCROPSelectionConfig
 345              		.thumb
 346              		.thumb_func
 347              		.type	FLASH_OB_PCROPSelectionConfig, %function
 348              	FLASH_OB_PCROPSelectionConfig:
 349              	.LFB132:
 350              		.loc 1 1120 0
 351              		.cfi_startproc
 352              		@ args = 0, pretend = 0, frame = 0
 353              		@ frame_needed = 0, uses_anonymous_args = 0
 354              		@ link register save eliminated.
 355              	.LVL5:
 356              		.loc 1 1127 0
 357 0000 034A     		ldr	r2, .L47
 358 0002 1378     		ldrb	r3, [r2]	@ zero_extendqisi2
 359              	.LVL6:
 360 0004 03F07F03 		and	r3, r3, #127
 361              	.LVL7:
 362              		.loc 1 1129 0
 363 0008 1843     		orrs	r0, r0, r3
 364              	.LVL8:
 365 000a 1070     		strb	r0, [r2]
 366 000c 7047     		bx	lr
 367              	.L48:
 368 000e 00BF     		.align	2
 369              	.L47:
 370 0010 173C0240 		.word	1073888279
 371              		.cfi_endproc
 372              	.LFE132:
 373              		.size	FLASH_OB_PCROPSelectionConfig, .-FLASH_OB_PCROPSelectionConfig
 374              		.section	.text.FLASH_OB_BootConfig,"ax",%progbits
 375              		.align	2
 376              		.p2align 4,,15
 377              		.global	FLASH_OB_BootConfig
 378              		.thumb
 379              		.thumb_func
 380              		.type	FLASH_OB_BootConfig, %function
 381              	FLASH_OB_BootConfig:
 382              	.LFB137:
 383              		.loc 1 1296 0
 384              		.cfi_startproc
 385              		@ args = 0, pretend = 0, frame = 0
 386              		@ frame_needed = 0, uses_anonymous_args = 0
 387              		@ link register save eliminated.
 388              	.LVL9:
 389              		.loc 1 1301 0
 390 0000 044B     		ldr	r3, .L50
 391 0002 1A78     		ldrb	r2, [r3]	@ zero_extendqisi2
 392 0004 02F0EF02 		and	r2, r2, #239
 393 0008 1A70     		strb	r2, [r3]
 394              		.loc 1 1302 0
 395 000a 1A78     		ldrb	r2, [r3]	@ zero_extendqisi2
 396 000c 1043     		orrs	r0, r0, r2
 397              	.LVL10:
 398 000e 1870     		strb	r0, [r3]
 399 0010 7047     		bx	lr
ARM GAS  /tmp/ccs5Nv5k.s 			page 8


 400              	.L51:
 401 0012 00BF     		.align	2
 402              	.L50:
 403 0014 143C0240 		.word	1073888276
 404              		.cfi_endproc
 405              	.LFE137:
 406              		.size	FLASH_OB_BootConfig, .-FLASH_OB_BootConfig
 407              		.section	.text.FLASH_OB_BORConfig,"ax",%progbits
 408              		.align	2
 409              		.p2align 4,,15
 410              		.global	FLASH_OB_BORConfig
 411              		.thumb
 412              		.thumb_func
 413              		.type	FLASH_OB_BORConfig, %function
 414              	FLASH_OB_BORConfig:
 415              	.LFB138:
 416              		.loc 1 1317 0
 417              		.cfi_startproc
 418              		@ args = 0, pretend = 0, frame = 0
 419              		@ frame_needed = 0, uses_anonymous_args = 0
 420              		@ link register save eliminated.
 421              	.LVL11:
 422              		.loc 1 1322 0
 423 0000 044B     		ldr	r3, .L53
 424 0002 1A78     		ldrb	r2, [r3]	@ zero_extendqisi2
 425 0004 02F0F302 		and	r2, r2, #243
 426 0008 1A70     		strb	r2, [r3]
 427              		.loc 1 1323 0
 428 000a 1A78     		ldrb	r2, [r3]	@ zero_extendqisi2
 429 000c 1043     		orrs	r0, r0, r2
 430              	.LVL12:
 431 000e 1870     		strb	r0, [r3]
 432 0010 7047     		bx	lr
 433              	.L54:
 434 0012 00BF     		.align	2
 435              	.L53:
 436 0014 143C0240 		.word	1073888276
 437              		.cfi_endproc
 438              	.LFE138:
 439              		.size	FLASH_OB_BORConfig, .-FLASH_OB_BORConfig
 440              		.section	.text.FLASH_OB_GetUser,"ax",%progbits
 441              		.align	2
 442              		.p2align 4,,15
 443              		.global	FLASH_OB_GetUser
 444              		.thumb
 445              		.thumb_func
 446              		.type	FLASH_OB_GetUser, %function
 447              	FLASH_OB_GetUser:
 448              	.LFB140:
 449              		.loc 1 1353 0
 450              		.cfi_startproc
 451              		@ args = 0, pretend = 0, frame = 0
 452              		@ frame_needed = 0, uses_anonymous_args = 0
 453              		@ link register save eliminated.
 454              		.loc 1 1355 0
 455 0000 024B     		ldr	r3, .L56
 456 0002 5869     		ldr	r0, [r3, #20]
ARM GAS  /tmp/ccs5Nv5k.s 			page 9


 457              		.loc 1 1356 0
 458 0004 C0F34710 		ubfx	r0, r0, #5, #8
 459 0008 7047     		bx	lr
 460              	.L57:
 461 000a 00BF     		.align	2
 462              	.L56:
 463 000c 003C0240 		.word	1073888256
 464              		.cfi_endproc
 465              	.LFE140:
 466              		.size	FLASH_OB_GetUser, .-FLASH_OB_GetUser
 467              		.section	.text.FLASH_OB_GetWRP,"ax",%progbits
 468              		.align	2
 469              		.p2align 4,,15
 470              		.global	FLASH_OB_GetWRP
 471              		.thumb
 472              		.thumb_func
 473              		.type	FLASH_OB_GetWRP, %function
 474              	FLASH_OB_GetWRP:
 475              	.LFB141:
 476              		.loc 1 1364 0
 477              		.cfi_startproc
 478              		@ args = 0, pretend = 0, frame = 0
 479              		@ frame_needed = 0, uses_anonymous_args = 0
 480              		@ link register save eliminated.
 481              		.loc 1 1366 0
 482 0000 014B     		ldr	r3, .L59
 483 0002 1888     		ldrh	r0, [r3]
 484              		.loc 1 1367 0
 485 0004 80B2     		uxth	r0, r0
 486 0006 7047     		bx	lr
 487              	.L60:
 488              		.align	2
 489              	.L59:
 490 0008 163C0240 		.word	1073888278
 491              		.cfi_endproc
 492              	.LFE141:
 493              		.size	FLASH_OB_GetWRP, .-FLASH_OB_GetWRP
 494              		.section	.text.FLASH_OB_GetWRP1,"ax",%progbits
 495              		.align	2
 496              		.p2align 4,,15
 497              		.global	FLASH_OB_GetWRP1
 498              		.thumb
 499              		.thumb_func
 500              		.type	FLASH_OB_GetWRP1, %function
 501              	FLASH_OB_GetWRP1:
 502              	.LFB142:
 503              		.loc 1 1378 0
 504              		.cfi_startproc
 505              		@ args = 0, pretend = 0, frame = 0
 506              		@ frame_needed = 0, uses_anonymous_args = 0
 507              		@ link register save eliminated.
 508              		.loc 1 1380 0
 509 0000 014B     		ldr	r3, .L62
 510 0002 1888     		ldrh	r0, [r3]
 511              		.loc 1 1381 0
 512 0004 80B2     		uxth	r0, r0
 513 0006 7047     		bx	lr
ARM GAS  /tmp/ccs5Nv5k.s 			page 10


 514              	.L63:
 515              		.align	2
 516              	.L62:
 517 0008 1A3C0240 		.word	1073888282
 518              		.cfi_endproc
 519              	.LFE142:
 520              		.size	FLASH_OB_GetWRP1, .-FLASH_OB_GetWRP1
 521              		.section	.text.FLASH_OB_GetPCROP,"ax",%progbits
 522              		.align	2
 523              		.p2align 4,,15
 524              		.global	FLASH_OB_GetPCROP
 525              		.thumb
 526              		.thumb_func
 527              		.type	FLASH_OB_GetPCROP, %function
 528              	FLASH_OB_GetPCROP:
 529              	.LFB143:
 530              		.loc 1 1392 0
 531              		.cfi_startproc
 532              		@ args = 0, pretend = 0, frame = 0
 533              		@ frame_needed = 0, uses_anonymous_args = 0
 534              		@ link register save eliminated.
 535              		.loc 1 1394 0
 536 0000 014B     		ldr	r3, .L65
 537 0002 1888     		ldrh	r0, [r3]
 538              		.loc 1 1395 0
 539 0004 80B2     		uxth	r0, r0
 540 0006 7047     		bx	lr
 541              	.L66:
 542              		.align	2
 543              	.L65:
 544 0008 163C0240 		.word	1073888278
 545              		.cfi_endproc
 546              	.LFE143:
 547              		.size	FLASH_OB_GetPCROP, .-FLASH_OB_GetPCROP
 548              		.section	.text.FLASH_OB_GetPCROP1,"ax",%progbits
 549              		.align	2
 550              		.p2align 4,,15
 551              		.global	FLASH_OB_GetPCROP1
 552              		.thumb
 553              		.thumb_func
 554              		.type	FLASH_OB_GetPCROP1, %function
 555              	FLASH_OB_GetPCROP1:
 556              	.LFB144:
 557              		.loc 1 1406 0
 558              		.cfi_startproc
 559              		@ args = 0, pretend = 0, frame = 0
 560              		@ frame_needed = 0, uses_anonymous_args = 0
 561              		@ link register save eliminated.
 562              		.loc 1 1408 0
 563 0000 014B     		ldr	r3, .L68
 564 0002 1888     		ldrh	r0, [r3]
 565              		.loc 1 1409 0
 566 0004 80B2     		uxth	r0, r0
 567 0006 7047     		bx	lr
 568              	.L69:
 569              		.align	2
 570              	.L68:
ARM GAS  /tmp/ccs5Nv5k.s 			page 11


 571 0008 1A3C0240 		.word	1073888282
 572              		.cfi_endproc
 573              	.LFE144:
 574              		.size	FLASH_OB_GetPCROP1, .-FLASH_OB_GetPCROP1
 575              		.section	.text.FLASH_OB_GetRDP,"ax",%progbits
 576              		.align	2
 577              		.p2align 4,,15
 578              		.global	FLASH_OB_GetRDP
 579              		.thumb
 580              		.thumb_func
 581              		.type	FLASH_OB_GetRDP, %function
 582              	FLASH_OB_GetRDP:
 583              	.LFB145:
 584              		.loc 1 1419 0
 585              		.cfi_startproc
 586              		@ args = 0, pretend = 0, frame = 0
 587              		@ frame_needed = 0, uses_anonymous_args = 0
 588              		@ link register save eliminated.
 589              	.LVL13:
 590              		.loc 1 1422 0
 591 0000 024B     		ldr	r3, .L71
 592 0002 1878     		ldrb	r0, [r3]	@ zero_extendqisi2
 593              	.LVL14:
 594              		.loc 1 1431 0
 595 0004 AA38     		subs	r0, r0, #170
 596              	.LVL15:
 597 0006 18BF     		it	ne
 598 0008 0120     		movne	r0, #1
 599 000a 7047     		bx	lr
 600              	.L72:
 601              		.align	2
 602              	.L71:
 603 000c 153C0240 		.word	1073888277
 604              		.cfi_endproc
 605              	.LFE145:
 606              		.size	FLASH_OB_GetRDP, .-FLASH_OB_GetRDP
 607              		.section	.text.FLASH_OB_GetBOR,"ax",%progbits
 608              		.align	2
 609              		.p2align 4,,15
 610              		.global	FLASH_OB_GetBOR
 611              		.thumb
 612              		.thumb_func
 613              		.type	FLASH_OB_GetBOR, %function
 614              	FLASH_OB_GetBOR:
 615              	.LFB146:
 616              		.loc 1 1443 0
 617              		.cfi_startproc
 618              		@ args = 0, pretend = 0, frame = 0
 619              		@ frame_needed = 0, uses_anonymous_args = 0
 620              		@ link register save eliminated.
 621              		.loc 1 1445 0
 622 0000 024B     		ldr	r3, .L74
 623 0002 1878     		ldrb	r0, [r3]	@ zero_extendqisi2
 624              		.loc 1 1446 0
 625 0004 00F00C00 		and	r0, r0, #12
 626 0008 7047     		bx	lr
 627              	.L75:
ARM GAS  /tmp/ccs5Nv5k.s 			page 12


 628 000a 00BF     		.align	2
 629              	.L74:
 630 000c 143C0240 		.word	1073888276
 631              		.cfi_endproc
 632              	.LFE146:
 633              		.size	FLASH_OB_GetBOR, .-FLASH_OB_GetBOR
 634              		.section	.text.FLASH_ITConfig,"ax",%progbits
 635              		.align	2
 636              		.p2align 4,,15
 637              		.global	FLASH_ITConfig
 638              		.thumb
 639              		.thumb_func
 640              		.type	FLASH_ITConfig, %function
 641              	FLASH_ITConfig:
 642              	.LFB147:
 643              		.loc 1 1472 0
 644              		.cfi_startproc
 645              		@ args = 0, pretend = 0, frame = 0
 646              		@ frame_needed = 0, uses_anonymous_args = 0
 647              		@ link register save eliminated.
 648              	.LVL16:
 649              		.loc 1 1480 0
 650 0000 044A     		ldr	r2, .L80
 651 0002 1369     		ldr	r3, [r2, #16]
 652              		.loc 1 1477 0
 653 0004 19B9     		cbnz	r1, .L79
 654              		.loc 1 1485 0
 655 0006 23EA0000 		bic	r0, r3, r0
 656              	.LVL17:
 657 000a 1061     		str	r0, [r2, #16]
 658 000c 7047     		bx	lr
 659              	.LVL18:
 660              	.L79:
 661              		.loc 1 1480 0
 662 000e 1843     		orrs	r0, r0, r3
 663              	.LVL19:
 664 0010 1061     		str	r0, [r2, #16]
 665 0012 7047     		bx	lr
 666              	.L81:
 667              		.align	2
 668              	.L80:
 669 0014 003C0240 		.word	1073888256
 670              		.cfi_endproc
 671              	.LFE147:
 672              		.size	FLASH_ITConfig, .-FLASH_ITConfig
 673              		.section	.text.FLASH_GetFlagStatus,"ax",%progbits
 674              		.align	2
 675              		.p2align 4,,15
 676              		.global	FLASH_GetFlagStatus
 677              		.thumb
 678              		.thumb_func
 679              		.type	FLASH_GetFlagStatus, %function
 680              	FLASH_GetFlagStatus:
 681              	.LFB148:
 682              		.loc 1 1504 0
 683              		.cfi_startproc
 684              		@ args = 0, pretend = 0, frame = 0
ARM GAS  /tmp/ccs5Nv5k.s 			page 13


 685              		@ frame_needed = 0, uses_anonymous_args = 0
 686              		@ link register save eliminated.
 687              	.LVL20:
 688              		.loc 1 1509 0
 689 0000 034B     		ldr	r3, .L83
 690 0002 DB68     		ldr	r3, [r3, #12]
 691              	.LVL21:
 692 0004 1842     		tst	r0, r3
 693              		.loc 1 1519 0
 694 0006 14BF     		ite	ne
 695 0008 0120     		movne	r0, #1
 696              	.LVL22:
 697 000a 0020     		moveq	r0, #0
 698 000c 7047     		bx	lr
 699              	.L84:
 700 000e 00BF     		.align	2
 701              	.L83:
 702 0010 003C0240 		.word	1073888256
 703              		.cfi_endproc
 704              	.LFE148:
 705              		.size	FLASH_GetFlagStatus, .-FLASH_GetFlagStatus
 706              		.section	.text.FLASH_ClearFlag,"ax",%progbits
 707              		.align	2
 708              		.p2align 4,,15
 709              		.global	FLASH_ClearFlag
 710              		.thumb
 711              		.thumb_func
 712              		.type	FLASH_ClearFlag, %function
 713              	FLASH_ClearFlag:
 714              	.LFB149:
 715              		.loc 1 1535 0
 716              		.cfi_startproc
 717              		@ args = 0, pretend = 0, frame = 0
 718              		@ frame_needed = 0, uses_anonymous_args = 0
 719              		@ link register save eliminated.
 720              	.LVL23:
 721              		.loc 1 1540 0
 722 0000 014B     		ldr	r3, .L86
 723 0002 D860     		str	r0, [r3, #12]
 724 0004 7047     		bx	lr
 725              	.L87:
 726 0006 00BF     		.align	2
 727              	.L86:
 728 0008 003C0240 		.word	1073888256
 729              		.cfi_endproc
 730              	.LFE149:
 731              		.size	FLASH_ClearFlag, .-FLASH_ClearFlag
 732              		.section	.text.FLASH_GetStatus,"ax",%progbits
 733              		.align	2
 734              		.p2align 4,,15
 735              		.global	FLASH_GetStatus
 736              		.thumb
 737              		.thumb_func
 738              		.type	FLASH_GetStatus, %function
 739              	FLASH_GetStatus:
 740              	.LFB150:
 741              		.loc 1 1550 0
ARM GAS  /tmp/ccs5Nv5k.s 			page 14


 742              		.cfi_startproc
 743              		@ args = 0, pretend = 0, frame = 0
 744              		@ frame_needed = 0, uses_anonymous_args = 0
 745              		@ link register save eliminated.
 746              	.LVL24:
 747              		.loc 1 1553 0
 748 0000 0E4B     		ldr	r3, .L98
 749 0002 DA68     		ldr	r2, [r3, #12]
 750 0004 D203     		lsls	r2, r2, #15
 751 0006 09D4     		bmi	.L90
 752              		.loc 1 1559 0
 753 0008 DA68     		ldr	r2, [r3, #12]
 754 000a D106     		lsls	r1, r2, #27
 755 000c 01D5     		bpl	.L95
 756              		.loc 1 1561 0
 757 000e 0620     		movs	r0, #6
 758 0010 7047     		bx	lr
 759              	.L95:
 760              		.loc 1 1565 0
 761 0012 DA68     		ldr	r2, [r3, #12]
 762 0014 D205     		lsls	r2, r2, #23
 763 0016 03D5     		bpl	.L96
 764              		.loc 1 1567 0
 765 0018 0220     		movs	r0, #2
 766 001a 7047     		bx	lr
 767              	.L90:
 768              		.loc 1 1555 0
 769 001c 0120     		movs	r0, #1
 770 001e 7047     		bx	lr
 771              	.L96:
 772              		.loc 1 1571 0
 773 0020 DA68     		ldr	r2, [r3, #12]
 774 0022 12F0E00F 		tst	r2, #224
 775 0026 01D0     		beq	.L97
 776              		.loc 1 1573 0
 777 0028 0720     		movs	r0, #7
 778              	.LVL25:
 779              		.loc 1 1591 0
 780 002a 7047     		bx	lr
 781              	.LVL26:
 782              	.L97:
 783              	.LBB4:
 784              	.LBB5:
 785              		.loc 1 1577 0
 786 002c DB68     		ldr	r3, [r3, #12]
 787 002e 13F0020F 		tst	r3, #2
 788              		.loc 1 1583 0
 789 0032 14BF     		ite	ne
 790 0034 0820     		movne	r0, #8
 791 0036 0920     		moveq	r0, #9
 792 0038 7047     		bx	lr
 793              	.L99:
 794 003a 00BF     		.align	2
 795              	.L98:
 796 003c 003C0240 		.word	1073888256
 797              	.LBE5:
 798              	.LBE4:
ARM GAS  /tmp/ccs5Nv5k.s 			page 15


 799              		.cfi_endproc
 800              	.LFE150:
 801              		.size	FLASH_GetStatus, .-FLASH_GetStatus
 802              		.section	.text.FLASH_WaitForLastOperation,"ax",%progbits
 803              		.align	2
 804              		.p2align 4,,15
 805              		.global	FLASH_WaitForLastOperation
 806              		.thumb
 807              		.thumb_func
 808              		.type	FLASH_WaitForLastOperation, %function
 809              	FLASH_WaitForLastOperation:
 810              	.LFB151:
 811              		.loc 1 1600 0
 812              		.cfi_startproc
 813              		@ args = 0, pretend = 0, frame = 8
 814              		@ frame_needed = 0, uses_anonymous_args = 0
 815 0000 00B5     		push	{lr}
 816              		.cfi_def_cfa_offset 4
 817              		.cfi_offset 14, -4
 818 0002 83B0     		sub	sp, sp, #12
 819              		.cfi_def_cfa_offset 16
 820              		.loc 1 1601 0
 821 0004 0923     		movs	r3, #9
 822 0006 8DF80730 		strb	r3, [sp, #7]
 823              	.L109:
 824              		.loc 1 1604 0
 825 000a FFF7FEFF 		bl	FLASH_GetStatus
 826              	.LVL27:
 827 000e 8DF80700 		strb	r0, [sp, #7]
 828              		.loc 1 1609 0
 829 0012 9DF80730 		ldrb	r3, [sp, #7]	@ zero_extendqisi2
 830 0016 012B     		cmp	r3, #1
 831 0018 F7D0     		beq	.L109
 832              		.loc 1 1614 0
 833 001a 9DF80700 		ldrb	r0, [sp, #7]	@ zero_extendqisi2
 834 001e C0B2     		uxtb	r0, r0
 835              		.loc 1 1615 0
 836 0020 03B0     		add	sp, sp, #12
 837              		.cfi_def_cfa_offset 4
 838              		@ sp needed
 839 0022 5DF804FB 		ldr	pc, [sp], #4
 840              		.cfi_endproc
 841              	.LFE151:
 842              		.size	FLASH_WaitForLastOperation, .-FLASH_WaitForLastOperation
 843 0026 00BF     		.section	.text.FLASH_EraseSector,"ax",%progbits
 844              		.align	2
 845              		.p2align 4,,15
 846              		.global	FLASH_EraseSector
 847              		.thumb
 848              		.thumb_func
 849              		.type	FLASH_EraseSector, %function
 850              	FLASH_EraseSector:
 851              	.LFB120:
 852              		.loc 1 491 0
 853              		.cfi_startproc
 854              		@ args = 0, pretend = 0, frame = 0
 855              		@ frame_needed = 0, uses_anonymous_args = 0
ARM GAS  /tmp/ccs5Nv5k.s 			page 16


 856              	.LVL28:
 857 0000 70B5     		push	{r4, r5, r6, lr}
 858              		.cfi_def_cfa_offset 16
 859              		.cfi_offset 4, -16
 860              		.cfi_offset 5, -12
 861              		.cfi_offset 6, -8
 862              		.cfi_offset 14, -4
 863              		.loc 1 491 0
 864 0002 0646     		mov	r6, r0
 865              		.loc 1 499 0
 866 0004 59B3     		cbz	r1, .L113
 867              		.loc 1 503 0
 868 0006 0129     		cmp	r1, #1
 869 0008 2FD0     		beq	.L114
 870              		.loc 1 507 0
 871 000a 0229     		cmp	r1, #2
 872              		.loc 1 513 0
 873 000c 0CBF     		ite	eq
 874 000e 4FF40074 		moveq	r4, #512
 875 0012 4FF44074 		movne	r4, #768
 876              	.LVL29:
 877              		.loc 1 516 0
 878 0016 FFF7FEFF 		bl	FLASH_WaitForLastOperation
 879              	.LVL30:
 880              		.loc 1 518 0
 881 001a 0928     		cmp	r0, #9
 882 001c 24D1     		bne	.L112
 883              	.L117:
 884              		.loc 1 521 0
 885 001e 144D     		ldr	r5, .L118
 886 0020 2B69     		ldr	r3, [r5, #16]
 887 0022 23F44073 		bic	r3, r3, #768
 888 0026 2B61     		str	r3, [r5, #16]
 889              		.loc 1 522 0
 890 0028 2969     		ldr	r1, [r5, #16]
 891 002a 2143     		orrs	r1, r1, r4
 892 002c 2961     		str	r1, [r5, #16]
 893              		.loc 1 523 0
 894 002e 2B69     		ldr	r3, [r5, #16]
 895 0030 23F0F803 		bic	r3, r3, #248
 896 0034 2B61     		str	r3, [r5, #16]
 897              		.loc 1 524 0
 898 0036 2B69     		ldr	r3, [r5, #16]
 899 0038 43F00203 		orr	r3, r3, #2
 900 003c 1E43     		orrs	r6, r6, r3
 901              	.LVL31:
 902 003e 2E61     		str	r6, [r5, #16]
 903              		.loc 1 525 0
 904 0040 2B69     		ldr	r3, [r5, #16]
 905 0042 43F48033 		orr	r3, r3, #65536
 906 0046 2B61     		str	r3, [r5, #16]
 907              		.loc 1 528 0
 908 0048 FFF7FEFF 		bl	FLASH_WaitForLastOperation
 909              	.LVL32:
 910              		.loc 1 531 0
 911 004c 2B69     		ldr	r3, [r5, #16]
 912 004e 23F00203 		bic	r3, r3, #2
ARM GAS  /tmp/ccs5Nv5k.s 			page 17


 913 0052 2B61     		str	r3, [r5, #16]
 914              		.loc 1 532 0
 915 0054 2B69     		ldr	r3, [r5, #16]
 916 0056 23F0F803 		bic	r3, r3, #248
 917 005a 2B61     		str	r3, [r5, #16]
 918              		.loc 1 536 0
 919 005c 70BD     		pop	{r4, r5, r6, pc}
 920              	.LVL33:
 921              	.L113:
 922              		.loc 1 501 0
 923 005e 0C46     		mov	r4, r1
 924              	.L111:
 925              	.LVL34:
 926              		.loc 1 516 0
 927 0060 FFF7FEFF 		bl	FLASH_WaitForLastOperation
 928              	.LVL35:
 929              		.loc 1 518 0
 930 0064 0928     		cmp	r0, #9
 931 0066 DAD0     		beq	.L117
 932              	.L112:
 933              		.loc 1 536 0
 934 0068 70BD     		pop	{r4, r5, r6, pc}
 935              	.LVL36:
 936              	.L114:
 937              		.loc 1 505 0
 938 006a 4FF48074 		mov	r4, #256
 939 006e F7E7     		b	.L111
 940              	.L119:
 941              		.align	2
 942              	.L118:
 943 0070 003C0240 		.word	1073888256
 944              		.cfi_endproc
 945              	.LFE120:
 946              		.size	FLASH_EraseSector, .-FLASH_EraseSector
 947              		.section	.text.FLASH_EraseAllSectors,"ax",%progbits
 948              		.align	2
 949              		.p2align 4,,15
 950              		.global	FLASH_EraseAllSectors
 951              		.thumb
 952              		.thumb_func
 953              		.type	FLASH_EraseAllSectors, %function
 954              	FLASH_EraseAllSectors:
 955              	.LFB121:
 956              		.loc 1 559 0
 957              		.cfi_startproc
 958              		@ args = 0, pretend = 0, frame = 0
 959              		@ frame_needed = 0, uses_anonymous_args = 0
 960              	.LVL37:
 961 0000 38B5     		push	{r3, r4, r5, lr}
 962              		.cfi_def_cfa_offset 16
 963              		.cfi_offset 3, -16
 964              		.cfi_offset 4, -12
 965              		.cfi_offset 5, -8
 966              		.cfi_offset 14, -4
 967              		.loc 1 559 0
 968 0002 0446     		mov	r4, r0
 969              		.loc 1 564 0
ARM GAS  /tmp/ccs5Nv5k.s 			page 18


 970 0004 FFF7FEFF 		bl	FLASH_WaitForLastOperation
 971              	.LVL38:
 972              		.loc 1 567 0
 973 0008 3CB1     		cbz	r4, .L121
 974              		.loc 1 571 0
 975 000a 012C     		cmp	r4, #1
 976 000c 08D0     		beq	.L124
 977              		.loc 1 575 0
 978 000e 022C     		cmp	r4, #2
 979              		.loc 1 581 0
 980 0010 0CBF     		ite	eq
 981 0012 4FF40074 		moveq	r4, #512
 982 0016 4FF44074 		movne	r4, #768
 983              	.L121:
 984              	.LVL39:
 985              		.loc 1 583 0
 986 001a 0928     		cmp	r0, #9
 987 001c 04D0     		beq	.L127
 988              	.L122:
 989              		.loc 1 615 0
 990 001e 38BD     		pop	{r3, r4, r5, pc}
 991              	.LVL40:
 992              	.L124:
 993              		.loc 1 583 0
 994 0020 0928     		cmp	r0, #9
 995              		.loc 1 573 0
 996 0022 4FF48074 		mov	r4, #256
 997              	.LVL41:
 998              		.loc 1 583 0
 999 0026 FAD1     		bne	.L122
 1000              	.L127:
 1001              		.loc 1 600 0
 1002 0028 0B4D     		ldr	r5, .L128
 1003 002a 2B69     		ldr	r3, [r5, #16]
 1004 002c 23F44073 		bic	r3, r3, #768
 1005 0030 2B61     		str	r3, [r5, #16]
 1006              		.loc 1 601 0
 1007 0032 2B69     		ldr	r3, [r5, #16]
 1008 0034 1C43     		orrs	r4, r4, r3
 1009              	.LVL42:
 1010 0036 2C61     		str	r4, [r5, #16]
 1011              		.loc 1 602 0
 1012 0038 2B69     		ldr	r3, [r5, #16]
 1013 003a 43F00403 		orr	r3, r3, #4
 1014 003e 2B61     		str	r3, [r5, #16]
 1015              		.loc 1 603 0
 1016 0040 2B69     		ldr	r3, [r5, #16]
 1017 0042 43F48033 		orr	r3, r3, #65536
 1018 0046 2B61     		str	r3, [r5, #16]
 1019              		.loc 1 606 0
 1020 0048 FFF7FEFF 		bl	FLASH_WaitForLastOperation
 1021              	.LVL43:
 1022              		.loc 1 609 0
 1023 004c 2B69     		ldr	r3, [r5, #16]
 1024 004e 23F00403 		bic	r3, r3, #4
 1025 0052 2B61     		str	r3, [r5, #16]
 1026              		.loc 1 615 0
ARM GAS  /tmp/ccs5Nv5k.s 			page 19


 1027 0054 38BD     		pop	{r3, r4, r5, pc}
 1028              	.L129:
 1029 0056 00BF     		.align	2
 1030              	.L128:
 1031 0058 003C0240 		.word	1073888256
 1032              		.cfi_endproc
 1033              	.LFE121:
 1034              		.size	FLASH_EraseAllSectors, .-FLASH_EraseAllSectors
 1035              		.section	.text.FLASH_EraseAllBank1Sectors,"ax",%progbits
 1036              		.align	2
 1037              		.p2align 4,,15
 1038              		.global	FLASH_EraseAllBank1Sectors
 1039              		.thumb
 1040              		.thumb_func
 1041              		.type	FLASH_EraseAllBank1Sectors, %function
 1042              	FLASH_EraseAllBank1Sectors:
 1043              	.LFB122:
 1044              		.loc 1 640 0
 1045              		.cfi_startproc
 1046              		@ args = 0, pretend = 0, frame = 0
 1047              		@ frame_needed = 0, uses_anonymous_args = 0
 1048              	.LVL44:
 1049 0000 38B5     		push	{r3, r4, r5, lr}
 1050              		.cfi_def_cfa_offset 16
 1051              		.cfi_offset 3, -16
 1052              		.cfi_offset 4, -12
 1053              		.cfi_offset 5, -8
 1054              		.cfi_offset 14, -4
 1055              		.loc 1 640 0
 1056 0002 0446     		mov	r4, r0
 1057              		.loc 1 645 0
 1058 0004 FFF7FEFF 		bl	FLASH_WaitForLastOperation
 1059              	.LVL45:
 1060              		.loc 1 648 0
 1061 0008 3CB1     		cbz	r4, .L131
 1062              		.loc 1 652 0
 1063 000a 012C     		cmp	r4, #1
 1064 000c 08D0     		beq	.L134
 1065              		.loc 1 656 0
 1066 000e 022C     		cmp	r4, #2
 1067              		.loc 1 662 0
 1068 0010 0CBF     		ite	eq
 1069 0012 4FF40074 		moveq	r4, #512
 1070 0016 4FF44074 		movne	r4, #768
 1071              	.L131:
 1072              	.LVL46:
 1073              		.loc 1 664 0
 1074 001a 0928     		cmp	r0, #9
 1075 001c 04D0     		beq	.L137
 1076              	.L132:
 1077              		.loc 1 681 0
 1078 001e 38BD     		pop	{r3, r4, r5, pc}
 1079              	.LVL47:
 1080              	.L134:
 1081              		.loc 1 664 0
 1082 0020 0928     		cmp	r0, #9
 1083              		.loc 1 654 0
ARM GAS  /tmp/ccs5Nv5k.s 			page 20


 1084 0022 4FF48074 		mov	r4, #256
 1085              	.LVL48:
 1086              		.loc 1 664 0
 1087 0026 FAD1     		bne	.L132
 1088              	.L137:
 1089              		.loc 1 667 0
 1090 0028 0B4D     		ldr	r5, .L138
 1091 002a 2B69     		ldr	r3, [r5, #16]
 1092 002c 23F44073 		bic	r3, r3, #768
 1093 0030 2B61     		str	r3, [r5, #16]
 1094              		.loc 1 668 0
 1095 0032 2B69     		ldr	r3, [r5, #16]
 1096 0034 1C43     		orrs	r4, r4, r3
 1097              	.LVL49:
 1098 0036 2C61     		str	r4, [r5, #16]
 1099              		.loc 1 669 0
 1100 0038 2B69     		ldr	r3, [r5, #16]
 1101 003a 43F00403 		orr	r3, r3, #4
 1102 003e 2B61     		str	r3, [r5, #16]
 1103              		.loc 1 670 0
 1104 0040 2B69     		ldr	r3, [r5, #16]
 1105 0042 43F48033 		orr	r3, r3, #65536
 1106 0046 2B61     		str	r3, [r5, #16]
 1107              		.loc 1 673 0
 1108 0048 FFF7FEFF 		bl	FLASH_WaitForLastOperation
 1109              	.LVL50:
 1110              		.loc 1 676 0
 1111 004c 2B69     		ldr	r3, [r5, #16]
 1112 004e 23F00403 		bic	r3, r3, #4
 1113 0052 2B61     		str	r3, [r5, #16]
 1114              		.loc 1 681 0
 1115 0054 38BD     		pop	{r3, r4, r5, pc}
 1116              	.L139:
 1117 0056 00BF     		.align	2
 1118              	.L138:
 1119 0058 003C0240 		.word	1073888256
 1120              		.cfi_endproc
 1121              	.LFE122:
 1122              		.size	FLASH_EraseAllBank1Sectors, .-FLASH_EraseAllBank1Sectors
 1123              		.section	.text.FLASH_EraseAllBank2Sectors,"ax",%progbits
 1124              		.align	2
 1125              		.p2align 4,,15
 1126              		.global	FLASH_EraseAllBank2Sectors
 1127              		.thumb
 1128              		.thumb_func
 1129              		.type	FLASH_EraseAllBank2Sectors, %function
 1130              	FLASH_EraseAllBank2Sectors:
 1131              	.LFB123:
 1132              		.loc 1 707 0
 1133              		.cfi_startproc
 1134              		@ args = 0, pretend = 0, frame = 0
 1135              		@ frame_needed = 0, uses_anonymous_args = 0
 1136              	.LVL51:
 1137 0000 38B5     		push	{r3, r4, r5, lr}
 1138              		.cfi_def_cfa_offset 16
 1139              		.cfi_offset 3, -16
 1140              		.cfi_offset 4, -12
ARM GAS  /tmp/ccs5Nv5k.s 			page 21


 1141              		.cfi_offset 5, -8
 1142              		.cfi_offset 14, -4
 1143              		.loc 1 707 0
 1144 0002 0446     		mov	r4, r0
 1145              		.loc 1 712 0
 1146 0004 FFF7FEFF 		bl	FLASH_WaitForLastOperation
 1147              	.LVL52:
 1148              		.loc 1 715 0
 1149 0008 3CB1     		cbz	r4, .L141
 1150              		.loc 1 719 0
 1151 000a 012C     		cmp	r4, #1
 1152 000c 08D0     		beq	.L144
 1153              		.loc 1 723 0
 1154 000e 022C     		cmp	r4, #2
 1155              		.loc 1 729 0
 1156 0010 0CBF     		ite	eq
 1157 0012 4FF40074 		moveq	r4, #512
 1158 0016 4FF44074 		movne	r4, #768
 1159              	.L141:
 1160              	.LVL53:
 1161              		.loc 1 731 0
 1162 001a 0928     		cmp	r0, #9
 1163 001c 04D0     		beq	.L147
 1164              	.L142:
 1165              		.loc 1 748 0
 1166 001e 38BD     		pop	{r3, r4, r5, pc}
 1167              	.LVL54:
 1168              	.L144:
 1169              		.loc 1 731 0
 1170 0020 0928     		cmp	r0, #9
 1171              		.loc 1 721 0
 1172 0022 4FF48074 		mov	r4, #256
 1173              	.LVL55:
 1174              		.loc 1 731 0
 1175 0026 FAD1     		bne	.L142
 1176              	.L147:
 1177              		.loc 1 734 0
 1178 0028 0B4D     		ldr	r5, .L148
 1179 002a 2B69     		ldr	r3, [r5, #16]
 1180 002c 23F44073 		bic	r3, r3, #768
 1181 0030 2B61     		str	r3, [r5, #16]
 1182              		.loc 1 735 0
 1183 0032 2B69     		ldr	r3, [r5, #16]
 1184 0034 1C43     		orrs	r4, r4, r3
 1185              	.LVL56:
 1186 0036 2C61     		str	r4, [r5, #16]
 1187              		.loc 1 736 0
 1188 0038 2B69     		ldr	r3, [r5, #16]
 1189 003a 43F40043 		orr	r3, r3, #32768
 1190 003e 2B61     		str	r3, [r5, #16]
 1191              		.loc 1 737 0
 1192 0040 2B69     		ldr	r3, [r5, #16]
 1193 0042 43F48033 		orr	r3, r3, #65536
 1194 0046 2B61     		str	r3, [r5, #16]
 1195              		.loc 1 740 0
 1196 0048 FFF7FEFF 		bl	FLASH_WaitForLastOperation
 1197              	.LVL57:
ARM GAS  /tmp/ccs5Nv5k.s 			page 22


 1198              		.loc 1 743 0
 1199 004c 2B69     		ldr	r3, [r5, #16]
 1200 004e 23F40043 		bic	r3, r3, #32768
 1201 0052 2B61     		str	r3, [r5, #16]
 1202              		.loc 1 748 0
 1203 0054 38BD     		pop	{r3, r4, r5, pc}
 1204              	.L149:
 1205 0056 00BF     		.align	2
 1206              	.L148:
 1207 0058 003C0240 		.word	1073888256
 1208              		.cfi_endproc
 1209              	.LFE123:
 1210              		.size	FLASH_EraseAllBank2Sectors, .-FLASH_EraseAllBank2Sectors
 1211              		.section	.text.FLASH_ProgramDoubleWord,"ax",%progbits
 1212              		.align	2
 1213              		.p2align 4,,15
 1214              		.global	FLASH_ProgramDoubleWord
 1215              		.thumb
 1216              		.thumb_func
 1217              		.type	FLASH_ProgramDoubleWord, %function
 1218              	FLASH_ProgramDoubleWord:
 1219              	.LFB124:
 1220              		.loc 1 764 0
 1221              		.cfi_startproc
 1222              		@ args = 0, pretend = 0, frame = 0
 1223              		@ frame_needed = 0, uses_anonymous_args = 0
 1224              	.LVL58:
 1225 0000 F8B5     		push	{r3, r4, r5, r6, r7, lr}
 1226              		.cfi_def_cfa_offset 24
 1227              		.cfi_offset 3, -24
 1228              		.cfi_offset 4, -20
 1229              		.cfi_offset 5, -16
 1230              		.cfi_offset 6, -12
 1231              		.cfi_offset 7, -8
 1232              		.cfi_offset 14, -4
 1233              		.loc 1 764 0
 1234 0002 0546     		mov	r5, r0
 1235 0004 1646     		mov	r6, r2
 1236 0006 1F46     		mov	r7, r3
 1237              		.loc 1 771 0
 1238 0008 FFF7FEFF 		bl	FLASH_WaitForLastOperation
 1239              	.LVL59:
 1240              		.loc 1 773 0
 1241 000c 0928     		cmp	r0, #9
 1242 000e 00D0     		beq	.L153
 1243              		.loc 1 790 0
 1244 0010 F8BD     		pop	{r3, r4, r5, r6, r7, pc}
 1245              	.LVL60:
 1246              	.L153:
 1247              		.loc 1 776 0
 1248 0012 0B4C     		ldr	r4, .L154
 1249 0014 2369     		ldr	r3, [r4, #16]
 1250 0016 23F44073 		bic	r3, r3, #768
 1251 001a 2361     		str	r3, [r4, #16]
 1252              		.loc 1 777 0
 1253 001c 2369     		ldr	r3, [r4, #16]
 1254 001e 43F44073 		orr	r3, r3, #768
ARM GAS  /tmp/ccs5Nv5k.s 			page 23


 1255 0022 2361     		str	r3, [r4, #16]
 1256              		.loc 1 778 0
 1257 0024 2369     		ldr	r3, [r4, #16]
 1258 0026 43F00103 		orr	r3, r3, #1
 1259 002a 2361     		str	r3, [r4, #16]
 1260              		.loc 1 780 0
 1261 002c C5E90067 		strd	r6, [r5]
 1262              		.loc 1 783 0
 1263 0030 FFF7FEFF 		bl	FLASH_WaitForLastOperation
 1264              	.LVL61:
 1265              		.loc 1 786 0
 1266 0034 2369     		ldr	r3, [r4, #16]
 1267 0036 23F00103 		bic	r3, r3, #1
 1268 003a 2361     		str	r3, [r4, #16]
 1269              		.loc 1 790 0
 1270 003c F8BD     		pop	{r3, r4, r5, r6, r7, pc}
 1271              	.LVL62:
 1272              	.L155:
 1273 003e 00BF     		.align	2
 1274              	.L154:
 1275 0040 003C0240 		.word	1073888256
 1276              		.cfi_endproc
 1277              	.LFE124:
 1278              		.size	FLASH_ProgramDoubleWord, .-FLASH_ProgramDoubleWord
 1279              		.section	.text.FLASH_ProgramWord,"ax",%progbits
 1280              		.align	2
 1281              		.p2align 4,,15
 1282              		.global	FLASH_ProgramWord
 1283              		.thumb
 1284              		.thumb_func
 1285              		.type	FLASH_ProgramWord, %function
 1286              	FLASH_ProgramWord:
 1287              	.LFB125:
 1288              		.loc 1 807 0
 1289              		.cfi_startproc
 1290              		@ args = 0, pretend = 0, frame = 0
 1291              		@ frame_needed = 0, uses_anonymous_args = 0
 1292              	.LVL63:
 1293 0000 70B5     		push	{r4, r5, r6, lr}
 1294              		.cfi_def_cfa_offset 16
 1295              		.cfi_offset 4, -16
 1296              		.cfi_offset 5, -12
 1297              		.cfi_offset 6, -8
 1298              		.cfi_offset 14, -4
 1299              		.loc 1 807 0
 1300 0002 0546     		mov	r5, r0
 1301 0004 0E46     		mov	r6, r1
 1302              		.loc 1 814 0
 1303 0006 FFF7FEFF 		bl	FLASH_WaitForLastOperation
 1304              	.LVL64:
 1305              		.loc 1 816 0
 1306 000a 0928     		cmp	r0, #9
 1307 000c 00D0     		beq	.L159
 1308              		.loc 1 833 0
 1309 000e 70BD     		pop	{r4, r5, r6, pc}
 1310              	.LVL65:
 1311              	.L159:
ARM GAS  /tmp/ccs5Nv5k.s 			page 24


 1312              		.loc 1 819 0
 1313 0010 0A4C     		ldr	r4, .L160
 1314 0012 2369     		ldr	r3, [r4, #16]
 1315 0014 23F44073 		bic	r3, r3, #768
 1316 0018 2361     		str	r3, [r4, #16]
 1317              		.loc 1 820 0
 1318 001a 2369     		ldr	r3, [r4, #16]
 1319 001c 43F40073 		orr	r3, r3, #512
 1320 0020 2361     		str	r3, [r4, #16]
 1321              		.loc 1 821 0
 1322 0022 2369     		ldr	r3, [r4, #16]
 1323 0024 43F00103 		orr	r3, r3, #1
 1324 0028 2361     		str	r3, [r4, #16]
 1325              		.loc 1 823 0
 1326 002a 2E60     		str	r6, [r5]
 1327              		.loc 1 826 0
 1328 002c FFF7FEFF 		bl	FLASH_WaitForLastOperation
 1329              	.LVL66:
 1330              		.loc 1 829 0
 1331 0030 2369     		ldr	r3, [r4, #16]
 1332 0032 23F00103 		bic	r3, r3, #1
 1333 0036 2361     		str	r3, [r4, #16]
 1334              		.loc 1 833 0
 1335 0038 70BD     		pop	{r4, r5, r6, pc}
 1336              	.LVL67:
 1337              	.L161:
 1338 003a 00BF     		.align	2
 1339              	.L160:
 1340 003c 003C0240 		.word	1073888256
 1341              		.cfi_endproc
 1342              	.LFE125:
 1343              		.size	FLASH_ProgramWord, .-FLASH_ProgramWord
 1344              		.section	.text.FLASH_ProgramHalfWord,"ax",%progbits
 1345              		.align	2
 1346              		.p2align 4,,15
 1347              		.global	FLASH_ProgramHalfWord
 1348              		.thumb
 1349              		.thumb_func
 1350              		.type	FLASH_ProgramHalfWord, %function
 1351              	FLASH_ProgramHalfWord:
 1352              	.LFB126:
 1353              		.loc 1 849 0
 1354              		.cfi_startproc
 1355              		@ args = 0, pretend = 0, frame = 0
 1356              		@ frame_needed = 0, uses_anonymous_args = 0
 1357              	.LVL68:
 1358 0000 70B5     		push	{r4, r5, r6, lr}
 1359              		.cfi_def_cfa_offset 16
 1360              		.cfi_offset 4, -16
 1361              		.cfi_offset 5, -12
 1362              		.cfi_offset 6, -8
 1363              		.cfi_offset 14, -4
 1364              		.loc 1 849 0
 1365 0002 0546     		mov	r5, r0
 1366 0004 0E46     		mov	r6, r1
 1367              		.loc 1 856 0
 1368 0006 FFF7FEFF 		bl	FLASH_WaitForLastOperation
ARM GAS  /tmp/ccs5Nv5k.s 			page 25


 1369              	.LVL69:
 1370              		.loc 1 858 0
 1371 000a 0928     		cmp	r0, #9
 1372 000c 00D0     		beq	.L165
 1373              		.loc 1 875 0
 1374 000e 70BD     		pop	{r4, r5, r6, pc}
 1375              	.LVL70:
 1376              	.L165:
 1377              		.loc 1 861 0
 1378 0010 0A4C     		ldr	r4, .L166
 1379 0012 2369     		ldr	r3, [r4, #16]
 1380 0014 23F44073 		bic	r3, r3, #768
 1381 0018 2361     		str	r3, [r4, #16]
 1382              		.loc 1 862 0
 1383 001a 2369     		ldr	r3, [r4, #16]
 1384 001c 43F48073 		orr	r3, r3, #256
 1385 0020 2361     		str	r3, [r4, #16]
 1386              		.loc 1 863 0
 1387 0022 2369     		ldr	r3, [r4, #16]
 1388 0024 43F00103 		orr	r3, r3, #1
 1389 0028 2361     		str	r3, [r4, #16]
 1390              		.loc 1 865 0
 1391 002a 2E80     		strh	r6, [r5]	@ movhi
 1392              		.loc 1 868 0
 1393 002c FFF7FEFF 		bl	FLASH_WaitForLastOperation
 1394              	.LVL71:
 1395              		.loc 1 871 0
 1396 0030 2369     		ldr	r3, [r4, #16]
 1397 0032 23F00103 		bic	r3, r3, #1
 1398 0036 2361     		str	r3, [r4, #16]
 1399              		.loc 1 875 0
 1400 0038 70BD     		pop	{r4, r5, r6, pc}
 1401              	.LVL72:
 1402              	.L167:
 1403 003a 00BF     		.align	2
 1404              	.L166:
 1405 003c 003C0240 		.word	1073888256
 1406              		.cfi_endproc
 1407              	.LFE126:
 1408              		.size	FLASH_ProgramHalfWord, .-FLASH_ProgramHalfWord
 1409              		.section	.text.FLASH_ProgramByte,"ax",%progbits
 1410              		.align	2
 1411              		.p2align 4,,15
 1412              		.global	FLASH_ProgramByte
 1413              		.thumb
 1414              		.thumb_func
 1415              		.type	FLASH_ProgramByte, %function
 1416              	FLASH_ProgramByte:
 1417              	.LFB127:
 1418              		.loc 1 891 0
 1419              		.cfi_startproc
 1420              		@ args = 0, pretend = 0, frame = 0
 1421              		@ frame_needed = 0, uses_anonymous_args = 0
 1422              	.LVL73:
 1423 0000 70B5     		push	{r4, r5, r6, lr}
 1424              		.cfi_def_cfa_offset 16
 1425              		.cfi_offset 4, -16
ARM GAS  /tmp/ccs5Nv5k.s 			page 26


 1426              		.cfi_offset 5, -12
 1427              		.cfi_offset 6, -8
 1428              		.cfi_offset 14, -4
 1429              		.loc 1 891 0
 1430 0002 0546     		mov	r5, r0
 1431 0004 0E46     		mov	r6, r1
 1432              		.loc 1 898 0
 1433 0006 FFF7FEFF 		bl	FLASH_WaitForLastOperation
 1434              	.LVL74:
 1435              		.loc 1 900 0
 1436 000a 0928     		cmp	r0, #9
 1437 000c 00D0     		beq	.L171
 1438              		.loc 1 918 0
 1439 000e 70BD     		pop	{r4, r5, r6, pc}
 1440              	.LVL75:
 1441              	.L171:
 1442              		.loc 1 903 0
 1443 0010 094C     		ldr	r4, .L172
 1444 0012 2369     		ldr	r3, [r4, #16]
 1445 0014 23F44073 		bic	r3, r3, #768
 1446 0018 2361     		str	r3, [r4, #16]
 1447              		.loc 1 904 0
 1448 001a 2369     		ldr	r3, [r4, #16]
 1449 001c 2361     		str	r3, [r4, #16]
 1450              		.loc 1 905 0
 1451 001e 2369     		ldr	r3, [r4, #16]
 1452 0020 43F00103 		orr	r3, r3, #1
 1453 0024 2361     		str	r3, [r4, #16]
 1454              		.loc 1 907 0
 1455 0026 2E70     		strb	r6, [r5]
 1456              		.loc 1 910 0
 1457 0028 FFF7FEFF 		bl	FLASH_WaitForLastOperation
 1458              	.LVL76:
 1459              		.loc 1 913 0
 1460 002c 2369     		ldr	r3, [r4, #16]
 1461 002e 23F00103 		bic	r3, r3, #1
 1462 0032 2361     		str	r3, [r4, #16]
 1463              		.loc 1 918 0
 1464 0034 70BD     		pop	{r4, r5, r6, pc}
 1465              	.LVL77:
 1466              	.L173:
 1467 0036 00BF     		.align	2
 1468              	.L172:
 1469 0038 003C0240 		.word	1073888256
 1470              		.cfi_endproc
 1471              	.LFE127:
 1472              		.size	FLASH_ProgramByte, .-FLASH_ProgramByte
 1473              		.section	.text.FLASH_OB_WRPConfig,"ax",%progbits
 1474              		.align	2
 1475              		.p2align 4,,15
 1476              		.global	FLASH_OB_WRPConfig
 1477              		.thumb
 1478              		.thumb_func
 1479              		.type	FLASH_OB_WRPConfig, %function
 1480              	FLASH_OB_WRPConfig:
 1481              	.LFB130:
 1482              		.loc 1 1028 0
ARM GAS  /tmp/ccs5Nv5k.s 			page 27


 1483              		.cfi_startproc
 1484              		@ args = 0, pretend = 0, frame = 0
 1485              		@ frame_needed = 0, uses_anonymous_args = 0
 1486              	.LVL78:
 1487 0000 38B5     		push	{r3, r4, r5, lr}
 1488              		.cfi_def_cfa_offset 16
 1489              		.cfi_offset 3, -16
 1490              		.cfi_offset 4, -12
 1491              		.cfi_offset 5, -8
 1492              		.cfi_offset 14, -4
 1493              		.loc 1 1028 0
 1494 0002 0546     		mov	r5, r0
 1495 0004 0C46     		mov	r4, r1
 1496              		.loc 1 1035 0
 1497 0006 FFF7FEFF 		bl	FLASH_WaitForLastOperation
 1498              	.LVL79:
 1499              		.loc 1 1037 0
 1500 000a 0928     		cmp	r0, #9
 1501 000c 00D0     		beq	.L178
 1502 000e 38BD     		pop	{r3, r4, r5, pc}
 1503              	.LVL80:
 1504              	.L178:
 1505              		.loc 1 1041 0
 1506 0010 054B     		ldr	r3, .L180
 1507 0012 1888     		ldrh	r0, [r3]
 1508              	.LVL81:
 1509              		.loc 1 1039 0
 1510 0014 1CB9     		cbnz	r4, .L179
 1511              		.loc 1 1045 0
 1512 0016 2843     		orrs	r0, r0, r5
 1513 0018 80B2     		uxth	r0, r0
 1514 001a 1880     		strh	r0, [r3]	@ movhi
 1515 001c 38BD     		pop	{r3, r4, r5, pc}
 1516              	.LVL82:
 1517              	.L179:
 1518              		.loc 1 1041 0
 1519 001e 80B2     		uxth	r0, r0
 1520 0020 20EA0500 		bic	r0, r0, r5
 1521 0024 1880     		strh	r0, [r3]	@ movhi
 1522 0026 38BD     		pop	{r3, r4, r5, pc}
 1523              	.LVL83:
 1524              	.L181:
 1525              		.align	2
 1526              	.L180:
 1527 0028 163C0240 		.word	1073888278
 1528              		.cfi_endproc
 1529              	.LFE130:
 1530              		.size	FLASH_OB_WRPConfig, .-FLASH_OB_WRPConfig
 1531              		.section	.text.FLASH_OB_WRP1Config,"ax",%progbits
 1532              		.align	2
 1533              		.p2align 4,,15
 1534              		.global	FLASH_OB_WRP1Config
 1535              		.thumb
 1536              		.thumb_func
 1537              		.type	FLASH_OB_WRP1Config, %function
 1538              	FLASH_OB_WRP1Config:
 1539              	.LFB131:
ARM GAS  /tmp/ccs5Nv5k.s 			page 28


 1540              		.loc 1 1070 0
 1541              		.cfi_startproc
 1542              		@ args = 0, pretend = 0, frame = 0
 1543              		@ frame_needed = 0, uses_anonymous_args = 0
 1544              	.LVL84:
 1545 0000 38B5     		push	{r3, r4, r5, lr}
 1546              		.cfi_def_cfa_offset 16
 1547              		.cfi_offset 3, -16
 1548              		.cfi_offset 4, -12
 1549              		.cfi_offset 5, -8
 1550              		.cfi_offset 14, -4
 1551              		.loc 1 1070 0
 1552 0002 0546     		mov	r5, r0
 1553 0004 0C46     		mov	r4, r1
 1554              		.loc 1 1077 0
 1555 0006 FFF7FEFF 		bl	FLASH_WaitForLastOperation
 1556              	.LVL85:
 1557              		.loc 1 1079 0
 1558 000a 0928     		cmp	r0, #9
 1559 000c 00D0     		beq	.L186
 1560 000e 38BD     		pop	{r3, r4, r5, pc}
 1561              	.LVL86:
 1562              	.L186:
 1563              		.loc 1 1083 0
 1564 0010 054B     		ldr	r3, .L188
 1565 0012 1888     		ldrh	r0, [r3]
 1566              	.LVL87:
 1567              		.loc 1 1081 0
 1568 0014 1CB9     		cbnz	r4, .L187
 1569              		.loc 1 1087 0
 1570 0016 2843     		orrs	r0, r0, r5
 1571 0018 80B2     		uxth	r0, r0
 1572 001a 1880     		strh	r0, [r3]	@ movhi
 1573 001c 38BD     		pop	{r3, r4, r5, pc}
 1574              	.LVL88:
 1575              	.L187:
 1576              		.loc 1 1083 0
 1577 001e 80B2     		uxth	r0, r0
 1578 0020 20EA0500 		bic	r0, r0, r5
 1579 0024 1880     		strh	r0, [r3]	@ movhi
 1580 0026 38BD     		pop	{r3, r4, r5, pc}
 1581              	.LVL89:
 1582              	.L189:
 1583              		.align	2
 1584              	.L188:
 1585 0028 1A3C0240 		.word	1073888282
 1586              		.cfi_endproc
 1587              	.LFE131:
 1588              		.size	FLASH_OB_WRP1Config, .-FLASH_OB_WRP1Config
 1589              		.section	.text.FLASH_OB_PCROPConfig,"ax",%progbits
 1590              		.align	2
 1591              		.p2align 4,,15
 1592              		.global	FLASH_OB_PCROPConfig
 1593              		.thumb
 1594              		.thumb_func
 1595              		.type	FLASH_OB_PCROPConfig, %function
 1596              	FLASH_OB_PCROPConfig:
ARM GAS  /tmp/ccs5Nv5k.s 			page 29


 1597              	.LFB133:
 1598              		.loc 1 1150 0
 1599              		.cfi_startproc
 1600              		@ args = 0, pretend = 0, frame = 0
 1601              		@ frame_needed = 0, uses_anonymous_args = 0
 1602              	.LVL90:
 1603 0000 38B5     		push	{r3, r4, r5, lr}
 1604              		.cfi_def_cfa_offset 16
 1605              		.cfi_offset 3, -16
 1606              		.cfi_offset 4, -12
 1607              		.cfi_offset 5, -8
 1608              		.cfi_offset 14, -4
 1609              		.loc 1 1150 0
 1610 0002 0546     		mov	r5, r0
 1611 0004 0C46     		mov	r4, r1
 1612              		.loc 1 1157 0
 1613 0006 FFF7FEFF 		bl	FLASH_WaitForLastOperation
 1614              	.LVL91:
 1615              		.loc 1 1159 0
 1616 000a 0928     		cmp	r0, #9
 1617 000c 00D0     		beq	.L194
 1618 000e 38BD     		pop	{r3, r4, r5, pc}
 1619              	.LVL92:
 1620              	.L194:
 1621              		.loc 1 1163 0
 1622 0010 054B     		ldr	r3, .L196
 1623 0012 1888     		ldrh	r0, [r3]
 1624              	.LVL93:
 1625              		.loc 1 1161 0
 1626 0014 24B9     		cbnz	r4, .L195
 1627              		.loc 1 1167 0
 1628 0016 80B2     		uxth	r0, r0
 1629 0018 20EA0500 		bic	r0, r0, r5
 1630 001c 1880     		strh	r0, [r3]	@ movhi
 1631 001e 38BD     		pop	{r3, r4, r5, pc}
 1632              	.LVL94:
 1633              	.L195:
 1634              		.loc 1 1163 0
 1635 0020 2843     		orrs	r0, r0, r5
 1636 0022 80B2     		uxth	r0, r0
 1637 0024 1880     		strh	r0, [r3]	@ movhi
 1638 0026 38BD     		pop	{r3, r4, r5, pc}
 1639              	.LVL95:
 1640              	.L197:
 1641              		.align	2
 1642              	.L196:
 1643 0028 163C0240 		.word	1073888278
 1644              		.cfi_endproc
 1645              	.LFE133:
 1646              		.size	FLASH_OB_PCROPConfig, .-FLASH_OB_PCROPConfig
 1647              		.section	.text.FLASH_OB_PCROP1Config,"ax",%progbits
 1648              		.align	2
 1649              		.p2align 4,,15
 1650              		.global	FLASH_OB_PCROP1Config
 1651              		.thumb
 1652              		.thumb_func
 1653              		.type	FLASH_OB_PCROP1Config, %function
ARM GAS  /tmp/ccs5Nv5k.s 			page 30


 1654              	FLASH_OB_PCROP1Config:
 1655              	.LFB134:
 1656              		.loc 1 1187 0
 1657              		.cfi_startproc
 1658              		@ args = 0, pretend = 0, frame = 0
 1659              		@ frame_needed = 0, uses_anonymous_args = 0
 1660              	.LVL96:
 1661 0000 38B5     		push	{r3, r4, r5, lr}
 1662              		.cfi_def_cfa_offset 16
 1663              		.cfi_offset 3, -16
 1664              		.cfi_offset 4, -12
 1665              		.cfi_offset 5, -8
 1666              		.cfi_offset 14, -4
 1667              		.loc 1 1187 0
 1668 0002 0546     		mov	r5, r0
 1669 0004 0C46     		mov	r4, r1
 1670              		.loc 1 1194 0
 1671 0006 FFF7FEFF 		bl	FLASH_WaitForLastOperation
 1672              	.LVL97:
 1673              		.loc 1 1196 0
 1674 000a 0928     		cmp	r0, #9
 1675 000c 00D0     		beq	.L202
 1676 000e 38BD     		pop	{r3, r4, r5, pc}
 1677              	.LVL98:
 1678              	.L202:
 1679              		.loc 1 1200 0
 1680 0010 054B     		ldr	r3, .L204
 1681 0012 1888     		ldrh	r0, [r3]
 1682              	.LVL99:
 1683              		.loc 1 1198 0
 1684 0014 24B9     		cbnz	r4, .L203
 1685              		.loc 1 1204 0
 1686 0016 80B2     		uxth	r0, r0
 1687 0018 20EA0500 		bic	r0, r0, r5
 1688 001c 1880     		strh	r0, [r3]	@ movhi
 1689 001e 38BD     		pop	{r3, r4, r5, pc}
 1690              	.LVL100:
 1691              	.L203:
 1692              		.loc 1 1200 0
 1693 0020 2843     		orrs	r0, r0, r5
 1694 0022 80B2     		uxth	r0, r0
 1695 0024 1880     		strh	r0, [r3]	@ movhi
 1696 0026 38BD     		pop	{r3, r4, r5, pc}
 1697              	.LVL101:
 1698              	.L205:
 1699              		.align	2
 1700              	.L204:
 1701 0028 1A3C0240 		.word	1073888282
 1702              		.cfi_endproc
 1703              	.LFE134:
 1704              		.size	FLASH_OB_PCROP1Config, .-FLASH_OB_PCROP1Config
 1705              		.section	.text.FLASH_OB_RDPConfig,"ax",%progbits
 1706              		.align	2
 1707              		.p2align 4,,15
 1708              		.global	FLASH_OB_RDPConfig
 1709              		.thumb
 1710              		.thumb_func
ARM GAS  /tmp/ccs5Nv5k.s 			page 31


 1711              		.type	FLASH_OB_RDPConfig, %function
 1712              	FLASH_OB_RDPConfig:
 1713              	.LFB135:
 1714              		.loc 1 1223 0
 1715              		.cfi_startproc
 1716              		@ args = 0, pretend = 0, frame = 0
 1717              		@ frame_needed = 0, uses_anonymous_args = 0
 1718              	.LVL102:
 1719 0000 10B5     		push	{r4, lr}
 1720              		.cfi_def_cfa_offset 8
 1721              		.cfi_offset 4, -8
 1722              		.cfi_offset 14, -4
 1723              		.loc 1 1223 0
 1724 0002 0446     		mov	r4, r0
 1725              		.loc 1 1229 0
 1726 0004 FFF7FEFF 		bl	FLASH_WaitForLastOperation
 1727              	.LVL103:
 1728              		.loc 1 1231 0
 1729 0008 0928     		cmp	r0, #9
 1730              		.loc 1 1233 0
 1731 000a 04BF     		itt	eq
 1732 000c 014B     		ldreq	r3, .L209
 1733 000e 1C70     		strbeq	r4, [r3]
 1734 0010 10BD     		pop	{r4, pc}
 1735              	.L210:
 1736 0012 00BF     		.align	2
 1737              	.L209:
 1738 0014 153C0240 		.word	1073888277
 1739              		.cfi_endproc
 1740              	.LFE135:
 1741              		.size	FLASH_OB_RDPConfig, .-FLASH_OB_RDPConfig
 1742              		.section	.text.FLASH_OB_UserConfig,"ax",%progbits
 1743              		.align	2
 1744              		.p2align 4,,15
 1745              		.global	FLASH_OB_UserConfig
 1746              		.thumb
 1747              		.thumb_func
 1748              		.type	FLASH_OB_UserConfig, %function
 1749              	FLASH_OB_UserConfig:
 1750              	.LFB136:
 1751              		.loc 1 1255 0
 1752              		.cfi_startproc
 1753              		@ args = 0, pretend = 0, frame = 0
 1754              		@ frame_needed = 0, uses_anonymous_args = 0
 1755              	.LVL104:
 1756 0000 70B5     		push	{r4, r5, r6, lr}
 1757              		.cfi_def_cfa_offset 16
 1758              		.cfi_offset 4, -16
 1759              		.cfi_offset 5, -12
 1760              		.cfi_offset 6, -8
 1761              		.cfi_offset 14, -4
 1762              		.loc 1 1255 0
 1763 0002 0646     		mov	r6, r0
 1764 0004 0C46     		mov	r4, r1
 1765 0006 1546     		mov	r5, r2
 1766              		.loc 1 1265 0
 1767 0008 FFF7FEFF 		bl	FLASH_WaitForLastOperation
ARM GAS  /tmp/ccs5Nv5k.s 			page 32


 1768              	.LVL105:
 1769              		.loc 1 1267 0
 1770 000c 0928     		cmp	r0, #9
 1771 000e 07D1     		bne	.L211
 1772              		.loc 1 1276 0
 1773 0010 044B     		ldr	r3, .L214
 1774 0012 1978     		ldrb	r1, [r3]	@ zero_extendqisi2
 1775              	.LVL106:
 1776 0014 01F00F01 		and	r1, r1, #15
 1777              	.LVL107:
 1778 0018 3143     		orrs	r1, r1, r6
 1779 001a 2943     		orrs	r1, r1, r5
 1780              		.loc 1 1280 0
 1781 001c 2143     		orrs	r1, r1, r4
 1782 001e 1970     		strb	r1, [r3]
 1783              	.L211:
 1784 0020 70BD     		pop	{r4, r5, r6, pc}
 1785              	.L215:
 1786 0022 00BF     		.align	2
 1787              	.L214:
 1788 0024 143C0240 		.word	1073888276
 1789              		.cfi_endproc
 1790              	.LFE136:
 1791              		.size	FLASH_OB_UserConfig, .-FLASH_OB_UserConfig
 1792              		.section	.text.FLASH_OB_Launch,"ax",%progbits
 1793              		.align	2
 1794              		.p2align 4,,15
 1795              		.global	FLASH_OB_Launch
 1796              		.thumb
 1797              		.thumb_func
 1798              		.type	FLASH_OB_Launch, %function
 1799              	FLASH_OB_Launch:
 1800              	.LFB139:
 1801              		.loc 1 1334 0
 1802              		.cfi_startproc
 1803              		@ args = 0, pretend = 0, frame = 0
 1804              		@ frame_needed = 0, uses_anonymous_args = 0
 1805              		@ link register save eliminated.
 1806              	.LVL108:
 1807              		.loc 1 1338 0
 1808 0000 034A     		ldr	r2, .L217
 1809 0002 1378     		ldrb	r3, [r2]	@ zero_extendqisi2
 1810 0004 43F00203 		orr	r3, r3, #2
 1811 0008 1370     		strb	r3, [r2]
 1812              		.loc 1 1341 0
 1813 000a FFF7FEBF 		b	FLASH_WaitForLastOperation
 1814              	.LVL109:
 1815              	.L218:
 1816 000e 00BF     		.align	2
 1817              	.L217:
 1818 0010 143C0240 		.word	1073888276
 1819              		.cfi_endproc
 1820              	.LFE139:
 1821              		.size	FLASH_OB_Launch, .-FLASH_OB_Launch
 1822              		.text
 1823              	.Letext0:
 1824              		.file 2 "/usr/arm-none-eabi/include/machine/_default_types.h"
ARM GAS  /tmp/ccs5Nv5k.s 			page 33


 1825              		.file 3 "/usr/arm-none-eabi/include/sys/_stdint.h"
 1826              		.file 4 "ChibiOS_3.0.2/os/ext/CMSIS/ST/stm32f407xx.h"
 1827              		.file 5 "ChibiOS_3.0.2/os/ext/CMSIS/ST/stm32f4xx.h"
 1828              		.file 6 "ChibiOS_3.0.2/ext/stdperiph_stm32f4/inc/stm32f4xx_flash.h"
 1829              		.file 7 "ChibiOS_3.0.2/os/ext/CMSIS/include/core_cm4.h"
 1830              		.section	.debug_info,"",%progbits
 1831              	.Ldebug_info0:
 1832 0000 5B0A0000 		.4byte	0xa5b
 1833 0004 0400     		.2byte	0x4
 1834 0006 00000000 		.4byte	.Ldebug_abbrev0
 1835 000a 04       		.byte	0x4
 1836 000b 01       		.uleb128 0x1
 1837 000c 17060000 		.4byte	.LASF101
 1838 0010 01       		.byte	0x1
 1839 0011 06030000 		.4byte	.LASF102
 1840 0015 50010000 		.4byte	.LASF103
 1841 0019 00000000 		.4byte	.Ldebug_ranges0+0
 1842 001d 00000000 		.4byte	0
 1843 0021 00000000 		.4byte	.Ldebug_line0
 1844 0025 02       		.uleb128 0x2
 1845 0026 08       		.byte	0x8
 1846 0027 07       		.byte	0x7
 1847 0028 88030000 		.4byte	.LASF0
 1848 002c 02       		.uleb128 0x2
 1849 002d 01       		.byte	0x1
 1850 002e 06       		.byte	0x6
 1851 002f 68030000 		.4byte	.LASF1
 1852 0033 03       		.uleb128 0x3
 1853 0034 68020000 		.4byte	.LASF4
 1854 0038 02       		.byte	0x2
 1855 0039 1D       		.byte	0x1d
 1856 003a 3E000000 		.4byte	0x3e
 1857 003e 02       		.uleb128 0x2
 1858 003f 01       		.byte	0x1
 1859 0040 08       		.byte	0x8
 1860 0041 ED020000 		.4byte	.LASF2
 1861 0045 02       		.uleb128 0x2
 1862 0046 02       		.byte	0x2
 1863 0047 05       		.byte	0x5
 1864 0048 92010000 		.4byte	.LASF3
 1865 004c 03       		.uleb128 0x3
 1866 004d CB000000 		.4byte	.LASF5
 1867 0051 02       		.byte	0x2
 1868 0052 2B       		.byte	0x2b
 1869 0053 57000000 		.4byte	0x57
 1870 0057 02       		.uleb128 0x2
 1871 0058 02       		.byte	0x2
 1872 0059 07       		.byte	0x7
 1873 005a 07040000 		.4byte	.LASF6
 1874 005e 03       		.uleb128 0x3
 1875 005f 08050000 		.4byte	.LASF7
 1876 0063 02       		.byte	0x2
 1877 0064 3F       		.byte	0x3f
 1878 0065 69000000 		.4byte	0x69
 1879 0069 02       		.uleb128 0x2
 1880 006a 04       		.byte	0x4
 1881 006b 05       		.byte	0x5
ARM GAS  /tmp/ccs5Nv5k.s 			page 34


 1882 006c 31020000 		.4byte	.LASF8
 1883 0070 03       		.uleb128 0x3
 1884 0071 9F000000 		.4byte	.LASF9
 1885 0075 02       		.byte	0x2
 1886 0076 41       		.byte	0x41
 1887 0077 7B000000 		.4byte	0x7b
 1888 007b 02       		.uleb128 0x2
 1889 007c 04       		.byte	0x4
 1890 007d 07       		.byte	0x7
 1891 007e A1040000 		.4byte	.LASF10
 1892 0082 02       		.uleb128 0x2
 1893 0083 08       		.byte	0x8
 1894 0084 05       		.byte	0x5
 1895 0085 F2010000 		.4byte	.LASF11
 1896 0089 03       		.uleb128 0x3
 1897 008a 96040000 		.4byte	.LASF12
 1898 008e 02       		.byte	0x2
 1899 008f 5B       		.byte	0x5b
 1900 0090 25000000 		.4byte	0x25
 1901 0094 04       		.uleb128 0x4
 1902 0095 04       		.byte	0x4
 1903 0096 05       		.byte	0x5
 1904 0097 696E7400 		.ascii	"int\000"
 1905 009b 02       		.uleb128 0x2
 1906 009c 04       		.byte	0x4
 1907 009d 07       		.byte	0x7
 1908 009e CA030000 		.4byte	.LASF13
 1909 00a2 03       		.uleb128 0x3
 1910 00a3 1D010000 		.4byte	.LASF14
 1911 00a7 03       		.byte	0x3
 1912 00a8 14       		.byte	0x14
 1913 00a9 33000000 		.4byte	0x33
 1914 00ad 03       		.uleb128 0x3
 1915 00ae 4E040000 		.4byte	.LASF15
 1916 00b2 03       		.byte	0x3
 1917 00b3 1A       		.byte	0x1a
 1918 00b4 4C000000 		.4byte	0x4c
 1919 00b8 03       		.uleb128 0x3
 1920 00b9 57040000 		.4byte	.LASF16
 1921 00bd 03       		.byte	0x3
 1922 00be 1F       		.byte	0x1f
 1923 00bf 5E000000 		.4byte	0x5e
 1924 00c3 03       		.uleb128 0x3
 1925 00c4 B1030000 		.4byte	.LASF17
 1926 00c8 03       		.byte	0x3
 1927 00c9 20       		.byte	0x20
 1928 00ca 70000000 		.4byte	0x70
 1929 00ce 03       		.uleb128 0x3
 1930 00cf 44000000 		.4byte	.LASF18
 1931 00d3 03       		.byte	0x3
 1932 00d4 26       		.byte	0x26
 1933 00d5 89000000 		.4byte	0x89
 1934 00d9 02       		.uleb128 0x2
 1935 00da 04       		.byte	0x4
 1936 00db 07       		.byte	0x7
 1937 00dc 68000000 		.4byte	.LASF19
 1938 00e0 05       		.uleb128 0x5
ARM GAS  /tmp/ccs5Nv5k.s 			page 35


 1939 00e1 C3000000 		.4byte	0xc3
 1940 00e5 06       		.uleb128 0x6
 1941 00e6 1C       		.byte	0x1c
 1942 00e7 04       		.byte	0x4
 1943 00e8 DA01     		.2byte	0x1da
 1944 00ea 48010000 		.4byte	0x148
 1945 00ee 07       		.uleb128 0x7
 1946 00ef 41435200 		.ascii	"ACR\000"
 1947 00f3 04       		.byte	0x4
 1948 00f4 DC01     		.2byte	0x1dc
 1949 00f6 E0000000 		.4byte	0xe0
 1950 00fa 00       		.byte	0
 1951 00fb 08       		.uleb128 0x8
 1952 00fc 12060000 		.4byte	.LASF20
 1953 0100 04       		.byte	0x4
 1954 0101 DD01     		.2byte	0x1dd
 1955 0103 E0000000 		.4byte	0xe0
 1956 0107 04       		.byte	0x4
 1957 0108 08       		.uleb128 0x8
 1958 0109 E1010000 		.4byte	.LASF21
 1959 010d 04       		.byte	0x4
 1960 010e DE01     		.2byte	0x1de
 1961 0110 E0000000 		.4byte	0xe0
 1962 0114 08       		.byte	0x8
 1963 0115 07       		.uleb128 0x7
 1964 0116 535200   		.ascii	"SR\000"
 1965 0119 04       		.byte	0x4
 1966 011a DF01     		.2byte	0x1df
 1967 011c E0000000 		.4byte	0xe0
 1968 0120 0C       		.byte	0xc
 1969 0121 07       		.uleb128 0x7
 1970 0122 435200   		.ascii	"CR\000"
 1971 0125 04       		.byte	0x4
 1972 0126 E001     		.2byte	0x1e0
 1973 0128 E0000000 		.4byte	0xe0
 1974 012c 10       		.byte	0x10
 1975 012d 08       		.uleb128 0x8
 1976 012e 44070000 		.4byte	.LASF22
 1977 0132 04       		.byte	0x4
 1978 0133 E101     		.2byte	0x1e1
 1979 0135 E0000000 		.4byte	0xe0
 1980 0139 14       		.byte	0x14
 1981 013a 08       		.uleb128 0x8
 1982 013b B1020000 		.4byte	.LASF23
 1983 013f 04       		.byte	0x4
 1984 0140 E201     		.2byte	0x1e2
 1985 0142 E0000000 		.4byte	0xe0
 1986 0146 18       		.byte	0x18
 1987 0147 00       		.byte	0
 1988 0148 09       		.uleb128 0x9
 1989 0149 A6050000 		.4byte	.LASF24
 1990 014d 04       		.byte	0x4
 1991 014e E301     		.2byte	0x1e3
 1992 0150 E5000000 		.4byte	0xe5
 1993 0154 0A       		.uleb128 0xa
 1994 0155 01       		.byte	0x1
 1995 0156 05       		.byte	0x5
ARM GAS  /tmp/ccs5Nv5k.s 			page 36


 1996 0157 A2       		.byte	0xa2
 1997 0158 69010000 		.4byte	0x169
 1998 015c 0B       		.uleb128 0xb
 1999 015d 90040000 		.4byte	.LASF25
 2000 0161 00       		.sleb128 0
 2001 0162 0C       		.uleb128 0xc
 2002 0163 53455400 		.ascii	"SET\000"
 2003 0167 01       		.sleb128 1
 2004 0168 00       		.byte	0
 2005 0169 03       		.uleb128 0x3
 2006 016a C0000000 		.4byte	.LASF26
 2007 016e 05       		.byte	0x5
 2008 016f A5       		.byte	0xa5
 2009 0170 54010000 		.4byte	0x154
 2010 0174 0A       		.uleb128 0xa
 2011 0175 01       		.byte	0x1
 2012 0176 05       		.byte	0x5
 2013 0177 A8       		.byte	0xa8
 2014 0178 89010000 		.4byte	0x189
 2015 017c 0B       		.uleb128 0xb
 2016 017d 8A010000 		.4byte	.LASF27
 2017 0181 00       		.sleb128 0
 2018 0182 0B       		.uleb128 0xb
 2019 0183 4A070000 		.4byte	.LASF28
 2020 0187 01       		.sleb128 1
 2021 0188 00       		.byte	0
 2022 0189 03       		.uleb128 0x3
 2023 018a DE040000 		.4byte	.LASF29
 2024 018e 05       		.byte	0x5
 2025 018f AB       		.byte	0xab
 2026 0190 74010000 		.4byte	0x174
 2027 0194 0A       		.uleb128 0xa
 2028 0195 01       		.byte	0x1
 2029 0196 06       		.byte	0x6
 2030 0197 35       		.byte	0x35
 2031 0198 D3010000 		.4byte	0x1d3
 2032 019c 0B       		.uleb128 0xb
 2033 019d E6030000 		.4byte	.LASF30
 2034 01a1 01       		.sleb128 1
 2035 01a2 0B       		.uleb128 0xb
 2036 01a3 61070000 		.4byte	.LASF31
 2037 01a7 02       		.sleb128 2
 2038 01a8 0B       		.uleb128 0xb
 2039 01a9 96050000 		.4byte	.LASF32
 2040 01ad 03       		.sleb128 3
 2041 01ae 0B       		.uleb128 0xb
 2042 01af 02060000 		.4byte	.LASF33
 2043 01b3 04       		.sleb128 4
 2044 01b4 0B       		.uleb128 0xb
 2045 01b5 CE040000 		.4byte	.LASF34
 2046 01b9 05       		.sleb128 5
 2047 01ba 0B       		.uleb128 0xb
 2048 01bb 34000000 		.4byte	.LASF35
 2049 01bf 06       		.sleb128 6
 2050 01c0 0B       		.uleb128 0xb
 2051 01c1 46050000 		.4byte	.LASF36
 2052 01c5 07       		.sleb128 7
ARM GAS  /tmp/ccs5Nv5k.s 			page 37


 2053 01c6 0B       		.uleb128 0xb
 2054 01c7 52020000 		.4byte	.LASF37
 2055 01cb 08       		.sleb128 8
 2056 01cc 0B       		.uleb128 0xb
 2057 01cd D7030000 		.4byte	.LASF38
 2058 01d1 09       		.sleb128 9
 2059 01d2 00       		.byte	0
 2060 01d3 03       		.uleb128 0x3
 2061 01d4 25010000 		.4byte	.LASF39
 2062 01d8 06       		.byte	0x6
 2063 01d9 3F       		.byte	0x3f
 2064 01da 94010000 		.4byte	0x194
 2065 01de 0D       		.uleb128 0xd
 2066 01df 5F040000 		.4byte	.LASF104
 2067 01e3 01       		.byte	0x1
 2068 01e4 0D06     		.2byte	0x60d
 2069 01e6 D3010000 		.4byte	0x1d3
 2070 01ea 01       		.byte	0x1
 2071 01eb FC010000 		.4byte	0x1fc
 2072 01ef 0E       		.uleb128 0xe
 2073 01f0 72020000 		.4byte	.LASF105
 2074 01f4 01       		.byte	0x1
 2075 01f5 0F06     		.2byte	0x60f
 2076 01f7 D3010000 		.4byte	0x1d3
 2077 01fb 00       		.byte	0
 2078 01fc 0F       		.uleb128 0xf
 2079 01fd 7F040000 		.4byte	.LASF40
 2080 0201 01       		.byte	0x1
 2081 0202 2701     		.2byte	0x127
 2082 0204 00000000 		.4byte	.LFB112
 2083 0208 0C000000 		.4byte	.LFE112-.LFB112
 2084 020c 01       		.uleb128 0x1
 2085 020d 9C       		.byte	0x9c
 2086 020e 23020000 		.4byte	0x223
 2087 0212 10       		.uleb128 0x10
 2088 0213 38050000 		.4byte	.LASF42
 2089 0217 01       		.byte	0x1
 2090 0218 2701     		.2byte	0x127
 2091 021a C3000000 		.4byte	0xc3
 2092 021e 00000000 		.4byte	.LLST0
 2093 0222 00       		.byte	0
 2094 0223 0F       		.uleb128 0xf
 2095 0224 50030000 		.4byte	.LASF41
 2096 0228 01       		.byte	0x1
 2097 0229 3601     		.2byte	0x136
 2098 022b 00000000 		.4byte	.LFB113
 2099 022f 1C000000 		.4byte	.LFE113-.LFB113
 2100 0233 01       		.uleb128 0x1
 2101 0234 9C       		.byte	0x9c
 2102 0235 48020000 		.4byte	0x248
 2103 0239 11       		.uleb128 0x11
 2104 023a 47010000 		.4byte	.LASF43
 2105 023e 01       		.byte	0x1
 2106 023f 3601     		.2byte	0x136
 2107 0241 89010000 		.4byte	0x189
 2108 0245 01       		.uleb128 0x1
 2109 0246 50       		.byte	0x50
ARM GAS  /tmp/ccs5Nv5k.s 			page 38


 2110 0247 00       		.byte	0
 2111 0248 0F       		.uleb128 0xf
 2112 0249 B2010000 		.4byte	.LASF44
 2113 024d 01       		.byte	0x1
 2114 024e 4C01     		.2byte	0x14c
 2115 0250 00000000 		.4byte	.LFB114
 2116 0254 1C000000 		.4byte	.LFE114-.LFB114
 2117 0258 01       		.uleb128 0x1
 2118 0259 9C       		.byte	0x9c
 2119 025a 6D020000 		.4byte	0x26d
 2120 025e 11       		.uleb128 0x11
 2121 025f 47010000 		.4byte	.LASF43
 2122 0263 01       		.byte	0x1
 2123 0264 4C01     		.2byte	0x14c
 2124 0266 89010000 		.4byte	0x189
 2125 026a 01       		.uleb128 0x1
 2126 026b 50       		.byte	0x50
 2127 026c 00       		.byte	0
 2128 026d 0F       		.uleb128 0xf
 2129 026e 83050000 		.4byte	.LASF45
 2130 0272 01       		.byte	0x1
 2131 0273 6101     		.2byte	0x161
 2132 0275 00000000 		.4byte	.LFB115
 2133 0279 1C000000 		.4byte	.LFE115-.LFB115
 2134 027d 01       		.uleb128 0x1
 2135 027e 9C       		.byte	0x9c
 2136 027f 92020000 		.4byte	0x292
 2137 0283 11       		.uleb128 0x11
 2138 0284 47010000 		.4byte	.LASF43
 2139 0288 01       		.byte	0x1
 2140 0289 6101     		.2byte	0x161
 2141 028b 89010000 		.4byte	0x189
 2142 028f 01       		.uleb128 0x1
 2143 0290 50       		.byte	0x50
 2144 0291 00       		.byte	0
 2145 0292 12       		.uleb128 0x12
 2146 0293 7E020000 		.4byte	.LASF46
 2147 0297 01       		.byte	0x1
 2148 0298 7601     		.2byte	0x176
 2149 029a 00000000 		.4byte	.LFB116
 2150 029e 10000000 		.4byte	.LFE116-.LFB116
 2151 02a2 01       		.uleb128 0x1
 2152 02a3 9C       		.byte	0x9c
 2153 02a4 12       		.uleb128 0x12
 2154 02a5 CC010000 		.4byte	.LASF47
 2155 02a9 01       		.byte	0x1
 2156 02aa 8101     		.2byte	0x181
 2157 02ac 00000000 		.4byte	.LFB117
 2158 02b0 10000000 		.4byte	.LFE117-.LFB117
 2159 02b4 01       		.uleb128 0x1
 2160 02b5 9C       		.byte	0x9c
 2161 02b6 12       		.uleb128 0x12
 2162 02b7 10010000 		.4byte	.LASF48
 2163 02bb 01       		.byte	0x1
 2164 02bc B001     		.2byte	0x1b0
 2165 02be 00000000 		.4byte	.LFB118
 2166 02c2 20000000 		.4byte	.LFE118-.LFB118
ARM GAS  /tmp/ccs5Nv5k.s 			page 39


 2167 02c6 01       		.uleb128 0x1
 2168 02c7 9C       		.byte	0x9c
 2169 02c8 12       		.uleb128 0x12
 2170 02c9 FB020000 		.4byte	.LASF49
 2171 02cd 01       		.byte	0x1
 2172 02ce BF01     		.2byte	0x1bf
 2173 02d0 00000000 		.4byte	.LFB119
 2174 02d4 10000000 		.4byte	.LFE119-.LFB119
 2175 02d8 01       		.uleb128 0x1
 2176 02d9 9C       		.byte	0x9c
 2177 02da 12       		.uleb128 0x12
 2178 02db 40030000 		.4byte	.LASF50
 2179 02df 01       		.byte	0x1
 2180 02e0 DD03     		.2byte	0x3dd
 2181 02e2 00000000 		.4byte	.LFB128
 2182 02e6 20000000 		.4byte	.LFE128-.LFB128
 2183 02ea 01       		.uleb128 0x1
 2184 02eb 9C       		.byte	0x9c
 2185 02ec 12       		.uleb128 0x12
 2186 02ed AA000000 		.4byte	.LASF51
 2187 02f1 01       		.byte	0x1
 2188 02f2 EC03     		.2byte	0x3ec
 2189 02f4 00000000 		.4byte	.LFB129
 2190 02f8 10000000 		.4byte	.LFE129-.LFB129
 2191 02fc 01       		.uleb128 0x1
 2192 02fd 9C       		.byte	0x9c
 2193 02fe 0F       		.uleb128 0xf
 2194 02ff DC050000 		.4byte	.LASF52
 2195 0303 01       		.byte	0x1
 2196 0304 5F04     		.2byte	0x45f
 2197 0306 00000000 		.4byte	.LFB132
 2198 030a 14000000 		.4byte	.LFE132-.LFB132
 2199 030e 01       		.uleb128 0x1
 2200 030f 9C       		.byte	0x9c
 2201 0310 35030000 		.4byte	0x335
 2202 0314 10       		.uleb128 0x10
 2203 0315 1A040000 		.4byte	.LASF53
 2204 0319 01       		.byte	0x1
 2205 031a 5F04     		.2byte	0x45f
 2206 031c A2000000 		.4byte	0xa2
 2207 0320 21000000 		.4byte	.LLST1
 2208 0324 13       		.uleb128 0x13
 2209 0325 5A050000 		.4byte	.LASF63
 2210 0329 01       		.byte	0x1
 2211 032a 6104     		.2byte	0x461
 2212 032c A2000000 		.4byte	0xa2
 2213 0330 42000000 		.4byte	.LLST2
 2214 0334 00       		.byte	0
 2215 0335 0F       		.uleb128 0xf
 2216 0336 C8020000 		.4byte	.LASF54
 2217 033a 01       		.byte	0x1
 2218 033b 0F05     		.2byte	0x50f
 2219 033d 00000000 		.4byte	.LFB137
 2220 0341 18000000 		.4byte	.LFE137-.LFB137
 2221 0345 01       		.uleb128 0x1
 2222 0346 9C       		.byte	0x9c
 2223 0347 5C030000 		.4byte	0x35c
ARM GAS  /tmp/ccs5Nv5k.s 			page 40


 2224 034b 10       		.uleb128 0x10
 2225 034c 7A000000 		.4byte	.LASF55
 2226 0350 01       		.byte	0x1
 2227 0351 0F05     		.2byte	0x50f
 2228 0353 A2000000 		.4byte	0xa2
 2229 0357 67000000 		.4byte	.LLST3
 2230 035b 00       		.byte	0
 2231 035c 0F       		.uleb128 0xf
 2232 035d 2A040000 		.4byte	.LASF56
 2233 0361 01       		.byte	0x1
 2234 0362 2405     		.2byte	0x524
 2235 0364 00000000 		.4byte	.LFB138
 2236 0368 18000000 		.4byte	.LFE138-.LFB138
 2237 036c 01       		.uleb128 0x1
 2238 036d 9C       		.byte	0x9c
 2239 036e 83030000 		.4byte	0x383
 2240 0372 10       		.uleb128 0x10
 2241 0373 01050000 		.4byte	.LASF57
 2242 0377 01       		.byte	0x1
 2243 0378 2405     		.2byte	0x524
 2244 037a A2000000 		.4byte	0xa2
 2245 037e 88000000 		.4byte	.LLST4
 2246 0382 00       		.byte	0
 2247 0383 14       		.uleb128 0x14
 2248 0384 DC020000 		.4byte	.LASF58
 2249 0388 01       		.byte	0x1
 2250 0389 4805     		.2byte	0x548
 2251 038b A2000000 		.4byte	0xa2
 2252 038f 00000000 		.4byte	.LFB140
 2253 0393 10000000 		.4byte	.LFE140-.LFB140
 2254 0397 01       		.uleb128 0x1
 2255 0398 9C       		.byte	0x9c
 2256 0399 14       		.uleb128 0x14
 2257 039a 82000000 		.4byte	.LASF59
 2258 039e 01       		.byte	0x1
 2259 039f 5305     		.2byte	0x553
 2260 03a1 AD000000 		.4byte	0xad
 2261 03a5 00000000 		.4byte	.LFB141
 2262 03a9 0C000000 		.4byte	.LFE141-.LFB141
 2263 03ad 01       		.uleb128 0x1
 2264 03ae 9C       		.byte	0x9c
 2265 03af 14       		.uleb128 0x14
 2266 03b0 3D040000 		.4byte	.LASF60
 2267 03b4 01       		.byte	0x1
 2268 03b5 6105     		.2byte	0x561
 2269 03b7 AD000000 		.4byte	0xad
 2270 03bb 00000000 		.4byte	.LFB142
 2271 03bf 0C000000 		.4byte	.LFE142-.LFB142
 2272 03c3 01       		.uleb128 0x1
 2273 03c4 9C       		.byte	0x9c
 2274 03c5 14       		.uleb128 0x14
 2275 03c6 9F030000 		.4byte	.LASF61
 2276 03ca 01       		.byte	0x1
 2277 03cb 6F05     		.2byte	0x56f
 2278 03cd AD000000 		.4byte	0xad
 2279 03d1 00000000 		.4byte	.LFB143
 2280 03d5 0C000000 		.4byte	.LFE143-.LFB143
ARM GAS  /tmp/ccs5Nv5k.s 			page 41


 2281 03d9 01       		.uleb128 0x1
 2282 03da 9C       		.byte	0x9c
 2283 03db 14       		.uleb128 0x14
 2284 03dc EE040000 		.4byte	.LASF62
 2285 03e0 01       		.byte	0x1
 2286 03e1 7D05     		.2byte	0x57d
 2287 03e3 AD000000 		.4byte	0xad
 2288 03e7 00000000 		.4byte	.LFB144
 2289 03eb 0C000000 		.4byte	.LFE144-.LFB144
 2290 03ef 01       		.uleb128 0x1
 2291 03f0 9C       		.byte	0x9c
 2292 03f1 15       		.uleb128 0x15
 2293 03f2 51070000 		.4byte	.LASF68
 2294 03f6 01       		.byte	0x1
 2295 03f7 8A05     		.2byte	0x58a
 2296 03f9 69010000 		.4byte	0x169
 2297 03fd 00000000 		.4byte	.LFB145
 2298 0401 10000000 		.4byte	.LFE145-.LFB145
 2299 0405 01       		.uleb128 0x1
 2300 0406 9C       		.byte	0x9c
 2301 0407 1C040000 		.4byte	0x41c
 2302 040b 13       		.uleb128 0x13
 2303 040c 32010000 		.4byte	.LASF64
 2304 0410 01       		.byte	0x1
 2305 0411 8C05     		.2byte	0x58c
 2306 0413 69010000 		.4byte	0x169
 2307 0417 A9000000 		.4byte	.LLST5
 2308 041b 00       		.byte	0
 2309 041c 14       		.uleb128 0x14
 2310 041d 6F040000 		.4byte	.LASF65
 2311 0421 01       		.byte	0x1
 2312 0422 A205     		.2byte	0x5a2
 2313 0424 A2000000 		.4byte	0xa2
 2314 0428 00000000 		.4byte	.LFB146
 2315 042c 10000000 		.4byte	.LFE146-.LFB146
 2316 0430 01       		.uleb128 0x1
 2317 0431 9C       		.byte	0x9c
 2318 0432 0F       		.uleb128 0xf
 2319 0433 00000000 		.4byte	.LASF66
 2320 0437 01       		.byte	0x1
 2321 0438 BF05     		.2byte	0x5bf
 2322 043a 00000000 		.4byte	.LFB147
 2323 043e 18000000 		.4byte	.LFE147-.LFB147
 2324 0442 01       		.uleb128 0x1
 2325 0443 9C       		.byte	0x9c
 2326 0444 67040000 		.4byte	0x467
 2327 0448 10       		.uleb128 0x10
 2328 0449 71000000 		.4byte	.LASF67
 2329 044d 01       		.byte	0x1
 2330 044e BF05     		.2byte	0x5bf
 2331 0450 C3000000 		.4byte	0xc3
 2332 0454 D0000000 		.4byte	.LLST6
 2333 0458 11       		.uleb128 0x11
 2334 0459 47010000 		.4byte	.LASF43
 2335 045d 01       		.byte	0x1
 2336 045e BF05     		.2byte	0x5bf
 2337 0460 89010000 		.4byte	0x189
ARM GAS  /tmp/ccs5Nv5k.s 			page 42


 2338 0464 01       		.uleb128 0x1
 2339 0465 51       		.byte	0x51
 2340 0466 00       		.byte	0
 2341 0467 15       		.uleb128 0x15
 2342 0468 74030000 		.4byte	.LASF69
 2343 046c 01       		.byte	0x1
 2344 046d DF05     		.2byte	0x5df
 2345 046f 69010000 		.4byte	0x169
 2346 0473 00000000 		.4byte	.LFB148
 2347 0477 14000000 		.4byte	.LFE148-.LFB148
 2348 047b 01       		.uleb128 0x1
 2349 047c 9C       		.byte	0x9c
 2350 047d A2040000 		.4byte	0x4a2
 2351 0481 10       		.uleb128 0x10
 2352 0482 00020000 		.4byte	.LASF70
 2353 0486 01       		.byte	0x1
 2354 0487 DF05     		.2byte	0x5df
 2355 0489 C3000000 		.4byte	0xc3
 2356 048d 0A010000 		.4byte	.LLST7
 2357 0491 13       		.uleb128 0x13
 2358 0492 DD000000 		.4byte	.LASF71
 2359 0496 01       		.byte	0x1
 2360 0497 E105     		.2byte	0x5e1
 2361 0499 69010000 		.4byte	0x169
 2362 049d 2B010000 		.4byte	.LLST8
 2363 04a1 00       		.byte	0
 2364 04a2 0F       		.uleb128 0xf
 2365 04a3 BA030000 		.4byte	.LASF72
 2366 04a7 01       		.byte	0x1
 2367 04a8 FE05     		.2byte	0x5fe
 2368 04aa 00000000 		.4byte	.LFB149
 2369 04ae 0C000000 		.4byte	.LFE149-.LFB149
 2370 04b2 01       		.uleb128 0x1
 2371 04b3 9C       		.byte	0x9c
 2372 04b4 C7040000 		.4byte	0x4c7
 2373 04b8 11       		.uleb128 0x11
 2374 04b9 00020000 		.4byte	.LASF70
 2375 04bd 01       		.byte	0x1
 2376 04be FE05     		.2byte	0x5fe
 2377 04c0 C3000000 		.4byte	0xc3
 2378 04c4 01       		.uleb128 0x1
 2379 04c5 50       		.byte	0x50
 2380 04c6 00       		.byte	0
 2381 04c7 16       		.uleb128 0x16
 2382 04c8 DE010000 		.4byte	0x1de
 2383 04cc 00000000 		.4byte	.LFB150
 2384 04d0 40000000 		.4byte	.LFE150-.LFB150
 2385 04d4 01       		.uleb128 0x1
 2386 04d5 9C       		.byte	0x9c
 2387 04d6 F3040000 		.4byte	0x4f3
 2388 04da 17       		.uleb128 0x17
 2389 04db EF010000 		.4byte	0x1ef
 2390 04df 64010000 		.4byte	.LLST9
 2391 04e3 18       		.uleb128 0x18
 2392 04e4 2C000000 		.4byte	.LBB5
 2393 04e8 14000000 		.4byte	.LBE5-.LBB5
 2394 04ec 19       		.uleb128 0x19
ARM GAS  /tmp/ccs5Nv5k.s 			page 43


 2395 04ed EF010000 		.4byte	0x1ef
 2396 04f1 00       		.byte	0
 2397 04f2 00       		.byte	0
 2398 04f3 15       		.uleb128 0x15
 2399 04f4 B4050000 		.4byte	.LASF73
 2400 04f8 01       		.byte	0x1
 2401 04f9 3F06     		.2byte	0x63f
 2402 04fb D3010000 		.4byte	0x1d3
 2403 04ff 00000000 		.4byte	.LFB151
 2404 0503 26000000 		.4byte	.LFE151-.LFB151
 2405 0507 01       		.uleb128 0x1
 2406 0508 9C       		.byte	0x9c
 2407 0509 26050000 		.4byte	0x526
 2408 050d 1A       		.uleb128 0x1a
 2409 050e 23040000 		.4byte	.LASF74
 2410 0512 01       		.byte	0x1
 2411 0513 4106     		.2byte	0x641
 2412 0515 26050000 		.4byte	0x526
 2413 0519 02       		.uleb128 0x2
 2414 051a 91       		.byte	0x91
 2415 051b 77       		.sleb128 -9
 2416 051c 1B       		.uleb128 0x1b
 2417 051d 0E000000 		.4byte	.LVL27
 2418 0521 DE010000 		.4byte	0x1de
 2419 0525 00       		.byte	0
 2420 0526 05       		.uleb128 0x5
 2421 0527 D3010000 		.4byte	0x1d3
 2422 052b 15       		.uleb128 0x15
 2423 052c 1F020000 		.4byte	.LASF75
 2424 0530 01       		.byte	0x1
 2425 0531 EA01     		.2byte	0x1ea
 2426 0533 D3010000 		.4byte	0x1d3
 2427 0537 00000000 		.4byte	.LFB120
 2428 053b 74000000 		.4byte	.LFE120-.LFB120
 2429 053f 01       		.uleb128 0x1
 2430 0540 9C       		.byte	0x9c
 2431 0541 A1050000 		.4byte	0x5a1
 2432 0545 10       		.uleb128 0x10
 2433 0546 76050000 		.4byte	.LASF76
 2434 054a 01       		.byte	0x1
 2435 054b EA01     		.2byte	0x1ea
 2436 054d C3000000 		.4byte	0xc3
 2437 0551 8F010000 		.4byte	.LLST10
 2438 0555 10       		.uleb128 0x10
 2439 0556 92000000 		.4byte	.LASF77
 2440 055a 01       		.byte	0x1
 2441 055b EA01     		.2byte	0x1ea
 2442 055d A2000000 		.4byte	0xa2
 2443 0561 DC010000 		.4byte	.LLST11
 2444 0565 13       		.uleb128 0x13
 2445 0566 3D010000 		.4byte	.LASF78
 2446 056a 01       		.byte	0x1
 2447 056b EC01     		.2byte	0x1ec
 2448 056d C3000000 		.4byte	0xc3
 2449 0571 21020000 		.4byte	.LLST12
 2450 0575 13       		.uleb128 0x13
 2451 0576 23040000 		.4byte	.LASF74
ARM GAS  /tmp/ccs5Nv5k.s 			page 44


 2452 057a 01       		.byte	0x1
 2453 057b ED01     		.2byte	0x1ed
 2454 057d D3010000 		.4byte	0x1d3
 2455 0581 63020000 		.4byte	.LLST13
 2456 0585 1B       		.uleb128 0x1b
 2457 0586 1A000000 		.4byte	.LVL30
 2458 058a F3040000 		.4byte	0x4f3
 2459 058e 1B       		.uleb128 0x1b
 2460 058f 4C000000 		.4byte	.LVL32
 2461 0593 F3040000 		.4byte	0x4f3
 2462 0597 1B       		.uleb128 0x1b
 2463 0598 64000000 		.4byte	.LVL35
 2464 059c F3040000 		.4byte	0x4f3
 2465 05a0 00       		.byte	0
 2466 05a1 15       		.uleb128 0x15
 2467 05a2 0F000000 		.4byte	.LASF79
 2468 05a6 01       		.byte	0x1
 2469 05a7 2E02     		.2byte	0x22e
 2470 05a9 D3010000 		.4byte	0x1d3
 2471 05ad 00000000 		.4byte	.LFB121
 2472 05b1 5C000000 		.4byte	.LFE121-.LFB121
 2473 05b5 01       		.uleb128 0x1
 2474 05b6 9C       		.byte	0x9c
 2475 05b7 FE050000 		.4byte	0x5fe
 2476 05bb 10       		.uleb128 0x10
 2477 05bc 92000000 		.4byte	.LASF77
 2478 05c0 01       		.byte	0x1
 2479 05c1 2E02     		.2byte	0x22e
 2480 05c3 A2000000 		.4byte	0xa2
 2481 05c7 B0020000 		.4byte	.LLST14
 2482 05cb 13       		.uleb128 0x13
 2483 05cc 3D010000 		.4byte	.LASF78
 2484 05d0 01       		.byte	0x1
 2485 05d1 3002     		.2byte	0x230
 2486 05d3 C3000000 		.4byte	0xc3
 2487 05d7 D1020000 		.4byte	.LLST15
 2488 05db 13       		.uleb128 0x13
 2489 05dc 23040000 		.4byte	.LASF74
 2490 05e0 01       		.byte	0x1
 2491 05e1 3102     		.2byte	0x231
 2492 05e3 D3010000 		.4byte	0x1d3
 2493 05e7 07030000 		.4byte	.LLST16
 2494 05eb 1B       		.uleb128 0x1b
 2495 05ec 08000000 		.4byte	.LVL38
 2496 05f0 F3040000 		.4byte	0x4f3
 2497 05f4 1B       		.uleb128 0x1b
 2498 05f5 4C000000 		.4byte	.LVL43
 2499 05f9 F3040000 		.4byte	0x4f3
 2500 05fd 00       		.byte	0
 2501 05fe 15       		.uleb128 0x15
 2502 05ff B3040000 		.4byte	.LASF80
 2503 0603 01       		.byte	0x1
 2504 0604 7F02     		.2byte	0x27f
 2505 0606 D3010000 		.4byte	0x1d3
 2506 060a 00000000 		.4byte	.LFB122
 2507 060e 5C000000 		.4byte	.LFE122-.LFB122
 2508 0612 01       		.uleb128 0x1
ARM GAS  /tmp/ccs5Nv5k.s 			page 45


 2509 0613 9C       		.byte	0x9c
 2510 0614 5B060000 		.4byte	0x65b
 2511 0618 10       		.uleb128 0x10
 2512 0619 92000000 		.4byte	.LASF77
 2513 061d 01       		.byte	0x1
 2514 061e 7F02     		.2byte	0x27f
 2515 0620 A2000000 		.4byte	0xa2
 2516 0624 31030000 		.4byte	.LLST17
 2517 0628 13       		.uleb128 0x13
 2518 0629 3D010000 		.4byte	.LASF78
 2519 062d 01       		.byte	0x1
 2520 062e 8102     		.2byte	0x281
 2521 0630 C3000000 		.4byte	0xc3
 2522 0634 52030000 		.4byte	.LLST18
 2523 0638 13       		.uleb128 0x13
 2524 0639 23040000 		.4byte	.LASF74
 2525 063d 01       		.byte	0x1
 2526 063e 8202     		.2byte	0x282
 2527 0640 D3010000 		.4byte	0x1d3
 2528 0644 88030000 		.4byte	.LLST19
 2529 0648 1B       		.uleb128 0x1b
 2530 0649 08000000 		.4byte	.LVL45
 2531 064d F3040000 		.4byte	0x4f3
 2532 0651 1B       		.uleb128 0x1b
 2533 0652 4C000000 		.4byte	.LVL50
 2534 0656 F3040000 		.4byte	0x4f3
 2535 065a 00       		.byte	0
 2536 065b 15       		.uleb128 0x15
 2537 065c 4D000000 		.4byte	.LASF81
 2538 0660 01       		.byte	0x1
 2539 0661 C202     		.2byte	0x2c2
 2540 0663 D3010000 		.4byte	0x1d3
 2541 0667 00000000 		.4byte	.LFB123
 2542 066b 5C000000 		.4byte	.LFE123-.LFB123
 2543 066f 01       		.uleb128 0x1
 2544 0670 9C       		.byte	0x9c
 2545 0671 B8060000 		.4byte	0x6b8
 2546 0675 10       		.uleb128 0x10
 2547 0676 92000000 		.4byte	.LASF77
 2548 067a 01       		.byte	0x1
 2549 067b C202     		.2byte	0x2c2
 2550 067d A2000000 		.4byte	0xa2
 2551 0681 B2030000 		.4byte	.LLST20
 2552 0685 13       		.uleb128 0x13
 2553 0686 3D010000 		.4byte	.LASF78
 2554 068a 01       		.byte	0x1
 2555 068b C402     		.2byte	0x2c4
 2556 068d C3000000 		.4byte	0xc3
 2557 0691 D3030000 		.4byte	.LLST21
 2558 0695 13       		.uleb128 0x13
 2559 0696 23040000 		.4byte	.LASF74
 2560 069a 01       		.byte	0x1
 2561 069b C502     		.2byte	0x2c5
 2562 069d D3010000 		.4byte	0x1d3
 2563 06a1 09040000 		.4byte	.LLST22
 2564 06a5 1B       		.uleb128 0x1b
 2565 06a6 08000000 		.4byte	.LVL52
ARM GAS  /tmp/ccs5Nv5k.s 			page 46


 2566 06aa F3040000 		.4byte	0x4f3
 2567 06ae 1B       		.uleb128 0x1b
 2568 06af 4C000000 		.4byte	.LVL57
 2569 06b3 F3040000 		.4byte	0x4f3
 2570 06b7 00       		.byte	0
 2571 06b8 15       		.uleb128 0x15
 2572 06b9 3A020000 		.4byte	.LASF82
 2573 06bd 01       		.byte	0x1
 2574 06be FB02     		.2byte	0x2fb
 2575 06c0 D3010000 		.4byte	0x1d3
 2576 06c4 00000000 		.4byte	.LFB124
 2577 06c8 44000000 		.4byte	.LFE124-.LFB124
 2578 06cc 01       		.uleb128 0x1
 2579 06cd 9C       		.byte	0x9c
 2580 06ce 15070000 		.4byte	0x715
 2581 06d2 10       		.uleb128 0x10
 2582 06d3 B8000000 		.4byte	.LASF83
 2583 06d7 01       		.byte	0x1
 2584 06d8 FB02     		.2byte	0x2fb
 2585 06da C3000000 		.4byte	0xc3
 2586 06de 33040000 		.4byte	.LLST23
 2587 06e2 10       		.uleb128 0x10
 2588 06e3 9A020000 		.4byte	.LASF84
 2589 06e7 01       		.byte	0x1
 2590 06e8 FB02     		.2byte	0x2fb
 2591 06ea CE000000 		.4byte	0xce
 2592 06ee 5F040000 		.4byte	.LLST24
 2593 06f2 13       		.uleb128 0x13
 2594 06f3 23040000 		.4byte	.LASF74
 2595 06f7 01       		.byte	0x1
 2596 06f8 FD02     		.2byte	0x2fd
 2597 06fa D3010000 		.4byte	0x1d3
 2598 06fe 87040000 		.4byte	.LLST25
 2599 0702 1B       		.uleb128 0x1b
 2600 0703 0C000000 		.4byte	.LVL59
 2601 0707 F3040000 		.4byte	0x4f3
 2602 070b 1B       		.uleb128 0x1b
 2603 070c 34000000 		.4byte	.LVL61
 2604 0710 F3040000 		.4byte	0x4f3
 2605 0714 00       		.byte	0
 2606 0715 15       		.uleb128 0x15
 2607 0716 64050000 		.4byte	.LASF85
 2608 071a 01       		.byte	0x1
 2609 071b 2603     		.2byte	0x326
 2610 071d D3010000 		.4byte	0x1d3
 2611 0721 00000000 		.4byte	.LFB125
 2612 0725 40000000 		.4byte	.LFE125-.LFB125
 2613 0729 01       		.uleb128 0x1
 2614 072a 9C       		.byte	0x9c
 2615 072b 72070000 		.4byte	0x772
 2616 072f 10       		.uleb128 0x10
 2617 0730 B8000000 		.4byte	.LASF83
 2618 0734 01       		.byte	0x1
 2619 0735 2603     		.2byte	0x326
 2620 0737 C3000000 		.4byte	0xc3
 2621 073b B1040000 		.4byte	.LLST26
 2622 073f 10       		.uleb128 0x10
ARM GAS  /tmp/ccs5Nv5k.s 			page 47


 2623 0740 9A020000 		.4byte	.LASF84
 2624 0744 01       		.byte	0x1
 2625 0745 2603     		.2byte	0x326
 2626 0747 C3000000 		.4byte	0xc3
 2627 074b DD040000 		.4byte	.LLST27
 2628 074f 13       		.uleb128 0x13
 2629 0750 23040000 		.4byte	.LASF74
 2630 0754 01       		.byte	0x1
 2631 0755 2803     		.2byte	0x328
 2632 0757 D3010000 		.4byte	0x1d3
 2633 075b 09050000 		.4byte	.LLST28
 2634 075f 1B       		.uleb128 0x1b
 2635 0760 0A000000 		.4byte	.LVL64
 2636 0764 F3040000 		.4byte	0x4f3
 2637 0768 1B       		.uleb128 0x1b
 2638 0769 30000000 		.4byte	.LVL66
 2639 076d F3040000 		.4byte	0x4f3
 2640 0771 00       		.byte	0
 2641 0772 15       		.uleb128 0x15
 2642 0773 F1030000 		.4byte	.LASF86
 2643 0777 01       		.byte	0x1
 2644 0778 5003     		.2byte	0x350
 2645 077a D3010000 		.4byte	0x1d3
 2646 077e 00000000 		.4byte	.LFB126
 2647 0782 40000000 		.4byte	.LFE126-.LFB126
 2648 0786 01       		.uleb128 0x1
 2649 0787 9C       		.byte	0x9c
 2650 0788 CF070000 		.4byte	0x7cf
 2651 078c 10       		.uleb128 0x10
 2652 078d B8000000 		.4byte	.LASF83
 2653 0791 01       		.byte	0x1
 2654 0792 5003     		.2byte	0x350
 2655 0794 C3000000 		.4byte	0xc3
 2656 0798 33050000 		.4byte	.LLST29
 2657 079c 10       		.uleb128 0x10
 2658 079d 9A020000 		.4byte	.LASF84
 2659 07a1 01       		.byte	0x1
 2660 07a2 5003     		.2byte	0x350
 2661 07a4 AD000000 		.4byte	0xad
 2662 07a8 5F050000 		.4byte	.LLST30
 2663 07ac 13       		.uleb128 0x13
 2664 07ad 23040000 		.4byte	.LASF74
 2665 07b1 01       		.byte	0x1
 2666 07b2 5203     		.2byte	0x352
 2667 07b4 D3010000 		.4byte	0x1d3
 2668 07b8 80050000 		.4byte	.LLST31
 2669 07bc 1B       		.uleb128 0x1b
 2670 07bd 0A000000 		.4byte	.LVL69
 2671 07c1 F3040000 		.4byte	0x4f3
 2672 07c5 1B       		.uleb128 0x1b
 2673 07c6 30000000 		.4byte	.LVL71
 2674 07ca F3040000 		.4byte	0x4f3
 2675 07ce 00       		.byte	0
 2676 07cf 15       		.uleb128 0x15
 2677 07d0 9F020000 		.4byte	.LASF87
 2678 07d4 01       		.byte	0x1
 2679 07d5 7A03     		.2byte	0x37a
ARM GAS  /tmp/ccs5Nv5k.s 			page 48


 2680 07d7 D3010000 		.4byte	0x1d3
 2681 07db 00000000 		.4byte	.LFB127
 2682 07df 3C000000 		.4byte	.LFE127-.LFB127
 2683 07e3 01       		.uleb128 0x1
 2684 07e4 9C       		.byte	0x9c
 2685 07e5 2C080000 		.4byte	0x82c
 2686 07e9 10       		.uleb128 0x10
 2687 07ea B8000000 		.4byte	.LASF83
 2688 07ee 01       		.byte	0x1
 2689 07ef 7A03     		.2byte	0x37a
 2690 07f1 C3000000 		.4byte	0xc3
 2691 07f5 AA050000 		.4byte	.LLST32
 2692 07f9 10       		.uleb128 0x10
 2693 07fa 9A020000 		.4byte	.LASF84
 2694 07fe 01       		.byte	0x1
 2695 07ff 7A03     		.2byte	0x37a
 2696 0801 A2000000 		.4byte	0xa2
 2697 0805 D6050000 		.4byte	.LLST33
 2698 0809 13       		.uleb128 0x13
 2699 080a 23040000 		.4byte	.LASF74
 2700 080e 01       		.byte	0x1
 2701 080f 7C03     		.2byte	0x37c
 2702 0811 D3010000 		.4byte	0x1d3
 2703 0815 F7050000 		.4byte	.LLST34
 2704 0819 1B       		.uleb128 0x1b
 2705 081a 0A000000 		.4byte	.LVL74
 2706 081e F3040000 		.4byte	0x4f3
 2707 0822 1B       		.uleb128 0x1b
 2708 0823 2C000000 		.4byte	.LVL76
 2709 0827 F3040000 		.4byte	0x4f3
 2710 082b 00       		.byte	0
 2711 082c 0F       		.uleb128 0xf
 2712 082d 12050000 		.4byte	.LASF88
 2713 0831 01       		.byte	0x1
 2714 0832 0304     		.2byte	0x403
 2715 0834 00000000 		.4byte	.LFB130
 2716 0838 2C000000 		.4byte	.LFE130-.LFB130
 2717 083c 01       		.uleb128 0x1
 2718 083d 9C       		.byte	0x9c
 2719 083e 7C080000 		.4byte	0x87c
 2720 0842 10       		.uleb128 0x10
 2721 0843 D6000000 		.4byte	.LASF89
 2722 0847 01       		.byte	0x1
 2723 0848 0304     		.2byte	0x403
 2724 084a C3000000 		.4byte	0xc3
 2725 084e 21060000 		.4byte	.LLST35
 2726 0852 10       		.uleb128 0x10
 2727 0853 47010000 		.4byte	.LASF43
 2728 0857 01       		.byte	0x1
 2729 0858 0304     		.2byte	0x403
 2730 085a 89010000 		.4byte	0x189
 2731 085e 4D060000 		.4byte	.LLST36
 2732 0862 13       		.uleb128 0x13
 2733 0863 23040000 		.4byte	.LASF74
 2734 0867 01       		.byte	0x1
 2735 0868 0504     		.2byte	0x405
 2736 086a D3010000 		.4byte	0x1d3
ARM GAS  /tmp/ccs5Nv5k.s 			page 49


 2737 086e 6E060000 		.4byte	.LLST37
 2738 0872 1B       		.uleb128 0x1b
 2739 0873 0A000000 		.4byte	.LVL79
 2740 0877 F3040000 		.4byte	0x4f3
 2741 087b 00       		.byte	0
 2742 087c 0F       		.uleb128 0xf
 2743 087d 0B020000 		.4byte	.LASF90
 2744 0881 01       		.byte	0x1
 2745 0882 2D04     		.2byte	0x42d
 2746 0884 00000000 		.4byte	.LFB131
 2747 0888 2C000000 		.4byte	.LFE131-.LFB131
 2748 088c 01       		.uleb128 0x1
 2749 088d 9C       		.byte	0x9c
 2750 088e CC080000 		.4byte	0x8cc
 2751 0892 10       		.uleb128 0x10
 2752 0893 D6000000 		.4byte	.LASF89
 2753 0897 01       		.byte	0x1
 2754 0898 2D04     		.2byte	0x42d
 2755 089a C3000000 		.4byte	0xc3
 2756 089e 8D060000 		.4byte	.LLST38
 2757 08a2 10       		.uleb128 0x10
 2758 08a3 47010000 		.4byte	.LASF43
 2759 08a7 01       		.byte	0x1
 2760 08a8 2D04     		.2byte	0x42d
 2761 08aa 89010000 		.4byte	0x189
 2762 08ae B9060000 		.4byte	.LLST39
 2763 08b2 13       		.uleb128 0x13
 2764 08b3 23040000 		.4byte	.LASF74
 2765 08b7 01       		.byte	0x1
 2766 08b8 2F04     		.2byte	0x42f
 2767 08ba D3010000 		.4byte	0x1d3
 2768 08be DA060000 		.4byte	.LLST40
 2769 08c2 1B       		.uleb128 0x1b
 2770 08c3 0A000000 		.4byte	.LVL85
 2771 08c7 F3040000 		.4byte	0x4f3
 2772 08cb 00       		.byte	0
 2773 08cc 0F       		.uleb128 0xf
 2774 08cd FB000000 		.4byte	.LASF91
 2775 08d1 01       		.byte	0x1
 2776 08d2 7D04     		.2byte	0x47d
 2777 08d4 00000000 		.4byte	.LFB133
 2778 08d8 2C000000 		.4byte	.LFE133-.LFB133
 2779 08dc 01       		.uleb128 0x1
 2780 08dd 9C       		.byte	0x9c
 2781 08de 1C090000 		.4byte	0x91c
 2782 08e2 10       		.uleb128 0x10
 2783 08e3 E9010000 		.4byte	.LASF92
 2784 08e7 01       		.byte	0x1
 2785 08e8 7D04     		.2byte	0x47d
 2786 08ea C3000000 		.4byte	0xc3
 2787 08ee F9060000 		.4byte	.LLST41
 2788 08f2 10       		.uleb128 0x10
 2789 08f3 47010000 		.4byte	.LASF43
 2790 08f7 01       		.byte	0x1
 2791 08f8 7D04     		.2byte	0x47d
 2792 08fa 89010000 		.4byte	0x189
 2793 08fe 25070000 		.4byte	.LLST42
ARM GAS  /tmp/ccs5Nv5k.s 			page 50


 2794 0902 13       		.uleb128 0x13
 2795 0903 23040000 		.4byte	.LASF74
 2796 0907 01       		.byte	0x1
 2797 0908 7F04     		.2byte	0x47f
 2798 090a D3010000 		.4byte	0x1d3
 2799 090e 46070000 		.4byte	.LLST43
 2800 0912 1B       		.uleb128 0x1b
 2801 0913 0A000000 		.4byte	.LVL91
 2802 0917 F3040000 		.4byte	0x4f3
 2803 091b 00       		.byte	0
 2804 091c 0F       		.uleb128 0xf
 2805 091d 9C010000 		.4byte	.LASF93
 2806 0921 01       		.byte	0x1
 2807 0922 A204     		.2byte	0x4a2
 2808 0924 00000000 		.4byte	.LFB134
 2809 0928 2C000000 		.4byte	.LFE134-.LFB134
 2810 092c 01       		.uleb128 0x1
 2811 092d 9C       		.byte	0x9c
 2812 092e 6C090000 		.4byte	0x96c
 2813 0932 10       		.uleb128 0x10
 2814 0933 E9010000 		.4byte	.LASF92
 2815 0937 01       		.byte	0x1
 2816 0938 A204     		.2byte	0x4a2
 2817 093a C3000000 		.4byte	0xc3
 2818 093e 65070000 		.4byte	.LLST44
 2819 0942 10       		.uleb128 0x10
 2820 0943 47010000 		.4byte	.LASF43
 2821 0947 01       		.byte	0x1
 2822 0948 A204     		.2byte	0x4a2
 2823 094a 89010000 		.4byte	0x189
 2824 094e 91070000 		.4byte	.LLST45
 2825 0952 13       		.uleb128 0x13
 2826 0953 23040000 		.4byte	.LASF74
 2827 0957 01       		.byte	0x1
 2828 0958 A404     		.2byte	0x4a4
 2829 095a D3010000 		.4byte	0x1d3
 2830 095e B2070000 		.4byte	.LLST46
 2831 0962 1B       		.uleb128 0x1b
 2832 0963 0A000000 		.4byte	.LVL97
 2833 0967 F3040000 		.4byte	0x4f3
 2834 096b 00       		.byte	0
 2835 096c 0F       		.uleb128 0xf
 2836 096d 25050000 		.4byte	.LASF94
 2837 0971 01       		.byte	0x1
 2838 0972 C604     		.2byte	0x4c6
 2839 0974 00000000 		.4byte	.LFB135
 2840 0978 18000000 		.4byte	.LFE135-.LFB135
 2841 097c 01       		.uleb128 0x1
 2842 097d 9C       		.byte	0x9c
 2843 097e AC090000 		.4byte	0x9ac
 2844 0982 10       		.uleb128 0x10
 2845 0983 25000000 		.4byte	.LASF95
 2846 0987 01       		.byte	0x1
 2847 0988 C604     		.2byte	0x4c6
 2848 098a A2000000 		.4byte	0xa2
 2849 098e D1070000 		.4byte	.LLST47
 2850 0992 13       		.uleb128 0x13
ARM GAS  /tmp/ccs5Nv5k.s 			page 51


 2851 0993 23040000 		.4byte	.LASF74
 2852 0997 01       		.byte	0x1
 2853 0998 C804     		.2byte	0x4c8
 2854 099a D3010000 		.4byte	0x1d3
 2855 099e F2070000 		.4byte	.LLST48
 2856 09a2 1B       		.uleb128 0x1b
 2857 09a3 08000000 		.4byte	.LVL103
 2858 09a7 F3040000 		.4byte	0x4f3
 2859 09ab 00       		.byte	0
 2860 09ac 0F       		.uleb128 0xf
 2861 09ad E7000000 		.4byte	.LASF96
 2862 09b1 01       		.byte	0x1
 2863 09b2 E604     		.2byte	0x4e6
 2864 09b4 00000000 		.4byte	.LFB136
 2865 09b8 28000000 		.4byte	.LFE136-.LFB136
 2866 09bc 01       		.uleb128 0x1
 2867 09bd 9C       		.byte	0x9c
 2868 09be 1C0A0000 		.4byte	0xa1c
 2869 09c2 10       		.uleb128 0x10
 2870 09c3 2C000000 		.4byte	.LASF97
 2871 09c7 01       		.byte	0x1
 2872 09c8 E604     		.2byte	0x4e6
 2873 09ca A2000000 		.4byte	0xa2
 2874 09ce 11080000 		.4byte	.LLST49
 2875 09d2 10       		.uleb128 0x10
 2876 09d3 FA050000 		.4byte	.LASF98
 2877 09d7 01       		.byte	0x1
 2878 09d8 E604     		.2byte	0x4e6
 2879 09da A2000000 		.4byte	0xa2
 2880 09de 32080000 		.4byte	.LLST50
 2881 09e2 10       		.uleb128 0x10
 2882 09e3 3B070000 		.4byte	.LASF99
 2883 09e7 01       		.byte	0x1
 2884 09e8 E604     		.2byte	0x4e6
 2885 09ea A2000000 		.4byte	0xa2
 2886 09ee 53080000 		.4byte	.LLST51
 2887 09f2 13       		.uleb128 0x13
 2888 09f3 5A050000 		.4byte	.LASF63
 2889 09f7 01       		.byte	0x1
 2890 09f8 E804     		.2byte	0x4e8
 2891 09fa A2000000 		.4byte	0xa2
 2892 09fe 74080000 		.4byte	.LLST52
 2893 0a02 13       		.uleb128 0x13
 2894 0a03 23040000 		.4byte	.LASF74
 2895 0a07 01       		.byte	0x1
 2896 0a08 E904     		.2byte	0x4e9
 2897 0a0a D3010000 		.4byte	0x1d3
 2898 0a0e 98080000 		.4byte	.LLST53
 2899 0a12 1B       		.uleb128 0x1b
 2900 0a13 0C000000 		.4byte	.LVL105
 2901 0a17 F3040000 		.4byte	0x4f3
 2902 0a1b 00       		.byte	0
 2903 0a1c 15       		.uleb128 0x15
 2904 0a1d B8020000 		.4byte	.LASF100
 2905 0a21 01       		.byte	0x1
 2906 0a22 3505     		.2byte	0x535
 2907 0a24 D3010000 		.4byte	0x1d3
ARM GAS  /tmp/ccs5Nv5k.s 			page 52


 2908 0a28 00000000 		.4byte	.LFB139
 2909 0a2c 14000000 		.4byte	.LFE139-.LFB139
 2910 0a30 01       		.uleb128 0x1
 2911 0a31 9C       		.byte	0x9c
 2912 0a32 4D0A0000 		.4byte	0xa4d
 2913 0a36 1C       		.uleb128 0x1c
 2914 0a37 23040000 		.4byte	.LASF74
 2915 0a3b 01       		.byte	0x1
 2916 0a3c 3705     		.2byte	0x537
 2917 0a3e D3010000 		.4byte	0x1d3
 2918 0a42 09       		.byte	0x9
 2919 0a43 1D       		.uleb128 0x1d
 2920 0a44 0E000000 		.4byte	.LVL109
 2921 0a48 F3040000 		.4byte	0x4f3
 2922 0a4c 00       		.byte	0
 2923 0a4d 1E       		.uleb128 0x1e
 2924 0a4e CF050000 		.4byte	.LASF106
 2925 0a52 07       		.byte	0x7
 2926 0a53 A706     		.2byte	0x6a7
 2927 0a55 590A0000 		.4byte	0xa59
 2928 0a59 05       		.uleb128 0x5
 2929 0a5a B8000000 		.4byte	0xb8
 2930 0a5e 00       		.byte	0
 2931              		.section	.debug_abbrev,"",%progbits
 2932              	.Ldebug_abbrev0:
 2933 0000 01       		.uleb128 0x1
 2934 0001 11       		.uleb128 0x11
 2935 0002 01       		.byte	0x1
 2936 0003 25       		.uleb128 0x25
 2937 0004 0E       		.uleb128 0xe
 2938 0005 13       		.uleb128 0x13
 2939 0006 0B       		.uleb128 0xb
 2940 0007 03       		.uleb128 0x3
 2941 0008 0E       		.uleb128 0xe
 2942 0009 1B       		.uleb128 0x1b
 2943 000a 0E       		.uleb128 0xe
 2944 000b 55       		.uleb128 0x55
 2945 000c 17       		.uleb128 0x17
 2946 000d 11       		.uleb128 0x11
 2947 000e 01       		.uleb128 0x1
 2948 000f 10       		.uleb128 0x10
 2949 0010 17       		.uleb128 0x17
 2950 0011 00       		.byte	0
 2951 0012 00       		.byte	0
 2952 0013 02       		.uleb128 0x2
 2953 0014 24       		.uleb128 0x24
 2954 0015 00       		.byte	0
 2955 0016 0B       		.uleb128 0xb
 2956 0017 0B       		.uleb128 0xb
 2957 0018 3E       		.uleb128 0x3e
 2958 0019 0B       		.uleb128 0xb
 2959 001a 03       		.uleb128 0x3
 2960 001b 0E       		.uleb128 0xe
 2961 001c 00       		.byte	0
 2962 001d 00       		.byte	0
 2963 001e 03       		.uleb128 0x3
 2964 001f 16       		.uleb128 0x16
ARM GAS  /tmp/ccs5Nv5k.s 			page 53


 2965 0020 00       		.byte	0
 2966 0021 03       		.uleb128 0x3
 2967 0022 0E       		.uleb128 0xe
 2968 0023 3A       		.uleb128 0x3a
 2969 0024 0B       		.uleb128 0xb
 2970 0025 3B       		.uleb128 0x3b
 2971 0026 0B       		.uleb128 0xb
 2972 0027 49       		.uleb128 0x49
 2973 0028 13       		.uleb128 0x13
 2974 0029 00       		.byte	0
 2975 002a 00       		.byte	0
 2976 002b 04       		.uleb128 0x4
 2977 002c 24       		.uleb128 0x24
 2978 002d 00       		.byte	0
 2979 002e 0B       		.uleb128 0xb
 2980 002f 0B       		.uleb128 0xb
 2981 0030 3E       		.uleb128 0x3e
 2982 0031 0B       		.uleb128 0xb
 2983 0032 03       		.uleb128 0x3
 2984 0033 08       		.uleb128 0x8
 2985 0034 00       		.byte	0
 2986 0035 00       		.byte	0
 2987 0036 05       		.uleb128 0x5
 2988 0037 35       		.uleb128 0x35
 2989 0038 00       		.byte	0
 2990 0039 49       		.uleb128 0x49
 2991 003a 13       		.uleb128 0x13
 2992 003b 00       		.byte	0
 2993 003c 00       		.byte	0
 2994 003d 06       		.uleb128 0x6
 2995 003e 13       		.uleb128 0x13
 2996 003f 01       		.byte	0x1
 2997 0040 0B       		.uleb128 0xb
 2998 0041 0B       		.uleb128 0xb
 2999 0042 3A       		.uleb128 0x3a
 3000 0043 0B       		.uleb128 0xb
 3001 0044 3B       		.uleb128 0x3b
 3002 0045 05       		.uleb128 0x5
 3003 0046 01       		.uleb128 0x1
 3004 0047 13       		.uleb128 0x13
 3005 0048 00       		.byte	0
 3006 0049 00       		.byte	0
 3007 004a 07       		.uleb128 0x7
 3008 004b 0D       		.uleb128 0xd
 3009 004c 00       		.byte	0
 3010 004d 03       		.uleb128 0x3
 3011 004e 08       		.uleb128 0x8
 3012 004f 3A       		.uleb128 0x3a
 3013 0050 0B       		.uleb128 0xb
 3014 0051 3B       		.uleb128 0x3b
 3015 0052 05       		.uleb128 0x5
 3016 0053 49       		.uleb128 0x49
 3017 0054 13       		.uleb128 0x13
 3018 0055 38       		.uleb128 0x38
 3019 0056 0B       		.uleb128 0xb
 3020 0057 00       		.byte	0
 3021 0058 00       		.byte	0
ARM GAS  /tmp/ccs5Nv5k.s 			page 54


 3022 0059 08       		.uleb128 0x8
 3023 005a 0D       		.uleb128 0xd
 3024 005b 00       		.byte	0
 3025 005c 03       		.uleb128 0x3
 3026 005d 0E       		.uleb128 0xe
 3027 005e 3A       		.uleb128 0x3a
 3028 005f 0B       		.uleb128 0xb
 3029 0060 3B       		.uleb128 0x3b
 3030 0061 05       		.uleb128 0x5
 3031 0062 49       		.uleb128 0x49
 3032 0063 13       		.uleb128 0x13
 3033 0064 38       		.uleb128 0x38
 3034 0065 0B       		.uleb128 0xb
 3035 0066 00       		.byte	0
 3036 0067 00       		.byte	0
 3037 0068 09       		.uleb128 0x9
 3038 0069 16       		.uleb128 0x16
 3039 006a 00       		.byte	0
 3040 006b 03       		.uleb128 0x3
 3041 006c 0E       		.uleb128 0xe
 3042 006d 3A       		.uleb128 0x3a
 3043 006e 0B       		.uleb128 0xb
 3044 006f 3B       		.uleb128 0x3b
 3045 0070 05       		.uleb128 0x5
 3046 0071 49       		.uleb128 0x49
 3047 0072 13       		.uleb128 0x13
 3048 0073 00       		.byte	0
 3049 0074 00       		.byte	0
 3050 0075 0A       		.uleb128 0xa
 3051 0076 04       		.uleb128 0x4
 3052 0077 01       		.byte	0x1
 3053 0078 0B       		.uleb128 0xb
 3054 0079 0B       		.uleb128 0xb
 3055 007a 3A       		.uleb128 0x3a
 3056 007b 0B       		.uleb128 0xb
 3057 007c 3B       		.uleb128 0x3b
 3058 007d 0B       		.uleb128 0xb
 3059 007e 01       		.uleb128 0x1
 3060 007f 13       		.uleb128 0x13
 3061 0080 00       		.byte	0
 3062 0081 00       		.byte	0
 3063 0082 0B       		.uleb128 0xb
 3064 0083 28       		.uleb128 0x28
 3065 0084 00       		.byte	0
 3066 0085 03       		.uleb128 0x3
 3067 0086 0E       		.uleb128 0xe
 3068 0087 1C       		.uleb128 0x1c
 3069 0088 0D       		.uleb128 0xd
 3070 0089 00       		.byte	0
 3071 008a 00       		.byte	0
 3072 008b 0C       		.uleb128 0xc
 3073 008c 28       		.uleb128 0x28
 3074 008d 00       		.byte	0
 3075 008e 03       		.uleb128 0x3
 3076 008f 08       		.uleb128 0x8
 3077 0090 1C       		.uleb128 0x1c
 3078 0091 0D       		.uleb128 0xd
ARM GAS  /tmp/ccs5Nv5k.s 			page 55


 3079 0092 00       		.byte	0
 3080 0093 00       		.byte	0
 3081 0094 0D       		.uleb128 0xd
 3082 0095 2E       		.uleb128 0x2e
 3083 0096 01       		.byte	0x1
 3084 0097 3F       		.uleb128 0x3f
 3085 0098 19       		.uleb128 0x19
 3086 0099 03       		.uleb128 0x3
 3087 009a 0E       		.uleb128 0xe
 3088 009b 3A       		.uleb128 0x3a
 3089 009c 0B       		.uleb128 0xb
 3090 009d 3B       		.uleb128 0x3b
 3091 009e 05       		.uleb128 0x5
 3092 009f 27       		.uleb128 0x27
 3093 00a0 19       		.uleb128 0x19
 3094 00a1 49       		.uleb128 0x49
 3095 00a2 13       		.uleb128 0x13
 3096 00a3 20       		.uleb128 0x20
 3097 00a4 0B       		.uleb128 0xb
 3098 00a5 01       		.uleb128 0x1
 3099 00a6 13       		.uleb128 0x13
 3100 00a7 00       		.byte	0
 3101 00a8 00       		.byte	0
 3102 00a9 0E       		.uleb128 0xe
 3103 00aa 34       		.uleb128 0x34
 3104 00ab 00       		.byte	0
 3105 00ac 03       		.uleb128 0x3
 3106 00ad 0E       		.uleb128 0xe
 3107 00ae 3A       		.uleb128 0x3a
 3108 00af 0B       		.uleb128 0xb
 3109 00b0 3B       		.uleb128 0x3b
 3110 00b1 05       		.uleb128 0x5
 3111 00b2 49       		.uleb128 0x49
 3112 00b3 13       		.uleb128 0x13
 3113 00b4 00       		.byte	0
 3114 00b5 00       		.byte	0
 3115 00b6 0F       		.uleb128 0xf
 3116 00b7 2E       		.uleb128 0x2e
 3117 00b8 01       		.byte	0x1
 3118 00b9 3F       		.uleb128 0x3f
 3119 00ba 19       		.uleb128 0x19
 3120 00bb 03       		.uleb128 0x3
 3121 00bc 0E       		.uleb128 0xe
 3122 00bd 3A       		.uleb128 0x3a
 3123 00be 0B       		.uleb128 0xb
 3124 00bf 3B       		.uleb128 0x3b
 3125 00c0 05       		.uleb128 0x5
 3126 00c1 27       		.uleb128 0x27
 3127 00c2 19       		.uleb128 0x19
 3128 00c3 11       		.uleb128 0x11
 3129 00c4 01       		.uleb128 0x1
 3130 00c5 12       		.uleb128 0x12
 3131 00c6 06       		.uleb128 0x6
 3132 00c7 40       		.uleb128 0x40
 3133 00c8 18       		.uleb128 0x18
 3134 00c9 9742     		.uleb128 0x2117
 3135 00cb 19       		.uleb128 0x19
ARM GAS  /tmp/ccs5Nv5k.s 			page 56


 3136 00cc 01       		.uleb128 0x1
 3137 00cd 13       		.uleb128 0x13
 3138 00ce 00       		.byte	0
 3139 00cf 00       		.byte	0
 3140 00d0 10       		.uleb128 0x10
 3141 00d1 05       		.uleb128 0x5
 3142 00d2 00       		.byte	0
 3143 00d3 03       		.uleb128 0x3
 3144 00d4 0E       		.uleb128 0xe
 3145 00d5 3A       		.uleb128 0x3a
 3146 00d6 0B       		.uleb128 0xb
 3147 00d7 3B       		.uleb128 0x3b
 3148 00d8 05       		.uleb128 0x5
 3149 00d9 49       		.uleb128 0x49
 3150 00da 13       		.uleb128 0x13
 3151 00db 02       		.uleb128 0x2
 3152 00dc 17       		.uleb128 0x17
 3153 00dd 00       		.byte	0
 3154 00de 00       		.byte	0
 3155 00df 11       		.uleb128 0x11
 3156 00e0 05       		.uleb128 0x5
 3157 00e1 00       		.byte	0
 3158 00e2 03       		.uleb128 0x3
 3159 00e3 0E       		.uleb128 0xe
 3160 00e4 3A       		.uleb128 0x3a
 3161 00e5 0B       		.uleb128 0xb
 3162 00e6 3B       		.uleb128 0x3b
 3163 00e7 05       		.uleb128 0x5
 3164 00e8 49       		.uleb128 0x49
 3165 00e9 13       		.uleb128 0x13
 3166 00ea 02       		.uleb128 0x2
 3167 00eb 18       		.uleb128 0x18
 3168 00ec 00       		.byte	0
 3169 00ed 00       		.byte	0
 3170 00ee 12       		.uleb128 0x12
 3171 00ef 2E       		.uleb128 0x2e
 3172 00f0 00       		.byte	0
 3173 00f1 3F       		.uleb128 0x3f
 3174 00f2 19       		.uleb128 0x19
 3175 00f3 03       		.uleb128 0x3
 3176 00f4 0E       		.uleb128 0xe
 3177 00f5 3A       		.uleb128 0x3a
 3178 00f6 0B       		.uleb128 0xb
 3179 00f7 3B       		.uleb128 0x3b
 3180 00f8 05       		.uleb128 0x5
 3181 00f9 27       		.uleb128 0x27
 3182 00fa 19       		.uleb128 0x19
 3183 00fb 11       		.uleb128 0x11
 3184 00fc 01       		.uleb128 0x1
 3185 00fd 12       		.uleb128 0x12
 3186 00fe 06       		.uleb128 0x6
 3187 00ff 40       		.uleb128 0x40
 3188 0100 18       		.uleb128 0x18
 3189 0101 9742     		.uleb128 0x2117
 3190 0103 19       		.uleb128 0x19
 3191 0104 00       		.byte	0
 3192 0105 00       		.byte	0
ARM GAS  /tmp/ccs5Nv5k.s 			page 57


 3193 0106 13       		.uleb128 0x13
 3194 0107 34       		.uleb128 0x34
 3195 0108 00       		.byte	0
 3196 0109 03       		.uleb128 0x3
 3197 010a 0E       		.uleb128 0xe
 3198 010b 3A       		.uleb128 0x3a
 3199 010c 0B       		.uleb128 0xb
 3200 010d 3B       		.uleb128 0x3b
 3201 010e 05       		.uleb128 0x5
 3202 010f 49       		.uleb128 0x49
 3203 0110 13       		.uleb128 0x13
 3204 0111 02       		.uleb128 0x2
 3205 0112 17       		.uleb128 0x17
 3206 0113 00       		.byte	0
 3207 0114 00       		.byte	0
 3208 0115 14       		.uleb128 0x14
 3209 0116 2E       		.uleb128 0x2e
 3210 0117 00       		.byte	0
 3211 0118 3F       		.uleb128 0x3f
 3212 0119 19       		.uleb128 0x19
 3213 011a 03       		.uleb128 0x3
 3214 011b 0E       		.uleb128 0xe
 3215 011c 3A       		.uleb128 0x3a
 3216 011d 0B       		.uleb128 0xb
 3217 011e 3B       		.uleb128 0x3b
 3218 011f 05       		.uleb128 0x5
 3219 0120 27       		.uleb128 0x27
 3220 0121 19       		.uleb128 0x19
 3221 0122 49       		.uleb128 0x49
 3222 0123 13       		.uleb128 0x13
 3223 0124 11       		.uleb128 0x11
 3224 0125 01       		.uleb128 0x1
 3225 0126 12       		.uleb128 0x12
 3226 0127 06       		.uleb128 0x6
 3227 0128 40       		.uleb128 0x40
 3228 0129 18       		.uleb128 0x18
 3229 012a 9742     		.uleb128 0x2117
 3230 012c 19       		.uleb128 0x19
 3231 012d 00       		.byte	0
 3232 012e 00       		.byte	0
 3233 012f 15       		.uleb128 0x15
 3234 0130 2E       		.uleb128 0x2e
 3235 0131 01       		.byte	0x1
 3236 0132 3F       		.uleb128 0x3f
 3237 0133 19       		.uleb128 0x19
 3238 0134 03       		.uleb128 0x3
 3239 0135 0E       		.uleb128 0xe
 3240 0136 3A       		.uleb128 0x3a
 3241 0137 0B       		.uleb128 0xb
 3242 0138 3B       		.uleb128 0x3b
 3243 0139 05       		.uleb128 0x5
 3244 013a 27       		.uleb128 0x27
 3245 013b 19       		.uleb128 0x19
 3246 013c 49       		.uleb128 0x49
 3247 013d 13       		.uleb128 0x13
 3248 013e 11       		.uleb128 0x11
 3249 013f 01       		.uleb128 0x1
ARM GAS  /tmp/ccs5Nv5k.s 			page 58


 3250 0140 12       		.uleb128 0x12
 3251 0141 06       		.uleb128 0x6
 3252 0142 40       		.uleb128 0x40
 3253 0143 18       		.uleb128 0x18
 3254 0144 9742     		.uleb128 0x2117
 3255 0146 19       		.uleb128 0x19
 3256 0147 01       		.uleb128 0x1
 3257 0148 13       		.uleb128 0x13
 3258 0149 00       		.byte	0
 3259 014a 00       		.byte	0
 3260 014b 16       		.uleb128 0x16
 3261 014c 2E       		.uleb128 0x2e
 3262 014d 01       		.byte	0x1
 3263 014e 31       		.uleb128 0x31
 3264 014f 13       		.uleb128 0x13
 3265 0150 11       		.uleb128 0x11
 3266 0151 01       		.uleb128 0x1
 3267 0152 12       		.uleb128 0x12
 3268 0153 06       		.uleb128 0x6
 3269 0154 40       		.uleb128 0x40
 3270 0155 18       		.uleb128 0x18
 3271 0156 9742     		.uleb128 0x2117
 3272 0158 19       		.uleb128 0x19
 3273 0159 01       		.uleb128 0x1
 3274 015a 13       		.uleb128 0x13
 3275 015b 00       		.byte	0
 3276 015c 00       		.byte	0
 3277 015d 17       		.uleb128 0x17
 3278 015e 34       		.uleb128 0x34
 3279 015f 00       		.byte	0
 3280 0160 31       		.uleb128 0x31
 3281 0161 13       		.uleb128 0x13
 3282 0162 02       		.uleb128 0x2
 3283 0163 17       		.uleb128 0x17
 3284 0164 00       		.byte	0
 3285 0165 00       		.byte	0
 3286 0166 18       		.uleb128 0x18
 3287 0167 0B       		.uleb128 0xb
 3288 0168 01       		.byte	0x1
 3289 0169 11       		.uleb128 0x11
 3290 016a 01       		.uleb128 0x1
 3291 016b 12       		.uleb128 0x12
 3292 016c 06       		.uleb128 0x6
 3293 016d 00       		.byte	0
 3294 016e 00       		.byte	0
 3295 016f 19       		.uleb128 0x19
 3296 0170 34       		.uleb128 0x34
 3297 0171 00       		.byte	0
 3298 0172 31       		.uleb128 0x31
 3299 0173 13       		.uleb128 0x13
 3300 0174 00       		.byte	0
 3301 0175 00       		.byte	0
 3302 0176 1A       		.uleb128 0x1a
 3303 0177 34       		.uleb128 0x34
 3304 0178 00       		.byte	0
 3305 0179 03       		.uleb128 0x3
 3306 017a 0E       		.uleb128 0xe
ARM GAS  /tmp/ccs5Nv5k.s 			page 59


 3307 017b 3A       		.uleb128 0x3a
 3308 017c 0B       		.uleb128 0xb
 3309 017d 3B       		.uleb128 0x3b
 3310 017e 05       		.uleb128 0x5
 3311 017f 49       		.uleb128 0x49
 3312 0180 13       		.uleb128 0x13
 3313 0181 02       		.uleb128 0x2
 3314 0182 18       		.uleb128 0x18
 3315 0183 00       		.byte	0
 3316 0184 00       		.byte	0
 3317 0185 1B       		.uleb128 0x1b
 3318 0186 898201   		.uleb128 0x4109
 3319 0189 00       		.byte	0
 3320 018a 11       		.uleb128 0x11
 3321 018b 01       		.uleb128 0x1
 3322 018c 31       		.uleb128 0x31
 3323 018d 13       		.uleb128 0x13
 3324 018e 00       		.byte	0
 3325 018f 00       		.byte	0
 3326 0190 1C       		.uleb128 0x1c
 3327 0191 34       		.uleb128 0x34
 3328 0192 00       		.byte	0
 3329 0193 03       		.uleb128 0x3
 3330 0194 0E       		.uleb128 0xe
 3331 0195 3A       		.uleb128 0x3a
 3332 0196 0B       		.uleb128 0xb
 3333 0197 3B       		.uleb128 0x3b
 3334 0198 05       		.uleb128 0x5
 3335 0199 49       		.uleb128 0x49
 3336 019a 13       		.uleb128 0x13
 3337 019b 1C       		.uleb128 0x1c
 3338 019c 0B       		.uleb128 0xb
 3339 019d 00       		.byte	0
 3340 019e 00       		.byte	0
 3341 019f 1D       		.uleb128 0x1d
 3342 01a0 898201   		.uleb128 0x4109
 3343 01a3 00       		.byte	0
 3344 01a4 11       		.uleb128 0x11
 3345 01a5 01       		.uleb128 0x1
 3346 01a6 9542     		.uleb128 0x2115
 3347 01a8 19       		.uleb128 0x19
 3348 01a9 31       		.uleb128 0x31
 3349 01aa 13       		.uleb128 0x13
 3350 01ab 00       		.byte	0
 3351 01ac 00       		.byte	0
 3352 01ad 1E       		.uleb128 0x1e
 3353 01ae 34       		.uleb128 0x34
 3354 01af 00       		.byte	0
 3355 01b0 03       		.uleb128 0x3
 3356 01b1 0E       		.uleb128 0xe
 3357 01b2 3A       		.uleb128 0x3a
 3358 01b3 0B       		.uleb128 0xb
 3359 01b4 3B       		.uleb128 0x3b
 3360 01b5 05       		.uleb128 0x5
 3361 01b6 49       		.uleb128 0x49
 3362 01b7 13       		.uleb128 0x13
 3363 01b8 3F       		.uleb128 0x3f
ARM GAS  /tmp/ccs5Nv5k.s 			page 60


 3364 01b9 19       		.uleb128 0x19
 3365 01ba 3C       		.uleb128 0x3c
 3366 01bb 19       		.uleb128 0x19
 3367 01bc 00       		.byte	0
 3368 01bd 00       		.byte	0
 3369 01be 00       		.byte	0
 3370              		.section	.debug_loc,"",%progbits
 3371              	.Ldebug_loc0:
 3372              	.LLST0:
 3373 0000 00000000 		.4byte	.LVL0
 3374 0004 04000000 		.4byte	.LVL1
 3375 0008 0100     		.2byte	0x1
 3376 000a 50       		.byte	0x50
 3377 000b 04000000 		.4byte	.LVL1
 3378 000f 0C000000 		.4byte	.LFE112
 3379 0013 0400     		.2byte	0x4
 3380 0015 F3       		.byte	0xf3
 3381 0016 01       		.uleb128 0x1
 3382 0017 50       		.byte	0x50
 3383 0018 9F       		.byte	0x9f
 3384 0019 00000000 		.4byte	0
 3385 001d 00000000 		.4byte	0
 3386              	.LLST1:
 3387 0021 00000000 		.4byte	.LVL5
 3388 0025 0A000000 		.4byte	.LVL8
 3389 0029 0100     		.2byte	0x1
 3390 002b 50       		.byte	0x50
 3391 002c 0A000000 		.4byte	.LVL8
 3392 0030 14000000 		.4byte	.LFE132
 3393 0034 0400     		.2byte	0x4
 3394 0036 F3       		.byte	0xf3
 3395 0037 01       		.uleb128 0x1
 3396 0038 50       		.byte	0x50
 3397 0039 9F       		.byte	0x9f
 3398 003a 00000000 		.4byte	0
 3399 003e 00000000 		.4byte	0
 3400              	.LLST2:
 3401 0042 00000000 		.4byte	.LVL5
 3402 0046 04000000 		.4byte	.LVL6
 3403 004a 0300     		.2byte	0x3
 3404 004c 09       		.byte	0x9
 3405 004d FF       		.byte	0xff
 3406 004e 9F       		.byte	0x9f
 3407 004f 04000000 		.4byte	.LVL6
 3408 0053 08000000 		.4byte	.LVL7
 3409 0057 0600     		.2byte	0x6
 3410 0059 73       		.byte	0x73
 3411 005a 00       		.sleb128 0
 3412 005b 08       		.byte	0x8
 3413 005c 7F       		.byte	0x7f
 3414 005d 1A       		.byte	0x1a
 3415 005e 9F       		.byte	0x9f
 3416 005f 00000000 		.4byte	0
 3417 0063 00000000 		.4byte	0
 3418              	.LLST3:
 3419 0067 00000000 		.4byte	.LVL9
 3420 006b 0E000000 		.4byte	.LVL10
ARM GAS  /tmp/ccs5Nv5k.s 			page 61


 3421 006f 0100     		.2byte	0x1
 3422 0071 50       		.byte	0x50
 3423 0072 0E000000 		.4byte	.LVL10
 3424 0076 18000000 		.4byte	.LFE137
 3425 007a 0400     		.2byte	0x4
 3426 007c F3       		.byte	0xf3
 3427 007d 01       		.uleb128 0x1
 3428 007e 50       		.byte	0x50
 3429 007f 9F       		.byte	0x9f
 3430 0080 00000000 		.4byte	0
 3431 0084 00000000 		.4byte	0
 3432              	.LLST4:
 3433 0088 00000000 		.4byte	.LVL11
 3434 008c 0E000000 		.4byte	.LVL12
 3435 0090 0100     		.2byte	0x1
 3436 0092 50       		.byte	0x50
 3437 0093 0E000000 		.4byte	.LVL12
 3438 0097 18000000 		.4byte	.LFE138
 3439 009b 0400     		.2byte	0x4
 3440 009d F3       		.byte	0xf3
 3441 009e 01       		.uleb128 0x1
 3442 009f 50       		.byte	0x50
 3443 00a0 9F       		.byte	0x9f
 3444 00a1 00000000 		.4byte	0
 3445 00a5 00000000 		.4byte	0
 3446              	.LLST5:
 3447 00a9 00000000 		.4byte	.LVL13
 3448 00ad 04000000 		.4byte	.LVL14
 3449 00b1 0200     		.2byte	0x2
 3450 00b3 30       		.byte	0x30
 3451 00b4 9F       		.byte	0x9f
 3452 00b5 04000000 		.4byte	.LVL14
 3453 00b9 06000000 		.4byte	.LVL15
 3454 00bd 0900     		.2byte	0x9
 3455 00bf 70       		.byte	0x70
 3456 00c0 00       		.sleb128 0
 3457 00c1 08       		.byte	0x8
 3458 00c2 FF       		.byte	0xff
 3459 00c3 1A       		.byte	0x1a
 3460 00c4 08       		.byte	0x8
 3461 00c5 AA       		.byte	0xaa
 3462 00c6 2E       		.byte	0x2e
 3463 00c7 9F       		.byte	0x9f
 3464 00c8 00000000 		.4byte	0
 3465 00cc 00000000 		.4byte	0
 3466              	.LLST6:
 3467 00d0 00000000 		.4byte	.LVL16
 3468 00d4 0A000000 		.4byte	.LVL17
 3469 00d8 0100     		.2byte	0x1
 3470 00da 50       		.byte	0x50
 3471 00db 0A000000 		.4byte	.LVL17
 3472 00df 0E000000 		.4byte	.LVL18
 3473 00e3 0400     		.2byte	0x4
 3474 00e5 F3       		.byte	0xf3
 3475 00e6 01       		.uleb128 0x1
 3476 00e7 50       		.byte	0x50
 3477 00e8 9F       		.byte	0x9f
ARM GAS  /tmp/ccs5Nv5k.s 			page 62


 3478 00e9 0E000000 		.4byte	.LVL18
 3479 00ed 10000000 		.4byte	.LVL19
 3480 00f1 0100     		.2byte	0x1
 3481 00f3 50       		.byte	0x50
 3482 00f4 10000000 		.4byte	.LVL19
 3483 00f8 18000000 		.4byte	.LFE147
 3484 00fc 0400     		.2byte	0x4
 3485 00fe F3       		.byte	0xf3
 3486 00ff 01       		.uleb128 0x1
 3487 0100 50       		.byte	0x50
 3488 0101 9F       		.byte	0x9f
 3489 0102 00000000 		.4byte	0
 3490 0106 00000000 		.4byte	0
 3491              	.LLST7:
 3492 010a 00000000 		.4byte	.LVL20
 3493 010e 0A000000 		.4byte	.LVL22
 3494 0112 0100     		.2byte	0x1
 3495 0114 50       		.byte	0x50
 3496 0115 0A000000 		.4byte	.LVL22
 3497 0119 14000000 		.4byte	.LFE148
 3498 011d 0400     		.2byte	0x4
 3499 011f F3       		.byte	0xf3
 3500 0120 01       		.uleb128 0x1
 3501 0121 50       		.byte	0x50
 3502 0122 9F       		.byte	0x9f
 3503 0123 00000000 		.4byte	0
 3504 0127 00000000 		.4byte	0
 3505              	.LLST8:
 3506 012b 00000000 		.4byte	.LVL20
 3507 012f 04000000 		.4byte	.LVL21
 3508 0133 0200     		.2byte	0x2
 3509 0135 30       		.byte	0x30
 3510 0136 9F       		.byte	0x9f
 3511 0137 04000000 		.4byte	.LVL21
 3512 013b 0A000000 		.4byte	.LVL22
 3513 013f 0800     		.2byte	0x8
 3514 0141 70       		.byte	0x70
 3515 0142 00       		.sleb128 0
 3516 0143 73       		.byte	0x73
 3517 0144 00       		.sleb128 0
 3518 0145 1A       		.byte	0x1a
 3519 0146 30       		.byte	0x30
 3520 0147 2E       		.byte	0x2e
 3521 0148 9F       		.byte	0x9f
 3522 0149 0A000000 		.4byte	.LVL22
 3523 014d 14000000 		.4byte	.LFE148
 3524 0151 0900     		.2byte	0x9
 3525 0153 F3       		.byte	0xf3
 3526 0154 01       		.uleb128 0x1
 3527 0155 50       		.byte	0x50
 3528 0156 73       		.byte	0x73
 3529 0157 00       		.sleb128 0
 3530 0158 1A       		.byte	0x1a
 3531 0159 30       		.byte	0x30
 3532 015a 2E       		.byte	0x2e
 3533 015b 9F       		.byte	0x9f
 3534 015c 00000000 		.4byte	0
ARM GAS  /tmp/ccs5Nv5k.s 			page 63


 3535 0160 00000000 		.4byte	0
 3536              	.LLST9:
 3537 0164 00000000 		.4byte	.LVL24
 3538 0168 2A000000 		.4byte	.LVL25
 3539 016c 0200     		.2byte	0x2
 3540 016e 39       		.byte	0x39
 3541 016f 9F       		.byte	0x9f
 3542 0170 2A000000 		.4byte	.LVL25
 3543 0174 2C000000 		.4byte	.LVL26
 3544 0178 0100     		.2byte	0x1
 3545 017a 50       		.byte	0x50
 3546 017b 2C000000 		.4byte	.LVL26
 3547 017f 40000000 		.4byte	.LFE150
 3548 0183 0200     		.2byte	0x2
 3549 0185 39       		.byte	0x39
 3550 0186 9F       		.byte	0x9f
 3551 0187 00000000 		.4byte	0
 3552 018b 00000000 		.4byte	0
 3553              	.LLST10:
 3554 018f 00000000 		.4byte	.LVL28
 3555 0193 19000000 		.4byte	.LVL30-1
 3556 0197 0100     		.2byte	0x1
 3557 0199 50       		.byte	0x50
 3558 019a 19000000 		.4byte	.LVL30-1
 3559 019e 3E000000 		.4byte	.LVL31
 3560 01a2 0100     		.2byte	0x1
 3561 01a4 56       		.byte	0x56
 3562 01a5 3E000000 		.4byte	.LVL31
 3563 01a9 5E000000 		.4byte	.LVL33
 3564 01ad 0400     		.2byte	0x4
 3565 01af F3       		.byte	0xf3
 3566 01b0 01       		.uleb128 0x1
 3567 01b1 50       		.byte	0x50
 3568 01b2 9F       		.byte	0x9f
 3569 01b3 5E000000 		.4byte	.LVL33
 3570 01b7 63000000 		.4byte	.LVL35-1
 3571 01bb 0100     		.2byte	0x1
 3572 01bd 50       		.byte	0x50
 3573 01be 63000000 		.4byte	.LVL35-1
 3574 01c2 6A000000 		.4byte	.LVL36
 3575 01c6 0100     		.2byte	0x1
 3576 01c8 56       		.byte	0x56
 3577 01c9 6A000000 		.4byte	.LVL36
 3578 01cd 74000000 		.4byte	.LFE120
 3579 01d1 0100     		.2byte	0x1
 3580 01d3 50       		.byte	0x50
 3581 01d4 00000000 		.4byte	0
 3582 01d8 00000000 		.4byte	0
 3583              	.LLST11:
 3584 01dc 00000000 		.4byte	.LVL28
 3585 01e0 19000000 		.4byte	.LVL30-1
 3586 01e4 0100     		.2byte	0x1
 3587 01e6 51       		.byte	0x51
 3588 01e7 19000000 		.4byte	.LVL30-1
 3589 01eb 5E000000 		.4byte	.LVL33
 3590 01ef 0400     		.2byte	0x4
 3591 01f1 F3       		.byte	0xf3
ARM GAS  /tmp/ccs5Nv5k.s 			page 64


 3592 01f2 01       		.uleb128 0x1
 3593 01f3 51       		.byte	0x51
 3594 01f4 9F       		.byte	0x9f
 3595 01f5 5E000000 		.4byte	.LVL33
 3596 01f9 63000000 		.4byte	.LVL35-1
 3597 01fd 0100     		.2byte	0x1
 3598 01ff 51       		.byte	0x51
 3599 0200 63000000 		.4byte	.LVL35-1
 3600 0204 6A000000 		.4byte	.LVL36
 3601 0208 0400     		.2byte	0x4
 3602 020a F3       		.byte	0xf3
 3603 020b 01       		.uleb128 0x1
 3604 020c 51       		.byte	0x51
 3605 020d 9F       		.byte	0x9f
 3606 020e 6A000000 		.4byte	.LVL36
 3607 0212 74000000 		.4byte	.LFE120
 3608 0216 0100     		.2byte	0x1
 3609 0218 51       		.byte	0x51
 3610 0219 00000000 		.4byte	0
 3611 021d 00000000 		.4byte	0
 3612              	.LLST12:
 3613 0221 00000000 		.4byte	.LVL28
 3614 0225 16000000 		.4byte	.LVL29
 3615 0229 0200     		.2byte	0x2
 3616 022b 30       		.byte	0x30
 3617 022c 9F       		.byte	0x9f
 3618 022d 16000000 		.4byte	.LVL29
 3619 0231 5E000000 		.4byte	.LVL33
 3620 0235 0100     		.2byte	0x1
 3621 0237 54       		.byte	0x54
 3622 0238 5E000000 		.4byte	.LVL33
 3623 023c 60000000 		.4byte	.LVL34
 3624 0240 0200     		.2byte	0x2
 3625 0242 30       		.byte	0x30
 3626 0243 9F       		.byte	0x9f
 3627 0244 60000000 		.4byte	.LVL34
 3628 0248 6A000000 		.4byte	.LVL36
 3629 024c 0100     		.2byte	0x1
 3630 024e 54       		.byte	0x54
 3631 024f 6A000000 		.4byte	.LVL36
 3632 0253 74000000 		.4byte	.LFE120
 3633 0257 0200     		.2byte	0x2
 3634 0259 30       		.byte	0x30
 3635 025a 9F       		.byte	0x9f
 3636 025b 00000000 		.4byte	0
 3637 025f 00000000 		.4byte	0
 3638              	.LLST13:
 3639 0263 00000000 		.4byte	.LVL28
 3640 0267 1A000000 		.4byte	.LVL30
 3641 026b 0200     		.2byte	0x2
 3642 026d 39       		.byte	0x39
 3643 026e 9F       		.byte	0x9f
 3644 026f 1A000000 		.4byte	.LVL30
 3645 0273 4B000000 		.4byte	.LVL32-1
 3646 0277 0100     		.2byte	0x1
 3647 0279 50       		.byte	0x50
 3648 027a 4C000000 		.4byte	.LVL32
ARM GAS  /tmp/ccs5Nv5k.s 			page 65


 3649 027e 5E000000 		.4byte	.LVL33
 3650 0282 0100     		.2byte	0x1
 3651 0284 50       		.byte	0x50
 3652 0285 5E000000 		.4byte	.LVL33
 3653 0289 64000000 		.4byte	.LVL35
 3654 028d 0200     		.2byte	0x2
 3655 028f 39       		.byte	0x39
 3656 0290 9F       		.byte	0x9f
 3657 0291 64000000 		.4byte	.LVL35
 3658 0295 6A000000 		.4byte	.LVL36
 3659 0299 0100     		.2byte	0x1
 3660 029b 50       		.byte	0x50
 3661 029c 6A000000 		.4byte	.LVL36
 3662 02a0 74000000 		.4byte	.LFE120
 3663 02a4 0200     		.2byte	0x2
 3664 02a6 39       		.byte	0x39
 3665 02a7 9F       		.byte	0x9f
 3666 02a8 00000000 		.4byte	0
 3667 02ac 00000000 		.4byte	0
 3668              	.LLST14:
 3669 02b0 00000000 		.4byte	.LVL37
 3670 02b4 07000000 		.4byte	.LVL38-1
 3671 02b8 0100     		.2byte	0x1
 3672 02ba 50       		.byte	0x50
 3673 02bb 07000000 		.4byte	.LVL38-1
 3674 02bf 5C000000 		.4byte	.LFE121
 3675 02c3 0400     		.2byte	0x4
 3676 02c5 F3       		.byte	0xf3
 3677 02c6 01       		.uleb128 0x1
 3678 02c7 50       		.byte	0x50
 3679 02c8 9F       		.byte	0x9f
 3680 02c9 00000000 		.4byte	0
 3681 02cd 00000000 		.4byte	0
 3682              	.LLST15:
 3683 02d1 00000000 		.4byte	.LVL37
 3684 02d5 1A000000 		.4byte	.LVL39
 3685 02d9 0200     		.2byte	0x2
 3686 02db 30       		.byte	0x30
 3687 02dc 9F       		.byte	0x9f
 3688 02dd 1A000000 		.4byte	.LVL39
 3689 02e1 20000000 		.4byte	.LVL40
 3690 02e5 0100     		.2byte	0x1
 3691 02e7 54       		.byte	0x54
 3692 02e8 20000000 		.4byte	.LVL40
 3693 02ec 26000000 		.4byte	.LVL41
 3694 02f0 0200     		.2byte	0x2
 3695 02f2 30       		.byte	0x30
 3696 02f3 9F       		.byte	0x9f
 3697 02f4 26000000 		.4byte	.LVL41
 3698 02f8 36000000 		.4byte	.LVL42
 3699 02fc 0100     		.2byte	0x1
 3700 02fe 54       		.byte	0x54
 3701 02ff 00000000 		.4byte	0
 3702 0303 00000000 		.4byte	0
 3703              	.LLST16:
 3704 0307 00000000 		.4byte	.LVL37
 3705 030b 08000000 		.4byte	.LVL38
ARM GAS  /tmp/ccs5Nv5k.s 			page 66


 3706 030f 0200     		.2byte	0x2
 3707 0311 39       		.byte	0x39
 3708 0312 9F       		.byte	0x9f
 3709 0313 08000000 		.4byte	.LVL38
 3710 0317 4B000000 		.4byte	.LVL43-1
 3711 031b 0100     		.2byte	0x1
 3712 031d 50       		.byte	0x50
 3713 031e 4C000000 		.4byte	.LVL43
 3714 0322 5C000000 		.4byte	.LFE121
 3715 0326 0100     		.2byte	0x1
 3716 0328 50       		.byte	0x50
 3717 0329 00000000 		.4byte	0
 3718 032d 00000000 		.4byte	0
 3719              	.LLST17:
 3720 0331 00000000 		.4byte	.LVL44
 3721 0335 07000000 		.4byte	.LVL45-1
 3722 0339 0100     		.2byte	0x1
 3723 033b 50       		.byte	0x50
 3724 033c 07000000 		.4byte	.LVL45-1
 3725 0340 5C000000 		.4byte	.LFE122
 3726 0344 0400     		.2byte	0x4
 3727 0346 F3       		.byte	0xf3
 3728 0347 01       		.uleb128 0x1
 3729 0348 50       		.byte	0x50
 3730 0349 9F       		.byte	0x9f
 3731 034a 00000000 		.4byte	0
 3732 034e 00000000 		.4byte	0
 3733              	.LLST18:
 3734 0352 00000000 		.4byte	.LVL44
 3735 0356 1A000000 		.4byte	.LVL46
 3736 035a 0200     		.2byte	0x2
 3737 035c 30       		.byte	0x30
 3738 035d 9F       		.byte	0x9f
 3739 035e 1A000000 		.4byte	.LVL46
 3740 0362 20000000 		.4byte	.LVL47
 3741 0366 0100     		.2byte	0x1
 3742 0368 54       		.byte	0x54
 3743 0369 20000000 		.4byte	.LVL47
 3744 036d 26000000 		.4byte	.LVL48
 3745 0371 0200     		.2byte	0x2
 3746 0373 30       		.byte	0x30
 3747 0374 9F       		.byte	0x9f
 3748 0375 26000000 		.4byte	.LVL48
 3749 0379 36000000 		.4byte	.LVL49
 3750 037d 0100     		.2byte	0x1
 3751 037f 54       		.byte	0x54
 3752 0380 00000000 		.4byte	0
 3753 0384 00000000 		.4byte	0
 3754              	.LLST19:
 3755 0388 00000000 		.4byte	.LVL44
 3756 038c 08000000 		.4byte	.LVL45
 3757 0390 0200     		.2byte	0x2
 3758 0392 39       		.byte	0x39
 3759 0393 9F       		.byte	0x9f
 3760 0394 08000000 		.4byte	.LVL45
 3761 0398 4B000000 		.4byte	.LVL50-1
 3762 039c 0100     		.2byte	0x1
ARM GAS  /tmp/ccs5Nv5k.s 			page 67


 3763 039e 50       		.byte	0x50
 3764 039f 4C000000 		.4byte	.LVL50
 3765 03a3 5C000000 		.4byte	.LFE122
 3766 03a7 0100     		.2byte	0x1
 3767 03a9 50       		.byte	0x50
 3768 03aa 00000000 		.4byte	0
 3769 03ae 00000000 		.4byte	0
 3770              	.LLST20:
 3771 03b2 00000000 		.4byte	.LVL51
 3772 03b6 07000000 		.4byte	.LVL52-1
 3773 03ba 0100     		.2byte	0x1
 3774 03bc 50       		.byte	0x50
 3775 03bd 07000000 		.4byte	.LVL52-1
 3776 03c1 5C000000 		.4byte	.LFE123
 3777 03c5 0400     		.2byte	0x4
 3778 03c7 F3       		.byte	0xf3
 3779 03c8 01       		.uleb128 0x1
 3780 03c9 50       		.byte	0x50
 3781 03ca 9F       		.byte	0x9f
 3782 03cb 00000000 		.4byte	0
 3783 03cf 00000000 		.4byte	0
 3784              	.LLST21:
 3785 03d3 00000000 		.4byte	.LVL51
 3786 03d7 1A000000 		.4byte	.LVL53
 3787 03db 0200     		.2byte	0x2
 3788 03dd 30       		.byte	0x30
 3789 03de 9F       		.byte	0x9f
 3790 03df 1A000000 		.4byte	.LVL53
 3791 03e3 20000000 		.4byte	.LVL54
 3792 03e7 0100     		.2byte	0x1
 3793 03e9 54       		.byte	0x54
 3794 03ea 20000000 		.4byte	.LVL54
 3795 03ee 26000000 		.4byte	.LVL55
 3796 03f2 0200     		.2byte	0x2
 3797 03f4 30       		.byte	0x30
 3798 03f5 9F       		.byte	0x9f
 3799 03f6 26000000 		.4byte	.LVL55
 3800 03fa 36000000 		.4byte	.LVL56
 3801 03fe 0100     		.2byte	0x1
 3802 0400 54       		.byte	0x54
 3803 0401 00000000 		.4byte	0
 3804 0405 00000000 		.4byte	0
 3805              	.LLST22:
 3806 0409 00000000 		.4byte	.LVL51
 3807 040d 08000000 		.4byte	.LVL52
 3808 0411 0200     		.2byte	0x2
 3809 0413 39       		.byte	0x39
 3810 0414 9F       		.byte	0x9f
 3811 0415 08000000 		.4byte	.LVL52
 3812 0419 4B000000 		.4byte	.LVL57-1
 3813 041d 0100     		.2byte	0x1
 3814 041f 50       		.byte	0x50
 3815 0420 4C000000 		.4byte	.LVL57
 3816 0424 5C000000 		.4byte	.LFE123
 3817 0428 0100     		.2byte	0x1
 3818 042a 50       		.byte	0x50
 3819 042b 00000000 		.4byte	0
ARM GAS  /tmp/ccs5Nv5k.s 			page 68


 3820 042f 00000000 		.4byte	0
 3821              	.LLST23:
 3822 0433 00000000 		.4byte	.LVL58
 3823 0437 0B000000 		.4byte	.LVL59-1
 3824 043b 0100     		.2byte	0x1
 3825 043d 50       		.byte	0x50
 3826 043e 0B000000 		.4byte	.LVL59-1
 3827 0442 3E000000 		.4byte	.LVL62
 3828 0446 0100     		.2byte	0x1
 3829 0448 55       		.byte	0x55
 3830 0449 3E000000 		.4byte	.LVL62
 3831 044d 44000000 		.4byte	.LFE124
 3832 0451 0400     		.2byte	0x4
 3833 0453 F3       		.byte	0xf3
 3834 0454 01       		.uleb128 0x1
 3835 0455 50       		.byte	0x50
 3836 0456 9F       		.byte	0x9f
 3837 0457 00000000 		.4byte	0
 3838 045b 00000000 		.4byte	0
 3839              	.LLST24:
 3840 045f 00000000 		.4byte	.LVL58
 3841 0463 0B000000 		.4byte	.LVL59-1
 3842 0467 0600     		.2byte	0x6
 3843 0469 52       		.byte	0x52
 3844 046a 93       		.byte	0x93
 3845 046b 04       		.uleb128 0x4
 3846 046c 53       		.byte	0x53
 3847 046d 93       		.byte	0x93
 3848 046e 04       		.uleb128 0x4
 3849 046f 0B000000 		.4byte	.LVL59-1
 3850 0473 44000000 		.4byte	.LFE124
 3851 0477 0600     		.2byte	0x6
 3852 0479 F3       		.byte	0xf3
 3853 047a 03       		.uleb128 0x3
 3854 047b F5       		.byte	0xf5
 3855 047c 02       		.uleb128 0x2
 3856 047d 25       		.uleb128 0x25
 3857 047e 9F       		.byte	0x9f
 3858 047f 00000000 		.4byte	0
 3859 0483 00000000 		.4byte	0
 3860              	.LLST25:
 3861 0487 00000000 		.4byte	.LVL58
 3862 048b 0C000000 		.4byte	.LVL59
 3863 048f 0200     		.2byte	0x2
 3864 0491 39       		.byte	0x39
 3865 0492 9F       		.byte	0x9f
 3866 0493 0C000000 		.4byte	.LVL59
 3867 0497 33000000 		.4byte	.LVL61-1
 3868 049b 0100     		.2byte	0x1
 3869 049d 50       		.byte	0x50
 3870 049e 34000000 		.4byte	.LVL61
 3871 04a2 44000000 		.4byte	.LFE124
 3872 04a6 0100     		.2byte	0x1
 3873 04a8 50       		.byte	0x50
 3874 04a9 00000000 		.4byte	0
 3875 04ad 00000000 		.4byte	0
 3876              	.LLST26:
ARM GAS  /tmp/ccs5Nv5k.s 			page 69


 3877 04b1 00000000 		.4byte	.LVL63
 3878 04b5 09000000 		.4byte	.LVL64-1
 3879 04b9 0100     		.2byte	0x1
 3880 04bb 50       		.byte	0x50
 3881 04bc 09000000 		.4byte	.LVL64-1
 3882 04c0 3A000000 		.4byte	.LVL67
 3883 04c4 0100     		.2byte	0x1
 3884 04c6 55       		.byte	0x55
 3885 04c7 3A000000 		.4byte	.LVL67
 3886 04cb 40000000 		.4byte	.LFE125
 3887 04cf 0400     		.2byte	0x4
 3888 04d1 F3       		.byte	0xf3
 3889 04d2 01       		.uleb128 0x1
 3890 04d3 50       		.byte	0x50
 3891 04d4 9F       		.byte	0x9f
 3892 04d5 00000000 		.4byte	0
 3893 04d9 00000000 		.4byte	0
 3894              	.LLST27:
 3895 04dd 00000000 		.4byte	.LVL63
 3896 04e1 09000000 		.4byte	.LVL64-1
 3897 04e5 0100     		.2byte	0x1
 3898 04e7 51       		.byte	0x51
 3899 04e8 09000000 		.4byte	.LVL64-1
 3900 04ec 3A000000 		.4byte	.LVL67
 3901 04f0 0100     		.2byte	0x1
 3902 04f2 56       		.byte	0x56
 3903 04f3 3A000000 		.4byte	.LVL67
 3904 04f7 40000000 		.4byte	.LFE125
 3905 04fb 0400     		.2byte	0x4
 3906 04fd F3       		.byte	0xf3
 3907 04fe 01       		.uleb128 0x1
 3908 04ff 51       		.byte	0x51
 3909 0500 9F       		.byte	0x9f
 3910 0501 00000000 		.4byte	0
 3911 0505 00000000 		.4byte	0
 3912              	.LLST28:
 3913 0509 00000000 		.4byte	.LVL63
 3914 050d 0A000000 		.4byte	.LVL64
 3915 0511 0200     		.2byte	0x2
 3916 0513 39       		.byte	0x39
 3917 0514 9F       		.byte	0x9f
 3918 0515 0A000000 		.4byte	.LVL64
 3919 0519 2F000000 		.4byte	.LVL66-1
 3920 051d 0100     		.2byte	0x1
 3921 051f 50       		.byte	0x50
 3922 0520 30000000 		.4byte	.LVL66
 3923 0524 40000000 		.4byte	.LFE125
 3924 0528 0100     		.2byte	0x1
 3925 052a 50       		.byte	0x50
 3926 052b 00000000 		.4byte	0
 3927 052f 00000000 		.4byte	0
 3928              	.LLST29:
 3929 0533 00000000 		.4byte	.LVL68
 3930 0537 09000000 		.4byte	.LVL69-1
 3931 053b 0100     		.2byte	0x1
 3932 053d 50       		.byte	0x50
 3933 053e 09000000 		.4byte	.LVL69-1
ARM GAS  /tmp/ccs5Nv5k.s 			page 70


 3934 0542 3A000000 		.4byte	.LVL72
 3935 0546 0100     		.2byte	0x1
 3936 0548 55       		.byte	0x55
 3937 0549 3A000000 		.4byte	.LVL72
 3938 054d 40000000 		.4byte	.LFE126
 3939 0551 0400     		.2byte	0x4
 3940 0553 F3       		.byte	0xf3
 3941 0554 01       		.uleb128 0x1
 3942 0555 50       		.byte	0x50
 3943 0556 9F       		.byte	0x9f
 3944 0557 00000000 		.4byte	0
 3945 055b 00000000 		.4byte	0
 3946              	.LLST30:
 3947 055f 00000000 		.4byte	.LVL68
 3948 0563 09000000 		.4byte	.LVL69-1
 3949 0567 0100     		.2byte	0x1
 3950 0569 51       		.byte	0x51
 3951 056a 09000000 		.4byte	.LVL69-1
 3952 056e 40000000 		.4byte	.LFE126
 3953 0572 0400     		.2byte	0x4
 3954 0574 F3       		.byte	0xf3
 3955 0575 01       		.uleb128 0x1
 3956 0576 51       		.byte	0x51
 3957 0577 9F       		.byte	0x9f
 3958 0578 00000000 		.4byte	0
 3959 057c 00000000 		.4byte	0
 3960              	.LLST31:
 3961 0580 00000000 		.4byte	.LVL68
 3962 0584 0A000000 		.4byte	.LVL69
 3963 0588 0200     		.2byte	0x2
 3964 058a 39       		.byte	0x39
 3965 058b 9F       		.byte	0x9f
 3966 058c 0A000000 		.4byte	.LVL69
 3967 0590 2F000000 		.4byte	.LVL71-1
 3968 0594 0100     		.2byte	0x1
 3969 0596 50       		.byte	0x50
 3970 0597 30000000 		.4byte	.LVL71
 3971 059b 40000000 		.4byte	.LFE126
 3972 059f 0100     		.2byte	0x1
 3973 05a1 50       		.byte	0x50
 3974 05a2 00000000 		.4byte	0
 3975 05a6 00000000 		.4byte	0
 3976              	.LLST32:
 3977 05aa 00000000 		.4byte	.LVL73
 3978 05ae 09000000 		.4byte	.LVL74-1
 3979 05b2 0100     		.2byte	0x1
 3980 05b4 50       		.byte	0x50
 3981 05b5 09000000 		.4byte	.LVL74-1
 3982 05b9 36000000 		.4byte	.LVL77
 3983 05bd 0100     		.2byte	0x1
 3984 05bf 55       		.byte	0x55
 3985 05c0 36000000 		.4byte	.LVL77
 3986 05c4 3C000000 		.4byte	.LFE127
 3987 05c8 0400     		.2byte	0x4
 3988 05ca F3       		.byte	0xf3
 3989 05cb 01       		.uleb128 0x1
 3990 05cc 50       		.byte	0x50
ARM GAS  /tmp/ccs5Nv5k.s 			page 71


 3991 05cd 9F       		.byte	0x9f
 3992 05ce 00000000 		.4byte	0
 3993 05d2 00000000 		.4byte	0
 3994              	.LLST33:
 3995 05d6 00000000 		.4byte	.LVL73
 3996 05da 09000000 		.4byte	.LVL74-1
 3997 05de 0100     		.2byte	0x1
 3998 05e0 51       		.byte	0x51
 3999 05e1 09000000 		.4byte	.LVL74-1
 4000 05e5 3C000000 		.4byte	.LFE127
 4001 05e9 0400     		.2byte	0x4
 4002 05eb F3       		.byte	0xf3
 4003 05ec 01       		.uleb128 0x1
 4004 05ed 51       		.byte	0x51
 4005 05ee 9F       		.byte	0x9f
 4006 05ef 00000000 		.4byte	0
 4007 05f3 00000000 		.4byte	0
 4008              	.LLST34:
 4009 05f7 00000000 		.4byte	.LVL73
 4010 05fb 0A000000 		.4byte	.LVL74
 4011 05ff 0200     		.2byte	0x2
 4012 0601 39       		.byte	0x39
 4013 0602 9F       		.byte	0x9f
 4014 0603 0A000000 		.4byte	.LVL74
 4015 0607 2B000000 		.4byte	.LVL76-1
 4016 060b 0100     		.2byte	0x1
 4017 060d 50       		.byte	0x50
 4018 060e 2C000000 		.4byte	.LVL76
 4019 0612 3C000000 		.4byte	.LFE127
 4020 0616 0100     		.2byte	0x1
 4021 0618 50       		.byte	0x50
 4022 0619 00000000 		.4byte	0
 4023 061d 00000000 		.4byte	0
 4024              	.LLST35:
 4025 0621 00000000 		.4byte	.LVL78
 4026 0625 09000000 		.4byte	.LVL79-1
 4027 0629 0100     		.2byte	0x1
 4028 062b 50       		.byte	0x50
 4029 062c 09000000 		.4byte	.LVL79-1
 4030 0630 28000000 		.4byte	.LVL83
 4031 0634 0100     		.2byte	0x1
 4032 0636 55       		.byte	0x55
 4033 0637 28000000 		.4byte	.LVL83
 4034 063b 2C000000 		.4byte	.LFE130
 4035 063f 0400     		.2byte	0x4
 4036 0641 F3       		.byte	0xf3
 4037 0642 01       		.uleb128 0x1
 4038 0643 50       		.byte	0x50
 4039 0644 9F       		.byte	0x9f
 4040 0645 00000000 		.4byte	0
 4041 0649 00000000 		.4byte	0
 4042              	.LLST36:
 4043 064d 00000000 		.4byte	.LVL78
 4044 0651 09000000 		.4byte	.LVL79-1
 4045 0655 0100     		.2byte	0x1
 4046 0657 51       		.byte	0x51
 4047 0658 09000000 		.4byte	.LVL79-1
ARM GAS  /tmp/ccs5Nv5k.s 			page 72


 4048 065c 2C000000 		.4byte	.LFE130
 4049 0660 0400     		.2byte	0x4
 4050 0662 F3       		.byte	0xf3
 4051 0663 01       		.uleb128 0x1
 4052 0664 51       		.byte	0x51
 4053 0665 9F       		.byte	0x9f
 4054 0666 00000000 		.4byte	0
 4055 066a 00000000 		.4byte	0
 4056              	.LLST37:
 4057 066e 00000000 		.4byte	.LVL78
 4058 0672 0A000000 		.4byte	.LVL79
 4059 0676 0200     		.2byte	0x2
 4060 0678 39       		.byte	0x39
 4061 0679 9F       		.byte	0x9f
 4062 067a 0A000000 		.4byte	.LVL79
 4063 067e 14000000 		.4byte	.LVL81
 4064 0682 0100     		.2byte	0x1
 4065 0684 50       		.byte	0x50
 4066 0685 00000000 		.4byte	0
 4067 0689 00000000 		.4byte	0
 4068              	.LLST38:
 4069 068d 00000000 		.4byte	.LVL84
 4070 0691 09000000 		.4byte	.LVL85-1
 4071 0695 0100     		.2byte	0x1
 4072 0697 50       		.byte	0x50
 4073 0698 09000000 		.4byte	.LVL85-1
 4074 069c 28000000 		.4byte	.LVL89
 4075 06a0 0100     		.2byte	0x1
 4076 06a2 55       		.byte	0x55
 4077 06a3 28000000 		.4byte	.LVL89
 4078 06a7 2C000000 		.4byte	.LFE131
 4079 06ab 0400     		.2byte	0x4
 4080 06ad F3       		.byte	0xf3
 4081 06ae 01       		.uleb128 0x1
 4082 06af 50       		.byte	0x50
 4083 06b0 9F       		.byte	0x9f
 4084 06b1 00000000 		.4byte	0
 4085 06b5 00000000 		.4byte	0
 4086              	.LLST39:
 4087 06b9 00000000 		.4byte	.LVL84
 4088 06bd 09000000 		.4byte	.LVL85-1
 4089 06c1 0100     		.2byte	0x1
 4090 06c3 51       		.byte	0x51
 4091 06c4 09000000 		.4byte	.LVL85-1
 4092 06c8 2C000000 		.4byte	.LFE131
 4093 06cc 0400     		.2byte	0x4
 4094 06ce F3       		.byte	0xf3
 4095 06cf 01       		.uleb128 0x1
 4096 06d0 51       		.byte	0x51
 4097 06d1 9F       		.byte	0x9f
 4098 06d2 00000000 		.4byte	0
 4099 06d6 00000000 		.4byte	0
 4100              	.LLST40:
 4101 06da 00000000 		.4byte	.LVL84
 4102 06de 0A000000 		.4byte	.LVL85
 4103 06e2 0200     		.2byte	0x2
 4104 06e4 39       		.byte	0x39
ARM GAS  /tmp/ccs5Nv5k.s 			page 73


 4105 06e5 9F       		.byte	0x9f
 4106 06e6 0A000000 		.4byte	.LVL85
 4107 06ea 14000000 		.4byte	.LVL87
 4108 06ee 0100     		.2byte	0x1
 4109 06f0 50       		.byte	0x50
 4110 06f1 00000000 		.4byte	0
 4111 06f5 00000000 		.4byte	0
 4112              	.LLST41:
 4113 06f9 00000000 		.4byte	.LVL90
 4114 06fd 09000000 		.4byte	.LVL91-1
 4115 0701 0100     		.2byte	0x1
 4116 0703 50       		.byte	0x50
 4117 0704 09000000 		.4byte	.LVL91-1
 4118 0708 28000000 		.4byte	.LVL95
 4119 070c 0100     		.2byte	0x1
 4120 070e 55       		.byte	0x55
 4121 070f 28000000 		.4byte	.LVL95
 4122 0713 2C000000 		.4byte	.LFE133
 4123 0717 0400     		.2byte	0x4
 4124 0719 F3       		.byte	0xf3
 4125 071a 01       		.uleb128 0x1
 4126 071b 50       		.byte	0x50
 4127 071c 9F       		.byte	0x9f
 4128 071d 00000000 		.4byte	0
 4129 0721 00000000 		.4byte	0
 4130              	.LLST42:
 4131 0725 00000000 		.4byte	.LVL90
 4132 0729 09000000 		.4byte	.LVL91-1
 4133 072d 0100     		.2byte	0x1
 4134 072f 51       		.byte	0x51
 4135 0730 09000000 		.4byte	.LVL91-1
 4136 0734 2C000000 		.4byte	.LFE133
 4137 0738 0400     		.2byte	0x4
 4138 073a F3       		.byte	0xf3
 4139 073b 01       		.uleb128 0x1
 4140 073c 51       		.byte	0x51
 4141 073d 9F       		.byte	0x9f
 4142 073e 00000000 		.4byte	0
 4143 0742 00000000 		.4byte	0
 4144              	.LLST43:
 4145 0746 00000000 		.4byte	.LVL90
 4146 074a 0A000000 		.4byte	.LVL91
 4147 074e 0200     		.2byte	0x2
 4148 0750 39       		.byte	0x39
 4149 0751 9F       		.byte	0x9f
 4150 0752 0A000000 		.4byte	.LVL91
 4151 0756 14000000 		.4byte	.LVL93
 4152 075a 0100     		.2byte	0x1
 4153 075c 50       		.byte	0x50
 4154 075d 00000000 		.4byte	0
 4155 0761 00000000 		.4byte	0
 4156              	.LLST44:
 4157 0765 00000000 		.4byte	.LVL96
 4158 0769 09000000 		.4byte	.LVL97-1
 4159 076d 0100     		.2byte	0x1
 4160 076f 50       		.byte	0x50
 4161 0770 09000000 		.4byte	.LVL97-1
ARM GAS  /tmp/ccs5Nv5k.s 			page 74


 4162 0774 28000000 		.4byte	.LVL101
 4163 0778 0100     		.2byte	0x1
 4164 077a 55       		.byte	0x55
 4165 077b 28000000 		.4byte	.LVL101
 4166 077f 2C000000 		.4byte	.LFE134
 4167 0783 0400     		.2byte	0x4
 4168 0785 F3       		.byte	0xf3
 4169 0786 01       		.uleb128 0x1
 4170 0787 50       		.byte	0x50
 4171 0788 9F       		.byte	0x9f
 4172 0789 00000000 		.4byte	0
 4173 078d 00000000 		.4byte	0
 4174              	.LLST45:
 4175 0791 00000000 		.4byte	.LVL96
 4176 0795 09000000 		.4byte	.LVL97-1
 4177 0799 0100     		.2byte	0x1
 4178 079b 51       		.byte	0x51
 4179 079c 09000000 		.4byte	.LVL97-1
 4180 07a0 2C000000 		.4byte	.LFE134
 4181 07a4 0400     		.2byte	0x4
 4182 07a6 F3       		.byte	0xf3
 4183 07a7 01       		.uleb128 0x1
 4184 07a8 51       		.byte	0x51
 4185 07a9 9F       		.byte	0x9f
 4186 07aa 00000000 		.4byte	0
 4187 07ae 00000000 		.4byte	0
 4188              	.LLST46:
 4189 07b2 00000000 		.4byte	.LVL96
 4190 07b6 0A000000 		.4byte	.LVL97
 4191 07ba 0200     		.2byte	0x2
 4192 07bc 39       		.byte	0x39
 4193 07bd 9F       		.byte	0x9f
 4194 07be 0A000000 		.4byte	.LVL97
 4195 07c2 14000000 		.4byte	.LVL99
 4196 07c6 0100     		.2byte	0x1
 4197 07c8 50       		.byte	0x50
 4198 07c9 00000000 		.4byte	0
 4199 07cd 00000000 		.4byte	0
 4200              	.LLST47:
 4201 07d1 00000000 		.4byte	.LVL102
 4202 07d5 07000000 		.4byte	.LVL103-1
 4203 07d9 0100     		.2byte	0x1
 4204 07db 50       		.byte	0x50
 4205 07dc 07000000 		.4byte	.LVL103-1
 4206 07e0 18000000 		.4byte	.LFE135
 4207 07e4 0400     		.2byte	0x4
 4208 07e6 F3       		.byte	0xf3
 4209 07e7 01       		.uleb128 0x1
 4210 07e8 50       		.byte	0x50
 4211 07e9 9F       		.byte	0x9f
 4212 07ea 00000000 		.4byte	0
 4213 07ee 00000000 		.4byte	0
 4214              	.LLST48:
 4215 07f2 00000000 		.4byte	.LVL102
 4216 07f6 08000000 		.4byte	.LVL103
 4217 07fa 0200     		.2byte	0x2
 4218 07fc 39       		.byte	0x39
ARM GAS  /tmp/ccs5Nv5k.s 			page 75


 4219 07fd 9F       		.byte	0x9f
 4220 07fe 08000000 		.4byte	.LVL103
 4221 0802 18000000 		.4byte	.LFE135
 4222 0806 0100     		.2byte	0x1
 4223 0808 50       		.byte	0x50
 4224 0809 00000000 		.4byte	0
 4225 080d 00000000 		.4byte	0
 4226              	.LLST49:
 4227 0811 00000000 		.4byte	.LVL104
 4228 0815 0B000000 		.4byte	.LVL105-1
 4229 0819 0100     		.2byte	0x1
 4230 081b 50       		.byte	0x50
 4231 081c 0B000000 		.4byte	.LVL105-1
 4232 0820 28000000 		.4byte	.LFE136
 4233 0824 0400     		.2byte	0x4
 4234 0826 F3       		.byte	0xf3
 4235 0827 01       		.uleb128 0x1
 4236 0828 50       		.byte	0x50
 4237 0829 9F       		.byte	0x9f
 4238 082a 00000000 		.4byte	0
 4239 082e 00000000 		.4byte	0
 4240              	.LLST50:
 4241 0832 00000000 		.4byte	.LVL104
 4242 0836 0B000000 		.4byte	.LVL105-1
 4243 083a 0100     		.2byte	0x1
 4244 083c 51       		.byte	0x51
 4245 083d 0B000000 		.4byte	.LVL105-1
 4246 0841 28000000 		.4byte	.LFE136
 4247 0845 0400     		.2byte	0x4
 4248 0847 F3       		.byte	0xf3
 4249 0848 01       		.uleb128 0x1
 4250 0849 51       		.byte	0x51
 4251 084a 9F       		.byte	0x9f
 4252 084b 00000000 		.4byte	0
 4253 084f 00000000 		.4byte	0
 4254              	.LLST51:
 4255 0853 00000000 		.4byte	.LVL104
 4256 0857 0B000000 		.4byte	.LVL105-1
 4257 085b 0100     		.2byte	0x1
 4258 085d 52       		.byte	0x52
 4259 085e 0B000000 		.4byte	.LVL105-1
 4260 0862 28000000 		.4byte	.LFE136
 4261 0866 0400     		.2byte	0x4
 4262 0868 F3       		.byte	0xf3
 4263 0869 01       		.uleb128 0x1
 4264 086a 52       		.byte	0x52
 4265 086b 9F       		.byte	0x9f
 4266 086c 00000000 		.4byte	0
 4267 0870 00000000 		.4byte	0
 4268              	.LLST52:
 4269 0874 00000000 		.4byte	.LVL104
 4270 0878 14000000 		.4byte	.LVL106
 4271 087c 0300     		.2byte	0x3
 4272 087e 09       		.byte	0x9
 4273 087f FF       		.byte	0xff
 4274 0880 9F       		.byte	0x9f
 4275 0881 14000000 		.4byte	.LVL106
ARM GAS  /tmp/ccs5Nv5k.s 			page 76


 4276 0885 18000000 		.4byte	.LVL107
 4277 0889 0500     		.2byte	0x5
 4278 088b 71       		.byte	0x71
 4279 088c 00       		.sleb128 0
 4280 088d 3F       		.byte	0x3f
 4281 088e 1A       		.byte	0x1a
 4282 088f 9F       		.byte	0x9f
 4283 0890 00000000 		.4byte	0
 4284 0894 00000000 		.4byte	0
 4285              	.LLST53:
 4286 0898 00000000 		.4byte	.LVL104
 4287 089c 0C000000 		.4byte	.LVL105
 4288 08a0 0200     		.2byte	0x2
 4289 08a2 39       		.byte	0x39
 4290 08a3 9F       		.byte	0x9f
 4291 08a4 0C000000 		.4byte	.LVL105
 4292 08a8 28000000 		.4byte	.LFE136
 4293 08ac 0100     		.2byte	0x1
 4294 08ae 50       		.byte	0x50
 4295 08af 00000000 		.4byte	0
 4296 08b3 00000000 		.4byte	0
 4297              		.section	.debug_aranges,"",%progbits
 4298 0000 54010000 		.4byte	0x154
 4299 0004 0200     		.2byte	0x2
 4300 0006 00000000 		.4byte	.Ldebug_info0
 4301 000a 04       		.byte	0x4
 4302 000b 00       		.byte	0
 4303 000c 0000     		.2byte	0
 4304 000e 0000     		.2byte	0
 4305 0010 00000000 		.4byte	.LFB112
 4306 0014 0C000000 		.4byte	.LFE112-.LFB112
 4307 0018 00000000 		.4byte	.LFB113
 4308 001c 1C000000 		.4byte	.LFE113-.LFB113
 4309 0020 00000000 		.4byte	.LFB114
 4310 0024 1C000000 		.4byte	.LFE114-.LFB114
 4311 0028 00000000 		.4byte	.LFB115
 4312 002c 1C000000 		.4byte	.LFE115-.LFB115
 4313 0030 00000000 		.4byte	.LFB116
 4314 0034 10000000 		.4byte	.LFE116-.LFB116
 4315 0038 00000000 		.4byte	.LFB117
 4316 003c 10000000 		.4byte	.LFE117-.LFB117
 4317 0040 00000000 		.4byte	.LFB118
 4318 0044 20000000 		.4byte	.LFE118-.LFB118
 4319 0048 00000000 		.4byte	.LFB119
 4320 004c 10000000 		.4byte	.LFE119-.LFB119
 4321 0050 00000000 		.4byte	.LFB128
 4322 0054 20000000 		.4byte	.LFE128-.LFB128
 4323 0058 00000000 		.4byte	.LFB129
 4324 005c 10000000 		.4byte	.LFE129-.LFB129
 4325 0060 00000000 		.4byte	.LFB132
 4326 0064 14000000 		.4byte	.LFE132-.LFB132
 4327 0068 00000000 		.4byte	.LFB137
 4328 006c 18000000 		.4byte	.LFE137-.LFB137
 4329 0070 00000000 		.4byte	.LFB138
 4330 0074 18000000 		.4byte	.LFE138-.LFB138
 4331 0078 00000000 		.4byte	.LFB140
 4332 007c 10000000 		.4byte	.LFE140-.LFB140
ARM GAS  /tmp/ccs5Nv5k.s 			page 77


 4333 0080 00000000 		.4byte	.LFB141
 4334 0084 0C000000 		.4byte	.LFE141-.LFB141
 4335 0088 00000000 		.4byte	.LFB142
 4336 008c 0C000000 		.4byte	.LFE142-.LFB142
 4337 0090 00000000 		.4byte	.LFB143
 4338 0094 0C000000 		.4byte	.LFE143-.LFB143
 4339 0098 00000000 		.4byte	.LFB144
 4340 009c 0C000000 		.4byte	.LFE144-.LFB144
 4341 00a0 00000000 		.4byte	.LFB145
 4342 00a4 10000000 		.4byte	.LFE145-.LFB145
 4343 00a8 00000000 		.4byte	.LFB146
 4344 00ac 10000000 		.4byte	.LFE146-.LFB146
 4345 00b0 00000000 		.4byte	.LFB147
 4346 00b4 18000000 		.4byte	.LFE147-.LFB147
 4347 00b8 00000000 		.4byte	.LFB148
 4348 00bc 14000000 		.4byte	.LFE148-.LFB148
 4349 00c0 00000000 		.4byte	.LFB149
 4350 00c4 0C000000 		.4byte	.LFE149-.LFB149
 4351 00c8 00000000 		.4byte	.LFB150
 4352 00cc 40000000 		.4byte	.LFE150-.LFB150
 4353 00d0 00000000 		.4byte	.LFB151
 4354 00d4 26000000 		.4byte	.LFE151-.LFB151
 4355 00d8 00000000 		.4byte	.LFB120
 4356 00dc 74000000 		.4byte	.LFE120-.LFB120
 4357 00e0 00000000 		.4byte	.LFB121
 4358 00e4 5C000000 		.4byte	.LFE121-.LFB121
 4359 00e8 00000000 		.4byte	.LFB122
 4360 00ec 5C000000 		.4byte	.LFE122-.LFB122
 4361 00f0 00000000 		.4byte	.LFB123
 4362 00f4 5C000000 		.4byte	.LFE123-.LFB123
 4363 00f8 00000000 		.4byte	.LFB124
 4364 00fc 44000000 		.4byte	.LFE124-.LFB124
 4365 0100 00000000 		.4byte	.LFB125
 4366 0104 40000000 		.4byte	.LFE125-.LFB125
 4367 0108 00000000 		.4byte	.LFB126
 4368 010c 40000000 		.4byte	.LFE126-.LFB126
 4369 0110 00000000 		.4byte	.LFB127
 4370 0114 3C000000 		.4byte	.LFE127-.LFB127
 4371 0118 00000000 		.4byte	.LFB130
 4372 011c 2C000000 		.4byte	.LFE130-.LFB130
 4373 0120 00000000 		.4byte	.LFB131
 4374 0124 2C000000 		.4byte	.LFE131-.LFB131
 4375 0128 00000000 		.4byte	.LFB133
 4376 012c 2C000000 		.4byte	.LFE133-.LFB133
 4377 0130 00000000 		.4byte	.LFB134
 4378 0134 2C000000 		.4byte	.LFE134-.LFB134
 4379 0138 00000000 		.4byte	.LFB135
 4380 013c 18000000 		.4byte	.LFE135-.LFB135
 4381 0140 00000000 		.4byte	.LFB136
 4382 0144 28000000 		.4byte	.LFE136-.LFB136
 4383 0148 00000000 		.4byte	.LFB139
 4384 014c 14000000 		.4byte	.LFE139-.LFB139
 4385 0150 00000000 		.4byte	0
 4386 0154 00000000 		.4byte	0
 4387              		.section	.debug_ranges,"",%progbits
 4388              	.Ldebug_ranges0:
 4389 0000 00000000 		.4byte	.LFB112
ARM GAS  /tmp/ccs5Nv5k.s 			page 78


 4390 0004 0C000000 		.4byte	.LFE112
 4391 0008 00000000 		.4byte	.LFB113
 4392 000c 1C000000 		.4byte	.LFE113
 4393 0010 00000000 		.4byte	.LFB114
 4394 0014 1C000000 		.4byte	.LFE114
 4395 0018 00000000 		.4byte	.LFB115
 4396 001c 1C000000 		.4byte	.LFE115
 4397 0020 00000000 		.4byte	.LFB116
 4398 0024 10000000 		.4byte	.LFE116
 4399 0028 00000000 		.4byte	.LFB117
 4400 002c 10000000 		.4byte	.LFE117
 4401 0030 00000000 		.4byte	.LFB118
 4402 0034 20000000 		.4byte	.LFE118
 4403 0038 00000000 		.4byte	.LFB119
 4404 003c 10000000 		.4byte	.LFE119
 4405 0040 00000000 		.4byte	.LFB128
 4406 0044 20000000 		.4byte	.LFE128
 4407 0048 00000000 		.4byte	.LFB129
 4408 004c 10000000 		.4byte	.LFE129
 4409 0050 00000000 		.4byte	.LFB132
 4410 0054 14000000 		.4byte	.LFE132
 4411 0058 00000000 		.4byte	.LFB137
 4412 005c 18000000 		.4byte	.LFE137
 4413 0060 00000000 		.4byte	.LFB138
 4414 0064 18000000 		.4byte	.LFE138
 4415 0068 00000000 		.4byte	.LFB140
 4416 006c 10000000 		.4byte	.LFE140
 4417 0070 00000000 		.4byte	.LFB141
 4418 0074 0C000000 		.4byte	.LFE141
 4419 0078 00000000 		.4byte	.LFB142
 4420 007c 0C000000 		.4byte	.LFE142
 4421 0080 00000000 		.4byte	.LFB143
 4422 0084 0C000000 		.4byte	.LFE143
 4423 0088 00000000 		.4byte	.LFB144
 4424 008c 0C000000 		.4byte	.LFE144
 4425 0090 00000000 		.4byte	.LFB145
 4426 0094 10000000 		.4byte	.LFE145
 4427 0098 00000000 		.4byte	.LFB146
 4428 009c 10000000 		.4byte	.LFE146
 4429 00a0 00000000 		.4byte	.LFB147
 4430 00a4 18000000 		.4byte	.LFE147
 4431 00a8 00000000 		.4byte	.LFB148
 4432 00ac 14000000 		.4byte	.LFE148
 4433 00b0 00000000 		.4byte	.LFB149
 4434 00b4 0C000000 		.4byte	.LFE149
 4435 00b8 00000000 		.4byte	.LFB150
 4436 00bc 40000000 		.4byte	.LFE150
 4437 00c0 00000000 		.4byte	.LFB151
 4438 00c4 26000000 		.4byte	.LFE151
 4439 00c8 00000000 		.4byte	.LFB120
 4440 00cc 74000000 		.4byte	.LFE120
 4441 00d0 00000000 		.4byte	.LFB121
 4442 00d4 5C000000 		.4byte	.LFE121
 4443 00d8 00000000 		.4byte	.LFB122
 4444 00dc 5C000000 		.4byte	.LFE122
 4445 00e0 00000000 		.4byte	.LFB123
 4446 00e4 5C000000 		.4byte	.LFE123
ARM GAS  /tmp/ccs5Nv5k.s 			page 79


 4447 00e8 00000000 		.4byte	.LFB124
 4448 00ec 44000000 		.4byte	.LFE124
 4449 00f0 00000000 		.4byte	.LFB125
 4450 00f4 40000000 		.4byte	.LFE125
 4451 00f8 00000000 		.4byte	.LFB126
 4452 00fc 40000000 		.4byte	.LFE126
 4453 0100 00000000 		.4byte	.LFB127
 4454 0104 3C000000 		.4byte	.LFE127
 4455 0108 00000000 		.4byte	.LFB130
 4456 010c 2C000000 		.4byte	.LFE130
 4457 0110 00000000 		.4byte	.LFB131
 4458 0114 2C000000 		.4byte	.LFE131
 4459 0118 00000000 		.4byte	.LFB133
 4460 011c 2C000000 		.4byte	.LFE133
 4461 0120 00000000 		.4byte	.LFB134
 4462 0124 2C000000 		.4byte	.LFE134
 4463 0128 00000000 		.4byte	.LFB135
 4464 012c 18000000 		.4byte	.LFE135
 4465 0130 00000000 		.4byte	.LFB136
 4466 0134 28000000 		.4byte	.LFE136
 4467 0138 00000000 		.4byte	.LFB139
 4468 013c 14000000 		.4byte	.LFE139
 4469 0140 00000000 		.4byte	0
 4470 0144 00000000 		.4byte	0
 4471              		.section	.debug_line,"",%progbits
 4472              	.Ldebug_line0:
 4473 0000 0B050000 		.section	.debug_str,"MS",%progbits,1
 4473      02005F01 
 4473      00000201 
 4473      FB0E0D00 
 4473      01010101 
 4474              	.LASF66:
 4475 0000 464C4153 		.ascii	"FLASH_ITConfig\000"
 4475      485F4954 
 4475      436F6E66 
 4475      696700
 4476              	.LASF79:
 4477 000f 464C4153 		.ascii	"FLASH_EraseAllSectors\000"
 4477      485F4572 
 4477      61736541 
 4477      6C6C5365 
 4477      63746F72 
 4478              	.LASF95:
 4479 0025 4F425F52 		.ascii	"OB_RDP\000"
 4479      445000
 4480              	.LASF97:
 4481 002c 4F425F49 		.ascii	"OB_IWDG\000"
 4481      57444700 
 4482              	.LASF35:
 4483 0034 464C4153 		.ascii	"FLASH_ERROR_WRP\000"
 4483      485F4552 
 4483      524F525F 
 4483      57525000 
 4484              	.LASF18:
 4485 0044 75696E74 		.ascii	"uint64_t\000"
 4485      36345F74 
 4485      00
ARM GAS  /tmp/ccs5Nv5k.s 			page 80


 4486              	.LASF81:
 4487 004d 464C4153 		.ascii	"FLASH_EraseAllBank2Sectors\000"
 4487      485F4572 
 4487      61736541 
 4487      6C6C4261 
 4487      6E6B3253 
 4488              	.LASF19:
 4489 0068 73697A65 		.ascii	"sizetype\000"
 4489      74797065 
 4489      00
 4490              	.LASF67:
 4491 0071 464C4153 		.ascii	"FLASH_IT\000"
 4491      485F4954 
 4491      00
 4492              	.LASF55:
 4493 007a 4F425F42 		.ascii	"OB_BOOT\000"
 4493      4F4F5400 
 4494              	.LASF59:
 4495 0082 464C4153 		.ascii	"FLASH_OB_GetWRP\000"
 4495      485F4F42 
 4495      5F476574 
 4495      57525000 
 4496              	.LASF77:
 4497 0092 566F6C74 		.ascii	"VoltageRange\000"
 4497      61676552 
 4497      616E6765 
 4497      00
 4498              	.LASF9:
 4499 009f 5F5F7569 		.ascii	"__uint32_t\000"
 4499      6E743332 
 4499      5F7400
 4500              	.LASF51:
 4501 00aa 464C4153 		.ascii	"FLASH_OB_Lock\000"
 4501      485F4F42 
 4501      5F4C6F63 
 4501      6B00
 4502              	.LASF83:
 4503 00b8 41646472 		.ascii	"Address\000"
 4503      65737300 
 4504              	.LASF26:
 4505 00c0 466C6167 		.ascii	"FlagStatus\000"
 4505      53746174 
 4505      757300
 4506              	.LASF5:
 4507 00cb 5F5F7569 		.ascii	"__uint16_t\000"
 4507      6E743136 
 4507      5F7400
 4508              	.LASF89:
 4509 00d6 4F425F57 		.ascii	"OB_WRP\000"
 4509      525000
 4510              	.LASF71:
 4511 00dd 62697473 		.ascii	"bitstatus\000"
 4511      74617475 
 4511      7300
 4512              	.LASF96:
 4513 00e7 464C4153 		.ascii	"FLASH_OB_UserConfig\000"
 4513      485F4F42 
ARM GAS  /tmp/ccs5Nv5k.s 			page 81


 4513      5F557365 
 4513      72436F6E 
 4513      66696700 
 4514              	.LASF91:
 4515 00fb 464C4153 		.ascii	"FLASH_OB_PCROPConfig\000"
 4515      485F4F42 
 4515      5F504352 
 4515      4F50436F 
 4515      6E666967 
 4516              	.LASF48:
 4517 0110 464C4153 		.ascii	"FLASH_Unlock\000"
 4517      485F556E 
 4517      6C6F636B 
 4517      00
 4518              	.LASF14:
 4519 011d 75696E74 		.ascii	"uint8_t\000"
 4519      385F7400 
 4520              	.LASF39:
 4521 0125 464C4153 		.ascii	"FLASH_Status\000"
 4521      485F5374 
 4521      61747573 
 4521      00
 4522              	.LASF64:
 4523 0132 72656164 		.ascii	"readstatus\000"
 4523      73746174 
 4523      757300
 4524              	.LASF78:
 4525 013d 746D705F 		.ascii	"tmp_psize\000"
 4525      7073697A 
 4525      6500
 4526              	.LASF43:
 4527 0147 4E657753 		.ascii	"NewState\000"
 4527      74617465 
 4527      00
 4528              	.LASF103:
 4529 0150 2F686F6D 		.ascii	"/home/benjamin/Skrivbord/SP-RCCar/Embedded/RC_Contr"
 4529      652F6265 
 4529      6E6A616D 
 4529      696E2F53 
 4529      6B726976 
 4530 0183 6F6C6C65 		.ascii	"oller/\000"
 4530      722F00
 4531              	.LASF27:
 4532 018a 44495341 		.ascii	"DISABLE\000"
 4532      424C4500 
 4533              	.LASF3:
 4534 0192 73686F72 		.ascii	"short int\000"
 4534      7420696E 
 4534      7400
 4535              	.LASF93:
 4536 019c 464C4153 		.ascii	"FLASH_OB_PCROP1Config\000"
 4536      485F4F42 
 4536      5F504352 
 4536      4F503143 
 4536      6F6E6669 
 4537              	.LASF44:
 4538 01b2 464C4153 		.ascii	"FLASH_InstructionCacheCmd\000"
ARM GAS  /tmp/ccs5Nv5k.s 			page 82


 4538      485F496E 
 4538      73747275 
 4538      6374696F 
 4538      6E436163 
 4539              	.LASF47:
 4540 01cc 464C4153 		.ascii	"FLASH_DataCacheReset\000"
 4540      485F4461 
 4540      74614361 
 4540      63686552 
 4540      65736574 
 4541              	.LASF21:
 4542 01e1 4F50544B 		.ascii	"OPTKEYR\000"
 4542      45595200 
 4543              	.LASF92:
 4544 01e9 4F425F50 		.ascii	"OB_PCROP\000"
 4544      43524F50 
 4544      00
 4545              	.LASF11:
 4546 01f2 6C6F6E67 		.ascii	"long long int\000"
 4546      206C6F6E 
 4546      6720696E 
 4546      7400
 4547              	.LASF70:
 4548 0200 464C4153 		.ascii	"FLASH_FLAG\000"
 4548      485F464C 
 4548      414700
 4549              	.LASF90:
 4550 020b 464C4153 		.ascii	"FLASH_OB_WRP1Config\000"
 4550      485F4F42 
 4550      5F575250 
 4550      31436F6E 
 4550      66696700 
 4551              	.LASF75:
 4552 021f 464C4153 		.ascii	"FLASH_EraseSector\000"
 4552      485F4572 
 4552      61736553 
 4552      6563746F 
 4552      7200
 4553              	.LASF8:
 4554 0231 6C6F6E67 		.ascii	"long int\000"
 4554      20696E74 
 4554      00
 4555              	.LASF82:
 4556 023a 464C4153 		.ascii	"FLASH_ProgramDoubleWord\000"
 4556      485F5072 
 4556      6F677261 
 4556      6D446F75 
 4556      626C6557 
 4557              	.LASF37:
 4558 0252 464C4153 		.ascii	"FLASH_ERROR_OPERATION\000"
 4558      485F4552 
 4558      524F525F 
 4558      4F504552 
 4558      4154494F 
 4559              	.LASF4:
 4560 0268 5F5F7569 		.ascii	"__uint8_t\000"
 4560      6E74385F 
ARM GAS  /tmp/ccs5Nv5k.s 			page 83


 4560      7400
 4561              	.LASF105:
 4562 0272 666C6173 		.ascii	"flashstatus\000"
 4562      68737461 
 4562      74757300 
 4563              	.LASF46:
 4564 027e 464C4153 		.ascii	"FLASH_InstructionCacheReset\000"
 4564      485F496E 
 4564      73747275 
 4564      6374696F 
 4564      6E436163 
 4565              	.LASF84:
 4566 029a 44617461 		.ascii	"Data\000"
 4566      00
 4567              	.LASF87:
 4568 029f 464C4153 		.ascii	"FLASH_ProgramByte\000"
 4568      485F5072 
 4568      6F677261 
 4568      6D427974 
 4568      6500
 4569              	.LASF23:
 4570 02b1 4F505443 		.ascii	"OPTCR1\000"
 4570      523100
 4571              	.LASF100:
 4572 02b8 464C4153 		.ascii	"FLASH_OB_Launch\000"
 4572      485F4F42 
 4572      5F4C6175 
 4572      6E636800 
 4573              	.LASF54:
 4574 02c8 464C4153 		.ascii	"FLASH_OB_BootConfig\000"
 4574      485F4F42 
 4574      5F426F6F 
 4574      74436F6E 
 4574      66696700 
 4575              	.LASF58:
 4576 02dc 464C4153 		.ascii	"FLASH_OB_GetUser\000"
 4576      485F4F42 
 4576      5F476574 
 4576      55736572 
 4576      00
 4577              	.LASF2:
 4578 02ed 756E7369 		.ascii	"unsigned char\000"
 4578      676E6564 
 4578      20636861 
 4578      7200
 4579              	.LASF49:
 4580 02fb 464C4153 		.ascii	"FLASH_Lock\000"
 4580      485F4C6F 
 4580      636B00
 4581              	.LASF102:
 4582 0306 43686962 		.ascii	"ChibiOS_3.0.2/ext/stdperiph_stm32f4/src/stm32f4xx_f"
 4582      694F535F 
 4582      332E302E 
 4582      322F6578 
 4582      742F7374 
 4583 0339 6C617368 		.ascii	"lash.c\000"
 4583      2E6300
ARM GAS  /tmp/ccs5Nv5k.s 			page 84


 4584              	.LASF50:
 4585 0340 464C4153 		.ascii	"FLASH_OB_Unlock\000"
 4585      485F4F42 
 4585      5F556E6C 
 4585      6F636B00 
 4586              	.LASF41:
 4587 0350 464C4153 		.ascii	"FLASH_PrefetchBufferCmd\000"
 4587      485F5072 
 4587      65666574 
 4587      63684275 
 4587      66666572 
 4588              	.LASF1:
 4589 0368 7369676E 		.ascii	"signed char\000"
 4589      65642063 
 4589      68617200 
 4590              	.LASF69:
 4591 0374 464C4153 		.ascii	"FLASH_GetFlagStatus\000"
 4591      485F4765 
 4591      74466C61 
 4591      67537461 
 4591      74757300 
 4592              	.LASF0:
 4593 0388 6C6F6E67 		.ascii	"long long unsigned int\000"
 4593      206C6F6E 
 4593      6720756E 
 4593      7369676E 
 4593      65642069 
 4594              	.LASF61:
 4595 039f 464C4153 		.ascii	"FLASH_OB_GetPCROP\000"
 4595      485F4F42 
 4595      5F476574 
 4595      5043524F 
 4595      5000
 4596              	.LASF17:
 4597 03b1 75696E74 		.ascii	"uint32_t\000"
 4597      33325F74 
 4597      00
 4598              	.LASF72:
 4599 03ba 464C4153 		.ascii	"FLASH_ClearFlag\000"
 4599      485F436C 
 4599      65617246 
 4599      6C616700 
 4600              	.LASF13:
 4601 03ca 756E7369 		.ascii	"unsigned int\000"
 4601      676E6564 
 4601      20696E74 
 4601      00
 4602              	.LASF38:
 4603 03d7 464C4153 		.ascii	"FLASH_COMPLETE\000"
 4603      485F434F 
 4603      4D504C45 
 4603      544500
 4604              	.LASF30:
 4605 03e6 464C4153 		.ascii	"FLASH_BUSY\000"
 4605      485F4255 
 4605      535900
 4606              	.LASF86:
ARM GAS  /tmp/ccs5Nv5k.s 			page 85


 4607 03f1 464C4153 		.ascii	"FLASH_ProgramHalfWord\000"
 4607      485F5072 
 4607      6F677261 
 4607      6D48616C 
 4607      66576F72 
 4608              	.LASF6:
 4609 0407 73686F72 		.ascii	"short unsigned int\000"
 4609      7420756E 
 4609      7369676E 
 4609      65642069 
 4609      6E7400
 4610              	.LASF53:
 4611 041a 4F425F50 		.ascii	"OB_PcROP\000"
 4611      63524F50 
 4611      00
 4612              	.LASF74:
 4613 0423 73746174 		.ascii	"status\000"
 4613      757300
 4614              	.LASF56:
 4615 042a 464C4153 		.ascii	"FLASH_OB_BORConfig\000"
 4615      485F4F42 
 4615      5F424F52 
 4615      436F6E66 
 4615      696700
 4616              	.LASF60:
 4617 043d 464C4153 		.ascii	"FLASH_OB_GetWRP1\000"
 4617      485F4F42 
 4617      5F476574 
 4617      57525031 
 4617      00
 4618              	.LASF15:
 4619 044e 75696E74 		.ascii	"uint16_t\000"
 4619      31365F74 
 4619      00
 4620              	.LASF16:
 4621 0457 696E7433 		.ascii	"int32_t\000"
 4621      325F7400 
 4622              	.LASF104:
 4623 045f 464C4153 		.ascii	"FLASH_GetStatus\000"
 4623      485F4765 
 4623      74537461 
 4623      74757300 
 4624              	.LASF65:
 4625 046f 464C4153 		.ascii	"FLASH_OB_GetBOR\000"
 4625      485F4F42 
 4625      5F476574 
 4625      424F5200 
 4626              	.LASF40:
 4627 047f 464C4153 		.ascii	"FLASH_SetLatency\000"
 4627      485F5365 
 4627      744C6174 
 4627      656E6379 
 4627      00
 4628              	.LASF25:
 4629 0490 52455345 		.ascii	"RESET\000"
 4629      5400
 4630              	.LASF12:
ARM GAS  /tmp/ccs5Nv5k.s 			page 86


 4631 0496 5F5F7569 		.ascii	"__uint64_t\000"
 4631      6E743634 
 4631      5F7400
 4632              	.LASF10:
 4633 04a1 6C6F6E67 		.ascii	"long unsigned int\000"
 4633      20756E73 
 4633      69676E65 
 4633      6420696E 
 4633      7400
 4634              	.LASF80:
 4635 04b3 464C4153 		.ascii	"FLASH_EraseAllBank1Sectors\000"
 4635      485F4572 
 4635      61736541 
 4635      6C6C4261 
 4635      6E6B3153 
 4636              	.LASF34:
 4637 04ce 464C4153 		.ascii	"FLASH_ERROR_PGA\000"
 4637      485F4552 
 4637      524F525F 
 4637      50474100 
 4638              	.LASF29:
 4639 04de 46756E63 		.ascii	"FunctionalState\000"
 4639      74696F6E 
 4639      616C5374 
 4639      61746500 
 4640              	.LASF62:
 4641 04ee 464C4153 		.ascii	"FLASH_OB_GetPCROP1\000"
 4641      485F4F42 
 4641      5F476574 
 4641      5043524F 
 4641      503100
 4642              	.LASF57:
 4643 0501 4F425F42 		.ascii	"OB_BOR\000"
 4643      4F5200
 4644              	.LASF7:
 4645 0508 5F5F696E 		.ascii	"__int32_t\000"
 4645      7433325F 
 4645      7400
 4646              	.LASF88:
 4647 0512 464C4153 		.ascii	"FLASH_OB_WRPConfig\000"
 4647      485F4F42 
 4647      5F575250 
 4647      436F6E66 
 4647      696700
 4648              	.LASF94:
 4649 0525 464C4153 		.ascii	"FLASH_OB_RDPConfig\000"
 4649      485F4F42 
 4649      5F524450 
 4649      436F6E66 
 4649      696700
 4650              	.LASF42:
 4651 0538 464C4153 		.ascii	"FLASH_Latency\000"
 4651      485F4C61 
 4651      74656E63 
 4651      7900
 4652              	.LASF36:
 4653 0546 464C4153 		.ascii	"FLASH_ERROR_PROGRAM\000"
ARM GAS  /tmp/ccs5Nv5k.s 			page 87


 4653      485F4552 
 4653      524F525F 
 4653      50524F47 
 4653      52414D00 
 4654              	.LASF63:
 4655 055a 6F707469 		.ascii	"optiontmp\000"
 4655      6F6E746D 
 4655      7000
 4656              	.LASF85:
 4657 0564 464C4153 		.ascii	"FLASH_ProgramWord\000"
 4657      485F5072 
 4657      6F677261 
 4657      6D576F72 
 4657      6400
 4658              	.LASF76:
 4659 0576 464C4153 		.ascii	"FLASH_Sector\000"
 4659      485F5365 
 4659      63746F72 
 4659      00
 4660              	.LASF45:
 4661 0583 464C4153 		.ascii	"FLASH_DataCacheCmd\000"
 4661      485F4461 
 4661      74614361 
 4661      63686543 
 4661      6D6400
 4662              	.LASF32:
 4663 0596 464C4153 		.ascii	"FLASH_ERROR_PGS\000"
 4663      485F4552 
 4663      524F525F 
 4663      50475300 
 4664              	.LASF24:
 4665 05a6 464C4153 		.ascii	"FLASH_TypeDef\000"
 4665      485F5479 
 4665      70654465 
 4665      6600
 4666              	.LASF73:
 4667 05b4 464C4153 		.ascii	"FLASH_WaitForLastOperation\000"
 4667      485F5761 
 4667      6974466F 
 4667      724C6173 
 4667      744F7065 
 4668              	.LASF106:
 4669 05cf 49544D5F 		.ascii	"ITM_RxBuffer\000"
 4669      52784275 
 4669      66666572 
 4669      00
 4670              	.LASF52:
 4671 05dc 464C4153 		.ascii	"FLASH_OB_PCROPSelectionConfig\000"
 4671      485F4F42 
 4671      5F504352 
 4671      4F505365 
 4671      6C656374 
 4672              	.LASF98:
 4673 05fa 4F425F53 		.ascii	"OB_STOP\000"
 4673      544F5000 
 4674              	.LASF33:
 4675 0602 464C4153 		.ascii	"FLASH_ERROR_PGP\000"
ARM GAS  /tmp/ccs5Nv5k.s 			page 88


 4675      485F4552 
 4675      524F525F 
 4675      50475000 
 4676              	.LASF20:
 4677 0612 4B455952 		.ascii	"KEYR\000"
 4677      00
 4678              	.LASF101:
 4679 0617 474E5520 		.ascii	"GNU C 4.9.3 20150529 (release) [ARM/embedded-4_9-br"
 4679      4320342E 
 4679      392E3320 
 4679      32303135 
 4679      30353239 
 4680 064a 616E6368 		.ascii	"anch revision 227977] -mcpu=cortex-m4 -mfloat-abi=h"
 4680      20726576 
 4680      6973696F 
 4680      6E203232 
 4680      37393737 
 4681 067d 61726420 		.ascii	"ard -mfpu=fpv4-sp-d16 -mno-thumb-interwork -mthumb "
 4681      2D6D6670 
 4681      753D6670 
 4681      76342D73 
 4681      702D6431 
 4682 06b0 2D676764 		.ascii	"-ggdb -O2 -std=gnu99 -fomit-frame-pointer -falign-f"
 4682      62202D4F 
 4682      32202D73 
 4682      74643D67 
 4682      6E753939 
 4683 06e3 756E6374 		.ascii	"unctions=16 -ffunction-sections -fdata-sections -fn"
 4683      696F6E73 
 4683      3D313620 
 4683      2D666675 
 4683      6E637469 
 4684 0716 6F2D636F 		.ascii	"o-common -fsingle-precision-constant\000"
 4684      6D6D6F6E 
 4684      202D6673 
 4684      696E676C 
 4684      652D7072 
 4685              	.LASF99:
 4686 073b 4F425F53 		.ascii	"OB_STDBY\000"
 4686      54444259 
 4686      00
 4687              	.LASF22:
 4688 0744 4F505443 		.ascii	"OPTCR\000"
 4688      5200
 4689              	.LASF28:
 4690 074a 454E4142 		.ascii	"ENABLE\000"
 4690      4C4500
 4691              	.LASF68:
 4692 0751 464C4153 		.ascii	"FLASH_OB_GetRDP\000"
 4692      485F4F42 
 4692      5F476574 
 4692      52445000 
 4693              	.LASF31:
 4694 0761 464C4153 		.ascii	"FLASH_ERROR_RD\000"
 4694      485F4552 
 4694      524F525F 
 4694      524400
ARM GAS  /tmp/ccs5Nv5k.s 			page 89


 4695              		.ident	"GCC: (GNU Tools for ARM Embedded Processors) 4.9.3 20150529 (release) [ARM/embedded-4_9-br
ARM GAS  /tmp/ccs5Nv5k.s 			page 90


DEFINED SYMBOLS
                            *ABS*:0000000000000000 stm32f4xx_flash.c
     /tmp/ccs5Nv5k.s:21     .text.FLASH_SetLatency:0000000000000000 $t
     /tmp/ccs5Nv5k.s:27     .text.FLASH_SetLatency:0000000000000000 FLASH_SetLatency
     /tmp/ccs5Nv5k.s:45     .text.FLASH_SetLatency:0000000000000008 $d
     /tmp/ccs5Nv5k.s:50     .text.FLASH_PrefetchBufferCmd:0000000000000000 $t
     /tmp/ccs5Nv5k.s:56     .text.FLASH_PrefetchBufferCmd:0000000000000000 FLASH_PrefetchBufferCmd
     /tmp/ccs5Nv5k.s:81     .text.FLASH_PrefetchBufferCmd:0000000000000018 $d
     /tmp/ccs5Nv5k.s:86     .text.FLASH_InstructionCacheCmd:0000000000000000 $t
     /tmp/ccs5Nv5k.s:92     .text.FLASH_InstructionCacheCmd:0000000000000000 FLASH_InstructionCacheCmd
     /tmp/ccs5Nv5k.s:117    .text.FLASH_InstructionCacheCmd:0000000000000018 $d
     /tmp/ccs5Nv5k.s:122    .text.FLASH_DataCacheCmd:0000000000000000 $t
     /tmp/ccs5Nv5k.s:128    .text.FLASH_DataCacheCmd:0000000000000000 FLASH_DataCacheCmd
     /tmp/ccs5Nv5k.s:153    .text.FLASH_DataCacheCmd:0000000000000018 $d
     /tmp/ccs5Nv5k.s:158    .text.FLASH_InstructionCacheReset:0000000000000000 $t
     /tmp/ccs5Nv5k.s:164    .text.FLASH_InstructionCacheReset:0000000000000000 FLASH_InstructionCacheReset
     /tmp/ccs5Nv5k.s:180    .text.FLASH_InstructionCacheReset:000000000000000c $d
     /tmp/ccs5Nv5k.s:185    .text.FLASH_DataCacheReset:0000000000000000 $t
     /tmp/ccs5Nv5k.s:191    .text.FLASH_DataCacheReset:0000000000000000 FLASH_DataCacheReset
     /tmp/ccs5Nv5k.s:207    .text.FLASH_DataCacheReset:000000000000000c $d
     /tmp/ccs5Nv5k.s:212    .text.FLASH_Unlock:0000000000000000 $t
     /tmp/ccs5Nv5k.s:218    .text.FLASH_Unlock:0000000000000000 FLASH_Unlock
     /tmp/ccs5Nv5k.s:243    .text.FLASH_Unlock:0000000000000014 $d
     /tmp/ccs5Nv5k.s:250    .text.FLASH_Lock:0000000000000000 $t
     /tmp/ccs5Nv5k.s:256    .text.FLASH_Lock:0000000000000000 FLASH_Lock
     /tmp/ccs5Nv5k.s:272    .text.FLASH_Lock:000000000000000c $d
     /tmp/ccs5Nv5k.s:277    .text.FLASH_OB_Unlock:0000000000000000 $t
     /tmp/ccs5Nv5k.s:283    .text.FLASH_OB_Unlock:0000000000000000 FLASH_OB_Unlock
     /tmp/ccs5Nv5k.s:308    .text.FLASH_OB_Unlock:0000000000000014 $d
     /tmp/ccs5Nv5k.s:315    .text.FLASH_OB_Lock:0000000000000000 $t
     /tmp/ccs5Nv5k.s:321    .text.FLASH_OB_Lock:0000000000000000 FLASH_OB_Lock
     /tmp/ccs5Nv5k.s:337    .text.FLASH_OB_Lock:000000000000000c $d
     /tmp/ccs5Nv5k.s:342    .text.FLASH_OB_PCROPSelectionConfig:0000000000000000 $t
     /tmp/ccs5Nv5k.s:348    .text.FLASH_OB_PCROPSelectionConfig:0000000000000000 FLASH_OB_PCROPSelectionConfig
     /tmp/ccs5Nv5k.s:370    .text.FLASH_OB_PCROPSelectionConfig:0000000000000010 $d
     /tmp/ccs5Nv5k.s:375    .text.FLASH_OB_BootConfig:0000000000000000 $t
     /tmp/ccs5Nv5k.s:381    .text.FLASH_OB_BootConfig:0000000000000000 FLASH_OB_BootConfig
     /tmp/ccs5Nv5k.s:403    .text.FLASH_OB_BootConfig:0000000000000014 $d
     /tmp/ccs5Nv5k.s:408    .text.FLASH_OB_BORConfig:0000000000000000 $t
     /tmp/ccs5Nv5k.s:414    .text.FLASH_OB_BORConfig:0000000000000000 FLASH_OB_BORConfig
     /tmp/ccs5Nv5k.s:436    .text.FLASH_OB_BORConfig:0000000000000014 $d
     /tmp/ccs5Nv5k.s:441    .text.FLASH_OB_GetUser:0000000000000000 $t
     /tmp/ccs5Nv5k.s:447    .text.FLASH_OB_GetUser:0000000000000000 FLASH_OB_GetUser
     /tmp/ccs5Nv5k.s:463    .text.FLASH_OB_GetUser:000000000000000c $d
     /tmp/ccs5Nv5k.s:468    .text.FLASH_OB_GetWRP:0000000000000000 $t
     /tmp/ccs5Nv5k.s:474    .text.FLASH_OB_GetWRP:0000000000000000 FLASH_OB_GetWRP
     /tmp/ccs5Nv5k.s:490    .text.FLASH_OB_GetWRP:0000000000000008 $d
     /tmp/ccs5Nv5k.s:495    .text.FLASH_OB_GetWRP1:0000000000000000 $t
     /tmp/ccs5Nv5k.s:501    .text.FLASH_OB_GetWRP1:0000000000000000 FLASH_OB_GetWRP1
     /tmp/ccs5Nv5k.s:517    .text.FLASH_OB_GetWRP1:0000000000000008 $d
     /tmp/ccs5Nv5k.s:522    .text.FLASH_OB_GetPCROP:0000000000000000 $t
     /tmp/ccs5Nv5k.s:528    .text.FLASH_OB_GetPCROP:0000000000000000 FLASH_OB_GetPCROP
     /tmp/ccs5Nv5k.s:544    .text.FLASH_OB_GetPCROP:0000000000000008 $d
     /tmp/ccs5Nv5k.s:549    .text.FLASH_OB_GetPCROP1:0000000000000000 $t
     /tmp/ccs5Nv5k.s:555    .text.FLASH_OB_GetPCROP1:0000000000000000 FLASH_OB_GetPCROP1
     /tmp/ccs5Nv5k.s:571    .text.FLASH_OB_GetPCROP1:0000000000000008 $d
     /tmp/ccs5Nv5k.s:576    .text.FLASH_OB_GetRDP:0000000000000000 $t
ARM GAS  /tmp/ccs5Nv5k.s 			page 91


     /tmp/ccs5Nv5k.s:582    .text.FLASH_OB_GetRDP:0000000000000000 FLASH_OB_GetRDP
     /tmp/ccs5Nv5k.s:603    .text.FLASH_OB_GetRDP:000000000000000c $d
     /tmp/ccs5Nv5k.s:608    .text.FLASH_OB_GetBOR:0000000000000000 $t
     /tmp/ccs5Nv5k.s:614    .text.FLASH_OB_GetBOR:0000000000000000 FLASH_OB_GetBOR
     /tmp/ccs5Nv5k.s:630    .text.FLASH_OB_GetBOR:000000000000000c $d
     /tmp/ccs5Nv5k.s:635    .text.FLASH_ITConfig:0000000000000000 $t
     /tmp/ccs5Nv5k.s:641    .text.FLASH_ITConfig:0000000000000000 FLASH_ITConfig
     /tmp/ccs5Nv5k.s:669    .text.FLASH_ITConfig:0000000000000014 $d
     /tmp/ccs5Nv5k.s:674    .text.FLASH_GetFlagStatus:0000000000000000 $t
     /tmp/ccs5Nv5k.s:680    .text.FLASH_GetFlagStatus:0000000000000000 FLASH_GetFlagStatus
     /tmp/ccs5Nv5k.s:702    .text.FLASH_GetFlagStatus:0000000000000010 $d
     /tmp/ccs5Nv5k.s:707    .text.FLASH_ClearFlag:0000000000000000 $t
     /tmp/ccs5Nv5k.s:713    .text.FLASH_ClearFlag:0000000000000000 FLASH_ClearFlag
     /tmp/ccs5Nv5k.s:728    .text.FLASH_ClearFlag:0000000000000008 $d
     /tmp/ccs5Nv5k.s:733    .text.FLASH_GetStatus:0000000000000000 $t
     /tmp/ccs5Nv5k.s:739    .text.FLASH_GetStatus:0000000000000000 FLASH_GetStatus
     /tmp/ccs5Nv5k.s:796    .text.FLASH_GetStatus:000000000000003c $d
     /tmp/ccs5Nv5k.s:803    .text.FLASH_WaitForLastOperation:0000000000000000 $t
     /tmp/ccs5Nv5k.s:809    .text.FLASH_WaitForLastOperation:0000000000000000 FLASH_WaitForLastOperation
     /tmp/ccs5Nv5k.s:844    .text.FLASH_EraseSector:0000000000000000 $t
     /tmp/ccs5Nv5k.s:850    .text.FLASH_EraseSector:0000000000000000 FLASH_EraseSector
     /tmp/ccs5Nv5k.s:943    .text.FLASH_EraseSector:0000000000000070 $d
     /tmp/ccs5Nv5k.s:948    .text.FLASH_EraseAllSectors:0000000000000000 $t
     /tmp/ccs5Nv5k.s:954    .text.FLASH_EraseAllSectors:0000000000000000 FLASH_EraseAllSectors
     /tmp/ccs5Nv5k.s:1031   .text.FLASH_EraseAllSectors:0000000000000058 $d
     /tmp/ccs5Nv5k.s:1036   .text.FLASH_EraseAllBank1Sectors:0000000000000000 $t
     /tmp/ccs5Nv5k.s:1042   .text.FLASH_EraseAllBank1Sectors:0000000000000000 FLASH_EraseAllBank1Sectors
     /tmp/ccs5Nv5k.s:1119   .text.FLASH_EraseAllBank1Sectors:0000000000000058 $d
     /tmp/ccs5Nv5k.s:1124   .text.FLASH_EraseAllBank2Sectors:0000000000000000 $t
     /tmp/ccs5Nv5k.s:1130   .text.FLASH_EraseAllBank2Sectors:0000000000000000 FLASH_EraseAllBank2Sectors
     /tmp/ccs5Nv5k.s:1207   .text.FLASH_EraseAllBank2Sectors:0000000000000058 $d
     /tmp/ccs5Nv5k.s:1212   .text.FLASH_ProgramDoubleWord:0000000000000000 $t
     /tmp/ccs5Nv5k.s:1218   .text.FLASH_ProgramDoubleWord:0000000000000000 FLASH_ProgramDoubleWord
     /tmp/ccs5Nv5k.s:1275   .text.FLASH_ProgramDoubleWord:0000000000000040 $d
     /tmp/ccs5Nv5k.s:1280   .text.FLASH_ProgramWord:0000000000000000 $t
     /tmp/ccs5Nv5k.s:1286   .text.FLASH_ProgramWord:0000000000000000 FLASH_ProgramWord
     /tmp/ccs5Nv5k.s:1340   .text.FLASH_ProgramWord:000000000000003c $d
     /tmp/ccs5Nv5k.s:1345   .text.FLASH_ProgramHalfWord:0000000000000000 $t
     /tmp/ccs5Nv5k.s:1351   .text.FLASH_ProgramHalfWord:0000000000000000 FLASH_ProgramHalfWord
     /tmp/ccs5Nv5k.s:1405   .text.FLASH_ProgramHalfWord:000000000000003c $d
     /tmp/ccs5Nv5k.s:1410   .text.FLASH_ProgramByte:0000000000000000 $t
     /tmp/ccs5Nv5k.s:1416   .text.FLASH_ProgramByte:0000000000000000 FLASH_ProgramByte
     /tmp/ccs5Nv5k.s:1469   .text.FLASH_ProgramByte:0000000000000038 $d
     /tmp/ccs5Nv5k.s:1474   .text.FLASH_OB_WRPConfig:0000000000000000 $t
     /tmp/ccs5Nv5k.s:1480   .text.FLASH_OB_WRPConfig:0000000000000000 FLASH_OB_WRPConfig
     /tmp/ccs5Nv5k.s:1527   .text.FLASH_OB_WRPConfig:0000000000000028 $d
     /tmp/ccs5Nv5k.s:1532   .text.FLASH_OB_WRP1Config:0000000000000000 $t
     /tmp/ccs5Nv5k.s:1538   .text.FLASH_OB_WRP1Config:0000000000000000 FLASH_OB_WRP1Config
     /tmp/ccs5Nv5k.s:1585   .text.FLASH_OB_WRP1Config:0000000000000028 $d
     /tmp/ccs5Nv5k.s:1590   .text.FLASH_OB_PCROPConfig:0000000000000000 $t
     /tmp/ccs5Nv5k.s:1596   .text.FLASH_OB_PCROPConfig:0000000000000000 FLASH_OB_PCROPConfig
     /tmp/ccs5Nv5k.s:1643   .text.FLASH_OB_PCROPConfig:0000000000000028 $d
     /tmp/ccs5Nv5k.s:1648   .text.FLASH_OB_PCROP1Config:0000000000000000 $t
     /tmp/ccs5Nv5k.s:1654   .text.FLASH_OB_PCROP1Config:0000000000000000 FLASH_OB_PCROP1Config
     /tmp/ccs5Nv5k.s:1701   .text.FLASH_OB_PCROP1Config:0000000000000028 $d
     /tmp/ccs5Nv5k.s:1706   .text.FLASH_OB_RDPConfig:0000000000000000 $t
     /tmp/ccs5Nv5k.s:1712   .text.FLASH_OB_RDPConfig:0000000000000000 FLASH_OB_RDPConfig
ARM GAS  /tmp/ccs5Nv5k.s 			page 92


     /tmp/ccs5Nv5k.s:1738   .text.FLASH_OB_RDPConfig:0000000000000014 $d
     /tmp/ccs5Nv5k.s:1743   .text.FLASH_OB_UserConfig:0000000000000000 $t
     /tmp/ccs5Nv5k.s:1749   .text.FLASH_OB_UserConfig:0000000000000000 FLASH_OB_UserConfig
     /tmp/ccs5Nv5k.s:1788   .text.FLASH_OB_UserConfig:0000000000000024 $d
     /tmp/ccs5Nv5k.s:1793   .text.FLASH_OB_Launch:0000000000000000 $t
     /tmp/ccs5Nv5k.s:1799   .text.FLASH_OB_Launch:0000000000000000 FLASH_OB_Launch
     /tmp/ccs5Nv5k.s:1818   .text.FLASH_OB_Launch:0000000000000010 $d
                     .debug_frame:0000000000000010 $d

NO UNDEFINED SYMBOLS
