ARM GAS  /tmp/ccdIa7xX.s 			page 1


   1              		.syntax unified
   2              		.cpu cortex-m4
   3              		.eabi_attribute 27, 1
   4              		.eabi_attribute 28, 1
   5              		.fpu fpv4-sp-d16
   6              		.eabi_attribute 20, 1
   7              		.eabi_attribute 21, 1
   8              		.eabi_attribute 23, 3
   9              		.eabi_attribute 24, 1
  10              		.eabi_attribute 25, 1
  11              		.eabi_attribute 26, 1
  12              		.eabi_attribute 30, 2
  13              		.eabi_attribute 34, 1
  14              		.eabi_attribute 18, 4
  15              		.thumb
  16              		.file	"stm32f4xx_syscfg.c"
  17              		.text
  18              	.Ltext0:
  19              		.cfi_sections	.debug_frame
  20              		.section	.text.SYSCFG_DeInit,"ax",%progbits
  21              		.align	2
  22              		.p2align 4,,15
  23              		.global	SYSCFG_DeInit
  24              		.thumb
  25              		.thumb_func
  26              		.type	SYSCFG_DeInit, %function
  27              	SYSCFG_DeInit:
  28              	.LFB112:
  29              		.file 1 "ChibiOS_3.0.2/ext/stdperiph_stm32f4/src/stm32f4xx_syscfg.c"
  30              		.loc 1 104 0
  31              		.cfi_startproc
  32              		@ args = 0, pretend = 0, frame = 0
  33              		@ frame_needed = 0, uses_anonymous_args = 0
  34 0000 08B5     		push	{r3, lr}
  35              		.cfi_def_cfa_offset 8
  36              		.cfi_offset 3, -8
  37              		.cfi_offset 14, -4
  38              		.loc 1 105 0
  39 0002 4FF48040 		mov	r0, #16384
  40 0006 0121     		movs	r1, #1
  41 0008 FFF7FEFF 		bl	RCC_APB2PeriphResetCmd
  42              	.LVL0:
  43              		.loc 1 106 0
  44 000c 4FF48040 		mov	r0, #16384
  45 0010 0021     		movs	r1, #0
  46              		.loc 1 107 0
  47 0012 BDE80840 		pop	{r3, lr}
  48              		.cfi_restore 14
  49              		.cfi_restore 3
  50              		.cfi_def_cfa_offset 0
  51              		.loc 1 106 0
  52 0016 FFF7FEBF 		b	RCC_APB2PeriphResetCmd
  53              	.LVL1:
  54              		.cfi_endproc
  55              	.LFE112:
  56              		.size	SYSCFG_DeInit, .-SYSCFG_DeInit
  57 001a 00BF     		.section	.text.SYSCFG_MemoryRemapConfig,"ax",%progbits
ARM GAS  /tmp/ccdIa7xX.s 			page 2


  58              		.align	2
  59              		.p2align 4,,15
  60              		.global	SYSCFG_MemoryRemapConfig
  61              		.thumb
  62              		.thumb_func
  63              		.type	SYSCFG_MemoryRemapConfig, %function
  64              	SYSCFG_MemoryRemapConfig:
  65              	.LFB113:
  66              		.loc 1 123 0
  67              		.cfi_startproc
  68              		@ args = 0, pretend = 0, frame = 0
  69              		@ frame_needed = 0, uses_anonymous_args = 0
  70              		@ link register save eliminated.
  71              	.LVL2:
  72              		.loc 1 127 0
  73 0000 014B     		ldr	r3, .L4
  74 0002 1860     		str	r0, [r3]
  75 0004 7047     		bx	lr
  76              	.L5:
  77 0006 00BF     		.align	2
  78              	.L4:
  79 0008 00380140 		.word	1073821696
  80              		.cfi_endproc
  81              	.LFE113:
  82              		.size	SYSCFG_MemoryRemapConfig, .-SYSCFG_MemoryRemapConfig
  83              		.section	.text.SYSCFG_MemorySwappingBank,"ax",%progbits
  84              		.align	2
  85              		.p2align 4,,15
  86              		.global	SYSCFG_MemorySwappingBank
  87              		.thumb
  88              		.thumb_func
  89              		.type	SYSCFG_MemorySwappingBank, %function
  90              	SYSCFG_MemorySwappingBank:
  91              	.LFB114:
  92              		.loc 1 144 0
  93              		.cfi_startproc
  94              		@ args = 0, pretend = 0, frame = 0
  95              		@ frame_needed = 0, uses_anonymous_args = 0
  96              		@ link register save eliminated.
  97              	.LVL3:
  98              		.loc 1 148 0
  99 0000 014B     		ldr	r3, .L7
 100 0002 1860     		str	r0, [r3]
 101 0004 7047     		bx	lr
 102              	.L8:
 103 0006 00BF     		.align	2
 104              	.L7:
 105 0008 20002742 		.word	1109852192
 106              		.cfi_endproc
 107              	.LFE114:
 108              		.size	SYSCFG_MemorySwappingBank, .-SYSCFG_MemorySwappingBank
 109              		.section	.text.SYSCFG_EXTILineConfig,"ax",%progbits
 110              		.align	2
 111              		.p2align 4,,15
 112              		.global	SYSCFG_EXTILineConfig
 113              		.thumb
 114              		.thumb_func
ARM GAS  /tmp/ccdIa7xX.s 			page 3


 115              		.type	SYSCFG_EXTILineConfig, %function
 116              	SYSCFG_EXTILineConfig:
 117              	.LFB115:
 118              		.loc 1 167 0
 119              		.cfi_startproc
 120              		@ args = 0, pretend = 0, frame = 0
 121              		@ frame_needed = 0, uses_anonymous_args = 0
 122              		@ link register save eliminated.
 123              	.LVL4:
 124 0000 01F0FC03 		and	r3, r1, #252
 125 0004 03F18043 		add	r3, r3, #1073741824
 126 0008 03F59C33 		add	r3, r3, #79872
 127              		.loc 1 174 0
 128 000c 01F00301 		and	r1, r1, #3
 129              	.LVL5:
 130              		.loc 1 167 0
 131 0010 10B4     		push	{r4}
 132              		.cfi_def_cfa_offset 4
 133              		.cfi_offset 4, -4
 134              		.loc 1 174 0
 135 0012 8900     		lsls	r1, r1, #2
 136              	.LVL6:
 137              		.loc 1 175 0
 138 0014 9C68     		ldr	r4, [r3, #8]
 139              		.loc 1 174 0
 140 0016 0F22     		movs	r2, #15
 141 0018 8A40     		lsls	r2, r2, r1
 142              	.LVL7:
 143              		.loc 1 175 0
 144 001a 24EA0202 		bic	r2, r4, r2
 145              	.LVL8:
 146 001e 9A60     		str	r2, [r3, #8]
 147              		.loc 1 176 0
 148 0020 9A68     		ldr	r2, [r3, #8]
 149              		.loc 1 177 0
 150 0022 5DF8044B 		ldr	r4, [sp], #4
 151              		.cfi_restore 4
 152              		.cfi_def_cfa_offset 0
 153              		.loc 1 176 0
 154 0026 8840     		lsls	r0, r0, r1
 155              	.LVL9:
 156 0028 0243     		orrs	r2, r2, r0
 157 002a 9A60     		str	r2, [r3, #8]
 158              		.loc 1 177 0
 159 002c 7047     		bx	lr
 160              		.cfi_endproc
 161              	.LFE115:
 162              		.size	SYSCFG_EXTILineConfig, .-SYSCFG_EXTILineConfig
 163 002e 00BF     		.section	.text.SYSCFG_ETH_MediaInterfaceConfig,"ax",%progbits
 164              		.align	2
 165              		.p2align 4,,15
 166              		.global	SYSCFG_ETH_MediaInterfaceConfig
 167              		.thumb
 168              		.thumb_func
 169              		.type	SYSCFG_ETH_MediaInterfaceConfig, %function
 170              	SYSCFG_ETH_MediaInterfaceConfig:
 171              	.LFB116:
ARM GAS  /tmp/ccdIa7xX.s 			page 4


 172              		.loc 1 188 0
 173              		.cfi_startproc
 174              		@ args = 0, pretend = 0, frame = 0
 175              		@ frame_needed = 0, uses_anonymous_args = 0
 176              		@ link register save eliminated.
 177              	.LVL10:
 178              		.loc 1 191 0
 179 0000 014B     		ldr	r3, .L12
 180 0002 1860     		str	r0, [r3]
 181 0004 7047     		bx	lr
 182              	.L13:
 183 0006 00BF     		.align	2
 184              	.L12:
 185 0008 DC002742 		.word	1109852380
 186              		.cfi_endproc
 187              	.LFE116:
 188              		.size	SYSCFG_ETH_MediaInterfaceConfig, .-SYSCFG_ETH_MediaInterfaceConfig
 189              		.section	.text.SYSCFG_CompensationCellCmd,"ax",%progbits
 190              		.align	2
 191              		.p2align 4,,15
 192              		.global	SYSCFG_CompensationCellCmd
 193              		.thumb
 194              		.thumb_func
 195              		.type	SYSCFG_CompensationCellCmd, %function
 196              	SYSCFG_CompensationCellCmd:
 197              	.LFB117:
 198              		.loc 1 205 0
 199              		.cfi_startproc
 200              		@ args = 0, pretend = 0, frame = 0
 201              		@ frame_needed = 0, uses_anonymous_args = 0
 202              		@ link register save eliminated.
 203              	.LVL11:
 204              		.loc 1 209 0
 205 0000 014B     		ldr	r3, .L15
 206 0002 1860     		str	r0, [r3]
 207 0004 7047     		bx	lr
 208              	.L16:
 209 0006 00BF     		.align	2
 210              	.L15:
 211 0008 00042742 		.word	1109853184
 212              		.cfi_endproc
 213              	.LFE117:
 214              		.size	SYSCFG_CompensationCellCmd, .-SYSCFG_CompensationCellCmd
 215              		.section	.text.SYSCFG_GetCompensationCellStatus,"ax",%progbits
 216              		.align	2
 217              		.p2align 4,,15
 218              		.global	SYSCFG_GetCompensationCellStatus
 219              		.thumb
 220              		.thumb_func
 221              		.type	SYSCFG_GetCompensationCellStatus, %function
 222              	SYSCFG_GetCompensationCellStatus:
 223              	.LFB118:
 224              		.loc 1 218 0
 225              		.cfi_startproc
 226              		@ args = 0, pretend = 0, frame = 0
 227              		@ frame_needed = 0, uses_anonymous_args = 0
 228              		@ link register save eliminated.
ARM GAS  /tmp/ccdIa7xX.s 			page 5


 229              	.LVL12:
 230              		.loc 1 221 0
 231 0000 024B     		ldr	r3, .L18
 232 0002 186A     		ldr	r0, [r3, #32]
 233              	.LVL13:
 234              		.loc 1 230 0
 235 0004 C0F30020 		ubfx	r0, r0, #8, #1
 236              	.LVL14:
 237 0008 7047     		bx	lr
 238              	.L19:
 239 000a 00BF     		.align	2
 240              	.L18:
 241 000c 00380140 		.word	1073821696
 242              		.cfi_endproc
 243              	.LFE118:
 244              		.size	SYSCFG_GetCompensationCellStatus, .-SYSCFG_GetCompensationCellStatus
 245              		.text
 246              	.Letext0:
 247              		.file 2 "/usr/arm-none-eabi/include/machine/_default_types.h"
 248              		.file 3 "/usr/arm-none-eabi/include/sys/_stdint.h"
 249              		.file 4 "ChibiOS_3.0.2/os/ext/CMSIS/ST/stm32f407xx.h"
 250              		.file 5 "ChibiOS_3.0.2/os/ext/CMSIS/ST/stm32f4xx.h"
 251              		.file 6 "ChibiOS_3.0.2/os/ext/CMSIS/include/core_cm4.h"
 252              		.file 7 "ChibiOS_3.0.2/ext/stdperiph_stm32f4/inc/stm32f4xx_rcc.h"