ARM GAS  /tmp/ccs5Nv5k.s 			page 1


   1              		.syntax unified
   2              		.cpu cortex-m4
   3              		.eabi_attribute 27, 1
   4              		.eabi_attribute 28, 1
   5              		.fpu fpv4-sp-d16
   6              		.eabi_attribute 20, 1
   7              		.eabi_attribute 21, 1
   8              		.eabi_attribute 23, 3
   9              		.eabi_attribute 24, 1
  10              		.eabi_attribute 25, 1
  11              		.eabi_attribute 26, 1
  12              		.eabi_attribute 30, 2
  13              		.eabi_attribute 34, 1
  14              		.eabi_attribute 18, 4
  15              		.thumb
  16              		.file	"stm32f4xx_flash.c"
  17              		.text
  18              	.Ltext0:
  19              		.cfi_sections	.debug_frame
  20              		.section	.text.FLASH_SetLatency,"ax",%progbits
  21              		.align	2
  22              		.p2align 4,,15
  23              		.global	FLASH_SetLatency
  24              		.thumb
  25              		.thumb_func
  26              		.type	FLASH_SetLatency, %function
  27              	FLASH_SetLatency:
  28              	.LFB112:
  29              		.file 1 "ChibiOS_3.0.2/ext/stdperiph_stm32f4/src/stm32f4xx_flash.c"
  30              		.loc 1 296 0
  31              		.cfi_startproc
  32              		@ args = 0, pretend = 0, frame = 0
  33              		@ frame_needed = 0, uses_anonymous_args = 0
  34              		@ link register save eliminated.
  35              	.LVL0:
  36              		.loc 1 301 0
  37 0000 014B     		ldr	r3, .L2
  38 0002 C0B2     		uxtb	r0, r0
  39              	.LVL1:
  40 0004 1870     		strb	r0, [r3]
  41 0006 7047     		bx	lr
  42              	.L3:
  43              		.align	2
  44              	.L2:
  45 0008 003C0240 		.word	1073888256
  46              		.cfi_endproc
  47              	.LFE112:
  48              		.size	FLASH_SetLatency, .-FLASH_SetLatency
  49              		.section	.text.FLASH_PrefetchBufferCmd,"ax",%progbits
  50              		.align	2
  51              		.p2align 4,,15
  52              		.global	FLASH_PrefetchBufferCmd
  53              		.thumb
  54              		.thumb_func
  55              		.type	FLASH_PrefetchBufferCmd, %function
  56              	FLASH_PrefetchBufferCmd:
  57              	.LFB113:
ARM GAS  /tmp/ccs5Nv5k.s 			page 2


  58              		.loc 1 311 0
  59              		.cfi_startproc
  60              		@ args = 0, pretend = 0, frame = 0
  61              		@ frame_needed = 0, uses_anonymous_args = 0
  62              		@ link register save eliminated.
  63              	.LVL2:
  64              		.loc 1 318 0
  65 0000 054A     		ldr	r2, .L9
  66 0002 1368     		ldr	r3, [r2]
  67              		.loc 1 316 0
  68 0004 18B9     		cbnz	r0, .L8
  69              		.loc 1 322 0
  70 0006 23F48073 		bic	r3, r3, #256
  71 000a 1360     		str	r3, [r2]
  72 000c 7047     		bx	lr
  73              	.L8:
  74              		.loc 1 318 0
  75 000e 43F48073 		orr	r3, r3, #256
  76 0012 1360     		str	r3, [r2]
  77 0014 7047     		bx	lr
  78              	.L10:
  79 0016 00BF     		.align	2
  80              	.L9:
  81 0018 003C0240 		.word	1073888256
  82              		.cfi_endproc
  83              	.LFE113:
  84              		.size	FLASH_PrefetchBufferCmd, .-FLASH_PrefetchBufferCmd
  85              		.section	.text.FLASH_InstructionCacheCmd,"ax",%progbits
  86              		.align	2
  87              		.p2align 4,,15
  88              		.global	FLASH_InstructionCacheCmd
  89              		.thumb
  90              		.thumb_func
  91              		.type	FLASH_InstructionCacheCmd, %function
  92              	FLASH_InstructionCacheCmd:
  93              	.LFB114:
  94              		.loc 1 333 0
  95              		.cfi_startproc
  96              		@ args = 0, pretend = 0, frame = 0
  97              		@ frame_needed = 0, uses_anonymous_args = 0
  98              		@ link register save eliminated.
  99              	.LVL3:
 100              		.loc 1 339 0
 101 0000 054A     		ldr	r2, .L15
 102 0002 1368     		ldr	r3, [r2]
 103              		.loc 1 337 0
 104 0004 18B9     		cbnz	r0, .L14
 105              		.loc 1 343 0
 106 0006 23F40073 		bic	r3, r3, #512
 107 000a 1360     		str	r3, [r2]
 108 000c 7047     		bx	lr
 109              	.L14:
 110              		.loc 1 339 0
 111 000e 43F40073 		orr	r3, r3, #512
 112 0012 1360     		str	r3, [r2]
 113 0014 7047     		bx	lr
 114              	.L16:
ARM GAS  /tmp/ccs5Nv5k.s 			page 3


 115 0016 00BF     		.align	2
 116              	.L15:
 117 0018 003C0240 		.word	1073888256
 118              		.cfi_endproc
 119              	.LFE114:
 120              		.size	FLASH_InstructionCacheCmd, .-FLASH_InstructionCacheCmd
 121              		.section	.text.FLASH_DataCacheCmd,"ax",%progbits
 122              		.align	2
 123              		.p2align 4,,15
 124              		.global	FLASH_DataCacheCmd
 125              		.thumb
 126              		.thumb_func
 127              		.type	FLASH_DataCacheCmd, %function
 128              	FLASH_DataCacheCmd:
 129              	.LFB115:
 130              		.loc 1 354 0
 131              		.cfi_startproc
 132              		@ args = 0, pretend = 0, frame = 0
 133              		@ frame_needed = 0, uses_anonymous_args = 0
 134              		@ link register save eliminated.
 135              	.LVL4:
 136              		.loc 1 360 0
 137 0000 054A     		ldr	r2, .L21
 138 0002 1368     		ldr	r3, [r2]
 139              		.loc 1 358 0
 140 0004 18B9     		cbnz	r0, .L20
 141              		.loc 1 364 0
 142 0006 23F48063 		bic	r3, r3, #1024
 143 000a 1360     		str	r3, [r2]
 144 000c 7047     		bx	lr
 145              	.L20:
 146              		.loc 1 360 0
 147 000e 43F48063 		orr	r3, r3, #1024
 148 0012 1360     		str	r3, [r2]
 149 0014 7047     		bx	lr
 150              	.L22:
 151 0016 00BF     		.align	2
 152              	.L21:
 153 0018 003C0240 		.word	1073888256
 154              		.cfi_endproc
 155              	.LFE115:
 156              		.size	FLASH_DataCacheCmd, .-FLASH_DataCacheCmd
 157              		.section	.text.FLASH_InstructionCacheReset,"ax",%progbits
 158              		.align	2
 159              		.p2align 4,,15
 160              		.global	FLASH_InstructionCacheReset
 161              		.thumb
 162              		.thumb_func
 163              		.type	FLASH_InstructionCacheReset, %function
 164              	FLASH_InstructionCacheReset:
 165              	.LFB116:
 166              		.loc 1 375 0
 167              		.cfi_startproc
 168              		@ args = 0, pretend = 0, frame = 0
 169              		@ frame_needed = 0, uses_anonymous_args = 0
 170              		@ link register save eliminated.
 171              		.loc 1 376 0
ARM GAS  /tmp/ccs5Nv5k.s 			page 4


 172 0000 024A     		ldr	r2, .L24
 173 0002 1368     		ldr	r3, [r2]
 174 0004 43F40063 		orr	r3, r3, #2048
 175 0008 1360     		str	r3, [r2]
 176 000a 7047     		bx	lr
 177              	.L25:
 178              		.align	2
 179              	.L24:
 180 000c 003C0240 		.word	1073888256
 181              		.cfi_endproc
 182              	.LFE116:
 183              		.size	FLASH_InstructionCacheReset, .-FLASH_InstructionCacheReset
 184              		.section	.text.FLASH_DataCacheReset,"ax",%progbits
 185              		.align	2
 186              		.p2align 4,,15
 187              		.global	FLASH_DataCacheReset
 188              		.thumb
 189              		.thumb_func
 190              		.type	FLASH_DataCacheReset, %function
 191              	FLASH_DataCacheReset:
 192              	.LFB117:
 193              		.loc 1 386 0
 194              		.cfi_startproc
 195              		@ args = 0, pretend = 0, frame = 0
 196              		@ frame_needed = 0, uses_anonymous_args = 0
 197              		@ link register save eliminated.
 198              		.loc 1 387 0
 199 0000 024A     		ldr	r2, .L27
 200 0002 1368     		ldr	r3, [r2]
 201 0004 43F48053 		orr	r3, r3, #4096
 202 0008 1360     		str	r3, [r2]
 203 000a 7047     		bx	lr
 204              	.L28:
 205              		.align	2
 206              	.L27:
 207 000c 003C0240 		.word	1073888256
 208              		.cfi_endproc
 209              	.LFE117:
 210              		.size	FLASH_DataCacheReset, .-FLASH_DataCacheReset
 211              		.section	.text.FLASH_Unlock,"ax",%progbits
 212              		.align	2
 213              		.p2align 4,,15
 214              		.global	FLASH_Unlock
 215              		.thumb
 216              		.thumb_func
 217              		.type	FLASH_Unlock, %function
 218              	FLASH_Unlock:
 219              	.LFB118:
 220              		.loc 1 433 0
 221              		.cfi_startproc
 222              		@ args = 0, pretend = 0, frame = 0
 223              		@ frame_needed = 0, uses_anonymous_args = 0
 224              		@ link register save eliminated.
 225              		.loc 1 434 0
 226 0000 044B     		ldr	r3, .L31
 227 0002 1A69     		ldr	r2, [r3, #16]
 228 0004 002A     		cmp	r2, #0
ARM GAS  /tmp/ccs5Nv5k.s 			page 5


 229 0006 03DA     		bge	.L29
 230              		.loc 1 437 0
 231 0008 0349     		ldr	r1, .L31+4
 232              		.loc 1 438 0
 233 000a 044A     		ldr	r2, .L31+8
 234              		.loc 1 437 0
 235 000c 5960     		str	r1, [r3, #4]
 236              		.loc 1 438 0
 237 000e 5A60     		str	r2, [r3, #4]
 238              	.L29:
 239 0010 7047     		bx	lr
 240              	.L32:
 241 0012 00BF     		.align	2
 242              	.L31:
 243 0014 003C0240 		.word	1073888256
 244 0018 23016745 		.word	1164378403
 245 001c AB89EFCD 		.word	-839939669
 246              		.cfi_endproc
 247              	.LFE118:
 248              		.size	FLASH_Unlock, .-FLASH_Unlock
 249              		.section	.text.FLASH_Lock,"ax",%progbits
 250              		.align	2
 251              		.p2align 4,,15
 252              		.global	FLASH_Lock
 253              		.thumb
 254              		.thumb_func
 255              		.type	FLASH_Lock, %function
 256              	FLASH_Lock:
 257              	.LFB119:
 258              		.loc 1 448 0
 259              		.cfi_startproc
 260              		@ args = 0, pretend = 0, frame = 0
 261              		@ frame_needed = 0, uses_anonymous_args = 0
 262              		@ link register save eliminated.
 263              		.loc 1 450 0
 264 0000 024A     		ldr	r2, .L34
 265 0002 1369     		ldr	r3, [r2, #16]
 266 0004 43F00043 		orr	r3, r3, #-2147483648
 267 0008 1361     		str	r3, [r2, #16]
 268 000a 7047     		bx	lr
 269              	.L35:
 270              		.align	2
 271              	.L34:
 272 000c 003C0240 		.word	1073888256
 273              		.cfi_endproc
 274              	.LFE119:
 275              		.size	FLASH_Lock, .-FLASH_Lock
 276              		.section	.text.FLASH_OB_Unlock,"ax",%progbits
 277              		.align	2
 278              		.p2align 4,,15
 279              		.global	FLASH_OB_Unlock
 280              		.thumb
 281              		.thumb_func
 282              		.type	FLASH_OB_Unlock, %function
 283              	FLASH_OB_Unlock:
 284              	.LFB128:
 285              		.loc 1 990 0
ARM GAS  /tmp/ccs5Nv5k.s 			page 6


 286              		.cfi_startproc
 287              		@ args = 0, pretend = 0, frame = 0
 288              		@ frame_needed = 0, uses_anonymous_args = 0
 289              		@ link register save eliminated.
 290              		.loc 1 991 0
 291 0000 044B     		ldr	r3, .L41
 292 0002 5A69     		ldr	r2, [r3, #20]
 293 0004 D207     		lsls	r2, r2, #31
 294 0006 03D5     		bpl	.L36
 295              		.loc 1 994 0
 296 0008 0349     		ldr	r1, .L41+4
 297              		.loc 1 995 0
 298 000a 044A     		ldr	r2, .L41+8
 299              		.loc 1 994 0
 300 000c 9960     		str	r1, [r3, #8]
 301              		.loc 1 995 0
 302 000e 9A60     		str	r2, [r3, #8]
 303              	.L36:
 304 0010 7047     		bx	lr
 305              	.L42:
 306 0012 00BF     		.align	2
 307              	.L41:
 308 0014 003C0240 		.word	1073888256
 309 0018 3B2A1908 		.word	135866939
 310 001c 7F6E5D4C 		.word	1281191551
 311              		.cfi_endproc
 312              	.LFE128:
 313              		.size	FLASH_OB_Unlock, .-FLASH_OB_Unlock
 314              		.section	.text.FLASH_OB_Lock,"ax",%progbits
 315              		.align	2
 316              		.p2align 4,,15
 317              		.global	FLASH_OB_Lock
 318              		.thumb
 319              		.thumb_func
 320              		.type	FLASH_OB_Lock, %function
 321              	FLASH_OB_Lock:
 322              	.LFB129:
 323              		.loc 1 1005 0
 324              		.cfi_startproc
 325              		@ args = 0, pretend = 0, frame = 0
 326              		@ frame_needed = 0, uses_anonymous_args = 0
 327              		@ link register save eliminated.
 328              		.loc 1 1007 0
 329 0000 024A     		ldr	r2, .L44
 330 0002 5369     		ldr	r3, [r2, #20]
 331 0004 43F00103 		orr	r3, r3, #1
 332 0008 5361     		str	r3, [r2, #20]
 333 000a 7047     		bx	lr
 334              	.L45:
 335              		.align	2
 336              	.L44:
 337 000c 003C0240 		.word	1073888256
 338              		.cfi_endproc
 339              	.LFE129:
 340              		.size	FLASH_OB_Lock, .-FLASH_OB_Lock
 341              		.section	.text.FLASH_OB_PCROPSelectionConfig,"ax",%progbits
 342              		.align	2
ARM GAS  /tmp/ccs5Nv5k.s 			page 7


 343              		.p2align 4,,15
 344              		.global	FLASH_OB_PCROPSelectionConfig
 345              		.thumb
 346              		.thumb_func
 347              		.type	FLASH_OB_PCROPSelectionConfig, %function
 348              	FLASH_OB_PCROPSelectionConfig:
 349              	.LFB132:
 350              		.loc 1 1120 0
 351              		.cfi_startproc
 352              		@ args = 0, pretend = 0, frame = 0
 353              		@ frame_needed = 0, uses_anonymous_args = 0
 354              		@ link register save eliminated.
 355              	.LVL5:
 356              		.loc 1 1127 0
 357 0000 034A     		ldr	r2, .L47
 358 0002 1378     		ldrb	r3, [r2]	@ zero_extendqisi2
 359              	.LVL6:
 360 0004 03F07F03 		and	r3, r3, #127
 361              	.LVL7:
 362              		.loc 1 1129 0
 363 0008 1843     		orrs	r0, r0, r3
 364              	.LVL8:
 365 000a 1070     		strb	r0, [r2]
 366 000c 7047     		bx	lr
 367              	.L48:
 368 000e 00BF     		.align	2
 369              	.L47:
 370 0010 173C0240 		.word	1073888279
 371              		.cfi_endproc
 372              	.LFE132:
 373              		.size	FLASH_OB_PCROPSelectionConfig, .-FLASH_OB_PCROPSelectionConfig
 374              		.section	.text.FLASH_OB_BootConfig,"ax",%progbits
 375              		.align	2
 376              		.p2align 4,,15
 377              		.global	FLASH_OB_BootConfig
 378              		.thumb
 379              		.thumb_func
 380              		.type	FLASH_OB_BootConfig, %function
 381              	FLASH_OB_BootConfig:
 382              	.LFB137:
 383              		.loc 1 1296 0
 384              		.cfi_startproc
 385              		@ args = 0, pretend = 0, frame = 0
 386              		@ frame_needed = 0, uses_anonymous_args = 0
 387              		@ link register save eliminated.
 388              	.LVL9:
 389              		.loc 1 1301 0
 390 0000 044B     		ldr	r3, .L50
 391 0002 1A78     		ldrb	r2, [r3]	@ zero_extendqisi2
 392 0004 02F0EF02 		and	r2, r2, #239
 393 0008 1A70     		strb	r2, [r3]
 394              		.loc 1 1302 0
 395 000a 1A78     		ldrb	r2, [r3]	@ zero_extendqisi2
 396 000c 1043     		orrs	r0, r0, r2
 397              	.LVL10:
 398 000e 1870     		strb	r0, [r3]
 399 0010 7047     		bx	lr
ARM GAS  /tmp/ccs5Nv5k.s 			page 8


 400              	.L51:
 401 0012 00BF     		.align	2
 402              	.L50:
 403 0014 143C0240 		.word	1073888276
 404              		.cfi_endproc
 405              	.LFE137:
 406              		.size	FLASH_OB_BootConfig, .-FLASH_OB_BootConfig
 407              		.section	.text.FLASH_OB_BORConfig,"ax",%progbits
 408              		.align	2
 409              		.p2align 4,,15
 410              		.global	FLASH_OB_BORConfig
 411              		.thumb
 412              		.thumb_func
 413              		.type	FLASH_OB_BORConfig, %function
 414              	FLASH_OB_BORConfig:
 415              	.LFB138:
 416              		.loc 1 1317 0
 417              		.cfi_startproc
 418              		@ args = 0, pretend = 0, frame = 0
 419              		@ frame_needed = 0, uses_anonymous_args = 0
 420              		@ link register save eliminated.
 421              	.LVL11:
 422              		.loc 1 1322 0
 423 0000 044B     		ldr	r3, .L53
 424 0002 1A78     		ldrb	r2, [r3]	@ zero_extendqisi2
 425 0004 02F0F302 		and	r2, r2, #243
 426 0008 1A70     		strb	r2, [r3]
 427              		.loc 1 1323 0
 428 000a 1A78     		ldrb	r2, [r3]	@ zero_extendqisi2
 429 000c 1043     		orrs	r0, r0, r2
 430              	.LVL12:
 431 000e 1870     		strb	r0, [r3]
 432 0010 7047     		bx	lr
 433              	.L54:
 434 0012 00BF     		.align	2
 435              	.L53:
 436 0014 143C0240 		.word	1073888276
 437              		.cfi_endproc
 438              	.LFE138:
 439              		.size	FLASH_OB_BORConfig, .-FLASH_OB_BORConfig
 440              		.section	.text.FLASH_OB_GetUser,"ax",%progbits
 441              		.align	2
 442              		.p2align 4,,15
 443              		.global	FLASH_OB_GetUser
 444              		.thumb
 445              		.thumb_func
 446              		.type	FLASH_OB_GetUser, %function
 447              	FLASH_OB_GetUser:
 448              	.LFB140:
 449              		.loc 1 1353 0
 450              		.cfi_startproc
 451              		@ args = 0, pretend = 0, frame = 0
 452              		@ frame_needed = 0, uses_anonymous_args = 0
 453              		@ link register save eliminated.
 454              		.loc 1 1355 0
 455 0000 024B     		ldr	r3, .L56
 456 0002 5869     		ldr	r0, [r3, #20]
ARM GAS  /tmp/ccs5Nv5k.s 			page 9


 457              		.loc 1 1356 0
 458 0004 C0F34710 		ubfx	r0, r0, #5, #8
 459 0008 7047     		bx	lr
 460              	.L57:
 461 000a 00BF     		.align	2
 462              	.L56:
 463 000c 003C0240 		.word	1073888256
 464              		.cfi_endproc
 465              	.LFE140:
 466              		.size	FLASH_OB_GetUser, .-FLASH_OB_GetUser
 467              		.section	.text.FLASH_OB_GetWRP,"ax",%progbits
 468              		.align	2
 469              		.p2align 4,,15
 470              		.global	FLASH_OB_GetWRP
 471              		.thumb
 472              		.thumb_func
 473              		.type	FLASH_OB_GetWRP, %function
 474              	FLASH_OB_GetWRP:
 475              	.LFB141:
 476              		.loc 1 1364 0
 477              		.cfi_startproc
 478              		@ args = 0, pretend = 0, frame = 0
 479              		@ frame_needed = 0, uses_anonymous_args = 0
 480              		@ link register save eliminated.
 481              		.loc 1 1366 0
 482 0000 014B     		ldr	r3, .L59
 483 0002 1888     		ldrh	r0, [r3]
 484              		.loc 1 1367 0
 485 0004 80B2     		uxth	r0, r0
 486 0006 7047     		bx	lr
 487              	.L60:
 488              		.align	2
 489              	.L59:
 490 0008 163C0240 		.word	1073888278
 491              		.cfi_endproc
 492              	.LFE141:
 493              		.size	FLASH_OB_GetWRP, .-FLASH_OB_GetWRP
 494              		.section	.text.FLASH_OB_GetWRP1,"ax",%progbits
 495              		.align	2
 496              		.p2align 4,,15
 497              		.global	FLASH_OB_GetWRP1
 498              		.thumb
 499              		.thumb_func
 500              		.type	FLASH_OB_GetWRP1, %function
 501              	FLASH_OB_GetWRP1:
 502              	.LFB142:
 503              		.loc 1 1378 0
 504              		.cfi_startproc
 505              		@ args = 0, pretend = 0, frame = 0
 506              		@ frame_needed = 0, uses_anonymous_args = 0
 507              		@ link register save eliminated.
 508              		.loc 1 1380 0
 509 0000 014B     		ldr	r3, .L62
 510 0002 1888     		ldrh	r0, [r3]
 511              		.loc 1 1381 0
 512 0004 80B2     		uxth	r0, r0
 513 0006 7047     		bx	lr
ARM GAS  /tmp/ccs5Nv5k.s 			page 10


 514              	.L63:
 515              		.align	2
 516              	.L62:
 517 0008 1A3C0240 		.word	1073888282
 518              		.cfi_endproc
 519              	.LFE142:
 520              		.size	FLASH_OB_GetWRP1, .-FLASH_OB_GetWRP1
 521              		.section	.text.FLASH_OB_GetPCROP,"ax",%progbits
 522              		.align	2
 523              		.p2align 4,,15
 524              		.global	FLASH_OB_GetPCROP
 525              		.thumb
 526              		.thumb_func
 527              		.type	FLASH_OB_GetPCROP, %function
 528              	FLASH_OB_GetPCROP:
 529              	.LFB143:
 530              		.loc 1 1392 0
 531              		.cfi_startproc
 532              		@ args = 0, pretend = 0, frame = 0
 533              		@ frame_needed = 0, uses_anonymous_args = 0
 534              		@ link register save eliminated.
 535              		.loc 1 1394 0
 536 0000 014B     		ldr	r3, .L65
 537 0002 1888     		ldrh	r0, [r3]
 538              		.loc 1 1395 0
 539 0004 80B2     		uxth	r0, r0
 540 0006 7047     		bx	lr
 541              	.L66:
 542              		.align	2
 543              	.L65:
 544 0008 163C0240 		.word	1073888278
 545              		.cfi_endproc
 546              	.LFE143:
 547              		.size	FLASH_OB_GetPCROP, .-FLASH_OB_GetPCROP
 548              		.section	.text.FLASH_OB_GetPCROP1,"ax",%progbits
 549              		.align	2
 550              		.p2align 4,,15
 551              		.global	FLASH_OB_GetPCROP1
 552              		.thumb
 553              		.thumb_func
 554              		.type	FLASH_OB_GetPCROP1, %function
 555              	FLASH_OB_GetPCROP1:
 556              	.LFB144:
 557              		.loc 1 1406 0
 558              		.cfi_startproc
 559              		@ args = 0, pretend = 0, frame = 0
 560              		@ frame_needed = 0, uses_anonymous_args = 0
 561              		@ link register save eliminated.
 562              		.loc 1 1408 0
 563 0000 014B     		ldr	r3, .L68
 564 0002 1888     		ldrh	r0, [r3]
 565              		.loc 1 1409 0
 566 0004 80B2     		uxth	r0, r0
 567 0006 7047     		bx	lr
 568              	.L69:
 569              		.align	2
 570              	.L68:
ARM GAS  /tmp/ccs5Nv5k.s 			page 11


 571 0008 1A3C0240 		.word	1073888282
 572              		.cfi_endproc
 573              	.LFE144:
 574              		.size	FLASH_OB_GetPCROP1, .-FLASH_OB_GetPCROP1
 575              		.section	.text.FLASH_OB_GetRDP,"ax",%progbits
 576              		.align	2
 577              		.p2align 4,,15
 578              		.global	FLASH_OB_GetRDP
 579              		.thumb
 580              		.thumb_func
 581              		.type	FLASH_OB_GetRDP, %function
 582              	FLASH_OB_GetRDP:
 583              	.LFB145:
 584              		.loc 1 1419 0
 585              		.cfi_startproc
 586              		@ args = 0, pretend = 0, frame = 0
 587              		@ frame_needed = 0, uses_anonymous_args = 0
 588              		@ link register save eliminated.
 589              	.LVL13:
 590              		.loc 1 1422 0
 591 0000 024B     		ldr	r3, .L71
 592 0002 1878     		ldrb	r0, [r3]	@ zero_extendqisi2
 593              	.LVL14:
 594              		.loc 1 1431 0
 595 0004 AA38     		subs	r0, r0, #170
 596              	.LVL15:
 597 0006 18BF     		it	ne
 598 0008 0120     		movne	r0, #1
 599 000a 7047     		bx	lr
 600              	.L72:
 601              		.align	2
 602              	.L71:
 603 000c 153C0240 		.word	1073888277
 604              		.cfi_endproc
 605              	.LFE145:
 606              		.size	FLASH_OB_GetRDP, .-FLASH_OB_GetRDP
 607              		.section	.text.FLASH_OB_GetBOR,"ax",%progbits
 608              		.align	2
 609              		.p2align 4,,15
 610              		.global	FLASH_OB_GetBOR
 611              		.thumb
 612              		.thumb_func
 613              		.type	FLASH_OB_GetBOR, %function
 614              	FLASH_OB_GetBOR:
 615              	.LFB146:
 616              		.loc 1 1443 0
 617              		.cfi_startproc
 618              		@ args = 0, pretend = 0, frame = 0
 619              		@ frame_needed = 0, uses_anonymous_args = 0
 620              		@ link register save eliminated.
 621              		.loc 1 1445 0
 622 0000 024B     		ldr	r3, .L74
 623 0002 1878     		ldrb	r0, [r3]	@ zero_extendqisi2
 624              		.loc 1 1446 0
 625 0004 00F00C00 		and	r0, r0, #12
 626 0008 7047     		bx	lr
 627              	.L75:
ARM GAS  /tmp/ccs5Nv5k.s 			page 12


 628 000a 00BF     		.align	2
 629              	.L74:
 630 000c 143C0240 		.word	1073888276
 631              		.cfi_endproc
 632              	.LFE146:
 633              		.size	FLASH_OB_GetBOR, .-FLASH_OB_GetBOR
 634              		.section	.text.FLASH_ITConfig,"ax",%progbits
 635              		.align	2
 636              		.p2align 4,,15
 637              		.global	FLASH_ITConfig
 638              		.thumb
 639              		.thumb_func
 640              		.type	FLASH_ITConfig, %function
 641              	FLASH_ITConfig:
 642              	.LFB147:
 643              		.loc 1 1472 0
 644              		.cfi_startproc
 645              		@ args = 0, pretend = 0, frame = 0
 646              		@ frame_needed = 0, uses_anonymous_args = 0
 647              		@ link register save eliminated.
 648              	.LVL16:
 649              		.loc 1 1480 0
 650 0000 044A     		ldr	r2, .L80
 651 0002 1369     		ldr	r3, [r2, #16]
 652              		.loc 1 1477 0
 653 0004 19B9     		cbnz	r1, .L79
 654              		.loc 1 1485 0
 655 0006 23EA0000 		bic	r0, r3, r0
 656              	.LVL17:
 657 000a 1061     		str	r0, [r2, #16]
 658 000c 7047     		bx	lr
 659              	.LVL18:
 660              	.L79:
 661              		.loc 1 1480 0
 662 000e 1843     		orrs	r0, r0, r3
 663              	.LVL19:
 664 0010 1061     		str	r0, [r2, #16]
 665 0012 7047     		bx	lr
 666              	.L81:
 667              		.align	2
 668              	.L80:
 669 0014 003C0240 		.word	1073888256
 670              		.cfi_endproc
 671              	.LFE147:
 672              		.size	FLASH_ITConfig, .-FLASH_ITConfig
 673              		.section	.text.FLASH_GetFlagStatus,"ax",%progbits
 674              		.align	2
 675              		.p2align 4,,15
 676              		.global	FLASH_GetFlagStatus
 677              		.thumb
 678              		.thumb_func
 679              		.type	FLASH_GetFlagStatus, %function
 680              	FLASH_GetFlagStatus:
 681              	.LFB148:
 682              		.loc 1 1504 0
 683              		.cfi_startproc
 684              		@ args = 0, pretend = 0, frame = 0
ARM GAS  /tmp/ccs5Nv5k.s 			page 13


 685              		@ frame_needed = 0, uses_anonymous_args = 0
 686              		@ link register save eliminated.
 687              	.LVL20:
 688              		.loc 1 1509 0
 689 0000 034B     		ldr	r3, .L83
 690 0002 DB68     		ldr	r3, [r3, #12]
 691              	.LVL21:
 692 0004 1842     		tst	r0, r3
 693              		.loc 1 1519 0
 694 0006 14BF     		ite	ne
 695 0008 0120     		movne	r0, #1
 696              	.LVL22:
 697 000a 0020     		moveq	r0, #0
 698 000c 7047     		bx	lr
 699              	.L84:
 700 000e 00BF     		.align	2
 701              	.L83:
 702 0010 003C0240 		.word	1073888256
 703              		.cfi_endproc
 704              	.LFE148:
 705              		.size	FLASH_GetFlagStatus, .-FLASH_GetFlagStatus
 706              		.section	.text.FLASH_ClearFlag,"ax",%progbits
 707              		.align	2
 708              		.p2align 4,,15
 709              		.global	FLASH_ClearFlag
 710              		.thumb
 711              		.thumb_func
 712              		.type	FLASH_ClearFlag, %function
 713              	FLASH_ClearFlag:
 714              	.LFB149:
 715              		.loc 1 1535 0
 716              		.cfi_startproc
 717              		@ args = 0, pretend = 0, frame = 0
 718              		@ frame_needed = 0, uses_anonymous_args = 0
 719              		@ link register save eliminated.
 720              	.LVL23:
 721              		.loc 1 1540 0
 722 0000 014B     		ldr	r3, .L86
 723 0002 D860     		str	r0, [r3, #12]
 724 0004 7047     		bx	lr
 725              	.L87:
 726 0006 00BF     		.align	2
 727              	.L86:
 728 0008 003C0240 		.word	1073888256
 729              		.cfi_endproc
 730              	.LFE149:
 731              		.size	FLASH_ClearFlag, .-FLASH_ClearFlag
 732              		.section	.text.FLASH_GetStatus,"ax",%progbits
 733              		.align	2
 734              		.p2align 4,,15
 735              		.global	FLASH_GetStatus
 736              		.thumb
 737              		.thumb_func
 738              		.type	FLASH_GetStatus, %function
 739              	FLASH_GetStatus:
 740              	.LFB150:
 741              		.loc 1 1550 0
ARM GAS  /tmp/ccs5Nv5k.s 			page 14


 742              		.cfi_startproc
 743              		@ args = 0, pretend = 0, frame = 0
 744              		@ frame_needed = 0, uses_anonymous_args = 0
 745              		@ link register save eliminated.
 746              	.LVL24:
 747              		.loc 1 1553 0
 748 0000 0E4B     		ldr	r3, .L98
 749 0002 DA68     		ldr	r2, [r3, #12]
 750 0004 D203     		lsls	r2, r2, #15
 751 0006 09D4     		bmi	.L90
 752              		.loc 1 1559 0
 753 0008 DA68     		ldr	r2, [r3, #12]
 754 000a D106     		lsls	r1, r2, #27
 755 000c 01D5     		bpl	.L95
 756              		.loc 1 1561 0
 757 000e 0620     		movs	r0, #6
 758 0010 7047     		bx	lr
 759              	.L95:
 760              		.loc 1 1565 0
 761 0012 DA68     		ldr	r2, [r3, #12]
 762 0014 D205     		lsls	r2, r2, #23
 763 0016 03D5     		bpl	.L96
 764              		.loc 1 1567 0
 765 0018 0220     		movs	r0, #2
 766 001a 7047     		bx	lr
 767              	.L90:
 768              		.loc 1 1555 0
 769 001c 0120     		movs	r0, #1
 770 001e 7047     		bx	lr
 771              	.L96:
 772              		.loc 1 1571 0
 773 0020 DA68     		ldr	r2, [r3, #12]
 774 0022 12F0E00F 		tst	r2, #224
 775 0026 01D0     		beq	.L97
 776              		.loc 1 1573 0
 777 0028 0720     		movs	r0, #7
 778              	.LVL25:
 779              		.loc 1 1591 0
 780 002a 7047     		bx	lr
 781              	.LVL26:
 782              	.L97:
 783              	.LBB4:
 784              	.LBB5:
 785              		.loc 1 1577 0
 786 002c DB68     		ldr	r3, [r3, #12]
 787 002e 13F0020F 		tst	r3, #2
 788              		.loc 1 1583 0
 789 0032 14BF     		ite	ne
 790 0034 0820     		movne	r0, #8
 791 0036 0920     		moveq	r0, #9
 792 0038 7047     		bx	lr
 793              	.L99:
 794 003a 00BF     		.align	2
 795              	.L98:
 796 003c 003C0240 		.word	1073888256
 797              	.LBE5:
 798              	.LBE4:
ARM GAS  /tmp/ccs5Nv5k.s 			page 15


 799              		.cfi_endproc
 800              	.LFE150:
 801              		.size	FLASH_GetStatus, .-FLASH_GetStatus
 802              		.section	.text.FLASH_WaitForLastOperation,"ax",%progbits
 803              		.align	2
 804              		.p2align 4,,15
 805              		.global	FLASH_WaitForLastOperation
 806              		.thumb
 807              		.thumb_func
 808              		.type	FLASH_WaitForLastOperation, %function
 809              	FLASH_WaitForLastOperation:
 810              	.LFB151:
 811              		.loc 1 1600 0
 812              		.cfi_startproc
 813              		@ args = 0, pretend = 0, frame = 8
 814              		@ frame_needed = 0, uses_anonymous_args = 0
 815 0000 00B5     		push	{lr}
 816              		.cfi_def_cfa_offset 4
 817              		.cfi_offset 14, -4
 818 0002 83B0     		sub	sp, sp, #12
 819              		.cfi_def_cfa_offset 16
 820              		.loc 1 1601 0
 821 0004 0923     		movs	r3, #9
 822 0006 8DF80730 		strb	r3, [sp, #7]
 823              	.L109:
 824              		.loc 1 1604 0
 825 000a FFF7FEFF 		bl	FLASH_GetStatus
 826              	.LVL27:
 827 000e 8DF80700 		strb	r0, [sp, #7]
 828              		.loc 1 1609 0
 829 0012 9DF80730 		ldrb	r3, [sp, #7]	@ zero_extendqisi2
 830 0016 012B     		cmp	r3, #1
 831 0018 F7D0     		beq	.L109
 832              		.loc 1 1614 0
 833 001a 9DF80700 		ldrb	r0, [sp, #7]	@ zero_extendqisi2
 834 001e C0B2     		uxtb	r0, r0
 835              		.loc 1 1615 0
 836 0020 03B0     		add	sp, sp, #12
 837              		.cfi_def_cfa_offset 4
 838              		@ sp needed
 839 0022 5DF804FB 		ldr	pc, [sp], #4
 840              		.cfi_endproc
 841              	.LFE151:
 842              		.size	FLASH_WaitForLastOperation, .-FLASH_WaitForLastOperation
 843 0026 00BF     		.section	.text.FLASH_EraseSector,"ax",%progbits
 844              		.align	2
 845              		.p2align 4,,15
 846              		.global	FLASH_EraseSector
 847              		.thumb
 848              		.thumb_func
 849              		.type	FLASH_EraseSector, %function
 850              	FLASH_EraseSector:
 851              	.LFB120:
 852              		.loc 1 491 0
 853              		.cfi_startproc
 854              		@ args = 0, pretend = 0, frame = 0
 855              		@ frame_needed = 0, uses_anonymous_args = 0
ARM GAS  /tmp/ccs5Nv5k.s 			page 16


 856              	.LVL28:
 857 0000 70B5     		push	{r4, r5, r6, lr}
 858              		.cfi_def_cfa_offset 16
 859              		.cfi_offset 4, -16
 860              		.cfi_offset 5, -12
 861              		.cfi_offset 6, -8
 862              		.cfi_offset 14, -4
 863              		.loc 1 491 0
 864 0002 0646     		mov	r6, r0
 865              		.loc 1 499 0
 866 0004 59B3     		cbz	r1, .L113
 867              		.loc 1 503 0
 868 0006 0129     		cmp	r1, #1
 869 0008 2FD0     		beq	.L114
 870              		.loc 1 507 0
 871 000a 0229     		cmp	r1, #2
 872              		.loc 1 513 0
 873 000c 0CBF     		ite	eq
 874 000e 4FF40074 		moveq	r4, #512
 875 0012 4FF44074 		movne	r4, #768
 876              	.LVL29:
 877              		.loc 1 516 0
 878 0016 FFF7FEFF 		bl	FLASH_WaitForLastOperation
 879              	.LVL30:
 880              		.loc 1 518 0
 881 001a 0928     		cmp	r0, #9
 882 001c 24D1     		bne	.L112
 883              	.L117:
 884              		.loc 1 521 0
 885 001e 144D     		ldr	r5, .L118
 886 0020 2B69     		ldr	r3, [r5, #16]
 887 0022 23F44073 		bic	r3, r3, #768
 888 0026 2B61     		str	r3, [r5, #16]
 889              		.loc 1 522 0
 890 0028 2969     		ldr	r1, [r5, #16]
 891 002a 2143     		orrs	r1, r1, r4
 892 002c 2961     		str	r1, [r5, #16]
 893              		.loc 1 523 0
 894 002e 2B69     		ldr	r3, [r5, #16]
 895 0030 23F0F803 		bic	r3, r3, #248
 896 0034 2B61     		str	r3, [r5, #16]
 897              		.loc 1 524 0
 898 0036 2B69     		ldr	r3, [r5, #16]
 899 0038 43F00203 		orr	r3, r3, #2
 900 003c 1E43     		orrs	r6, r6, r3
 901              	.LVL31:
 902 003e 2E61     		str	r6, [r5, #16]
 903              		.loc 1 525 0
 904 0040 2B69     		ldr	r3, [r5, #16]
 905 0042 43F48033 		orr	r3, r3, #65536
 906 0046 2B61     		str	r3, [r5, #16]
 907              		.loc 1 528 0
 908 0048 FFF7FEFF 		bl	FLASH_WaitForLastOperation
 909              	.LVL32:
 910              		.loc 1 531 0
 911 004c 2B69     		ldr	r3, [r5, #16]
 912 004e 23F00203 		bic	r3, r3, #2
ARM GAS  /tmp/ccs5Nv5k.s 			page 17


 913 0052 2B61     		str	r3, [r5, #16]
 914              		.loc 1 532 0
 915 0054 2B69     		ldr	r3, [r5, #16]
 916 0056 23F0F803 		bic	r3, r3, #248
 917 005a 2B61     		str	r3, [r5, #16]
 918              		.loc 1 536 0
 919 005c 70BD     		pop	{r4, r5, r6, pc}
 920              	.LVL33:
 921              	.L113:
 922              		.loc 1 501 0
 923 005e 0C46     		mov	r4, r1
 924              	.L111:
 925              	.LVL34:
 926              		.loc 1 516 0
 927 0060 FFF7FEFF 		bl	FLASH_WaitForLastOperation
 928              	.LVL35:
 929              		.loc 1 518 0
 930 0064 0928     		cmp	r0, #9
 931 0066 DAD0     		beq	.L117
 932              	.L112:
 933              		.loc 1 536 0
 934 0068 70BD     		pop	{r4, r5, r6, pc}
 935              	.LVL36:
 936              	.L114:
 937              		.loc 1 505 0
 938 006a 4FF48074 		mov	r4, #256
 939 006e F7E7     		b	.L111
 940              	.L119:
 941              		.align	2
 942              	.L118:
 943 0070 003C0240 		.word	1073888256
 944              		.cfi_endproc
 945              	.LFE120:
 946              		.size	FLASH_EraseSector, .-FLASH_EraseSector
 947              		.section	.text.FLASH_EraseAllSectors,"ax",%progbits
 948              		.align	2
 949              		.p2align 4,,15
 950              		.global	FLASH_EraseAllSectors
 951              		.thumb
 952              		.thumb_func
 953              		.type	FLASH_EraseAllSectors, %function
 954              	FLASH_EraseAllSectors:
 955              	.LFB121:
 956              		.loc 1 559 0
 957              		.cfi_startproc
 958              		@ args = 0, pretend = 0, frame = 0
 959              		@ frame_needed = 0, uses_anonymous_args = 0
 960              	.LVL37:
 961 0000 38B5     		push	{r3, r4, r5, lr}
 962              		.cfi_def_cfa_offset 16
 963              		.cfi_offset 3, -16
 964              		.cfi_offset 4, -12
 965              		.cfi_offset 5, -8
 966              		.cfi_offset 14, -4
 967              		.loc 1 559 0
 968 0002 0446     		mov	r4, r0
 969              		.loc 1 564 0
ARM GAS  /tmp/ccs5Nv5k.s 			page 18


 970 0004 FFF7FEFF 		bl	FLASH_WaitForLastOperation
 971              	.LVL38:
 972              		.loc 1 567 0
 973 0008 3CB1     		cbz	r4, .L121
 974              		.loc 1 571 0
 975 000a 012C     		cmp	r4, #1
 976 000c 08D0     		beq	.L124
 977              		.loc 1 575 0
 978 000e 022C     		cmp	r4, #2
 979              		.loc 1 581 0
 980 0010 0CBF     		ite	eq
 981 0012 4FF40074 		moveq	r4, #512
 982 0016 4FF44074 		movne	r4, #768
 983              	.L121:
 984              	.LVL39:
 985              		.loc 1 583 0
 986 001a 0928     		cmp	r0, #9
 987 001c 04D0     		beq	.L127
 988              	.L122:
 989              		.loc 1 615 0
 990 001e 38BD     		pop	{r3, r4, r5, pc}
 991              	.LVL40:
 992              	.L124:
 993              		.loc 1 583 0
 994 0020 0928     		cmp	r0, #9
 995              		.loc 1 573 0
 996 0022 4FF48074 		mov	r4, #256
 997              	.LVL41:
 998              		.loc 1 583 0
 999 0026 FAD1     		bne	.L122
 1000              	.L127:
 1001              		.loc 1 600 0
 1002 0028 0B4D     		ldr	r5, .L128
 1003 002a 2B69     		ldr	r3, [r5, #16]
 1004 002c 23F44073 		bic	r3, r3, #768
 1005 0030 2B61     		str	r3, [r5, #16]
 1006              		.loc 1 601 0
 1007 0032 2B69     		ldr	r3, [r5, #16]
 1008 0034 1C43     		orrs	r4, r4, r3
 1009              	.LVL42:
 1010 0036 2C61     		str	r4, [r5, #16]
 1011              		.loc 1 602 0
 1012 0038 2B69     		ldr	r3, [r5, #16]
 1013 003a 43F00403 		orr	r3, r3, #4
 1014 003e 2B61     		str	r3, [r5, #16]
 1015              		.loc 1 603 0
 1016 0040 2B69     		ldr	r3, [r5, #16]
 1017 0042 43F48033 		orr	r3, r3, #65536
 1018 0046 2B61     		str	r3, [r5, #16]
 1019              		.loc 1 606 0
 1020 0048 FFF7FEFF 		bl	FLASH_WaitForLastOperation
 1021              	.LVL43:
 1022              		.loc 1 609 0
 1023 004c 2B69     		ldr	r3, [r5, #16]
 1024 004e 23F00403 		bic	r3, r3, #4
 1025 0052 2B61     		str	r3, [r5, #16]
 1026              		.loc 1 615 0
ARM GAS  /tmp/ccs5Nv5k.s 			page 19


 1027 0054 38BD     		pop	{r3, r4, r5, pc}
 1028              	.L129:
 1029 0056 00BF     		.align	2
 1030              	.L128:
 1031 0058 003C0240 		.word	1073888256
 1032              		.cfi_endproc
 1033              	.LFE121:
 1034              		.size	FLASH_EraseAllSectors, .-FLASH_EraseAllSectors
 1035              		.section	.text.FLASH_EraseAllBank1Sectors,"ax",%progbits
 1036              		.align	2
 1037              		.p2align 4,,15
 1038              		.global	FLASH_EraseAllBank1Sectors
 1039              		.thumb
 1040              		.thumb_func
 1041              		.type	FLASH_EraseAllBank1Sectors, %function
 1042              	FLASH_EraseAllBank1Sectors:
 1043              	.LFB122:
 1044              		.loc 1 640 0
 1045              		.cfi_startproc
 1046              		@ args = 0, pretend = 0, frame = 0
 1047              		@ frame_needed = 0, uses_anonymous_args = 0
 1048              	.LVL44:
 1049 0000 38B5     		push	{r3, r4, r5, lr}
 1050              		.cfi_def_cfa_offset 16
 1051              		.cfi_offset 3, -16
 1052              		.cfi_offset 4, -12
 1053              		.cfi_offset 5, -8
 1054              		.cfi_offset 14, -4
 1055              		.loc 1 640 0
 1056 0002 0446     		mov	r4, r0
 1057              		.loc 1 645 0
 1058 0004 FFF7FEFF 		bl	FLASH_WaitForLastOperation
 1059              	.LVL45:
 1060              		.loc 1 648 0
 1061 0008 3CB1     		cbz	r4, .L131
 1062              		.loc 1 652 0
 1063 000a 012C     		cmp	r4, #1
 1064 000c 08D0     		beq	.L134
 1065              		.loc 1 656 0
 1066 000e 022C     		cmp	r4, #2
 1067              		.loc 1 662 0
 1068 0010 0CBF     		ite	eq
 1069 0012 4FF40074 		moveq	r4, #512
 1070 0016 4FF44074 		movne	r4, #768
 1071              	.L131:
 1072              	.LVL46:
 1073              		.loc 1 664 0
 1074 001a 0928     		cmp	r0, #9
 1075 001c 04D0     		beq	.L137
 1076              	.L132:
 1077              		.loc 1 681 0
 1078 001e 38BD     		pop	{r3, r4, r5, pc}
 1079              	.LVL47:
 1080              	.L134:
 1081              		.loc 1 664 0
 1082 0020 0928     		cmp	r0, #9
 1083              		.loc 1 654 0
ARM GAS  /tmp/ccs5Nv5k.s 			page 20


 1084 0022 4FF48074 		mov	r4, #256
 1085              	.LVL48:
 1086              		.loc 1 664 0
 1087 0026 FAD1     		bne	.L132
 1088              	.L137:
 1089              		.loc 1 667 0
 1090 0028 0B4D     		ldr	r5, .L138
 1091 002a 2B69     		ldr	r3, [r5, #16]
 1092 002c 23F44073 		bic	r3, r3, #768
 1093 0030 2B61     		str	r3, [r5, #16]
 1094              		.loc 1 668 0
 1095 0032 2B69     		ldr	r3, [r5, #16]
 1096 0034 1C43     		orrs	r4, r4, r3
 1097              	.LVL49:
 1098 0036 2C61     		str	r4, [r5, #16]
 1099              		.loc 1 669 0
 1100 0038 2B69     		ldr	r3, [r5, #16]
 1101 003a 43F00403 		orr	r3, r3, #4
 1102 003e 2B61     		str	r3, [r5, #16]
 1103              		.loc 1 670 0
 1104 0040 2B69     		ldr	r3, [r5, #16]
 1105 0042 43F48033 		orr	r3, r3, #65536
 1106 0046 2B61     		str	r3, [r5, #16]
 1107              		.loc 1 673 0
 1108 0048 FFF7FEFF 		bl	FLASH_WaitForLastOperation
 1109              	.LVL50:
 1110              		.loc 1 676 0
 1111 004c 2B69     		ldr	r3, [r5, #16]
 1112 004e 23F00403 		bic	r3, r3, #4
 1113 0052 2B61     		str	r3, [r5, #16]
 1114              		.loc 1 681 0
 1115 0054 38BD     		pop	{r3, r4, r5, pc}
 1116              	.L139:
 1117 0056 00BF     		.align	2
 1118              	.L138:
 1119 0058 003C0240 		.word	1073888256
 1120              		.cfi_endproc
 1121              	.LFE122:
 1122              		.size	FLASH_EraseAllBank1Sectors, .-FLASH_EraseAllBank1Sectors
 1123              		.section	.text.FLASH_EraseAllBank2Sectors,"ax",%progbits
 1124              		.align	2
 1125              		.p2align 4,,15
 1126              		.global	FLASH_EraseAllBank2Sectors
 1127              		.thumb
 1128              		.thumb_func
 1129              		.type	FLASH_EraseAllBank2Sectors, %function
 1130              	FLASH_EraseAllBank2Sectors:
 1131              	.LFB123:
 1132              		.loc 1 707 0
 1133              		.cfi_startproc
 1134              		@ args = 0, pretend = 0, frame = 0
 1135              		@ frame_needed = 0, uses_anonymous_args = 0
 1136              	.LVL51:
 1137 0000 38B5     		push	{r3, r4, r5, lr}
 1138              		.cfi_def_cfa_offset 16
 1139              		.cfi_offset 3, -16
 1140              		.cfi_offset 4, -12
ARM GAS  /tmp/ccs5Nv5k.s 			page 21


 1141              		.cfi_offset 5, -8
 1142              		.cfi_offset 14, -4
 1143              		.loc 1 707 0
 1144 0002 0446     		mov	r4, r0
 1145              		.loc 1 712 0
 1146 0004 FFF7FEFF 		bl	FLASH_WaitForLastOperation
 1147              	.LVL52:
 1148              		.loc 1 715 0
 1149 0008 3CB1     		cbz	r4, .L141
 1150              		.loc 1 719 0
 1151 000a 012C     		cmp	r4, #1
 1152 000c 08D0     		beq	.L144
 1153              		.loc 1 723 0
 1154 000e 022C     		cmp	r4, #2
 1155              		.loc 1 729 0
 1156 0010 0CBF     		ite	eq
 1157 0012 4FF40074 		moveq	r4, #512
 1158 0016 4FF44074 		movne	r4, #768
 1159              	.L141:
 1160              	.LVL53:
 1161              		.loc 1 731 0
 1162 001a 0928     		cmp	r0, #9
 1163 001c 04D0     		beq	.L147
 1164              	.L142:
 1165              		.loc 1 748 0
 1166 001e 38BD     		pop	{r3, r4, r5, pc}
 1167              	.LVL54:
 1168              	.L144:
 1169              		.loc 1 731 0
 1170 0020 0928     		cmp	r0, #9
 1171              		.loc 1 721 0
 1172 0022 4FF48074 		mov	r4, #256
 1173              	.LVL55:
 1174              		.loc 1 731 0
 1175 0026 FAD1     		bne	.L142
 1176              	.L147:
 1177              		.loc 1 734 0
 1178 0028 0B4D     		ldr	r5, .L148
 1179 002a 2B69     		ldr	r3, [r5, #16]
 1180 002c 23F44073 		bic	r3, r3, #768
 1181 0030 2B61     		str	r3, [r5, #16]
 1182              		.loc 1 735 0
 1183 0032 2B69     		ldr	r3, [r5, #16]
 1184 0034 1C43     		orrs	r4, r4, r3
 1185              	.LVL56:
 1186 0036 2C61     		str	r4, [r5, #16]
 1187              		.loc 1 736 0
 1188 0038 2B69     		ldr	r3, [r5, #16]
 1189 003a 43F40043 		orr	r3, r3, #32768
 1190 003e 2B61     		str	r3, [r5, #16]
 1191              		.loc 1 737 0
 1192 0040 2B69     		ldr	r3, [r5, #16]
 1193 0042 43F48033 		orr	r3, r3, #65536
 1194 0046 2B61     		str	r3, [r5, #16]
 1195              		.loc 1 740 0
 1196 0048 FFF7FEFF 		bl	FLASH_WaitForLastOperation
 1197              	.LVL57:
ARM GAS  /tmp/ccs5Nv5k.s 			page 22


 1198              		.loc 1 743 0
 1199 004c 2B69     		ldr	r3, [r5, #16]
 1200 004e 23F40043 		bic	r3, r3, #32768
 1201 0052 2B61     		str	r3, [r5, #16]
 1202              		.loc 1 748 0
 1203 0054 38BD     		pop	{r3, r4, r5, pc}
 1204              	.L149:
 1205 0056 00BF     		.align	2
 1206              	.L148:
 1207 0058 003C0240 		.word	1073888256
 1208              		.cfi_endproc
 1209              	.LFE123:
 1210              		.size	FLASH_EraseAllBank2Sectors, .-FLASH_EraseAllBank2Sectors
 1211              		.section	.text.FLASH_ProgramDoubleWord,"ax",%progbits
 1212              		.align	2
 1213              		.p2align 4,,15
 1214              		.global	FLASH_ProgramDoubleWord
 1215              		.thumb
 1216              		.thumb_func
 1217              		.type	FLASH_ProgramDoubleWord, %function
 1218              	FLASH_ProgramDoubleWord:
 1219              	.LFB124:
 1220              		.loc 1 764 0
 1221              		.cfi_startproc
 1222              		@ args = 0, pretend = 0, frame = 0
 1223              		@ frame_needed = 0, uses_anonymous_args = 0
 1224              	.LVL58:
 1225 0000 F8B5     		push	{r3, r4, r5, r6, r7, lr}
 1226              		.cfi_def_cfa_offset 24
 1227              		.cfi_offset 3, -24
 1228              		.cfi_offset 4, -20
 1229              		.cfi_offset 5, -16
 1230              		.cfi_offset 6, -12
 1231              		.cfi_offset 7, -8
 1232              		.cfi_offset 14, -4
 1233              		.loc 1 764 0
 1234 0002 0546     		mov	r5, r0
 1235 0004 1646     		mov	r6, r2
 1236 0006 1F46     		mov	r7, r3
 1237              		.loc 1 771 0
 1238 0008 FFF7FEFF 		bl	FLASH_WaitForLastOperation
 1239              	.LVL59:
 1240              		.loc 1 773 0
 1241 000c 0928     		cmp	r0, #9
 1242 000e 00D0     		beq	.L153
 1243              		.loc 1 790 0
 1244 0010 F8BD     		pop	{r3, r4, r5, r6, r7, pc}
 1245              	.LVL60:
 1246              	.L153:
 1247              		.loc 1 776 0
 1248 0012 0B4C     		ldr	r4, .L154
 1249 0014 2369     		ldr	r3, [r4, #16]
 1250 0016 23F44073 		bic	r3, r3, #768
 1251 001a 2361     		str	r3, [r4, #16]
 1252              		.loc 1 777 0
 1253 001c 2369     		ldr	r3, [r4, #16]
 1254 001e 43F44073 		orr	r3, r3, #768
ARM GAS  /tmp/ccs5Nv5k.s 			page 23


 1255 0022 2361     		str	r3, [r4, #16]
 1256              		.loc 1 778 0
 1257 0024 2369     		ldr	r3, [r4, #16]
 1258 0026 43F00103 		orr	r3, r3, #1
 1259 002a 2361     		str	r3, [r4, #16]
 1260              		.loc 1 780 0
 1261 002c C5E90067 		strd	r6, [r5]
 1262              		.loc 1 783 0
 1263 0030 FFF7FEFF 		bl	FLASH_WaitForLastOperation
 1264              	.LVL61:
 1265              		.loc 1 786 0
 1266 0034 2369     		ldr	r3, [r4, #16]
 1267 0036 23F00103 		bic	r3, r3, #1
 1268 003a 2361     		str	r3, [r4, #16]
 1269              		.loc 1 790 0
 1270 003c F8BD     		pop	{r3, r4, r5, r6, r7, pc}
 1271              	.LVL62:
 1272              	.L155:
 1273 003e 00BF     		.align	2
 1274              	.L154:
 1275 0040 003C0240 		.word	1073888256
 1276              		.cfi_endproc
 1277              	.LFE124:
 1278              		.size	FLASH_ProgramDoubleWord, .-FLASH_ProgramDoubleWord
 1279              		.section	.text.FLASH_ProgramWord,"ax",%progbits
 1280              		.align	2
 1281              		.p2align 4,,15
 1282              		.global	FLASH_ProgramWord
 1283              		.thumb
 1284              		.thumb_func
 1285              		.type	FLASH_ProgramWord, %function
 1286              	FLASH_ProgramWord:
 1287              	.LFB125:
 1288              		.loc 1 807 0
 1289              		.cfi_startproc
 1290              		@ args = 0, pretend = 0, frame = 0
 1291              		@ frame_needed = 0, uses_anonymous_args = 0
 1292              	.LVL63:
 1293 0000 70B5     		push	{r4, r5, r6, lr}
 1294              		.cfi_def_cfa_offset 16
 1295              		.cfi_offset 4, -16
 1296              		.cfi_offset 5, -12
 1297              		.cfi_offset 6, -8
 1298              		.cfi_offset 14, -4
 1299              		.loc 1 807 0
 1300 0002 0546     		mov	r5, r0
 1301 0004 0E46     		mov	r6, r1
 1302              		.loc 1 814 0
 1303 0006 FFF7FEFF 		bl	FLASH_WaitForLastOperation
 1304              	.LVL64:
 1305              		.loc 1 816 0
 1306 000a 0928     		cmp	r0, #9
 1307 000c 00D0     		beq	.L159
 1308              		.loc 1 833 0
 1309 000e 70BD     		pop	{r4, r5, r6, pc}
 1310              	.LVL65:
 1311              	.L159:
ARM GAS  /tmp/ccs5Nv5k.s 			page 24


 1312              		.loc 1 819 0
 1313 0010 0A4C     		ldr	r4, .L160
 1314 0012 2369     		ldr	r3, [r4, #16]
 1315 0014 23F44073 		bic	r3, r3, #768
 1316 0018 2361     		str	r3, [r4, #16]
 1317              		.loc 1 820 0
 1318 001a 2369     		ldr	r3, [r4, #16]
 1319 001c 43F40073 		orr	r3, r3, #512
 1320 0020 2361     		str	r3, [r4, #16]
 1321              		.loc 1 821 0
 1322 0022 2369     		ldr	r3, [r4, #16]
 1323 0024 43F00103 		orr	r3, r3, #1
 1324 0028 2361     		str	r3, [r4, #16]
 1325              		.loc 1 823 0
 1326 002a 2E60     		str	r6, [r5]
 1327              		.loc 1 826 0
 1328 002c FFF7FEFF 		bl	FLASH_WaitForLastOperation
 1329              	.LVL66:
 1330              		.loc 1 829 0
 1331 0030 2369     		ldr	r3, [r4, #16]
 1332 0032 23F00103 		bic	r3, r3, #1
 1333 0036 2361     		str	r3, [r4, #16]
 1334              		.loc 1 833 0
 1335 0038 70BD     		pop	{r4, r5, r6, pc}
 1336              	.LVL67:
 1337              	.L161:
 1338 003a 00BF     		.align	2
 1339              	.L160:
 1340 003c 003C0240 		.word	1073888256
 1341              		.cfi_endproc
 1342              	.LFE125:
 1343              		.size	FLASH_ProgramWord, .-FLASH_ProgramWord
 1344              		.section	.text.FLASH_ProgramHalfWord,"ax",%progbits
 1345              		.align	2
 1346              		.p2align 4,,15
 1347              		.global	FLASH_ProgramHalfWord
 1348              		.thumb
 1349              		.thumb_func
 1350              		.type	FLASH_ProgramHalfWord, %function
 1351              	FLASH_ProgramHalfWord:
 1352              	.LFB126:
 1353              		.loc 1 849 0
 1354              		.cfi_startproc
 1355              		@ args = 0, pretend = 0, frame = 0
 1356              		@ frame_needed = 0, uses_anonymous_args = 0
 1357              	.LVL68:
 1358 0000 70B5     		push	{r4, r5, r6, lr}
 1359              		.cfi_def_cfa_offset 16
 1360              		.cfi_offset 4, -16
 1361              		.cfi_offset 5, -12
 1362              		.cfi_offset 6, -8
 1363              		.cfi_offset 14, -4
 1364              		.loc 1 849 0
 1365 0002 0546     		mov	r5, r0
 1366 0004 0E46     		mov	r6, r1
 1367              		.loc 1 856 0
 1368 0006 FFF7FEFF 		bl	FLASH_WaitForLastOperation
ARM GAS  /tmp/ccs5Nv5k.s 			page 25


 1369              	.LVL69:
 1370              		.loc 1 858 0
 1371 000a 0928     		cmp	r0, #9
 1372 000c 00D0     		beq	.L165
 1373              		.loc 1 875 0
 1374 000e 70BD     		pop	{r4, r5, r6, pc}
 1375              	.LVL70:
 1376              	.L165:
 1377              		.loc 1 861 0
 1378 0010 0A4C     		ldr	r4, .L166
 1379 0012 2369     		ldr	r3, [r4, #16]
 1380 0014 23F44073 		bic	r3, r3, #768
 1381 0018 2361     		str	r3, [r4, #16]
 1382              		.loc 1 862 0
 1383 001a 2369     		ldr	r3, [r4, #16]
 1384 001c 43F48073 		orr	r3, r3, #256
 1385 0020 2361     		str	r3, [r4, #16]
 1386              		.loc 1 863 0
 1387 0022 2369     		ldr	r3, [r4, #16]
 1388 0024 43F00103 		orr	r3, r3, #1
 1389 0028 2361     		str	r3, [r4, #16]
 1390              		.loc 1 865 0
 1391 002a 2E80     		strh	r6, [r5]	@ movhi
 1392              		.loc 1 868 0
 1393 002c FFF7FEFF 		bl	FLASH_WaitForLastOperation
 1394              	.LVL71:
 1395              		.loc 1 871 0
 1396 0030 2369     		ldr	r3, [r4, #16]
 1397 0032 23F00103 		bic	r3, r3, #1
 1398 0036 2361     		str	r3, [r4, #16]
 1399              		.loc 1 875 0
 1400 0038 70BD     		pop	{r4, r5, r6, pc}
 1401              	.LVL72:
 1402              	.L167:
 1403 003a 00BF     		.align	2
 1404              	.L166:
 1405 003c 003C0240 		.word	1073888256
 1406              		.cfi_endproc
 1407              	.LFE126:
 1408              		.size	FLASH_ProgramHalfWord, .-FLASH_ProgramHalfWord
 1409              		.section	.text.FLASH_ProgramByte,"ax",%progbits
 1410              		.align	2
 1411              		.p2align 4,,15
 1412              		.global	FLASH_ProgramByte
 1413              		.thumb
 1414              		.thumb_func
 1415              		.type	FLASH_ProgramByte, %function
 1416              	FLASH_ProgramByte:
 1417              	.LFB127:
 1418              		.loc 1 891 0
 1419              		.cfi_startproc
 1420              		@ args = 0, pretend = 0, frame = 0
 1421              		@ frame_needed = 0, uses_anonymous_args = 0
 1422              	.LVL73:
 1423 0000 70B5     		push	{r4, r5, r6, lr}
 1424              		.cfi_def_cfa_offset 16
 1425              		.cfi_offset 4, -16
ARM GAS  /tmp/ccs5Nv5k.s 			page 26


 1426              		.cfi_offset 5, -12
 1427              		.cfi_offset 6, -8
 1428              		.cfi_offset 14, -4
 1429              		.loc 1 891 0
 1430 0002 0546     		mov	r5, r0
 1431 0004 0E46     		mov	r6, r1
 1432              		.loc 1 898 0
 1433 0006 FFF7FEFF 		bl	FLASH_WaitForLastOperation
 1434              	.LVL74:
 1435              		.loc 1 900 0
 1436 000a 0928     		cmp	r0, #9
 1437 000c 00D0     		beq	.L171
 1438              		.loc 1 918 0
 1439 000e 70BD     		pop	{r4, r5, r6, pc}
 1440              	.LVL75:
 1441              	.L171:
 1442              		.loc 1 903 0
 1443 0010 094C     		ldr	r4, .L172
 1444 0012 2369     		ldr	r3, [r4, #16]
 1445 0014 23F44073 		bic	r3, r3, #768
 1446 0018 2361     		str	r3, [r4, #16]
 1447              		.loc 1 904 0
 1448 001a 2369     		ldr	r3, [r4, #16]
 1449 001c 2361     		str	r3, [r4, #16]
 1450              		.loc 1 905 0
 1451 001e 2369     		ldr	r3, [r4, #16]
 1452 0020 43F00103 		orr	r3, r3, #1
 1453 0024 2361     		str	r3, [r4, #16]
 1454              		.loc 1 907 0
 1455 0026 2E70     		strb	r6, [r5]
 1456              		.loc 1 910 0
 1457 0028 FFF7FEFF 		bl	FLASH_WaitForLastOperation
 1458              	.LVL76:
 1459              		.loc 1 913 0
 1460 002c 2369     		ldr	r3, [r4, #16]
 1461 002e 23F00103 		bic	r3, r3, #1
 1462 0032 2361     		str	r3, [r4, #16]
 1463              		.loc 1 918 0
 1464 0034 70BD     		pop	{r4, r5, r6, pc}
 1465              	.LVL77:
 1466              	.L173:
 1467 0036 00BF     		.align	2
 1468              	.L172:
 1469 0038 003C0240 		.word	1073888256
 1470              		.cfi_endproc
 1471              	.LFE127:
 1472              		.size	FLASH_ProgramByte, .-FLASH_ProgramByte
 1473              		.section	.text.FLASH_OB_WRPConfig,"ax",%progbits
 1474              		.align	2
 1475              		.p2align 4,,15
 1476              		.global	FLASH_OB_WRPConfig
 1477              		.thumb
 1478              		.thumb_func
 1479              		.type	FLASH_OB_WRPConfig, %function
 1480              	FLASH_OB_WRPConfig:
 1481              	.LFB130:
 1482              		.loc 1 1028 0
ARM GAS  /tmp/ccs5Nv5k.s 			page 27


 1483              		.cfi_startproc
 1484              		@ args = 0, pretend = 0, frame = 0
 1485              		@ frame_needed = 0, uses_anonymous_args = 0
 1486              	.LVL78:
 1487 0000 38B5     		push	{r3, r4, r5, lr}
 1488              		.cfi_def_cfa_offset 16
 1489              		.cfi_offset 3, -16
 1490              		.cfi_offset 4, -12
 1491              		.cfi_offset 5, -8
 1492              		.cfi_offset 14, -4
 1493              		.loc 1 1028 0
 1494 0002 0546     		mov	r5, r0
 1495 0004 0C46     		mov	r4, r1
 1496              		.loc 1 1035 0
 1497 0006 FFF7FEFF 		bl	FLASH_WaitForLastOperation
 1498              	.LVL79:
 1499              		.loc 1 1037 0
 1500 000a 0928     		cmp	r0, #9
 1501 000c 00D0     		beq	.L178
 1502 000e 38BD     		pop	{r3, r4, r5, pc}
 1503              	.LVL80:
 1504              	.L178:
 1505              		.loc 1 1041 0
 1506 0010 054B     		ldr	r3, .L180
 1507 0012 1888     		ldrh	r0, [r3]
 1508              	.LVL81:
 1509              		.loc 1 1039 0
 1510 0014 1CB9     		cbnz	r4, .L179
 1511              		.loc 1 1045 0
 1512 0016 2843     		orrs	r0, r0, r5
 1513 0018 80B2     		uxth	r0, r0
 1514 001a 1880     		strh	r0, [r3]	@ movhi
 1515 001c 38BD     		pop	{r3, r4, r5, pc}
 1516              	.LVL82:
 1517              	.L179:
 1518              		.loc 1 1041 0
 1519 001e 80B2     		uxth	r0, r0
 1520 0020 20EA0500 		bic	r0, r0, r5
 1521 0024 1880     		strh	r0, [r3]	@ movhi
 1522 0026 38BD     		pop	{r3, r4, r5, pc}
 1523              	.LVL83:
 1524              	.L181:
 1525              		.align	2
 1526              	.L180:
 1527 0028 163C0240 		.word	1073888278
 1528              		.cfi_endproc
 1529              	.LFE130:
 1530              		.size	FLASH_OB_WRPConfig, .-FLASH_OB_WRPConfig
 1531              		.section	.text.FLASH_OB_WRP1Config,"ax",%progbits
 1532              		.align	2
 1533              		.p2align 4,,15
 1534              		.global	FLASH_OB_WRP1Config
 1535              		.thumb
 1536              		.thumb_func
 1537              		.type	FLASH_OB_WRP1Config, %function
 1538              	FLASH_OB_WRP1Config:
 1539              	.LFB131:
ARM GAS  /tmp/ccs5Nv5k.s 			page 28


 1540              		.loc 1 1070 0
 1541              		.cfi_startproc
 1542              		@ args = 0, pretend = 0, frame = 0
 1543              		@ frame_needed = 0, uses_anonymous_args = 0
 1544              	.LVL84:
 1545 0000 38B5     		push	{r3, r4, r5, lr}
 1546              		.cfi_def_cfa_offset 16
 1547              		.cfi_offset 3, -16
 1548              		.cfi_offset 4, -12
 1549              		.cfi_offset 5, -8
 1550              		.cfi_offset 14, -4
 1551              		.loc 1 1070 0
 1552 0002 0546     		mov	r5, r0
 1553 0004 0C46     		mov	r4, r1
 1554              		.loc 1 1077 0
 1555 0006 FFF7FEFF 		bl	FLASH_WaitForLastOperation
 1556              	.LVL85:
 1557              		.loc 1 1079 0
 1558 000a 0928     		cmp	r0, #9
 1559 000c 00D0     		beq	.L186
 1560 000e 38BD     		pop	{r3, r4, r5, pc}
 1561              	.LVL86:
 1562              	.L186:
 1563              		.loc 1 1083 0
 1564 0010 054B     		ldr	r3, .L188
 1565 0012 1888     		ldrh	r0, [r3]
 1566              	.LVL87:
 1567              		.loc 1 1081 0
 1568 0014 1CB9     		cbnz	r4, .L187
 1569              		.loc 1 1087 0
 1570 0016 2843     		orrs	r0, r0, r5
 1571 0018 80B2     		uxth	r0, r0
 1572 001a 1880     		strh	r0, [r3]	@ movhi
 1573 001c 38BD     		pop	{r3, r4, r5, pc}
 1574              	.LVL88:
 1575              	.L187:
 1576              		.loc 1 1083 0
 1577 001e 80B2     		uxth	r0, r0
 1578 0020 20EA0500 		bic	r0, r0, r5
 1579 0024 1880     		strh	r0, [r3]	@ movhi
 1580 0026 38BD     		pop	{r3, r4, r5, pc}
 1581              	.LVL89:
 1582              	.L189:
 1583              		.align	2
 1584              	.L188:
 1585 0028 1A3C0240 		.word	1073888282
 1586              		.cfi_endproc
 1587              	.LFE131:
 1588              		.size	FLASH_OB_WRP1Config, .-FLASH_OB_WRP1Config
 1589              		.section	.text.FLASH_OB_PCROPConfig,"ax",%progbits
 1590              		.align	2
 1591              		.p2align 4,,15
 1592              		.global	FLASH_OB_PCROPConfig
 1593              		.thumb
 1594              		.thumb_func
 1595              		.type	FLASH_OB_PCROPConfig, %function
 1596              	FLASH_OB_PCROPConfig:
ARM GAS  /tmp/ccs5Nv5k.s 			page 29


 1597              	.LFB133:
 1598              		.loc 1 1150 0
 1599              		.cfi_startproc
 1600              		@ args = 0, pretend = 0, frame = 0
 1601              		@ frame_needed = 0, uses_anonymous_args = 0
 1602              	.LVL90:
 1603 0000 38B5     		push	{r3, r4, r5, lr}
 1604              		.cfi_def_cfa_offset 16
 1605              		.cfi_offset 3, -16
 1606              		.cfi_offset 4, -12
 1607              		.cfi_offset 5, -8
 1608              		.cfi_offset 14, -4
 1609              		.loc 1 1150 0
 1610 0002 0546     		mov	r5, r0
 1611 0004 0C46     		mov	r4, r1
 1612              		.loc 1 1157 0
 1613 0006 FFF7FEFF 		bl	FLASH_WaitForLastOperation
 1614              	.LVL91:
 1615              		.loc 1 1159 0
 1616 000a 0928     		cmp	r0, #9
 1617 000c 00D0     		beq	.L194
 1618 000e 38BD     		pop	{r3, r4, r5, pc}
 1619              	.LVL92:
 1620              	.L194:
 1621              		.loc 1 1163 0
 1622 0010 054B     		ldr	r3, .L196
 1623 0012 1888     		ldrh	r0, [r3]
 1624              	.LVL93:
 1625              		.loc 1 1161 0
 1626 0014 24B9     		cbnz	r4, .L195
 1627              		.loc 1 1167 0
 1628 0016 80B2     		uxth	r0, r0
 1629 0018 20EA0500 		bic	r0, r0, r5
 1630 001c 1880     		strh	r0, [r3]	@ movhi
 1631 001e 38BD     		pop	{r3, r4, r5, pc}
 1632              	.LVL94:
 1633              	.L195:
 1634              		.loc 1 1163 0
 1635 0020 2843     		orrs	r0, r0, r5
 1636 0022 80B2     		uxth	r0, r0
 1637 0024 1880     		strh	r0, [r3]	@ movhi
 1638 0026 38BD     		pop	{r3, r4, r5, pc}
 1639              	.LVL95:
 1640              	.L197:
 1641              		.align	2
 1642              	.L196:
 1643 0028 163C0240 		.word	1073888278
 1644              		.cfi_endproc
 1645              	.LFE133:
 1646              		.size	FLASH_OB_PCROPConfig, .-FLASH_OB_PCROPConfig
 1647              		.section	.text.FLASH_OB_PCROP1Config,"ax",%progbits
 1648              		.align	2
 1649              		.p2align 4,,15
 1650              		.global	FLASH_OB_PCROP1Config
 1651              		.thumb
 1652              		.thumb_func
 1653              		.type	FLASH_OB_PCROP1Config, %function
ARM GAS  /tmp/ccs5Nv5k.s 			page 30


 1654              	FLASH_OB_PCROP1Config:
 1655              	.LFB134:
 1656              		.loc 1 1187 0
 1657              		.cfi_startproc
 1658              		@ args = 0, pretend = 0, frame = 0
 1659              		@ frame_needed = 0, uses_anonymous_args = 0
 1660              	.LVL96:
 1661 0000 38B5     		push	{r3, r4, r5, lr}
 1662              		.cfi_def_cfa_offset 16
 1663              		.cfi_offset 3, -16
 1664              		.cfi_offset 4, -12
 1665              		.cfi_offset 5, -8
 1666              		.cfi_offset 14, -4
 1667              		.loc 1 1187 0
 1668 0002 0546     		mov	r5, r0
 1669 0004 0C46     		mov	r4, r1
 1670              		.loc 1 1194 0
 1671 0006 FFF7FEFF 		bl	FLASH_WaitForLastOperation
 1672              	.LVL97:
 1673              		.loc 1 1196 0
 1674 000a 0928     		cmp	r0, #9
 1675 000c 00D0     		beq	.L202
 1676 000e 38BD     		pop	{r3, r4, r5, pc}
 1677              	.LVL98:
 1678              	.L202:
 1679              		.loc 1 1200 0
 1680 0010 054B     		ldr	r3, .L204
 1681 0012 1888     		ldrh	r0, [r3]
 1682              	.LVL99:
 1683              		.loc 1 1198 0
 1684 0014 24B9     		cbnz	r4, .L203
 1685              		.loc 1 1204 0
 1686 0016 80B2     		uxth	r0, r0
 1687 0018 20EA0500 		bic	r0, r0, r5
 1688 001c 1880     		strh	r0, [r3]	@ movhi
 1689 001e 38BD     		pop	{r3, r4, r5, pc}
 1690              	.LVL100:
 1691              	.L203:
 1692              		.loc 1 1200 0
 1693 0020 2843     		orrs	r0, r0, r5
 1694 0022 80B2     		uxth	r0, r0
 1695 0024 1880     		strh	r0, [r3]	@ movhi
 1696 0026 38BD     		pop	{r3, r4, r5, pc}
 1697              	.LVL101:
 1698              	.L205:
 1699              		.align	2
 1700              	.L204:
 1701 0028 1A3C0240 		.word	1073888282
 1702              		.cfi_endproc
 1703              	.LFE134:
 1704              		.size	FLASH_OB_PCROP1Config, .-FLASH_OB_PCROP1Config
 1705              		.section	.text.FLASH_OB_RDPConfig,"ax",%progbits
 1706              		.align	2
 1707              		.p2align 4,,15
 1708              		.global	FLASH_OB_RDPConfig
 1709              		.thumb
 1710              		.thumb_func
ARM GAS  /tmp/ccs5Nv5k.s 			page 31


 1711              		.type	FLASH_OB_RDPConfig, %function
 1712              	FLASH_OB_RDPConfig:
 1713              	.LFB135:
 1714              		.loc 1 1223 0
 1715              		.cfi_startproc
 1716              		@ args = 0, pretend = 0, frame = 0
 1717              		@ frame_needed = 0, uses_anonymous_args = 0
 1718              	.LVL102:
 1719 0000 10B5     		push	{r4, lr}
 1720              		.cfi_def_cfa_offset 8
 1721              		.cfi_offset 4, -8
 1722              		.cfi_offset 14, -4
 1723              		.loc 1 1223 0
 1724 0002 0446     		mov	r4, r0
 1725              		.loc 1 1229 0
 1726 0004 FFF7FEFF 		bl	FLASH_WaitForLastOperation
 1727              	.LVL103:
 1728              		.loc 1 1231 0
 1729 0008 0928     		cmp	r0, #9
 1730              		.loc 1 1233 0
 1731 000a 04BF     		itt	eq
 1732 000c 014B     		ldreq	r3, .L209
 1733 000e 1C70     		strbeq	r4, [r3]
 1734 0010 10BD     		pop	{r4, pc}
 1735              	.L210:
 1736 0012 00BF     		.align	2
 1737              	.L209:
 1738 0014 153C0240 		.word	1073888277
 1739              		.cfi_endproc
 1740              	.LFE135:
 1741              		.size	FLASH_OB_RDPConfig, .-FLASH_OB_RDPConfig
 1742              		.section	.text.FLASH_OB_UserConfig,"ax",%progbits
 1743              		.align	2
 1744              		.p2align 4,,15
 1745              		.global	FLASH_OB_UserConfig
 1746              		.thumb
 1747              		.thumb_func
 1748              		.type	FLASH_OB_UserConfig, %function
 1749              	FLASH_OB_UserConfig:
 1750              	.LFB136:
 1751              		.loc 1 1255 0
 1752              		.cfi_startproc
 1753              		@ args = 0, pretend = 0, frame = 0
 1754              		@ frame_needed = 0, uses_anonymous_args = 0
 1755              	.LVL104:
 1756 0000 70B5     		push	{r4, r5, r6, lr}
 1757              		.cfi_def_cfa_offset 16
 1758              		.cfi_offset 4, -16
 1759              		.cfi_offset 5, -12
 1760              		.cfi_offset 6, -8
 1761              		.cfi_offset 14, -4
 1762              		.loc 1 1255 0
 1763 0002 0646     		mov	r6, r0
 1764 0004 0C46     		mov	r4, r1
 1765 0006 1546     		mov	r5, r2
 1766              		.loc 1 1265 0
 1767 0008 FFF7FEFF 		bl	FLASH_WaitForLastOperation
ARM GAS  /tmp/ccs5Nv5k.s 			page 32


 1768              	.LVL105:
 1769              		.loc 1 1267 0
 1770 000c 0928     		cmp	r0, #9
 1771 000e 07D1     		bne	.L211
 1772              		.loc 1 1276 0
 1773 0010 044B     		ldr	r3, .L214
 1774 0012 1978     		ldrb	r1, [r3]	@ zero_extendqisi2
 1775              	.LVL106:
 1776 0014 01F00F01 		and	r1, r1, #15
 1777              	.LVL107:
 1778 0018 3143     		orrs	r1, r1, r6
 1779 001a 2943     		orrs	r1, r1, r5
 1780              		.loc 1 1280 0
 1781 001c 2143     		orrs	r1, r1, r4
 1782 001e 1970     		strb	r1, [r3]
 1783              	.L211:
 1784 0020 70BD     		pop	{r4, r5, r6, pc}
 1785              	.L215:
 1786 0022 00BF     		.align	2
 1787              	.L214:
 1788 0024 143C0240 		.word	1073888276
 1789              		.cfi_endproc
 1790              	.LFE136:
 1791              		.size	FLASH_OB_UserConfig, .-FLASH_OB_UserConfig
 1792              		.section	.text.FLASH_OB_Launch,"ax",%progbits
 1793              		.align	2
 1794              		.p2align 4,,15
 1795              		.global	FLASH_OB_Launch
 1796              		.thumb
 1797              		.thumb_func
 1798              		.type	FLASH_OB_Launch, %function
 1799              	FLASH_OB_Launch:
 1800              	.LFB139:
 1801              		.loc 1 1334 0
 1802              		.cfi_startproc
 1803              		@ args = 0, pretend = 0, frame = 0
 1804              		@ frame_needed = 0, uses_anonymous_args = 0
 1805              		@ link register save eliminated.
 1806              	.LVL108:
 1807              		.loc 1 1338 0
 1808 0000 034A     		ldr	r2, .L217
 1809 0002 1378     		ldrb	r3, [r2]	@ zero_extendqisi2
 1810 0004 43F00203 		orr	r3, r3, #2
 1811 0008 1370     		strb	r3, [r2]
 1812              		.loc 1 1341 0
 1813 000a FFF7FEBF 		b	FLASH_WaitForLastOperation
 1814              	.LVL109:
 1815              	.L218:
 1816 000e 00BF     		.align	2
 1817              	.L217:
 1818 0010 143C0240 		.word	1073888276
 1819              		.cfi_endproc
 1820              	.LFE139:
 1821              		.size	FLASH_OB_Launch, .-FLASH_OB_Launch
 1822              		.text
 1823              	.Letext0:
 1824              		.file 2 "/usr/arm-none-eabi/include/machine/_default_types.h"
ARM GAS  /tmp/ccs5Nv5k.s 			page 33


 1825              		.file 3 "/usr/arm-none-eabi/include/sys/_stdint.h"
 1826              		.file 4 "ChibiOS_3.0.2/os/ext/CMSIS/ST/stm32f407xx.h"
 1827              		.file 5 "ChibiOS_3.0.2/os/ext/CMSIS/ST/stm32f4xx.h"
 1828              		.file 6 "ChibiOS_3.0.2/ext/stdperiph_stm32f4/inc/stm32f4xx_flash.h"
 1829              		.file 7 "ChibiOS_3.0.2/os/ext/CMSIS/include/core_cm4.h"