ARM GAS  /tmp/ccsQReYy.s 			page 1


   1              		.syntax unified
   2              		.cpu cortex-m4
   3              		.eabi_attribute 27, 1
   4              		.eabi_attribute 28, 1
   5              		.fpu fpv4-sp-d16
   6              		.eabi_attribute 20, 1
   7              		.eabi_attribute 21, 1
   8              		.eabi_attribute 23, 3
   9              		.eabi_attribute 24, 1
  10              		.eabi_attribute 25, 1
  11              		.eabi_attribute 26, 1
  12              		.eabi_attribute 30, 2
  13              		.eabi_attribute 34, 1
  14              		.eabi_attribute 18, 4
  15              		.thumb
  16              		.file	"stm32f4xx_rcc.c"
  17              		.text
  18              	.Ltext0:
  19              		.cfi_sections	.debug_frame
  20              		.section	.text.RCC_DeInit,"ax",%progbits
  21              		.align	2
  22              		.p2align 4,,15
  23              		.global	RCC_DeInit
  24              		.thumb
  25              		.thumb_func
  26              		.type	RCC_DeInit, %function
  27              	RCC_DeInit:
  28              	.LFB112:
  29              		.file 1 "ChibiOS_3.0.2/ext/stdperiph_stm32f4/src/stm32f4xx_rcc.c"
  30              		.loc 1 246 0
  31              		.cfi_startproc
  32              		@ args = 0, pretend = 0, frame = 0
  33              		@ frame_needed = 0, uses_anonymous_args = 0
  34              		@ link register save eliminated.
  35              		.loc 1 248 0
  36 0000 0A4B     		ldr	r3, .L2
  37              		.loc 1 257 0
  38 0002 0B48     		ldr	r0, .L2+4
  39              		.loc 1 248 0
  40 0004 1A68     		ldr	r2, [r3]
  41              		.loc 1 251 0
  42 0006 0021     		movs	r1, #0
  43              		.loc 1 248 0
  44 0008 42F00102 		orr	r2, r2, #1
  45 000c 1A60     		str	r2, [r3]
  46              		.loc 1 251 0
  47 000e 9960     		str	r1, [r3, #8]
  48              		.loc 1 254 0
  49 0010 1A68     		ldr	r2, [r3]
  50 0012 22F0A852 		bic	r2, r2, #352321536
  51 0016 22F41022 		bic	r2, r2, #589824
  52 001a 1A60     		str	r2, [r3]
  53              		.loc 1 257 0
  54 001c 5860     		str	r0, [r3, #4]
  55              		.loc 1 270 0
  56 001e 1A68     		ldr	r2, [r3]
  57 0020 22F48022 		bic	r2, r2, #262144
ARM GAS  /tmp/ccsQReYy.s 			page 2


  58 0024 1A60     		str	r2, [r3]
  59              		.loc 1 273 0
  60 0026 D960     		str	r1, [r3, #12]
  61 0028 7047     		bx	lr
  62              	.L3:
  63 002a 00BF     		.align	2
  64              	.L2:
  65 002c 00380240 		.word	1073887232
  66 0030 10300024 		.word	603992080
  67              		.cfi_endproc
  68              	.LFE112:
  69              		.size	RCC_DeInit, .-RCC_DeInit
  70              		.section	.text.RCC_HSEConfig,"ax",%progbits
  71              		.align	2
  72              		.p2align 4,,15
  73              		.global	RCC_HSEConfig
  74              		.thumb
  75              		.thumb_func
  76              		.type	RCC_HSEConfig, %function
  77              	RCC_HSEConfig:
  78              	.LFB113:
  79              		.loc 1 297 0
  80              		.cfi_startproc
  81              		@ args = 0, pretend = 0, frame = 0
  82              		@ frame_needed = 0, uses_anonymous_args = 0
  83              		@ link register save eliminated.
  84              	.LVL0:
  85              		.loc 1 302 0
  86 0000 024B     		ldr	r3, .L5
  87 0002 0022     		movs	r2, #0
  88 0004 1A70     		strb	r2, [r3]
  89              		.loc 1 305 0
  90 0006 1870     		strb	r0, [r3]
  91 0008 7047     		bx	lr
  92              	.L6:
  93 000a 00BF     		.align	2
  94              	.L5:
  95 000c 02380240 		.word	1073887234
  96              		.cfi_endproc
  97              	.LFE113:
  98              		.size	RCC_HSEConfig, .-RCC_HSEConfig
  99              		.section	.text.RCC_WaitForHSEStartUp,"ax",%progbits
 100              		.align	2
 101              		.p2align 4,,15
 102              		.global	RCC_WaitForHSEStartUp
 103              		.thumb
 104              		.thumb_func
 105              		.type	RCC_WaitForHSEStartUp, %function
 106              	RCC_WaitForHSEStartUp:
 107              	.LFB114:
 108              		.loc 1 321 0
 109              		.cfi_startproc
 110              		@ args = 0, pretend = 0, frame = 8
 111              		@ frame_needed = 0, uses_anonymous_args = 0
 112              		@ link register save eliminated.
 113 0000 82B0     		sub	sp, sp, #8
 114              		.cfi_def_cfa_offset 8
ARM GAS  /tmp/ccsQReYy.s 			page 3


 115              		.loc 1 322 0
 116 0002 0023     		movs	r3, #0
 117              	.LBB6:
 118              	.LBB7:
 119              		.loc 1 2750 0
 120 0004 0A4A     		ldr	r2, .L18
 121              	.LBE7:
 122              	.LBE6:
 123              		.loc 1 322 0
 124 0006 0193     		str	r3, [sp, #4]
 125              	.LVL1:
 126 0008 02E0     		b	.L11
 127              	.LVL2:
 128              	.L17:
 129              		.loc 1 330 0
 130 000a B3F5A04F 		cmp	r3, #20480
 131 000e 08D0     		beq	.L10
 132              	.LVL3:
 133              	.L11:
 134              	.LBB10:
 135              	.LBB8:
 136              		.loc 1 2750 0 discriminator 2
 137 0010 1368     		ldr	r3, [r2]
 138              	.LVL4:
 139              		.loc 1 2763 0 discriminator 2
 140 0012 13F4003F 		tst	r3, #131072
 141              	.LBE8:
 142              	.LBE10:
 143              		.loc 1 329 0 discriminator 2
 144 0016 019B     		ldr	r3, [sp, #4]
 145              	.LVL5:
 146 0018 03F10103 		add	r3, r3, #1
 147 001c 0193     		str	r3, [sp, #4]
 148              		.loc 1 330 0 discriminator 2
 149 001e 019B     		ldr	r3, [sp, #4]
 150              	.LBB11:
 151              	.LBB9:
 152              		.loc 1 2763 0 discriminator 2
 153 0020 F3D0     		beq	.L17
 154              	.L10:
 155              	.LVL6:
 156              	.LBE9:
 157              	.LBE11:
 158              	.LBB12:
 159              	.LBB13:
 160              		.loc 1 2750 0
 161 0022 034B     		ldr	r3, .L18
 162 0024 1868     		ldr	r0, [r3]
 163              	.LVL7:
 164              	.LBE13:
 165              	.LBE12:
 166              		.loc 1 340 0
 167 0026 C0F34040 		ubfx	r0, r0, #17, #1
 168              	.LVL8:
 169              		.loc 1 341 0
 170 002a 02B0     		add	sp, sp, #8
 171              		.cfi_def_cfa_offset 0
ARM GAS  /tmp/ccsQReYy.s 			page 4


 172              		@ sp needed
 173 002c 7047     		bx	lr
 174              	.L19:
 175 002e 00BF     		.align	2
 176              	.L18:
 177 0030 00380240 		.word	1073887232
 178              		.cfi_endproc
 179              	.LFE114:
 180              		.size	RCC_WaitForHSEStartUp, .-RCC_WaitForHSEStartUp
 181              		.section	.text.RCC_AdjustHSICalibrationValue,"ax",%progbits
 182              		.align	2
 183              		.p2align 4,,15
 184              		.global	RCC_AdjustHSICalibrationValue
 185              		.thumb
 186              		.thumb_func
 187              		.type	RCC_AdjustHSICalibrationValue, %function
 188              	RCC_AdjustHSICalibrationValue:
 189              	.LFB115:
 190              		.loc 1 352 0
 191              		.cfi_startproc
 192              		@ args = 0, pretend = 0, frame = 0
 193              		@ frame_needed = 0, uses_anonymous_args = 0
 194              		@ link register save eliminated.
 195              	.LVL9:
 196              		.loc 1 357 0
 197 0000 034A     		ldr	r2, .L21
 198 0002 1368     		ldr	r3, [r2]
 199              	.LVL10:
 200              		.loc 1 360 0
 201 0004 23F0F803 		bic	r3, r3, #248
 202              	.LVL11:
 203              		.loc 1 363 0
 204 0008 43EAC000 		orr	r0, r3, r0, lsl #3
 205              	.LVL12:
 206              		.loc 1 366 0
 207 000c 1060     		str	r0, [r2]
 208 000e 7047     		bx	lr
 209              	.L22:
 210              		.align	2
 211              	.L21:
 212 0010 00380240 		.word	1073887232
 213              		.cfi_endproc
 214              	.LFE115:
 215              		.size	RCC_AdjustHSICalibrationValue, .-RCC_AdjustHSICalibrationValue
 216              		.section	.text.RCC_HSICmd,"ax",%progbits
 217              		.align	2
 218              		.p2align 4,,15
 219              		.global	RCC_HSICmd
 220              		.thumb
 221              		.thumb_func
 222              		.type	RCC_HSICmd, %function
 223              	RCC_HSICmd:
 224              	.LFB116:
 225              		.loc 1 388 0
 226              		.cfi_startproc
 227              		@ args = 0, pretend = 0, frame = 0
 228              		@ frame_needed = 0, uses_anonymous_args = 0
ARM GAS  /tmp/ccsQReYy.s 			page 5


 229              		@ link register save eliminated.
 230              	.LVL13:
 231              		.loc 1 392 0
 232 0000 014B     		ldr	r3, .L24
 233 0002 1860     		str	r0, [r3]
 234 0004 7047     		bx	lr
 235              	.L25:
 236 0006 00BF     		.align	2
 237              	.L24:
 238 0008 00004742 		.word	1111949312
 239              		.cfi_endproc
 240              	.LFE116:
 241              		.size	RCC_HSICmd, .-RCC_HSICmd
 242              		.section	.text.RCC_LSEConfig,"ax",%progbits
 243              		.align	2
 244              		.p2align 4,,15
 245              		.global	RCC_LSEConfig
 246              		.thumb
 247              		.thumb_func
 248              		.type	RCC_LSEConfig, %function
 249              	RCC_LSEConfig:
 250              	.LFB117:
 251              		.loc 1 413 0
 252              		.cfi_startproc
 253              		@ args = 0, pretend = 0, frame = 0
 254              		@ frame_needed = 0, uses_anonymous_args = 0
 255              		@ link register save eliminated.
 256              	.LVL14:
 257              		.loc 1 419 0
 258 0000 064B     		ldr	r3, .L31
 259 0002 0022     		movs	r2, #0
 260              		.loc 1 425 0
 261 0004 0128     		cmp	r0, #1
 262              		.loc 1 419 0
 263 0006 1A70     		strb	r2, [r3]
 264              		.loc 1 422 0
 265 0008 1A70     		strb	r2, [r3]
 266              		.loc 1 425 0
 267 000a 05D0     		beq	.L28
 268 000c 0428     		cmp	r0, #4
 269 000e 02D1     		bne	.L30
 270              		.loc 1 433 0
 271 0010 0522     		movs	r2, #5
 272 0012 1A70     		strb	r2, [r3]
 273 0014 7047     		bx	lr
 274              	.L30:
 275 0016 7047     		bx	lr
 276              	.L28:
 277              		.loc 1 429 0
 278 0018 1870     		strb	r0, [r3]
 279              		.loc 1 430 0
 280 001a 7047     		bx	lr
 281              	.L32:
 282              		.align	2
 283              	.L31:
 284 001c 70380240 		.word	1073887344
 285              		.cfi_endproc
ARM GAS  /tmp/ccsQReYy.s 			page 6


 286              	.LFE117:
 287              		.size	RCC_LSEConfig, .-RCC_LSEConfig
 288              		.section	.text.RCC_LSICmd,"ax",%progbits
 289              		.align	2
 290              		.p2align 4,,15
 291              		.global	RCC_LSICmd
 292              		.thumb
 293              		.thumb_func
 294              		.type	RCC_LSICmd, %function
 295              	RCC_LSICmd:
 296              	.LFB118:
 297              		.loc 1 453 0
 298              		.cfi_startproc
 299              		@ args = 0, pretend = 0, frame = 0
 300              		@ frame_needed = 0, uses_anonymous_args = 0
 301              		@ link register save eliminated.
 302              	.LVL15:
 303              		.loc 1 457 0
 304 0000 014B     		ldr	r3, .L34
 305 0002 1860     		str	r0, [r3]
 306 0004 7047     		bx	lr
 307              	.L35:
 308 0006 00BF     		.align	2
 309              	.L34:
 310 0008 800E4742 		.word	1111953024
 311              		.cfi_endproc
 312              	.LFE118:
 313              		.size	RCC_LSICmd, .-RCC_LSICmd
 314              		.section	.text.RCC_PLLCmd,"ax",%progbits
 315              		.align	2
 316              		.p2align 4,,15
 317              		.global	RCC_PLLCmd
 318              		.thumb
 319              		.thumb_func
 320              		.type	RCC_PLLCmd, %function
 321              	RCC_PLLCmd:
 322              	.LFB119:
 323              		.loc 1 576 0
 324              		.cfi_startproc
 325              		@ args = 0, pretend = 0, frame = 0
 326              		@ frame_needed = 0, uses_anonymous_args = 0
 327              		@ link register save eliminated.
 328              	.LVL16:
 329              		.loc 1 579 0
 330 0000 014B     		ldr	r3, .L37
 331 0002 1860     		str	r0, [r3]
 332 0004 7047     		bx	lr
 333              	.L38:
 334 0006 00BF     		.align	2
 335              	.L37:
 336 0008 60004742 		.word	1111949408
 337              		.cfi_endproc
 338              	.LFE119:
 339              		.size	RCC_PLLCmd, .-RCC_PLLCmd
 340              		.section	.text.RCC_PLLI2SCmd,"ax",%progbits
 341              		.align	2
 342              		.p2align 4,,15
ARM GAS  /tmp/ccsQReYy.s 			page 7


 343              		.global	RCC_PLLI2SCmd
 344              		.thumb
 345              		.thumb_func
 346              		.type	RCC_PLLI2SCmd, %function
 347              	RCC_PLLI2SCmd:
 348              	.LFB120:
 349              		.loc 1 745 0
 350              		.cfi_startproc
 351              		@ args = 0, pretend = 0, frame = 0
 352              		@ frame_needed = 0, uses_anonymous_args = 0
 353              		@ link register save eliminated.
 354              	.LVL17:
 355              		.loc 1 748 0
 356 0000 014B     		ldr	r3, .L40
 357 0002 1860     		str	r0, [r3]
 358 0004 7047     		bx	lr
 359              	.L41:
 360 0006 00BF     		.align	2
 361              	.L40:
 362 0008 68004742 		.word	1111949416
 363              		.cfi_endproc
 364              	.LFE120:
 365              		.size	RCC_PLLI2SCmd, .-RCC_PLLI2SCmd
 366              		.section	.text.RCC_PLLSAICmd,"ax",%progbits
 367              		.align	2
 368              		.p2align 4,,15
 369              		.global	RCC_PLLSAICmd
 370              		.thumb
 371              		.thumb_func
 372              		.type	RCC_PLLSAICmd, %function
 373              	RCC_PLLSAICmd:
 374              	.LFB121:
 375              		.loc 1 874 0
 376              		.cfi_startproc
 377              		@ args = 0, pretend = 0, frame = 0
 378              		@ frame_needed = 0, uses_anonymous_args = 0
 379              		@ link register save eliminated.
 380              	.LVL18:
 381              		.loc 1 877 0
 382 0000 014B     		ldr	r3, .L43
 383 0002 1860     		str	r0, [r3]
 384 0004 7047     		bx	lr
 385              	.L44:
 386 0006 00BF     		.align	2
 387              	.L43:
 388 0008 70004742 		.word	1111949424
 389              		.cfi_endproc
 390              	.LFE121:
 391              		.size	RCC_PLLSAICmd, .-RCC_PLLSAICmd
 392              		.section	.text.RCC_ClockSecuritySystemCmd,"ax",%progbits
 393              		.align	2
 394              		.p2align 4,,15
 395              		.global	RCC_ClockSecuritySystemCmd
 396              		.thumb
 397              		.thumb_func
 398              		.type	RCC_ClockSecuritySystemCmd, %function
 399              	RCC_ClockSecuritySystemCmd:
ARM GAS  /tmp/ccsQReYy.s 			page 8


 400              	.LFB122:
 401              		.loc 1 892 0
 402              		.cfi_startproc
 403              		@ args = 0, pretend = 0, frame = 0
 404              		@ frame_needed = 0, uses_anonymous_args = 0
 405              		@ link register save eliminated.
 406              	.LVL19:
 407              		.loc 1 895 0
 408 0000 014B     		ldr	r3, .L46
 409 0002 1860     		str	r0, [r3]
 410 0004 7047     		bx	lr
 411              	.L47:
 412 0006 00BF     		.align	2
 413              	.L46:
 414 0008 4C004742 		.word	1111949388
 415              		.cfi_endproc
 416              	.LFE122:
 417              		.size	RCC_ClockSecuritySystemCmd, .-RCC_ClockSecuritySystemCmd
 418              		.section	.text.RCC_MCO1Config,"ax",%progbits
 419              		.align	2
 420              		.p2align 4,,15
 421              		.global	RCC_MCO1Config
 422              		.thumb
 423              		.thumb_func
 424              		.type	RCC_MCO1Config, %function
 425              	RCC_MCO1Config:
 426              	.LFB123:
 427              		.loc 1 917 0
 428              		.cfi_startproc
 429              		@ args = 0, pretend = 0, frame = 0
 430              		@ frame_needed = 0, uses_anonymous_args = 0
 431              		@ link register save eliminated.
 432              	.LVL20:
 433              		.loc 1 924 0
 434 0000 034A     		ldr	r2, .L49
 435 0002 9368     		ldr	r3, [r2, #8]
 436              	.LVL21:
 437              		.loc 1 927 0
 438 0004 23F0EC63 		bic	r3, r3, #123731968
 439              	.LVL22:
 440 0008 1943     		orrs	r1, r1, r3
 441              	.LVL23:
 442              		.loc 1 930 0
 443 000a 0843     		orrs	r0, r0, r1
 444              	.LVL24:
 445              		.loc 1 933 0
 446 000c 9060     		str	r0, [r2, #8]
 447 000e 7047     		bx	lr
 448              	.L50:
 449              		.align	2
 450              	.L49:
 451 0010 00380240 		.word	1073887232
 452              		.cfi_endproc
 453              	.LFE123:
 454              		.size	RCC_MCO1Config, .-RCC_MCO1Config
 455              		.section	.text.RCC_MCO2Config,"ax",%progbits
 456              		.align	2
ARM GAS  /tmp/ccsQReYy.s 			page 9


 457              		.p2align 4,,15
 458              		.global	RCC_MCO2Config
 459              		.thumb
 460              		.thumb_func
 461              		.type	RCC_MCO2Config, %function
 462              	RCC_MCO2Config:
 463              	.LFB124:
 464              		.loc 1 962 0
 465              		.cfi_startproc
 466              		@ args = 0, pretend = 0, frame = 0
 467              		@ frame_needed = 0, uses_anonymous_args = 0
 468              		@ link register save eliminated.
 469              	.LVL25:
 470              		.loc 1 969 0
 471 0000 034A     		ldr	r2, .L52
 472 0002 9368     		ldr	r3, [r2, #8]
 473              	.LVL26:
 474              		.loc 1 972 0
 475 0004 23F07843 		bic	r3, r3, #-134217728
 476              	.LVL27:
 477 0008 1943     		orrs	r1, r1, r3
 478              	.LVL28:
 479              		.loc 1 975 0
 480 000a 0843     		orrs	r0, r0, r1
 481              	.LVL29:
 482              		.loc 1 978 0
 483 000c 9060     		str	r0, [r2, #8]
 484 000e 7047     		bx	lr
 485              	.L53:
 486              		.align	2
 487              	.L52:
 488 0010 00380240 		.word	1073887232
 489              		.cfi_endproc
 490              	.LFE124:
 491              		.size	RCC_MCO2Config, .-RCC_MCO2Config
 492              		.section	.text.RCC_SYSCLKConfig,"ax",%progbits
 493              		.align	2
 494              		.p2align 4,,15
 495              		.global	RCC_SYSCLKConfig
 496              		.thumb
 497              		.thumb_func
 498              		.type	RCC_SYSCLKConfig, %function
 499              	RCC_SYSCLKConfig:
 500              	.LFB125:
 501              		.loc 1 1162 0
 502              		.cfi_startproc
 503              		@ args = 0, pretend = 0, frame = 0
 504              		@ frame_needed = 0, uses_anonymous_args = 0
 505              		@ link register save eliminated.
 506              	.LVL30:
 507              		.loc 1 1168 0
 508 0000 034A     		ldr	r2, .L55
 509 0002 9368     		ldr	r3, [r2, #8]
 510              	.LVL31:
 511              		.loc 1 1171 0
 512 0004 23F00303 		bic	r3, r3, #3
 513              	.LVL32:
ARM GAS  /tmp/ccsQReYy.s 			page 10


 514              		.loc 1 1174 0
 515 0008 1843     		orrs	r0, r0, r3
 516              	.LVL33:
 517              		.loc 1 1177 0
 518 000a 9060     		str	r0, [r2, #8]
 519 000c 7047     		bx	lr
 520              	.L56:
 521 000e 00BF     		.align	2
 522              	.L55:
 523 0010 00380240 		.word	1073887232
 524              		.cfi_endproc
 525              	.LFE125:
 526              		.size	RCC_SYSCLKConfig, .-RCC_SYSCLKConfig
 527              		.section	.text.RCC_GetSYSCLKSource,"ax",%progbits
 528              		.align	2
 529              		.p2align 4,,15
 530              		.global	RCC_GetSYSCLKSource
 531              		.thumb
 532              		.thumb_func
 533              		.type	RCC_GetSYSCLKSource, %function
 534              	RCC_GetSYSCLKSource:
 535              	.LFB126:
 536              		.loc 1 1191 0
 537              		.cfi_startproc
 538              		@ args = 0, pretend = 0, frame = 0
 539              		@ frame_needed = 0, uses_anonymous_args = 0
 540              		@ link register save eliminated.
 541              		.loc 1 1192 0
 542 0000 024B     		ldr	r3, .L58
 543 0002 9868     		ldr	r0, [r3, #8]
 544              		.loc 1 1193 0
 545 0004 00F00C00 		and	r0, r0, #12
 546 0008 7047     		bx	lr
 547              	.L59:
 548 000a 00BF     		.align	2
 549              	.L58:
 550 000c 00380240 		.word	1073887232
 551              		.cfi_endproc
 552              	.LFE126:
 553              		.size	RCC_GetSYSCLKSource, .-RCC_GetSYSCLKSource
 554              		.section	.text.RCC_HCLKConfig,"ax",%progbits
 555              		.align	2
 556              		.p2align 4,,15
 557              		.global	RCC_HCLKConfig
 558              		.thumb
 559              		.thumb_func
 560              		.type	RCC_HCLKConfig, %function
 561              	RCC_HCLKConfig:
 562              	.LFB127:
 563              		.loc 1 1216 0
 564              		.cfi_startproc
 565              		@ args = 0, pretend = 0, frame = 0
 566              		@ frame_needed = 0, uses_anonymous_args = 0
 567              		@ link register save eliminated.
 568              	.LVL34:
 569              		.loc 1 1222 0
 570 0000 034A     		ldr	r2, .L61
ARM GAS  /tmp/ccsQReYy.s 			page 11


 571 0002 9368     		ldr	r3, [r2, #8]
 572              	.LVL35:
 573              		.loc 1 1225 0
 574 0004 23F0F003 		bic	r3, r3, #240
 575              	.LVL36:
 576              		.loc 1 1228 0
 577 0008 1843     		orrs	r0, r0, r3
 578              	.LVL37:
 579              		.loc 1 1231 0
 580 000a 9060     		str	r0, [r2, #8]
 581 000c 7047     		bx	lr
 582              	.L62:
 583 000e 00BF     		.align	2
 584              	.L61:
 585 0010 00380240 		.word	1073887232
 586              		.cfi_endproc
 587              	.LFE127:
 588              		.size	RCC_HCLKConfig, .-RCC_HCLKConfig
 589              		.section	.text.RCC_PCLK1Config,"ax",%progbits
 590              		.align	2
 591              		.p2align 4,,15
 592              		.global	RCC_PCLK1Config
 593              		.thumb
 594              		.thumb_func
 595              		.type	RCC_PCLK1Config, %function
 596              	RCC_PCLK1Config:
 597              	.LFB128:
 598              		.loc 1 1247 0
 599              		.cfi_startproc
 600              		@ args = 0, pretend = 0, frame = 0
 601              		@ frame_needed = 0, uses_anonymous_args = 0
 602              		@ link register save eliminated.
 603              	.LVL38:
 604              		.loc 1 1253 0
 605 0000 034A     		ldr	r2, .L64
 606 0002 9368     		ldr	r3, [r2, #8]
 607              	.LVL39:
 608              		.loc 1 1256 0
 609 0004 23F4E053 		bic	r3, r3, #7168
 610              	.LVL40:
 611              		.loc 1 1259 0
 612 0008 1843     		orrs	r0, r0, r3
 613              	.LVL41:
 614              		.loc 1 1262 0
 615 000a 9060     		str	r0, [r2, #8]
 616 000c 7047     		bx	lr
 617              	.L65:
 618 000e 00BF     		.align	2
 619              	.L64:
 620 0010 00380240 		.word	1073887232
 621              		.cfi_endproc
 622              	.LFE128:
 623              		.size	RCC_PCLK1Config, .-RCC_PCLK1Config
 624              		.section	.text.RCC_PCLK2Config,"ax",%progbits
 625              		.align	2
 626              		.p2align 4,,15
 627              		.global	RCC_PCLK2Config
ARM GAS  /tmp/ccsQReYy.s 			page 12


 628              		.thumb
 629              		.thumb_func
 630              		.type	RCC_PCLK2Config, %function
 631              	RCC_PCLK2Config:
 632              	.LFB129:
 633              		.loc 1 1278 0
 634              		.cfi_startproc
 635              		@ args = 0, pretend = 0, frame = 0
 636              		@ frame_needed = 0, uses_anonymous_args = 0
 637              		@ link register save eliminated.
 638              	.LVL42:
 639              		.loc 1 1284 0
 640 0000 034A     		ldr	r2, .L67
 641 0002 9368     		ldr	r3, [r2, #8]
 642              	.LVL43:
 643              		.loc 1 1287 0
 644 0004 23F46043 		bic	r3, r3, #57344
 645              	.LVL44:
 646              		.loc 1 1290 0
 647 0008 43EAC000 		orr	r0, r3, r0, lsl #3
 648              	.LVL45:
 649              		.loc 1 1293 0
 650 000c 9060     		str	r0, [r2, #8]
 651 000e 7047     		bx	lr
 652              	.L68:
 653              		.align	2
 654              	.L67:
 655 0010 00380240 		.word	1073887232
 656              		.cfi_endproc
 657              	.LFE129:
 658              		.size	RCC_PCLK2Config, .-RCC_PCLK2Config
 659              		.section	.text.RCC_GetClocksFreq,"ax",%progbits
 660              		.align	2
 661              		.p2align 4,,15
 662              		.global	RCC_GetClocksFreq
 663              		.thumb
 664              		.thumb_func
 665              		.type	RCC_GetClocksFreq, %function
 666              	RCC_GetClocksFreq:
 667              	.LFB130:
 668              		.loc 1 1330 0
 669              		.cfi_startproc
 670              		@ args = 0, pretend = 0, frame = 0
 671              		@ frame_needed = 0, uses_anonymous_args = 0
 672              		@ link register save eliminated.
 673              	.LVL46:
 674 0000 10B4     		push	{r4}
 675              		.cfi_def_cfa_offset 4
 676              		.cfi_offset 4, -4
 677              		.loc 1 1337 0
 678 0002 214C     		ldr	r4, .L81
 679 0004 A368     		ldr	r3, [r4, #8]
 680              	.LVL47:
 681 0006 03F00C03 		and	r3, r3, #12
 682              	.LVL48:
 683              		.loc 1 1339 0
 684 000a 042B     		cmp	r3, #4
ARM GAS  /tmp/ccsQReYy.s 			page 13


 685 000c 1BD0     		beq	.L71
 686 000e 082B     		cmp	r3, #8
 687 0010 1CD0     		beq	.L80
 688              		.loc 1 1395 0
 689 0012 1E4B     		ldr	r3, .L81+4
 690              	.LVL49:
 691 0014 0360     		str	r3, [r0]
 692              	.LVL50:
 693              	.L74:
 694              		.loc 1 1401 0
 695 0016 1C4A     		ldr	r2, .L81
 696              		.loc 1 1403 0
 697 0018 1D49     		ldr	r1, .L81+8
 698              		.loc 1 1401 0
 699 001a 9468     		ldr	r4, [r2, #8]
 700              	.LVL51:
 701              		.loc 1 1402 0
 702 001c C4F30314 		ubfx	r4, r4, #4, #4
 703              	.LVL52:
 704              		.loc 1 1403 0
 705 0020 0C5D     		ldrb	r4, [r1, r4]	@ zero_extendqisi2
 706              	.LVL53:
 707              		.loc 1 1405 0
 708 0022 E340     		lsrs	r3, r3, r4
 709 0024 4360     		str	r3, [r0, #4]
 710              		.loc 1 1408 0
 711 0026 9468     		ldr	r4, [r2, #8]
 712              	.LVL54:
 713              		.loc 1 1409 0
 714 0028 C4F38224 		ubfx	r4, r4, #10, #3
 715              	.LVL55:
 716              		.loc 1 1410 0
 717 002c 0C5D     		ldrb	r4, [r1, r4]	@ zero_extendqisi2
 718              	.LVL56:
 719              		.loc 1 1412 0
 720 002e 23FA04F4 		lsr	r4, r3, r4
 721              	.LVL57:
 722 0032 8460     		str	r4, [r0, #8]
 723              		.loc 1 1415 0
 724 0034 9268     		ldr	r2, [r2, #8]
 725              	.LVL58:
 726              		.loc 1 1420 0
 727 0036 5DF8044B 		ldr	r4, [sp], #4
 728              		.cfi_remember_state
 729              		.cfi_restore 4
 730              		.cfi_def_cfa_offset 0
 731              		.loc 1 1416 0
 732 003a C2F34232 		ubfx	r2, r2, #13, #3
 733              	.LVL59:
 734              		.loc 1 1417 0
 735 003e 8A5C     		ldrb	r2, [r1, r2]	@ zero_extendqisi2
 736              	.LVL60:
 737              		.loc 1 1419 0
 738 0040 D340     		lsrs	r3, r3, r2
 739 0042 C360     		str	r3, [r0, #12]
 740              		.loc 1 1420 0
 741 0044 7047     		bx	lr
ARM GAS  /tmp/ccsQReYy.s 			page 14


 742              	.LVL61:
 743              	.L71:
 744              		.cfi_restore_state
 745              		.loc 1 1345 0
 746 0046 134B     		ldr	r3, .L81+12
 747              	.LVL62:
 748 0048 0360     		str	r3, [r0]
 749              		.loc 1 1346 0
 750 004a E4E7     		b	.L74
 751              	.LVL63:
 752              	.L80:
 753              		.loc 1 1352 0
 754 004c 6368     		ldr	r3, [r4, #4]
 755              	.LVL64:
 756              		.loc 1 1353 0
 757 004e 6168     		ldr	r1, [r4, #4]
 758              		.loc 1 1355 0
 759 0050 13F4800F 		tst	r3, #4194304
 760              		.loc 1 1358 0
 761 0054 6368     		ldr	r3, [r4, #4]
 762              	.LVL65:
 763 0056 18BF     		it	ne
 764 0058 0E4C     		ldrne	r4, .L81+12
 765              		.loc 1 1353 0
 766 005a 01F03F02 		and	r2, r1, #63
 767              	.LVL66:
 768              		.loc 1 1363 0
 769 005e 0CBF     		ite	eq
 770 0060 0A49     		ldreq	r1, .L81+4
 771              		.loc 1 1358 0
 772 0062 B4FBF2F1 		udivne	r1, r4, r2
 773              		.loc 1 1363 0
 774 0066 C3F38813 		ubfx	r3, r3, #6, #9
 775 006a 08BF     		it	eq
 776 006c B1FBF2F1 		udiveq	r1, r1, r2
 777 0070 01FB03F2 		mul	r2, r1, r3
 778              	.LVL67:
 779              		.loc 1 1366 0
 780 0074 044B     		ldr	r3, .L81
 781 0076 5B68     		ldr	r3, [r3, #4]
 782              	.LVL68:
 783 0078 C3F30143 		ubfx	r3, r3, #16, #2
 784              	.LVL69:
 785 007c 0133     		adds	r3, r3, #1
 786 007e 5B00     		lsls	r3, r3, #1
 787              		.loc 1 1367 0
 788 0080 B2FBF3F3 		udiv	r3, r2, r3
 789 0084 0360     		str	r3, [r0]
 790              		.loc 1 1368 0
 791 0086 C6E7     		b	.L74
 792              	.L82:
 793              		.align	2
 794              	.L81:
 795 0088 00380240 		.word	1073887232
 796 008c 0024F400 		.word	16000000
 797 0090 00000000 		.word	.LANCHOR0
 798 0094 00127A00 		.word	8000000
ARM GAS  /tmp/ccsQReYy.s 			page 15


 799              		.cfi_endproc
 800              	.LFE130:
 801              		.size	RCC_GetClocksFreq, .-RCC_GetClocksFreq
 802              		.section	.text.RCC_RTCCLKConfig,"ax",%progbits
 803              		.align	2
 804              		.p2align 4,,15
 805              		.global	RCC_RTCCLKConfig
 806              		.thumb
 807              		.thumb_func
 808              		.type	RCC_RTCCLKConfig, %function
 809              	RCC_RTCCLKConfig:
 810              	.LFB131:
 811              		.loc 1 1483 0
 812              		.cfi_startproc
 813              		@ args = 0, pretend = 0, frame = 0
 814              		@ frame_needed = 0, uses_anonymous_args = 0
 815              		@ link register save eliminated.
 816              	.LVL70:
 817              		.loc 1 1489 0
 818 0000 00F44073 		and	r3, r0, #768
 819 0004 B3F5407F 		cmp	r3, #768
 820 0008 09D1     		bne	.L84
 821              		.loc 1 1491 0
 822 000a 0849     		ldr	r1, .L85
 823 000c 8B68     		ldr	r3, [r1, #8]
 824              	.LVL71:
 825              		.loc 1 1497 0
 826 000e 20F07042 		bic	r2, r0, #-268435456
 827              		.loc 1 1494 0
 828 0012 23F4F813 		bic	r3, r3, #2031616
 829              	.LVL72:
 830              		.loc 1 1497 0
 831 0016 22F44072 		bic	r2, r2, #768
 832 001a 1343     		orrs	r3, r3, r2
 833              	.LVL73:
 834              		.loc 1 1500 0
 835 001c 8B60     		str	r3, [r1, #8]
 836              	.LVL74:
 837              	.L84:
 838              		.loc 1 1504 0
 839 001e 034A     		ldr	r2, .L85
 840 0020 136F     		ldr	r3, [r2, #112]
 841 0022 C0F30B00 		ubfx	r0, r0, #0, #12
 842              	.LVL75:
 843 0026 1843     		orrs	r0, r0, r3
 844 0028 1067     		str	r0, [r2, #112]
 845 002a 7047     		bx	lr
 846              	.L86:
 847              		.align	2
 848              	.L85:
 849 002c 00380240 		.word	1073887232
 850              		.cfi_endproc
 851              	.LFE131:
 852              		.size	RCC_RTCCLKConfig, .-RCC_RTCCLKConfig
 853              		.section	.text.RCC_RTCCLKCmd,"ax",%progbits
 854              		.align	2
 855              		.p2align 4,,15
ARM GAS  /tmp/ccsQReYy.s 			page 16


 856              		.global	RCC_RTCCLKCmd
 857              		.thumb
 858              		.thumb_func
 859              		.type	RCC_RTCCLKCmd, %function
 860              	RCC_RTCCLKCmd:
 861              	.LFB132:
 862              		.loc 1 1515 0
 863              		.cfi_startproc
 864              		@ args = 0, pretend = 0, frame = 0
 865              		@ frame_needed = 0, uses_anonymous_args = 0
 866              		@ link register save eliminated.
 867              	.LVL76:
 868              		.loc 1 1519 0
 869 0000 014B     		ldr	r3, .L88
 870 0002 1860     		str	r0, [r3]
 871 0004 7047     		bx	lr
 872              	.L89:
 873 0006 00BF     		.align	2
 874              	.L88:
 875 0008 3C0E4742 		.word	1111952956
 876              		.cfi_endproc
 877              	.LFE132:
 878              		.size	RCC_RTCCLKCmd, .-RCC_RTCCLKCmd
 879              		.section	.text.RCC_BackupResetCmd,"ax",%progbits
 880              		.align	2
 881              		.p2align 4,,15
 882              		.global	RCC_BackupResetCmd
 883              		.thumb
 884              		.thumb_func
 885              		.type	RCC_BackupResetCmd, %function
 886              	RCC_BackupResetCmd:
 887              	.LFB133:
 888              		.loc 1 1532 0
 889              		.cfi_startproc
 890              		@ args = 0, pretend = 0, frame = 0
 891              		@ frame_needed = 0, uses_anonymous_args = 0
 892              		@ link register save eliminated.
 893              	.LVL77:
 894              		.loc 1 1535 0
 895 0000 014B     		ldr	r3, .L91
 896 0002 1860     		str	r0, [r3]
 897 0004 7047     		bx	lr
 898              	.L92:
 899 0006 00BF     		.align	2
 900              	.L91:
 901 0008 400E4742 		.word	1111952960
 902              		.cfi_endproc
 903              	.LFE133:
 904              		.size	RCC_BackupResetCmd, .-RCC_BackupResetCmd
 905              		.section	.text.RCC_TIMCLKPresConfig,"ax",%progbits
 906              		.align	2
 907              		.p2align 4,,15
 908              		.global	RCC_TIMCLKPresConfig
 909              		.thumb
 910              		.thumb_func
 911              		.type	RCC_TIMCLKPresConfig, %function
 912              	RCC_TIMCLKPresConfig:
ARM GAS  /tmp/ccsQReYy.s 			page 17


 913              	.LFB134:
 914              		.loc 1 1756 0
 915              		.cfi_startproc
 916              		@ args = 0, pretend = 0, frame = 0
 917              		@ frame_needed = 0, uses_anonymous_args = 0
 918              		@ link register save eliminated.
 919              	.LVL78:
 920              		.loc 1 1760 0
 921 0000 014B     		ldr	r3, .L94
 922 0002 1860     		str	r0, [r3]
 923 0004 7047     		bx	lr
 924              	.L95:
 925 0006 00BF     		.align	2
 926              	.L94:
 927 0008 E0114742 		.word	1111953888
 928              		.cfi_endproc
 929              	.LFE134:
 930              		.size	RCC_TIMCLKPresConfig, .-RCC_TIMCLKPresConfig
 931              		.section	.text.RCC_AHB1PeriphClockCmd,"ax",%progbits
 932              		.align	2
 933              		.p2align 4,,15
 934              		.global	RCC_AHB1PeriphClockCmd
 935              		.thumb
 936              		.thumb_func
 937              		.type	RCC_AHB1PeriphClockCmd, %function
 938              	RCC_AHB1PeriphClockCmd:
 939              	.LFB135:
 940              		.loc 1 1798 0
 941              		.cfi_startproc
 942              		@ args = 0, pretend = 0, frame = 0
 943              		@ frame_needed = 0, uses_anonymous_args = 0
 944              		@ link register save eliminated.
 945              	.LVL79:
 946              		.loc 1 1805 0
 947 0000 044A     		ldr	r2, .L100
 948 0002 136B     		ldr	r3, [r2, #48]
 949              		.loc 1 1803 0
 950 0004 19B9     		cbnz	r1, .L99
 951              		.loc 1 1809 0
 952 0006 23EA0000 		bic	r0, r3, r0
 953              	.LVL80:
 954 000a 1063     		str	r0, [r2, #48]
 955 000c 7047     		bx	lr
 956              	.LVL81:
 957              	.L99:
 958              		.loc 1 1805 0
 959 000e 1843     		orrs	r0, r0, r3
 960              	.LVL82:
 961 0010 1063     		str	r0, [r2, #48]
 962 0012 7047     		bx	lr
 963              	.L101:
 964              		.align	2
 965              	.L100:
 966 0014 00380240 		.word	1073887232
 967              		.cfi_endproc
 968              	.LFE135:
 969              		.size	RCC_AHB1PeriphClockCmd, .-RCC_AHB1PeriphClockCmd
ARM GAS  /tmp/ccsQReYy.s 			page 18


 970              		.section	.text.RCC_AHB2PeriphClockCmd,"ax",%progbits
 971              		.align	2
 972              		.p2align 4,,15
 973              		.global	RCC_AHB2PeriphClockCmd
 974              		.thumb
 975              		.thumb_func
 976              		.type	RCC_AHB2PeriphClockCmd, %function
 977              	RCC_AHB2PeriphClockCmd:
 978              	.LFB136:
 979              		.loc 1 1830 0
 980              		.cfi_startproc
 981              		@ args = 0, pretend = 0, frame = 0
 982              		@ frame_needed = 0, uses_anonymous_args = 0
 983              		@ link register save eliminated.
 984              	.LVL83:
 985              		.loc 1 1837 0
 986 0000 044A     		ldr	r2, .L106
 987 0002 536B     		ldr	r3, [r2, #52]
 988              		.loc 1 1835 0
 989 0004 19B9     		cbnz	r1, .L105
 990              		.loc 1 1841 0
 991 0006 23EA0000 		bic	r0, r3, r0
 992              	.LVL84:
 993 000a 5063     		str	r0, [r2, #52]
 994 000c 7047     		bx	lr
 995              	.LVL85:
 996              	.L105:
 997              		.loc 1 1837 0
 998 000e 1843     		orrs	r0, r0, r3
 999              	.LVL86:
 1000 0010 5063     		str	r0, [r2, #52]
 1001 0012 7047     		bx	lr
 1002              	.L107:
 1003              		.align	2
 1004              	.L106:
 1005 0014 00380240 		.word	1073887232
 1006              		.cfi_endproc
 1007              	.LFE136:
 1008              		.size	RCC_AHB2PeriphClockCmd, .-RCC_AHB2PeriphClockCmd
 1009              		.section	.text.RCC_APB1PeriphClockCmd,"ax",%progbits
 1010              		.align	2
 1011              		.p2align 4,,15
 1012              		.global	RCC_APB1PeriphClockCmd
 1013              		.thumb
 1014              		.thumb_func
 1015              		.type	RCC_APB1PeriphClockCmd, %function
 1016              	RCC_APB1PeriphClockCmd:
 1017              	.LFB137:
 1018              		.loc 1 1917 0
 1019              		.cfi_startproc
 1020              		@ args = 0, pretend = 0, frame = 0
 1021              		@ frame_needed = 0, uses_anonymous_args = 0
 1022              		@ link register save eliminated.
 1023              	.LVL87:
 1024              		.loc 1 1924 0
 1025 0000 044A     		ldr	r2, .L112
 1026 0002 136C     		ldr	r3, [r2, #64]
ARM GAS  /tmp/ccsQReYy.s 			page 19


 1027              		.loc 1 1922 0
 1028 0004 19B9     		cbnz	r1, .L111
 1029              		.loc 1 1928 0
 1030 0006 23EA0000 		bic	r0, r3, r0
 1031              	.LVL88:
 1032 000a 1064     		str	r0, [r2, #64]
 1033 000c 7047     		bx	lr
 1034              	.LVL89:
 1035              	.L111:
 1036              		.loc 1 1924 0
 1037 000e 1843     		orrs	r0, r0, r3
 1038              	.LVL90:
 1039 0010 1064     		str	r0, [r2, #64]
 1040 0012 7047     		bx	lr
 1041              	.L113:
 1042              		.align	2
 1043              	.L112:
 1044 0014 00380240 		.word	1073887232
 1045              		.cfi_endproc
 1046              	.LFE137:
 1047              		.size	RCC_APB1PeriphClockCmd, .-RCC_APB1PeriphClockCmd
 1048              		.section	.text.RCC_APB2PeriphClockCmd,"ax",%progbits
 1049              		.align	2
 1050              		.p2align 4,,15
 1051              		.global	RCC_APB2PeriphClockCmd
 1052              		.thumb
 1053              		.thumb_func
 1054              		.type	RCC_APB2PeriphClockCmd, %function
 1055              	RCC_APB2PeriphClockCmd:
 1056              	.LFB138:
 1057              		.loc 1 1964 0
 1058              		.cfi_startproc
 1059              		@ args = 0, pretend = 0, frame = 0
 1060              		@ frame_needed = 0, uses_anonymous_args = 0
 1061              		@ link register save eliminated.
 1062              	.LVL91:
 1063              		.loc 1 1971 0
 1064 0000 044A     		ldr	r2, .L118
 1065 0002 536C     		ldr	r3, [r2, #68]
 1066              		.loc 1 1969 0
 1067 0004 19B9     		cbnz	r1, .L117
 1068              		.loc 1 1975 0
 1069 0006 23EA0000 		bic	r0, r3, r0
 1070              	.LVL92:
 1071 000a 5064     		str	r0, [r2, #68]
 1072 000c 7047     		bx	lr
 1073              	.LVL93:
 1074              	.L117:
 1075              		.loc 1 1971 0
 1076 000e 1843     		orrs	r0, r0, r3
 1077              	.LVL94:
 1078 0010 5064     		str	r0, [r2, #68]
 1079 0012 7047     		bx	lr
 1080              	.L119:
 1081              		.align	2
 1082              	.L118:
 1083 0014 00380240 		.word	1073887232
ARM GAS  /tmp/ccsQReYy.s 			page 20


 1084              		.cfi_endproc
 1085              	.LFE138:
 1086              		.size	RCC_APB2PeriphClockCmd, .-RCC_APB2PeriphClockCmd
 1087              		.section	.text.RCC_AHB1PeriphResetCmd,"ax",%progbits
 1088              		.align	2
 1089              		.p2align 4,,15
 1090              		.global	RCC_AHB1PeriphResetCmd
 1091              		.thumb
 1092              		.thumb_func
 1093              		.type	RCC_AHB1PeriphResetCmd, %function
 1094              	RCC_AHB1PeriphResetCmd:
 1095              	.LFB139:
 1096              		.loc 1 2007 0
 1097              		.cfi_startproc
 1098              		@ args = 0, pretend = 0, frame = 0
 1099              		@ frame_needed = 0, uses_anonymous_args = 0
 1100              		@ link register save eliminated.
 1101              	.LVL95:
 1102              		.loc 1 2014 0
 1103 0000 044A     		ldr	r2, .L124
 1104 0002 1369     		ldr	r3, [r2, #16]
 1105              		.loc 1 2012 0
 1106 0004 19B9     		cbnz	r1, .L123
 1107              		.loc 1 2018 0
 1108 0006 23EA0000 		bic	r0, r3, r0
 1109              	.LVL96:
 1110 000a 1061     		str	r0, [r2, #16]
 1111 000c 7047     		bx	lr
 1112              	.LVL97:
 1113              	.L123:
 1114              		.loc 1 2014 0
 1115 000e 1843     		orrs	r0, r0, r3
 1116              	.LVL98:
 1117 0010 1061     		str	r0, [r2, #16]
 1118 0012 7047     		bx	lr
 1119              	.L125:
 1120              		.align	2
 1121              	.L124:
 1122 0014 00380240 		.word	1073887232
 1123              		.cfi_endproc
 1124              	.LFE139:
 1125              		.size	RCC_AHB1PeriphResetCmd, .-RCC_AHB1PeriphResetCmd
 1126              		.section	.text.RCC_AHB2PeriphResetCmd,"ax",%progbits
 1127              		.align	2
 1128              		.p2align 4,,15
 1129              		.global	RCC_AHB2PeriphResetCmd
 1130              		.thumb
 1131              		.thumb_func
 1132              		.type	RCC_AHB2PeriphResetCmd, %function
 1133              	RCC_AHB2PeriphResetCmd:
 1134              	.LFB140:
 1135              		.loc 1 2036 0
 1136              		.cfi_startproc
 1137              		@ args = 0, pretend = 0, frame = 0
 1138              		@ frame_needed = 0, uses_anonymous_args = 0
 1139              		@ link register save eliminated.
 1140              	.LVL99:
ARM GAS  /tmp/ccsQReYy.s 			page 21


 1141              		.loc 1 2043 0
 1142 0000 044A     		ldr	r2, .L130
 1143 0002 5369     		ldr	r3, [r2, #20]
 1144              		.loc 1 2041 0
 1145 0004 19B9     		cbnz	r1, .L129
 1146              		.loc 1 2047 0
 1147 0006 23EA0000 		bic	r0, r3, r0
 1148              	.LVL100:
 1149 000a 5061     		str	r0, [r2, #20]
 1150 000c 7047     		bx	lr
 1151              	.LVL101:
 1152              	.L129:
 1153              		.loc 1 2043 0
 1154 000e 1843     		orrs	r0, r0, r3
 1155              	.LVL102:
 1156 0010 5061     		str	r0, [r2, #20]
 1157 0012 7047     		bx	lr
 1158              	.L131:
 1159              		.align	2
 1160              	.L130:
 1161 0014 00380240 		.word	1073887232
 1162              		.cfi_endproc
 1163              	.LFE140:
 1164              		.size	RCC_AHB2PeriphResetCmd, .-RCC_AHB2PeriphResetCmd
 1165              		.section	.text.RCC_APB1PeriphResetCmd,"ax",%progbits
 1166              		.align	2
 1167              		.p2align 4,,15
 1168              		.global	RCC_APB1PeriphResetCmd
 1169              		.thumb
 1170              		.thumb_func
 1171              		.type	RCC_APB1PeriphResetCmd, %function
 1172              	RCC_APB1PeriphResetCmd:
 1173              	.LFB141:
 1174              		.loc 1 2117 0
 1175              		.cfi_startproc
 1176              		@ args = 0, pretend = 0, frame = 0
 1177              		@ frame_needed = 0, uses_anonymous_args = 0
 1178              		@ link register save eliminated.
 1179              	.LVL103:
 1180              		.loc 1 2123 0
 1181 0000 044A     		ldr	r2, .L136
 1182 0002 136A     		ldr	r3, [r2, #32]
 1183              		.loc 1 2121 0
 1184 0004 19B9     		cbnz	r1, .L135
 1185              		.loc 1 2127 0
 1186 0006 23EA0000 		bic	r0, r3, r0
 1187              	.LVL104:
 1188 000a 1062     		str	r0, [r2, #32]
 1189 000c 7047     		bx	lr
 1190              	.LVL105:
 1191              	.L135:
 1192              		.loc 1 2123 0
 1193 000e 1843     		orrs	r0, r0, r3
 1194              	.LVL106:
 1195 0010 1062     		str	r0, [r2, #32]
 1196 0012 7047     		bx	lr
 1197              	.L137:
ARM GAS  /tmp/ccsQReYy.s 			page 22


 1198              		.align	2
 1199              	.L136:
 1200 0014 00380240 		.word	1073887232
 1201              		.cfi_endproc
 1202              	.LFE141:
 1203              		.size	RCC_APB1PeriphResetCmd, .-RCC_APB1PeriphResetCmd
 1204              		.section	.text.RCC_APB2PeriphResetCmd,"ax",%progbits
 1205              		.align	2
 1206              		.p2align 4,,15
 1207              		.global	RCC_APB2PeriphResetCmd
 1208              		.thumb
 1209              		.thumb_func
 1210              		.type	RCC_APB2PeriphResetCmd, %function
 1211              	RCC_APB2PeriphResetCmd:
 1212              	.LFB142:
 1213              		.loc 1 2160 0
 1214              		.cfi_startproc
 1215              		@ args = 0, pretend = 0, frame = 0
 1216              		@ frame_needed = 0, uses_anonymous_args = 0
 1217              		@ link register save eliminated.
 1218              	.LVL107:
 1219              		.loc 1 2166 0
 1220 0000 044A     		ldr	r2, .L142
 1221 0002 536A     		ldr	r3, [r2, #36]
 1222              		.loc 1 2164 0
 1223 0004 19B9     		cbnz	r1, .L141
 1224              		.loc 1 2170 0
 1225 0006 23EA0000 		bic	r0, r3, r0
 1226              	.LVL108:
 1227 000a 5062     		str	r0, [r2, #36]
 1228 000c 7047     		bx	lr
 1229              	.LVL109:
 1230              	.L141:
 1231              		.loc 1 2166 0
 1232 000e 1843     		orrs	r0, r0, r3
 1233              	.LVL110:
 1234 0010 5062     		str	r0, [r2, #36]
 1235 0012 7047     		bx	lr
 1236              	.L143:
 1237              		.align	2
 1238              	.L142:
 1239 0014 00380240 		.word	1073887232
 1240              		.cfi_endproc
 1241              	.LFE142:
 1242              		.size	RCC_APB2PeriphResetCmd, .-RCC_APB2PeriphResetCmd
 1243              		.section	.text.RCC_AHB1PeriphClockLPModeCmd,"ax",%progbits
 1244              		.align	2
 1245              		.p2align 4,,15
 1246              		.global	RCC_AHB1PeriphClockLPModeCmd
 1247              		.thumb
 1248              		.thumb_func
 1249              		.type	RCC_AHB1PeriphClockLPModeCmd, %function
 1250              	RCC_AHB1PeriphClockLPModeCmd:
 1251              	.LFB143:
 1252              		.loc 1 2209 0
 1253              		.cfi_startproc
 1254              		@ args = 0, pretend = 0, frame = 0
ARM GAS  /tmp/ccsQReYy.s 			page 23


 1255              		@ frame_needed = 0, uses_anonymous_args = 0
 1256              		@ link register save eliminated.
 1257              	.LVL111:
 1258              		.loc 1 2215 0
 1259 0000 044A     		ldr	r2, .L148
 1260 0002 136D     		ldr	r3, [r2, #80]
 1261              		.loc 1 2213 0
 1262 0004 19B9     		cbnz	r1, .L147
 1263              		.loc 1 2219 0
 1264 0006 23EA0000 		bic	r0, r3, r0
 1265              	.LVL112:
 1266 000a 1065     		str	r0, [r2, #80]
 1267 000c 7047     		bx	lr
 1268              	.LVL113:
 1269              	.L147:
 1270              		.loc 1 2215 0
 1271 000e 1843     		orrs	r0, r0, r3
 1272              	.LVL114:
 1273 0010 1065     		str	r0, [r2, #80]
 1274 0012 7047     		bx	lr
 1275              	.L149:
 1276              		.align	2
 1277              	.L148:
 1278 0014 00380240 		.word	1073887232
 1279              		.cfi_endproc
 1280              	.LFE143:
 1281              		.size	RCC_AHB1PeriphClockLPModeCmd, .-RCC_AHB1PeriphClockLPModeCmd
 1282              		.section	.text.RCC_AHB2PeriphClockLPModeCmd,"ax",%progbits
 1283              		.align	2
 1284              		.p2align 4,,15
 1285              		.global	RCC_AHB2PeriphClockLPModeCmd
 1286              		.thumb
 1287              		.thumb_func
 1288              		.type	RCC_AHB2PeriphClockLPModeCmd, %function
 1289              	RCC_AHB2PeriphClockLPModeCmd:
 1290              	.LFB144:
 1291              		.loc 1 2241 0
 1292              		.cfi_startproc
 1293              		@ args = 0, pretend = 0, frame = 0
 1294              		@ frame_needed = 0, uses_anonymous_args = 0
 1295              		@ link register save eliminated.
 1296              	.LVL115:
 1297              		.loc 1 2247 0
 1298 0000 044A     		ldr	r2, .L154
 1299 0002 536D     		ldr	r3, [r2, #84]
 1300              		.loc 1 2245 0
 1301 0004 19B9     		cbnz	r1, .L153
 1302              		.loc 1 2251 0
 1303 0006 23EA0000 		bic	r0, r3, r0
 1304              	.LVL116:
 1305 000a 5065     		str	r0, [r2, #84]
 1306 000c 7047     		bx	lr
 1307              	.LVL117:
 1308              	.L153:
 1309              		.loc 1 2247 0
 1310 000e 1843     		orrs	r0, r0, r3
 1311              	.LVL118:
ARM GAS  /tmp/ccsQReYy.s 			page 24


 1312 0010 5065     		str	r0, [r2, #84]
 1313 0012 7047     		bx	lr
 1314              	.L155:
 1315              		.align	2
 1316              	.L154:
 1317 0014 00380240 		.word	1073887232
 1318              		.cfi_endproc
 1319              	.LFE144:
 1320              		.size	RCC_AHB2PeriphClockLPModeCmd, .-RCC_AHB2PeriphClockLPModeCmd
 1321              		.section	.text.RCC_APB1PeriphClockLPModeCmd,"ax",%progbits
 1322              		.align	2
 1323              		.p2align 4,,15
 1324              		.global	RCC_APB1PeriphClockLPModeCmd
 1325              		.thumb
 1326              		.thumb_func
 1327              		.type	RCC_APB1PeriphClockLPModeCmd, %function
 1328              	RCC_APB1PeriphClockLPModeCmd:
 1329              	.LFB145:
 1330              		.loc 1 2328 0
 1331              		.cfi_startproc
 1332              		@ args = 0, pretend = 0, frame = 0
 1333              		@ frame_needed = 0, uses_anonymous_args = 0
 1334              		@ link register save eliminated.
 1335              	.LVL119:
 1336              		.loc 1 2334 0
 1337 0000 044A     		ldr	r2, .L160
 1338 0002 136E     		ldr	r3, [r2, #96]
 1339              		.loc 1 2332 0
 1340 0004 19B9     		cbnz	r1, .L159
 1341              		.loc 1 2338 0
 1342 0006 23EA0000 		bic	r0, r3, r0
 1343              	.LVL120:
 1344 000a 1066     		str	r0, [r2, #96]
 1345 000c 7047     		bx	lr
 1346              	.LVL121:
 1347              	.L159:
 1348              		.loc 1 2334 0
 1349 000e 1843     		orrs	r0, r0, r3
 1350              	.LVL122:
 1351 0010 1066     		str	r0, [r2, #96]
 1352 0012 7047     		bx	lr
 1353              	.L161:
 1354              		.align	2
 1355              	.L160:
 1356 0014 00380240 		.word	1073887232
 1357              		.cfi_endproc
 1358              	.LFE145:
 1359              		.size	RCC_APB1PeriphClockLPModeCmd, .-RCC_APB1PeriphClockLPModeCmd
 1360              		.section	.text.RCC_APB2PeriphClockLPModeCmd,"ax",%progbits
 1361              		.align	2
 1362              		.p2align 4,,15
 1363              		.global	RCC_APB2PeriphClockLPModeCmd
 1364              		.thumb
 1365              		.thumb_func
 1366              		.type	RCC_APB2PeriphClockLPModeCmd, %function
 1367              	RCC_APB2PeriphClockLPModeCmd:
 1368              	.LFB146:
ARM GAS  /tmp/ccsQReYy.s 			page 25


 1369              		.loc 1 2375 0
 1370              		.cfi_startproc
 1371              		@ args = 0, pretend = 0, frame = 0
 1372              		@ frame_needed = 0, uses_anonymous_args = 0
 1373              		@ link register save eliminated.
 1374              	.LVL123:
 1375              		.loc 1 2381 0
 1376 0000 044A     		ldr	r2, .L166
 1377 0002 536E     		ldr	r3, [r2, #100]
 1378              		.loc 1 2379 0
 1379 0004 19B9     		cbnz	r1, .L165
 1380              		.loc 1 2385 0
 1381 0006 23EA0000 		bic	r0, r3, r0
 1382              	.LVL124:
 1383 000a 5066     		str	r0, [r2, #100]
 1384 000c 7047     		bx	lr
 1385              	.LVL125:
 1386              	.L165:
 1387              		.loc 1 2381 0
 1388 000e 1843     		orrs	r0, r0, r3
 1389              	.LVL126:
 1390 0010 5066     		str	r0, [r2, #100]
 1391 0012 7047     		bx	lr
 1392              	.L167:
 1393              		.align	2
 1394              	.L166:
 1395 0014 00380240 		.word	1073887232
 1396              		.cfi_endproc
 1397              	.LFE146:
 1398              		.size	RCC_APB2PeriphClockLPModeCmd, .-RCC_APB2PeriphClockLPModeCmd
 1399              		.section	.text.RCC_LSEModeConfig,"ax",%progbits
 1400              		.align	2
 1401              		.p2align 4,,15
 1402              		.global	RCC_LSEModeConfig
 1403              		.thumb
 1404              		.thumb_func
 1405              		.type	RCC_LSEModeConfig, %function
 1406              	RCC_LSEModeConfig:
 1407              	.LFB147:
 1408              		.loc 1 2399 0
 1409              		.cfi_startproc
 1410              		@ args = 0, pretend = 0, frame = 0
 1411              		@ frame_needed = 0, uses_anonymous_args = 0
 1412              		@ link register save eliminated.
 1413              	.LVL127:
 1414              		.loc 1 2405 0
 1415 0000 044A     		ldr	r2, .L171
 1416 0002 136F     		ldr	r3, [r2, #112]
 1417              		.loc 1 2403 0
 1418 0004 0128     		cmp	r0, #1
 1419              		.loc 1 2405 0
 1420 0006 0CBF     		ite	eq
 1421 0008 43F00803 		orreq	r3, r3, #8
 1422              		.loc 1 2409 0
 1423 000c 23F00803 		bicne	r3, r3, #8
 1424 0010 1367     		str	r3, [r2, #112]
 1425 0012 7047     		bx	lr
ARM GAS  /tmp/ccsQReYy.s 			page 26


 1426              	.L172:
 1427              		.align	2
 1428              	.L171:
 1429 0014 00380240 		.word	1073887232
 1430              		.cfi_endproc
 1431              	.LFE147:
 1432              		.size	RCC_LSEModeConfig, .-RCC_LSEModeConfig
 1433              		.section	.text.RCC_ITConfig,"ax",%progbits
 1434              		.align	2
 1435              		.p2align 4,,15
 1436              		.global	RCC_ITConfig
 1437              		.thumb
 1438              		.thumb_func
 1439              		.type	RCC_ITConfig, %function
 1440              	RCC_ITConfig:
 1441              	.LFB148:
 1442              		.loc 1 2701 0
 1443              		.cfi_startproc
 1444              		@ args = 0, pretend = 0, frame = 0
 1445              		@ frame_needed = 0, uses_anonymous_args = 0
 1446              		@ link register save eliminated.
 1447              	.LVL128:
 1448              		.loc 1 2708 0
 1449 0000 044A     		ldr	r2, .L177
 1450 0002 1378     		ldrb	r3, [r2]	@ zero_extendqisi2
 1451              		.loc 1 2705 0
 1452 0004 19B9     		cbnz	r1, .L176
 1453              		.loc 1 2713 0
 1454 0006 23EA0000 		bic	r0, r3, r0
 1455              	.LVL129:
 1456 000a 1070     		strb	r0, [r2]
 1457 000c 7047     		bx	lr
 1458              	.LVL130:
 1459              	.L176:
 1460              		.loc 1 2708 0
 1461 000e 1843     		orrs	r0, r0, r3
 1462              	.LVL131:
 1463 0010 1070     		strb	r0, [r2]
 1464 0012 7047     		bx	lr
 1465              	.L178:
 1466              		.align	2
 1467              	.L177:
 1468 0014 0D380240 		.word	1073887245
 1469              		.cfi_endproc
 1470              	.LFE148:
 1471              		.size	RCC_ITConfig, .-RCC_ITConfig
 1472              		.section	.text.RCC_GetFlagStatus,"ax",%progbits
 1473              		.align	2
 1474              		.p2align 4,,15
 1475              		.global	RCC_GetFlagStatus
 1476              		.thumb
 1477              		.thumb_func
 1478              		.type	RCC_GetFlagStatus, %function
 1479              	RCC_GetFlagStatus:
 1480              	.LFB149:
 1481              		.loc 1 2738 0
 1482              		.cfi_startproc
ARM GAS  /tmp/ccsQReYy.s 			page 27


 1483              		@ args = 0, pretend = 0, frame = 0
 1484              		@ frame_needed = 0, uses_anonymous_args = 0
 1485              		@ link register save eliminated.
 1486              	.LVL132:
 1487              		.loc 1 2747 0
 1488 0000 4309     		lsrs	r3, r0, #5
 1489              	.LVL133:
 1490              		.loc 1 2748 0
 1491 0002 012B     		cmp	r3, #1
 1492 0004 0BD0     		beq	.L183
 1493              		.loc 1 2752 0
 1494 0006 022B     		cmp	r3, #2
 1495              		.loc 1 2754 0
 1496 0008 094B     		ldr	r3, .L184
 1497              	.LVL134:
 1498 000a 0CBF     		ite	eq
 1499 000c 1A6F     		ldreq	r2, [r3, #112]
 1500              	.LVL135:
 1501              		.loc 1 2758 0
 1502 000e 5A6F     		ldrne	r2, [r3, #116]
 1503              	.LVL136:
 1504              		.loc 1 2763 0
 1505 0010 00F01F03 		and	r3, r0, #31
 1506 0014 22FA03F0 		lsr	r0, r2, r3
 1507              	.LVL137:
 1508              		.loc 1 2773 0
 1509 0018 00F00100 		and	r0, r0, #1
 1510 001c 7047     		bx	lr
 1511              	.LVL138:
 1512              	.L183:
 1513              		.loc 1 2750 0
 1514 001e 044B     		ldr	r3, .L184
 1515              	.LVL139:
 1516 0020 1A68     		ldr	r2, [r3]
 1517              	.LVL140:
 1518              		.loc 1 2763 0
 1519 0022 00F01F03 		and	r3, r0, #31
 1520 0026 22FA03F0 		lsr	r0, r2, r3
 1521              	.LVL141:
 1522              		.loc 1 2773 0
 1523 002a 00F00100 		and	r0, r0, #1
 1524 002e 7047     		bx	lr
 1525              	.L185:
 1526              		.align	2
 1527              	.L184:
 1528 0030 00380240 		.word	1073887232
 1529              		.cfi_endproc
 1530              	.LFE149:
 1531              		.size	RCC_GetFlagStatus, .-RCC_GetFlagStatus
 1532              		.section	.text.RCC_ClearFlag,"ax",%progbits
 1533              		.align	2
 1534              		.p2align 4,,15
 1535              		.global	RCC_ClearFlag
 1536              		.thumb
 1537              		.thumb_func
 1538              		.type	RCC_ClearFlag, %function
 1539              	RCC_ClearFlag:
ARM GAS  /tmp/ccsQReYy.s 			page 28


 1540              	.LFB150:
 1541              		.loc 1 2783 0
 1542              		.cfi_startproc
 1543              		@ args = 0, pretend = 0, frame = 0
 1544              		@ frame_needed = 0, uses_anonymous_args = 0
 1545              		@ link register save eliminated.
 1546              		.loc 1 2785 0
 1547 0000 024A     		ldr	r2, .L187
 1548 0002 536F     		ldr	r3, [r2, #116]
 1549 0004 43F08073 		orr	r3, r3, #16777216
 1550 0008 5367     		str	r3, [r2, #116]
 1551 000a 7047     		bx	lr
 1552              	.L188:
 1553              		.align	2
 1554              	.L187:
 1555 000c 00380240 		.word	1073887232
 1556              		.cfi_endproc
 1557              	.LFE150:
 1558              		.size	RCC_ClearFlag, .-RCC_ClearFlag
 1559              		.section	.text.RCC_GetITStatus,"ax",%progbits
 1560              		.align	2
 1561              		.p2align 4,,15
 1562              		.global	RCC_GetITStatus
 1563              		.thumb
 1564              		.thumb_func
 1565              		.type	RCC_GetITStatus, %function
 1566              	RCC_GetITStatus:
 1567              	.LFB151:
 1568              		.loc 1 2803 0
 1569              		.cfi_startproc
 1570              		@ args = 0, pretend = 0, frame = 0
 1571              		@ frame_needed = 0, uses_anonymous_args = 0
 1572              		@ link register save eliminated.
 1573              	.LVL142:
 1574              		.loc 1 2810 0
 1575 0000 034B     		ldr	r3, .L190
 1576 0002 DB68     		ldr	r3, [r3, #12]
 1577              	.LVL143:
 1578 0004 1842     		tst	r0, r3
 1579              		.loc 1 2820 0
 1580 0006 14BF     		ite	ne
 1581 0008 0120     		movne	r0, #1
 1582              	.LVL144:
 1583 000a 0020     		moveq	r0, #0
 1584 000c 7047     		bx	lr
 1585              	.L191:
 1586 000e 00BF     		.align	2
 1587              	.L190:
 1588 0010 00380240 		.word	1073887232
 1589              		.cfi_endproc
 1590              	.LFE151:
 1591              		.size	RCC_GetITStatus, .-RCC_GetITStatus
 1592              		.section	.text.RCC_ClearITPendingBit,"ax",%progbits
 1593              		.align	2
 1594              		.p2align 4,,15
 1595              		.global	RCC_ClearITPendingBit
 1596              		.thumb
ARM GAS  /tmp/ccsQReYy.s 			page 29


 1597              		.thumb_func
 1598              		.type	RCC_ClearITPendingBit, %function
 1599              	RCC_ClearITPendingBit:
 1600              	.LFB152:
 1601              		.loc 1 2837 0
 1602              		.cfi_startproc
 1603              		@ args = 0, pretend = 0, frame = 0
 1604              		@ frame_needed = 0, uses_anonymous_args = 0
 1605              		@ link register save eliminated.
 1606              	.LVL145:
 1607              		.loc 1 2843 0
 1608 0000 014B     		ldr	r3, .L193
 1609 0002 1870     		strb	r0, [r3]
 1610 0004 7047     		bx	lr
 1611              	.L194:
 1612 0006 00BF     		.align	2
 1613              	.L193:
 1614 0008 0E380240 		.word	1073887246
 1615              		.cfi_endproc
 1616              	.LFE152:
 1617              		.size	RCC_ClearITPendingBit, .-RCC_ClearITPendingBit
 1618              		.section	.data.APBAHBPrescTable,"aw",%progbits
 1619              		.align	2
 1620              		.set	.LANCHOR0,. + 0
 1621              		.type	APBAHBPrescTable, %object
 1622              		.size	APBAHBPrescTable, 16
 1623              	APBAHBPrescTable:
 1624 0000 00       		.byte	0
 1625 0001 00       		.byte	0
 1626 0002 00       		.byte	0
 1627 0003 00       		.byte	0
 1628 0004 01       		.byte	1
 1629 0005 02       		.byte	2
 1630 0006 03       		.byte	3
 1631 0007 04       		.byte	4
 1632 0008 01       		.byte	1
 1633 0009 02       		.byte	2
 1634 000a 03       		.byte	3
 1635 000b 04       		.byte	4
 1636 000c 06       		.byte	6
 1637 000d 07       		.byte	7
 1638 000e 08       		.byte	8
 1639 000f 09       		.byte	9
 1640              		.text
 1641              	.Letext0:
 1642              		.file 2 "/usr/arm-none-eabi/include/machine/_default_types.h"
 1643              		.file 3 "/usr/arm-none-eabi/include/sys/_stdint.h"
 1644              		.file 4 "ChibiOS_3.0.2/os/ext/CMSIS/ST/stm32f407xx.h"
 1645              		.file 5 "ChibiOS_3.0.2/os/ext/CMSIS/ST/stm32f4xx.h"
 1646              		.file 6 "ChibiOS_3.0.2/ext/stdperiph_stm32f4/inc/stm32f4xx_rcc.h"
 1647              		.file 7 "ChibiOS_3.0.2/os/ext/CMSIS/include/core_cm4.h"
 1648              		.section	.debug_info,"",%progbits
 1649              	.Ldebug_info0:
 1650 0000 010C0000 		.4byte	0xc01
 1651 0004 0400     		.2byte	0x4
 1652 0006 00000000 		.4byte	.Ldebug_abbrev0
 1653 000a 04       		.byte	0x4
ARM GAS  /tmp/ccsQReYy.s 			page 30


 1654 000b 01       		.uleb128 0x1
 1655 000c C7020000 		.4byte	.LASF131
 1656 0010 01       		.byte	0x1
 1657 0011 D5070000 		.4byte	.LASF132
 1658 0015 2F080000 		.4byte	.LASF133
 1659 0019 20000000 		.4byte	.Ldebug_ranges0+0x20
 1660 001d 00000000 		.4byte	0
 1661 0021 00000000 		.4byte	.Ldebug_line0
 1662 0025 02       		.uleb128 0x2
 1663 0026 01       		.byte	0x1
 1664 0027 06       		.byte	0x6
 1665 0028 1A010000 		.4byte	.LASF0
 1666 002c 03       		.uleb128 0x3
 1667 002d 59000000 		.4byte	.LASF3
 1668 0031 02       		.byte	0x2
 1669 0032 1D       		.byte	0x1d
 1670 0033 37000000 		.4byte	0x37
 1671 0037 02       		.uleb128 0x2
 1672 0038 01       		.byte	0x1
 1673 0039 08       		.byte	0x8
 1674 003a 99050000 		.4byte	.LASF1
 1675 003e 02       		.uleb128 0x2
 1676 003f 02       		.byte	0x2
 1677 0040 05       		.byte	0x5
 1678 0041 A7050000 		.4byte	.LASF2
 1679 0045 03       		.uleb128 0x3
 1680 0046 EB060000 		.4byte	.LASF4
 1681 004a 02       		.byte	0x2
 1682 004b 2B       		.byte	0x2b
 1683 004c 50000000 		.4byte	0x50
 1684 0050 02       		.uleb128 0x2
 1685 0051 02       		.byte	0x2
 1686 0052 07       		.byte	0x7
 1687 0053 27040000 		.4byte	.LASF5
 1688 0057 03       		.uleb128 0x3
 1689 0058 0A070000 		.4byte	.LASF6
 1690 005c 02       		.byte	0x2
 1691 005d 3F       		.byte	0x3f
 1692 005e 62000000 		.4byte	0x62
 1693 0062 02       		.uleb128 0x2
 1694 0063 04       		.byte	0x4
 1695 0064 05       		.byte	0x5
 1696 0065 76080000 		.4byte	.LASF7
 1697 0069 03       		.uleb128 0x3
 1698 006a 21020000 		.4byte	.LASF8
 1699 006e 02       		.byte	0x2
 1700 006f 41       		.byte	0x41
 1701 0070 74000000 		.4byte	0x74
 1702 0074 02       		.uleb128 0x2
 1703 0075 04       		.byte	0x4
 1704 0076 07       		.byte	0x7
 1705 0077 B0060000 		.4byte	.LASF9
 1706 007b 02       		.uleb128 0x2
 1707 007c 08       		.byte	0x8
 1708 007d 05       		.byte	0x5
 1709 007e AA010000 		.4byte	.LASF10
 1710 0082 02       		.uleb128 0x2
ARM GAS  /tmp/ccsQReYy.s 			page 31


 1711 0083 08       		.byte	0x8
 1712 0084 07       		.byte	0x7
 1713 0085 A7000000 		.4byte	.LASF11
 1714 0089 04       		.uleb128 0x4
 1715 008a 04       		.byte	0x4
 1716 008b 05       		.byte	0x5
 1717 008c 696E7400 		.ascii	"int\000"
 1718 0090 02       		.uleb128 0x2
 1719 0091 04       		.byte	0x4
 1720 0092 07       		.byte	0x7
 1721 0093 9A020000 		.4byte	.LASF12
 1722 0097 03       		.uleb128 0x3
 1723 0098 0D080000 		.4byte	.LASF13
 1724 009c 03       		.byte	0x3
 1725 009d 14       		.byte	0x14
 1726 009e 2C000000 		.4byte	0x2c
 1727 00a2 03       		.uleb128 0x3
 1728 00a3 C9010000 		.4byte	.LASF14
 1729 00a7 03       		.byte	0x3
 1730 00a8 1A       		.byte	0x1a
 1731 00a9 45000000 		.4byte	0x45
 1732 00ad 03       		.uleb128 0x3
 1733 00ae 91050000 		.4byte	.LASF15
 1734 00b2 03       		.byte	0x3
 1735 00b3 1F       		.byte	0x1f
 1736 00b4 57000000 		.4byte	0x57
 1737 00b8 03       		.uleb128 0x3
 1738 00b9 5E060000 		.4byte	.LASF16
 1739 00bd 03       		.byte	0x3
 1740 00be 20       		.byte	0x20
 1741 00bf 69000000 		.4byte	0x69
 1742 00c3 02       		.uleb128 0x2
 1743 00c4 04       		.byte	0x4
 1744 00c5 07       		.byte	0x7
 1745 00c6 95040000 		.4byte	.LASF17
 1746 00ca 05       		.uleb128 0x5
 1747 00cb B8000000 		.4byte	0xb8
 1748 00cf 06       		.uleb128 0x6
 1749 00d0 B8000000 		.4byte	0xb8
 1750 00d4 DF000000 		.4byte	0xdf
 1751 00d8 07       		.uleb128 0x7
 1752 00d9 C3000000 		.4byte	0xc3
 1753 00dd 01       		.byte	0x1
 1754 00de 00       		.byte	0
 1755 00df 08       		.uleb128 0x8
 1756 00e0 88       		.byte	0x88
 1757 00e1 04       		.byte	0x4
 1758 00e2 6702     		.2byte	0x267
 1759 00e4 6E020000 		.4byte	0x26e
 1760 00e8 09       		.uleb128 0x9
 1761 00e9 435200   		.ascii	"CR\000"
 1762 00ec 04       		.byte	0x4
 1763 00ed 6902     		.2byte	0x269
 1764 00ef CA000000 		.4byte	0xca
 1765 00f3 00       		.byte	0
 1766 00f4 0A       		.uleb128 0xa
 1767 00f5 06020000 		.4byte	.LASF18
ARM GAS  /tmp/ccsQReYy.s 			page 32


 1768 00f9 04       		.byte	0x4
 1769 00fa 6A02     		.2byte	0x26a
 1770 00fc CA000000 		.4byte	0xca
 1771 0100 04       		.byte	0x4
 1772 0101 0A       		.uleb128 0xa
 1773 0102 71080000 		.4byte	.LASF19
 1774 0106 04       		.byte	0x4
 1775 0107 6B02     		.2byte	0x26b
 1776 0109 CA000000 		.4byte	0xca
 1777 010d 08       		.byte	0x8
 1778 010e 09       		.uleb128 0x9
 1779 010f 43495200 		.ascii	"CIR\000"
 1780 0113 04       		.byte	0x4
 1781 0114 6C02     		.2byte	0x26c
 1782 0116 CA000000 		.4byte	0xca
 1783 011a 0C       		.byte	0xc
 1784 011b 0A       		.uleb128 0xa
 1785 011c 26010000 		.4byte	.LASF20
 1786 0120 04       		.byte	0x4
 1787 0121 6D02     		.2byte	0x26d
 1788 0123 CA000000 		.4byte	0xca
 1789 0127 10       		.byte	0x10
 1790 0128 0A       		.uleb128 0xa
 1791 0129 F6060000 		.4byte	.LASF21
 1792 012d 04       		.byte	0x4
 1793 012e 6E02     		.2byte	0x26e
 1794 0130 CA000000 		.4byte	0xca
 1795 0134 14       		.byte	0x14
 1796 0135 0A       		.uleb128 0xa
 1797 0136 EF050000 		.4byte	.LASF22
 1798 013a 04       		.byte	0x4
 1799 013b 6F02     		.2byte	0x26f
 1800 013d CA000000 		.4byte	0xca
 1801 0141 18       		.byte	0x18
 1802 0142 0A       		.uleb128 0xa
 1803 0143 25050000 		.4byte	.LASF23
 1804 0147 04       		.byte	0x4
 1805 0148 7002     		.2byte	0x270
 1806 014a B8000000 		.4byte	0xb8
 1807 014e 1C       		.byte	0x1c
 1808 014f 0A       		.uleb128 0xa
 1809 0150 91070000 		.4byte	.LASF24
 1810 0154 04       		.byte	0x4
 1811 0155 7102     		.2byte	0x271
 1812 0157 CA000000 		.4byte	0xca
 1813 015b 20       		.byte	0x20
 1814 015c 0A       		.uleb128 0xa
 1815 015d 64010000 		.4byte	.LASF25
 1816 0161 04       		.byte	0x4
 1817 0162 7202     		.2byte	0x272
 1818 0164 CA000000 		.4byte	0xca
 1819 0168 24       		.byte	0x24
 1820 0169 0A       		.uleb128 0xa
 1821 016a 2F050000 		.4byte	.LASF26
 1822 016e 04       		.byte	0x4
 1823 016f 7302     		.2byte	0x273
 1824 0171 CF000000 		.4byte	0xcf
ARM GAS  /tmp/ccsQReYy.s 			page 33


 1825 0175 28       		.byte	0x28
 1826 0176 0A       		.uleb128 0xa
 1827 0177 69080000 		.4byte	.LASF27
 1828 017b 04       		.byte	0x4
 1829 017c 7402     		.2byte	0x274
 1830 017e CA000000 		.4byte	0xca
 1831 0182 30       		.byte	0x30
 1832 0183 0A       		.uleb128 0xa
 1833 0184 2C070000 		.4byte	.LASF28
 1834 0188 04       		.byte	0x4
 1835 0189 7502     		.2byte	0x275
 1836 018b CA000000 		.4byte	0xca
 1837 018f 34       		.byte	0x34
 1838 0190 0A       		.uleb128 0xa
 1839 0191 BF040000 		.4byte	.LASF29
 1840 0195 04       		.byte	0x4
 1841 0196 7602     		.2byte	0x276
 1842 0198 CA000000 		.4byte	0xca
 1843 019c 38       		.byte	0x38
 1844 019d 0A       		.uleb128 0xa
 1845 019e 39050000 		.4byte	.LASF30
 1846 01a2 04       		.byte	0x4
 1847 01a3 7702     		.2byte	0x277
 1848 01a5 B8000000 		.4byte	0xb8
 1849 01a9 3C       		.byte	0x3c
 1850 01aa 0A       		.uleb128 0xa
 1851 01ab 24070000 		.4byte	.LASF31
 1852 01af 04       		.byte	0x4
 1853 01b0 7802     		.2byte	0x278
 1854 01b2 CA000000 		.4byte	0xca
 1855 01b6 40       		.byte	0x40
 1856 01b7 0A       		.uleb128 0xa
 1857 01b8 E7050000 		.4byte	.LASF32
 1858 01bc 04       		.byte	0x4
 1859 01bd 7902     		.2byte	0x279
 1860 01bf CA000000 		.4byte	0xca
 1861 01c3 44       		.byte	0x44
 1862 01c4 0A       		.uleb128 0xa
 1863 01c5 43050000 		.4byte	.LASF33
 1864 01c9 04       		.byte	0x4
 1865 01ca 7A02     		.2byte	0x27a
 1866 01cc CF000000 		.4byte	0xcf
 1867 01d0 48       		.byte	0x48
 1868 01d1 0A       		.uleb128 0xa
 1869 01d2 DA000000 		.4byte	.LASF34
 1870 01d6 04       		.byte	0x4
 1871 01d7 7B02     		.2byte	0x27b
 1872 01d9 CA000000 		.4byte	0xca
 1873 01dd 50       		.byte	0x50
 1874 01de 0A       		.uleb128 0xa
 1875 01df D9040000 		.4byte	.LASF35
 1876 01e3 04       		.byte	0x4
 1877 01e4 7C02     		.2byte	0x27c
 1878 01e6 CA000000 		.4byte	0xca
 1879 01ea 54       		.byte	0x54
 1880 01eb 0A       		.uleb128 0xa
 1881 01ec 87070000 		.4byte	.LASF36
ARM GAS  /tmp/ccsQReYy.s 			page 34


 1882 01f0 04       		.byte	0x4
 1883 01f1 7D02     		.2byte	0x27d
 1884 01f3 CA000000 		.4byte	0xca
 1885 01f7 58       		.byte	0x58
 1886 01f8 0A       		.uleb128 0xa
 1887 01f9 4D050000 		.4byte	.LASF37
 1888 01fd 04       		.byte	0x4
 1889 01fe 7E02     		.2byte	0x27e
 1890 0200 B8000000 		.4byte	0xb8
 1891 0204 5C       		.byte	0x5c
 1892 0205 0A       		.uleb128 0xa
 1893 0206 11000000 		.4byte	.LASF38
 1894 020a 04       		.byte	0x4
 1895 020b 7F02     		.2byte	0x27f
 1896 020d CA000000 		.4byte	0xca
 1897 0211 60       		.byte	0x60
 1898 0212 0A       		.uleb128 0xa
 1899 0213 71040000 		.4byte	.LASF39
 1900 0217 04       		.byte	0x4
 1901 0218 8002     		.2byte	0x280
 1902 021a CA000000 		.4byte	0xca
 1903 021e 64       		.byte	0x64
 1904 021f 0A       		.uleb128 0xa
 1905 0220 57050000 		.4byte	.LASF40
 1906 0224 04       		.byte	0x4
 1907 0225 8102     		.2byte	0x281
 1908 0227 CF000000 		.4byte	0xcf
 1909 022b 68       		.byte	0x68
 1910 022c 0A       		.uleb128 0xa
 1911 022d AC070000 		.4byte	.LASF41
 1912 0231 04       		.byte	0x4
 1913 0232 8202     		.2byte	0x282
 1914 0234 CA000000 		.4byte	0xca
 1915 0238 70       		.byte	0x70
 1916 0239 09       		.uleb128 0x9
 1917 023a 43535200 		.ascii	"CSR\000"
 1918 023e 04       		.byte	0x4
 1919 023f 8302     		.2byte	0x283
 1920 0241 CA000000 		.4byte	0xca
 1921 0245 74       		.byte	0x74
 1922 0246 0A       		.uleb128 0xa
 1923 0247 61050000 		.4byte	.LASF42
 1924 024b 04       		.byte	0x4
 1925 024c 8402     		.2byte	0x284
 1926 024e CF000000 		.4byte	0xcf
 1927 0252 78       		.byte	0x78
 1928 0253 0A       		.uleb128 0xa
 1929 0254 81070000 		.4byte	.LASF43
 1930 0258 04       		.byte	0x4
 1931 0259 8502     		.2byte	0x285
 1932 025b CA000000 		.4byte	0xca
 1933 025f 80       		.byte	0x80
 1934 0260 0A       		.uleb128 0xa
 1935 0261 3A040000 		.4byte	.LASF44
 1936 0265 04       		.byte	0x4
 1937 0266 8602     		.2byte	0x286
 1938 0268 CA000000 		.4byte	0xca
ARM GAS  /tmp/ccsQReYy.s 			page 35


 1939 026c 84       		.byte	0x84
 1940 026d 00       		.byte	0
 1941 026e 0B       		.uleb128 0xb
 1942 026f 04040000 		.4byte	.LASF45
 1943 0273 04       		.byte	0x4
 1944 0274 8802     		.2byte	0x288
 1945 0276 DF000000 		.4byte	0xdf
 1946 027a 0C       		.uleb128 0xc
 1947 027b 01       		.byte	0x1
 1948 027c 05       		.byte	0x5
 1949 027d A2       		.byte	0xa2
 1950 027e 8F020000 		.4byte	0x28f
 1951 0282 0D       		.uleb128 0xd
 1952 0283 6B050000 		.4byte	.LASF46
 1953 0287 00       		.sleb128 0
 1954 0288 0E       		.uleb128 0xe
 1955 0289 53455400 		.ascii	"SET\000"
 1956 028d 01       		.sleb128 1
 1957 028e 00       		.byte	0
 1958 028f 03       		.uleb128 0x3
 1959 0290 33000000 		.4byte	.LASF47
 1960 0294 05       		.byte	0x5
 1961 0295 A5       		.byte	0xa5
 1962 0296 7A020000 		.4byte	0x27a
 1963 029a 03       		.uleb128 0x3
 1964 029b 7B020000 		.4byte	.LASF48
 1965 029f 05       		.byte	0x5
 1966 02a0 A5       		.byte	0xa5
 1967 02a1 7A020000 		.4byte	0x27a
 1968 02a5 0C       		.uleb128 0xc
 1969 02a6 01       		.byte	0x1
 1970 02a7 05       		.byte	0x5
 1971 02a8 A8       		.byte	0xa8
 1972 02a9 BA020000 		.4byte	0x2ba
 1973 02ad 0D       		.uleb128 0xd
 1974 02ae 89000000 		.4byte	.LASF49
 1975 02b2 00       		.sleb128 0
 1976 02b3 0D       		.uleb128 0xd
 1977 02b4 5D010000 		.4byte	.LASF50
 1978 02b8 01       		.sleb128 1
 1979 02b9 00       		.byte	0
 1980 02ba 03       		.uleb128 0x3
 1981 02bb E3040000 		.4byte	.LASF51
 1982 02bf 05       		.byte	0x5
 1983 02c0 AB       		.byte	0xab
 1984 02c1 A5020000 		.4byte	0x2a5
 1985 02c5 0C       		.uleb128 0xc
 1986 02c6 01       		.byte	0x1
 1987 02c7 05       		.byte	0x5
 1988 02c8 AF       		.byte	0xaf
 1989 02c9 DA020000 		.4byte	0x2da
 1990 02cd 0D       		.uleb128 0xd
 1991 02ce 9E040000 		.4byte	.LASF52
 1992 02d2 00       		.sleb128 0
 1993 02d3 0D       		.uleb128 0xd
 1994 02d4 15080000 		.4byte	.LASF53
 1995 02d8 01       		.sleb128 1
ARM GAS  /tmp/ccsQReYy.s 			page 36


 1996 02d9 00       		.byte	0
 1997 02da 03       		.uleb128 0x3
 1998 02db 2C020000 		.4byte	.LASF54
 1999 02df 05       		.byte	0x5
 2000 02e0 B2       		.byte	0xb2
 2001 02e1 C5020000 		.4byte	0x2c5
 2002 02e5 0F       		.uleb128 0xf
 2003 02e6 10       		.byte	0x10
 2004 02e7 06       		.byte	0x6
 2005 02e8 30       		.byte	0x30
 2006 02e9 1E030000 		.4byte	0x31e
 2007 02ed 10       		.uleb128 0x10
 2008 02ee 3E000000 		.4byte	.LASF55
 2009 02f2 06       		.byte	0x6
 2010 02f3 32       		.byte	0x32
 2011 02f4 B8000000 		.4byte	0xb8
 2012 02f8 00       		.byte	0
 2013 02f9 10       		.uleb128 0x10
 2014 02fa 6C020000 		.4byte	.LASF56
 2015 02fe 06       		.byte	0x6
 2016 02ff 33       		.byte	0x33
 2017 0300 B8000000 		.4byte	0xb8
 2018 0304 04       		.byte	0x4
 2019 0305 10       		.uleb128 0x10
 2020 0306 67060000 		.4byte	.LASF57
 2021 030a 06       		.byte	0x6
 2022 030b 34       		.byte	0x34
 2023 030c B8000000 		.4byte	0xb8
 2024 0310 08       		.byte	0x8
 2025 0311 10       		.uleb128 0x10
 2026 0312 36010000 		.4byte	.LASF58
 2027 0316 06       		.byte	0x6
 2028 0317 35       		.byte	0x35
 2029 0318 B8000000 		.4byte	0xb8
 2030 031c 0C       		.byte	0xc
 2031 031d 00       		.byte	0
 2032 031e 03       		.uleb128 0x3
 2033 031f 1D080000 		.4byte	.LASF59
 2034 0323 06       		.byte	0x6
 2035 0324 36       		.byte	0x36
 2036 0325 E5020000 		.4byte	0x2e5
 2037 0329 11       		.uleb128 0x11
 2038 032a 71050000 		.4byte	.LASF134
 2039 032e 01       		.byte	0x1
 2040 032f B10A     		.2byte	0xab1
 2041 0331 8F020000 		.4byte	0x28f
 2042 0335 01       		.byte	0x1
 2043 0336 6B030000 		.4byte	0x36b
 2044 033a 12       		.uleb128 0x12
 2045 033b E0010000 		.4byte	.LASF135
 2046 033f 01       		.byte	0x1
 2047 0340 B10A     		.2byte	0xab1
 2048 0342 97000000 		.4byte	0x97
 2049 0346 13       		.uleb128 0x13
 2050 0347 746D7000 		.ascii	"tmp\000"
 2051 034b 01       		.byte	0x1
 2052 034c B30A     		.2byte	0xab3
ARM GAS  /tmp/ccsQReYy.s 			page 37


 2053 034e B8000000 		.4byte	0xb8
 2054 0352 14       		.uleb128 0x14
 2055 0353 29000000 		.4byte	.LASF60
 2056 0357 01       		.byte	0x1
 2057 0358 B40A     		.2byte	0xab4
 2058 035a B8000000 		.4byte	0xb8
 2059 035e 14       		.uleb128 0x14
 2060 035f 62020000 		.4byte	.LASF61
 2061 0363 01       		.byte	0x1
 2062 0364 B50A     		.2byte	0xab5
 2063 0366 8F020000 		.4byte	0x28f
 2064 036a 00       		.byte	0
 2065 036b 15       		.uleb128 0x15
 2066 036c FF060000 		.4byte	.LASF125
 2067 0370 01       		.byte	0x1
 2068 0371 F5       		.byte	0xf5
 2069 0372 00000000 		.4byte	.LFB112
 2070 0376 34000000 		.4byte	.LFE112-.LFB112
 2071 037a 01       		.uleb128 0x1
 2072 037b 9C       		.byte	0x9c
 2073 037c 16       		.uleb128 0x16
 2074 037d 83050000 		.4byte	.LASF65
 2075 0381 01       		.byte	0x1
 2076 0382 2801     		.2byte	0x128
 2077 0384 00000000 		.4byte	.LFB113
 2078 0388 10000000 		.4byte	.LFE113-.LFB113
 2079 038c 01       		.uleb128 0x1
 2080 038d 9C       		.byte	0x9c
 2081 038e A1030000 		.4byte	0x3a1
 2082 0392 17       		.uleb128 0x17
 2083 0393 56060000 		.4byte	.LASF67
 2084 0397 01       		.byte	0x1
 2085 0398 2801     		.2byte	0x128
 2086 039a 97000000 		.4byte	0x97
 2087 039e 01       		.uleb128 0x1
 2088 039f 50       		.byte	0x50
 2089 03a0 00       		.byte	0
 2090 03a1 18       		.uleb128 0x18
 2091 03a2 4C020000 		.4byte	.LASF127
 2092 03a6 01       		.byte	0x1
 2093 03a7 4001     		.2byte	0x140
 2094 03a9 DA020000 		.4byte	0x2da
 2095 03ad 00000000 		.4byte	.LFB114
 2096 03b1 34000000 		.4byte	.LFE114-.LFB114
 2097 03b5 01       		.uleb128 0x1
 2098 03b6 9C       		.byte	0x9c
 2099 03b7 5D040000 		.4byte	0x45d
 2100 03bb 19       		.uleb128 0x19
 2101 03bc 3F070000 		.4byte	.LASF62
 2102 03c0 01       		.byte	0x1
 2103 03c1 4201     		.2byte	0x142
 2104 03c3 CA000000 		.4byte	0xca
 2105 03c7 02       		.uleb128 0x2
 2106 03c8 91       		.byte	0x91
 2107 03c9 7C       		.sleb128 -4
 2108 03ca 1A       		.uleb128 0x1a
 2109 03cb A5070000 		.4byte	.LASF63
ARM GAS  /tmp/ccsQReYy.s 			page 38


 2110 03cf 01       		.byte	0x1
 2111 03d0 4301     		.2byte	0x143
 2112 03d2 DA020000 		.4byte	0x2da
 2113 03d6 00000000 		.4byte	.LLST0
 2114 03da 1A       		.uleb128 0x1a
 2115 03db A6060000 		.4byte	.LASF64
 2116 03df 01       		.byte	0x1
 2117 03e0 4401     		.2byte	0x144
 2118 03e2 8F020000 		.4byte	0x28f
 2119 03e6 25000000 		.4byte	.LLST1
 2120 03ea 1B       		.uleb128 0x1b
 2121 03eb 29030000 		.4byte	0x329
 2122 03ef 04000000 		.4byte	.LBB6
 2123 03f3 00000000 		.4byte	.Ldebug_ranges0+0
 2124 03f7 01       		.byte	0x1
 2125 03f8 4801     		.2byte	0x148
 2126 03fa 23040000 		.4byte	0x423
 2127 03fe 1C       		.uleb128 0x1c
 2128 03ff 3A030000 		.4byte	0x33a
 2129 0403 31       		.byte	0x31
 2130 0404 1D       		.uleb128 0x1d
 2131 0405 00000000 		.4byte	.Ldebug_ranges0+0
 2132 0409 1E       		.uleb128 0x1e
 2133 040a 46030000 		.4byte	0x346
 2134 040e 39000000 		.4byte	.LLST2
 2135 0412 1E       		.uleb128 0x1e
 2136 0413 52030000 		.4byte	0x352
 2137 0417 65000000 		.4byte	.LLST3
 2138 041b 1F       		.uleb128 0x1f
 2139 041c 5E030000 		.4byte	0x35e
 2140 0420 00       		.byte	0
 2141 0421 00       		.byte	0
 2142 0422 00       		.byte	0
 2143 0423 20       		.uleb128 0x20
 2144 0424 29030000 		.4byte	0x329
 2145 0428 22000000 		.4byte	.LBB12
 2146 042c 04000000 		.4byte	.LBE12-.LBB12
 2147 0430 01       		.byte	0x1
 2148 0431 4C01     		.2byte	0x14c
 2149 0433 1C       		.uleb128 0x1c
 2150 0434 3A030000 		.4byte	0x33a
 2151 0438 31       		.byte	0x31
 2152 0439 21       		.uleb128 0x21
 2153 043a 22000000 		.4byte	.LBB13
 2154 043e 04000000 		.4byte	.LBE13-.LBB13
 2155 0442 1E       		.uleb128 0x1e
 2156 0443 46030000 		.4byte	0x346
 2157 0447 84000000 		.4byte	.LLST4
 2158 044b 1E       		.uleb128 0x1e
 2159 044c 52030000 		.4byte	0x352
 2160 0450 A4000000 		.4byte	.LLST5
 2161 0454 1F       		.uleb128 0x1f
 2162 0455 5E030000 		.4byte	0x35e
 2163 0459 00       		.byte	0
 2164 045a 00       		.byte	0
 2165 045b 00       		.byte	0
 2166 045c 00       		.byte	0
ARM GAS  /tmp/ccsQReYy.s 			page 39


 2167 045d 16       		.uleb128 0x16
 2168 045e 88060000 		.4byte	.LASF66
 2169 0462 01       		.byte	0x1
 2170 0463 5F01     		.2byte	0x15f
 2171 0465 00000000 		.4byte	.LFB115
 2172 0469 14000000 		.4byte	.LFE115-.LFB115
 2173 046d 01       		.uleb128 0x1
 2174 046e 9C       		.byte	0x9c
 2175 046f 94040000 		.4byte	0x494
 2176 0473 22       		.uleb128 0x22
 2177 0474 E9010000 		.4byte	.LASF68
 2178 0478 01       		.byte	0x1
 2179 0479 5F01     		.2byte	0x15f
 2180 047b 97000000 		.4byte	0x97
 2181 047f C3000000 		.4byte	.LLST6
 2182 0483 1A       		.uleb128 0x1a
 2183 0484 2F010000 		.4byte	.LASF69
 2184 0488 01       		.byte	0x1
 2185 0489 6101     		.2byte	0x161
 2186 048b B8000000 		.4byte	0xb8
 2187 048f E4000000 		.4byte	.LLST7
 2188 0493 00       		.byte	0
 2189 0494 16       		.uleb128 0x16
 2190 0495 34070000 		.4byte	.LASF70
 2191 0499 01       		.byte	0x1
 2192 049a 8301     		.2byte	0x183
 2193 049c 00000000 		.4byte	.LFB116
 2194 04a0 0C000000 		.4byte	.LFE116-.LFB116
 2195 04a4 01       		.uleb128 0x1
 2196 04a5 9C       		.byte	0x9c
 2197 04a6 B9040000 		.4byte	0x4b9
 2198 04aa 17       		.uleb128 0x17
 2199 04ab FD010000 		.4byte	.LASF71
 2200 04af 01       		.byte	0x1
 2201 04b0 8301     		.2byte	0x183
 2202 04b2 BA020000 		.4byte	0x2ba
 2203 04b6 01       		.uleb128 0x1
 2204 04b7 50       		.byte	0x50
 2205 04b8 00       		.byte	0
 2206 04b9 16       		.uleb128 0x16
 2207 04ba D2010000 		.4byte	.LASF72
 2208 04be 01       		.byte	0x1
 2209 04bf 9C01     		.2byte	0x19c
 2210 04c1 00000000 		.4byte	.LFB117
 2211 04c5 20000000 		.4byte	.LFE117-.LFB117
 2212 04c9 01       		.uleb128 0x1
 2213 04ca 9C       		.byte	0x9c
 2214 04cb DE040000 		.4byte	0x4de
 2215 04cf 17       		.uleb128 0x17
 2216 04d0 09000000 		.4byte	.LASF73
 2217 04d4 01       		.byte	0x1
 2218 04d5 9C01     		.2byte	0x19c
 2219 04d7 97000000 		.4byte	0x97
 2220 04db 01       		.uleb128 0x1
 2221 04dc 50       		.byte	0x50
 2222 04dd 00       		.byte	0
 2223 04de 16       		.uleb128 0x16
ARM GAS  /tmp/ccsQReYy.s 			page 40


 2224 04df 9A070000 		.4byte	.LASF74
 2225 04e3 01       		.byte	0x1
 2226 04e4 C401     		.2byte	0x1c4
 2227 04e6 00000000 		.4byte	.LFB118
 2228 04ea 0C000000 		.4byte	.LFE118-.LFB118
 2229 04ee 01       		.uleb128 0x1
 2230 04ef 9C       		.byte	0x9c
 2231 04f0 03050000 		.4byte	0x503
 2232 04f4 17       		.uleb128 0x17
 2233 04f5 FD010000 		.4byte	.LASF71
 2234 04f9 01       		.byte	0x1
 2235 04fa C401     		.2byte	0x1c4
 2236 04fc BA020000 		.4byte	0x2ba
 2237 0500 01       		.uleb128 0x1
 2238 0501 50       		.byte	0x50
 2239 0502 00       		.byte	0
 2240 0503 16       		.uleb128 0x16
 2241 0504 C5050000 		.4byte	.LASF75
 2242 0508 01       		.byte	0x1
 2243 0509 3F02     		.2byte	0x23f
 2244 050b 00000000 		.4byte	.LFB119
 2245 050f 0C000000 		.4byte	.LFE119-.LFB119
 2246 0513 01       		.uleb128 0x1
 2247 0514 9C       		.byte	0x9c
 2248 0515 28050000 		.4byte	0x528
 2249 0519 17       		.uleb128 0x17
 2250 051a FD010000 		.4byte	.LASF71
 2251 051e 01       		.byte	0x1
 2252 051f 3F02     		.2byte	0x23f
 2253 0521 BA020000 		.4byte	0x2ba
 2254 0525 01       		.uleb128 0x1
 2255 0526 50       		.byte	0x50
 2256 0527 00       		.byte	0
 2257 0528 16       		.uleb128 0x16
 2258 0529 F6030000 		.4byte	.LASF76
 2259 052d 01       		.byte	0x1
 2260 052e E802     		.2byte	0x2e8
 2261 0530 00000000 		.4byte	.LFB120
 2262 0534 0C000000 		.4byte	.LFE120-.LFB120
 2263 0538 01       		.uleb128 0x1
 2264 0539 9C       		.byte	0x9c
 2265 053a 4D050000 		.4byte	0x54d
 2266 053e 17       		.uleb128 0x17
 2267 053f FD010000 		.4byte	.LASF71
 2268 0543 01       		.byte	0x1
 2269 0544 E802     		.2byte	0x2e8
 2270 0546 BA020000 		.4byte	0x2ba
 2271 054a 01       		.uleb128 0x1
 2272 054b 50       		.byte	0x50
 2273 054c 00       		.byte	0
 2274 054d 16       		.uleb128 0x16
 2275 054e 1B000000 		.4byte	.LASF77
 2276 0552 01       		.byte	0x1
 2277 0553 6903     		.2byte	0x369
 2278 0555 00000000 		.4byte	.LFB121
 2279 0559 0C000000 		.4byte	.LFE121-.LFB121
 2280 055d 01       		.uleb128 0x1
ARM GAS  /tmp/ccsQReYy.s 			page 41


 2281 055e 9C       		.byte	0x9c
 2282 055f 72050000 		.4byte	0x572
 2283 0563 17       		.uleb128 0x17
 2284 0564 FD010000 		.4byte	.LASF71
 2285 0568 01       		.byte	0x1
 2286 0569 6903     		.2byte	0x369
 2287 056b BA020000 		.4byte	0x2ba
 2288 056f 01       		.uleb128 0x1
 2289 0570 50       		.byte	0x50
 2290 0571 00       		.byte	0
 2291 0572 16       		.uleb128 0x16
 2292 0573 A4040000 		.4byte	.LASF78
 2293 0577 01       		.byte	0x1
 2294 0578 7B03     		.2byte	0x37b
 2295 057a 00000000 		.4byte	.LFB122
 2296 057e 0C000000 		.4byte	.LFE122-.LFB122
 2297 0582 01       		.uleb128 0x1
 2298 0583 9C       		.byte	0x9c
 2299 0584 97050000 		.4byte	0x597
 2300 0588 17       		.uleb128 0x17
 2301 0589 FD010000 		.4byte	.LASF71
 2302 058d 01       		.byte	0x1
 2303 058e 7B03     		.2byte	0x37b
 2304 0590 BA020000 		.4byte	0x2ba
 2305 0594 01       		.uleb128 0x1
 2306 0595 50       		.byte	0x50
 2307 0596 00       		.byte	0
 2308 0597 16       		.uleb128 0x16
 2309 0598 B8020000 		.4byte	.LASF79
 2310 059c 01       		.byte	0x1
 2311 059d 9403     		.2byte	0x394
 2312 059f 00000000 		.4byte	.LFB123
 2313 05a3 14000000 		.4byte	.LFE123-.LFB123
 2314 05a7 01       		.uleb128 0x1
 2315 05a8 9C       		.byte	0x9c
 2316 05a9 DE050000 		.4byte	0x5de
 2317 05ad 22       		.uleb128 0x22
 2318 05ae 63000000 		.4byte	.LASF80
 2319 05b2 01       		.byte	0x1
 2320 05b3 9403     		.2byte	0x394
 2321 05b5 B8000000 		.4byte	0xb8
 2322 05b9 0E010000 		.4byte	.LLST8
 2323 05bd 22       		.uleb128 0x22
 2324 05be F3040000 		.4byte	.LASF81
 2325 05c2 01       		.byte	0x1
 2326 05c3 9403     		.2byte	0x394
 2327 05c5 B8000000 		.4byte	0xb8
 2328 05c9 2F010000 		.4byte	.LLST9
 2329 05cd 1A       		.uleb128 0x1a
 2330 05ce 2F010000 		.4byte	.LASF69
 2331 05d2 01       		.byte	0x1
 2332 05d3 9603     		.2byte	0x396
 2333 05d5 B8000000 		.4byte	0xb8
 2334 05d9 50010000 		.4byte	.LLST10
 2335 05dd 00       		.byte	0
 2336 05de 16       		.uleb128 0x16
 2337 05df 72070000 		.4byte	.LASF82
ARM GAS  /tmp/ccsQReYy.s 			page 42


 2338 05e3 01       		.byte	0x1
 2339 05e4 C103     		.2byte	0x3c1
 2340 05e6 00000000 		.4byte	.LFB124
 2341 05ea 14000000 		.4byte	.LFE124-.LFB124
 2342 05ee 01       		.uleb128 0x1
 2343 05ef 9C       		.byte	0x9c
 2344 05f0 25060000 		.4byte	0x625
 2345 05f4 22       		.uleb128 0x22
 2346 05f5 16050000 		.4byte	.LASF83
 2347 05f9 01       		.byte	0x1
 2348 05fa C103     		.2byte	0x3c1
 2349 05fc B8000000 		.4byte	0xb8
 2350 0600 8D010000 		.4byte	.LLST11
 2351 0604 22       		.uleb128 0x22
 2352 0605 7B040000 		.4byte	.LASF84
 2353 0609 01       		.byte	0x1
 2354 060a C103     		.2byte	0x3c1
 2355 060c B8000000 		.4byte	0xb8
 2356 0610 AE010000 		.4byte	.LLST12
 2357 0614 1A       		.uleb128 0x1a
 2358 0615 2F010000 		.4byte	.LASF69
 2359 0619 01       		.byte	0x1
 2360 061a C303     		.2byte	0x3c3
 2361 061c B8000000 		.4byte	0xb8
 2362 0620 CF010000 		.4byte	.LLST13
 2363 0624 00       		.byte	0
 2364 0625 16       		.uleb128 0x16
 2365 0626 B8010000 		.4byte	.LASF85
 2366 062a 01       		.byte	0x1
 2367 062b 8904     		.2byte	0x489
 2368 062d 00000000 		.4byte	.LFB125
 2369 0631 14000000 		.4byte	.LFE125-.LFB125
 2370 0635 01       		.uleb128 0x1
 2371 0636 9C       		.byte	0x9c
 2372 0637 5C060000 		.4byte	0x65c
 2373 063b 22       		.uleb128 0x22
 2374 063c 45060000 		.4byte	.LASF86
 2375 0640 01       		.byte	0x1
 2376 0641 8904     		.2byte	0x489
 2377 0643 B8000000 		.4byte	0xb8
 2378 0647 0C020000 		.4byte	.LLST14
 2379 064b 1A       		.uleb128 0x1a
 2380 064c 2F010000 		.4byte	.LASF69
 2381 0650 01       		.byte	0x1
 2382 0651 8B04     		.2byte	0x48b
 2383 0653 B8000000 		.4byte	0xb8
 2384 0657 2D020000 		.4byte	.LLST15
 2385 065b 00       		.byte	0
 2386 065c 23       		.uleb128 0x23
 2387 065d 38020000 		.4byte	.LASF136
 2388 0661 01       		.byte	0x1
 2389 0662 A604     		.2byte	0x4a6
 2390 0664 97000000 		.4byte	0x97
 2391 0668 00000000 		.4byte	.LFB126
 2392 066c 10000000 		.4byte	.LFE126-.LFB126
 2393 0670 01       		.uleb128 0x1
 2394 0671 9C       		.byte	0x9c
ARM GAS  /tmp/ccsQReYy.s 			page 43


 2395 0672 16       		.uleb128 0x16
 2396 0673 9B010000 		.4byte	.LASF87
 2397 0677 01       		.byte	0x1
 2398 0678 BF04     		.2byte	0x4bf
 2399 067a 00000000 		.4byte	.LFB127
 2400 067e 14000000 		.4byte	.LFE127-.LFB127
 2401 0682 01       		.uleb128 0x1
 2402 0683 9C       		.byte	0x9c
 2403 0684 A9060000 		.4byte	0x6a9
 2404 0688 22       		.uleb128 0x22
 2405 0689 EB030000 		.4byte	.LASF88
 2406 068d 01       		.byte	0x1
 2407 068e BF04     		.2byte	0x4bf
 2408 0690 B8000000 		.4byte	0xb8
 2409 0694 57020000 		.4byte	.LLST16
 2410 0698 1A       		.uleb128 0x1a
 2411 0699 2F010000 		.4byte	.LASF69
 2412 069d 01       		.byte	0x1
 2413 069e C104     		.2byte	0x4c1
 2414 06a0 B8000000 		.4byte	0xb8
 2415 06a4 78020000 		.4byte	.LLST17
 2416 06a8 00       		.byte	0
 2417 06a9 16       		.uleb128 0x16
 2418 06aa 6D010000 		.4byte	.LASF89
 2419 06ae 01       		.byte	0x1
 2420 06af DE04     		.2byte	0x4de
 2421 06b1 00000000 		.4byte	.LFB128
 2422 06b5 14000000 		.4byte	.LFE128-.LFB128
 2423 06b9 01       		.uleb128 0x1
 2424 06ba 9C       		.byte	0x9c
 2425 06bb E0060000 		.4byte	0x6e0
 2426 06bf 22       		.uleb128 0x22
 2427 06c0 00000000 		.4byte	.LASF90
 2428 06c4 01       		.byte	0x1
 2429 06c5 DE04     		.2byte	0x4de
 2430 06c7 B8000000 		.4byte	0xb8
 2431 06cb A2020000 		.4byte	.LLST18
 2432 06cf 1A       		.uleb128 0x1a
 2433 06d0 2F010000 		.4byte	.LASF69
 2434 06d4 01       		.byte	0x1
 2435 06d5 E004     		.2byte	0x4e0
 2436 06d7 B8000000 		.4byte	0xb8
 2437 06db C3020000 		.4byte	.LLST19
 2438 06df 00       		.byte	0
 2439 06e0 16       		.uleb128 0x16
 2440 06e1 35060000 		.4byte	.LASF91
 2441 06e5 01       		.byte	0x1
 2442 06e6 FD04     		.2byte	0x4fd
 2443 06e8 00000000 		.4byte	.LFB129
 2444 06ec 14000000 		.4byte	.LFE129-.LFB129
 2445 06f0 01       		.uleb128 0x1
 2446 06f1 9C       		.byte	0x9c
 2447 06f2 17070000 		.4byte	0x717
 2448 06f6 22       		.uleb128 0x22
 2449 06f7 00000000 		.4byte	.LASF90
 2450 06fb 01       		.byte	0x1
 2451 06fc FD04     		.2byte	0x4fd
ARM GAS  /tmp/ccsQReYy.s 			page 44


 2452 06fe B8000000 		.4byte	0xb8
 2453 0702 ED020000 		.4byte	.LLST20
 2454 0706 1A       		.uleb128 0x1a
 2455 0707 2F010000 		.4byte	.LASF69
 2456 070b 01       		.byte	0x1
 2457 070c FF04     		.2byte	0x4ff
 2458 070e B8000000 		.4byte	0xb8
 2459 0712 0E030000 		.4byte	.LLST21
 2460 0716 00       		.byte	0
 2461 0717 16       		.uleb128 0x16
 2462 0718 C2060000 		.4byte	.LASF92
 2463 071c 01       		.byte	0x1
 2464 071d 3105     		.2byte	0x531
 2465 071f 00000000 		.4byte	.LFB130
 2466 0723 98000000 		.4byte	.LFE130-.LFB130
 2467 0727 01       		.uleb128 0x1
 2468 0728 9C       		.byte	0x9c
 2469 0729 9C070000 		.4byte	0x79c
 2470 072d 17       		.uleb128 0x17
 2471 072e E4000000 		.4byte	.LASF93
 2472 0732 01       		.byte	0x1
 2473 0733 3105     		.2byte	0x531
 2474 0735 9C070000 		.4byte	0x79c
 2475 0739 01       		.uleb128 0x1
 2476 073a 50       		.byte	0x50
 2477 073b 24       		.uleb128 0x24
 2478 073c 746D7000 		.ascii	"tmp\000"
 2479 0740 01       		.byte	0x1
 2480 0741 3305     		.2byte	0x533
 2481 0743 B8000000 		.4byte	0xb8
 2482 0747 38030000 		.4byte	.LLST22
 2483 074b 1A       		.uleb128 0x1a
 2484 074c 10040000 		.4byte	.LASF94
 2485 0750 01       		.byte	0x1
 2486 0751 3305     		.2byte	0x533
 2487 0753 B8000000 		.4byte	0xb8
 2488 0757 CF030000 		.4byte	.LLST23
 2489 075b 1A       		.uleb128 0x1a
 2490 075c 93020000 		.4byte	.LASF95
 2491 0760 01       		.byte	0x1
 2492 0761 3305     		.2byte	0x533
 2493 0763 B8000000 		.4byte	0xb8
 2494 0767 10040000 		.4byte	.LLST24
 2495 076b 1A       		.uleb128 0x1a
 2496 076c 54000000 		.4byte	.LASF96
 2497 0770 01       		.byte	0x1
 2498 0771 3305     		.2byte	0x533
 2499 0773 B8000000 		.4byte	0xb8
 2500 0777 3B040000 		.4byte	.LLST25
 2501 077b 1A       		.uleb128 0x1a
 2502 077c 7F080000 		.4byte	.LASF97
 2503 0780 01       		.byte	0x1
 2504 0781 3305     		.2byte	0x533
 2505 0783 B8000000 		.4byte	0xb8
 2506 0787 72040000 		.4byte	.LLST26
 2507 078b 1A       		.uleb128 0x1a
 2508 078c 4F000000 		.4byte	.LASF98
ARM GAS  /tmp/ccsQReYy.s 			page 45


 2509 0790 01       		.byte	0x1
 2510 0791 3305     		.2byte	0x533
 2511 0793 B8000000 		.4byte	0xb8
 2512 0797 A5040000 		.4byte	.LLST27
 2513 079b 00       		.byte	0
 2514 079c 25       		.uleb128 0x25
 2515 079d 04       		.byte	0x4
 2516 079e 1E030000 		.4byte	0x31e
 2517 07a2 16       		.uleb128 0x16
 2518 07a3 A7020000 		.4byte	.LASF99
 2519 07a7 01       		.byte	0x1
 2520 07a8 CA05     		.2byte	0x5ca
 2521 07aa 00000000 		.4byte	.LFB131
 2522 07ae 30000000 		.4byte	.LFE131-.LFB131
 2523 07b2 01       		.uleb128 0x1
 2524 07b3 9C       		.byte	0x9c
 2525 07b4 D9070000 		.4byte	0x7d9
 2526 07b8 22       		.uleb128 0x22
 2527 07b9 16040000 		.4byte	.LASF100
 2528 07bd 01       		.byte	0x1
 2529 07be CA05     		.2byte	0x5ca
 2530 07c0 B8000000 		.4byte	0xb8
 2531 07c4 D0040000 		.4byte	.LLST28
 2532 07c8 1A       		.uleb128 0x1a
 2533 07c9 2F010000 		.4byte	.LASF69
 2534 07cd 01       		.byte	0x1
 2535 07ce CC05     		.2byte	0x5cc
 2536 07d0 B8000000 		.4byte	0xb8
 2537 07d4 F1040000 		.4byte	.LLST29
 2538 07d8 00       		.byte	0
 2539 07d9 16       		.uleb128 0x16
 2540 07da 87040000 		.4byte	.LASF101
 2541 07de 01       		.byte	0x1
 2542 07df EA05     		.2byte	0x5ea
 2543 07e1 00000000 		.4byte	.LFB132
 2544 07e5 0C000000 		.4byte	.LFE132-.LFB132
 2545 07e9 01       		.uleb128 0x1
 2546 07ea 9C       		.byte	0x9c
 2547 07eb FE070000 		.4byte	0x7fe
 2548 07ef 17       		.uleb128 0x17
 2549 07f0 FD010000 		.4byte	.LASF71
 2550 07f4 01       		.byte	0x1
 2551 07f5 EA05     		.2byte	0x5ea
 2552 07f7 BA020000 		.4byte	0x2ba
 2553 07fb 01       		.uleb128 0x1
 2554 07fc 50       		.byte	0x50
 2555 07fd 00       		.byte	0
 2556 07fe 16       		.uleb128 0x16
 2557 07ff 0E020000 		.4byte	.LASF102
 2558 0803 01       		.byte	0x1
 2559 0804 FB05     		.2byte	0x5fb
 2560 0806 00000000 		.4byte	.LFB133
 2561 080a 0C000000 		.4byte	.LFE133-.LFB133
 2562 080e 01       		.uleb128 0x1
 2563 080f 9C       		.byte	0x9c
 2564 0810 23080000 		.4byte	0x823
 2565 0814 17       		.uleb128 0x17
ARM GAS  /tmp/ccsQReYy.s 			page 46


 2566 0815 FD010000 		.4byte	.LASF71
 2567 0819 01       		.byte	0x1
 2568 081a FB05     		.2byte	0x5fb
 2569 081c BA020000 		.4byte	0x2ba
 2570 0820 01       		.uleb128 0x1
 2571 0821 50       		.byte	0x50
 2572 0822 00       		.byte	0
 2573 0823 16       		.uleb128 0x16
 2574 0824 5D070000 		.4byte	.LASF103
 2575 0828 01       		.byte	0x1
 2576 0829 DB06     		.2byte	0x6db
 2577 082b 00000000 		.4byte	.LFB134
 2578 082f 0C000000 		.4byte	.LFE134-.LFB134
 2579 0833 01       		.uleb128 0x1
 2580 0834 9C       		.byte	0x9c
 2581 0835 48080000 		.4byte	0x848
 2582 0839 17       		.uleb128 0x17
 2583 083a B1050000 		.4byte	.LASF104
 2584 083e 01       		.byte	0x1
 2585 083f DB06     		.2byte	0x6db
 2586 0841 B8000000 		.4byte	0xb8
 2587 0845 01       		.uleb128 0x1
 2588 0846 50       		.byte	0x50
 2589 0847 00       		.byte	0
 2590 0848 16       		.uleb128 0x16
 2591 0849 D0050000 		.4byte	.LASF105
 2592 084d 01       		.byte	0x1
 2593 084e 0507     		.2byte	0x705
 2594 0850 00000000 		.4byte	.LFB135
 2595 0854 18000000 		.4byte	.LFE135-.LFB135
 2596 0858 01       		.uleb128 0x1
 2597 0859 9C       		.byte	0x9c
 2598 085a 7D080000 		.4byte	0x87d
 2599 085e 22       		.uleb128 0x22
 2600 085f CB000000 		.4byte	.LASF106
 2601 0863 01       		.byte	0x1
 2602 0864 0507     		.2byte	0x705
 2603 0866 B8000000 		.4byte	0xb8
 2604 086a 10050000 		.4byte	.LLST30
 2605 086e 17       		.uleb128 0x17
 2606 086f FD010000 		.4byte	.LASF71
 2607 0873 01       		.byte	0x1
 2608 0874 0507     		.2byte	0x705
 2609 0876 BA020000 		.4byte	0x2ba
 2610 087a 01       		.uleb128 0x1
 2611 087b 51       		.byte	0x51
 2612 087c 00       		.byte	0
 2613 087d 16       		.uleb128 0x16
 2614 087e 46010000 		.4byte	.LASF107
 2615 0882 01       		.byte	0x1
 2616 0883 2507     		.2byte	0x725
 2617 0885 00000000 		.4byte	.LFB136
 2618 0889 18000000 		.4byte	.LFE136-.LFB136
 2619 088d 01       		.uleb128 0x1
 2620 088e 9C       		.byte	0x9c
 2621 088f B2080000 		.4byte	0x8b2
 2622 0893 22       		.uleb128 0x22
ARM GAS  /tmp/ccsQReYy.s 			page 47


 2623 0894 62040000 		.4byte	.LASF108
 2624 0898 01       		.byte	0x1
 2625 0899 2507     		.2byte	0x725
 2626 089b B8000000 		.4byte	0xb8
 2627 089f 4A050000 		.4byte	.LLST31
 2628 08a3 17       		.uleb128 0x17
 2629 08a4 FD010000 		.4byte	.LASF71
 2630 08a8 01       		.byte	0x1
 2631 08a9 2507     		.2byte	0x725
 2632 08ab BA020000 		.4byte	0x2ba
 2633 08af 01       		.uleb128 0x1
 2634 08b0 51       		.byte	0x51
 2635 08b1 00       		.byte	0
 2636 08b2 16       		.uleb128 0x16
 2637 08b3 B1070000 		.4byte	.LASF109
 2638 08b7 01       		.byte	0x1
 2639 08b8 7C07     		.2byte	0x77c
 2640 08ba 00000000 		.4byte	.LFB137
 2641 08be 18000000 		.4byte	.LFE137-.LFB137
 2642 08c2 01       		.uleb128 0x1
 2643 08c3 9C       		.byte	0x9c
 2644 08c4 E7080000 		.4byte	0x8e7
 2645 08c8 22       		.uleb128 0x22
 2646 08c9 84020000 		.4byte	.LASF110
 2647 08cd 01       		.byte	0x1
 2648 08ce 7C07     		.2byte	0x77c
 2649 08d0 B8000000 		.4byte	0xb8
 2650 08d4 84050000 		.4byte	.LLST32
 2651 08d8 17       		.uleb128 0x17
 2652 08d9 FD010000 		.4byte	.LASF71
 2653 08dd 01       		.byte	0x1
 2654 08de 7C07     		.2byte	0x77c
 2655 08e0 BA020000 		.4byte	0x2ba
 2656 08e4 01       		.uleb128 0x1
 2657 08e5 51       		.byte	0x51
 2658 08e6 00       		.byte	0
 2659 08e7 16       		.uleb128 0x16
 2660 08e8 D4060000 		.4byte	.LASF111
 2661 08ec 01       		.byte	0x1
 2662 08ed AB07     		.2byte	0x7ab
 2663 08ef 00000000 		.4byte	.LFB138
 2664 08f3 18000000 		.4byte	.LFE138-.LFB138
 2665 08f7 01       		.uleb128 0x1
 2666 08f8 9C       		.byte	0x9c
 2667 08f9 1C090000 		.4byte	0x91c
 2668 08fd 22       		.uleb128 0x22
 2669 08fe 4E070000 		.4byte	.LASF112
 2670 0902 01       		.byte	0x1
 2671 0903 AB07     		.2byte	0x7ab
 2672 0905 B8000000 		.4byte	0xb8
 2673 0909 BE050000 		.4byte	.LLST33
 2674 090d 17       		.uleb128 0x17
 2675 090e FD010000 		.4byte	.LASF71
 2676 0912 01       		.byte	0x1
 2677 0913 AB07     		.2byte	0x7ab
 2678 0915 BA020000 		.4byte	0x2ba
 2679 0919 01       		.uleb128 0x1
ARM GAS  /tmp/ccsQReYy.s 			page 48


 2680 091a 51       		.byte	0x51
 2681 091b 00       		.byte	0
 2682 091c 16       		.uleb128 0x16
 2683 091d 84010000 		.4byte	.LASF113
 2684 0921 01       		.byte	0x1
 2685 0922 D607     		.2byte	0x7d6
 2686 0924 00000000 		.4byte	.LFB139
 2687 0928 18000000 		.4byte	.LFE139-.LFB139
 2688 092c 01       		.uleb128 0x1
 2689 092d 9C       		.byte	0x9c
 2690 092e 51090000 		.4byte	0x951
 2691 0932 22       		.uleb128 0x22
 2692 0933 CB000000 		.4byte	.LASF106
 2693 0937 01       		.byte	0x1
 2694 0938 D607     		.2byte	0x7d6
 2695 093a B8000000 		.4byte	0xb8
 2696 093e F8050000 		.4byte	.LLST34
 2697 0942 17       		.uleb128 0x17
 2698 0943 FD010000 		.4byte	.LASF71
 2699 0947 01       		.byte	0x1
 2700 0948 D607     		.2byte	0x7d6
 2701 094a BA020000 		.4byte	0x2ba
 2702 094e 01       		.uleb128 0x1
 2703 094f 51       		.byte	0x51
 2704 0950 00       		.byte	0
 2705 0951 16       		.uleb128 0x16
 2706 0952 01060000 		.4byte	.LASF114
 2707 0956 01       		.byte	0x1
 2708 0957 F307     		.2byte	0x7f3
 2709 0959 00000000 		.4byte	.LFB140
 2710 095d 18000000 		.4byte	.LFE140-.LFB140
 2711 0961 01       		.uleb128 0x1
 2712 0962 9C       		.byte	0x9c
 2713 0963 86090000 		.4byte	0x986
 2714 0967 22       		.uleb128 0x22
 2715 0968 62040000 		.4byte	.LASF108
 2716 096c 01       		.byte	0x1
 2717 096d F307     		.2byte	0x7f3
 2718 096f B8000000 		.4byte	0xb8
 2719 0973 32060000 		.4byte	.LLST35
 2720 0977 17       		.uleb128 0x17
 2721 0978 FD010000 		.4byte	.LASF71
 2722 097c 01       		.byte	0x1
 2723 097d F307     		.2byte	0x7f3
 2724 097f BA020000 		.4byte	0x2ba
 2725 0983 01       		.uleb128 0x1
 2726 0984 51       		.byte	0x51
 2727 0985 00       		.byte	0
 2728 0986 16       		.uleb128 0x16
 2729 0987 72000000 		.4byte	.LASF115
 2730 098b 01       		.byte	0x1
 2731 098c 4408     		.2byte	0x844
 2732 098e 00000000 		.4byte	.LFB141
 2733 0992 18000000 		.4byte	.LFE141-.LFB141
 2734 0996 01       		.uleb128 0x1
 2735 0997 9C       		.byte	0x9c
 2736 0998 BB090000 		.4byte	0x9bb
ARM GAS  /tmp/ccsQReYy.s 			page 49


 2737 099c 22       		.uleb128 0x22
 2738 099d 84020000 		.4byte	.LASF110
 2739 09a1 01       		.byte	0x1
 2740 09a2 4408     		.2byte	0x844
 2741 09a4 B8000000 		.4byte	0xb8
 2742 09a8 6C060000 		.4byte	.LLST36
 2743 09ac 17       		.uleb128 0x17
 2744 09ad FD010000 		.4byte	.LASF71
 2745 09b1 01       		.byte	0x1
 2746 09b2 4408     		.2byte	0x844
 2747 09b4 BA020000 		.4byte	0x2ba
 2748 09b8 01       		.uleb128 0x1
 2749 09b9 51       		.byte	0x51
 2750 09ba 00       		.byte	0
 2751 09bb 16       		.uleb128 0x16
 2752 09bc FF040000 		.4byte	.LASF116
 2753 09c0 01       		.byte	0x1
 2754 09c1 6F08     		.2byte	0x86f
 2755 09c3 00000000 		.4byte	.LFB142
 2756 09c7 18000000 		.4byte	.LFE142-.LFB142
 2757 09cb 01       		.uleb128 0x1
 2758 09cc 9C       		.byte	0x9c
 2759 09cd F0090000 		.4byte	0x9f0
 2760 09d1 22       		.uleb128 0x22
 2761 09d2 4E070000 		.4byte	.LASF112
 2762 09d6 01       		.byte	0x1
 2763 09d7 6F08     		.2byte	0x86f
 2764 09d9 B8000000 		.4byte	0xb8
 2765 09dd A6060000 		.4byte	.LLST37
 2766 09e1 17       		.uleb128 0x17
 2767 09e2 FD010000 		.4byte	.LASF71
 2768 09e6 01       		.byte	0x1
 2769 09e7 6F08     		.2byte	0x86f
 2770 09e9 BA020000 		.4byte	0x2ba
 2771 09ed 01       		.uleb128 0x1
 2772 09ee 51       		.byte	0x51
 2773 09ef 00       		.byte	0
 2774 09f0 16       		.uleb128 0x16
 2775 09f1 89080000 		.4byte	.LASF117
 2776 09f5 01       		.byte	0x1
 2777 09f6 A008     		.2byte	0x8a0
 2778 09f8 00000000 		.4byte	.LFB143
 2779 09fc 18000000 		.4byte	.LFE143-.LFB143
 2780 0a00 01       		.uleb128 0x1
 2781 0a01 9C       		.byte	0x9c
 2782 0a02 250A0000 		.4byte	0xa25
 2783 0a06 22       		.uleb128 0x22
 2784 0a07 CB000000 		.4byte	.LASF106
 2785 0a0b 01       		.byte	0x1
 2786 0a0c A008     		.2byte	0x8a0
 2787 0a0e B8000000 		.4byte	0xb8
 2788 0a12 E0060000 		.4byte	.LLST38
 2789 0a16 17       		.uleb128 0x17
 2790 0a17 FD010000 		.4byte	.LASF71
 2791 0a1b 01       		.byte	0x1
 2792 0a1c A008     		.2byte	0x8a0
 2793 0a1e BA020000 		.4byte	0x2ba
ARM GAS  /tmp/ccsQReYy.s 			page 50


 2794 0a22 01       		.uleb128 0x1
 2795 0a23 51       		.byte	0x51
 2796 0a24 00       		.byte	0
 2797 0a25 16       		.uleb128 0x16
 2798 0a26 45040000 		.4byte	.LASF118
 2799 0a2a 01       		.byte	0x1
 2800 0a2b C008     		.2byte	0x8c0
 2801 0a2d 00000000 		.4byte	.LFB144
 2802 0a31 18000000 		.4byte	.LFE144-.LFB144
 2803 0a35 01       		.uleb128 0x1
 2804 0a36 9C       		.byte	0x9c
 2805 0a37 5A0A0000 		.4byte	0xa5a
 2806 0a3b 22       		.uleb128 0x22
 2807 0a3c 62040000 		.4byte	.LASF108
 2808 0a40 01       		.byte	0x1
 2809 0a41 C008     		.2byte	0x8c0
 2810 0a43 B8000000 		.4byte	0xb8
 2811 0a47 1A070000 		.4byte	.LLST39
 2812 0a4b 17       		.uleb128 0x17
 2813 0a4c FD010000 		.4byte	.LASF71
 2814 0a50 01       		.byte	0x1
 2815 0a51 C008     		.2byte	0x8c0
 2816 0a53 BA020000 		.4byte	0x2ba
 2817 0a57 01       		.uleb128 0x1
 2818 0a58 51       		.byte	0x51
 2819 0a59 00       		.byte	0
 2820 0a5a 16       		.uleb128 0x16
 2821 0a5b 18060000 		.4byte	.LASF119
 2822 0a5f 01       		.byte	0x1
 2823 0a60 1709     		.2byte	0x917
 2824 0a62 00000000 		.4byte	.LFB145
 2825 0a66 18000000 		.4byte	.LFE145-.LFB145
 2826 0a6a 01       		.uleb128 0x1
 2827 0a6b 9C       		.byte	0x9c
 2828 0a6c 8F0A0000 		.4byte	0xa8f
 2829 0a70 22       		.uleb128 0x22
 2830 0a71 84020000 		.4byte	.LASF110
 2831 0a75 01       		.byte	0x1
 2832 0a76 1709     		.2byte	0x917
 2833 0a78 B8000000 		.4byte	0xb8
 2834 0a7c 54070000 		.4byte	.LLST40
 2835 0a80 17       		.uleb128 0x17
 2836 0a81 FD010000 		.4byte	.LASF71
 2837 0a85 01       		.byte	0x1
 2838 0a86 1709     		.2byte	0x917
 2839 0a88 BA020000 		.4byte	0x2ba
 2840 0a8c 01       		.uleb128 0x1
 2841 0a8d 51       		.byte	0x51
 2842 0a8e 00       		.byte	0
 2843 0a8f 16       		.uleb128 0x16
 2844 0a90 EF000000 		.4byte	.LASF120
 2845 0a94 01       		.byte	0x1
 2846 0a95 4609     		.2byte	0x946
 2847 0a97 00000000 		.4byte	.LFB146
 2848 0a9b 18000000 		.4byte	.LFE146-.LFB146
 2849 0a9f 01       		.uleb128 0x1
 2850 0aa0 9C       		.byte	0x9c
ARM GAS  /tmp/ccsQReYy.s 			page 51


 2851 0aa1 C40A0000 		.4byte	0xac4
 2852 0aa5 22       		.uleb128 0x22
 2853 0aa6 4E070000 		.4byte	.LASF112
 2854 0aaa 01       		.byte	0x1
 2855 0aab 4609     		.2byte	0x946
 2856 0aad B8000000 		.4byte	0xb8
 2857 0ab1 8E070000 		.4byte	.LLST41
 2858 0ab5 17       		.uleb128 0x17
 2859 0ab6 FD010000 		.4byte	.LASF71
 2860 0aba 01       		.byte	0x1
 2861 0abb 4609     		.2byte	0x946
 2862 0abd BA020000 		.4byte	0x2ba
 2863 0ac1 01       		.uleb128 0x1
 2864 0ac2 51       		.byte	0x51
 2865 0ac3 00       		.byte	0
 2866 0ac4 16       		.uleb128 0x16
 2867 0ac5 C7040000 		.4byte	.LASF121
 2868 0ac9 01       		.byte	0x1
 2869 0aca 5E09     		.2byte	0x95e
 2870 0acc 00000000 		.4byte	.LFB147
 2871 0ad0 18000000 		.4byte	.LFE147-.LFB147
 2872 0ad4 01       		.uleb128 0x1
 2873 0ad5 9C       		.byte	0x9c
 2874 0ad6 E90A0000 		.4byte	0xae9
 2875 0ada 17       		.uleb128 0x17
 2876 0adb F8050000 		.4byte	.LASF122
 2877 0adf 01       		.byte	0x1
 2878 0ae0 5E09     		.2byte	0x95e
 2879 0ae2 97000000 		.4byte	0x97
 2880 0ae6 01       		.uleb128 0x1
 2881 0ae7 50       		.byte	0x50
 2882 0ae8 00       		.byte	0
 2883 0ae9 16       		.uleb128 0x16
 2884 0aea C8070000 		.4byte	.LASF123
 2885 0aee 01       		.byte	0x1
 2886 0aef 8C0A     		.2byte	0xa8c
 2887 0af1 00000000 		.4byte	.LFB148
 2888 0af5 18000000 		.4byte	.LFE148-.LFB148
 2889 0af9 01       		.uleb128 0x1
 2890 0afa 9C       		.byte	0x9c
 2891 0afb 1E0B0000 		.4byte	0xb1e
 2892 0aff 22       		.uleb128 0x22
 2893 0b00 7D010000 		.4byte	.LASF124
 2894 0b04 01       		.byte	0x1
 2895 0b05 8C0A     		.2byte	0xa8c
 2896 0b07 97000000 		.4byte	0x97
 2897 0b0b C8070000 		.4byte	.LLST42
 2898 0b0f 17       		.uleb128 0x17
 2899 0b10 FD010000 		.4byte	.LASF71
 2900 0b14 01       		.byte	0x1
 2901 0b15 8C0A     		.2byte	0xa8c
 2902 0b17 BA020000 		.4byte	0x2ba
 2903 0b1b 01       		.uleb128 0x1
 2904 0b1c 51       		.byte	0x51
 2905 0b1d 00       		.byte	0
 2906 0b1e 26       		.uleb128 0x26
 2907 0b1f 29030000 		.4byte	0x329
ARM GAS  /tmp/ccsQReYy.s 			page 52


 2908 0b23 00000000 		.4byte	.LFB149
 2909 0b27 34000000 		.4byte	.LFE149-.LFB149
 2910 0b2b 01       		.uleb128 0x1
 2911 0b2c 9C       		.byte	0x9c
 2912 0b2d 560B0000 		.4byte	0xb56
 2913 0b31 27       		.uleb128 0x27
 2914 0b32 3A030000 		.4byte	0x33a
 2915 0b36 02080000 		.4byte	.LLST43
 2916 0b3a 1E       		.uleb128 0x1e
 2917 0b3b 46030000 		.4byte	0x346
 2918 0b3f 3C080000 		.4byte	.LLST44
 2919 0b43 1E       		.uleb128 0x1e
 2920 0b44 52030000 		.4byte	0x352
 2921 0b48 DE080000 		.4byte	.LLST45
 2922 0b4c 1E       		.uleb128 0x1e
 2923 0b4d 5E030000 		.4byte	0x35e
 2924 0b51 14090000 		.4byte	.LLST46
 2925 0b55 00       		.byte	0
 2926 0b56 28       		.uleb128 0x28
 2927 0b57 0C010000 		.4byte	.LASF126
 2928 0b5b 01       		.byte	0x1
 2929 0b5c DE0A     		.2byte	0xade
 2930 0b5e 00000000 		.4byte	.LFB150
 2931 0b62 10000000 		.4byte	.LFE150-.LFB150
 2932 0b66 01       		.uleb128 0x1
 2933 0b67 9C       		.byte	0x9c
 2934 0b68 18       		.uleb128 0x18
 2935 0b69 14070000 		.4byte	.LASF128
 2936 0b6d 01       		.byte	0x1
 2937 0b6e F20A     		.2byte	0xaf2
 2938 0b70 9A020000 		.4byte	0x29a
 2939 0b74 00000000 		.4byte	.LFB151
 2940 0b78 14000000 		.4byte	.LFE151-.LFB151
 2941 0b7c 01       		.uleb128 0x1
 2942 0b7d 9C       		.byte	0x9c
 2943 0b7e A30B0000 		.4byte	0xba3
 2944 0b82 22       		.uleb128 0x22
 2945 0b83 7D010000 		.4byte	.LASF124
 2946 0b87 01       		.byte	0x1
 2947 0b88 F20A     		.2byte	0xaf2
 2948 0b8a 97000000 		.4byte	0x97
 2949 0b8e 92090000 		.4byte	.LLST47
 2950 0b92 1A       		.uleb128 0x1a
 2951 0b93 62020000 		.4byte	.LASF61
 2952 0b97 01       		.byte	0x1
 2953 0b98 F40A     		.2byte	0xaf4
 2954 0b9a 9A020000 		.4byte	0x29a
 2955 0b9e B3090000 		.4byte	.LLST48
 2956 0ba2 00       		.byte	0
 2957 0ba3 16       		.uleb128 0x16
 2958 0ba4 91000000 		.4byte	.LASF129
 2959 0ba8 01       		.byte	0x1
 2960 0ba9 140B     		.2byte	0xb14
 2961 0bab 00000000 		.4byte	.LFB152
 2962 0baf 0C000000 		.4byte	.LFE152-.LFB152
 2963 0bb3 01       		.uleb128 0x1
 2964 0bb4 9C       		.byte	0x9c
ARM GAS  /tmp/ccsQReYy.s 			page 53


 2965 0bb5 C80B0000 		.4byte	0xbc8
 2966 0bb9 17       		.uleb128 0x17
 2967 0bba 7D010000 		.4byte	.LASF124
 2968 0bbe 01       		.byte	0x1
 2969 0bbf 140B     		.2byte	0xb14
 2970 0bc1 97000000 		.4byte	0x97
 2971 0bc5 01       		.uleb128 0x1
 2972 0bc6 50       		.byte	0x50
 2973 0bc7 00       		.byte	0
 2974 0bc8 06       		.uleb128 0x6
 2975 0bc9 97000000 		.4byte	0x97
 2976 0bcd D80B0000 		.4byte	0xbd8
 2977 0bd1 07       		.uleb128 0x7
 2978 0bd2 C3000000 		.4byte	0xc3
 2979 0bd6 0F       		.byte	0xf
 2980 0bd7 00       		.byte	0
 2981 0bd8 29       		.uleb128 0x29
 2982 0bd9 77060000 		.4byte	.LASF130
 2983 0bdd 01       		.byte	0x1
 2984 0bde AD       		.byte	0xad
 2985 0bdf E90B0000 		.4byte	0xbe9
 2986 0be3 05       		.uleb128 0x5
 2987 0be4 03       		.byte	0x3
 2988 0be5 00000000 		.4byte	APBAHBPrescTable
 2989 0be9 2A       		.uleb128 0x2a
 2990 0bea EE0B0000 		.4byte	0xbee
 2991 0bee 05       		.uleb128 0x5
 2992 0bef C80B0000 		.4byte	0xbc8
 2993 0bf3 2B       		.uleb128 0x2b
 2994 0bf4 BE000000 		.4byte	.LASF137
 2995 0bf8 07       		.byte	0x7
 2996 0bf9 A706     		.2byte	0x6a7
 2997 0bfb FF0B0000 		.4byte	0xbff
 2998 0bff 05       		.uleb128 0x5
 2999 0c00 AD000000 		.4byte	0xad
 3000 0c04 00       		.byte	0
 3001              		.section	.debug_abbrev,"",%progbits
 3002              	.Ldebug_abbrev0:
 3003 0000 01       		.uleb128 0x1
 3004 0001 11       		.uleb128 0x11
 3005 0002 01       		.byte	0x1
 3006 0003 25       		.uleb128 0x25
 3007 0004 0E       		.uleb128 0xe
 3008 0005 13       		.uleb128 0x13
 3009 0006 0B       		.uleb128 0xb
 3010 0007 03       		.uleb128 0x3
 3011 0008 0E       		.uleb128 0xe
 3012 0009 1B       		.uleb128 0x1b
 3013 000a 0E       		.uleb128 0xe
 3014 000b 55       		.uleb128 0x55
 3015 000c 17       		.uleb128 0x17
 3016 000d 11       		.uleb128 0x11
 3017 000e 01       		.uleb128 0x1
 3018 000f 10       		.uleb128 0x10
 3019 0010 17       		.uleb128 0x17
 3020 0011 00       		.byte	0
 3021 0012 00       		.byte	0
ARM GAS  /tmp/ccsQReYy.s 			page 54


 3022 0013 02       		.uleb128 0x2
 3023 0014 24       		.uleb128 0x24
 3024 0015 00       		.byte	0
 3025 0016 0B       		.uleb128 0xb
 3026 0017 0B       		.uleb128 0xb
 3027 0018 3E       		.uleb128 0x3e
 3028 0019 0B       		.uleb128 0xb
 3029 001a 03       		.uleb128 0x3
 3030 001b 0E       		.uleb128 0xe
 3031 001c 00       		.byte	0
 3032 001d 00       		.byte	0
 3033 001e 03       		.uleb128 0x3
 3034 001f 16       		.uleb128 0x16
 3035 0020 00       		.byte	0
 3036 0021 03       		.uleb128 0x3
 3037 0022 0E       		.uleb128 0xe
 3038 0023 3A       		.uleb128 0x3a
 3039 0024 0B       		.uleb128 0xb
 3040 0025 3B       		.uleb128 0x3b
 3041 0026 0B       		.uleb128 0xb
 3042 0027 49       		.uleb128 0x49
 3043 0028 13       		.uleb128 0x13
 3044 0029 00       		.byte	0
 3045 002a 00       		.byte	0
 3046 002b 04       		.uleb128 0x4
 3047 002c 24       		.uleb128 0x24
 3048 002d 00       		.byte	0
 3049 002e 0B       		.uleb128 0xb
 3050 002f 0B       		.uleb128 0xb
 3051 0030 3E       		.uleb128 0x3e
 3052 0031 0B       		.uleb128 0xb
 3053 0032 03       		.uleb128 0x3
 3054 0033 08       		.uleb128 0x8
 3055 0034 00       		.byte	0
 3056 0035 00       		.byte	0
 3057 0036 05       		.uleb128 0x5
 3058 0037 35       		.uleb128 0x35
 3059 0038 00       		.byte	0
 3060 0039 49       		.uleb128 0x49
 3061 003a 13       		.uleb128 0x13
 3062 003b 00       		.byte	0
 3063 003c 00       		.byte	0
 3064 003d 06       		.uleb128 0x6
 3065 003e 01       		.uleb128 0x1
 3066 003f 01       		.byte	0x1
 3067 0040 49       		.uleb128 0x49
 3068 0041 13       		.uleb128 0x13
 3069 0042 01       		.uleb128 0x1
 3070 0043 13       		.uleb128 0x13
 3071 0044 00       		.byte	0
 3072 0045 00       		.byte	0
 3073 0046 07       		.uleb128 0x7
 3074 0047 21       		.uleb128 0x21
 3075 0048 00       		.byte	0
 3076 0049 49       		.uleb128 0x49
 3077 004a 13       		.uleb128 0x13
 3078 004b 2F       		.uleb128 0x2f
ARM GAS  /tmp/ccsQReYy.s 			page 55


 3079 004c 0B       		.uleb128 0xb
 3080 004d 00       		.byte	0
 3081 004e 00       		.byte	0
 3082 004f 08       		.uleb128 0x8
 3083 0050 13       		.uleb128 0x13
 3084 0051 01       		.byte	0x1
 3085 0052 0B       		.uleb128 0xb
 3086 0053 0B       		.uleb128 0xb
 3087 0054 3A       		.uleb128 0x3a
 3088 0055 0B       		.uleb128 0xb
 3089 0056 3B       		.uleb128 0x3b
 3090 0057 05       		.uleb128 0x5
 3091 0058 01       		.uleb128 0x1
 3092 0059 13       		.uleb128 0x13
 3093 005a 00       		.byte	0
 3094 005b 00       		.byte	0
 3095 005c 09       		.uleb128 0x9
 3096 005d 0D       		.uleb128 0xd
 3097 005e 00       		.byte	0
 3098 005f 03       		.uleb128 0x3
 3099 0060 08       		.uleb128 0x8
 3100 0061 3A       		.uleb128 0x3a
 3101 0062 0B       		.uleb128 0xb
 3102 0063 3B       		.uleb128 0x3b
 3103 0064 05       		.uleb128 0x5
 3104 0065 49       		.uleb128 0x49
 3105 0066 13       		.uleb128 0x13
 3106 0067 38       		.uleb128 0x38
 3107 0068 0B       		.uleb128 0xb
 3108 0069 00       		.byte	0
 3109 006a 00       		.byte	0
 3110 006b 0A       		.uleb128 0xa
 3111 006c 0D       		.uleb128 0xd
 3112 006d 00       		.byte	0
 3113 006e 03       		.uleb128 0x3
 3114 006f 0E       		.uleb128 0xe
 3115 0070 3A       		.uleb128 0x3a
 3116 0071 0B       		.uleb128 0xb
 3117 0072 3B       		.uleb128 0x3b
 3118 0073 05       		.uleb128 0x5
 3119 0074 49       		.uleb128 0x49
 3120 0075 13       		.uleb128 0x13
 3121 0076 38       		.uleb128 0x38
 3122 0077 0B       		.uleb128 0xb
 3123 0078 00       		.byte	0
 3124 0079 00       		.byte	0
 3125 007a 0B       		.uleb128 0xb
 3126 007b 16       		.uleb128 0x16
 3127 007c 00       		.byte	0
 3128 007d 03       		.uleb128 0x3
 3129 007e 0E       		.uleb128 0xe
 3130 007f 3A       		.uleb128 0x3a
 3131 0080 0B       		.uleb128 0xb
 3132 0081 3B       		.uleb128 0x3b
 3133 0082 05       		.uleb128 0x5
 3134 0083 49       		.uleb128 0x49
 3135 0084 13       		.uleb128 0x13
ARM GAS  /tmp/ccsQReYy.s 			page 56


 3136 0085 00       		.byte	0
 3137 0086 00       		.byte	0
 3138 0087 0C       		.uleb128 0xc
 3139 0088 04       		.uleb128 0x4
 3140 0089 01       		.byte	0x1
 3141 008a 0B       		.uleb128 0xb
 3142 008b 0B       		.uleb128 0xb
 3143 008c 3A       		.uleb128 0x3a
 3144 008d 0B       		.uleb128 0xb
 3145 008e 3B       		.uleb128 0x3b
 3146 008f 0B       		.uleb128 0xb
 3147 0090 01       		.uleb128 0x1
 3148 0091 13       		.uleb128 0x13
 3149 0092 00       		.byte	0
 3150 0093 00       		.byte	0
 3151 0094 0D       		.uleb128 0xd
 3152 0095 28       		.uleb128 0x28
 3153 0096 00       		.byte	0
 3154 0097 03       		.uleb128 0x3
 3155 0098 0E       		.uleb128 0xe
 3156 0099 1C       		.uleb128 0x1c
 3157 009a 0D       		.uleb128 0xd
 3158 009b 00       		.byte	0
 3159 009c 00       		.byte	0
 3160 009d 0E       		.uleb128 0xe
 3161 009e 28       		.uleb128 0x28
 3162 009f 00       		.byte	0
 3163 00a0 03       		.uleb128 0x3
 3164 00a1 08       		.uleb128 0x8
 3165 00a2 1C       		.uleb128 0x1c
 3166 00a3 0D       		.uleb128 0xd
 3167 00a4 00       		.byte	0
 3168 00a5 00       		.byte	0
 3169 00a6 0F       		.uleb128 0xf
 3170 00a7 13       		.uleb128 0x13
 3171 00a8 01       		.byte	0x1
 3172 00a9 0B       		.uleb128 0xb
 3173 00aa 0B       		.uleb128 0xb
 3174 00ab 3A       		.uleb128 0x3a
 3175 00ac 0B       		.uleb128 0xb
 3176 00ad 3B       		.uleb128 0x3b
 3177 00ae 0B       		.uleb128 0xb
 3178 00af 01       		.uleb128 0x1
 3179 00b0 13       		.uleb128 0x13
 3180 00b1 00       		.byte	0
 3181 00b2 00       		.byte	0
 3182 00b3 10       		.uleb128 0x10
 3183 00b4 0D       		.uleb128 0xd
 3184 00b5 00       		.byte	0
 3185 00b6 03       		.uleb128 0x3
 3186 00b7 0E       		.uleb128 0xe
 3187 00b8 3A       		.uleb128 0x3a
 3188 00b9 0B       		.uleb128 0xb
 3189 00ba 3B       		.uleb128 0x3b
 3190 00bb 0B       		.uleb128 0xb
 3191 00bc 49       		.uleb128 0x49
 3192 00bd 13       		.uleb128 0x13
ARM GAS  /tmp/ccsQReYy.s 			page 57


 3193 00be 38       		.uleb128 0x38
 3194 00bf 0B       		.uleb128 0xb
 3195 00c0 00       		.byte	0
 3196 00c1 00       		.byte	0
 3197 00c2 11       		.uleb128 0x11
 3198 00c3 2E       		.uleb128 0x2e
 3199 00c4 01       		.byte	0x1
 3200 00c5 3F       		.uleb128 0x3f
 3201 00c6 19       		.uleb128 0x19
 3202 00c7 03       		.uleb128 0x3
 3203 00c8 0E       		.uleb128 0xe
 3204 00c9 3A       		.uleb128 0x3a
 3205 00ca 0B       		.uleb128 0xb
 3206 00cb 3B       		.uleb128 0x3b
 3207 00cc 05       		.uleb128 0x5
 3208 00cd 27       		.uleb128 0x27
 3209 00ce 19       		.uleb128 0x19
 3210 00cf 49       		.uleb128 0x49
 3211 00d0 13       		.uleb128 0x13
 3212 00d1 20       		.uleb128 0x20
 3213 00d2 0B       		.uleb128 0xb
 3214 00d3 01       		.uleb128 0x1
 3215 00d4 13       		.uleb128 0x13
 3216 00d5 00       		.byte	0
 3217 00d6 00       		.byte	0
 3218 00d7 12       		.uleb128 0x12
 3219 00d8 05       		.uleb128 0x5
 3220 00d9 00       		.byte	0
 3221 00da 03       		.uleb128 0x3
 3222 00db 0E       		.uleb128 0xe
 3223 00dc 3A       		.uleb128 0x3a
 3224 00dd 0B       		.uleb128 0xb
 3225 00de 3B       		.uleb128 0x3b
 3226 00df 05       		.uleb128 0x5
 3227 00e0 49       		.uleb128 0x49
 3228 00e1 13       		.uleb128 0x13
 3229 00e2 00       		.byte	0
 3230 00e3 00       		.byte	0
 3231 00e4 13       		.uleb128 0x13
 3232 00e5 34       		.uleb128 0x34
 3233 00e6 00       		.byte	0
 3234 00e7 03       		.uleb128 0x3
 3235 00e8 08       		.uleb128 0x8
 3236 00e9 3A       		.uleb128 0x3a
 3237 00ea 0B       		.uleb128 0xb
 3238 00eb 3B       		.uleb128 0x3b
 3239 00ec 05       		.uleb128 0x5
 3240 00ed 49       		.uleb128 0x49
 3241 00ee 13       		.uleb128 0x13
 3242 00ef 00       		.byte	0
 3243 00f0 00       		.byte	0
 3244 00f1 14       		.uleb128 0x14
 3245 00f2 34       		.uleb128 0x34
 3246 00f3 00       		.byte	0
 3247 00f4 03       		.uleb128 0x3
 3248 00f5 0E       		.uleb128 0xe
 3249 00f6 3A       		.uleb128 0x3a
ARM GAS  /tmp/ccsQReYy.s 			page 58


 3250 00f7 0B       		.uleb128 0xb
 3251 00f8 3B       		.uleb128 0x3b
 3252 00f9 05       		.uleb128 0x5
 3253 00fa 49       		.uleb128 0x49
 3254 00fb 13       		.uleb128 0x13
 3255 00fc 00       		.byte	0
 3256 00fd 00       		.byte	0
 3257 00fe 15       		.uleb128 0x15
 3258 00ff 2E       		.uleb128 0x2e
 3259 0100 00       		.byte	0
 3260 0101 3F       		.uleb128 0x3f
 3261 0102 19       		.uleb128 0x19
 3262 0103 03       		.uleb128 0x3
 3263 0104 0E       		.uleb128 0xe
 3264 0105 3A       		.uleb128 0x3a
 3265 0106 0B       		.uleb128 0xb
 3266 0107 3B       		.uleb128 0x3b
 3267 0108 0B       		.uleb128 0xb
 3268 0109 27       		.uleb128 0x27
 3269 010a 19       		.uleb128 0x19
 3270 010b 11       		.uleb128 0x11
 3271 010c 01       		.uleb128 0x1
 3272 010d 12       		.uleb128 0x12
 3273 010e 06       		.uleb128 0x6
 3274 010f 40       		.uleb128 0x40
 3275 0110 18       		.uleb128 0x18
 3276 0111 9742     		.uleb128 0x2117
 3277 0113 19       		.uleb128 0x19
 3278 0114 00       		.byte	0
 3279 0115 00       		.byte	0
 3280 0116 16       		.uleb128 0x16
 3281 0117 2E       		.uleb128 0x2e
 3282 0118 01       		.byte	0x1
 3283 0119 3F       		.uleb128 0x3f
 3284 011a 19       		.uleb128 0x19
 3285 011b 03       		.uleb128 0x3
 3286 011c 0E       		.uleb128 0xe
 3287 011d 3A       		.uleb128 0x3a
 3288 011e 0B       		.uleb128 0xb
 3289 011f 3B       		.uleb128 0x3b
 3290 0120 05       		.uleb128 0x5
 3291 0121 27       		.uleb128 0x27
 3292 0122 19       		.uleb128 0x19
 3293 0123 11       		.uleb128 0x11
 3294 0124 01       		.uleb128 0x1
 3295 0125 12       		.uleb128 0x12
 3296 0126 06       		.uleb128 0x6
 3297 0127 40       		.uleb128 0x40
 3298 0128 18       		.uleb128 0x18
 3299 0129 9742     		.uleb128 0x2117
 3300 012b 19       		.uleb128 0x19
 3301 012c 01       		.uleb128 0x1
 3302 012d 13       		.uleb128 0x13
 3303 012e 00       		.byte	0
 3304 012f 00       		.byte	0
 3305 0130 17       		.uleb128 0x17
 3306 0131 05       		.uleb128 0x5
ARM GAS  /tmp/ccsQReYy.s 			page 59


 3307 0132 00       		.byte	0
 3308 0133 03       		.uleb128 0x3
 3309 0134 0E       		.uleb128 0xe
 3310 0135 3A       		.uleb128 0x3a
 3311 0136 0B       		.uleb128 0xb
 3312 0137 3B       		.uleb128 0x3b
 3313 0138 05       		.uleb128 0x5
 3314 0139 49       		.uleb128 0x49
 3315 013a 13       		.uleb128 0x13
 3316 013b 02       		.uleb128 0x2
 3317 013c 18       		.uleb128 0x18
 3318 013d 00       		.byte	0
 3319 013e 00       		.byte	0
 3320 013f 18       		.uleb128 0x18
 3321 0140 2E       		.uleb128 0x2e
 3322 0141 01       		.byte	0x1
 3323 0142 3F       		.uleb128 0x3f
 3324 0143 19       		.uleb128 0x19
 3325 0144 03       		.uleb128 0x3
 3326 0145 0E       		.uleb128 0xe
 3327 0146 3A       		.uleb128 0x3a
 3328 0147 0B       		.uleb128 0xb
 3329 0148 3B       		.uleb128 0x3b
 3330 0149 05       		.uleb128 0x5
 3331 014a 27       		.uleb128 0x27
 3332 014b 19       		.uleb128 0x19
 3333 014c 49       		.uleb128 0x49
 3334 014d 13       		.uleb128 0x13
 3335 014e 11       		.uleb128 0x11
 3336 014f 01       		.uleb128 0x1
 3337 0150 12       		.uleb128 0x12
 3338 0151 06       		.uleb128 0x6
 3339 0152 40       		.uleb128 0x40
 3340 0153 18       		.uleb128 0x18
 3341 0154 9742     		.uleb128 0x2117
 3342 0156 19       		.uleb128 0x19
 3343 0157 01       		.uleb128 0x1
 3344 0158 13       		.uleb128 0x13
 3345 0159 00       		.byte	0
 3346 015a 00       		.byte	0
 3347 015b 19       		.uleb128 0x19
 3348 015c 34       		.uleb128 0x34
 3349 015d 00       		.byte	0
 3350 015e 03       		.uleb128 0x3
 3351 015f 0E       		.uleb128 0xe
 3352 0160 3A       		.uleb128 0x3a
 3353 0161 0B       		.uleb128 0xb
 3354 0162 3B       		.uleb128 0x3b
 3355 0163 05       		.uleb128 0x5
 3356 0164 49       		.uleb128 0x49
 3357 0165 13       		.uleb128 0x13
 3358 0166 02       		.uleb128 0x2
 3359 0167 18       		.uleb128 0x18
 3360 0168 00       		.byte	0
 3361 0169 00       		.byte	0
 3362 016a 1A       		.uleb128 0x1a
 3363 016b 34       		.uleb128 0x34
ARM GAS  /tmp/ccsQReYy.s 			page 60


 3364 016c 00       		.byte	0
 3365 016d 03       		.uleb128 0x3
 3366 016e 0E       		.uleb128 0xe
 3367 016f 3A       		.uleb128 0x3a
 3368 0170 0B       		.uleb128 0xb
 3369 0171 3B       		.uleb128 0x3b
 3370 0172 05       		.uleb128 0x5
 3371 0173 49       		.uleb128 0x49
 3372 0174 13       		.uleb128 0x13
 3373 0175 02       		.uleb128 0x2
 3374 0176 17       		.uleb128 0x17
 3375 0177 00       		.byte	0
 3376 0178 00       		.byte	0
 3377 0179 1B       		.uleb128 0x1b
 3378 017a 1D       		.uleb128 0x1d
 3379 017b 01       		.byte	0x1
 3380 017c 31       		.uleb128 0x31
 3381 017d 13       		.uleb128 0x13
 3382 017e 52       		.uleb128 0x52
 3383 017f 01       		.uleb128 0x1
 3384 0180 55       		.uleb128 0x55
 3385 0181 17       		.uleb128 0x17
 3386 0182 58       		.uleb128 0x58
 3387 0183 0B       		.uleb128 0xb
 3388 0184 59       		.uleb128 0x59
 3389 0185 05       		.uleb128 0x5
 3390 0186 01       		.uleb128 0x1
 3391 0187 13       		.uleb128 0x13
 3392 0188 00       		.byte	0
 3393 0189 00       		.byte	0
 3394 018a 1C       		.uleb128 0x1c
 3395 018b 05       		.uleb128 0x5
 3396 018c 00       		.byte	0
 3397 018d 31       		.uleb128 0x31
 3398 018e 13       		.uleb128 0x13
 3399 018f 1C       		.uleb128 0x1c
 3400 0190 0B       		.uleb128 0xb
 3401 0191 00       		.byte	0
 3402 0192 00       		.byte	0
 3403 0193 1D       		.uleb128 0x1d
 3404 0194 0B       		.uleb128 0xb
 3405 0195 01       		.byte	0x1
 3406 0196 55       		.uleb128 0x55
 3407 0197 17       		.uleb128 0x17
 3408 0198 00       		.byte	0
 3409 0199 00       		.byte	0
 3410 019a 1E       		.uleb128 0x1e
 3411 019b 34       		.uleb128 0x34
 3412 019c 00       		.byte	0
 3413 019d 31       		.uleb128 0x31
 3414 019e 13       		.uleb128 0x13
 3415 019f 02       		.uleb128 0x2
 3416 01a0 17       		.uleb128 0x17
 3417 01a1 00       		.byte	0
 3418 01a2 00       		.byte	0
 3419 01a3 1F       		.uleb128 0x1f
 3420 01a4 34       		.uleb128 0x34
ARM GAS  /tmp/ccsQReYy.s 			page 61


 3421 01a5 00       		.byte	0
 3422 01a6 31       		.uleb128 0x31
 3423 01a7 13       		.uleb128 0x13
 3424 01a8 1C       		.uleb128 0x1c
 3425 01a9 0B       		.uleb128 0xb
 3426 01aa 00       		.byte	0
 3427 01ab 00       		.byte	0
 3428 01ac 20       		.uleb128 0x20
 3429 01ad 1D       		.uleb128 0x1d
 3430 01ae 01       		.byte	0x1
 3431 01af 31       		.uleb128 0x31
 3432 01b0 13       		.uleb128 0x13
 3433 01b1 11       		.uleb128 0x11
 3434 01b2 01       		.uleb128 0x1
 3435 01b3 12       		.uleb128 0x12
 3436 01b4 06       		.uleb128 0x6
 3437 01b5 58       		.uleb128 0x58
 3438 01b6 0B       		.uleb128 0xb
 3439 01b7 59       		.uleb128 0x59
 3440 01b8 05       		.uleb128 0x5
 3441 01b9 00       		.byte	0
 3442 01ba 00       		.byte	0
 3443 01bb 21       		.uleb128 0x21
 3444 01bc 0B       		.uleb128 0xb
 3445 01bd 01       		.byte	0x1
 3446 01be 11       		.uleb128 0x11
 3447 01bf 01       		.uleb128 0x1
 3448 01c0 12       		.uleb128 0x12
 3449 01c1 06       		.uleb128 0x6
 3450 01c2 00       		.byte	0
 3451 01c3 00       		.byte	0
 3452 01c4 22       		.uleb128 0x22
 3453 01c5 05       		.uleb128 0x5
 3454 01c6 00       		.byte	0
 3455 01c7 03       		.uleb128 0x3
 3456 01c8 0E       		.uleb128 0xe
 3457 01c9 3A       		.uleb128 0x3a
 3458 01ca 0B       		.uleb128 0xb
 3459 01cb 3B       		.uleb128 0x3b
 3460 01cc 05       		.uleb128 0x5
 3461 01cd 49       		.uleb128 0x49
 3462 01ce 13       		.uleb128 0x13
 3463 01cf 02       		.uleb128 0x2
 3464 01d0 17       		.uleb128 0x17
 3465 01d1 00       		.byte	0
 3466 01d2 00       		.byte	0
 3467 01d3 23       		.uleb128 0x23
 3468 01d4 2E       		.uleb128 0x2e
 3469 01d5 00       		.byte	0
 3470 01d6 3F       		.uleb128 0x3f
 3471 01d7 19       		.uleb128 0x19
 3472 01d8 03       		.uleb128 0x3
 3473 01d9 0E       		.uleb128 0xe
 3474 01da 3A       		.uleb128 0x3a
 3475 01db 0B       		.uleb128 0xb
 3476 01dc 3B       		.uleb128 0x3b
 3477 01dd 05       		.uleb128 0x5
ARM GAS  /tmp/ccsQReYy.s 			page 62


 3478 01de 27       		.uleb128 0x27
 3479 01df 19       		.uleb128 0x19
 3480 01e0 49       		.uleb128 0x49
 3481 01e1 13       		.uleb128 0x13
 3482 01e2 11       		.uleb128 0x11
 3483 01e3 01       		.uleb128 0x1
 3484 01e4 12       		.uleb128 0x12
 3485 01e5 06       		.uleb128 0x6
 3486 01e6 40       		.uleb128 0x40
 3487 01e7 18       		.uleb128 0x18
 3488 01e8 9742     		.uleb128 0x2117
 3489 01ea 19       		.uleb128 0x19
 3490 01eb 00       		.byte	0
 3491 01ec 00       		.byte	0
 3492 01ed 24       		.uleb128 0x24
 3493 01ee 34       		.uleb128 0x34
 3494 01ef 00       		.byte	0
 3495 01f0 03       		.uleb128 0x3
 3496 01f1 08       		.uleb128 0x8
 3497 01f2 3A       		.uleb128 0x3a
 3498 01f3 0B       		.uleb128 0xb
 3499 01f4 3B       		.uleb128 0x3b
 3500 01f5 05       		.uleb128 0x5
 3501 01f6 49       		.uleb128 0x49
 3502 01f7 13       		.uleb128 0x13
 3503 01f8 02       		.uleb128 0x2
 3504 01f9 17       		.uleb128 0x17
 3505 01fa 00       		.byte	0
 3506 01fb 00       		.byte	0
 3507 01fc 25       		.uleb128 0x25
 3508 01fd 0F       		.uleb128 0xf
 3509 01fe 00       		.byte	0
 3510 01ff 0B       		.uleb128 0xb
 3511 0200 0B       		.uleb128 0xb
 3512 0201 49       		.uleb128 0x49
 3513 0202 13       		.uleb128 0x13
 3514 0203 00       		.byte	0
 3515 0204 00       		.byte	0
 3516 0205 26       		.uleb128 0x26
 3517 0206 2E       		.uleb128 0x2e
 3518 0207 01       		.byte	0x1
 3519 0208 31       		.uleb128 0x31
 3520 0209 13       		.uleb128 0x13
 3521 020a 11       		.uleb128 0x11
 3522 020b 01       		.uleb128 0x1
 3523 020c 12       		.uleb128 0x12
 3524 020d 06       		.uleb128 0x6
 3525 020e 40       		.uleb128 0x40
 3526 020f 18       		.uleb128 0x18
 3527 0210 9742     		.uleb128 0x2117
 3528 0212 19       		.uleb128 0x19
 3529 0213 01       		.uleb128 0x1
 3530 0214 13       		.uleb128 0x13
 3531 0215 00       		.byte	0
 3532 0216 00       		.byte	0
 3533 0217 27       		.uleb128 0x27
 3534 0218 05       		.uleb128 0x5
ARM GAS  /tmp/ccsQReYy.s 			page 63


 3535 0219 00       		.byte	0
 3536 021a 31       		.uleb128 0x31
 3537 021b 13       		.uleb128 0x13
 3538 021c 02       		.uleb128 0x2
 3539 021d 17       		.uleb128 0x17
 3540 021e 00       		.byte	0
 3541 021f 00       		.byte	0
 3542 0220 28       		.uleb128 0x28
 3543 0221 2E       		.uleb128 0x2e
 3544 0222 00       		.byte	0
 3545 0223 3F       		.uleb128 0x3f
 3546 0224 19       		.uleb128 0x19
 3547 0225 03       		.uleb128 0x3
 3548 0226 0E       		.uleb128 0xe
 3549 0227 3A       		.uleb128 0x3a
 3550 0228 0B       		.uleb128 0xb
 3551 0229 3B       		.uleb128 0x3b
 3552 022a 05       		.uleb128 0x5
 3553 022b 27       		.uleb128 0x27
 3554 022c 19       		.uleb128 0x19
 3555 022d 11       		.uleb128 0x11
 3556 022e 01       		.uleb128 0x1
 3557 022f 12       		.uleb128 0x12
 3558 0230 06       		.uleb128 0x6
 3559 0231 40       		.uleb128 0x40
 3560 0232 18       		.uleb128 0x18
 3561 0233 9742     		.uleb128 0x2117
 3562 0235 19       		.uleb128 0x19
 3563 0236 00       		.byte	0
 3564 0237 00       		.byte	0
 3565 0238 29       		.uleb128 0x29
 3566 0239 34       		.uleb128 0x34
 3567 023a 00       		.byte	0
 3568 023b 03       		.uleb128 0x3
 3569 023c 0E       		.uleb128 0xe
 3570 023d 3A       		.uleb128 0x3a
 3571 023e 0B       		.uleb128 0xb
 3572 023f 3B       		.uleb128 0x3b
 3573 0240 0B       		.uleb128 0xb
 3574 0241 49       		.uleb128 0x49
 3575 0242 13       		.uleb128 0x13
 3576 0243 02       		.uleb128 0x2
 3577 0244 18       		.uleb128 0x18
 3578 0245 00       		.byte	0
 3579 0246 00       		.byte	0
 3580 0247 2A       		.uleb128 0x2a
 3581 0248 26       		.uleb128 0x26
 3582 0249 00       		.byte	0
 3583 024a 49       		.uleb128 0x49
 3584 024b 13       		.uleb128 0x13
 3585 024c 00       		.byte	0
 3586 024d 00       		.byte	0
 3587 024e 2B       		.uleb128 0x2b
 3588 024f 34       		.uleb128 0x34
 3589 0250 00       		.byte	0
 3590 0251 03       		.uleb128 0x3
 3591 0252 0E       		.uleb128 0xe
ARM GAS  /tmp/ccsQReYy.s 			page 64


 3592 0253 3A       		.uleb128 0x3a
 3593 0254 0B       		.uleb128 0xb
 3594 0255 3B       		.uleb128 0x3b
 3595 0256 05       		.uleb128 0x5
 3596 0257 49       		.uleb128 0x49
 3597 0258 13       		.uleb128 0x13
 3598 0259 3F       		.uleb128 0x3f
 3599 025a 19       		.uleb128 0x19
 3600 025b 3C       		.uleb128 0x3c
 3601 025c 19       		.uleb128 0x19
 3602 025d 00       		.byte	0
 3603 025e 00       		.byte	0
 3604 025f 00       		.byte	0
 3605              		.section	.debug_loc,"",%progbits
 3606              	.Ldebug_loc0:
 3607              	.LLST0:
 3608 0000 08000000 		.4byte	.LVL1
 3609 0004 26000000 		.4byte	.LVL7
 3610 0008 0200     		.2byte	0x2
 3611 000a 30       		.byte	0x30
 3612 000b 9F       		.byte	0x9f
 3613 000c 26000000 		.4byte	.LVL7
 3614 0010 2A000000 		.4byte	.LVL8
 3615 0014 0700     		.2byte	0x7
 3616 0016 70       		.byte	0x70
 3617 0017 00       		.sleb128 0
 3618 0018 41       		.byte	0x41
 3619 0019 25       		.byte	0x25
 3620 001a 31       		.byte	0x31
 3621 001b 1A       		.byte	0x1a
 3622 001c 9F       		.byte	0x9f
 3623 001d 00000000 		.4byte	0
 3624 0021 00000000 		.4byte	0
 3625              	.LLST1:
 3626 0025 08000000 		.4byte	.LVL1
 3627 0029 0A000000 		.4byte	.LVL2
 3628 002d 0200     		.2byte	0x2
 3629 002f 30       		.byte	0x30
 3630 0030 9F       		.byte	0x9f
 3631 0031 00000000 		.4byte	0
 3632 0035 00000000 		.4byte	0
 3633              	.LLST2:
 3634 0039 0A000000 		.4byte	.LVL2
 3635 003d 10000000 		.4byte	.LVL3
 3636 0041 0200     		.2byte	0x2
 3637 0043 41       		.byte	0x41
 3638 0044 9F       		.byte	0x9f
 3639 0045 10000000 		.4byte	.LVL3
 3640 0049 12000000 		.4byte	.LVL4
 3641 004d 0200     		.2byte	0x2
 3642 004f 31       		.byte	0x31
 3643 0050 9F       		.byte	0x9f
 3644 0051 12000000 		.4byte	.LVL4
 3645 0055 34000000 		.4byte	.LFE114
 3646 0059 0200     		.2byte	0x2
 3647 005b 41       		.byte	0x41
 3648 005c 9F       		.byte	0x9f
ARM GAS  /tmp/ccsQReYy.s 			page 65


 3649 005d 00000000 		.4byte	0
 3650 0061 00000000 		.4byte	0
 3651              	.LLST3:
 3652 0065 10000000 		.4byte	.LVL3
 3653 0069 12000000 		.4byte	.LVL4
 3654 006d 0200     		.2byte	0x2
 3655 006f 30       		.byte	0x30
 3656 0070 9F       		.byte	0x9f
 3657 0071 12000000 		.4byte	.LVL4
 3658 0075 18000000 		.4byte	.LVL5
 3659 0079 0100     		.2byte	0x1
 3660 007b 53       		.byte	0x53
 3661 007c 00000000 		.4byte	0
 3662 0080 00000000 		.4byte	0
 3663              	.LLST4:
 3664 0084 22000000 		.4byte	.LVL6
 3665 0088 26000000 		.4byte	.LVL7
 3666 008c 0200     		.2byte	0x2
 3667 008e 31       		.byte	0x31
 3668 008f 9F       		.byte	0x9f
 3669 0090 26000000 		.4byte	.LVL7
 3670 0094 34000000 		.4byte	.LFE114
 3671 0098 0200     		.2byte	0x2
 3672 009a 41       		.byte	0x41
 3673 009b 9F       		.byte	0x9f
 3674 009c 00000000 		.4byte	0
 3675 00a0 00000000 		.4byte	0
 3676              	.LLST5:
 3677 00a4 22000000 		.4byte	.LVL6
 3678 00a8 26000000 		.4byte	.LVL7
 3679 00ac 0200     		.2byte	0x2
 3680 00ae 30       		.byte	0x30
 3681 00af 9F       		.byte	0x9f
 3682 00b0 26000000 		.4byte	.LVL7
 3683 00b4 2A000000 		.4byte	.LVL8
 3684 00b8 0100     		.2byte	0x1
 3685 00ba 50       		.byte	0x50
 3686 00bb 00000000 		.4byte	0
 3687 00bf 00000000 		.4byte	0
 3688              	.LLST6:
 3689 00c3 00000000 		.4byte	.LVL9
 3690 00c7 0C000000 		.4byte	.LVL12
 3691 00cb 0100     		.2byte	0x1
 3692 00cd 50       		.byte	0x50
 3693 00ce 0C000000 		.4byte	.LVL12
 3694 00d2 14000000 		.4byte	.LFE115
 3695 00d6 0400     		.2byte	0x4
 3696 00d8 F3       		.byte	0xf3
 3697 00d9 01       		.uleb128 0x1
 3698 00da 50       		.byte	0x50
 3699 00db 9F       		.byte	0x9f
 3700 00dc 00000000 		.4byte	0
 3701 00e0 00000000 		.4byte	0
 3702              	.LLST7:
 3703 00e4 00000000 		.4byte	.LVL9
 3704 00e8 04000000 		.4byte	.LVL10
 3705 00ec 0200     		.2byte	0x2
ARM GAS  /tmp/ccsQReYy.s 			page 66


 3706 00ee 30       		.byte	0x30
 3707 00ef 9F       		.byte	0x9f
 3708 00f0 04000000 		.4byte	.LVL10
 3709 00f4 0C000000 		.4byte	.LVL12
 3710 00f8 0100     		.2byte	0x1
 3711 00fa 53       		.byte	0x53
 3712 00fb 0C000000 		.4byte	.LVL12
 3713 00ff 14000000 		.4byte	.LFE115
 3714 0103 0100     		.2byte	0x1
 3715 0105 50       		.byte	0x50
 3716 0106 00000000 		.4byte	0
 3717 010a 00000000 		.4byte	0
 3718              	.LLST8:
 3719 010e 00000000 		.4byte	.LVL20
 3720 0112 0C000000 		.4byte	.LVL24
 3721 0116 0100     		.2byte	0x1
 3722 0118 50       		.byte	0x50
 3723 0119 0C000000 		.4byte	.LVL24
 3724 011d 14000000 		.4byte	.LFE123
 3725 0121 0400     		.2byte	0x4
 3726 0123 F3       		.byte	0xf3
 3727 0124 01       		.uleb128 0x1
 3728 0125 50       		.byte	0x50
 3729 0126 9F       		.byte	0x9f
 3730 0127 00000000 		.4byte	0
 3731 012b 00000000 		.4byte	0
 3732              	.LLST9:
 3733 012f 00000000 		.4byte	.LVL20
 3734 0133 0A000000 		.4byte	.LVL23
 3735 0137 0100     		.2byte	0x1
 3736 0139 51       		.byte	0x51
 3737 013a 0A000000 		.4byte	.LVL23
 3738 013e 14000000 		.4byte	.LFE123
 3739 0142 0400     		.2byte	0x4
 3740 0144 F3       		.byte	0xf3
 3741 0145 01       		.uleb128 0x1
 3742 0146 51       		.byte	0x51
 3743 0147 9F       		.byte	0x9f
 3744 0148 00000000 		.4byte	0
 3745 014c 00000000 		.4byte	0
 3746              	.LLST10:
 3747 0150 00000000 		.4byte	.LVL20
 3748 0154 04000000 		.4byte	.LVL21
 3749 0158 0200     		.2byte	0x2
 3750 015a 30       		.byte	0x30
 3751 015b 9F       		.byte	0x9f
 3752 015c 04000000 		.4byte	.LVL21
 3753 0160 08000000 		.4byte	.LVL22
 3754 0164 0900     		.2byte	0x9
 3755 0166 73       		.byte	0x73
 3756 0167 00       		.sleb128 0
 3757 0168 11       		.byte	0x11
 3758 0169 FFFFFF44 		.sleb128 -123731969
 3759 016d 1A       		.byte	0x1a
 3760 016e 9F       		.byte	0x9f
 3761 016f 08000000 		.4byte	.LVL22
 3762 0173 0C000000 		.4byte	.LVL24
ARM GAS  /tmp/ccsQReYy.s 			page 67


 3763 0177 0100     		.2byte	0x1
 3764 0179 53       		.byte	0x53
 3765 017a 0C000000 		.4byte	.LVL24
 3766 017e 14000000 		.4byte	.LFE123
 3767 0182 0100     		.2byte	0x1
 3768 0184 50       		.byte	0x50
 3769 0185 00000000 		.4byte	0
 3770 0189 00000000 		.4byte	0
 3771              	.LLST11:
 3772 018d 00000000 		.4byte	.LVL25
 3773 0191 0C000000 		.4byte	.LVL29
 3774 0195 0100     		.2byte	0x1
 3775 0197 50       		.byte	0x50
 3776 0198 0C000000 		.4byte	.LVL29
 3777 019c 14000000 		.4byte	.LFE124
 3778 01a0 0400     		.2byte	0x4
 3779 01a2 F3       		.byte	0xf3
 3780 01a3 01       		.uleb128 0x1
 3781 01a4 50       		.byte	0x50
 3782 01a5 9F       		.byte	0x9f
 3783 01a6 00000000 		.4byte	0
 3784 01aa 00000000 		.4byte	0
 3785              	.LLST12:
 3786 01ae 00000000 		.4byte	.LVL25
 3787 01b2 0A000000 		.4byte	.LVL28
 3788 01b6 0100     		.2byte	0x1
 3789 01b8 51       		.byte	0x51
 3790 01b9 0A000000 		.4byte	.LVL28
 3791 01bd 14000000 		.4byte	.LFE124
 3792 01c1 0400     		.2byte	0x4
 3793 01c3 F3       		.byte	0xf3
 3794 01c4 01       		.uleb128 0x1
 3795 01c5 51       		.byte	0x51
 3796 01c6 9F       		.byte	0x9f
 3797 01c7 00000000 		.4byte	0
 3798 01cb 00000000 		.4byte	0
 3799              	.LLST13:
 3800 01cf 00000000 		.4byte	.LVL25
 3801 01d3 04000000 		.4byte	.LVL26
 3802 01d7 0200     		.2byte	0x2
 3803 01d9 30       		.byte	0x30
 3804 01da 9F       		.byte	0x9f
 3805 01db 04000000 		.4byte	.LVL26
 3806 01df 08000000 		.4byte	.LVL27
 3807 01e3 0900     		.2byte	0x9
 3808 01e5 73       		.byte	0x73
 3809 01e6 00       		.sleb128 0
 3810 01e7 0C       		.byte	0xc
 3811 01e8 FFFFFF07 		.4byte	0x7ffffff
 3812 01ec 1A       		.byte	0x1a
 3813 01ed 9F       		.byte	0x9f
 3814 01ee 08000000 		.4byte	.LVL27
 3815 01f2 0C000000 		.4byte	.LVL29
 3816 01f6 0100     		.2byte	0x1
 3817 01f8 53       		.byte	0x53
 3818 01f9 0C000000 		.4byte	.LVL29
 3819 01fd 14000000 		.4byte	.LFE124
ARM GAS  /tmp/ccsQReYy.s 			page 68


 3820 0201 0100     		.2byte	0x1
 3821 0203 50       		.byte	0x50
 3822 0204 00000000 		.4byte	0
 3823 0208 00000000 		.4byte	0
 3824              	.LLST14:
 3825 020c 00000000 		.4byte	.LVL30
 3826 0210 0A000000 		.4byte	.LVL33
 3827 0214 0100     		.2byte	0x1
 3828 0216 50       		.byte	0x50
 3829 0217 0A000000 		.4byte	.LVL33
 3830 021b 14000000 		.4byte	.LFE125
 3831 021f 0400     		.2byte	0x4
 3832 0221 F3       		.byte	0xf3
 3833 0222 01       		.uleb128 0x1
 3834 0223 50       		.byte	0x50
 3835 0224 9F       		.byte	0x9f
 3836 0225 00000000 		.4byte	0
 3837 0229 00000000 		.4byte	0
 3838              	.LLST15:
 3839 022d 00000000 		.4byte	.LVL30
 3840 0231 04000000 		.4byte	.LVL31
 3841 0235 0200     		.2byte	0x2
 3842 0237 30       		.byte	0x30
 3843 0238 9F       		.byte	0x9f
 3844 0239 04000000 		.4byte	.LVL31
 3845 023d 0A000000 		.4byte	.LVL33
 3846 0241 0100     		.2byte	0x1
 3847 0243 53       		.byte	0x53
 3848 0244 0A000000 		.4byte	.LVL33
 3849 0248 14000000 		.4byte	.LFE125
 3850 024c 0100     		.2byte	0x1
 3851 024e 50       		.byte	0x50
 3852 024f 00000000 		.4byte	0
 3853 0253 00000000 		.4byte	0
 3854              	.LLST16:
 3855 0257 00000000 		.4byte	.LVL34
 3856 025b 0A000000 		.4byte	.LVL37
 3857 025f 0100     		.2byte	0x1
 3858 0261 50       		.byte	0x50
 3859 0262 0A000000 		.4byte	.LVL37
 3860 0266 14000000 		.4byte	.LFE127
 3861 026a 0400     		.2byte	0x4
 3862 026c F3       		.byte	0xf3
 3863 026d 01       		.uleb128 0x1
 3864 026e 50       		.byte	0x50
 3865 026f 9F       		.byte	0x9f
 3866 0270 00000000 		.4byte	0
 3867 0274 00000000 		.4byte	0
 3868              	.LLST17:
 3869 0278 00000000 		.4byte	.LVL34
 3870 027c 04000000 		.4byte	.LVL35
 3871 0280 0200     		.2byte	0x2
 3872 0282 30       		.byte	0x30
 3873 0283 9F       		.byte	0x9f
 3874 0284 04000000 		.4byte	.LVL35
 3875 0288 0A000000 		.4byte	.LVL37
 3876 028c 0100     		.2byte	0x1
ARM GAS  /tmp/ccsQReYy.s 			page 69


 3877 028e 53       		.byte	0x53
 3878 028f 0A000000 		.4byte	.LVL37
 3879 0293 14000000 		.4byte	.LFE127
 3880 0297 0100     		.2byte	0x1
 3881 0299 50       		.byte	0x50
 3882 029a 00000000 		.4byte	0
 3883 029e 00000000 		.4byte	0
 3884              	.LLST18:
 3885 02a2 00000000 		.4byte	.LVL38
 3886 02a6 0A000000 		.4byte	.LVL41
 3887 02aa 0100     		.2byte	0x1
 3888 02ac 50       		.byte	0x50
 3889 02ad 0A000000 		.4byte	.LVL41
 3890 02b1 14000000 		.4byte	.LFE128
 3891 02b5 0400     		.2byte	0x4
 3892 02b7 F3       		.byte	0xf3
 3893 02b8 01       		.uleb128 0x1
 3894 02b9 50       		.byte	0x50
 3895 02ba 9F       		.byte	0x9f
 3896 02bb 00000000 		.4byte	0
 3897 02bf 00000000 		.4byte	0
 3898              	.LLST19:
 3899 02c3 00000000 		.4byte	.LVL38
 3900 02c7 04000000 		.4byte	.LVL39
 3901 02cb 0200     		.2byte	0x2
 3902 02cd 30       		.byte	0x30
 3903 02ce 9F       		.byte	0x9f
 3904 02cf 04000000 		.4byte	.LVL39
 3905 02d3 0A000000 		.4byte	.LVL41
 3906 02d7 0100     		.2byte	0x1
 3907 02d9 53       		.byte	0x53
 3908 02da 0A000000 		.4byte	.LVL41
 3909 02de 14000000 		.4byte	.LFE128
 3910 02e2 0100     		.2byte	0x1
 3911 02e4 50       		.byte	0x50
 3912 02e5 00000000 		.4byte	0
 3913 02e9 00000000 		.4byte	0
 3914              	.LLST20:
 3915 02ed 00000000 		.4byte	.LVL42
 3916 02f1 0C000000 		.4byte	.LVL45
 3917 02f5 0100     		.2byte	0x1
 3918 02f7 50       		.byte	0x50
 3919 02f8 0C000000 		.4byte	.LVL45
 3920 02fc 14000000 		.4byte	.LFE129
 3921 0300 0400     		.2byte	0x4
 3922 0302 F3       		.byte	0xf3
 3923 0303 01       		.uleb128 0x1
 3924 0304 50       		.byte	0x50
 3925 0305 9F       		.byte	0x9f
 3926 0306 00000000 		.4byte	0
 3927 030a 00000000 		.4byte	0
 3928              	.LLST21:
 3929 030e 00000000 		.4byte	.LVL42
 3930 0312 04000000 		.4byte	.LVL43
 3931 0316 0200     		.2byte	0x2
 3932 0318 30       		.byte	0x30
 3933 0319 9F       		.byte	0x9f
ARM GAS  /tmp/ccsQReYy.s 			page 70


 3934 031a 04000000 		.4byte	.LVL43
 3935 031e 0C000000 		.4byte	.LVL45
 3936 0322 0100     		.2byte	0x1
 3937 0324 53       		.byte	0x53
 3938 0325 0C000000 		.4byte	.LVL45
 3939 0329 14000000 		.4byte	.LFE129
 3940 032d 0100     		.2byte	0x1
 3941 032f 50       		.byte	0x50
 3942 0330 00000000 		.4byte	0
 3943 0334 00000000 		.4byte	0
 3944              	.LLST22:
 3945 0338 00000000 		.4byte	.LVL46
 3946 033c 06000000 		.4byte	.LVL47
 3947 0340 0200     		.2byte	0x2
 3948 0342 30       		.byte	0x30
 3949 0343 9F       		.byte	0x9f
 3950 0344 06000000 		.4byte	.LVL47
 3951 0348 0A000000 		.4byte	.LVL48
 3952 034c 0500     		.2byte	0x5
 3953 034e 73       		.byte	0x73
 3954 034f 00       		.sleb128 0
 3955 0350 3C       		.byte	0x3c
 3956 0351 1A       		.byte	0x1a
 3957 0352 9F       		.byte	0x9f
 3958 0353 0A000000 		.4byte	.LVL48
 3959 0357 14000000 		.4byte	.LVL49
 3960 035b 0100     		.2byte	0x1
 3961 035d 53       		.byte	0x53
 3962 035e 1C000000 		.4byte	.LVL51
 3963 0362 20000000 		.4byte	.LVL52
 3964 0366 0600     		.2byte	0x6
 3965 0368 74       		.byte	0x74
 3966 0369 00       		.sleb128 0
 3967 036a 08       		.byte	0x8
 3968 036b F0       		.byte	0xf0
 3969 036c 1A       		.byte	0x1a
 3970 036d 9F       		.byte	0x9f
 3971 036e 20000000 		.4byte	.LVL52
 3972 0372 22000000 		.4byte	.LVL53
 3973 0376 0100     		.2byte	0x1
 3974 0378 54       		.byte	0x54
 3975 0379 28000000 		.4byte	.LVL54
 3976 037d 2C000000 		.4byte	.LVL55
 3977 0381 0700     		.2byte	0x7
 3978 0383 74       		.byte	0x74
 3979 0384 00       		.sleb128 0
 3980 0385 0A       		.byte	0xa
 3981 0386 001C     		.2byte	0x1c00
 3982 0388 1A       		.byte	0x1a
 3983 0389 9F       		.byte	0x9f
 3984 038a 2C000000 		.4byte	.LVL55
 3985 038e 2E000000 		.4byte	.LVL56
 3986 0392 0100     		.2byte	0x1
 3987 0394 54       		.byte	0x54
 3988 0395 36000000 		.4byte	.LVL58
 3989 0399 3E000000 		.4byte	.LVL59
 3990 039d 0700     		.2byte	0x7
ARM GAS  /tmp/ccsQReYy.s 			page 71


 3991 039f 72       		.byte	0x72
 3992 03a0 00       		.sleb128 0
 3993 03a1 0A       		.byte	0xa
 3994 03a2 00E0     		.2byte	0xe000
 3995 03a4 1A       		.byte	0x1a
 3996 03a5 9F       		.byte	0x9f
 3997 03a6 3E000000 		.4byte	.LVL59
 3998 03aa 40000000 		.4byte	.LVL60
 3999 03ae 0100     		.2byte	0x1
 4000 03b0 52       		.byte	0x52
 4001 03b1 46000000 		.4byte	.LVL61
 4002 03b5 48000000 		.4byte	.LVL62
 4003 03b9 0100     		.2byte	0x1
 4004 03bb 53       		.byte	0x53
 4005 03bc 4C000000 		.4byte	.LVL63
 4006 03c0 4E000000 		.4byte	.LVL64
 4007 03c4 0100     		.2byte	0x1
 4008 03c6 53       		.byte	0x53
 4009 03c7 00000000 		.4byte	0
 4010 03cb 00000000 		.4byte	0
 4011              	.LLST23:
 4012 03cf 00000000 		.4byte	.LVL46
 4013 03d3 22000000 		.4byte	.LVL53
 4014 03d7 0200     		.2byte	0x2
 4015 03d9 30       		.byte	0x30
 4016 03da 9F       		.byte	0x9f
 4017 03db 22000000 		.4byte	.LVL53
 4018 03df 28000000 		.4byte	.LVL54
 4019 03e3 0100     		.2byte	0x1
 4020 03e5 54       		.byte	0x54
 4021 03e6 2E000000 		.4byte	.LVL56
 4022 03ea 32000000 		.4byte	.LVL57
 4023 03ee 0100     		.2byte	0x1
 4024 03f0 54       		.byte	0x54
 4025 03f1 40000000 		.4byte	.LVL60
 4026 03f5 46000000 		.4byte	.LVL61
 4027 03f9 0100     		.2byte	0x1
 4028 03fb 52       		.byte	0x52
 4029 03fc 46000000 		.4byte	.LVL61
 4030 0400 98000000 		.4byte	.LFE130
 4031 0404 0200     		.2byte	0x2
 4032 0406 30       		.byte	0x30
 4033 0407 9F       		.byte	0x9f
 4034 0408 00000000 		.4byte	0
 4035 040c 00000000 		.4byte	0
 4036              	.LLST24:
 4037 0410 00000000 		.4byte	.LVL46
 4038 0414 16000000 		.4byte	.LVL50
 4039 0418 0200     		.2byte	0x2
 4040 041a 30       		.byte	0x30
 4041 041b 9F       		.byte	0x9f
 4042 041c 46000000 		.4byte	.LVL61
 4043 0420 74000000 		.4byte	.LVL67
 4044 0424 0200     		.2byte	0x2
 4045 0426 30       		.byte	0x30
 4046 0427 9F       		.byte	0x9f
 4047 0428 74000000 		.4byte	.LVL67
ARM GAS  /tmp/ccsQReYy.s 			page 72


 4048 042c 98000000 		.4byte	.LFE130
 4049 0430 0100     		.2byte	0x1
 4050 0432 52       		.byte	0x52
 4051 0433 00000000 		.4byte	0
 4052 0437 00000000 		.4byte	0
 4053              	.LLST25:
 4054 043b 00000000 		.4byte	.LVL46
 4055 043f 16000000 		.4byte	.LVL50
 4056 0443 0200     		.2byte	0x2
 4057 0445 32       		.byte	0x32
 4058 0446 9F       		.byte	0x9f
 4059 0447 46000000 		.4byte	.LVL61
 4060 044b 78000000 		.4byte	.LVL68
 4061 044f 0200     		.2byte	0x2
 4062 0451 32       		.byte	0x32
 4063 0452 9F       		.byte	0x9f
 4064 0453 78000000 		.4byte	.LVL68
 4065 0457 7C000000 		.4byte	.LVL69
 4066 045b 0D00     		.2byte	0xd
 4067 045d 73       		.byte	0x73
 4068 045e 00       		.sleb128 0
 4069 045f 48       		.byte	0x48
 4070 0460 3D       		.byte	0x3d
 4071 0461 24       		.byte	0x24
 4072 0462 1A       		.byte	0x1a
 4073 0463 40       		.byte	0x40
 4074 0464 25       		.byte	0x25
 4075 0465 23       		.byte	0x23
 4076 0466 01       		.uleb128 0x1
 4077 0467 31       		.byte	0x31
 4078 0468 24       		.byte	0x24
 4079 0469 9F       		.byte	0x9f
 4080 046a 00000000 		.4byte	0
 4081 046e 00000000 		.4byte	0
 4082              	.LLST26:
 4083 0472 00000000 		.4byte	.LVL46
 4084 0476 16000000 		.4byte	.LVL50
 4085 047a 0200     		.2byte	0x2
 4086 047c 30       		.byte	0x30
 4087 047d 9F       		.byte	0x9f
 4088 047e 46000000 		.4byte	.LVL61
 4089 0482 4E000000 		.4byte	.LVL64
 4090 0486 0200     		.2byte	0x2
 4091 0488 30       		.byte	0x30
 4092 0489 9F       		.byte	0x9f
 4093 048a 4E000000 		.4byte	.LVL64
 4094 048e 56000000 		.4byte	.LVL65
 4095 0492 0900     		.2byte	0x9
 4096 0494 73       		.byte	0x73
 4097 0495 00       		.sleb128 0
 4098 0496 40       		.byte	0x40
 4099 0497 42       		.byte	0x42
 4100 0498 24       		.byte	0x24
 4101 0499 1A       		.byte	0x1a
 4102 049a 46       		.byte	0x46
 4103 049b 25       		.byte	0x25
 4104 049c 9F       		.byte	0x9f
ARM GAS  /tmp/ccsQReYy.s 			page 73


 4105 049d 00000000 		.4byte	0
 4106 04a1 00000000 		.4byte	0
 4107              	.LLST27:
 4108 04a5 00000000 		.4byte	.LVL46
 4109 04a9 16000000 		.4byte	.LVL50
 4110 04ad 0200     		.2byte	0x2
 4111 04af 32       		.byte	0x32
 4112 04b0 9F       		.byte	0x9f
 4113 04b1 46000000 		.4byte	.LVL61
 4114 04b5 5E000000 		.4byte	.LVL66
 4115 04b9 0200     		.2byte	0x2
 4116 04bb 32       		.byte	0x32
 4117 04bc 9F       		.byte	0x9f
 4118 04bd 5E000000 		.4byte	.LVL66
 4119 04c1 74000000 		.4byte	.LVL67
 4120 04c5 0100     		.2byte	0x1
 4121 04c7 52       		.byte	0x52
 4122 04c8 00000000 		.4byte	0
 4123 04cc 00000000 		.4byte	0
 4124              	.LLST28:
 4125 04d0 00000000 		.4byte	.LVL70
 4126 04d4 26000000 		.4byte	.LVL75
 4127 04d8 0100     		.2byte	0x1
 4128 04da 50       		.byte	0x50
 4129 04db 26000000 		.4byte	.LVL75
 4130 04df 30000000 		.4byte	.LFE131
 4131 04e3 0400     		.2byte	0x4
 4132 04e5 F3       		.byte	0xf3
 4133 04e6 01       		.uleb128 0x1
 4134 04e7 50       		.byte	0x50
 4135 04e8 9F       		.byte	0x9f
 4136 04e9 00000000 		.4byte	0
 4137 04ed 00000000 		.4byte	0
 4138              	.LLST29:
 4139 04f1 00000000 		.4byte	.LVL70
 4140 04f5 0E000000 		.4byte	.LVL71
 4141 04f9 0200     		.2byte	0x2
 4142 04fb 30       		.byte	0x30
 4143 04fc 9F       		.byte	0x9f
 4144 04fd 0E000000 		.4byte	.LVL71
 4145 0501 1E000000 		.4byte	.LVL74
 4146 0505 0100     		.2byte	0x1
 4147 0507 53       		.byte	0x53
 4148 0508 00000000 		.4byte	0
 4149 050c 00000000 		.4byte	0
 4150              	.LLST30:
 4151 0510 00000000 		.4byte	.LVL79
 4152 0514 0A000000 		.4byte	.LVL80
 4153 0518 0100     		.2byte	0x1
 4154 051a 50       		.byte	0x50
 4155 051b 0A000000 		.4byte	.LVL80
 4156 051f 0E000000 		.4byte	.LVL81
 4157 0523 0400     		.2byte	0x4
 4158 0525 F3       		.byte	0xf3
 4159 0526 01       		.uleb128 0x1
 4160 0527 50       		.byte	0x50
 4161 0528 9F       		.byte	0x9f
ARM GAS  /tmp/ccsQReYy.s 			page 74


 4162 0529 0E000000 		.4byte	.LVL81
 4163 052d 10000000 		.4byte	.LVL82
 4164 0531 0100     		.2byte	0x1
 4165 0533 50       		.byte	0x50
 4166 0534 10000000 		.4byte	.LVL82
 4167 0538 18000000 		.4byte	.LFE135
 4168 053c 0400     		.2byte	0x4
 4169 053e F3       		.byte	0xf3
 4170 053f 01       		.uleb128 0x1
 4171 0540 50       		.byte	0x50
 4172 0541 9F       		.byte	0x9f
 4173 0542 00000000 		.4byte	0
 4174 0546 00000000 		.4byte	0
 4175              	.LLST31:
 4176 054a 00000000 		.4byte	.LVL83
 4177 054e 0A000000 		.4byte	.LVL84
 4178 0552 0100     		.2byte	0x1
 4179 0554 50       		.byte	0x50
 4180 0555 0A000000 		.4byte	.LVL84
 4181 0559 0E000000 		.4byte	.LVL85
 4182 055d 0400     		.2byte	0x4
 4183 055f F3       		.byte	0xf3
 4184 0560 01       		.uleb128 0x1
 4185 0561 50       		.byte	0x50
 4186 0562 9F       		.byte	0x9f
 4187 0563 0E000000 		.4byte	.LVL85
 4188 0567 10000000 		.4byte	.LVL86
 4189 056b 0100     		.2byte	0x1
 4190 056d 50       		.byte	0x50
 4191 056e 10000000 		.4byte	.LVL86
 4192 0572 18000000 		.4byte	.LFE136
 4193 0576 0400     		.2byte	0x4
 4194 0578 F3       		.byte	0xf3
 4195 0579 01       		.uleb128 0x1
 4196 057a 50       		.byte	0x50
 4197 057b 9F       		.byte	0x9f
 4198 057c 00000000 		.4byte	0
 4199 0580 00000000 		.4byte	0
 4200              	.LLST32:
 4201 0584 00000000 		.4byte	.LVL87
 4202 0588 0A000000 		.4byte	.LVL88
 4203 058c 0100     		.2byte	0x1
 4204 058e 50       		.byte	0x50
 4205 058f 0A000000 		.4byte	.LVL88
 4206 0593 0E000000 		.4byte	.LVL89
 4207 0597 0400     		.2byte	0x4
 4208 0599 F3       		.byte	0xf3
 4209 059a 01       		.uleb128 0x1
 4210 059b 50       		.byte	0x50
 4211 059c 9F       		.byte	0x9f
 4212 059d 0E000000 		.4byte	.LVL89
 4213 05a1 10000000 		.4byte	.LVL90
 4214 05a5 0100     		.2byte	0x1
 4215 05a7 50       		.byte	0x50
 4216 05a8 10000000 		.4byte	.LVL90
 4217 05ac 18000000 		.4byte	.LFE137
 4218 05b0 0400     		.2byte	0x4
ARM GAS  /tmp/ccsQReYy.s 			page 75


 4219 05b2 F3       		.byte	0xf3
 4220 05b3 01       		.uleb128 0x1
 4221 05b4 50       		.byte	0x50
 4222 05b5 9F       		.byte	0x9f
 4223 05b6 00000000 		.4byte	0
 4224 05ba 00000000 		.4byte	0
 4225              	.LLST33:
 4226 05be 00000000 		.4byte	.LVL91
 4227 05c2 0A000000 		.4byte	.LVL92
 4228 05c6 0100     		.2byte	0x1
 4229 05c8 50       		.byte	0x50
 4230 05c9 0A000000 		.4byte	.LVL92
 4231 05cd 0E000000 		.4byte	.LVL93
 4232 05d1 0400     		.2byte	0x4
 4233 05d3 F3       		.byte	0xf3
 4234 05d4 01       		.uleb128 0x1
 4235 05d5 50       		.byte	0x50
 4236 05d6 9F       		.byte	0x9f
 4237 05d7 0E000000 		.4byte	.LVL93
 4238 05db 10000000 		.4byte	.LVL94
 4239 05df 0100     		.2byte	0x1
 4240 05e1 50       		.byte	0x50
 4241 05e2 10000000 		.4byte	.LVL94
 4242 05e6 18000000 		.4byte	.LFE138
 4243 05ea 0400     		.2byte	0x4
 4244 05ec F3       		.byte	0xf3
 4245 05ed 01       		.uleb128 0x1
 4246 05ee 50       		.byte	0x50
 4247 05ef 9F       		.byte	0x9f
 4248 05f0 00000000 		.4byte	0
 4249 05f4 00000000 		.4byte	0
 4250              	.LLST34:
 4251 05f8 00000000 		.4byte	.LVL95
 4252 05fc 0A000000 		.4byte	.LVL96
 4253 0600 0100     		.2byte	0x1
 4254 0602 50       		.byte	0x50
 4255 0603 0A000000 		.4byte	.LVL96
 4256 0607 0E000000 		.4byte	.LVL97
 4257 060b 0400     		.2byte	0x4
 4258 060d F3       		.byte	0xf3
 4259 060e 01       		.uleb128 0x1
 4260 060f 50       		.byte	0x50
 4261 0610 9F       		.byte	0x9f
 4262 0611 0E000000 		.4byte	.LVL97
 4263 0615 10000000 		.4byte	.LVL98
 4264 0619 0100     		.2byte	0x1
 4265 061b 50       		.byte	0x50
 4266 061c 10000000 		.4byte	.LVL98
 4267 0620 18000000 		.4byte	.LFE139
 4268 0624 0400     		.2byte	0x4
 4269 0626 F3       		.byte	0xf3
 4270 0627 01       		.uleb128 0x1
 4271 0628 50       		.byte	0x50
 4272 0629 9F       		.byte	0x9f
 4273 062a 00000000 		.4byte	0
 4274 062e 00000000 		.4byte	0
 4275              	.LLST35:
ARM GAS  /tmp/ccsQReYy.s 			page 76


 4276 0632 00000000 		.4byte	.LVL99
 4277 0636 0A000000 		.4byte	.LVL100
 4278 063a 0100     		.2byte	0x1
 4279 063c 50       		.byte	0x50
 4280 063d 0A000000 		.4byte	.LVL100
 4281 0641 0E000000 		.4byte	.LVL101
 4282 0645 0400     		.2byte	0x4
 4283 0647 F3       		.byte	0xf3
 4284 0648 01       		.uleb128 0x1
 4285 0649 50       		.byte	0x50
 4286 064a 9F       		.byte	0x9f
 4287 064b 0E000000 		.4byte	.LVL101
 4288 064f 10000000 		.4byte	.LVL102
 4289 0653 0100     		.2byte	0x1
 4290 0655 50       		.byte	0x50
 4291 0656 10000000 		.4byte	.LVL102
 4292 065a 18000000 		.4byte	.LFE140
 4293 065e 0400     		.2byte	0x4
 4294 0660 F3       		.byte	0xf3
 4295 0661 01       		.uleb128 0x1
 4296 0662 50       		.byte	0x50
 4297 0663 9F       		.byte	0x9f
 4298 0664 00000000 		.4byte	0
 4299 0668 00000000 		.4byte	0
 4300              	.LLST36:
 4301 066c 00000000 		.4byte	.LVL103
 4302 0670 0A000000 		.4byte	.LVL104
 4303 0674 0100     		.2byte	0x1
 4304 0676 50       		.byte	0x50
 4305 0677 0A000000 		.4byte	.LVL104
 4306 067b 0E000000 		.4byte	.LVL105
 4307 067f 0400     		.2byte	0x4
 4308 0681 F3       		.byte	0xf3
 4309 0682 01       		.uleb128 0x1
 4310 0683 50       		.byte	0x50
 4311 0684 9F       		.byte	0x9f
 4312 0685 0E000000 		.4byte	.LVL105
 4313 0689 10000000 		.4byte	.LVL106
 4314 068d 0100     		.2byte	0x1
 4315 068f 50       		.byte	0x50
 4316 0690 10000000 		.4byte	.LVL106
 4317 0694 18000000 		.4byte	.LFE141
 4318 0698 0400     		.2byte	0x4
 4319 069a F3       		.byte	0xf3
 4320 069b 01       		.uleb128 0x1
 4321 069c 50       		.byte	0x50
 4322 069d 9F       		.byte	0x9f
 4323 069e 00000000 		.4byte	0
 4324 06a2 00000000 		.4byte	0
 4325              	.LLST37:
 4326 06a6 00000000 		.4byte	.LVL107
 4327 06aa 0A000000 		.4byte	.LVL108
 4328 06ae 0100     		.2byte	0x1
 4329 06b0 50       		.byte	0x50
 4330 06b1 0A000000 		.4byte	.LVL108
 4331 06b5 0E000000 		.4byte	.LVL109
 4332 06b9 0400     		.2byte	0x4
ARM GAS  /tmp/ccsQReYy.s 			page 77


 4333 06bb F3       		.byte	0xf3
 4334 06bc 01       		.uleb128 0x1
 4335 06bd 50       		.byte	0x50
 4336 06be 9F       		.byte	0x9f
 4337 06bf 0E000000 		.4byte	.LVL109
 4338 06c3 10000000 		.4byte	.LVL110
 4339 06c7 0100     		.2byte	0x1
 4340 06c9 50       		.byte	0x50
 4341 06ca 10000000 		.4byte	.LVL110
 4342 06ce 18000000 		.4byte	.LFE142
 4343 06d2 0400     		.2byte	0x4
 4344 06d4 F3       		.byte	0xf3
 4345 06d5 01       		.uleb128 0x1
 4346 06d6 50       		.byte	0x50
 4347 06d7 9F       		.byte	0x9f
 4348 06d8 00000000 		.4byte	0
 4349 06dc 00000000 		.4byte	0
 4350              	.LLST38:
 4351 06e0 00000000 		.4byte	.LVL111
 4352 06e4 0A000000 		.4byte	.LVL112
 4353 06e8 0100     		.2byte	0x1
 4354 06ea 50       		.byte	0x50
 4355 06eb 0A000000 		.4byte	.LVL112
 4356 06ef 0E000000 		.4byte	.LVL113
 4357 06f3 0400     		.2byte	0x4
 4358 06f5 F3       		.byte	0xf3
 4359 06f6 01       		.uleb128 0x1
 4360 06f7 50       		.byte	0x50
 4361 06f8 9F       		.byte	0x9f
 4362 06f9 0E000000 		.4byte	.LVL113
 4363 06fd 10000000 		.4byte	.LVL114
 4364 0701 0100     		.2byte	0x1
 4365 0703 50       		.byte	0x50
 4366 0704 10000000 		.4byte	.LVL114
 4367 0708 18000000 		.4byte	.LFE143
 4368 070c 0400     		.2byte	0x4
 4369 070e F3       		.byte	0xf3
 4370 070f 01       		.uleb128 0x1
 4371 0710 50       		.byte	0x50
 4372 0711 9F       		.byte	0x9f
 4373 0712 00000000 		.4byte	0
 4374 0716 00000000 		.4byte	0
 4375              	.LLST39:
 4376 071a 00000000 		.4byte	.LVL115
 4377 071e 0A000000 		.4byte	.LVL116
 4378 0722 0100     		.2byte	0x1
 4379 0724 50       		.byte	0x50
 4380 0725 0A000000 		.4byte	.LVL116
 4381 0729 0E000000 		.4byte	.LVL117
 4382 072d 0400     		.2byte	0x4
 4383 072f F3       		.byte	0xf3
 4384 0730 01       		.uleb128 0x1
 4385 0731 50       		.byte	0x50
 4386 0732 9F       		.byte	0x9f
 4387 0733 0E000000 		.4byte	.LVL117
 4388 0737 10000000 		.4byte	.LVL118
 4389 073b 0100     		.2byte	0x1
ARM GAS  /tmp/ccsQReYy.s 			page 78


 4390 073d 50       		.byte	0x50
 4391 073e 10000000 		.4byte	.LVL118
 4392 0742 18000000 		.4byte	.LFE144
 4393 0746 0400     		.2byte	0x4
 4394 0748 F3       		.byte	0xf3
 4395 0749 01       		.uleb128 0x1
 4396 074a 50       		.byte	0x50
 4397 074b 9F       		.byte	0x9f
 4398 074c 00000000 		.4byte	0
 4399 0750 00000000 		.4byte	0
 4400              	.LLST40:
 4401 0754 00000000 		.4byte	.LVL119
 4402 0758 0A000000 		.4byte	.LVL120
 4403 075c 0100     		.2byte	0x1
 4404 075e 50       		.byte	0x50
 4405 075f 0A000000 		.4byte	.LVL120
 4406 0763 0E000000 		.4byte	.LVL121
 4407 0767 0400     		.2byte	0x4
 4408 0769 F3       		.byte	0xf3
 4409 076a 01       		.uleb128 0x1
 4410 076b 50       		.byte	0x50
 4411 076c 9F       		.byte	0x9f
 4412 076d 0E000000 		.4byte	.LVL121
 4413 0771 10000000 		.4byte	.LVL122
 4414 0775 0100     		.2byte	0x1
 4415 0777 50       		.byte	0x50
 4416 0778 10000000 		.4byte	.LVL122
 4417 077c 18000000 		.4byte	.LFE145
 4418 0780 0400     		.2byte	0x4
 4419 0782 F3       		.byte	0xf3
 4420 0783 01       		.uleb128 0x1
 4421 0784 50       		.byte	0x50
 4422 0785 9F       		.byte	0x9f
 4423 0786 00000000 		.4byte	0
 4424 078a 00000000 		.4byte	0
 4425              	.LLST41:
 4426 078e 00000000 		.4byte	.LVL123
 4427 0792 0A000000 		.4byte	.LVL124
 4428 0796 0100     		.2byte	0x1
 4429 0798 50       		.byte	0x50
 4430 0799 0A000000 		.4byte	.LVL124
 4431 079d 0E000000 		.4byte	.LVL125
 4432 07a1 0400     		.2byte	0x4
 4433 07a3 F3       		.byte	0xf3
 4434 07a4 01       		.uleb128 0x1
 4435 07a5 50       		.byte	0x50
 4436 07a6 9F       		.byte	0x9f
 4437 07a7 0E000000 		.4byte	.LVL125
 4438 07ab 10000000 		.4byte	.LVL126
 4439 07af 0100     		.2byte	0x1
 4440 07b1 50       		.byte	0x50
 4441 07b2 10000000 		.4byte	.LVL126
 4442 07b6 18000000 		.4byte	.LFE146
 4443 07ba 0400     		.2byte	0x4
 4444 07bc F3       		.byte	0xf3
 4445 07bd 01       		.uleb128 0x1
 4446 07be 50       		.byte	0x50
ARM GAS  /tmp/ccsQReYy.s 			page 79


 4447 07bf 9F       		.byte	0x9f
 4448 07c0 00000000 		.4byte	0
 4449 07c4 00000000 		.4byte	0
 4450              	.LLST42:
 4451 07c8 00000000 		.4byte	.LVL128
 4452 07cc 0A000000 		.4byte	.LVL129
 4453 07d0 0100     		.2byte	0x1
 4454 07d2 50       		.byte	0x50
 4455 07d3 0A000000 		.4byte	.LVL129
 4456 07d7 0E000000 		.4byte	.LVL130
 4457 07db 0400     		.2byte	0x4
 4458 07dd F3       		.byte	0xf3
 4459 07de 01       		.uleb128 0x1
 4460 07df 50       		.byte	0x50
 4461 07e0 9F       		.byte	0x9f
 4462 07e1 0E000000 		.4byte	.LVL130
 4463 07e5 10000000 		.4byte	.LVL131
 4464 07e9 0100     		.2byte	0x1
 4465 07eb 50       		.byte	0x50
 4466 07ec 10000000 		.4byte	.LVL131
 4467 07f0 18000000 		.4byte	.LFE148
 4468 07f4 0400     		.2byte	0x4
 4469 07f6 F3       		.byte	0xf3
 4470 07f7 01       		.uleb128 0x1
 4471 07f8 50       		.byte	0x50
 4472 07f9 9F       		.byte	0x9f
 4473 07fa 00000000 		.4byte	0
 4474 07fe 00000000 		.4byte	0
 4475              	.LLST43:
 4476 0802 00000000 		.4byte	.LVL132
 4477 0806 18000000 		.4byte	.LVL137
 4478 080a 0100     		.2byte	0x1
 4479 080c 50       		.byte	0x50
 4480 080d 18000000 		.4byte	.LVL137
 4481 0811 1E000000 		.4byte	.LVL138
 4482 0815 0400     		.2byte	0x4
 4483 0817 F3       		.byte	0xf3
 4484 0818 01       		.uleb128 0x1
 4485 0819 50       		.byte	0x50
 4486 081a 9F       		.byte	0x9f
 4487 081b 1E000000 		.4byte	.LVL138
 4488 081f 2A000000 		.4byte	.LVL141
 4489 0823 0100     		.2byte	0x1
 4490 0825 50       		.byte	0x50
 4491 0826 2A000000 		.4byte	.LVL141
 4492 082a 34000000 		.4byte	.LFE149
 4493 082e 0400     		.2byte	0x4
 4494 0830 F3       		.byte	0xf3
 4495 0831 01       		.uleb128 0x1
 4496 0832 50       		.byte	0x50
 4497 0833 9F       		.byte	0x9f
 4498 0834 00000000 		.4byte	0
 4499 0838 00000000 		.4byte	0
 4500              	.LLST44:
 4501 083c 00000000 		.4byte	.LVL132
 4502 0840 02000000 		.4byte	.LVL133
 4503 0844 0200     		.2byte	0x2
ARM GAS  /tmp/ccsQReYy.s 			page 80


 4504 0846 30       		.byte	0x30
 4505 0847 9F       		.byte	0x9f
 4506 0848 02000000 		.4byte	.LVL133
 4507 084c 0A000000 		.4byte	.LVL134
 4508 0850 0600     		.2byte	0x6
 4509 0852 73       		.byte	0x73
 4510 0853 00       		.sleb128 0
 4511 0854 08       		.byte	0x8
 4512 0855 FF       		.byte	0xff
 4513 0856 1A       		.byte	0x1a
 4514 0857 9F       		.byte	0x9f
 4515 0858 0A000000 		.4byte	.LVL134
 4516 085c 10000000 		.4byte	.LVL136
 4517 0860 0800     		.2byte	0x8
 4518 0862 70       		.byte	0x70
 4519 0863 00       		.sleb128 0
 4520 0864 35       		.byte	0x35
 4521 0865 25       		.byte	0x25
 4522 0866 08       		.byte	0x8
 4523 0867 FF       		.byte	0xff
 4524 0868 1A       		.byte	0x1a
 4525 0869 9F       		.byte	0x9f
 4526 086a 10000000 		.4byte	.LVL136
 4527 086e 18000000 		.4byte	.LVL137
 4528 0872 0800     		.2byte	0x8
 4529 0874 70       		.byte	0x70
 4530 0875 00       		.sleb128 0
 4531 0876 4F       		.byte	0x4f
 4532 0877 1A       		.byte	0x1a
 4533 0878 08       		.byte	0x8
 4534 0879 FF       		.byte	0xff
 4535 087a 1A       		.byte	0x1a
 4536 087b 9F       		.byte	0x9f
 4537 087c 18000000 		.4byte	.LVL137
 4538 0880 1E000000 		.4byte	.LVL138
 4539 0884 0900     		.2byte	0x9
 4540 0886 F3       		.byte	0xf3
 4541 0887 01       		.uleb128 0x1
 4542 0888 50       		.byte	0x50
 4543 0889 4F       		.byte	0x4f
 4544 088a 1A       		.byte	0x1a
 4545 088b 08       		.byte	0x8
 4546 088c FF       		.byte	0xff
 4547 088d 1A       		.byte	0x1a
 4548 088e 9F       		.byte	0x9f
 4549 088f 1E000000 		.4byte	.LVL138
 4550 0893 20000000 		.4byte	.LVL139
 4551 0897 0600     		.2byte	0x6
 4552 0899 73       		.byte	0x73
 4553 089a 00       		.sleb128 0
 4554 089b 08       		.byte	0x8
 4555 089c FF       		.byte	0xff
 4556 089d 1A       		.byte	0x1a
 4557 089e 9F       		.byte	0x9f
 4558 089f 20000000 		.4byte	.LVL139
 4559 08a3 22000000 		.4byte	.LVL140
 4560 08a7 0800     		.2byte	0x8
ARM GAS  /tmp/ccsQReYy.s 			page 81


 4561 08a9 70       		.byte	0x70
 4562 08aa 00       		.sleb128 0
 4563 08ab 35       		.byte	0x35
 4564 08ac 25       		.byte	0x25
 4565 08ad 08       		.byte	0x8
 4566 08ae FF       		.byte	0xff
 4567 08af 1A       		.byte	0x1a
 4568 08b0 9F       		.byte	0x9f
 4569 08b1 22000000 		.4byte	.LVL140
 4570 08b5 2A000000 		.4byte	.LVL141
 4571 08b9 0800     		.2byte	0x8
 4572 08bb 70       		.byte	0x70
 4573 08bc 00       		.sleb128 0
 4574 08bd 4F       		.byte	0x4f
 4575 08be 1A       		.byte	0x1a
 4576 08bf 08       		.byte	0x8
 4577 08c0 FF       		.byte	0xff
 4578 08c1 1A       		.byte	0x1a
 4579 08c2 9F       		.byte	0x9f
 4580 08c3 2A000000 		.4byte	.LVL141
 4581 08c7 34000000 		.4byte	.LFE149
 4582 08cb 0900     		.2byte	0x9
 4583 08cd F3       		.byte	0xf3
 4584 08ce 01       		.uleb128 0x1
 4585 08cf 50       		.byte	0x50
 4586 08d0 4F       		.byte	0x4f
 4587 08d1 1A       		.byte	0x1a
 4588 08d2 08       		.byte	0x8
 4589 08d3 FF       		.byte	0xff
 4590 08d4 1A       		.byte	0x1a
 4591 08d5 9F       		.byte	0x9f
 4592 08d6 00000000 		.4byte	0
 4593 08da 00000000 		.4byte	0
 4594              	.LLST45:
 4595 08de 00000000 		.4byte	.LVL132
 4596 08e2 0E000000 		.4byte	.LVL135
 4597 08e6 0200     		.2byte	0x2
 4598 08e8 30       		.byte	0x30
 4599 08e9 9F       		.byte	0x9f
 4600 08ea 0E000000 		.4byte	.LVL135
 4601 08ee 1E000000 		.4byte	.LVL138
 4602 08f2 0100     		.2byte	0x1
 4603 08f4 52       		.byte	0x52
 4604 08f5 1E000000 		.4byte	.LVL138
 4605 08f9 22000000 		.4byte	.LVL140
 4606 08fd 0200     		.2byte	0x2
 4607 08ff 30       		.byte	0x30
 4608 0900 9F       		.byte	0x9f
 4609 0901 22000000 		.4byte	.LVL140
 4610 0905 34000000 		.4byte	.LFE149
 4611 0909 0100     		.2byte	0x1
 4612 090b 52       		.byte	0x52
 4613 090c 00000000 		.4byte	0
 4614 0910 00000000 		.4byte	0
 4615              	.LLST46:
 4616 0914 00000000 		.4byte	.LVL132
 4617 0918 10000000 		.4byte	.LVL136
ARM GAS  /tmp/ccsQReYy.s 			page 82


 4618 091c 0200     		.2byte	0x2
 4619 091e 30       		.byte	0x30
 4620 091f 9F       		.byte	0x9f
 4621 0920 10000000 		.4byte	.LVL136
 4622 0924 18000000 		.4byte	.LVL137
 4623 0928 0D00     		.2byte	0xd
 4624 092a 72       		.byte	0x72
 4625 092b 00       		.sleb128 0
 4626 092c 70       		.byte	0x70
 4627 092d 00       		.sleb128 0
 4628 092e 4F       		.byte	0x4f
 4629 092f 1A       		.byte	0x1a
 4630 0930 08       		.byte	0x8
 4631 0931 FF       		.byte	0xff
 4632 0932 1A       		.byte	0x1a
 4633 0933 25       		.byte	0x25
 4634 0934 31       		.byte	0x31
 4635 0935 1A       		.byte	0x1a
 4636 0936 9F       		.byte	0x9f
 4637 0937 18000000 		.4byte	.LVL137
 4638 093b 1E000000 		.4byte	.LVL138
 4639 093f 0E00     		.2byte	0xe
 4640 0941 72       		.byte	0x72
 4641 0942 00       		.sleb128 0
 4642 0943 F3       		.byte	0xf3
 4643 0944 01       		.uleb128 0x1
 4644 0945 50       		.byte	0x50
 4645 0946 4F       		.byte	0x4f
 4646 0947 1A       		.byte	0x1a
 4647 0948 08       		.byte	0x8
 4648 0949 FF       		.byte	0xff
 4649 094a 1A       		.byte	0x1a
 4650 094b 25       		.byte	0x25
 4651 094c 31       		.byte	0x31
 4652 094d 1A       		.byte	0x1a
 4653 094e 9F       		.byte	0x9f
 4654 094f 1E000000 		.4byte	.LVL138
 4655 0953 22000000 		.4byte	.LVL140
 4656 0957 0200     		.2byte	0x2
 4657 0959 30       		.byte	0x30
 4658 095a 9F       		.byte	0x9f
 4659 095b 22000000 		.4byte	.LVL140
 4660 095f 2A000000 		.4byte	.LVL141
 4661 0963 0D00     		.2byte	0xd
 4662 0965 72       		.byte	0x72
 4663 0966 00       		.sleb128 0
 4664 0967 70       		.byte	0x70
 4665 0968 00       		.sleb128 0
 4666 0969 4F       		.byte	0x4f
 4667 096a 1A       		.byte	0x1a
 4668 096b 08       		.byte	0x8
 4669 096c FF       		.byte	0xff
 4670 096d 1A       		.byte	0x1a
 4671 096e 25       		.byte	0x25
 4672 096f 31       		.byte	0x31
 4673 0970 1A       		.byte	0x1a
 4674 0971 9F       		.byte	0x9f
ARM GAS  /tmp/ccsQReYy.s 			page 83


 4675 0972 2A000000 		.4byte	.LVL141
 4676 0976 34000000 		.4byte	.LFE149
 4677 097a 0E00     		.2byte	0xe
 4678 097c 72       		.byte	0x72
 4679 097d 00       		.sleb128 0
 4680 097e F3       		.byte	0xf3
 4681 097f 01       		.uleb128 0x1
 4682 0980 50       		.byte	0x50
 4683 0981 4F       		.byte	0x4f
 4684 0982 1A       		.byte	0x1a
 4685 0983 08       		.byte	0x8
 4686 0984 FF       		.byte	0xff
 4687 0985 1A       		.byte	0x1a
 4688 0986 25       		.byte	0x25
 4689 0987 31       		.byte	0x31
 4690 0988 1A       		.byte	0x1a
 4691 0989 9F       		.byte	0x9f
 4692 098a 00000000 		.4byte	0
 4693 098e 00000000 		.4byte	0
 4694              	.LLST47:
 4695 0992 00000000 		.4byte	.LVL142
 4696 0996 0A000000 		.4byte	.LVL144
 4697 099a 0100     		.2byte	0x1
 4698 099c 50       		.byte	0x50
 4699 099d 0A000000 		.4byte	.LVL144
 4700 09a1 14000000 		.4byte	.LFE151
 4701 09a5 0400     		.2byte	0x4
 4702 09a7 F3       		.byte	0xf3
 4703 09a8 01       		.uleb128 0x1
 4704 09a9 50       		.byte	0x50
 4705 09aa 9F       		.byte	0x9f
 4706 09ab 00000000 		.4byte	0
 4707 09af 00000000 		.4byte	0
 4708              	.LLST48:
 4709 09b3 00000000 		.4byte	.LVL142
 4710 09b7 04000000 		.4byte	.LVL143
 4711 09bb 0200     		.2byte	0x2
 4712 09bd 30       		.byte	0x30
 4713 09be 9F       		.byte	0x9f
 4714 09bf 04000000 		.4byte	.LVL143
 4715 09c3 0A000000 		.4byte	.LVL144
 4716 09c7 0B00     		.2byte	0xb
 4717 09c9 70       		.byte	0x70
 4718 09ca 00       		.sleb128 0
 4719 09cb 08       		.byte	0x8
 4720 09cc FF       		.byte	0xff
 4721 09cd 1A       		.byte	0x1a
 4722 09ce 73       		.byte	0x73
 4723 09cf 00       		.sleb128 0
 4724 09d0 1A       		.byte	0x1a
 4725 09d1 30       		.byte	0x30
 4726 09d2 2E       		.byte	0x2e
 4727 09d3 9F       		.byte	0x9f
 4728 09d4 0A000000 		.4byte	.LVL144
 4729 09d8 14000000 		.4byte	.LFE151
 4730 09dc 0C00     		.2byte	0xc
 4731 09de F3       		.byte	0xf3
ARM GAS  /tmp/ccsQReYy.s 			page 84


 4732 09df 01       		.uleb128 0x1
 4733 09e0 50       		.byte	0x50
 4734 09e1 08       		.byte	0x8
 4735 09e2 FF       		.byte	0xff
 4736 09e3 1A       		.byte	0x1a
 4737 09e4 73       		.byte	0x73
 4738 09e5 00       		.sleb128 0
 4739 09e6 1A       		.byte	0x1a
 4740 09e7 30       		.byte	0x30
 4741 09e8 2E       		.byte	0x2e
 4742 09e9 9F       		.byte	0x9f
 4743 09ea 00000000 		.4byte	0
 4744 09ee 00000000 		.4byte	0
 4745              		.section	.debug_aranges,"",%progbits
 4746 0000 5C010000 		.4byte	0x15c
 4747 0004 0200     		.2byte	0x2
 4748 0006 00000000 		.4byte	.Ldebug_info0
 4749 000a 04       		.byte	0x4
 4750 000b 00       		.byte	0
 4751 000c 0000     		.2byte	0
 4752 000e 0000     		.2byte	0
 4753 0010 00000000 		.4byte	.LFB112
 4754 0014 34000000 		.4byte	.LFE112-.LFB112
 4755 0018 00000000 		.4byte	.LFB113
 4756 001c 10000000 		.4byte	.LFE113-.LFB113
 4757 0020 00000000 		.4byte	.LFB114
 4758 0024 34000000 		.4byte	.LFE114-.LFB114
 4759 0028 00000000 		.4byte	.LFB115
 4760 002c 14000000 		.4byte	.LFE115-.LFB115
 4761 0030 00000000 		.4byte	.LFB116
 4762 0034 0C000000 		.4byte	.LFE116-.LFB116
 4763 0038 00000000 		.4byte	.LFB117
 4764 003c 20000000 		.4byte	.LFE117-.LFB117
 4765 0040 00000000 		.4byte	.LFB118
 4766 0044 0C000000 		.4byte	.LFE118-.LFB118
 4767 0048 00000000 		.4byte	.LFB119
 4768 004c 0C000000 		.4byte	.LFE119-.LFB119
 4769 0050 00000000 		.4byte	.LFB120
 4770 0054 0C000000 		.4byte	.LFE120-.LFB120
 4771 0058 00000000 		.4byte	.LFB121
 4772 005c 0C000000 		.4byte	.LFE121-.LFB121
 4773 0060 00000000 		.4byte	.LFB122
 4774 0064 0C000000 		.4byte	.LFE122-.LFB122
 4775 0068 00000000 		.4byte	.LFB123
 4776 006c 14000000 		.4byte	.LFE123-.LFB123
 4777 0070 00000000 		.4byte	.LFB124
 4778 0074 14000000 		.4byte	.LFE124-.LFB124
 4779 0078 00000000 		.4byte	.LFB125
 4780 007c 14000000 		.4byte	.LFE125-.LFB125
 4781 0080 00000000 		.4byte	.LFB126
 4782 0084 10000000 		.4byte	.LFE126-.LFB126
 4783 0088 00000000 		.4byte	.LFB127
 4784 008c 14000000 		.4byte	.LFE127-.LFB127
 4785 0090 00000000 		.4byte	.LFB128
 4786 0094 14000000 		.4byte	.LFE128-.LFB128
 4787 0098 00000000 		.4byte	.LFB129
 4788 009c 14000000 		.4byte	.LFE129-.LFB129
ARM GAS  /tmp/ccsQReYy.s 			page 85


 4789 00a0 00000000 		.4byte	.LFB130
 4790 00a4 98000000 		.4byte	.LFE130-.LFB130
 4791 00a8 00000000 		.4byte	.LFB131
 4792 00ac 30000000 		.4byte	.LFE131-.LFB131
 4793 00b0 00000000 		.4byte	.LFB132
 4794 00b4 0C000000 		.4byte	.LFE132-.LFB132
 4795 00b8 00000000 		.4byte	.LFB133
 4796 00bc 0C000000 		.4byte	.LFE133-.LFB133
 4797 00c0 00000000 		.4byte	.LFB134
 4798 00c4 0C000000 		.4byte	.LFE134-.LFB134
 4799 00c8 00000000 		.4byte	.LFB135
 4800 00cc 18000000 		.4byte	.LFE135-.LFB135
 4801 00d0 00000000 		.4byte	.LFB136
 4802 00d4 18000000 		.4byte	.LFE136-.LFB136
 4803 00d8 00000000 		.4byte	.LFB137
 4804 00dc 18000000 		.4byte	.LFE137-.LFB137
 4805 00e0 00000000 		.4byte	.LFB138
 4806 00e4 18000000 		.4byte	.LFE138-.LFB138
 4807 00e8 00000000 		.4byte	.LFB139
 4808 00ec 18000000 		.4byte	.LFE139-.LFB139
 4809 00f0 00000000 		.4byte	.LFB140
 4810 00f4 18000000 		.4byte	.LFE140-.LFB140
 4811 00f8 00000000 		.4byte	.LFB141
 4812 00fc 18000000 		.4byte	.LFE141-.LFB141
 4813 0100 00000000 		.4byte	.LFB142
 4814 0104 18000000 		.4byte	.LFE142-.LFB142
 4815 0108 00000000 		.4byte	.LFB143
 4816 010c 18000000 		.4byte	.LFE143-.LFB143
 4817 0110 00000000 		.4byte	.LFB144
 4818 0114 18000000 		.4byte	.LFE144-.LFB144
 4819 0118 00000000 		.4byte	.LFB145
 4820 011c 18000000 		.4byte	.LFE145-.LFB145
 4821 0120 00000000 		.4byte	.LFB146
 4822 0124 18000000 		.4byte	.LFE146-.LFB146
 4823 0128 00000000 		.4byte	.LFB147
 4824 012c 18000000 		.4byte	.LFE147-.LFB147
 4825 0130 00000000 		.4byte	.LFB148
 4826 0134 18000000 		.4byte	.LFE148-.LFB148
 4827 0138 00000000 		.4byte	.LFB149
 4828 013c 34000000 		.4byte	.LFE149-.LFB149
 4829 0140 00000000 		.4byte	.LFB150
 4830 0144 10000000 		.4byte	.LFE150-.LFB150
 4831 0148 00000000 		.4byte	.LFB151
 4832 014c 14000000 		.4byte	.LFE151-.LFB151
 4833 0150 00000000 		.4byte	.LFB152
 4834 0154 0C000000 		.4byte	.LFE152-.LFB152
 4835 0158 00000000 		.4byte	0
 4836 015c 00000000 		.4byte	0
 4837              		.section	.debug_ranges,"",%progbits
 4838              	.Ldebug_ranges0:
 4839 0000 04000000 		.4byte	.LBB6
 4840 0004 06000000 		.4byte	.LBE6
 4841 0008 10000000 		.4byte	.LBB10
 4842 000c 16000000 		.4byte	.LBE10
 4843 0010 20000000 		.4byte	.LBB11
 4844 0014 22000000 		.4byte	.LBE11
 4845 0018 00000000 		.4byte	0
ARM GAS  /tmp/ccsQReYy.s 			page 86


 4846 001c 00000000 		.4byte	0
 4847 0020 00000000 		.4byte	.LFB112
 4848 0024 34000000 		.4byte	.LFE112
 4849 0028 00000000 		.4byte	.LFB113
 4850 002c 10000000 		.4byte	.LFE113
 4851 0030 00000000 		.4byte	.LFB114
 4852 0034 34000000 		.4byte	.LFE114
 4853 0038 00000000 		.4byte	.LFB115
 4854 003c 14000000 		.4byte	.LFE115
 4855 0040 00000000 		.4byte	.LFB116
 4856 0044 0C000000 		.4byte	.LFE116
 4857 0048 00000000 		.4byte	.LFB117
 4858 004c 20000000 		.4byte	.LFE117
 4859 0050 00000000 		.4byte	.LFB118
 4860 0054 0C000000 		.4byte	.LFE118
 4861 0058 00000000 		.4byte	.LFB119
 4862 005c 0C000000 		.4byte	.LFE119
 4863 0060 00000000 		.4byte	.LFB120
 4864 0064 0C000000 		.4byte	.LFE120
 4865 0068 00000000 		.4byte	.LFB121
 4866 006c 0C000000 		.4byte	.LFE121
 4867 0070 00000000 		.4byte	.LFB122
 4868 0074 0C000000 		.4byte	.LFE122
 4869 0078 00000000 		.4byte	.LFB123
 4870 007c 14000000 		.4byte	.LFE123
 4871 0080 00000000 		.4byte	.LFB124
 4872 0084 14000000 		.4byte	.LFE124
 4873 0088 00000000 		.4byte	.LFB125
 4874 008c 14000000 		.4byte	.LFE125
 4875 0090 00000000 		.4byte	.LFB126
 4876 0094 10000000 		.4byte	.LFE126
 4877 0098 00000000 		.4byte	.LFB127
 4878 009c 14000000 		.4byte	.LFE127
 4879 00a0 00000000 		.4byte	.LFB128
 4880 00a4 14000000 		.4byte	.LFE128
 4881 00a8 00000000 		.4byte	.LFB129
 4882 00ac 14000000 		.4byte	.LFE129
 4883 00b0 00000000 		.4byte	.LFB130
 4884 00b4 98000000 		.4byte	.LFE130
 4885 00b8 00000000 		.4byte	.LFB131
 4886 00bc 30000000 		.4byte	.LFE131
 4887 00c0 00000000 		.4byte	.LFB132
 4888 00c4 0C000000 		.4byte	.LFE132
 4889 00c8 00000000 		.4byte	.LFB133
 4890 00cc 0C000000 		.4byte	.LFE133
 4891 00d0 00000000 		.4byte	.LFB134
 4892 00d4 0C000000 		.4byte	.LFE134
 4893 00d8 00000000 		.4byte	.LFB135
 4894 00dc 18000000 		.4byte	.LFE135
 4895 00e0 00000000 		.4byte	.LFB136
 4896 00e4 18000000 		.4byte	.LFE136
 4897 00e8 00000000 		.4byte	.LFB137
 4898 00ec 18000000 		.4byte	.LFE137
 4899 00f0 00000000 		.4byte	.LFB138
 4900 00f4 18000000 		.4byte	.LFE138
 4901 00f8 00000000 		.4byte	.LFB139
 4902 00fc 18000000 		.4byte	.LFE139
ARM GAS  /tmp/ccsQReYy.s 			page 87


 4903 0100 00000000 		.4byte	.LFB140
 4904 0104 18000000 		.4byte	.LFE140
 4905 0108 00000000 		.4byte	.LFB141
 4906 010c 18000000 		.4byte	.LFE141
 4907 0110 00000000 		.4byte	.LFB142
 4908 0114 18000000 		.4byte	.LFE142
 4909 0118 00000000 		.4byte	.LFB143
 4910 011c 18000000 		.4byte	.LFE143
 4911 0120 00000000 		.4byte	.LFB144
 4912 0124 18000000 		.4byte	.LFE144
 4913 0128 00000000 		.4byte	.LFB145
 4914 012c 18000000 		.4byte	.LFE145
 4915 0130 00000000 		.4byte	.LFB146
 4916 0134 18000000 		.4byte	.LFE146
 4917 0138 00000000 		.4byte	.LFB147
 4918 013c 18000000 		.4byte	.LFE147
 4919 0140 00000000 		.4byte	.LFB148
 4920 0144 18000000 		.4byte	.LFE148
 4921 0148 00000000 		.4byte	.LFB149
 4922 014c 34000000 		.4byte	.LFE149
 4923 0150 00000000 		.4byte	.LFB150
 4924 0154 10000000 		.4byte	.LFE150
 4925 0158 00000000 		.4byte	.LFB151
 4926 015c 14000000 		.4byte	.LFE151
 4927 0160 00000000 		.4byte	.LFB152
 4928 0164 0C000000 		.4byte	.LFE152
 4929 0168 00000000 		.4byte	0
 4930 016c 00000000 		.4byte	0
 4931              		.section	.debug_line,"",%progbits
 4932              	.Ldebug_line0:
 4933 0000 EA040000 		.section	.debug_str,"MS",%progbits,1
 4933      02005B01 
 4933      00000201 
 4933      FB0E0D00 
 4933      01010101 
 4934              	.LASF90:
 4935 0000 5243435F 		.ascii	"RCC_HCLK\000"
 4935      48434C4B 
 4935      00
 4936              	.LASF73:
 4937 0009 5243435F 		.ascii	"RCC_LSE\000"
 4937      4C534500 
 4938              	.LASF38:
 4939 0011 41504231 		.ascii	"APB1LPENR\000"
 4939      4C50454E 
 4939      5200
 4940              	.LASF77:
 4941 001b 5243435F 		.ascii	"RCC_PLLSAICmd\000"
 4941      504C4C53 
 4941      4149436D 
 4941      6400
 4942              	.LASF60:
 4943 0029 73746174 		.ascii	"statusreg\000"
 4943      75737265 
 4943      6700
 4944              	.LASF47:
 4945 0033 466C6167 		.ascii	"FlagStatus\000"
ARM GAS  /tmp/ccsQReYy.s 			page 88


 4945      53746174 
 4945      757300
 4946              	.LASF55:
 4947 003e 53595343 		.ascii	"SYSCLK_Frequency\000"
 4947      4C4B5F46 
 4947      72657175 
 4947      656E6379 
 4947      00
 4948              	.LASF98:
 4949 004f 706C6C6D 		.ascii	"pllm\000"
 4949      00
 4950              	.LASF96:
 4951 0054 706C6C70 		.ascii	"pllp\000"
 4951      00
 4952              	.LASF3:
 4953 0059 5F5F7569 		.ascii	"__uint8_t\000"
 4953      6E74385F 
 4953      7400
 4954              	.LASF80:
 4955 0063 5243435F 		.ascii	"RCC_MCO1Source\000"
 4955      4D434F31 
 4955      536F7572 
 4955      636500
 4956              	.LASF115:
 4957 0072 5243435F 		.ascii	"RCC_APB1PeriphResetCmd\000"
 4957      41504231 
 4957      50657269 
 4957      70685265 
 4957      73657443 
 4958              	.LASF49:
 4959 0089 44495341 		.ascii	"DISABLE\000"
 4959      424C4500 
 4960              	.LASF129:
 4961 0091 5243435F 		.ascii	"RCC_ClearITPendingBit\000"
 4961      436C6561 
 4961      72495450 
 4961      656E6469 
 4961      6E674269 
 4962              	.LASF11:
 4963 00a7 6C6F6E67 		.ascii	"long long unsigned int\000"
 4963      206C6F6E 
 4963      6720756E 
 4963      7369676E 
 4963      65642069 
 4964              	.LASF137:
 4965 00be 49544D5F 		.ascii	"ITM_RxBuffer\000"
 4965      52784275 
 4965      66666572 
 4965      00
 4966              	.LASF106:
 4967 00cb 5243435F 		.ascii	"RCC_AHB1Periph\000"
 4967      41484231 
 4967      50657269 
 4967      706800
 4968              	.LASF34:
 4969 00da 41484231 		.ascii	"AHB1LPENR\000"
 4969      4C50454E 
ARM GAS  /tmp/ccsQReYy.s 			page 89


 4969      5200
 4970              	.LASF93:
 4971 00e4 5243435F 		.ascii	"RCC_Clocks\000"
 4971      436C6F63 
 4971      6B7300
 4972              	.LASF120:
 4973 00ef 5243435F 		.ascii	"RCC_APB2PeriphClockLPModeCmd\000"
 4973      41504232 
 4973      50657269 
 4973      7068436C 
 4973      6F636B4C 
 4974              	.LASF126:
 4975 010c 5243435F 		.ascii	"RCC_ClearFlag\000"
 4975      436C6561 
 4975      72466C61 
 4975      6700
 4976              	.LASF0:
 4977 011a 7369676E 		.ascii	"signed char\000"
 4977      65642063 
 4977      68617200 
 4978              	.LASF20:
 4979 0126 41484231 		.ascii	"AHB1RSTR\000"
 4979      52535452 
 4979      00
 4980              	.LASF69:
 4981 012f 746D7072 		.ascii	"tmpreg\000"
 4981      656700
 4982              	.LASF58:
 4983 0136 50434C4B 		.ascii	"PCLK2_Frequency\000"
 4983      325F4672 
 4983      65717565 
 4983      6E637900 
 4984              	.LASF107:
 4985 0146 5243435F 		.ascii	"RCC_AHB2PeriphClockCmd\000"
 4985      41484232 
 4985      50657269 
 4985      7068436C 
 4985      6F636B43 
 4986              	.LASF50:
 4987 015d 454E4142 		.ascii	"ENABLE\000"
 4987      4C4500
 4988              	.LASF25:
 4989 0164 41504232 		.ascii	"APB2RSTR\000"
 4989      52535452 
 4989      00
 4990              	.LASF89:
 4991 016d 5243435F 		.ascii	"RCC_PCLK1Config\000"
 4991      50434C4B 
 4991      31436F6E 
 4991      66696700 
 4992              	.LASF124:
 4993 017d 5243435F 		.ascii	"RCC_IT\000"
 4993      495400
 4994              	.LASF113:
 4995 0184 5243435F 		.ascii	"RCC_AHB1PeriphResetCmd\000"
 4995      41484231 
 4995      50657269 
ARM GAS  /tmp/ccsQReYy.s 			page 90


 4995      70685265 
 4995      73657443 
 4996              	.LASF87:
 4997 019b 5243435F 		.ascii	"RCC_HCLKConfig\000"
 4997      48434C4B 
 4997      436F6E66 
 4997      696700
 4998              	.LASF10:
 4999 01aa 6C6F6E67 		.ascii	"long long int\000"
 4999      206C6F6E 
 4999      6720696E 
 4999      7400
 5000              	.LASF85:
 5001 01b8 5243435F 		.ascii	"RCC_SYSCLKConfig\000"
 5001      53595343 
 5001      4C4B436F 
 5001      6E666967 
 5001      00
 5002              	.LASF14:
 5003 01c9 75696E74 		.ascii	"uint16_t\000"
 5003      31365F74 
 5003      00
 5004              	.LASF72:
 5005 01d2 5243435F 		.ascii	"RCC_LSEConfig\000"
 5005      4C534543 
 5005      6F6E6669 
 5005      6700
 5006              	.LASF135:
 5007 01e0 5243435F 		.ascii	"RCC_FLAG\000"
 5007      464C4147 
 5007      00
 5008              	.LASF68:
 5009 01e9 48534943 		.ascii	"HSICalibrationValue\000"
 5009      616C6962 
 5009      72617469 
 5009      6F6E5661 
 5009      6C756500 
 5010              	.LASF71:
 5011 01fd 4E657753 		.ascii	"NewState\000"
 5011      74617465 
 5011      00
 5012              	.LASF18:
 5013 0206 504C4C43 		.ascii	"PLLCFGR\000"
 5013      46475200 
 5014              	.LASF102:
 5015 020e 5243435F 		.ascii	"RCC_BackupResetCmd\000"
 5015      4261636B 
 5015      75705265 
 5015      73657443 
 5015      6D6400
 5016              	.LASF8:
 5017 0221 5F5F7569 		.ascii	"__uint32_t\000"
 5017      6E743332 
 5017      5F7400
 5018              	.LASF54:
 5019 022c 4572726F 		.ascii	"ErrorStatus\000"
 5019      72537461 
ARM GAS  /tmp/ccsQReYy.s 			page 91


 5019      74757300 
 5020              	.LASF136:
 5021 0238 5243435F 		.ascii	"RCC_GetSYSCLKSource\000"
 5021      47657453 
 5021      5953434C 
 5021      4B536F75 
 5021      72636500 
 5022              	.LASF127:
 5023 024c 5243435F 		.ascii	"RCC_WaitForHSEStartUp\000"
 5023      57616974 
 5023      466F7248 
 5023      53455374 
 5023      61727455 
 5024              	.LASF61:
 5025 0262 62697473 		.ascii	"bitstatus\000"
 5025      74617475 
 5025      7300
 5026              	.LASF56:
 5027 026c 48434C4B 		.ascii	"HCLK_Frequency\000"
 5027      5F467265 
 5027      7175656E 
 5027      637900
 5028              	.LASF48:
 5029 027b 49545374 		.ascii	"ITStatus\000"
 5029      61747573 
 5029      00
 5030              	.LASF110:
 5031 0284 5243435F 		.ascii	"RCC_APB1Periph\000"
 5031      41504231 
 5031      50657269 
 5031      706800
 5032              	.LASF95:
 5033 0293 706C6C76 		.ascii	"pllvco\000"
 5033      636F00
 5034              	.LASF12:
 5035 029a 756E7369 		.ascii	"unsigned int\000"
 5035      676E6564 
 5035      20696E74 
 5035      00
 5036              	.LASF99:
 5037 02a7 5243435F 		.ascii	"RCC_RTCCLKConfig\000"
 5037      52544343 
 5037      4C4B436F 
 5037      6E666967 
 5037      00
 5038              	.LASF79:
 5039 02b8 5243435F 		.ascii	"RCC_MCO1Config\000"
 5039      4D434F31 
 5039      436F6E66 
 5039      696700
 5040              	.LASF131:
 5041 02c7 474E5520 		.ascii	"GNU C 4.9.3 20150529 (release) [ARM/embedded-4_9-br"
 5041      4320342E 
 5041      392E3320 
 5041      32303135 
 5041      30353239 
 5042 02fa 616E6368 		.ascii	"anch revision 227977] -mcpu=cortex-m4 -mfloat-abi=h"
ARM GAS  /tmp/ccsQReYy.s 			page 92


 5042      20726576 
 5042      6973696F 
 5042      6E203232 
 5042      37393737 
 5043 032d 61726420 		.ascii	"ard -mfpu=fpv4-sp-d16 -mno-thumb-interwork -mthumb "
 5043      2D6D6670 
 5043      753D6670 
 5043      76342D73 
 5043      702D6431 
 5044 0360 2D676764 		.ascii	"-ggdb -O2 -std=gnu99 -fomit-frame-pointer -falign-f"
 5044      62202D4F 
 5044      32202D73 
 5044      74643D67 
 5044      6E753939 
 5045 0393 756E6374 		.ascii	"unctions=16 -ffunction-sections -fdata-sections -fn"
 5045      696F6E73 
 5045      3D313620 
 5045      2D666675 
 5045      6E637469 
 5046 03c6 6F2D636F 		.ascii	"o-common -fsingle-precision-constant\000"
 5046      6D6D6F6E 
 5046      202D6673 
 5046      696E676C 
 5046      652D7072 
 5047              	.LASF88:
 5048 03eb 5243435F 		.ascii	"RCC_SYSCLK\000"
 5048      53595343 
 5048      4C4B00
 5049              	.LASF76:
 5050 03f6 5243435F 		.ascii	"RCC_PLLI2SCmd\000"
 5050      504C4C49 
 5050      3253436D 
 5050      6400
 5051              	.LASF45:
 5052 0404 5243435F 		.ascii	"RCC_TypeDef\000"
 5052      54797065 
 5052      44656600 
 5053              	.LASF94:
 5054 0410 70726573 		.ascii	"presc\000"
 5054      6300
 5055              	.LASF100:
 5056 0416 5243435F 		.ascii	"RCC_RTCCLKSource\000"
 5056      52544343 
 5056      4C4B536F 
 5056      75726365 
 5056      00
 5057              	.LASF5:
 5058 0427 73686F72 		.ascii	"short unsigned int\000"
 5058      7420756E 
 5058      7369676E 
 5058      65642069 
 5058      6E7400
 5059              	.LASF44:
 5060 043a 504C4C49 		.ascii	"PLLI2SCFGR\000"
 5060      32534346 
 5060      475200
 5061              	.LASF118:
ARM GAS  /tmp/ccsQReYy.s 			page 93


 5062 0445 5243435F 		.ascii	"RCC_AHB2PeriphClockLPModeCmd\000"
 5062      41484232 
 5062      50657269 
 5062      7068436C 
 5062      6F636B4C 
 5063              	.LASF108:
 5064 0462 5243435F 		.ascii	"RCC_AHB2Periph\000"
 5064      41484232 
 5064      50657269 
 5064      706800
 5065              	.LASF39:
 5066 0471 41504232 		.ascii	"APB2LPENR\000"
 5066      4C50454E 
 5066      5200
 5067              	.LASF84:
 5068 047b 5243435F 		.ascii	"RCC_MCO2Div\000"
 5068      4D434F32 
 5068      44697600 
 5069              	.LASF101:
 5070 0487 5243435F 		.ascii	"RCC_RTCCLKCmd\000"
 5070      52544343 
 5070      4C4B436D 
 5070      6400
 5071              	.LASF17:
 5072 0495 73697A65 		.ascii	"sizetype\000"
 5072      74797065 
 5072      00
 5073              	.LASF52:
 5074 049e 4552524F 		.ascii	"ERROR\000"
 5074      5200
 5075              	.LASF78:
 5076 04a4 5243435F 		.ascii	"RCC_ClockSecuritySystemCmd\000"
 5076      436C6F63 
 5076      6B536563 
 5076      75726974 
 5076      79537973 
 5077              	.LASF29:
 5078 04bf 41484233 		.ascii	"AHB3ENR\000"
 5078      454E5200 
 5079              	.LASF121:
 5080 04c7 5243435F 		.ascii	"RCC_LSEModeConfig\000"
 5080      4C53454D 
 5080      6F646543 
 5080      6F6E6669 
 5080      6700
 5081              	.LASF35:
 5082 04d9 41484232 		.ascii	"AHB2LPENR\000"
 5082      4C50454E 
 5082      5200
 5083              	.LASF51:
 5084 04e3 46756E63 		.ascii	"FunctionalState\000"
 5084      74696F6E 
 5084      616C5374 
 5084      61746500 
 5085              	.LASF81:
 5086 04f3 5243435F 		.ascii	"RCC_MCO1Div\000"
 5086      4D434F31 
ARM GAS  /tmp/ccsQReYy.s 			page 94


 5086      44697600 
 5087              	.LASF116:
 5088 04ff 5243435F 		.ascii	"RCC_APB2PeriphResetCmd\000"
 5088      41504232 
 5088      50657269 
 5088      70685265 
 5088      73657443 
 5089              	.LASF83:
 5090 0516 5243435F 		.ascii	"RCC_MCO2Source\000"
 5090      4D434F32 
 5090      536F7572 
 5090      636500
 5091              	.LASF23:
 5092 0525 52455345 		.ascii	"RESERVED0\000"
 5092      52564544 
 5092      3000
 5093              	.LASF26:
 5094 052f 52455345 		.ascii	"RESERVED1\000"
 5094      52564544 
 5094      3100
 5095              	.LASF30:
 5096 0539 52455345 		.ascii	"RESERVED2\000"
 5096      52564544 
 5096      3200
 5097              	.LASF33:
 5098 0543 52455345 		.ascii	"RESERVED3\000"
 5098      52564544 
 5098      3300
 5099              	.LASF37:
 5100 054d 52455345 		.ascii	"RESERVED4\000"
 5100      52564544 
 5100      3400
 5101              	.LASF40:
 5102 0557 52455345 		.ascii	"RESERVED5\000"
 5102      52564544 
 5102      3500
 5103              	.LASF42:
 5104 0561 52455345 		.ascii	"RESERVED6\000"
 5104      52564544 
 5104      3600
 5105              	.LASF46:
 5106 056b 52455345 		.ascii	"RESET\000"
 5106      5400
 5107              	.LASF134:
 5108 0571 5243435F 		.ascii	"RCC_GetFlagStatus\000"
 5108      47657446 
 5108      6C616753 
 5108      74617475 
 5108      7300
 5109              	.LASF65:
 5110 0583 5243435F 		.ascii	"RCC_HSEConfig\000"
 5110      48534543 
 5110      6F6E6669 
 5110      6700
 5111              	.LASF15:
 5112 0591 696E7433 		.ascii	"int32_t\000"
 5112      325F7400 
ARM GAS  /tmp/ccsQReYy.s 			page 95


 5113              	.LASF1:
 5114 0599 756E7369 		.ascii	"unsigned char\000"
 5114      676E6564 
 5114      20636861 
 5114      7200
 5115              	.LASF2:
 5116 05a7 73686F72 		.ascii	"short int\000"
 5116      7420696E 
 5116      7400
 5117              	.LASF104:
 5118 05b1 5243435F 		.ascii	"RCC_TIMCLKPrescaler\000"
 5118      54494D43 
 5118      4C4B5072 
 5118      65736361 
 5118      6C657200 
 5119              	.LASF75:
 5120 05c5 5243435F 		.ascii	"RCC_PLLCmd\000"
 5120      504C4C43 
 5120      6D6400
 5121              	.LASF105:
 5122 05d0 5243435F 		.ascii	"RCC_AHB1PeriphClockCmd\000"
 5122      41484231 
 5122      50657269 
 5122      7068436C 
 5122      6F636B43 
 5123              	.LASF32:
 5124 05e7 41504232 		.ascii	"APB2ENR\000"
 5124      454E5200 
 5125              	.LASF22:
 5126 05ef 41484233 		.ascii	"AHB3RSTR\000"
 5126      52535452 
 5126      00
 5127              	.LASF122:
 5128 05f8 5243435F 		.ascii	"RCC_Mode\000"
 5128      4D6F6465 
 5128      00
 5129              	.LASF114:
 5130 0601 5243435F 		.ascii	"RCC_AHB2PeriphResetCmd\000"
 5130      41484232 
 5130      50657269 
 5130      70685265 
 5130      73657443 
 5131              	.LASF119:
 5132 0618 5243435F 		.ascii	"RCC_APB1PeriphClockLPModeCmd\000"
 5132      41504231 
 5132      50657269 
 5132      7068436C 
 5132      6F636B4C 
 5133              	.LASF91:
 5134 0635 5243435F 		.ascii	"RCC_PCLK2Config\000"
 5134      50434C4B 
 5134      32436F6E 
 5134      66696700 
 5135              	.LASF86:
 5136 0645 5243435F 		.ascii	"RCC_SYSCLKSource\000"
 5136      53595343 
 5136      4C4B536F 
ARM GAS  /tmp/ccsQReYy.s 			page 96


 5136      75726365 
 5136      00
 5137              	.LASF67:
 5138 0656 5243435F 		.ascii	"RCC_HSE\000"
 5138      48534500 
 5139              	.LASF16:
 5140 065e 75696E74 		.ascii	"uint32_t\000"
 5140      33325F74 
 5140      00
 5141              	.LASF57:
 5142 0667 50434C4B 		.ascii	"PCLK1_Frequency\000"
 5142      315F4672 
 5142      65717565 
 5142      6E637900 
 5143              	.LASF130:
 5144 0677 41504241 		.ascii	"APBAHBPrescTable\000"
 5144      48425072 
 5144      65736354 
 5144      61626C65 
 5144      00
 5145              	.LASF66:
 5146 0688 5243435F 		.ascii	"RCC_AdjustHSICalibrationValue\000"
 5146      41646A75 
 5146      73744853 
 5146      4943616C 
 5146      69627261 
 5147              	.LASF64:
 5148 06a6 68736573 		.ascii	"hsestatus\000"
 5148      74617475 
 5148      7300
 5149              	.LASF9:
 5150 06b0 6C6F6E67 		.ascii	"long unsigned int\000"
 5150      20756E73 
 5150      69676E65 
 5150      6420696E 
 5150      7400
 5151              	.LASF92:
 5152 06c2 5243435F 		.ascii	"RCC_GetClocksFreq\000"
 5152      47657443 
 5152      6C6F636B 
 5152      73467265 
 5152      7100
 5153              	.LASF111:
 5154 06d4 5243435F 		.ascii	"RCC_APB2PeriphClockCmd\000"
 5154      41504232 
 5154      50657269 
 5154      7068436C 
 5154      6F636B43 
 5155              	.LASF4:
 5156 06eb 5F5F7569 		.ascii	"__uint16_t\000"
 5156      6E743136 
 5156      5F7400
 5157              	.LASF21:
 5158 06f6 41484232 		.ascii	"AHB2RSTR\000"
 5158      52535452 
 5158      00
 5159              	.LASF125:
ARM GAS  /tmp/ccsQReYy.s 			page 97


 5160 06ff 5243435F 		.ascii	"RCC_DeInit\000"
 5160      4465496E 
 5160      697400
 5161              	.LASF6:
 5162 070a 5F5F696E 		.ascii	"__int32_t\000"
 5162      7433325F 
 5162      7400
 5163              	.LASF128:
 5164 0714 5243435F 		.ascii	"RCC_GetITStatus\000"
 5164      47657449 
 5164      54537461 
 5164      74757300 
 5165              	.LASF31:
 5166 0724 41504231 		.ascii	"APB1ENR\000"
 5166      454E5200 
 5167              	.LASF28:
 5168 072c 41484232 		.ascii	"AHB2ENR\000"
 5168      454E5200 
 5169              	.LASF70:
 5170 0734 5243435F 		.ascii	"RCC_HSICmd\000"
 5170      48534943 
 5170      6D6400
 5171              	.LASF62:
 5172 073f 73746172 		.ascii	"startupcounter\000"
 5172      74757063 
 5172      6F756E74 
 5172      657200
 5173              	.LASF112:
 5174 074e 5243435F 		.ascii	"RCC_APB2Periph\000"
 5174      41504232 
 5174      50657269 
 5174      706800
 5175              	.LASF103:
 5176 075d 5243435F 		.ascii	"RCC_TIMCLKPresConfig\000"
 5176      54494D43 
 5176      4C4B5072 
 5176      6573436F 
 5176      6E666967 
 5177              	.LASF82:
 5178 0772 5243435F 		.ascii	"RCC_MCO2Config\000"
 5178      4D434F32 
 5178      436F6E66 
 5178      696700
 5179              	.LASF43:
 5180 0781 53534347 		.ascii	"SSCGR\000"
 5180      5200
 5181              	.LASF36:
 5182 0787 41484233 		.ascii	"AHB3LPENR\000"
 5182      4C50454E 
 5182      5200
 5183              	.LASF24:
 5184 0791 41504231 		.ascii	"APB1RSTR\000"
 5184      52535452 
 5184      00
 5185              	.LASF74:
 5186 079a 5243435F 		.ascii	"RCC_LSICmd\000"
 5186      4C534943 
ARM GAS  /tmp/ccsQReYy.s 			page 98


 5186      6D6400
 5187              	.LASF63:
 5188 07a5 73746174 		.ascii	"status\000"
 5188      757300
 5189              	.LASF41:
 5190 07ac 42444352 		.ascii	"BDCR\000"
 5190      00
 5191              	.LASF109:
 5192 07b1 5243435F 		.ascii	"RCC_APB1PeriphClockCmd\000"
 5192      41504231 
 5192      50657269 
 5192      7068436C 
 5192      6F636B43 
 5193              	.LASF123:
 5194 07c8 5243435F 		.ascii	"RCC_ITConfig\000"
 5194      4954436F 
 5194      6E666967 
 5194      00
 5195              	.LASF132:
 5196 07d5 43686962 		.ascii	"ChibiOS_3.0.2/ext/stdperiph_stm32f4/src/stm32f4xx_r"
 5196      694F535F 
 5196      332E302E 
 5196      322F6578 
 5196      742F7374 
 5197 0808 63632E63 		.ascii	"cc.c\000"
 5197      00
 5198              	.LASF13:
 5199 080d 75696E74 		.ascii	"uint8_t\000"
 5199      385F7400 
 5200              	.LASF53:
 5201 0815 53554343 		.ascii	"SUCCESS\000"
 5201      45535300 
 5202              	.LASF59:
 5203 081d 5243435F 		.ascii	"RCC_ClocksTypeDef\000"
 5203      436C6F63 
 5203      6B735479 
 5203      70654465 
 5203      6600
 5204              	.LASF133:
 5205 082f 2F686F6D 		.ascii	"/home/benjamin/Skrivbord/SP-RCCar/Embedded/RC_Contr"
 5205      652F6265 
 5205      6E6A616D 
 5205      696E2F53 
 5205      6B726976 
 5206 0862 6F6C6C65 		.ascii	"oller/\000"
 5206      722F00
 5207              	.LASF27:
 5208 0869 41484231 		.ascii	"AHB1ENR\000"
 5208      454E5200 
 5209              	.LASF19:
 5210 0871 43464752 		.ascii	"CFGR\000"
 5210      00
 5211              	.LASF7:
 5212 0876 6C6F6E67 		.ascii	"long int\000"
 5212      20696E74 
 5212      00
 5213              	.LASF97:
ARM GAS  /tmp/ccsQReYy.s 			page 99


 5214 087f 706C6C73 		.ascii	"pllsource\000"
 5214      6F757263 
 5214      6500
 5215              	.LASF117:
 5216 0889 5243435F 		.ascii	"RCC_AHB1PeriphClockLPModeCmd\000"
 5216      41484231 
 5216      50657269 
 5216      7068436C 
 5216      6F636B4C 
 5217              		.ident	"GCC: (GNU Tools for ARM Embedded Processors) 4.9.3 20150529 (release) [ARM/embedded-4_9-br
ARM GAS  /tmp/ccsQReYy.s 			page 100


DEFINED SYMBOLS
                            *ABS*:0000000000000000 stm32f4xx_rcc.c
     /tmp/ccsQReYy.s:21     .text.RCC_DeInit:0000000000000000 $t
     /tmp/ccsQReYy.s:27     .text.RCC_DeInit:0000000000000000 RCC_DeInit
     /tmp/ccsQReYy.s:65     .text.RCC_DeInit:000000000000002c $d
     /tmp/ccsQReYy.s:71     .text.RCC_HSEConfig:0000000000000000 $t
     /tmp/ccsQReYy.s:77     .text.RCC_HSEConfig:0000000000000000 RCC_HSEConfig
     /tmp/ccsQReYy.s:95     .text.RCC_HSEConfig:000000000000000c $d
     /tmp/ccsQReYy.s:100    .text.RCC_WaitForHSEStartUp:0000000000000000 $t
     /tmp/ccsQReYy.s:106    .text.RCC_WaitForHSEStartUp:0000000000000000 RCC_WaitForHSEStartUp
     /tmp/ccsQReYy.s:177    .text.RCC_WaitForHSEStartUp:0000000000000030 $d
     /tmp/ccsQReYy.s:182    .text.RCC_AdjustHSICalibrationValue:0000000000000000 $t
     /tmp/ccsQReYy.s:188    .text.RCC_AdjustHSICalibrationValue:0000000000000000 RCC_AdjustHSICalibrationValue
     /tmp/ccsQReYy.s:212    .text.RCC_AdjustHSICalibrationValue:0000000000000010 $d
     /tmp/ccsQReYy.s:217    .text.RCC_HSICmd:0000000000000000 $t
     /tmp/ccsQReYy.s:223    .text.RCC_HSICmd:0000000000000000 RCC_HSICmd
     /tmp/ccsQReYy.s:238    .text.RCC_HSICmd:0000000000000008 $d
     /tmp/ccsQReYy.s:243    .text.RCC_LSEConfig:0000000000000000 $t
     /tmp/ccsQReYy.s:249    .text.RCC_LSEConfig:0000000000000000 RCC_LSEConfig
     /tmp/ccsQReYy.s:284    .text.RCC_LSEConfig:000000000000001c $d
     /tmp/ccsQReYy.s:289    .text.RCC_LSICmd:0000000000000000 $t
     /tmp/ccsQReYy.s:295    .text.RCC_LSICmd:0000000000000000 RCC_LSICmd
     /tmp/ccsQReYy.s:310    .text.RCC_LSICmd:0000000000000008 $d
     /tmp/ccsQReYy.s:315    .text.RCC_PLLCmd:0000000000000000 $t
     /tmp/ccsQReYy.s:321    .text.RCC_PLLCmd:0000000000000000 RCC_PLLCmd
     /tmp/ccsQReYy.s:336    .text.RCC_PLLCmd:0000000000000008 $d
     /tmp/ccsQReYy.s:341    .text.RCC_PLLI2SCmd:0000000000000000 $t
     /tmp/ccsQReYy.s:347    .text.RCC_PLLI2SCmd:0000000000000000 RCC_PLLI2SCmd
     /tmp/ccsQReYy.s:362    .text.RCC_PLLI2SCmd:0000000000000008 $d
     /tmp/ccsQReYy.s:367    .text.RCC_PLLSAICmd:0000000000000000 $t
     /tmp/ccsQReYy.s:373    .text.RCC_PLLSAICmd:0000000000000000 RCC_PLLSAICmd
     /tmp/ccsQReYy.s:388    .text.RCC_PLLSAICmd:0000000000000008 $d
     /tmp/ccsQReYy.s:393    .text.RCC_ClockSecuritySystemCmd:0000000000000000 $t
     /tmp/ccsQReYy.s:399    .text.RCC_ClockSecuritySystemCmd:0000000000000000 RCC_ClockSecuritySystemCmd
     /tmp/ccsQReYy.s:414    .text.RCC_ClockSecuritySystemCmd:0000000000000008 $d
     /tmp/ccsQReYy.s:419    .text.RCC_MCO1Config:0000000000000000 $t
     /tmp/ccsQReYy.s:425    .text.RCC_MCO1Config:0000000000000000 RCC_MCO1Config
     /tmp/ccsQReYy.s:451    .text.RCC_MCO1Config:0000000000000010 $d
     /tmp/ccsQReYy.s:456    .text.RCC_MCO2Config:0000000000000000 $t
     /tmp/ccsQReYy.s:462    .text.RCC_MCO2Config:0000000000000000 RCC_MCO2Config
     /tmp/ccsQReYy.s:488    .text.RCC_MCO2Config:0000000000000010 $d
     /tmp/ccsQReYy.s:493    .text.RCC_SYSCLKConfig:0000000000000000 $t
     /tmp/ccsQReYy.s:499    .text.RCC_SYSCLKConfig:0000000000000000 RCC_SYSCLKConfig
     /tmp/ccsQReYy.s:523    .text.RCC_SYSCLKConfig:0000000000000010 $d
     /tmp/ccsQReYy.s:528    .text.RCC_GetSYSCLKSource:0000000000000000 $t
     /tmp/ccsQReYy.s:534    .text.RCC_GetSYSCLKSource:0000000000000000 RCC_GetSYSCLKSource
     /tmp/ccsQReYy.s:550    .text.RCC_GetSYSCLKSource:000000000000000c $d
     /tmp/ccsQReYy.s:555    .text.RCC_HCLKConfig:0000000000000000 $t
     /tmp/ccsQReYy.s:561    .text.RCC_HCLKConfig:0000000000000000 RCC_HCLKConfig
     /tmp/ccsQReYy.s:585    .text.RCC_HCLKConfig:0000000000000010 $d
     /tmp/ccsQReYy.s:590    .text.RCC_PCLK1Config:0000000000000000 $t
     /tmp/ccsQReYy.s:596    .text.RCC_PCLK1Config:0000000000000000 RCC_PCLK1Config
     /tmp/ccsQReYy.s:620    .text.RCC_PCLK1Config:0000000000000010 $d
     /tmp/ccsQReYy.s:625    .text.RCC_PCLK2Config:0000000000000000 $t
     /tmp/ccsQReYy.s:631    .text.RCC_PCLK2Config:0000000000000000 RCC_PCLK2Config
     /tmp/ccsQReYy.s:655    .text.RCC_PCLK2Config:0000000000000010 $d
     /tmp/ccsQReYy.s:660    .text.RCC_GetClocksFreq:0000000000000000 $t
ARM GAS  /tmp/ccsQReYy.s 			page 101


     /tmp/ccsQReYy.s:666    .text.RCC_GetClocksFreq:0000000000000000 RCC_GetClocksFreq
     /tmp/ccsQReYy.s:795    .text.RCC_GetClocksFreq:0000000000000088 $d
     /tmp/ccsQReYy.s:803    .text.RCC_RTCCLKConfig:0000000000000000 $t
     /tmp/ccsQReYy.s:809    .text.RCC_RTCCLKConfig:0000000000000000 RCC_RTCCLKConfig
     /tmp/ccsQReYy.s:849    .text.RCC_RTCCLKConfig:000000000000002c $d
     /tmp/ccsQReYy.s:854    .text.RCC_RTCCLKCmd:0000000000000000 $t
     /tmp/ccsQReYy.s:860    .text.RCC_RTCCLKCmd:0000000000000000 RCC_RTCCLKCmd
     /tmp/ccsQReYy.s:875    .text.RCC_RTCCLKCmd:0000000000000008 $d
     /tmp/ccsQReYy.s:880    .text.RCC_BackupResetCmd:0000000000000000 $t
     /tmp/ccsQReYy.s:886    .text.RCC_BackupResetCmd:0000000000000000 RCC_BackupResetCmd
     /tmp/ccsQReYy.s:901    .text.RCC_BackupResetCmd:0000000000000008 $d
     /tmp/ccsQReYy.s:906    .text.RCC_TIMCLKPresConfig:0000000000000000 $t
     /tmp/ccsQReYy.s:912    .text.RCC_TIMCLKPresConfig:0000000000000000 RCC_TIMCLKPresConfig
     /tmp/ccsQReYy.s:927    .text.RCC_TIMCLKPresConfig:0000000000000008 $d
     /tmp/ccsQReYy.s:932    .text.RCC_AHB1PeriphClockCmd:0000000000000000 $t
     /tmp/ccsQReYy.s:938    .text.RCC_AHB1PeriphClockCmd:0000000000000000 RCC_AHB1PeriphClockCmd
     /tmp/ccsQReYy.s:966    .text.RCC_AHB1PeriphClockCmd:0000000000000014 $d
     /tmp/ccsQReYy.s:971    .text.RCC_AHB2PeriphClockCmd:0000000000000000 $t
     /tmp/ccsQReYy.s:977    .text.RCC_AHB2PeriphClockCmd:0000000000000000 RCC_AHB2PeriphClockCmd
     /tmp/ccsQReYy.s:1005   .text.RCC_AHB2PeriphClockCmd:0000000000000014 $d
     /tmp/ccsQReYy.s:1010   .text.RCC_APB1PeriphClockCmd:0000000000000000 $t
     /tmp/ccsQReYy.s:1016   .text.RCC_APB1PeriphClockCmd:0000000000000000 RCC_APB1PeriphClockCmd
     /tmp/ccsQReYy.s:1044   .text.RCC_APB1PeriphClockCmd:0000000000000014 $d
     /tmp/ccsQReYy.s:1049   .text.RCC_APB2PeriphClockCmd:0000000000000000 $t
     /tmp/ccsQReYy.s:1055   .text.RCC_APB2PeriphClockCmd:0000000000000000 RCC_APB2PeriphClockCmd
     /tmp/ccsQReYy.s:1083   .text.RCC_APB2PeriphClockCmd:0000000000000014 $d
     /tmp/ccsQReYy.s:1088   .text.RCC_AHB1PeriphResetCmd:0000000000000000 $t
     /tmp/ccsQReYy.s:1094   .text.RCC_AHB1PeriphResetCmd:0000000000000000 RCC_AHB1PeriphResetCmd
     /tmp/ccsQReYy.s:1122   .text.RCC_AHB1PeriphResetCmd:0000000000000014 $d
     /tmp/ccsQReYy.s:1127   .text.RCC_AHB2PeriphResetCmd:0000000000000000 $t
     /tmp/ccsQReYy.s:1133   .text.RCC_AHB2PeriphResetCmd:0000000000000000 RCC_AHB2PeriphResetCmd
     /tmp/ccsQReYy.s:1161   .text.RCC_AHB2PeriphResetCmd:0000000000000014 $d
     /tmp/ccsQReYy.s:1166   .text.RCC_APB1PeriphResetCmd:0000000000000000 $t
     /tmp/ccsQReYy.s:1172   .text.RCC_APB1PeriphResetCmd:0000000000000000 RCC_APB1PeriphResetCmd
     /tmp/ccsQReYy.s:1200   .text.RCC_APB1PeriphResetCmd:0000000000000014 $d
     /tmp/ccsQReYy.s:1205   .text.RCC_APB2PeriphResetCmd:0000000000000000 $t
     /tmp/ccsQReYy.s:1211   .text.RCC_APB2PeriphResetCmd:0000000000000000 RCC_APB2PeriphResetCmd
     /tmp/ccsQReYy.s:1239   .text.RCC_APB2PeriphResetCmd:0000000000000014 $d
     /tmp/ccsQReYy.s:1244   .text.RCC_AHB1PeriphClockLPModeCmd:0000000000000000 $t
     /tmp/ccsQReYy.s:1250   .text.RCC_AHB1PeriphClockLPModeCmd:0000000000000000 RCC_AHB1PeriphClockLPModeCmd
     /tmp/ccsQReYy.s:1278   .text.RCC_AHB1PeriphClockLPModeCmd:0000000000000014 $d
     /tmp/ccsQReYy.s:1283   .text.RCC_AHB2PeriphClockLPModeCmd:0000000000000000 $t
     /tmp/ccsQReYy.s:1289   .text.RCC_AHB2PeriphClockLPModeCmd:0000000000000000 RCC_AHB2PeriphClockLPModeCmd
     /tmp/ccsQReYy.s:1317   .text.RCC_AHB2PeriphClockLPModeCmd:0000000000000014 $d
     /tmp/ccsQReYy.s:1322   .text.RCC_APB1PeriphClockLPModeCmd:0000000000000000 $t
     /tmp/ccsQReYy.s:1328   .text.RCC_APB1PeriphClockLPModeCmd:0000000000000000 RCC_APB1PeriphClockLPModeCmd
     /tmp/ccsQReYy.s:1356   .text.RCC_APB1PeriphClockLPModeCmd:0000000000000014 $d
     /tmp/ccsQReYy.s:1361   .text.RCC_APB2PeriphClockLPModeCmd:0000000000000000 $t
     /tmp/ccsQReYy.s:1367   .text.RCC_APB2PeriphClockLPModeCmd:0000000000000000 RCC_APB2PeriphClockLPModeCmd
     /tmp/ccsQReYy.s:1395   .text.RCC_APB2PeriphClockLPModeCmd:0000000000000014 $d
     /tmp/ccsQReYy.s:1400   .text.RCC_LSEModeConfig:0000000000000000 $t
     /tmp/ccsQReYy.s:1406   .text.RCC_LSEModeConfig:0000000000000000 RCC_LSEModeConfig
     /tmp/ccsQReYy.s:1429   .text.RCC_LSEModeConfig:0000000000000014 $d
     /tmp/ccsQReYy.s:1434   .text.RCC_ITConfig:0000000000000000 $t
     /tmp/ccsQReYy.s:1440   .text.RCC_ITConfig:0000000000000000 RCC_ITConfig
     /tmp/ccsQReYy.s:1468   .text.RCC_ITConfig:0000000000000014 $d
     /tmp/ccsQReYy.s:1473   .text.RCC_GetFlagStatus:0000000000000000 $t
ARM GAS  /tmp/ccsQReYy.s 			page 102


     /tmp/ccsQReYy.s:1479   .text.RCC_GetFlagStatus:0000000000000000 RCC_GetFlagStatus
     /tmp/ccsQReYy.s:1528   .text.RCC_GetFlagStatus:0000000000000030 $d
     /tmp/ccsQReYy.s:1533   .text.RCC_ClearFlag:0000000000000000 $t
     /tmp/ccsQReYy.s:1539   .text.RCC_ClearFlag:0000000000000000 RCC_ClearFlag
     /tmp/ccsQReYy.s:1555   .text.RCC_ClearFlag:000000000000000c $d
     /tmp/ccsQReYy.s:1560   .text.RCC_GetITStatus:0000000000000000 $t
     /tmp/ccsQReYy.s:1566   .text.RCC_GetITStatus:0000000000000000 RCC_GetITStatus
     /tmp/ccsQReYy.s:1588   .text.RCC_GetITStatus:0000000000000010 $d
     /tmp/ccsQReYy.s:1593   .text.RCC_ClearITPendingBit:0000000000000000 $t
     /tmp/ccsQReYy.s:1599   .text.RCC_ClearITPendingBit:0000000000000000 RCC_ClearITPendingBit
     /tmp/ccsQReYy.s:1614   .text.RCC_ClearITPendingBit:0000000000000008 $d
     /tmp/ccsQReYy.s:1619   .data.APBAHBPrescTable:0000000000000000 $d
     /tmp/ccsQReYy.s:1623   .data.APBAHBPrescTable:0000000000000000 APBAHBPrescTable
                     .debug_frame:0000000000000010 $d

NO UNDEFINED SYMBOLS
