ARM GAS  /tmp/ccyVqq4Z.s 			page 1


   1              		.syntax unified
   2              		.cpu cortex-m4
   3              		.eabi_attribute 27, 1
   4              		.eabi_attribute 28, 1
   5              		.fpu fpv4-sp-d16
   6              		.eabi_attribute 20, 1
   7              		.eabi_attribute 21, 1
   8              		.eabi_attribute 23, 3
   9              		.eabi_attribute 24, 1
  10              		.eabi_attribute 25, 1
  11              		.eabi_attribute 26, 1
  12              		.eabi_attribute 30, 2
  13              		.eabi_attribute 34, 1
  14              		.eabi_attribute 18, 4
  15              		.thumb
  16              		.file	"usb.c"
  17              		.text
  18              	.Ltext0:
  19              		.cfi_sections	.debug_frame
  20              		.section	.text.usbInit,"ax",%progbits
  21              		.align	2
  22              		.p2align 4,,15
  23              		.global	usbInit
  24              		.thumb
  25              		.thumb_func
  26              		.type	usbInit, %function
  27              	usbInit:
  28              	.LFB259:
  29              		.file 1 "ChibiOS_3.0.2/os/hal/src/usb.c"
  30              		.loc 1 254 0
  31              		.cfi_startproc
  32              		@ args = 0, pretend = 0, frame = 0
  33              		@ frame_needed = 0, uses_anonymous_args = 0
  34              		@ link register save eliminated.
  35              		.loc 1 256 0
  36 0000 FFF7FEBF 		b	usb_lld_init
  37              	.LVL0:
  38              		.cfi_endproc
  39              	.LFE259:
  40              		.size	usbInit, .-usbInit
  41              		.section	.text.usbObjectInit,"ax",%progbits
  42              		.align	2
  43              		.p2align 4,,15
  44              		.global	usbObjectInit
  45              		.thumb
  46              		.thumb_func
  47              		.type	usbObjectInit, %function
  48              	usbObjectInit:
  49              	.LFB260:
  50              		.loc 1 266 0
  51              		.cfi_startproc
  52              		@ args = 0, pretend = 0, frame = 0
  53              		@ frame_needed = 0, uses_anonymous_args = 0
  54              		@ link register save eliminated.
  55              	.LVL1:
  56              		.loc 1 270 0
  57 0000 0023     		movs	r3, #0
ARM GAS  /tmp/ccyVqq4Z.s 			page 2


  58              		.loc 1 269 0
  59 0002 0122     		movs	r2, #1
  60 0004 0270     		strb	r2, [r0]
  61              		.loc 1 270 0
  62 0006 4360     		str	r3, [r0, #4]
  63              	.LVL2:
  64              		.loc 1 272 0
  65 0008 C361     		str	r3, [r0, #28]
  66              		.loc 1 273 0
  67 000a 8362     		str	r3, [r0, #40]
  68              	.LVL3:
  69              		.loc 1 272 0
  70 000c 0362     		str	r3, [r0, #32]
  71              		.loc 1 273 0
  72 000e C362     		str	r3, [r0, #44]
  73              	.LVL4:
  74              		.loc 1 272 0
  75 0010 4362     		str	r3, [r0, #36]
  76              		.loc 1 273 0
  77 0012 0363     		str	r3, [r0, #48]
  78              	.LVL5:
  79              		.loc 1 275 0
  80 0014 0381     		strh	r3, [r0, #8]	@ movhi
  81              		.loc 1 276 0
  82 0016 4381     		strh	r3, [r0, #10]	@ movhi
  83 0018 7047     		bx	lr
  84              		.cfi_endproc
  85              	.LFE260:
  86              		.size	usbObjectInit, .-usbObjectInit
  87 001a 00BF     		.section	.text.usbStart,"ax",%progbits
  88              		.align	2
  89              		.p2align 4,,15
  90              		.global	usbStart
  91              		.thumb
  92              		.thumb_func
  93              		.type	usbStart, %function
  94              	usbStart:
  95              	.LFB261:
  96              		.loc 1 287 0
  97              		.cfi_startproc
  98              		@ args = 0, pretend = 0, frame = 0
  99              		@ frame_needed = 0, uses_anonymous_args = 0
 100              	.LVL6:
 101 0000 10B5     		push	{r4, lr}
 102              		.cfi_def_cfa_offset 8
 103              		.cfi_offset 4, -8
 104              		.cfi_offset 14, -4
 105              		.loc 1 287 0
 106 0002 0446     		mov	r4, r0
 107              	.LBB198:
 108              	.LBB199:
 109              	.LBB200:
 110              	.LBB201:
 111              	.LBB202:
 112              		.file 2 "ChibiOS_3.0.2/os/ext/CMSIS/include/core_cmFunc.h"
 113              		.loc 2 342 0
 114              	@ 342 "ChibiOS_3.0.2/os/ext/CMSIS/include/core_cmFunc.h" 1
ARM GAS  /tmp/ccyVqq4Z.s 			page 3


 115 0004 72B6     		cpsid i
 116              	@ 0 "" 2
 117              		.thumb
 118              	.LBE202:
 119              	.LBE201:
 120              	.LBE200:
 121              	.LBE199:
 122              	.LBE198:
 123              		.loc 1 297 0
 124 0006 0023     		movs	r3, #0
 125 0008 C360     		str	r3, [r0, #12]
 126 000a 0361     		str	r3, [r0, #16]
 127 000c 4361     		str	r3, [r0, #20]
 128 000e 8361     		str	r3, [r0, #24]
 129              		.loc 1 295 0
 130 0010 4160     		str	r1, [r0, #4]
 131              	.LVL7:
 132              		.loc 1 299 0
 133 0012 FFF7FEFF 		bl	usb_lld_start
 134              	.LVL8:
 135              		.loc 1 300 0
 136 0016 0223     		movs	r3, #2
 137 0018 2370     		strb	r3, [r4]
 138              	.LBB203:
 139              	.LBB204:
 140              	.LBB205:
 141              	.LBB206:
 142              	.LBB207:
 143              	.LBB208:
 144              		.loc 2 331 0
 145              	@ 331 "ChibiOS_3.0.2/os/ext/CMSIS/include/core_cmFunc.h" 1
 146 001a 62B6     		cpsie i
 147              	@ 0 "" 2
 148              		.thumb
 149 001c 10BD     		pop	{r4, pc}
 150              	.LBE208:
 151              	.LBE207:
 152              	.LBE206:
 153              	.LBE205:
 154              	.LBE204:
 155              	.LBE203:
 156              		.cfi_endproc
 157              	.LFE261:
 158              		.size	usbStart, .-usbStart
 159 001e 00BF     		.section	.text.usbStop,"ax",%progbits
 160              		.align	2
 161              		.p2align 4,,15
 162              		.global	usbStop
 163              		.thumb
 164              		.thumb_func
 165              		.type	usbStop, %function
 166              	usbStop:
 167              	.LFB262:
 168              		.loc 1 311 0
 169              		.cfi_startproc
 170              		@ args = 0, pretend = 0, frame = 0
 171              		@ frame_needed = 0, uses_anonymous_args = 0
ARM GAS  /tmp/ccyVqq4Z.s 			page 4


 172              	.LVL9:
 173 0000 10B5     		push	{r4, lr}
 174              		.cfi_def_cfa_offset 8
 175              		.cfi_offset 4, -8
 176              		.cfi_offset 14, -4
 177              		.loc 1 311 0
 178 0002 0446     		mov	r4, r0
 179              	.LBB209:
 180              	.LBB210:
 181              	.LBB211:
 182              	.LBB212:
 183              	.LBB213:
 184              		.loc 2 342 0
 185              	@ 342 "ChibiOS_3.0.2/os/ext/CMSIS/include/core_cmFunc.h" 1
 186 0004 72B6     		cpsid i
 187              	@ 0 "" 2
 188              		.thumb
 189              	.LBE213:
 190              	.LBE212:
 191              	.LBE211:
 192              	.LBE210:
 193              	.LBE209:
 194              		.loc 1 319 0
 195 0006 FFF7FEFF 		bl	usb_lld_stop
 196              	.LVL10:
 197              		.loc 1 320 0
 198 000a 0123     		movs	r3, #1
 199 000c 2370     		strb	r3, [r4]
 200              	.LBB214:
 201              	.LBB215:
 202              	.LBB216:
 203              	.LBB217:
 204              	.LBB218:
 205              	.LBB219:
 206              		.loc 2 331 0
 207              	@ 331 "ChibiOS_3.0.2/os/ext/CMSIS/include/core_cmFunc.h" 1
 208 000e 62B6     		cpsie i
 209              	@ 0 "" 2
 210              		.thumb
 211 0010 10BD     		pop	{r4, pc}
 212              	.LBE219:
 213              	.LBE218:
 214              	.LBE217:
 215              	.LBE216:
 216              	.LBE215:
 217              	.LBE214:
 218              		.cfi_endproc
 219              	.LFE262:
 220              		.size	usbStop, .-usbStop
 221 0012 00BF     		.section	.text.usbInitEndpointI,"ax",%progbits
 222              		.align	2
 223              		.p2align 4,,15
 224              		.global	usbInitEndpointI
 225              		.thumb
 226              		.thumb_func
 227              		.type	usbInitEndpointI, %function
 228              	usbInitEndpointI:
ARM GAS  /tmp/ccyVqq4Z.s 			page 5


 229              	.LFB263:
 230              		.loc 1 338 0
 231              		.cfi_startproc
 232              		@ args = 0, pretend = 0, frame = 0
 233              		@ frame_needed = 0, uses_anonymous_args = 0
 234              	.LVL11:
 235 0000 70B5     		push	{r4, r5, r6, lr}
 236              		.cfi_def_cfa_offset 16
 237              		.cfi_offset 4, -16
 238              		.cfi_offset 5, -12
 239              		.cfi_offset 6, -8
 240              		.cfi_offset 14, -4
 241              		.loc 1 338 0
 242 0002 0646     		mov	r6, r0
 243              		.loc 1 347 0
 244 0004 5069     		ldr	r0, [r2, #20]
 245              	.LVL12:
 246              		.loc 1 338 0
 247 0006 1446     		mov	r4, r2
 248 0008 0D46     		mov	r5, r1
 249              		.loc 1 347 0
 250 000a 18B1     		cbz	r0, .L8
 251              		.loc 1 348 0
 252 000c 0021     		movs	r1, #0
 253              	.LVL13:
 254 000e 1422     		movs	r2, #20
 255              	.LVL14:
 256 0010 FFF7FEFF 		bl	memset
 257              	.LVL15:
 258              	.L8:
 259              		.loc 1 350 0
 260 0014 A069     		ldr	r0, [r4, #24]
 261 0016 18B1     		cbz	r0, .L9
 262              		.loc 1 351 0
 263 0018 0021     		movs	r1, #0
 264 001a 1422     		movs	r2, #20
 265 001c FFF7FEFF 		bl	memset
 266              	.LVL16:
 267              	.L9:
 268              		.loc 1 354 0
 269 0020 06EB8503 		add	r3, r6, r5, lsl #2
 270              		.loc 1 357 0
 271 0024 3046     		mov	r0, r6
 272              		.loc 1 354 0
 273 0026 DC60     		str	r4, [r3, #12]
 274              		.loc 1 357 0
 275 0028 2946     		mov	r1, r5
 276              		.loc 1 358 0
 277 002a BDE87040 		pop	{r4, r5, r6, lr}
 278              		.cfi_restore 14
 279              		.cfi_restore 6
 280              		.cfi_restore 5
 281              		.cfi_restore 4
 282              		.cfi_def_cfa_offset 0
 283              	.LVL17:
 284              		.loc 1 357 0
 285 002e FFF7FEBF 		b	usb_lld_init_endpoint
ARM GAS  /tmp/ccyVqq4Z.s 			page 6


 286              	.LVL18:
 287              		.cfi_endproc
 288              	.LFE263:
 289              		.size	usbInitEndpointI, .-usbInitEndpointI
 290 0032 00BF     		.section	.text.usbDisableEndpointsI,"ax",%progbits
 291              		.align	2
 292              		.p2align 4,,15
 293              		.global	usbDisableEndpointsI
 294              		.thumb
 295              		.thumb_func
 296              		.type	usbDisableEndpointsI, %function
 297              	usbDisableEndpointsI:
 298              	.LFB264:
 299              		.loc 1 371 0
 300              		.cfi_startproc
 301              		@ args = 0, pretend = 0, frame = 0
 302              		@ frame_needed = 0, uses_anonymous_args = 0
 303              		@ link register save eliminated.
 304              	.LVL19:
 305 0000 10B4     		push	{r4}
 306              		.cfi_def_cfa_offset 4
 307              		.cfi_offset 4, -4
 308              		.loc 1 379 0
 309 0002 4189     		ldrh	r1, [r0, #10]
 310              		.loc 1 378 0
 311 0004 0489     		ldrh	r4, [r0, #8]
 312              		.loc 1 381 0
 313 0006 0022     		movs	r2, #0
 314              		.loc 1 378 0
 315 0008 24F00104 		bic	r4, r4, #1
 316              		.loc 1 379 0
 317 000c 21F00101 		bic	r1, r1, #1
 318              		.loc 1 378 0
 319 0010 0481     		strh	r4, [r0, #8]	@ movhi
 320              		.loc 1 381 0
 321 0012 0261     		str	r2, [r0, #16]
 322              		.loc 1 379 0
 323 0014 4181     		strh	r1, [r0, #10]	@ movhi
 324              	.LVL20:
 325              		.loc 1 381 0
 326 0016 4261     		str	r2, [r0, #20]
 327              	.LVL21:
 328 0018 8261     		str	r2, [r0, #24]
 329              	.LVL22:
 330              		.loc 1 386 0
 331 001a 5DF8044B 		ldr	r4, [sp], #4
 332              		.cfi_restore 4
 333              		.cfi_def_cfa_offset 0
 334              		.loc 1 385 0
 335 001e FFF7FEBF 		b	usb_lld_disable_endpoints
 336              	.LVL23:
 337              		.cfi_endproc
 338              	.LFE264:
 339              		.size	usbDisableEndpointsI, .-usbDisableEndpointsI
 340 0022 00BF     		.section	.text.usbPrepareReceive,"ax",%progbits
 341              		.align	2
 342              		.p2align 4,,15
ARM GAS  /tmp/ccyVqq4Z.s 			page 7


 343              		.global	usbPrepareReceive
 344              		.thumb
 345              		.thumb_func
 346              		.type	usbPrepareReceive, %function
 347              	usbPrepareReceive:
 348              	.LFB265:
 349              		.loc 1 400 0
 350              		.cfi_startproc
 351              		@ args = 0, pretend = 0, frame = 0
 352              		@ frame_needed = 0, uses_anonymous_args = 0
 353              		@ link register save eliminated.
 354              	.LVL24:
 355 0000 30B4     		push	{r4, r5}
 356              		.cfi_def_cfa_offset 8
 357              		.cfi_offset 4, -8
 358              		.cfi_offset 5, -4
 359              		.loc 1 401 0
 360 0002 00EB8104 		add	r4, r0, r1, lsl #2
 361              		.loc 1 403 0
 362 0006 0025     		movs	r5, #0
 363              		.loc 1 401 0
 364 0008 E468     		ldr	r4, [r4, #12]
 365 000a A469     		ldr	r4, [r4, #24]
 366              	.LVL25:
 367              		.loc 1 404 0
 368 000c E260     		str	r2, [r4, #12]
 369              		.loc 1 405 0
 370 000e 6360     		str	r3, [r4, #4]
 371              		.loc 1 403 0
 372 0010 2570     		strb	r5, [r4]
 373              		.loc 1 406 0
 374 0012 A560     		str	r5, [r4, #8]
 375              		.loc 1 409 0
 376 0014 30BC     		pop	{r4, r5}
 377              		.cfi_restore 5
 378              		.cfi_restore 4
 379              		.cfi_def_cfa_offset 0
 380              	.LVL26:
 381              		.loc 1 408 0
 382 0016 FFF7FEBF 		b	usb_lld_prepare_receive
 383              	.LVL27:
 384              		.cfi_endproc
 385              	.LFE265:
 386              		.size	usbPrepareReceive, .-usbPrepareReceive
 387 001a 00BF     		.section	.text.usbPrepareTransmit,"ax",%progbits
 388              		.align	2
 389              		.p2align 4,,15
 390              		.global	usbPrepareTransmit
 391              		.thumb
 392              		.thumb_func
 393              		.type	usbPrepareTransmit, %function
 394              	usbPrepareTransmit:
 395              	.LFB266:
 396              		.loc 1 426 0
 397              		.cfi_startproc
 398              		@ args = 0, pretend = 0, frame = 0
 399              		@ frame_needed = 0, uses_anonymous_args = 0
ARM GAS  /tmp/ccyVqq4Z.s 			page 8


 400              		@ link register save eliminated.
 401              	.LVL28:
 402 0000 30B4     		push	{r4, r5}
 403              		.cfi_def_cfa_offset 8
 404              		.cfi_offset 4, -8
 405              		.cfi_offset 5, -4
 406              		.loc 1 427 0
 407 0002 00EB8104 		add	r4, r0, r1, lsl #2
 408              		.loc 1 429 0
 409 0006 0025     		movs	r5, #0
 410              		.loc 1 427 0
 411 0008 E468     		ldr	r4, [r4, #12]
 412 000a 6469     		ldr	r4, [r4, #20]
 413              	.LVL29:
 414              		.loc 1 430 0
 415 000c E260     		str	r2, [r4, #12]
 416              		.loc 1 431 0
 417 000e 6360     		str	r3, [r4, #4]
 418              		.loc 1 429 0
 419 0010 2570     		strb	r5, [r4]
 420              		.loc 1 432 0
 421 0012 A560     		str	r5, [r4, #8]
 422              		.loc 1 435 0
 423 0014 30BC     		pop	{r4, r5}
 424              		.cfi_restore 5
 425              		.cfi_restore 4
 426              		.cfi_def_cfa_offset 0
 427              	.LVL30:
 428              		.loc 1 434 0
 429 0016 FFF7FEBF 		b	usb_lld_prepare_transmit
 430              	.LVL31:
 431              		.cfi_endproc
 432              	.LFE266:
 433              		.size	usbPrepareTransmit, .-usbPrepareTransmit
 434 001a 00BF     		.section	.text.usbPrepareQueuedReceive,"ax",%progbits
 435              		.align	2
 436              		.p2align 4,,15
 437              		.global	usbPrepareQueuedReceive
 438              		.thumb
 439              		.thumb_func
 440              		.type	usbPrepareQueuedReceive, %function
 441              	usbPrepareQueuedReceive:
 442              	.LFB267:
 443              		.loc 1 455 0
 444              		.cfi_startproc
 445              		@ args = 0, pretend = 0, frame = 0
 446              		@ frame_needed = 0, uses_anonymous_args = 0
 447              		@ link register save eliminated.
 448              	.LVL32:
 449 0000 70B4     		push	{r4, r5, r6}
 450              		.cfi_def_cfa_offset 12
 451              		.cfi_offset 4, -12
 452              		.cfi_offset 5, -8
 453              		.cfi_offset 6, -4
 454              		.loc 1 456 0
 455 0002 00EB8104 		add	r4, r0, r1, lsl #2
 456              		.loc 1 458 0
ARM GAS  /tmp/ccyVqq4Z.s 			page 9


 457 0006 0126     		movs	r6, #1
 458              		.loc 1 456 0
 459 0008 E468     		ldr	r4, [r4, #12]
 460 000a A469     		ldr	r4, [r4, #24]
 461              	.LVL33:
 462              		.loc 1 461 0
 463 000c 0025     		movs	r5, #0
 464              		.loc 1 459 0
 465 000e E260     		str	r2, [r4, #12]
 466              		.loc 1 460 0
 467 0010 6360     		str	r3, [r4, #4]
 468              		.loc 1 458 0
 469 0012 2670     		strb	r6, [r4]
 470              		.loc 1 461 0
 471 0014 A560     		str	r5, [r4, #8]
 472              		.loc 1 464 0
 473 0016 70BC     		pop	{r4, r5, r6}
 474              		.cfi_restore 6
 475              		.cfi_restore 5
 476              		.cfi_restore 4
 477              		.cfi_def_cfa_offset 0
 478              	.LVL34:
 479              		.loc 1 463 0
 480 0018 FFF7FEBF 		b	usb_lld_prepare_receive
 481              	.LVL35:
 482              		.cfi_endproc
 483              	.LFE267:
 484              		.size	usbPrepareQueuedReceive, .-usbPrepareQueuedReceive
 485              		.section	.text.usbPrepareQueuedTransmit,"ax",%progbits
 486              		.align	2
 487              		.p2align 4,,15
 488              		.global	usbPrepareQueuedTransmit
 489              		.thumb
 490              		.thumb_func
 491              		.type	usbPrepareQueuedTransmit, %function
 492              	usbPrepareQueuedTransmit:
 493              	.LFB268:
 494              		.loc 1 481 0
 495              		.cfi_startproc
 496              		@ args = 0, pretend = 0, frame = 0
 497              		@ frame_needed = 0, uses_anonymous_args = 0
 498              		@ link register save eliminated.
 499              	.LVL36:
 500 0000 70B4     		push	{r4, r5, r6}
 501              		.cfi_def_cfa_offset 12
 502              		.cfi_offset 4, -12
 503              		.cfi_offset 5, -8
 504              		.cfi_offset 6, -4
 505              		.loc 1 482 0
 506 0002 00EB8104 		add	r4, r0, r1, lsl #2
 507              		.loc 1 484 0
 508 0006 0126     		movs	r6, #1
 509              		.loc 1 482 0
 510 0008 E468     		ldr	r4, [r4, #12]
 511 000a 6469     		ldr	r4, [r4, #20]
 512              	.LVL37:
 513              		.loc 1 487 0
ARM GAS  /tmp/ccyVqq4Z.s 			page 10


 514 000c 0025     		movs	r5, #0
 515              		.loc 1 485 0
 516 000e E260     		str	r2, [r4, #12]
 517              		.loc 1 486 0
 518 0010 6360     		str	r3, [r4, #4]
 519              		.loc 1 484 0
 520 0012 2670     		strb	r6, [r4]
 521              		.loc 1 487 0
 522 0014 A560     		str	r5, [r4, #8]
 523              		.loc 1 490 0
 524 0016 70BC     		pop	{r4, r5, r6}
 525              		.cfi_restore 6
 526              		.cfi_restore 5
 527              		.cfi_restore 4
 528              		.cfi_def_cfa_offset 0
 529              	.LVL38:
 530              		.loc 1 489 0
 531 0018 FFF7FEBF 		b	usb_lld_prepare_transmit
 532              	.LVL39:
 533              		.cfi_endproc
 534              	.LFE268:
 535              		.size	usbPrepareQueuedTransmit, .-usbPrepareQueuedTransmit
 536              		.section	.text.usbStartReceiveI,"ax",%progbits
 537              		.align	2
 538              		.p2align 4,,15
 539              		.global	usbStartReceiveI
 540              		.thumb
 541              		.thumb_func
 542              		.type	usbStartReceiveI, %function
 543              	usbStartReceiveI:
 544              	.LFB269:
 545              		.loc 1 506 0
 546              		.cfi_startproc
 547              		@ args = 0, pretend = 0, frame = 0
 548              		@ frame_needed = 0, uses_anonymous_args = 0
 549              	.LVL40:
 550              		.loc 1 511 0
 551 0000 0122     		movs	r2, #1
 552              		.loc 1 506 0
 553 0002 70B5     		push	{r4, r5, r6, lr}
 554              		.cfi_def_cfa_offset 16
 555              		.cfi_offset 4, -16
 556              		.cfi_offset 5, -12
 557              		.cfi_offset 6, -8
 558              		.cfi_offset 14, -4
 559              		.loc 1 511 0
 560 0004 02FA01F3 		lsl	r3, r2, r1
 561 0008 4489     		ldrh	r4, [r0, #10]
 562 000a 9BB2     		uxth	r3, r3
 563 000c 13EA0406 		ands	r6, r3, r4
 564 0010 01D0     		beq	.L32
 565              		.loc 1 512 0
 566 0012 1046     		mov	r0, r2
 567              	.LVL41:
 568              		.loc 1 518 0
 569 0014 70BD     		pop	{r4, r5, r6, pc}
 570              	.LVL42:
ARM GAS  /tmp/ccyVqq4Z.s 			page 11


 571              	.L32:
 572              		.loc 1 515 0
 573 0016 2343     		orrs	r3, r3, r4
 574 0018 4381     		strh	r3, [r0, #10]	@ movhi
 575              		.loc 1 516 0
 576 001a FFF7FEFF 		bl	usb_lld_start_out
 577              	.LVL43:
 578              		.loc 1 517 0
 579 001e 3046     		mov	r0, r6
 580 0020 70BD     		pop	{r4, r5, r6, pc}
 581              		.cfi_endproc
 582              	.LFE269:
 583              		.size	usbStartReceiveI, .-usbStartReceiveI
 584 0022 00BF     		.section	.text.usbStartTransmitI,"ax",%progbits
 585              		.align	2
 586              		.p2align 4,,15
 587              		.global	usbStartTransmitI
 588              		.thumb
 589              		.thumb_func
 590              		.type	usbStartTransmitI, %function
 591              	usbStartTransmitI:
 592              	.LFB270:
 593              		.loc 1 534 0
 594              		.cfi_startproc
 595              		@ args = 0, pretend = 0, frame = 0
 596              		@ frame_needed = 0, uses_anonymous_args = 0
 597              	.LVL44:
 598              		.loc 1 539 0
 599 0000 0122     		movs	r2, #1
 600              		.loc 1 534 0
 601 0002 70B5     		push	{r4, r5, r6, lr}
 602              		.cfi_def_cfa_offset 16
 603              		.cfi_offset 4, -16
 604              		.cfi_offset 5, -12
 605              		.cfi_offset 6, -8
 606              		.cfi_offset 14, -4
 607              		.loc 1 539 0
 608 0004 02FA01F3 		lsl	r3, r2, r1
 609 0008 0489     		ldrh	r4, [r0, #8]
 610 000a 9BB2     		uxth	r3, r3
 611 000c 13EA0406 		ands	r6, r3, r4
 612 0010 01D0     		beq	.L37
 613              		.loc 1 540 0
 614 0012 1046     		mov	r0, r2
 615              	.LVL45:
 616              		.loc 1 546 0
 617 0014 70BD     		pop	{r4, r5, r6, pc}
 618              	.LVL46:
 619              	.L37:
 620              		.loc 1 543 0
 621 0016 2343     		orrs	r3, r3, r4
 622 0018 0381     		strh	r3, [r0, #8]	@ movhi
 623              		.loc 1 544 0
 624 001a FFF7FEFF 		bl	usb_lld_start_in
 625              	.LVL47:
 626              		.loc 1 545 0
 627 001e 3046     		mov	r0, r6
ARM GAS  /tmp/ccyVqq4Z.s 			page 12


 628 0020 70BD     		pop	{r4, r5, r6, pc}
 629              		.cfi_endproc
 630              	.LFE270:
 631              		.size	usbStartTransmitI, .-usbStartTransmitI
 632 0022 00BF     		.section	.text.usbStallReceiveI,"ax",%progbits
 633              		.align	2
 634              		.p2align 4,,15
 635              		.global	usbStallReceiveI
 636              		.thumb
 637              		.thumb_func
 638              		.type	usbStallReceiveI, %function
 639              	usbStallReceiveI:
 640              	.LFB271:
 641              		.loc 1 560 0
 642              		.cfi_startproc
 643              		@ args = 0, pretend = 0, frame = 0
 644              		@ frame_needed = 0, uses_anonymous_args = 0
 645              	.LVL48:
 646 0000 10B5     		push	{r4, lr}
 647              		.cfi_def_cfa_offset 8
 648              		.cfi_offset 4, -8
 649              		.cfi_offset 14, -4
 650              		.loc 1 565 0
 651 0002 0123     		movs	r3, #1
 652 0004 4489     		ldrh	r4, [r0, #10]
 653 0006 03FA01F2 		lsl	r2, r3, r1
 654 000a 1440     		ands	r4, r2, r4
 655 000c 01D0     		beq	.L42
 656              		.loc 1 566 0
 657 000e 1846     		mov	r0, r3
 658              	.LVL49:
 659              		.loc 1 571 0
 660 0010 10BD     		pop	{r4, pc}
 661              	.LVL50:
 662              	.L42:
 663              		.loc 1 569 0
 664 0012 FFF7FEFF 		bl	usb_lld_stall_out
 665              	.LVL51:
 666              		.loc 1 570 0
 667 0016 2046     		mov	r0, r4
 668 0018 10BD     		pop	{r4, pc}
 669              		.cfi_endproc
 670              	.LFE271:
 671              		.size	usbStallReceiveI, .-usbStallReceiveI
 672 001a 00BF     		.section	.text.usbStallTransmitI,"ax",%progbits
 673              		.align	2
 674              		.p2align 4,,15
 675              		.global	usbStallTransmitI
 676              		.thumb
 677              		.thumb_func
 678              		.type	usbStallTransmitI, %function
 679              	usbStallTransmitI:
 680              	.LFB272:
 681              		.loc 1 585 0
 682              		.cfi_startproc
 683              		@ args = 0, pretend = 0, frame = 0
 684              		@ frame_needed = 0, uses_anonymous_args = 0
ARM GAS  /tmp/ccyVqq4Z.s 			page 13


 685              	.LVL52:
 686 0000 10B5     		push	{r4, lr}
 687              		.cfi_def_cfa_offset 8
 688              		.cfi_offset 4, -8
 689              		.cfi_offset 14, -4
 690              		.loc 1 590 0
 691 0002 0123     		movs	r3, #1
 692 0004 0489     		ldrh	r4, [r0, #8]
 693 0006 03FA01F2 		lsl	r2, r3, r1
 694 000a 1440     		ands	r4, r2, r4
 695 000c 01D0     		beq	.L47
 696              		.loc 1 591 0
 697 000e 1846     		mov	r0, r3
 698              	.LVL53:
 699              		.loc 1 596 0
 700 0010 10BD     		pop	{r4, pc}
 701              	.LVL54:
 702              	.L47:
 703              		.loc 1 594 0
 704 0012 FFF7FEFF 		bl	usb_lld_stall_in
 705              	.LVL55:
 706              		.loc 1 595 0
 707 0016 2046     		mov	r0, r4
 708 0018 10BD     		pop	{r4, pc}
 709              		.cfi_endproc
 710              	.LFE272:
 711              		.size	usbStallTransmitI, .-usbStallTransmitI
 712 001a 00BF     		.section	.text._usb_reset,"ax",%progbits
 713              		.align	2
 714              		.p2align 4,,15
 715              		.global	_usb_reset
 716              		.thumb
 717              		.thumb_func
 718              		.type	_usb_reset, %function
 719              	_usb_reset:
 720              	.LFB273:
 721              		.loc 1 607 0
 722              		.cfi_startproc
 723              		@ args = 0, pretend = 0, frame = 0
 724              		@ frame_needed = 0, uses_anonymous_args = 0
 725              		@ link register save eliminated.
 726              	.LVL56:
 727              		.loc 1 611 0
 728 0000 0022     		movs	r2, #0
 729              		.loc 1 610 0
 730 0002 0221     		movs	r1, #2
 731 0004 0170     		strb	r1, [r0]
 732              		.loc 1 611 0
 733 0006 A0F84C20 		strh	r2, [r0, #76]	@ movhi
 734              		.loc 1 612 0
 735 000a 80F84E20 		strb	r2, [r0, #78]
 736              		.loc 1 613 0
 737 000e 80F84F20 		strb	r2, [r0, #79]
 738              		.loc 1 614 0
 739 0012 0281     		strh	r2, [r0, #8]	@ movhi
 740              		.loc 1 615 0
 741 0014 4281     		strh	r2, [r0, #10]	@ movhi
ARM GAS  /tmp/ccyVqq4Z.s 			page 14


 742              	.LVL57:
 743              		.loc 1 619 0
 744 0016 C260     		str	r2, [r0, #12]
 745              	.LVL58:
 746 0018 0261     		str	r2, [r0, #16]
 747              	.LVL59:
 748 001a 4261     		str	r2, [r0, #20]
 749              	.LVL60:
 750 001c 8261     		str	r2, [r0, #24]
 751              	.LVL61:
 752              		.loc 1 623 0
 753 001e 80F83420 		strb	r2, [r0, #52]
 754              		.loc 1 626 0
 755 0022 FFF7FEBF 		b	usb_lld_reset
 756              	.LVL62:
 757              		.cfi_endproc
 758              	.LFE273:
 759              		.size	_usb_reset, .-_usb_reset
 760 0026 00BF     		.section	.text._usb_ep0setup,"ax",%progbits
 761              		.align	2
 762              		.p2align 4,,15
 763              		.global	_usb_ep0setup
 764              		.thumb
 765              		.thumb_func
 766              		.type	_usb_ep0setup, %function
 767              	_usb_ep0setup:
 768              	.LFB274:
 769              		.loc 1 639 0
 770              		.cfi_startproc
 771              		@ args = 0, pretend = 0, frame = 0
 772              		@ frame_needed = 0, uses_anonymous_args = 0
 773              	.LVL63:
 774 0000 F8B5     		push	{r3, r4, r5, r6, r7, lr}
 775              		.cfi_def_cfa_offset 24
 776              		.cfi_offset 3, -24
 777              		.cfi_offset 4, -20
 778              		.cfi_offset 5, -16
 779              		.cfi_offset 6, -12
 780              		.cfi_offset 7, -8
 781              		.cfi_offset 14, -4
 782              		.loc 1 642 0
 783 0002 0023     		movs	r3, #0
 784              		.loc 1 639 0
 785 0004 0446     		mov	r4, r0
 786              		.loc 1 642 0
 787 0006 80F83430 		strb	r3, [r0, #52]
 788              		.loc 1 643 0
 789 000a 00F14402 		add	r2, r0, #68
 790 000e FFF7FEFF 		bl	usb_lld_read_setup
 791              	.LVL64:
 792              		.loc 1 648 0
 793 0012 6368     		ldr	r3, [r4, #4]
 794 0014 9B68     		ldr	r3, [r3, #8]
 795 0016 4BB3     		cbz	r3, .L54
 796              		.loc 1 649 0 discriminator 1
 797 0018 2046     		mov	r0, r4
 798 001a 9847     		blx	r3
ARM GAS  /tmp/ccyVqq4Z.s 			page 15


 799              	.LVL65:
 800              		.loc 1 648 0 discriminator 1
 801 001c 30B3     		cbz	r0, .L54
 802 001e E56B     		ldr	r5, [r4, #60]
 803 0020 94F84430 		ldrb	r3, [r4, #68]	@ zero_extendqisi2
 804              	.L93:
 805              	.LVL66:
 806              	.LBB284:
 807              	.LBB285:
 808              		.loc 1 55 0
 809 0024 94F84B10 		ldrb	r1, [r4, #75]	@ zero_extendqisi2
 810 0028 94F84A20 		ldrb	r2, [r4, #74]	@ zero_extendqisi2
 811              	.LBE285:
 812              	.LBE284:
 813              		.loc 1 676 0
 814 002c 42EA0122 		orr	r2, r2, r1, lsl #8
 815              	.LVL67:
 816              		.loc 1 678 0
 817 0030 AA42     		cmp	r2, r5
 818              		.loc 1 679 0
 819 0032 3CBF     		itt	cc
 820 0034 E263     		strcc	r2, [r4, #60]
 821 0036 1546     		movcc	r5, r2
 822              		.loc 1 681 0
 823 0038 13F0800F 		tst	r3, #128
 824              	.LBB286:
 825              	.LBB287:
 826              		.loc 1 427 0
 827 003c E368     		ldr	r3, [r4, #12]
 828              	.LBE287:
 829              	.LBE286:
 830              		.loc 1 681 0
 831 003e 40F08180 		bne	.L119
 832              		.loc 1 707 0
 833 0042 002D     		cmp	r5, #0
 834 0044 69D1     		bne	.L120
 835              	.LBB291:
 836              	.LBB292:
 837              		.loc 1 427 0
 838 0046 5B69     		ldr	r3, [r3, #20]
 839              	.LBE292:
 840              	.LBE291:
 841              		.loc 1 718 0
 842 0048 0522     		movs	r2, #5
 843              	.LVL68:
 844 004a 84F83420 		strb	r2, [r4, #52]
 845              	.LVL69:
 846              	.LBB294:
 847              	.LBB293:
 848              		.loc 1 434 0
 849 004e 2046     		mov	r0, r4
 850              		.loc 1 429 0
 851 0050 1D70     		strb	r5, [r3]
 852              	.LVL70:
 853              		.loc 1 430 0
 854 0052 DD60     		str	r5, [r3, #12]
 855              		.loc 1 431 0
ARM GAS  /tmp/ccyVqq4Z.s 			page 16


 856 0054 5D60     		str	r5, [r3, #4]
 857              		.loc 1 432 0
 858 0056 9D60     		str	r5, [r3, #8]
 859              		.loc 1 434 0
 860 0058 2946     		mov	r1, r5
 861 005a FFF7FEFF 		bl	usb_lld_prepare_transmit
 862              	.LVL71:
 863              	.LBE293:
 864              	.LBE294:
 865              	.LBB295:
 866              	.LBB296:
 867              	.LBB297:
 868              	.LBB298:
 869              	.LBB299:
 870              	.LBB300:
 871              		.loc 2 342 0
 872              	@ 342 "ChibiOS_3.0.2/os/ext/CMSIS/include/core_cmFunc.h" 1
 873 005e 72B6     		cpsid i
 874              	@ 0 "" 2
 875              		.thumb
 876              	.LBE300:
 877              	.LBE299:
 878              	.LBE298:
 879              	.LBE297:
 880              	.LBE296:
 881              	.LBE295:
 882              		.loc 1 722 0
 883 0060 2046     		mov	r0, r4
 884 0062 2946     		mov	r1, r5
 885 0064 FFF7FEFF 		bl	usbStartTransmitI
 886              	.LVL72:
 887              	.LBB301:
 888              	.LBB302:
 889              	.LBB303:
 890              	.LBB304:
 891              	.LBB305:
 892              	.LBB306:
 893              		.loc 2 331 0
 894              	@ 331 "ChibiOS_3.0.2/os/ext/CMSIS/include/core_cmFunc.h" 1
 895 0068 62B6     		cpsie i
 896              	@ 0 "" 2
 897              		.thumb
 898 006a F8BD     		pop	{r3, r4, r5, r6, r7, pc}
 899              	.LVL73:
 900              	.L54:
 901              	.LBE306:
 902              	.LBE305:
 903              	.LBE304:
 904              	.LBE303:
 905              	.LBE302:
 906              	.LBE301:
 907              		.loc 1 654 0
 908 006c 94F84430 		ldrb	r3, [r4, #68]	@ zero_extendqisi2
 909 0070 13F06007 		ands	r7, r3, #96
 910 0074 11D0     		beq	.L121
 911              	.L51:
 912              		.loc 1 660 0
ARM GAS  /tmp/ccyVqq4Z.s 			page 17


 913 0076 2046     		mov	r0, r4
 914 0078 0021     		movs	r1, #0
 915 007a FFF7FEFF 		bl	usb_lld_stall_in
 916              	.LVL74:
 917              		.loc 1 661 0
 918 007e 2046     		mov	r0, r4
 919 0080 0021     		movs	r1, #0
 920 0082 FFF7FEFF 		bl	usb_lld_stall_out
 921              	.LVL75:
 922              		.loc 1 662 0
 923 0086 6368     		ldr	r3, [r4, #4]
 924 0088 1B68     		ldr	r3, [r3]
 925 008a 13B1     		cbz	r3, .L87
 926              		.loc 1 662 0 is_stmt 0 discriminator 1
 927 008c 2046     		mov	r0, r4
 928 008e 0521     		movs	r1, #5
 929 0090 9847     		blx	r3
 930              	.LVL76:
 931              	.L87:
 932              		.loc 1 663 0 is_stmt 1
 933 0092 0623     		movs	r3, #6
 934 0094 84F83430 		strb	r3, [r4, #52]
 935              		.loc 1 664 0
 936 0098 F8BD     		pop	{r3, r4, r5, r6, r7, pc}
 937              	.LVL77:
 938              	.L121:
 939              	.LBB307:
 940              	.LBB308:
 941              		.loc 1 90 0
 942 009a 94F84550 		ldrb	r5, [r4, #69]	@ zero_extendqisi2
 943              		.loc 1 88 0
 944 009e 03F07F02 		and	r2, r3, #127
 945              		.loc 1 89 0
 946 00a2 42EA0526 		orr	r6, r2, r5, lsl #8
 947              		.loc 1 88 0
 948 00a6 B6F5407F 		cmp	r6, #768
 949 00aa 00F0F680 		beq	.L56
 950 00ae 16D9     		bls	.L122
 951 00b0 B6F5C06F 		cmp	r6, #1536
 952 00b4 00F0D880 		beq	.L64
 953 00b8 6DD9     		bls	.L123
 954 00ba B6F5106F 		cmp	r6, #2304
 955 00be 7DD0     		beq	.L68
 956 00c0 40F60242 		movw	r2, #3074
 957 00c4 9642     		cmp	r6, r2
 958 00c6 00F0FB80 		beq	.L61
 959 00ca B6F5006F 		cmp	r6, #2048
 960 00ce D2D1     		bne	.L51
 961              		.loc 1 141 0
 962 00d0 04F14F02 		add	r2, r4, #79
 963 00d4 0125     		movs	r5, #1
 964 00d6 2764     		str	r7, [r4, #64]
 965 00d8 A263     		str	r2, [r4, #56]
 966 00da E563     		str	r5, [r4, #60]
 967 00dc A2E7     		b	.L93
 968              	.L122:
 969              		.loc 1 88 0
ARM GAS  /tmp/ccyVqq4Z.s 			page 18


 970 00de 022E     		cmp	r6, #2
 971 00e0 00F0AB80 		beq	.L58
 972 00e4 40F2A080 		bls	.L124
 973 00e8 B6F5807F 		cmp	r6, #256
 974 00ec 00F08C80 		beq	.L62
 975 00f0 B6F5817F 		cmp	r6, #258
 976 00f4 BFD1     		bne	.L51
 977              		.loc 1 201 0
 978 00f6 94F84620 		ldrb	r2, [r4, #70]	@ zero_extendqisi2
 979 00fa 002A     		cmp	r2, #0
 980 00fc BBD1     		bne	.L51
 981              		.loc 1 205 0
 982 00fe 94F84820 		ldrb	r2, [r4, #72]	@ zero_extendqisi2
 983 0102 12F00F01 		ands	r1, r2, #15
 984 0106 54D0     		beq	.L85
 985              		.loc 1 206 0
 986 0108 1206     		lsls	r2, r2, #24
 987              		.loc 1 207 0
 988 010a 2046     		mov	r0, r4
 989              		.loc 1 206 0
 990 010c 00F10081 		bmi	.L125
 991              	.LVL78:
 992              		.loc 1 210 0
 993 0110 FFF7FEFF 		bl	usb_lld_clear_out
 994              	.LVL79:
 995 0114 94F84430 		ldrb	r3, [r4, #68]	@ zero_extendqisi2
 996 0118 4BE0     		b	.L85
 997              	.LVL80:
 998              	.L120:
 999              	.LBE308:
 1000              	.LBE307:
 1001              	.LBB314:
 1002              	.LBB315:
 1003              		.loc 1 401 0
 1004 011a 9B69     		ldr	r3, [r3, #24]
 1005              	.LBE315:
 1006              	.LBE314:
 1007              		.loc 1 710 0
 1008 011c A26B     		ldr	r2, [r4, #56]
 1009              	.LVL81:
 1010              	.LBB318:
 1011              	.LBB316:
 1012              		.loc 1 403 0
 1013 011e 0026     		movs	r6, #0
 1014              	.LBE316:
 1015              	.LBE318:
 1016              		.loc 1 709 0
 1017 0120 0421     		movs	r1, #4
 1018              	.LVL82:
 1019 0122 84F83410 		strb	r1, [r4, #52]
 1020              	.LBB319:
 1021              	.LBB317:
 1022              		.loc 1 408 0
 1023 0126 2046     		mov	r0, r4
 1024 0128 3146     		mov	r1, r6
 1025              		.loc 1 404 0
 1026 012a DA60     		str	r2, [r3, #12]
ARM GAS  /tmp/ccyVqq4Z.s 			page 19


 1027              	.LVL83:
 1028              		.loc 1 405 0
 1029 012c 5D60     		str	r5, [r3, #4]
 1030              		.loc 1 403 0
 1031 012e 1E70     		strb	r6, [r3]
 1032              		.loc 1 406 0
 1033 0130 9E60     		str	r6, [r3, #8]
 1034              		.loc 1 408 0
 1035 0132 FFF7FEFF 		bl	usb_lld_prepare_receive
 1036              	.LVL84:
 1037              	.LBE317:
 1038              	.LBE319:
 1039              	.LBB320:
 1040              	.LBB321:
 1041              	.LBB322:
 1042              	.LBB323:
 1043              	.LBB324:
 1044              	.LBB325:
 1045              		.loc 2 342 0
 1046              	@ 342 "ChibiOS_3.0.2/os/ext/CMSIS/include/core_cmFunc.h" 1
 1047 0136 72B6     		cpsid i
 1048              	@ 0 "" 2
 1049              		.thumb
 1050              	.LBE325:
 1051              	.LBE324:
 1052              	.LBE323:
 1053              	.LBE322:
 1054              	.LBE321:
 1055              	.LBE320:
 1056              		.loc 1 712 0
 1057 0138 2046     		mov	r0, r4
 1058 013a 3146     		mov	r1, r6
 1059 013c FFF7FEFF 		bl	usbStartReceiveI
 1060              	.LVL85:
 1061              	.LBB326:
 1062              	.LBB327:
 1063              	.LBB328:
 1064              	.LBB329:
 1065              	.LBB330:
 1066              	.LBB331:
 1067              		.loc 2 331 0
 1068              	@ 331 "ChibiOS_3.0.2/os/ext/CMSIS/include/core_cmFunc.h" 1
 1069 0140 62B6     		cpsie i
 1070              	@ 0 "" 2
 1071              		.thumb
 1072 0142 F8BD     		pop	{r3, r4, r5, r6, r7, pc}
 1073              	.LVL86:
 1074              	.L119:
 1075              	.LBE331:
 1076              	.LBE330:
 1077              	.LBE329:
 1078              	.LBE328:
 1079              	.LBE327:
 1080              	.LBE326:
 1081              		.loc 1 683 0
 1082 0144 A5B1     		cbz	r5, .L91
 1083              	.LBB332:
ARM GAS  /tmp/ccyVqq4Z.s 			page 20


 1084              	.LBB288:
 1085              		.loc 1 427 0
 1086 0146 5B69     		ldr	r3, [r3, #20]
 1087              	.LBE288:
 1088              	.LBE332:
 1089              		.loc 1 686 0
 1090 0148 A26B     		ldr	r2, [r4, #56]
 1091              	.LVL87:
 1092              	.LBB333:
 1093              	.LBB289:
 1094              		.loc 1 429 0
 1095 014a 0026     		movs	r6, #0
 1096              	.LBE289:
 1097              	.LBE333:
 1098              		.loc 1 685 0
 1099 014c 0121     		movs	r1, #1
 1100              	.LVL88:
 1101 014e 84F83410 		strb	r1, [r4, #52]
 1102              	.LBB334:
 1103              	.LBB290:
 1104              		.loc 1 434 0
 1105 0152 2046     		mov	r0, r4
 1106 0154 3146     		mov	r1, r6
 1107              		.loc 1 430 0
 1108 0156 DA60     		str	r2, [r3, #12]
 1109              	.LVL89:
 1110              		.loc 1 431 0
 1111 0158 5D60     		str	r5, [r3, #4]
 1112              		.loc 1 429 0
 1113 015a 1E70     		strb	r6, [r3]
 1114              		.loc 1 432 0
 1115 015c 9E60     		str	r6, [r3, #8]
 1116              		.loc 1 434 0
 1117 015e FFF7FEFF 		bl	usb_lld_prepare_transmit
 1118              	.LVL90:
 1119              	.LBE290:
 1120              	.LBE334:
 1121              	.LBB335:
 1122              	.LBB336:
 1123              	.LBB337:
 1124              	.LBB338:
 1125              	.LBB339:
 1126              	.LBB340:
 1127              		.loc 2 342 0
 1128              	@ 342 "ChibiOS_3.0.2/os/ext/CMSIS/include/core_cmFunc.h" 1
 1129 0162 72B6     		cpsid i
 1130              	@ 0 "" 2
 1131              		.thumb
 1132              	.LBE340:
 1133              	.LBE339:
 1134              	.LBE338:
 1135              	.LBE337:
 1136              	.LBE336:
 1137              	.LBE335:
 1138              		.loc 1 688 0
 1139 0164 2046     		mov	r0, r4
 1140 0166 3146     		mov	r1, r6
ARM GAS  /tmp/ccyVqq4Z.s 			page 21


 1141 0168 FFF7FEFF 		bl	usbStartTransmitI
 1142              	.LVL91:
 1143              	.LBB341:
 1144              	.LBB342:
 1145              	.LBB343:
 1146              	.LBB344:
 1147              	.LBB345:
 1148              	.LBB346:
 1149              		.loc 2 331 0
 1150              	@ 331 "ChibiOS_3.0.2/os/ext/CMSIS/include/core_cmFunc.h" 1
 1151 016c 62B6     		cpsie i
 1152              	@ 0 "" 2
 1153              		.thumb
 1154 016e F8BD     		pop	{r3, r4, r5, r6, r7, pc}
 1155              	.LVL92:
 1156              	.L91:
 1157              	.LBE346:
 1158              	.LBE345:
 1159              	.LBE344:
 1160              	.LBE343:
 1161              	.LBE342:
 1162              	.LBE341:
 1163              	.LBB347:
 1164              	.LBB348:
 1165              		.loc 1 401 0
 1166 0170 9B69     		ldr	r3, [r3, #24]
 1167              	.LBE348:
 1168              	.LBE347:
 1169              		.loc 1 694 0
 1170 0172 0322     		movs	r2, #3
 1171              	.LVL93:
 1172 0174 84F83420 		strb	r2, [r4, #52]
 1173              	.LVL94:
 1174              	.LBB350:
 1175              	.LBB349:
 1176              		.loc 1 408 0
 1177 0178 2046     		mov	r0, r4
 1178              		.loc 1 403 0
 1179 017a 1D70     		strb	r5, [r3]
 1180              	.LVL95:
 1181              		.loc 1 404 0
 1182 017c DD60     		str	r5, [r3, #12]
 1183              		.loc 1 405 0
 1184 017e 5D60     		str	r5, [r3, #4]
 1185              		.loc 1 406 0
 1186 0180 9D60     		str	r5, [r3, #8]
 1187              		.loc 1 408 0
 1188 0182 2946     		mov	r1, r5
 1189 0184 FFF7FEFF 		bl	usb_lld_prepare_receive
 1190              	.LVL96:
 1191              	.LBE349:
 1192              	.LBE350:
 1193              	.LBB351:
 1194              	.LBB352:
 1195              	.LBB353:
 1196              	.LBB354:
 1197              	.LBB355:
ARM GAS  /tmp/ccyVqq4Z.s 			page 22


 1198              	.LBB356:
 1199              		.loc 2 342 0
 1200              	@ 342 "ChibiOS_3.0.2/os/ext/CMSIS/include/core_cmFunc.h" 1
 1201 0188 72B6     		cpsid i
 1202              	@ 0 "" 2
 1203              		.thumb
 1204              	.LBE356:
 1205              	.LBE355:
 1206              	.LBE354:
 1207              	.LBE353:
 1208              	.LBE352:
 1209              	.LBE351:
 1210              		.loc 1 698 0
 1211 018a 2046     		mov	r0, r4
 1212 018c 2946     		mov	r1, r5
 1213 018e FFF7FEFF 		bl	usbStartReceiveI
 1214              	.LVL97:
 1215              	.LBB357:
 1216              	.LBB358:
 1217              	.LBB359:
 1218              	.LBB360:
 1219              	.LBB361:
 1220              	.LBB362:
 1221              		.loc 2 331 0
 1222              	@ 331 "ChibiOS_3.0.2/os/ext/CMSIS/include/core_cmFunc.h" 1
 1223 0192 62B6     		cpsie i
 1224              	@ 0 "" 2
 1225              		.thumb
 1226 0194 F8BD     		pop	{r3, r4, r5, r6, r7, pc}
 1227              	.LVL98:
 1228              	.L123:
 1229              	.LBE362:
 1230              	.LBE361:
 1231              	.LBE360:
 1232              	.LBE359:
 1233              	.LBE358:
 1234              	.LBE357:
 1235              	.LBB363:
 1236              	.LBB313:
 1237              		.loc 1 88 0
 1238 0196 40F20232 		movw	r2, #770
 1239 019a 9642     		cmp	r6, r2
 1240 019c 21D0     		beq	.L66
 1241 019e B6F5A06F 		cmp	r6, #1280
 1242 01a2 7FF468AF 		bne	.L51
 1243              		.loc 1 118 0
 1244 01a6 B4F84420 		ldrh	r2, [r4, #68]
 1245 01aa B2F5A06F 		cmp	r2, #1280
 1246 01ae 00F09D80 		beq	.L126
 1247              	.L85:
 1248              		.loc 1 229 0
 1249 01b2 0025     		movs	r5, #0
 1250 01b4 A563     		str	r5, [r4, #56]
 1251 01b6 E563     		str	r5, [r4, #60]
 1252 01b8 2564     		str	r5, [r4, #64]
 1253 01ba 33E7     		b	.L93
 1254              	.L68:
ARM GAS  /tmp/ccyVqq4Z.s 			page 23


 1255              		.loc 1 145 0
 1256 01bc 94F84620 		ldrb	r2, [r4, #70]	@ zero_extendqisi2
 1257 01c0 84F84F20 		strb	r2, [r4, #79]
 1258              		.loc 1 146 0
 1259 01c4 002A     		cmp	r2, #0
 1260 01c6 40F08280 		bne	.L75
 1261              		.loc 1 147 0
 1262 01ca 0322     		movs	r2, #3
 1263 01cc 2270     		strb	r2, [r4]
 1264              	.L76:
 1265              		.loc 1 152 0
 1266 01ce 6268     		ldr	r2, [r4, #4]
 1267 01d0 1268     		ldr	r2, [r2]
 1268 01d2 002A     		cmp	r2, #0
 1269 01d4 EDD0     		beq	.L85
 1270 01d6 2046     		mov	r0, r4
 1271 01d8 0221     		movs	r1, #2
 1272 01da 9047     		blx	r2
 1273              	.LVL99:
 1274 01dc 94F84430 		ldrb	r3, [r4, #68]	@ zero_extendqisi2
 1275 01e0 E7E7     		b	.L85
 1276              	.L66:
 1277              		.loc 1 217 0
 1278 01e2 94F84620 		ldrb	r2, [r4, #70]	@ zero_extendqisi2
 1279 01e6 002A     		cmp	r2, #0
 1280 01e8 7FF445AF 		bne	.L51
 1281              		.loc 1 221 0
 1282 01ec 94F84820 		ldrb	r2, [r4, #72]	@ zero_extendqisi2
 1283 01f0 12F00F01 		ands	r1, r2, #15
 1284 01f4 DDD0     		beq	.L85
 1285              		.loc 1 222 0
 1286 01f6 1306     		lsls	r3, r2, #24
 1287              		.loc 1 223 0
 1288 01f8 2046     		mov	r0, r4
 1289              		.loc 1 222 0
 1290 01fa 00F18E80 		bmi	.L127
 1291              	.LVL100:
 1292              		.loc 1 226 0
 1293 01fe FFF7FEFF 		bl	usb_lld_stall_out
 1294              	.LVL101:
 1295 0202 94F84430 		ldrb	r3, [r4, #68]	@ zero_extendqisi2
 1296 0206 D4E7     		b	.L85
 1297              	.L62:
 1298              		.loc 1 98 0
 1299 0208 94F84620 		ldrb	r2, [r4, #70]	@ zero_extendqisi2
 1300 020c 012A     		cmp	r2, #1
 1301 020e 7FF432AF 		bne	.L51
 1302              		.loc 1 99 0
 1303 0212 B4F84C20 		ldrh	r2, [r4, #76]
 1304              		.loc 1 100 0
 1305 0216 A763     		str	r7, [r4, #56]
 1306              		.loc 1 99 0
 1307 0218 22F00202 		bic	r2, r2, #2
 1308              		.loc 1 100 0
 1309 021c E763     		str	r7, [r4, #60]
 1310 021e 2764     		str	r7, [r4, #64]
 1311 0220 3D46     		mov	r5, r7
ARM GAS  /tmp/ccyVqq4Z.s 			page 24


 1312              		.loc 1 99 0
 1313 0222 A4F84C20 		strh	r2, [r4, #76]	@ movhi
 1314 0226 FDE6     		b	.L93
 1315              	.L124:
 1316              		.loc 1 88 0
 1317 0228 002E     		cmp	r6, #0
 1318 022a 46D1     		bne	.L128
 1319              		.loc 1 93 0
 1320 022c 04F14C02 		add	r2, r4, #76
 1321 0230 0225     		movs	r5, #2
 1322 0232 2664     		str	r6, [r4, #64]
 1323 0234 A263     		str	r2, [r4, #56]
 1324 0236 E563     		str	r5, [r4, #60]
 1325 0238 F4E6     		b	.L93
 1326              	.L58:
 1327              		.loc 1 165 0
 1328 023a 94F84810 		ldrb	r1, [r4, #72]	@ zero_extendqisi2
 1329 023e 11F0800F 		tst	r1, #128
 1330              		.loc 1 166 0
 1331 0242 2046     		mov	r0, r4
 1332 0244 01F00F01 		and	r1, r1, #15
 1333              		.loc 1 165 0
 1334 0248 44D1     		bne	.L129
 1335              	.LVL102:
 1336              		.loc 1 183 0
 1337 024a FFF7FEFF 		bl	usb_lld_get_status_out
 1338              	.LVL103:
 1339 024e 0128     		cmp	r0, #1
 1340 0250 44D0     		beq	.L81
 1341              	.L117:
 1342 0252 0228     		cmp	r0, #2
 1343 0254 7FF40FAF 		bne	.L51
 1344              		.loc 1 191 0
 1345 0258 324B     		ldr	r3, .L130
 1346 025a A363     		str	r3, [r4, #56]
 1347 025c E063     		str	r0, [r4, #60]
 1348 025e 2764     		str	r7, [r4, #64]
 1349 0260 0546     		mov	r5, r0
 1350 0262 94F84430 		ldrb	r3, [r4, #68]	@ zero_extendqisi2
 1351 0266 DDE6     		b	.L93
 1352              	.L64:
 1353              	.LVL104:
 1354              		.loc 1 129 0
 1355 0268 6268     		ldr	r2, [r4, #4]
 1356              	.LBB309:
 1357              	.LBB310:
 1358              		.loc 1 55 0
 1359 026a 94F84900 		ldrb	r0, [r4, #73]	@ zero_extendqisi2
 1360 026e 94F84830 		ldrb	r3, [r4, #72]	@ zero_extendqisi2
 1361              	.LBE310:
 1362              	.LBE309:
 1363              		.loc 1 129 0
 1364 0272 5568     		ldr	r5, [r2, #4]
 1365 0274 94F84710 		ldrb	r1, [r4, #71]	@ zero_extendqisi2
 1366 0278 94F84620 		ldrb	r2, [r4, #70]	@ zero_extendqisi2
 1367 027c 43EA0023 		orr	r3, r3, r0, lsl #8
 1368 0280 2046     		mov	r0, r4
ARM GAS  /tmp/ccyVqq4Z.s 			page 25


 1369 0282 A847     		blx	r5
 1370              	.LVL105:
 1371              		.loc 1 132 0
 1372 0284 0028     		cmp	r0, #0
 1373 0286 3FF4F6AE 		beq	.L51
 1374              		.loc 1 136 0
 1375 028a 4368     		ldr	r3, [r0, #4]
 1376 028c 0568     		ldr	r5, [r0]
 1377 028e E563     		str	r5, [r4, #60]
 1378 0290 A363     		str	r3, [r4, #56]
 1379 0292 2764     		str	r7, [r4, #64]
 1380 0294 94F84430 		ldrb	r3, [r4, #68]	@ zero_extendqisi2
 1381 0298 C4E6     		b	.L93
 1382              	.LVL106:
 1383              	.L56:
 1384              		.loc 1 107 0
 1385 029a 94F84620 		ldrb	r2, [r4, #70]	@ zero_extendqisi2
 1386 029e 012A     		cmp	r2, #1
 1387 02a0 7FF4E9AE 		bne	.L51
 1388              		.loc 1 108 0
 1389 02a4 B4F84C20 		ldrh	r2, [r4, #76]
 1390              		.loc 1 109 0
 1391 02a8 A763     		str	r7, [r4, #56]
 1392              		.loc 1 108 0
 1393 02aa 42F00202 		orr	r2, r2, #2
 1394              		.loc 1 109 0
 1395 02ae E763     		str	r7, [r4, #60]
 1396 02b0 2764     		str	r7, [r4, #64]
 1397 02b2 3D46     		mov	r5, r7
 1398              		.loc 1 108 0
 1399 02b4 A4F84C20 		strh	r2, [r4, #76]	@ movhi
 1400 02b8 B4E6     		b	.L93
 1401              	.L128:
 1402              		.loc 1 88 0
 1403 02ba 012E     		cmp	r6, #1
 1404 02bc 7FF4DBAE 		bne	.L51
 1405              	.L61:
 1406              		.loc 1 160 0
 1407 02c0 194A     		ldr	r2, .L130+4
 1408 02c2 A263     		str	r2, [r4, #56]
 1409 02c4 0225     		movs	r5, #2
 1410 02c6 0022     		movs	r2, #0
 1411 02c8 E563     		str	r5, [r4, #60]
 1412 02ca 2264     		str	r2, [r4, #64]
 1413 02cc AAE6     		b	.L93
 1414              	.L75:
 1415              		.loc 1 150 0
 1416 02ce 0422     		movs	r2, #4
 1417 02d0 2270     		strb	r2, [r4]
 1418 02d2 7CE7     		b	.L76
 1419              	.LVL107:
 1420              	.L129:
 1421              		.loc 1 166 0
 1422 02d4 FFF7FEFF 		bl	usb_lld_get_status_in
 1423              	.LVL108:
 1424 02d8 0128     		cmp	r0, #1
 1425 02da BAD1     		bne	.L117
ARM GAS  /tmp/ccyVqq4Z.s 			page 26


 1426              	.L81:
 1427              		.loc 1 186 0
 1428 02dc 134B     		ldr	r3, .L130+8
 1429 02de A363     		str	r3, [r4, #56]
 1430 02e0 E663     		str	r6, [r4, #60]
 1431 02e2 2764     		str	r7, [r4, #64]
 1432 02e4 3546     		mov	r5, r6
 1433 02e6 94F84430 		ldrb	r3, [r4, #68]	@ zero_extendqisi2
 1434 02ea 9BE6     		b	.L93
 1435              	.L126:
 1436              	.LVL109:
 1437              	.LBB311:
 1438              	.LBB312:
 1439              		.loc 1 66 0
 1440 02ec 94F84630 		ldrb	r3, [r4, #70]	@ zero_extendqisi2
 1441 02f0 84F84E30 		strb	r3, [r4, #78]
 1442              		.loc 1 67 0
 1443 02f4 2046     		mov	r0, r4
 1444 02f6 FFF7FEFF 		bl	usb_lld_set_address
 1445              	.LVL110:
 1446              		.loc 1 68 0
 1447 02fa 6368     		ldr	r3, [r4, #4]
 1448 02fc 1B68     		ldr	r3, [r3]
 1449 02fe 13B1     		cbz	r3, .L74
 1450 0300 2046     		mov	r0, r4
 1451 0302 0121     		movs	r1, #1
 1452 0304 9847     		blx	r3
 1453              	.LVL111:
 1454              	.L74:
 1455              		.loc 1 69 0
 1456 0306 0322     		movs	r2, #3
 1457 0308 94F84430 		ldrb	r3, [r4, #68]	@ zero_extendqisi2
 1458 030c 2270     		strb	r2, [r4]
 1459 030e 50E7     		b	.L85
 1460              	.LVL112:
 1461              	.L125:
 1462              	.LBE312:
 1463              	.LBE311:
 1464              		.loc 1 207 0
 1465 0310 FFF7FEFF 		bl	usb_lld_clear_in
 1466              	.LVL113:
 1467 0314 94F84430 		ldrb	r3, [r4, #68]	@ zero_extendqisi2
 1468 0318 4BE7     		b	.L85
 1469              	.LVL114:
 1470              	.L127:
 1471              		.loc 1 223 0
 1472 031a FFF7FEFF 		bl	usb_lld_stall_in
 1473              	.LVL115:
 1474 031e 94F84430 		ldrb	r3, [r4, #68]	@ zero_extendqisi2
 1475 0322 46E7     		b	.L85
 1476              	.L131:
 1477              		.align	2
 1478              	.L130:
 1479 0324 00000000 		.word	.LANCHOR2
 1480 0328 00000000 		.word	.LANCHOR0
 1481 032c 00000000 		.word	.LANCHOR1
 1482              	.LBE313:
ARM GAS  /tmp/ccyVqq4Z.s 			page 27


 1483              	.LBE363:
 1484              		.cfi_endproc
 1485              	.LFE274:
 1486              		.size	_usb_ep0setup, .-_usb_ep0setup
 1487              		.section	.text._usb_ep0in,"ax",%progbits
 1488              		.align	2
 1489              		.p2align 4,,15
 1490              		.global	_usb_ep0in
 1491              		.thumb
 1492              		.thumb_func
 1493              		.type	_usb_ep0in, %function
 1494              	_usb_ep0in:
 1495              	.LFB275:
 1496              		.loc 1 741 0
 1497              		.cfi_startproc
 1498              		@ args = 0, pretend = 0, frame = 0
 1499              		@ frame_needed = 0, uses_anonymous_args = 0
 1500              	.LVL116:
 1501 0000 38B5     		push	{r3, r4, r5, lr}
 1502              		.cfi_def_cfa_offset 16
 1503              		.cfi_offset 3, -16
 1504              		.cfi_offset 4, -12
 1505              		.cfi_offset 5, -8
 1506              		.cfi_offset 14, -4
 1507              		.loc 1 745 0
 1508 0002 90F83430 		ldrb	r3, [r0, #52]	@ zero_extendqisi2
 1509              		.loc 1 741 0
 1510 0006 0446     		mov	r4, r0
 1511              		.loc 1 745 0
 1512 0008 062B     		cmp	r3, #6
 1513 000a 15D8     		bhi	.L132
 1514 000c DFE803F0 		tbb	[pc, r3]
 1515              	.L135:
 1516 0010 04       		.byte	(.L134-.L135)/2
 1517 0011 31       		.byte	(.L136-.L135)/2
 1518 0012 1C       		.byte	(.L137-.L135)/2
 1519 0013 04       		.byte	(.L134-.L135)/2
 1520 0014 04       		.byte	(.L134-.L135)/2
 1521 0015 15       		.byte	(.L138-.L135)/2
 1522 0016 04       		.byte	(.L134-.L135)/2
 1523 0017 00       		.p2align 1
 1524              	.L134:
 1525              		.loc 1 790 0
 1526 0018 0021     		movs	r1, #0
 1527              	.LVL117:
 1528 001a FFF7FEFF 		bl	usb_lld_stall_in
 1529              	.LVL118:
 1530              		.loc 1 791 0
 1531 001e 2046     		mov	r0, r4
 1532 0020 0021     		movs	r1, #0
 1533 0022 FFF7FEFF 		bl	usb_lld_stall_out
 1534              	.LVL119:
 1535              		.loc 1 792 0
 1536 0026 6368     		ldr	r3, [r4, #4]
 1537 0028 1B68     		ldr	r3, [r3]
 1538 002a 13B1     		cbz	r3, .L142
 1539              		.loc 1 792 0 is_stmt 0 discriminator 1
ARM GAS  /tmp/ccyVqq4Z.s 			page 28


 1540 002c 2046     		mov	r0, r4
 1541 002e 0521     		movs	r1, #5
 1542 0030 9847     		blx	r3
 1543              	.LVL120:
 1544              	.L142:
 1545              		.loc 1 793 0 is_stmt 1
 1546 0032 0623     		movs	r3, #6
 1547 0034 84F83430 		strb	r3, [r4, #52]
 1548              	.L132:
 1549 0038 38BD     		pop	{r3, r4, r5, pc}
 1550              	.LVL121:
 1551              	.L138:
 1552              		.loc 1 775 0
 1553 003a 036C     		ldr	r3, [r0, #64]
 1554 003c 03B1     		cbz	r3, .L141
 1555              		.loc 1 776 0
 1556 003e 9847     		blx	r3
 1557              	.LVL122:
 1558              	.L141:
 1559              		.loc 1 778 0
 1560 0040 0023     		movs	r3, #0
 1561 0042 84F83430 		strb	r3, [r4, #52]
 1562              		.loc 1 779 0
 1563 0046 38BD     		pop	{r3, r4, r5, pc}
 1564              	.LVL123:
 1565              	.L137:
 1566 0048 C368     		ldr	r3, [r0, #12]
 1567              	.LVL124:
 1568              	.L140:
 1569              	.LBB364:
 1570              	.LBB365:
 1571              		.loc 1 401 0
 1572 004a 9B69     		ldr	r3, [r3, #24]
 1573              		.loc 1 403 0
 1574 004c 0025     		movs	r5, #0
 1575              	.LBE365:
 1576              	.LBE364:
 1577              		.loc 1 763 0
 1578 004e 0322     		movs	r2, #3
 1579 0050 84F83420 		strb	r2, [r4, #52]
 1580              	.LVL125:
 1581              	.LBB367:
 1582              	.LBB366:
 1583              		.loc 1 408 0
 1584 0054 2946     		mov	r1, r5
 1585              		.loc 1 403 0
 1586 0056 1D70     		strb	r5, [r3]
 1587              		.loc 1 404 0
 1588 0058 DD60     		str	r5, [r3, #12]
 1589              		.loc 1 405 0
 1590 005a 5D60     		str	r5, [r3, #4]
 1591              		.loc 1 406 0
 1592 005c 9D60     		str	r5, [r3, #8]
 1593              		.loc 1 408 0
 1594 005e 2046     		mov	r0, r4
 1595              	.LVL126:
 1596 0060 FFF7FEFF 		bl	usb_lld_prepare_receive
ARM GAS  /tmp/ccyVqq4Z.s 			page 29


 1597              	.LVL127:
 1598              	.LBE366:
 1599              	.LBE367:
 1600              	.LBB368:
 1601              	.LBB369:
 1602              	.LBB370:
 1603              	.LBB371:
 1604              	.LBB372:
 1605              	.LBB373:
 1606              		.loc 2 342 0
 1607              	@ 342 "ChibiOS_3.0.2/os/ext/CMSIS/include/core_cmFunc.h" 1
 1608 0064 72B6     		cpsid i
 1609              	@ 0 "" 2
 1610              		.thumb
 1611              	.LBE373:
 1612              	.LBE372:
 1613              	.LBE371:
 1614              	.LBE370:
 1615              	.LBE369:
 1616              	.LBE368:
 1617              		.loc 1 767 0
 1618 0066 2046     		mov	r0, r4
 1619 0068 2946     		mov	r1, r5
 1620 006a FFF7FEFF 		bl	usbStartReceiveI
 1621              	.LVL128:
 1622              	.LBB374:
 1623              	.LBB375:
 1624              	.LBB376:
 1625              	.LBB377:
 1626              	.LBB378:
 1627              	.LBB379:
 1628              		.loc 2 331 0
 1629              	@ 331 "ChibiOS_3.0.2/os/ext/CMSIS/include/core_cmFunc.h" 1
 1630 006e 62B6     		cpsie i
 1631              	@ 0 "" 2
 1632              		.thumb
 1633 0070 38BD     		pop	{r3, r4, r5, pc}
 1634              	.LVL129:
 1635              	.L136:
 1636              	.LBE379:
 1637              	.LBE378:
 1638              	.LBE377:
 1639              	.LBE376:
 1640              	.LBE375:
 1641              	.LBE374:
 1642              	.LBB380:
 1643              	.LBB381:
 1644              		.loc 1 55 0
 1645 0072 90F84B20 		ldrb	r2, [r0, #75]	@ zero_extendqisi2
 1646              	.LVL130:
 1647 0076 90F84A30 		ldrb	r3, [r0, #74]	@ zero_extendqisi2
 1648              	.LBE381:
 1649              	.LBE380:
 1650              		.loc 1 751 0
 1651 007a C16B     		ldr	r1, [r0, #60]
 1652              	.LVL131:
 1653              		.loc 1 747 0
ARM GAS  /tmp/ccyVqq4Z.s 			page 30


 1654 007c 43EA0223 		orr	r3, r3, r2, lsl #8
 1655              		.loc 1 751 0
 1656 0080 8B42     		cmp	r3, r1
 1657              		.loc 1 752 0
 1658 0082 C368     		ldr	r3, [r0, #12]
 1659              		.loc 1 751 0
 1660 0084 E1D9     		bls	.L140
 1661              		.loc 1 752 0 discriminator 1
 1662 0086 1D8A     		ldrh	r5, [r3, #16]
 1663 0088 B1FBF5F2 		udiv	r2, r1, r5
 1664              	.LVL132:
 1665 008c 05FB1215 		mls	r5, r5, r2, r1
 1666              		.loc 1 751 0 discriminator 1
 1667 0090 002D     		cmp	r5, #0
 1668 0092 DAD1     		bne	.L140
 1669              	.LVL133:
 1670              	.LBB382:
 1671              	.LBB383:
 1672              		.loc 1 427 0
 1673 0094 5B69     		ldr	r3, [r3, #20]
 1674              	.LVL134:
 1675              		.loc 1 434 0
 1676 0096 2946     		mov	r1, r5
 1677              		.loc 1 429 0
 1678 0098 1D70     		strb	r5, [r3]
 1679              	.LVL135:
 1680              		.loc 1 430 0
 1681 009a DD60     		str	r5, [r3, #12]
 1682              		.loc 1 431 0
 1683 009c 5D60     		str	r5, [r3, #4]
 1684              		.loc 1 432 0
 1685 009e 9D60     		str	r5, [r3, #8]
 1686              		.loc 1 434 0
 1687 00a0 FFF7FEFF 		bl	usb_lld_prepare_transmit
 1688              	.LVL136:
 1689              	.LBE383:
 1690              	.LBE382:
 1691              	.LBB384:
 1692              	.LBB385:
 1693              	.LBB386:
 1694              	.LBB387:
 1695              	.LBB388:
 1696              	.LBB389:
 1697              		.loc 2 342 0
 1698              	@ 342 "ChibiOS_3.0.2/os/ext/CMSIS/include/core_cmFunc.h" 1
 1699 00a4 72B6     		cpsid i
 1700              	@ 0 "" 2
 1701              		.thumb
 1702              	.LBE389:
 1703              	.LBE388:
 1704              	.LBE387:
 1705              	.LBE386:
 1706              	.LBE385:
 1707              	.LBE384:
 1708              		.loc 1 755 0
 1709 00a6 2946     		mov	r1, r5
 1710 00a8 2046     		mov	r0, r4
ARM GAS  /tmp/ccyVqq4Z.s 			page 31


 1711 00aa FFF7FEFF 		bl	usbStartTransmitI
 1712              	.LVL137:
 1713              	.LBB390:
 1714              	.LBB391:
 1715              	.LBB392:
 1716              	.LBB393:
 1717              	.LBB394:
 1718              	.LBB395:
 1719              		.loc 2 331 0
 1720              	@ 331 "ChibiOS_3.0.2/os/ext/CMSIS/include/core_cmFunc.h" 1
 1721 00ae 62B6     		cpsie i
 1722              	@ 0 "" 2
 1723              		.thumb
 1724              	.LBE395:
 1725              	.LBE394:
 1726              	.LBE393:
 1727              	.LBE392:
 1728              	.LBE391:
 1729              	.LBE390:
 1730              		.loc 1 757 0
 1731 00b0 0223     		movs	r3, #2
 1732 00b2 84F83430 		strb	r3, [r4, #52]
 1733              		.loc 1 758 0
 1734 00b6 38BD     		pop	{r3, r4, r5, pc}
 1735              		.cfi_endproc
 1736              	.LFE275:
 1737              		.size	_usb_ep0in, .-_usb_ep0in
 1738              		.section	.text._usb_ep0out,"ax",%progbits
 1739              		.align	2
 1740              		.p2align 4,,15
 1741              		.global	_usb_ep0out
 1742              		.thumb
 1743              		.thumb_func
 1744              		.type	_usb_ep0out, %function
 1745              	_usb_ep0out:
 1746              	.LFB276:
 1747              		.loc 1 810 0
 1748              		.cfi_startproc
 1749              		@ args = 0, pretend = 0, frame = 0
 1750              		@ frame_needed = 0, uses_anonymous_args = 0
 1751              	.LVL138:
 1752              		.loc 1 813 0
 1753 0000 90F83420 		ldrb	r2, [r0, #52]	@ zero_extendqisi2
 1754 0004 062A     		cmp	r2, #6
 1755              		.loc 1 810 0
 1756 0006 38B5     		push	{r3, r4, r5, lr}
 1757              		.cfi_def_cfa_offset 16
 1758              		.cfi_offset 3, -16
 1759              		.cfi_offset 4, -12
 1760              		.cfi_offset 5, -8
 1761              		.cfi_offset 14, -4
 1762 0008 0AD8     		bhi	.L150
 1763 000a 0123     		movs	r3, #1
 1764 000c 9340     		lsls	r3, r3, r2
 1765 000e 13F0670F 		tst	r3, #103
 1766 0012 0446     		mov	r4, r0
 1767 0014 11D1     		bne	.L152
ARM GAS  /tmp/ccyVqq4Z.s 			page 32


 1768 0016 13F00805 		ands	r5, r3, #8
 1769 001a 02D1     		bne	.L153
 1770 001c DB06     		lsls	r3, r3, #27
 1771 001e 1DD4     		bmi	.L166
 1772              	.L150:
 1773 0020 38BD     		pop	{r3, r4, r5, pc}
 1774              	.L153:
 1775              		.loc 1 830 0
 1776 0022 C368     		ldr	r3, [r0, #12]
 1777 0024 9B69     		ldr	r3, [r3, #24]
 1778 0026 9B68     		ldr	r3, [r3, #8]
 1779 0028 002B     		cmp	r3, #0
 1780 002a F9D1     		bne	.L150
 1781              		.loc 1 834 0
 1782 002c 036C     		ldr	r3, [r0, #64]
 1783 002e 03B1     		cbz	r3, .L154
 1784              		.loc 1 835 0
 1785 0030 9847     		blx	r3
 1786              	.LVL139:
 1787              	.L154:
 1788              		.loc 1 837 0
 1789 0032 0023     		movs	r3, #0
 1790 0034 84F83430 		strb	r3, [r4, #52]
 1791              		.loc 1 838 0
 1792 0038 38BD     		pop	{r3, r4, r5, pc}
 1793              	.LVL140:
 1794              	.L152:
 1795              		.loc 1 850 0
 1796 003a 0021     		movs	r1, #0
 1797              	.LVL141:
 1798 003c FFF7FEFF 		bl	usb_lld_stall_in
 1799              	.LVL142:
 1800              		.loc 1 851 0
 1801 0040 2046     		mov	r0, r4
 1802 0042 0021     		movs	r1, #0
 1803 0044 FFF7FEFF 		bl	usb_lld_stall_out
 1804              	.LVL143:
 1805              		.loc 1 852 0
 1806 0048 6368     		ldr	r3, [r4, #4]
 1807 004a 1B68     		ldr	r3, [r3]
 1808 004c 13B1     		cbz	r3, .L155
 1809              		.loc 1 852 0 is_stmt 0 discriminator 1
 1810 004e 2046     		mov	r0, r4
 1811 0050 0521     		movs	r1, #5
 1812 0052 9847     		blx	r3
 1813              	.LVL144:
 1814              	.L155:
 1815              		.loc 1 853 0 is_stmt 1
 1816 0054 0623     		movs	r3, #6
 1817 0056 84F83430 		strb	r3, [r4, #52]
 1818 005a 38BD     		pop	{r3, r4, r5, pc}
 1819              	.LVL145:
 1820              	.L166:
 1821              	.LBB396:
 1822              	.LBB397:
 1823              		.loc 1 427 0
 1824 005c C368     		ldr	r3, [r0, #12]
ARM GAS  /tmp/ccyVqq4Z.s 			page 33


 1825 005e 5B69     		ldr	r3, [r3, #20]
 1826              	.LBE397:
 1827              	.LBE396:
 1828              		.loc 1 816 0
 1829 0060 0522     		movs	r2, #5
 1830 0062 80F83420 		strb	r2, [r0, #52]
 1831              	.LVL146:
 1832              	.LBB399:
 1833              	.LBB398:
 1834              		.loc 1 434 0
 1835 0066 2946     		mov	r1, r5
 1836              	.LVL147:
 1837              		.loc 1 429 0
 1838 0068 1D70     		strb	r5, [r3]
 1839              		.loc 1 430 0
 1840 006a DD60     		str	r5, [r3, #12]
 1841              		.loc 1 431 0
 1842 006c 5D60     		str	r5, [r3, #4]
 1843              		.loc 1 432 0
 1844 006e 9D60     		str	r5, [r3, #8]
 1845              		.loc 1 434 0
 1846 0070 FFF7FEFF 		bl	usb_lld_prepare_transmit
 1847              	.LVL148:
 1848              	.LBE398:
 1849              	.LBE399:
 1850              	.LBB400:
 1851              	.LBB401:
 1852              	.LBB402:
 1853              	.LBB403:
 1854              	.LBB404:
 1855              	.LBB405:
 1856              		.loc 2 342 0
 1857              	@ 342 "ChibiOS_3.0.2/os/ext/CMSIS/include/core_cmFunc.h" 1
 1858 0074 72B6     		cpsid i
 1859              	@ 0 "" 2
 1860              		.thumb
 1861              	.LBE405:
 1862              	.LBE404:
 1863              	.LBE403:
 1864              	.LBE402:
 1865              	.LBE401:
 1866              	.LBE400:
 1867              		.loc 1 820 0
 1868 0076 2046     		mov	r0, r4
 1869 0078 2946     		mov	r1, r5
 1870 007a FFF7FEFF 		bl	usbStartTransmitI
 1871              	.LVL149:
 1872              	.LBB406:
 1873              	.LBB407:
 1874              	.LBB408:
 1875              	.LBB409:
 1876              	.LBB410:
 1877              	.LBB411:
 1878              		.loc 2 331 0
 1879              	@ 331 "ChibiOS_3.0.2/os/ext/CMSIS/include/core_cmFunc.h" 1
 1880 007e 62B6     		cpsie i
 1881              	@ 0 "" 2
ARM GAS  /tmp/ccyVqq4Z.s 			page 34


 1882              		.thumb
 1883 0080 38BD     		pop	{r3, r4, r5, pc}
 1884              	.LBE411:
 1885              	.LBE410:
 1886              	.LBE409:
 1887              	.LBE408:
 1888              	.LBE407:
 1889              	.LBE406:
 1890              		.cfi_endproc
 1891              	.LFE276:
 1892              		.size	_usb_ep0out, .-_usb_ep0out
 1893 0082 00BF     		.section	.rodata.zero_status,"a",%progbits
 1894              		.align	2
 1895              		.set	.LANCHOR0,. + 0
 1896              		.type	zero_status, %object
 1897              		.size	zero_status, 2
 1898              	zero_status:
 1899 0000 0000     		.space	2
 1900              		.section	.rodata.active_status,"a",%progbits
 1901              		.align	2
 1902              		.set	.LANCHOR2,. + 0
 1903              		.type	active_status, %object
 1904              		.size	active_status, 2
 1905              	active_status:
 1906 0000 0000     		.space	2
 1907              		.section	.rodata.halted_status,"a",%progbits
 1908              		.align	2
 1909              		.set	.LANCHOR1,. + 0
 1910              		.type	halted_status, %object
 1911              		.size	halted_status, 2
 1912              	halted_status:
 1913 0000 01       		.byte	1
 1914 0001 00       		.byte	0
 1915              		.text
 1916              	.Letext0:
 1917              		.file 3 "/usr/lib/gcc/arm-none-eabi/4.9.3/include/stddef.h"
 1918              		.file 4 "/usr/arm-none-eabi/include/machine/_default_types.h"
 1919              		.file 5 "/usr/arm-none-eabi/include/sys/_stdint.h"
 1920              		.file 6 "ChibiOS_3.0.2/os/rt/ports/ARMCMx/compilers/GCC/chtypes.h"
 1921              		.file 7 "ChibiOS_3.0.2/os/rt/include/chsystypes.h"
 1922              		.file 8 "ChibiOS_3.0.2/os/rt/include/chschd.h"
 1923              		.file 9 "ChibiOS_3.0.2/os/rt/ports/ARMCMx/chcore.h"
 1924              		.file 10 "ChibiOS_3.0.2/os/rt/ports/ARMCMx/chcore_v7m.h"
 1925              		.file 11 "ChibiOS_3.0.2/os/rt/include/chtm.h"
 1926              		.file 12 "ChibiOS_3.0.2/os/rt/include/chsem.h"
 1927              		.file 13 "ChibiOS_3.0.2/os/rt/include/chmtx.h"
 1928              		.file 14 "ChibiOS_3.0.2/os/rt/include/chqueues.h"
 1929              		.file 15 "ChibiOS_3.0.2/os/hal/include/usb.h"
 1930              		.file 16 "ChibiOS_3.0.2/os/hal/ports/STM32/LLD/OTGv1/usb_lld.h"
 1931              		.file 17 "ChibiOS_3.0.2/os/hal/ports/STM32/LLD/OTGv1/stm32_otg.h"
 1932              		.file 18 "ChibiOS_3.0.2/os/rt/include/chsys.h"
 1933              		.file 19 "ChibiOS_3.0.2/os/hal/osal/rt/osal.h"
 1934              		.file 20 "ChibiOS_3.0.2/os/ext/CMSIS/include/core_cm4.h"