ARM GAS  /tmp/ccPDl681.s 			page 1


   1              		.syntax unified
   2              		.cpu cortex-m4
   3              		.eabi_attribute 27, 1
   4              		.eabi_attribute 28, 1
   5              		.fpu fpv4-sp-d16
   6              		.eabi_attribute 20, 1
   7              		.eabi_attribute 21, 1
   8              		.eabi_attribute 23, 3
   9              		.eabi_attribute 24, 1
  10              		.eabi_attribute 25, 1
  11              		.eabi_attribute 26, 1
  12              		.eabi_attribute 30, 2
  13              		.eabi_attribute 34, 1
  14              		.eabi_attribute 18, 4
  15              		.thumb
  16              		.file	"adc.c"
  17              		.text
  18              	.Ltext0:
  19              		.cfi_sections	.debug_frame
  20              		.section	.text.adcInit,"ax",%progbits
  21              		.align	2
  22              		.p2align 4,,15
  23              		.global	adcInit
  24              		.thumb
  25              		.thumb_func
  26              		.type	adcInit, %function
  27              	adcInit:
  28              	.LFB256:
  29              		.file 1 "ChibiOS_3.0.2/os/hal/src/adc.c"
  30              		.loc 1 56 0
  31              		.cfi_startproc
  32              		@ args = 0, pretend = 0, frame = 0
  33              		@ frame_needed = 0, uses_anonymous_args = 0
  34              		@ link register save eliminated.
  35              		.loc 1 58 0
  36 0000 FFF7FEBF 		b	adc_lld_init
  37              	.LVL0:
  38              		.cfi_endproc
  39              	.LFE256:
  40              		.size	adcInit, .-adcInit
  41              		.section	.text.adcObjectInit,"ax",%progbits
  42              		.align	2
  43              		.p2align 4,,15
  44              		.global	adcObjectInit
  45              		.thumb
  46              		.thumb_func
  47              		.type	adcObjectInit, %function
  48              	adcObjectInit:
  49              	.LFB257:
  50              		.loc 1 68 0
  51              		.cfi_startproc
  52              		@ args = 0, pretend = 0, frame = 0
  53              		@ frame_needed = 0, uses_anonymous_args = 0
  54              		@ link register save eliminated.
  55              	.LVL1:
  56              		.loc 1 71 0
  57 0000 0023     		movs	r3, #0
ARM GAS  /tmp/ccPDl681.s 			page 2


  58              		.loc 1 70 0
  59 0002 0122     		movs	r2, #1
  60 0004 0270     		strb	r2, [r0]
  61              		.loc 1 71 0
  62 0006 4360     		str	r3, [r0, #4]
  63              		.loc 1 72 0
  64 0008 8360     		str	r3, [r0, #8]
  65              		.loc 1 73 0
  66 000a C360     		str	r3, [r0, #12]
  67              		.loc 1 74 0
  68 000c 0361     		str	r3, [r0, #16]
  69              		.loc 1 76 0
  70 000e 4361     		str	r3, [r0, #20]
  71              	.LVL2:
  72              	.LBB105:
  73              	.LBB106:
  74              		.file 2 "ChibiOS_3.0.2/os/hal/osal/rt/osal.h"
  75              		.loc 2 887 0
  76 0010 1830     		adds	r0, r0, #24
  77              	.LVL3:
  78 0012 FFF7FEBF 		b	chMtxObjectInit
  79              	.LVL4:
  80              	.LBE106:
  81              	.LBE105:
  82              		.cfi_endproc
  83              	.LFE257:
  84              		.size	adcObjectInit, .-adcObjectInit
  85 0016 00BF     		.section	.text.adcStart,"ax",%progbits
  86              		.align	2
  87              		.p2align 4,,15
  88              		.global	adcStart
  89              		.thumb
  90              		.thumb_func
  91              		.type	adcStart, %function
  92              	adcStart:
  93              	.LFB258:
  94              		.loc 1 95 0
  95              		.cfi_startproc
  96              		@ args = 0, pretend = 0, frame = 0
  97              		@ frame_needed = 0, uses_anonymous_args = 0
  98              	.LVL5:
  99 0000 10B5     		push	{r4, lr}
 100              		.cfi_def_cfa_offset 8
 101              		.cfi_offset 4, -8
 102              		.cfi_offset 14, -4
 103              		.loc 1 95 0
 104 0002 0446     		mov	r4, r0
 105              	.LBB107:
 106              	.LBB108:
 107              	.LBB109:
 108              	.LBB110:
 109              	.LBB111:
 110              		.file 3 "ChibiOS_3.0.2/os/ext/CMSIS/include/core_cmFunc.h"
 111              		.loc 3 342 0
 112              	@ 342 "ChibiOS_3.0.2/os/ext/CMSIS/include/core_cmFunc.h" 1
 113 0004 72B6     		cpsid i
 114              	@ 0 "" 2
ARM GAS  /tmp/ccPDl681.s 			page 3


 115              		.thumb
 116              	.LBE111:
 117              	.LBE110:
 118              	.LBE109:
 119              	.LBE108:
 120              	.LBE107:
 121              		.loc 1 102 0
 122 0006 4160     		str	r1, [r0, #4]
 123              		.loc 1 103 0
 124 0008 FFF7FEFF 		bl	adc_lld_start
 125              	.LVL6:
 126              		.loc 1 104 0
 127 000c 0223     		movs	r3, #2
 128 000e 2370     		strb	r3, [r4]
 129              	.LBB112:
 130              	.LBB113:
 131              	.LBB114:
 132              	.LBB115:
 133              	.LBB116:
 134              	.LBB117:
 135              		.loc 3 331 0
 136              	@ 331 "ChibiOS_3.0.2/os/ext/CMSIS/include/core_cmFunc.h" 1
 137 0010 62B6     		cpsie i
 138              	@ 0 "" 2
 139              		.thumb
 140 0012 10BD     		pop	{r4, pc}
 141              	.LBE117:
 142              	.LBE116:
 143              	.LBE115:
 144              	.LBE114:
 145              	.LBE113:
 146              	.LBE112:
 147              		.cfi_endproc
 148              	.LFE258:
 149              		.size	adcStart, .-adcStart
 150              		.section	.text.adcStop,"ax",%progbits
 151              		.align	2
 152              		.p2align 4,,15
 153              		.global	adcStop
 154              		.thumb
 155              		.thumb_func
 156              		.type	adcStop, %function
 157              	adcStop:
 158              	.LFB259:
 159              		.loc 1 115 0
 160              		.cfi_startproc
 161              		@ args = 0, pretend = 0, frame = 0
 162              		@ frame_needed = 0, uses_anonymous_args = 0
 163              	.LVL7:
 164 0000 10B5     		push	{r4, lr}
 165              		.cfi_def_cfa_offset 8
 166              		.cfi_offset 4, -8
 167              		.cfi_offset 14, -4
 168              		.loc 1 115 0
 169 0002 0446     		mov	r4, r0
 170              	.LBB118:
 171              	.LBB119:
ARM GAS  /tmp/ccPDl681.s 			page 4


 172              	.LBB120:
 173              	.LBB121:
 174              	.LBB122:
 175              		.loc 3 342 0
 176              	@ 342 "ChibiOS_3.0.2/os/ext/CMSIS/include/core_cmFunc.h" 1
 177 0004 72B6     		cpsid i
 178              	@ 0 "" 2
 179              		.thumb
 180              	.LBE122:
 181              	.LBE121:
 182              	.LBE120:
 183              	.LBE119:
 184              	.LBE118:
 185              		.loc 1 122 0
 186 0006 FFF7FEFF 		bl	adc_lld_stop
 187              	.LVL8:
 188              		.loc 1 123 0
 189 000a 0123     		movs	r3, #1
 190 000c 2370     		strb	r3, [r4]
 191              	.LBB123:
 192              	.LBB124:
 193              	.LBB125:
 194              	.LBB126:
 195              	.LBB127:
 196              	.LBB128:
 197              		.loc 3 331 0
 198              	@ 331 "ChibiOS_3.0.2/os/ext/CMSIS/include/core_cmFunc.h" 1
 199 000e 62B6     		cpsie i
 200              	@ 0 "" 2
 201              		.thumb
 202 0010 10BD     		pop	{r4, pc}
 203              	.LBE128:
 204              	.LBE127:
 205              	.LBE126:
 206              	.LBE125:
 207              	.LBE124:
 208              	.LBE123:
 209              		.cfi_endproc
 210              	.LFE259:
 211              		.size	adcStop, .-adcStop
 212 0012 00BF     		.section	.text.adcStartConversion,"ax",%progbits
 213              		.align	2
 214              		.p2align 4,,15
 215              		.global	adcStartConversion
 216              		.thumb
 217              		.thumb_func
 218              		.type	adcStartConversion, %function
 219              	adcStartConversion:
 220              	.LFB260:
 221              		.loc 1 146 0
 222              		.cfi_startproc
 223              		@ args = 0, pretend = 0, frame = 0
 224              		@ frame_needed = 0, uses_anonymous_args = 0
 225              	.LVL9:
 226 0000 38B5     		push	{r3, r4, r5, lr}
 227              		.cfi_def_cfa_offset 16
 228              		.cfi_offset 3, -16
ARM GAS  /tmp/ccPDl681.s 			page 5


 229              		.cfi_offset 4, -12
 230              		.cfi_offset 5, -8
 231              		.cfi_offset 14, -4
 232              	.LBB129:
 233              	.LBB130:
 234              	.LBB131:
 235              	.LBB132:
 236              	.LBB133:
 237              		.loc 3 342 0
 238              	@ 342 "ChibiOS_3.0.2/os/ext/CMSIS/include/core_cmFunc.h" 1
 239 0002 72B6     		cpsid i
 240              	@ 0 "" 2
 241              	.LVL10:
 242              		.thumb
 243              	.LBE133:
 244              	.LBE132:
 245              	.LBE131:
 246              	.LBE130:
 247              	.LBE129:
 248              	.LBB134:
 249              	.LBB135:
 250              		.loc 1 187 0
 251 0004 0325     		movs	r5, #3
 252              		.loc 1 184 0
 253 0006 8260     		str	r2, [r0, #8]
 254              		.loc 1 185 0
 255 0008 C360     		str	r3, [r0, #12]
 256              		.loc 1 186 0
 257 000a 0161     		str	r1, [r0, #16]
 258              		.loc 1 187 0
 259 000c 0570     		strb	r5, [r0]
 260              		.loc 1 188 0
 261 000e FFF7FEFF 		bl	adc_lld_start_conversion
 262              	.LVL11:
 263              	.LBE135:
 264              	.LBE134:
 265              	.LBB136:
 266              	.LBB137:
 267              	.LBB138:
 268              	.LBB139:
 269              	.LBB140:
 270              	.LBB141:
 271              		.loc 3 331 0
 272              	@ 331 "ChibiOS_3.0.2/os/ext/CMSIS/include/core_cmFunc.h" 1
 273 0012 62B6     		cpsie i
 274              	@ 0 "" 2
 275              		.thumb
 276 0014 38BD     		pop	{r3, r4, r5, pc}
 277              	.LBE141:
 278              	.LBE140:
 279              	.LBE139:
 280              	.LBE138:
 281              	.LBE137:
 282              	.LBE136:
 283              		.cfi_endproc
 284              	.LFE260:
 285              		.size	adcStartConversion, .-adcStartConversion
ARM GAS  /tmp/ccPDl681.s 			page 6


 286 0016 00BF     		.section	.text.adcStartConversionI,"ax",%progbits
 287              		.align	2
 288              		.p2align 4,,15
 289              		.global	adcStartConversionI
 290              		.thumb
 291              		.thumb_func
 292              		.type	adcStartConversionI, %function
 293              	adcStartConversionI:
 294              	.LFB261:
 295              		.loc 1 174 0
 296              		.cfi_startproc
 297              		@ args = 0, pretend = 0, frame = 0
 298              		@ frame_needed = 0, uses_anonymous_args = 0
 299              		@ link register save eliminated.
 300              	.LVL12:
 301 0000 30B4     		push	{r4, r5}
 302              		.cfi_def_cfa_offset 8
 303              		.cfi_offset 4, -8
 304              		.cfi_offset 5, -4
 305              		.loc 1 187 0
 306 0002 0325     		movs	r5, #3
 307 0004 0570     		strb	r5, [r0]
 308              		.loc 1 184 0
 309 0006 8260     		str	r2, [r0, #8]
 310              		.loc 1 185 0
 311 0008 C360     		str	r3, [r0, #12]
 312              		.loc 1 186 0
 313 000a 0161     		str	r1, [r0, #16]
 314              		.loc 1 189 0
 315 000c 30BC     		pop	{r4, r5}
 316              		.cfi_restore 5
 317              		.cfi_restore 4
 318              		.cfi_def_cfa_offset 0
 319              		.loc 1 188 0
 320 000e FFF7FEBF 		b	adc_lld_start_conversion
 321              	.LVL13:
 322              		.cfi_endproc
 323              	.LFE261:
 324              		.size	adcStartConversionI, .-adcStartConversionI
 325 0012 00BF     		.section	.text.adcStopConversion,"ax",%progbits
 326              		.align	2
 327              		.p2align 4,,15
 328              		.global	adcStopConversion
 329              		.thumb
 330              		.thumb_func
 331              		.type	adcStopConversion, %function
 332              	adcStopConversion:
 333              	.LFB262:
 334              		.loc 1 201 0
 335              		.cfi_startproc
 336              		@ args = 0, pretend = 0, frame = 0
 337              		@ frame_needed = 0, uses_anonymous_args = 0
 338              	.LVL14:
 339              	.LBB142:
 340              	.LBB143:
 341              	.LBB144:
 342              	.LBB145:
ARM GAS  /tmp/ccPDl681.s 			page 7


 343              	.LBB146:
 344              		.loc 3 342 0
 345              	@ 342 "ChibiOS_3.0.2/os/ext/CMSIS/include/core_cmFunc.h" 1
 346 0000 72B6     		cpsid i
 347              	@ 0 "" 2
 348              		.thumb
 349              	.LBE146:
 350              	.LBE145:
 351              	.LBE144:
 352              	.LBE143:
 353              	.LBE142:
 354              		.loc 1 208 0
 355 0002 0278     		ldrb	r2, [r0]	@ zero_extendqisi2
 356 0004 022A     		cmp	r2, #2
 357 0006 0FD0     		beq	.L17
 358              		.loc 1 201 0
 359 0008 10B5     		push	{r4, lr}
 360              		.cfi_def_cfa_offset 8
 361              		.cfi_offset 4, -8
 362              		.cfi_offset 14, -4
 363 000a 0446     		mov	r4, r0
 364              		.loc 1 209 0
 365 000c FFF7FEFF 		bl	adc_lld_stop_conversion
 366              	.LVL15:
 367              		.loc 1 211 0
 368 0010 2046     		mov	r0, r4
 369              		.loc 1 210 0
 370 0012 0022     		movs	r2, #0
 371              		.loc 1 211 0
 372 0014 0223     		movs	r3, #2
 373              		.loc 1 210 0
 374 0016 2261     		str	r2, [r4, #16]
 375              	.LBB147:
 376              	.LBB148:
 377              		.loc 2 743 0
 378 0018 6FF00101 		mvn	r1, #1
 379              	.LBE148:
 380              	.LBE147:
 381              		.loc 1 211 0
 382 001c 00F8143B 		strb	r3, [r0], #20
 383              	.LVL16:
 384              	.LBB150:
 385              	.LBB149:
 386              		.loc 2 743 0
 387 0020 FFF7FEFF 		bl	chThdResumeS
 388              	.LVL17:
 389              	.LBE149:
 390              	.LBE150:
 391              	.LBB151:
 392              	.LBB152:
 393              	.LBB153:
 394              	.LBB154:
 395              	.LBB155:
 396              	.LBB156:
 397              		.loc 3 331 0
 398              	@ 331 "ChibiOS_3.0.2/os/ext/CMSIS/include/core_cmFunc.h" 1
 399 0024 62B6     		cpsie i
ARM GAS  /tmp/ccPDl681.s 			page 8


 400              	@ 0 "" 2
 401              		.thumb
 402 0026 10BD     		pop	{r4, pc}
 403              	.LVL18:
 404              	.L17:
 405              		.cfi_def_cfa_offset 0
 406              		.cfi_restore 4
 407              		.cfi_restore 14
 408              	@ 331 "ChibiOS_3.0.2/os/ext/CMSIS/include/core_cmFunc.h" 1
 409 0028 62B6     		cpsie i
 410              	@ 0 "" 2
 411              		.thumb
 412 002a 7047     		bx	lr
 413              	.LBE156:
 414              	.LBE155:
 415              	.LBE154:
 416              	.LBE153:
 417              	.LBE152:
 418              	.LBE151:
 419              		.cfi_endproc
 420              	.LFE262:
 421              		.size	adcStopConversion, .-adcStopConversion
 422              		.section	.text.adcStopConversionI,"ax",%progbits
 423              		.align	2
 424              		.p2align 4,,15
 425              		.global	adcStopConversionI
 426              		.thumb
 427              		.thumb_func
 428              		.type	adcStopConversionI, %function
 429              	adcStopConversionI:
 430              	.LFB263:
 431              		.loc 1 227 0
 432              		.cfi_startproc
 433              		@ args = 0, pretend = 0, frame = 0
 434              		@ frame_needed = 0, uses_anonymous_args = 0
 435              	.LVL19:
 436              		.loc 1 236 0
 437 0000 0278     		ldrb	r2, [r0]	@ zero_extendqisi2
 438 0002 022A     		cmp	r2, #2
 439 0004 0FD0     		beq	.L22
 440              		.loc 1 227 0
 441 0006 10B5     		push	{r4, lr}
 442              		.cfi_def_cfa_offset 8
 443              		.cfi_offset 4, -8
 444              		.cfi_offset 14, -4
 445 0008 0446     		mov	r4, r0
 446              		.loc 1 237 0
 447 000a FFF7FEFF 		bl	adc_lld_stop_conversion
 448              	.LVL20:
 449              		.loc 1 239 0
 450 000e 2046     		mov	r0, r4
 451              		.loc 1 238 0
 452 0010 0022     		movs	r2, #0
 453              		.loc 1 239 0
 454 0012 0223     		movs	r3, #2
 455              		.loc 1 238 0
 456 0014 2261     		str	r2, [r4, #16]
ARM GAS  /tmp/ccPDl681.s 			page 9


 457              	.LBB157:
 458              	.LBB158:
 459              		.loc 2 728 0
 460 0016 6FF00101 		mvn	r1, #1
 461              	.LBE158:
 462              	.LBE157:
 463              		.loc 1 239 0
 464 001a 00F8143B 		strb	r3, [r0], #20
 465              	.LVL21:
 466              		.loc 1 242 0
 467 001e BDE81040 		pop	{r4, lr}
 468              		.cfi_restore 14
 469              		.cfi_restore 4
 470              		.cfi_def_cfa_offset 0
 471              	.LVL22:
 472              	.LBB160:
 473              	.LBB159:
 474              		.loc 2 728 0
 475 0022 FFF7FEBF 		b	chThdResumeI
 476              	.LVL23:
 477              	.L22:
 478 0026 7047     		bx	lr
 479              	.LBE159:
 480              	.LBE160:
 481              		.cfi_endproc
 482              	.LFE263:
 483              		.size	adcStopConversionI, .-adcStopConversionI
 484              		.section	.text.adcConvert,"ax",%progbits
 485              		.align	2
 486              		.p2align 4,,15
 487              		.global	adcConvert
 488              		.thumb
 489              		.thumb_func
 490              		.type	adcConvert, %function
 491              	adcConvert:
 492              	.LFB264:
 493              		.loc 1 271 0
 494              		.cfi_startproc
 495              		@ args = 0, pretend = 0, frame = 0
 496              		@ frame_needed = 0, uses_anonymous_args = 0
 497              	.LVL24:
 498 0000 70B5     		push	{r4, r5, r6, lr}
 499              		.cfi_def_cfa_offset 16
 500              		.cfi_offset 4, -16
 501              		.cfi_offset 5, -12
 502              		.cfi_offset 6, -8
 503              		.cfi_offset 14, -4
 504              	.LBB161:
 505              	.LBB162:
 506              	.LBB163:
 507              	.LBB164:
 508              	.LBB165:
 509              		.loc 3 342 0
 510              	@ 342 "ChibiOS_3.0.2/os/ext/CMSIS/include/core_cmFunc.h" 1
 511 0002 72B6     		cpsid i
 512              	@ 0 "" 2
 513              	.LVL25:
ARM GAS  /tmp/ccPDl681.s 			page 10


 514              		.thumb
 515              	.LBE165:
 516              	.LBE164:
 517              	.LBE163:
 518              	.LBE162:
 519              	.LBE161:
 520              	.LBB166:
 521              	.LBB167:
 522              		.loc 1 187 0
 523 0004 0546     		mov	r5, r0
 524 0006 0326     		movs	r6, #3
 525              		.loc 1 184 0
 526 0008 8260     		str	r2, [r0, #8]
 527              		.loc 1 185 0
 528 000a C360     		str	r3, [r0, #12]
 529              		.loc 1 186 0
 530 000c 0161     		str	r1, [r0, #16]
 531              		.loc 1 187 0
 532 000e 05F8146B 		strb	r6, [r5], #20
 533              		.loc 1 188 0
 534 0012 FFF7FEFF 		bl	adc_lld_start_conversion
 535              	.LVL26:
 536              	.LBE167:
 537              	.LBE166:
 538              	.LBB168:
 539              	.LBB169:
 540              		.loc 2 688 0
 541 0016 2846     		mov	r0, r5
 542 0018 FFF7FEFF 		bl	chThdSuspendS
 543              	.LVL27:
 544              	.LBE169:
 545              	.LBE168:
 546              	.LBB170:
 547              	.LBB171:
 548              	.LBB172:
 549              	.LBB173:
 550              	.LBB174:
 551              	.LBB175:
 552              		.loc 3 331 0
 553              	@ 331 "ChibiOS_3.0.2/os/ext/CMSIS/include/core_cmFunc.h" 1
 554 001c 62B6     		cpsie i
 555              	@ 0 "" 2
 556              		.thumb
 557              	.LBE175:
 558              	.LBE174:
 559              	.LBE173:
 560              	.LBE172:
 561              	.LBE171:
 562              	.LBE170:
 563              		.loc 1 280 0
 564 001e 70BD     		pop	{r4, r5, r6, pc}
 565              		.cfi_endproc
 566              	.LFE264:
 567              		.size	adcConvert, .-adcConvert
 568              		.section	.text.adcAcquireBus,"ax",%progbits
 569              		.align	2
 570              		.p2align 4,,15
ARM GAS  /tmp/ccPDl681.s 			page 11


 571              		.global	adcAcquireBus
 572              		.thumb
 573              		.thumb_func
 574              		.type	adcAcquireBus, %function
 575              	adcAcquireBus:
 576              	.LFB265:
 577              		.loc 1 295 0
 578              		.cfi_startproc
 579              		@ args = 0, pretend = 0, frame = 0
 580              		@ frame_needed = 0, uses_anonymous_args = 0
 581              		@ link register save eliminated.
 582              	.LVL28:
 583              	.LBB176:
 584              	.LBB177:
 585              		.loc 2 907 0
 586 0000 1830     		adds	r0, r0, #24
 587              	.LVL29:
 588 0002 FFF7FEBF 		b	chMtxLock
 589              	.LVL30:
 590              	.LBE177:
 591              	.LBE176:
 592              		.cfi_endproc
 593              	.LFE265:
 594              		.size	adcAcquireBus, .-adcAcquireBus
 595 0006 00BF     		.section	.text.adcReleaseBus,"ax",%progbits
 596              		.align	2
 597              		.p2align 4,,15
 598              		.global	adcReleaseBus
 599              		.thumb
 600              		.thumb_func
 601              		.type	adcReleaseBus, %function
 602              	adcReleaseBus:
 603              	.LFB266:
 604              		.loc 1 311 0
 605              		.cfi_startproc
 606              		@ args = 0, pretend = 0, frame = 0
 607              		@ frame_needed = 0, uses_anonymous_args = 0
 608              		@ link register save eliminated.
 609              	.LVL31:
 610              	.LBB178:
 611              	.LBB179:
 612              		.loc 2 931 0
 613 0000 1830     		adds	r0, r0, #24
 614              	.LVL32:
 615 0002 FFF7FEBF 		b	chMtxUnlock
 616              	.LVL33:
 617              	.LBE179:
 618              	.LBE178:
 619              		.cfi_endproc
 620              	.LFE266:
 621              		.size	adcReleaseBus, .-adcReleaseBus
 622 0006 00BF     		.text
 623              	.Letext0:
 624              		.file 4 "/usr/lib/gcc/arm-none-eabi/4.9.3/include/stddef.h"
 625              		.file 5 "/usr/arm-none-eabi/include/machine/_default_types.h"
 626              		.file 6 "/usr/arm-none-eabi/include/sys/_stdint.h"
 627              		.file 7 "ChibiOS_3.0.2/os/rt/ports/ARMCMx/compilers/GCC/chtypes.h"
ARM GAS  /tmp/ccPDl681.s 			page 12


 628              		.file 8 "ChibiOS_3.0.2/os/rt/include/chsystypes.h"
 629              		.file 9 "ChibiOS_3.0.2/os/rt/include/chschd.h"
 630              		.file 10 "ChibiOS_3.0.2/os/ext/CMSIS/ST/stm32f407xx.h"
 631              		.file 11 "ChibiOS_3.0.2/os/rt/ports/ARMCMx/chcore.h"
 632              		.file 12 "ChibiOS_3.0.2/os/rt/ports/ARMCMx/chcore_v7m.h"
 633              		.file 13 "ChibiOS_3.0.2/os/rt/include/chtm.h"
 634              		.file 14 "ChibiOS_3.0.2/os/rt/include/chsem.h"
 635              		.file 15 "ChibiOS_3.0.2/os/rt/include/chmtx.h"
 636              		.file 16 "ChibiOS_3.0.2/os/hal/ports/STM32/STM32F4xx/stm32_dma.h"
 637              		.file 17 "ChibiOS_3.0.2/os/hal/include/adc.h"
 638              		.file 18 "ChibiOS_3.0.2/os/hal/ports/STM32/STM32F4xx/adc_lld.h"
 639              		.file 19 "ChibiOS_3.0.2/os/rt/include/chsys.h"
 640              		.file 20 "ChibiOS_3.0.2/os/rt/include/chthreads.h"
 641              		.file 21 "ChibiOS_3.0.2/os/ext/CMSIS/include/core_cm4.h"