ARM GAS  /tmp/ccPDl681.s 			page 1


   1              		.syntax unified
   2              		.cpu cortex-m4
   3              		.eabi_attribute 27, 1
   4              		.eabi_attribute 28, 1
   5              		.fpu fpv4-sp-d16
   6              		.eabi_attribute 20, 1
   7              		.eabi_attribute 21, 1
   8              		.eabi_attribute 23, 3
   9              		.eabi_attribute 24, 1
  10              		.eabi_attribute 25, 1
  11              		.eabi_attribute 26, 1
  12              		.eabi_attribute 30, 2
  13              		.eabi_attribute 34, 1
  14              		.eabi_attribute 18, 4
  15              		.thumb
  16              		.file	"adc.c"
  17              		.text
  18              	.Ltext0:
  19              		.cfi_sections	.debug_frame
  20              		.section	.text.adcInit,"ax",%progbits
  21              		.align	2
  22              		.p2align 4,,15
  23              		.global	adcInit
  24              		.thumb
  25              		.thumb_func
  26              		.type	adcInit, %function
  27              	adcInit:
  28              	.LFB256:
  29              		.file 1 "ChibiOS_3.0.2/os/hal/src/adc.c"
  30              		.loc 1 56 0
  31              		.cfi_startproc
  32              		@ args = 0, pretend = 0, frame = 0
  33              		@ frame_needed = 0, uses_anonymous_args = 0
  34              		@ link register save eliminated.
  35              		.loc 1 58 0
  36 0000 FFF7FEBF 		b	adc_lld_init
  37              	.LVL0:
  38              		.cfi_endproc
  39              	.LFE256:
  40              		.size	adcInit, .-adcInit
  41              		.section	.text.adcObjectInit,"ax",%progbits
  42              		.align	2
  43              		.p2align 4,,15
  44              		.global	adcObjectInit
  45              		.thumb
  46              		.thumb_func
  47              		.type	adcObjectInit, %function
  48              	adcObjectInit:
  49              	.LFB257:
  50              		.loc 1 68 0
  51              		.cfi_startproc
  52              		@ args = 0, pretend = 0, frame = 0
  53              		@ frame_needed = 0, uses_anonymous_args = 0
  54              		@ link register save eliminated.
  55              	.LVL1:
  56              		.loc 1 71 0
  57 0000 0023     		movs	r3, #0
ARM GAS  /tmp/ccPDl681.s 			page 2


  58              		.loc 1 70 0
  59 0002 0122     		movs	r2, #1
  60 0004 0270     		strb	r2, [r0]
  61              		.loc 1 71 0
  62 0006 4360     		str	r3, [r0, #4]
  63              		.loc 1 72 0
  64 0008 8360     		str	r3, [r0, #8]
  65              		.loc 1 73 0
  66 000a C360     		str	r3, [r0, #12]
  67              		.loc 1 74 0
  68 000c 0361     		str	r3, [r0, #16]
  69              		.loc 1 76 0
  70 000e 4361     		str	r3, [r0, #20]
  71              	.LVL2:
  72              	.LBB105:
  73              	.LBB106:
  74              		.file 2 "ChibiOS_3.0.2/os/hal/osal/rt/osal.h"
  75              		.loc 2 887 0
  76 0010 1830     		adds	r0, r0, #24
  77              	.LVL3:
  78 0012 FFF7FEBF 		b	chMtxObjectInit
  79              	.LVL4:
  80              	.LBE106:
  81              	.LBE105:
  82              		.cfi_endproc
  83              	.LFE257:
  84              		.size	adcObjectInit, .-adcObjectInit
  85 0016 00BF     		.section	.text.adcStart,"ax",%progbits
  86              		.align	2
  87              		.p2align 4,,15
  88              		.global	adcStart
  89              		.thumb
  90              		.thumb_func
  91              		.type	adcStart, %function
  92              	adcStart:
  93              	.LFB258:
  94              		.loc 1 95 0
  95              		.cfi_startproc
  96              		@ args = 0, pretend = 0, frame = 0
  97              		@ frame_needed = 0, uses_anonymous_args = 0
  98              	.LVL5:
  99 0000 10B5     		push	{r4, lr}
 100              		.cfi_def_cfa_offset 8
 101              		.cfi_offset 4, -8
 102              		.cfi_offset 14, -4
 103              		.loc 1 95 0
 104 0002 0446     		mov	r4, r0
 105              	.LBB107:
 106              	.LBB108:
 107              	.LBB109:
 108              	.LBB110:
 109              	.LBB111:
 110              		.file 3 "ChibiOS_3.0.2/os/ext/CMSIS/include/core_cmFunc.h"
 111              		.loc 3 342 0
 112              	@ 342 "ChibiOS_3.0.2/os/ext/CMSIS/include/core_cmFunc.h" 1
 113 0004 72B6     		cpsid i
 114              	@ 0 "" 2
ARM GAS  /tmp/ccPDl681.s 			page 3


 115              		.thumb
 116              	.LBE111:
 117              	.LBE110:
 118              	.LBE109:
 119              	.LBE108:
 120              	.LBE107:
 121              		.loc 1 102 0
 122 0006 4160     		str	r1, [r0, #4]
 123              		.loc 1 103 0
 124 0008 FFF7FEFF 		bl	adc_lld_start
 125              	.LVL6:
 126              		.loc 1 104 0
 127 000c 0223     		movs	r3, #2
 128 000e 2370     		strb	r3, [r4]
 129              	.LBB112:
 130              	.LBB113:
 131              	.LBB114:
 132              	.LBB115:
 133              	.LBB116:
 134              	.LBB117:
 135              		.loc 3 331 0
 136              	@ 331 "ChibiOS_3.0.2/os/ext/CMSIS/include/core_cmFunc.h" 1
 137 0010 62B6     		cpsie i
 138              	@ 0 "" 2
 139              		.thumb
 140 0012 10BD     		pop	{r4, pc}
 141              	.LBE117:
 142              	.LBE116:
 143              	.LBE115:
 144              	.LBE114:
 145              	.LBE113:
 146              	.LBE112:
 147              		.cfi_endproc
 148              	.LFE258:
 149              		.size	adcStart, .-adcStart
 150              		.section	.text.adcStop,"ax",%progbits
 151              		.align	2
 152              		.p2align 4,,15
 153              		.global	adcStop
 154              		.thumb
 155              		.thumb_func
 156              		.type	adcStop, %function
 157              	adcStop:
 158              	.LFB259:
 159              		.loc 1 115 0
 160              		.cfi_startproc
 161              		@ args = 0, pretend = 0, frame = 0
 162              		@ frame_needed = 0, uses_anonymous_args = 0
 163              	.LVL7:
 164 0000 10B5     		push	{r4, lr}
 165              		.cfi_def_cfa_offset 8
 166              		.cfi_offset 4, -8
 167              		.cfi_offset 14, -4
 168              		.loc 1 115 0
 169 0002 0446     		mov	r4, r0
 170              	.LBB118:
 171              	.LBB119:
ARM GAS  /tmp/ccPDl681.s 			page 4


 172              	.LBB120:
 173              	.LBB121:
 174              	.LBB122:
 175              		.loc 3 342 0
 176              	@ 342 "ChibiOS_3.0.2/os/ext/CMSIS/include/core_cmFunc.h" 1
 177 0004 72B6     		cpsid i
 178              	@ 0 "" 2
 179              		.thumb
 180              	.LBE122:
 181              	.LBE121:
 182              	.LBE120:
 183              	.LBE119:
 184              	.LBE118:
 185              		.loc 1 122 0
 186 0006 FFF7FEFF 		bl	adc_lld_stop
 187              	.LVL8:
 188              		.loc 1 123 0
 189 000a 0123     		movs	r3, #1
 190 000c 2370     		strb	r3, [r4]
 191              	.LBB123:
 192              	.LBB124:
 193              	.LBB125:
 194              	.LBB126:
 195              	.LBB127:
 196              	.LBB128:
 197              		.loc 3 331 0
 198              	@ 331 "ChibiOS_3.0.2/os/ext/CMSIS/include/core_cmFunc.h" 1
 199 000e 62B6     		cpsie i
 200              	@ 0 "" 2
 201              		.thumb
 202 0010 10BD     		pop	{r4, pc}
 203              	.LBE128:
 204              	.LBE127:
 205              	.LBE126:
 206              	.LBE125:
 207              	.LBE124:
 208              	.LBE123:
 209              		.cfi_endproc
 210              	.LFE259:
 211              		.size	adcStop, .-adcStop
 212 0012 00BF     		.section	.text.adcStartConversion,"ax",%progbits
 213              		.align	2
 214              		.p2align 4,,15
 215              		.global	adcStartConversion
 216              		.thumb
 217              		.thumb_func
 218              		.type	adcStartConversion, %function
 219              	adcStartConversion:
 220              	.LFB260:
 221              		.loc 1 146 0
 222              		.cfi_startproc
 223              		@ args = 0, pretend = 0, frame = 0
 224              		@ frame_needed = 0, uses_anonymous_args = 0
 225              	.LVL9:
 226 0000 38B5     		push	{r3, r4, r5, lr}
 227              		.cfi_def_cfa_offset 16
 228              		.cfi_offset 3, -16
ARM GAS  /tmp/ccPDl681.s 			page 5


 229              		.cfi_offset 4, -12
 230              		.cfi_offset 5, -8
 231              		.cfi_offset 14, -4
 232              	.LBB129:
 233              	.LBB130:
 234              	.LBB131:
 235              	.LBB132:
 236              	.LBB133:
 237              		.loc 3 342 0
 238              	@ 342 "ChibiOS_3.0.2/os/ext/CMSIS/include/core_cmFunc.h" 1
 239 0002 72B6     		cpsid i
 240              	@ 0 "" 2
 241              	.LVL10:
 242              		.thumb
 243              	.LBE133:
 244              	.LBE132:
 245              	.LBE131:
 246              	.LBE130:
 247              	.LBE129:
 248              	.LBB134:
 249              	.LBB135:
 250              		.loc 1 187 0
 251 0004 0325     		movs	r5, #3
 252              		.loc 1 184 0
 253 0006 8260     		str	r2, [r0, #8]
 254              		.loc 1 185 0
 255 0008 C360     		str	r3, [r0, #12]
 256              		.loc 1 186 0
 257 000a 0161     		str	r1, [r0, #16]
 258              		.loc 1 187 0
 259 000c 0570     		strb	r5, [r0]
 260              		.loc 1 188 0
 261 000e FFF7FEFF 		bl	adc_lld_start_conversion
 262              	.LVL11:
 263              	.LBE135:
 264              	.LBE134:
 265              	.LBB136:
 266              	.LBB137:
 267              	.LBB138:
 268              	.LBB139:
 269              	.LBB140:
 270              	.LBB141:
 271              		.loc 3 331 0
 272              	@ 331 "ChibiOS_3.0.2/os/ext/CMSIS/include/core_cmFunc.h" 1
 273 0012 62B6     		cpsie i
 274              	@ 0 "" 2
 275              		.thumb
 276 0014 38BD     		pop	{r3, r4, r5, pc}
 277              	.LBE141:
 278              	.LBE140:
 279              	.LBE139:
 280              	.LBE138:
 281              	.LBE137:
 282              	.LBE136:
 283              		.cfi_endproc
 284              	.LFE260:
 285              		.size	adcStartConversion, .-adcStartConversion
ARM GAS  /tmp/ccPDl681.s 			page 6


 286 0016 00BF     		.section	.text.adcStartConversionI,"ax",%progbits
 287              		.align	2
 288              		.p2align 4,,15
 289              		.global	adcStartConversionI
 290              		.thumb
 291              		.thumb_func
 292              		.type	adcStartConversionI, %function
 293              	adcStartConversionI:
 294              	.LFB261:
 295              		.loc 1 174 0
 296              		.cfi_startproc
 297              		@ args = 0, pretend = 0, frame = 0
 298              		@ frame_needed = 0, uses_anonymous_args = 0
 299              		@ link register save eliminated.
 300              	.LVL12:
 301 0000 30B4     		push	{r4, r5}
 302              		.cfi_def_cfa_offset 8
 303              		.cfi_offset 4, -8
 304              		.cfi_offset 5, -4
 305              		.loc 1 187 0
 306 0002 0325     		movs	r5, #3
 307 0004 0570     		strb	r5, [r0]
 308              		.loc 1 184 0
 309 0006 8260     		str	r2, [r0, #8]
 310              		.loc 1 185 0
 311 0008 C360     		str	r3, [r0, #12]
 312              		.loc 1 186 0
 313 000a 0161     		str	r1, [r0, #16]
 314              		.loc 1 189 0
 315 000c 30BC     		pop	{r4, r5}
 316              		.cfi_restore 5
 317              		.cfi_restore 4
 318              		.cfi_def_cfa_offset 0
 319              		.loc 1 188 0
 320 000e FFF7FEBF 		b	adc_lld_start_conversion
 321              	.LVL13:
 322              		.cfi_endproc
 323              	.LFE261:
 324              		.size	adcStartConversionI, .-adcStartConversionI
 325 0012 00BF     		.section	.text.adcStopConversion,"ax",%progbits
 326              		.align	2
 327              		.p2align 4,,15
 328              		.global	adcStopConversion
 329              		.thumb
 330              		.thumb_func
 331              		.type	adcStopConversion, %function
 332              	adcStopConversion:
 333              	.LFB262:
 334              		.loc 1 201 0
 335              		.cfi_startproc
 336              		@ args = 0, pretend = 0, frame = 0
 337              		@ frame_needed = 0, uses_anonymous_args = 0
 338              	.LVL14:
 339              	.LBB142:
 340              	.LBB143:
 341              	.LBB144:
 342              	.LBB145:
ARM GAS  /tmp/ccPDl681.s 			page 7


 343              	.LBB146:
 344              		.loc 3 342 0
 345              	@ 342 "ChibiOS_3.0.2/os/ext/CMSIS/include/core_cmFunc.h" 1
 346 0000 72B6     		cpsid i
 347              	@ 0 "" 2
 348              		.thumb
 349              	.LBE146:
 350              	.LBE145:
 351              	.LBE144:
 352              	.LBE143:
 353              	.LBE142:
 354              		.loc 1 208 0
 355 0002 0278     		ldrb	r2, [r0]	@ zero_extendqisi2
 356 0004 022A     		cmp	r2, #2
 357 0006 0FD0     		beq	.L17
 358              		.loc 1 201 0
 359 0008 10B5     		push	{r4, lr}
 360              		.cfi_def_cfa_offset 8
 361              		.cfi_offset 4, -8
 362              		.cfi_offset 14, -4
 363 000a 0446     		mov	r4, r0
 364              		.loc 1 209 0
 365 000c FFF7FEFF 		bl	adc_lld_stop_conversion
 366              	.LVL15:
 367              		.loc 1 211 0
 368 0010 2046     		mov	r0, r4
 369              		.loc 1 210 0
 370 0012 0022     		movs	r2, #0
 371              		.loc 1 211 0
 372 0014 0223     		movs	r3, #2
 373              		.loc 1 210 0
 374 0016 2261     		str	r2, [r4, #16]
 375              	.LBB147:
 376              	.LBB148:
 377              		.loc 2 743 0
 378 0018 6FF00101 		mvn	r1, #1
 379              	.LBE148:
 380              	.LBE147:
 381              		.loc 1 211 0
 382 001c 00F8143B 		strb	r3, [r0], #20
 383              	.LVL16:
 384              	.LBB150:
 385              	.LBB149:
 386              		.loc 2 743 0
 387 0020 FFF7FEFF 		bl	chThdResumeS
 388              	.LVL17:
 389              	.LBE149:
 390              	.LBE150:
 391              	.LBB151:
 392              	.LBB152:
 393              	.LBB153:
 394              	.LBB154:
 395              	.LBB155:
 396              	.LBB156:
 397              		.loc 3 331 0
 398              	@ 331 "ChibiOS_3.0.2/os/ext/CMSIS/include/core_cmFunc.h" 1
 399 0024 62B6     		cpsie i
ARM GAS  /tmp/ccPDl681.s 			page 8


 400              	@ 0 "" 2
 401              		.thumb
 402 0026 10BD     		pop	{r4, pc}
 403              	.LVL18:
 404              	.L17:
 405              		.cfi_def_cfa_offset 0
 406              		.cfi_restore 4
 407              		.cfi_restore 14
 408              	@ 331 "ChibiOS_3.0.2/os/ext/CMSIS/include/core_cmFunc.h" 1
 409 0028 62B6     		cpsie i
 410              	@ 0 "" 2
 411              		.thumb
 412 002a 7047     		bx	lr
 413              	.LBE156:
 414              	.LBE155:
 415              	.LBE154:
 416              	.LBE153:
 417              	.LBE152:
 418              	.LBE151:
 419              		.cfi_endproc
 420              	.LFE262:
 421              		.size	adcStopConversion, .-adcStopConversion
 422              		.section	.text.adcStopConversionI,"ax",%progbits
 423              		.align	2
 424              		.p2align 4,,15
 425              		.global	adcStopConversionI
 426              		.thumb
 427              		.thumb_func
 428              		.type	adcStopConversionI, %function
 429              	adcStopConversionI:
 430              	.LFB263:
 431              		.loc 1 227 0
 432              		.cfi_startproc
 433              		@ args = 0, pretend = 0, frame = 0
 434              		@ frame_needed = 0, uses_anonymous_args = 0
 435              	.LVL19:
 436              		.loc 1 236 0
 437 0000 0278     		ldrb	r2, [r0]	@ zero_extendqisi2
 438 0002 022A     		cmp	r2, #2
 439 0004 0FD0     		beq	.L22
 440              		.loc 1 227 0
 441 0006 10B5     		push	{r4, lr}
 442              		.cfi_def_cfa_offset 8
 443              		.cfi_offset 4, -8
 444              		.cfi_offset 14, -4
 445 0008 0446     		mov	r4, r0
 446              		.loc 1 237 0
 447 000a FFF7FEFF 		bl	adc_lld_stop_conversion
 448              	.LVL20:
 449              		.loc 1 239 0
 450 000e 2046     		mov	r0, r4
 451              		.loc 1 238 0
 452 0010 0022     		movs	r2, #0
 453              		.loc 1 239 0
 454 0012 0223     		movs	r3, #2
 455              		.loc 1 238 0
 456 0014 2261     		str	r2, [r4, #16]
ARM GAS  /tmp/ccPDl681.s 			page 9


 457              	.LBB157:
 458              	.LBB158:
 459              		.loc 2 728 0
 460 0016 6FF00101 		mvn	r1, #1
 461              	.LBE158:
 462              	.LBE157:
 463              		.loc 1 239 0
 464 001a 00F8143B 		strb	r3, [r0], #20
 465              	.LVL21:
 466              		.loc 1 242 0
 467 001e BDE81040 		pop	{r4, lr}
 468              		.cfi_restore 14
 469              		.cfi_restore 4
 470              		.cfi_def_cfa_offset 0
 471              	.LVL22:
 472              	.LBB160:
 473              	.LBB159:
 474              		.loc 2 728 0
 475 0022 FFF7FEBF 		b	chThdResumeI
 476              	.LVL23:
 477              	.L22:
 478 0026 7047     		bx	lr
 479              	.LBE159:
 480              	.LBE160:
 481              		.cfi_endproc
 482              	.LFE263:
 483              		.size	adcStopConversionI, .-adcStopConversionI
 484              		.section	.text.adcConvert,"ax",%progbits
 485              		.align	2
 486              		.p2align 4,,15
 487              		.global	adcConvert
 488              		.thumb
 489              		.thumb_func
 490              		.type	adcConvert, %function
 491              	adcConvert:
 492              	.LFB264:
 493              		.loc 1 271 0
 494              		.cfi_startproc
 495              		@ args = 0, pretend = 0, frame = 0
 496              		@ frame_needed = 0, uses_anonymous_args = 0
 497              	.LVL24:
 498 0000 70B5     		push	{r4, r5, r6, lr}
 499              		.cfi_def_cfa_offset 16
 500              		.cfi_offset 4, -16
 501              		.cfi_offset 5, -12
 502              		.cfi_offset 6, -8
 503              		.cfi_offset 14, -4
 504              	.LBB161:
 505              	.LBB162:
 506              	.LBB163:
 507              	.LBB164:
 508              	.LBB165:
 509              		.loc 3 342 0
 510              	@ 342 "ChibiOS_3.0.2/os/ext/CMSIS/include/core_cmFunc.h" 1
 511 0002 72B6     		cpsid i
 512              	@ 0 "" 2
 513              	.LVL25:
ARM GAS  /tmp/ccPDl681.s 			page 10


 514              		.thumb
 515              	.LBE165:
 516              	.LBE164:
 517              	.LBE163:
 518              	.LBE162:
 519              	.LBE161:
 520              	.LBB166:
 521              	.LBB167:
 522              		.loc 1 187 0
 523 0004 0546     		mov	r5, r0
 524 0006 0326     		movs	r6, #3
 525              		.loc 1 184 0
 526 0008 8260     		str	r2, [r0, #8]
 527              		.loc 1 185 0
 528 000a C360     		str	r3, [r0, #12]
 529              		.loc 1 186 0
 530 000c 0161     		str	r1, [r0, #16]
 531              		.loc 1 187 0
 532 000e 05F8146B 		strb	r6, [r5], #20
 533              		.loc 1 188 0
 534 0012 FFF7FEFF 		bl	adc_lld_start_conversion
 535              	.LVL26:
 536              	.LBE167:
 537              	.LBE166:
 538              	.LBB168:
 539              	.LBB169:
 540              		.loc 2 688 0
 541 0016 2846     		mov	r0, r5
 542 0018 FFF7FEFF 		bl	chThdSuspendS
 543              	.LVL27:
 544              	.LBE169:
 545              	.LBE168:
 546              	.LBB170:
 547              	.LBB171:
 548              	.LBB172:
 549              	.LBB173:
 550              	.LBB174:
 551              	.LBB175:
 552              		.loc 3 331 0
 553              	@ 331 "ChibiOS_3.0.2/os/ext/CMSIS/include/core_cmFunc.h" 1
 554 001c 62B6     		cpsie i
 555              	@ 0 "" 2
 556              		.thumb
 557              	.LBE175:
 558              	.LBE174:
 559              	.LBE173:
 560              	.LBE172:
 561              	.LBE171:
 562              	.LBE170:
 563              		.loc 1 280 0
 564 001e 70BD     		pop	{r4, r5, r6, pc}
 565              		.cfi_endproc
 566              	.LFE264:
 567              		.size	adcConvert, .-adcConvert
 568              		.section	.text.adcAcquireBus,"ax",%progbits
 569              		.align	2
 570              		.p2align 4,,15
ARM GAS  /tmp/ccPDl681.s 			page 11


 571              		.global	adcAcquireBus
 572              		.thumb
 573              		.thumb_func
 574              		.type	adcAcquireBus, %function
 575              	adcAcquireBus:
 576              	.LFB265:
 577              		.loc 1 295 0
 578              		.cfi_startproc
 579              		@ args = 0, pretend = 0, frame = 0
 580              		@ frame_needed = 0, uses_anonymous_args = 0
 581              		@ link register save eliminated.
 582              	.LVL28:
 583              	.LBB176:
 584              	.LBB177:
 585              		.loc 2 907 0
 586 0000 1830     		adds	r0, r0, #24
 587              	.LVL29:
 588 0002 FFF7FEBF 		b	chMtxLock
 589              	.LVL30:
 590              	.LBE177:
 591              	.LBE176:
 592              		.cfi_endproc
 593              	.LFE265:
 594              		.size	adcAcquireBus, .-adcAcquireBus
 595 0006 00BF     		.section	.text.adcReleaseBus,"ax",%progbits
 596              		.align	2
 597              		.p2align 4,,15
 598              		.global	adcReleaseBus
 599              		.thumb
 600              		.thumb_func
 601              		.type	adcReleaseBus, %function
 602              	adcReleaseBus:
 603              	.LFB266:
 604              		.loc 1 311 0
 605              		.cfi_startproc
 606              		@ args = 0, pretend = 0, frame = 0
 607              		@ frame_needed = 0, uses_anonymous_args = 0
 608              		@ link register save eliminated.
 609              	.LVL31:
 610              	.LBB178:
 611              	.LBB179:
 612              		.loc 2 931 0
 613 0000 1830     		adds	r0, r0, #24
 614              	.LVL32:
 615 0002 FFF7FEBF 		b	chMtxUnlock
 616              	.LVL33:
 617              	.LBE179:
 618              	.LBE178:
 619              		.cfi_endproc
 620              	.LFE266:
 621              		.size	adcReleaseBus, .-adcReleaseBus
 622 0006 00BF     		.text
 623              	.Letext0:
 624              		.file 4 "/usr/lib/gcc/arm-none-eabi/4.9.3/include/stddef.h"
 625              		.file 5 "/usr/arm-none-eabi/include/machine/_default_types.h"
 626              		.file 6 "/usr/arm-none-eabi/include/sys/_stdint.h"
 627              		.file 7 "ChibiOS_3.0.2/os/rt/ports/ARMCMx/compilers/GCC/chtypes.h"
ARM GAS  /tmp/ccPDl681.s 			page 12


 628              		.file 8 "ChibiOS_3.0.2/os/rt/include/chsystypes.h"
 629              		.file 9 "ChibiOS_3.0.2/os/rt/include/chschd.h"
 630              		.file 10 "ChibiOS_3.0.2/os/ext/CMSIS/ST/stm32f407xx.h"
 631              		.file 11 "ChibiOS_3.0.2/os/rt/ports/ARMCMx/chcore.h"
 632              		.file 12 "ChibiOS_3.0.2/os/rt/ports/ARMCMx/chcore_v7m.h"
 633              		.file 13 "ChibiOS_3.0.2/os/rt/include/chtm.h"
 634              		.file 14 "ChibiOS_3.0.2/os/rt/include/chsem.h"
 635              		.file 15 "ChibiOS_3.0.2/os/rt/include/chmtx.h"
 636              		.file 16 "ChibiOS_3.0.2/os/hal/ports/STM32/STM32F4xx/stm32_dma.h"
 637              		.file 17 "ChibiOS_3.0.2/os/hal/include/adc.h"
 638              		.file 18 "ChibiOS_3.0.2/os/hal/ports/STM32/STM32F4xx/adc_lld.h"
 639              		.file 19 "ChibiOS_3.0.2/os/rt/include/chsys.h"
 640              		.file 20 "ChibiOS_3.0.2/os/rt/include/chthreads.h"
 641              		.file 21 "ChibiOS_3.0.2/os/ext/CMSIS/include/core_cm4.h"
 642              		.section	.debug_info,"",%progbits
 643              	.Ldebug_info0:
 644 0000 B8150000 		.4byte	0x15b8
 645 0004 0400     		.2byte	0x4
 646 0006 00000000 		.4byte	.Ldebug_abbrev0
 647 000a 04       		.byte	0x4
 648 000b 01       		.uleb128 0x1
 649 000c F8010000 		.4byte	.LASF203
 650 0010 01       		.byte	0x1
 651 0011 96040000 		.4byte	.LASF204
 652 0015 00040000 		.4byte	.LASF205
 653 0019 30000000 		.4byte	.Ldebug_ranges0+0x30
 654 001d 00000000 		.4byte	0
 655 0021 00000000 		.4byte	.Ldebug_line0
 656 0025 02       		.uleb128 0x2
 657 0026 04       		.byte	0x4
 658 0027 05       		.byte	0x5
 659 0028 696E7400 		.ascii	"int\000"
 660 002c 03       		.uleb128 0x3
 661 002d 18000000 		.4byte	.LASF2
 662 0031 04       		.byte	0x4
 663 0032 D4       		.byte	0xd4
 664 0033 37000000 		.4byte	0x37
 665 0037 04       		.uleb128 0x4
 666 0038 04       		.byte	0x4
 667 0039 07       		.byte	0x7
 668 003a 80060000 		.4byte	.LASF0
 669 003e 04       		.uleb128 0x4
 670 003f 01       		.byte	0x1
 671 0040 06       		.byte	0x6
 672 0041 1C030000 		.4byte	.LASF1
 673 0045 03       		.uleb128 0x3
 674 0046 5D010000 		.4byte	.LASF3
 675 004a 05       		.byte	0x5
 676 004b 1D       		.byte	0x1d
 677 004c 50000000 		.4byte	0x50
 678 0050 04       		.uleb128 0x4
 679 0051 01       		.byte	0x1
 680 0052 08       		.byte	0x8
 681 0053 54030000 		.4byte	.LASF4
 682 0057 04       		.uleb128 0x4
 683 0058 02       		.byte	0x2
 684 0059 05       		.byte	0x5
ARM GAS  /tmp/ccPDl681.s 			page 13


 685 005a 82080000 		.4byte	.LASF5
 686 005e 03       		.uleb128 0x3
 687 005f BD030000 		.4byte	.LASF6
 688 0063 05       		.byte	0x5
 689 0064 2B       		.byte	0x2b
 690 0065 69000000 		.4byte	0x69
 691 0069 04       		.uleb128 0x4
 692 006a 02       		.byte	0x2
 693 006b 07       		.byte	0x7
 694 006c 65090000 		.4byte	.LASF7
 695 0070 03       		.uleb128 0x3
 696 0071 AB090000 		.4byte	.LASF8
 697 0075 05       		.byte	0x5
 698 0076 3F       		.byte	0x3f
 699 0077 7B000000 		.4byte	0x7b
 700 007b 04       		.uleb128 0x4
 701 007c 04       		.byte	0x4
 702 007d 05       		.byte	0x5
 703 007e 84010000 		.4byte	.LASF9
 704 0082 03       		.uleb128 0x3
 705 0083 DD050000 		.4byte	.LASF10
 706 0087 05       		.byte	0x5
 707 0088 41       		.byte	0x41
 708 0089 8D000000 		.4byte	0x8d
 709 008d 04       		.uleb128 0x4
 710 008e 04       		.byte	0x4
 711 008f 07       		.byte	0x7
 712 0090 EC040000 		.4byte	.LASF11
 713 0094 04       		.uleb128 0x4
 714 0095 08       		.byte	0x8
 715 0096 05       		.byte	0x5
 716 0097 E8050000 		.4byte	.LASF12
 717 009b 03       		.uleb128 0x3
 718 009c D5040000 		.4byte	.LASF13
 719 00a0 05       		.byte	0x5
 720 00a1 5B       		.byte	0x5b
 721 00a2 A6000000 		.4byte	0xa6
 722 00a6 04       		.uleb128 0x4
 723 00a7 08       		.byte	0x8
 724 00a8 07       		.byte	0x7
 725 00a9 60070000 		.4byte	.LASF14
 726 00ad 03       		.uleb128 0x3
 727 00ae 32030000 		.4byte	.LASF15
 728 00b2 06       		.byte	0x6
 729 00b3 14       		.byte	0x14
 730 00b4 45000000 		.4byte	0x45
 731 00b8 03       		.uleb128 0x3
 732 00b9 7F070000 		.4byte	.LASF16
 733 00bd 06       		.byte	0x6
 734 00be 1A       		.byte	0x1a
 735 00bf 5E000000 		.4byte	0x5e
 736 00c3 03       		.uleb128 0x3
 737 00c4 8D000000 		.4byte	.LASF17
 738 00c8 06       		.byte	0x6
 739 00c9 1F       		.byte	0x1f
 740 00ca 70000000 		.4byte	0x70
 741 00ce 03       		.uleb128 0x3
ARM GAS  /tmp/ccPDl681.s 			page 14


 742 00cf 55090000 		.4byte	.LASF18
 743 00d3 06       		.byte	0x6
 744 00d4 20       		.byte	0x20
 745 00d5 82000000 		.4byte	0x82
 746 00d9 03       		.uleb128 0x3
 747 00da 8C080000 		.4byte	.LASF19
 748 00de 06       		.byte	0x6
 749 00df 26       		.byte	0x26
 750 00e0 9B000000 		.4byte	0x9b
 751 00e4 05       		.uleb128 0x5
 752 00e5 C3000000 		.4byte	0xc3
 753 00e9 05       		.uleb128 0x5
 754 00ea CE000000 		.4byte	0xce
 755 00ee 03       		.uleb128 0x3
 756 00ef 8D060000 		.4byte	.LASF20
 757 00f3 07       		.byte	0x7
 758 00f4 45       		.byte	0x45
 759 00f5 CE000000 		.4byte	0xce
 760 00f9 03       		.uleb128 0x3
 761 00fa 1C080000 		.4byte	.LASF21
 762 00fe 07       		.byte	0x7
 763 00ff 48       		.byte	0x48
 764 0100 AD000000 		.4byte	0xad
 765 0104 03       		.uleb128 0x3
 766 0105 B3010000 		.4byte	.LASF22
 767 0109 07       		.byte	0x7
 768 010a 49       		.byte	0x49
 769 010b AD000000 		.4byte	0xad
 770 010f 03       		.uleb128 0x3
 771 0110 29090000 		.4byte	.LASF23
 772 0114 07       		.byte	0x7
 773 0115 4A       		.byte	0x4a
 774 0116 AD000000 		.4byte	0xad
 775 011a 03       		.uleb128 0x3
 776 011b 9F070000 		.4byte	.LASF24
 777 011f 07       		.byte	0x7
 778 0120 4B       		.byte	0x4b
 779 0121 AD000000 		.4byte	0xad
 780 0125 03       		.uleb128 0x3
 781 0126 57000000 		.4byte	.LASF25
 782 012a 07       		.byte	0x7
 783 012b 4C       		.byte	0x4c
 784 012c CE000000 		.4byte	0xce
 785 0130 03       		.uleb128 0x3
 786 0131 88070000 		.4byte	.LASF26
 787 0135 07       		.byte	0x7
 788 0136 4D       		.byte	0x4d
 789 0137 C3000000 		.4byte	0xc3
 790 013b 03       		.uleb128 0x3
 791 013c 3A030000 		.4byte	.LASF27
 792 0140 07       		.byte	0x7
 793 0141 4F       		.byte	0x4f
 794 0142 CE000000 		.4byte	0xce
 795 0146 03       		.uleb128 0x3
 796 0147 74040000 		.4byte	.LASF28
 797 014b 07       		.byte	0x7
 798 014c 51       		.byte	0x51
ARM GAS  /tmp/ccPDl681.s 			page 15


 799 014d C3000000 		.4byte	0xc3
 800 0151 03       		.uleb128 0x3
 801 0152 47000000 		.4byte	.LASF29
 802 0156 08       		.byte	0x8
 803 0157 33       		.byte	0x33
 804 0158 CE000000 		.4byte	0xce
 805 015c 03       		.uleb128 0x3
 806 015d EA060000 		.4byte	.LASF30
 807 0161 08       		.byte	0x8
 808 0162 3F       		.byte	0x3f
 809 0163 67010000 		.4byte	0x167
 810 0167 06       		.uleb128 0x6
 811 0168 1C050000 		.4byte	.LASF52
 812 016c 48       		.byte	0x48
 813 016d 09       		.byte	0x9
 814 016e C2       		.byte	0xc2
 815 016f 6C020000 		.4byte	0x26c
 816 0173 07       		.uleb128 0x7
 817 0174 8D010000 		.4byte	.LASF31
 818 0178 09       		.byte	0x9
 819 0179 C3       		.byte	0xc3
 820 017a 77020000 		.4byte	0x277
 821 017e 00       		.byte	0
 822 017f 07       		.uleb128 0x7
 823 0180 AC010000 		.4byte	.LASF32
 824 0184 09       		.byte	0x9
 825 0185 C5       		.byte	0xc5
 826 0186 77020000 		.4byte	0x277
 827 018a 04       		.byte	0x4
 828 018b 07       		.uleb128 0x7
 829 018c B6030000 		.4byte	.LASF33
 830 0190 09       		.byte	0x9
 831 0191 C7       		.byte	0xc7
 832 0192 25010000 		.4byte	0x125
 833 0196 08       		.byte	0x8
 834 0197 07       		.uleb128 0x7
 835 0198 51000000 		.4byte	.LASF34
 836 019c 09       		.byte	0x9
 837 019d C8       		.byte	0xc8
 838 019e 0C060000 		.4byte	0x60c
 839 01a2 0C       		.byte	0xc
 840 01a3 07       		.uleb128 0x7
 841 01a4 7C010000 		.4byte	.LASF35
 842 01a8 09       		.byte	0x9
 843 01a9 CA       		.byte	0xca
 844 01aa 77020000 		.4byte	0x277
 845 01ae 10       		.byte	0x10
 846 01af 07       		.uleb128 0x7
 847 01b0 77070000 		.4byte	.LASF36
 848 01b4 09       		.byte	0x9
 849 01b5 CB       		.byte	0xcb
 850 01b6 77020000 		.4byte	0x277
 851 01ba 14       		.byte	0x14
 852 01bb 07       		.uleb128 0x7
 853 01bc CF090000 		.4byte	.LASF37
 854 01c0 09       		.byte	0x9
 855 01c1 D2       		.byte	0xd2
ARM GAS  /tmp/ccPDl681.s 			page 16


 856 01c2 51080000 		.4byte	0x851
 857 01c6 18       		.byte	0x18
 858 01c7 07       		.uleb128 0x7
 859 01c8 ED090000 		.4byte	.LASF38
 860 01cc 09       		.byte	0x9
 861 01cd DD       		.byte	0xdd
 862 01ce 04010000 		.4byte	0x104
 863 01d2 1C       		.byte	0x1c
 864 01d3 07       		.uleb128 0x7
 865 01d4 69060000 		.4byte	.LASF39
 866 01d8 09       		.byte	0x9
 867 01d9 E1       		.byte	0xe1
 868 01da F9000000 		.4byte	0xf9
 869 01de 1D       		.byte	0x1d
 870 01df 07       		.uleb128 0x7
 871 01e0 9D060000 		.4byte	.LASF40
 872 01e4 09       		.byte	0x9
 873 01e5 E6       		.byte	0xe6
 874 01e6 0F010000 		.4byte	0x10f
 875 01ea 1E       		.byte	0x1e
 876 01eb 07       		.uleb128 0x7
 877 01ec 28030000 		.4byte	.LASF41
 878 01f0 09       		.byte	0x9
 879 01f1 EC       		.byte	0xec
 880 01f2 1A010000 		.4byte	0x11a
 881 01f6 1F       		.byte	0x1f
 882 01f7 07       		.uleb128 0x7
 883 01f8 E3060000 		.4byte	.LASF42
 884 01fc 09       		.byte	0x9
 885 01fd F3       		.byte	0xf3
 886 01fe 63080000 		.4byte	0x863
 887 0202 20       		.byte	0x20
 888 0203 08       		.uleb128 0x8
 889 0204 705F7500 		.ascii	"p_u\000"
 890 0208 09       		.byte	0x9
 891 0209 3101     		.2byte	0x131
 892 020b 8C070000 		.4byte	0x78c
 893 020f 24       		.byte	0x24
 894 0210 09       		.uleb128 0x9
 895 0211 51060000 		.4byte	.LASF43
 896 0215 09       		.byte	0x9
 897 0216 3601     		.2byte	0x136
 898 0218 7D020000 		.4byte	0x27d
 899 021c 28       		.byte	0x28
 900 021d 09       		.uleb128 0x9
 901 021e 7C000000 		.4byte	.LASF44
 902 0222 09       		.byte	0x9
 903 0223 3C01     		.2byte	0x13c
 904 0225 A1020000 		.4byte	0x2a1
 905 0229 2C       		.byte	0x2c
 906 022a 09       		.uleb128 0x9
 907 022b DD090000 		.4byte	.LASF45
 908 022f 09       		.byte	0x9
 909 0230 4001     		.2byte	0x140
 910 0232 30010000 		.4byte	0x130
 911 0236 34       		.byte	0x34
 912 0237 09       		.uleb128 0x9
ARM GAS  /tmp/ccPDl681.s 			page 17


 913 0238 B5040000 		.4byte	.LASF46
 914 023c 09       		.byte	0x9
 915 023d 4601     		.2byte	0x146
 916 023f 3B010000 		.4byte	0x13b
 917 0243 38       		.byte	0x38
 918 0244 09       		.uleb128 0x9
 919 0245 CC010000 		.4byte	.LASF47
 920 0249 09       		.byte	0x9
 921 024a 4D01     		.2byte	0x14d
 922 024c 4B080000 		.4byte	0x84b
 923 0250 3C       		.byte	0x3c
 924 0251 09       		.uleb128 0x9
 925 0252 06070000 		.4byte	.LASF48
 926 0256 09       		.byte	0x9
 927 0257 5101     		.2byte	0x151
 928 0259 25010000 		.4byte	0x125
 929 025d 40       		.byte	0x40
 930 025e 09       		.uleb128 0x9
 931 025f 95060000 		.4byte	.LASF49
 932 0263 09       		.byte	0x9
 933 0264 5801     		.2byte	0x158
 934 0266 54030000 		.4byte	0x354
 935 026a 44       		.byte	0x44
 936 026b 00       		.byte	0
 937 026c 03       		.uleb128 0x3
 938 026d F3060000 		.4byte	.LASF50
 939 0271 08       		.byte	0x8
 940 0272 44       		.byte	0x44
 941 0273 77020000 		.4byte	0x277
 942 0277 0A       		.uleb128 0xa
 943 0278 04       		.byte	0x4
 944 0279 5C010000 		.4byte	0x15c
 945 027d 03       		.uleb128 0x3
 946 027e 3C090000 		.4byte	.LASF51
 947 0282 08       		.byte	0x8
 948 0283 49       		.byte	0x49
 949 0284 88020000 		.4byte	0x288
 950 0288 06       		.uleb128 0x6
 951 0289 85050000 		.4byte	.LASF53
 952 028d 04       		.byte	0x4
 953 028e 09       		.byte	0x9
 954 028f B0       		.byte	0xb0
 955 0290 A1020000 		.4byte	0x2a1
 956 0294 07       		.uleb128 0x7
 957 0295 8D010000 		.4byte	.LASF31
 958 0299 09       		.byte	0x9
 959 029a B1       		.byte	0xb1
 960 029b 77020000 		.4byte	0x277
 961 029f 00       		.byte	0
 962 02a0 00       		.byte	0
 963 02a1 03       		.uleb128 0x3
 964 02a2 BC010000 		.4byte	.LASF54
 965 02a6 08       		.byte	0x8
 966 02a7 50       		.byte	0x50
 967 02a8 AC020000 		.4byte	0x2ac
 968 02ac 06       		.uleb128 0x6
 969 02ad 8E070000 		.4byte	.LASF55
ARM GAS  /tmp/ccPDl681.s 			page 18


 970 02b1 08       		.byte	0x8
 971 02b2 09       		.byte	0x9
 972 02b3 B7       		.byte	0xb7
 973 02b4 D1020000 		.4byte	0x2d1
 974 02b8 07       		.uleb128 0x7
 975 02b9 8D010000 		.4byte	.LASF31
 976 02bd 09       		.byte	0x9
 977 02be B8       		.byte	0xb8
 978 02bf 77020000 		.4byte	0x277
 979 02c3 00       		.byte	0
 980 02c4 07       		.uleb128 0x7
 981 02c5 AC010000 		.4byte	.LASF32
 982 02c9 09       		.byte	0x9
 983 02ca B9       		.byte	0xb9
 984 02cb 77020000 		.4byte	0x277
 985 02cf 04       		.byte	0x4
 986 02d0 00       		.byte	0
 987 02d1 03       		.uleb128 0x3
 988 02d2 58050000 		.4byte	.LASF56
 989 02d6 08       		.byte	0x8
 990 02d7 57       		.byte	0x57
 991 02d8 DC020000 		.4byte	0x2dc
 992 02dc 0B       		.uleb128 0xb
 993 02dd C7040000 		.4byte	.LASF57
 994 02e1 1C       		.byte	0x1c
 995 02e2 09       		.byte	0x9
 996 02e3 9001     		.2byte	0x190
 997 02e5 38030000 		.4byte	0x338
 998 02e9 09       		.uleb128 0x9
 999 02ea 00080000 		.4byte	.LASF58
 1000 02ee 09       		.byte	0x9
 1001 02ef 9101     		.2byte	0x191
 1002 02f1 A1020000 		.4byte	0x2a1
 1003 02f5 00       		.byte	0
 1004 02f6 09       		.uleb128 0x9
 1005 02f7 B6080000 		.4byte	.LASF59
 1006 02fb 09       		.byte	0x9
 1007 02fc 9201     		.2byte	0x192
 1008 02fe 25010000 		.4byte	0x125
 1009 0302 08       		.byte	0x8
 1010 0303 09       		.uleb128 0x9
 1011 0304 87000000 		.4byte	.LASF60
 1012 0308 09       		.byte	0x9
 1013 0309 9401     		.2byte	0x194
 1014 030b 0C060000 		.4byte	0x60c
 1015 030f 0C       		.byte	0xc
 1016 0310 09       		.uleb128 0x9
 1017 0311 77030000 		.4byte	.LASF61
 1018 0315 09       		.byte	0x9
 1019 0316 9701     		.2byte	0x197
 1020 0318 77020000 		.4byte	0x277
 1021 031c 10       		.byte	0x10
 1022 031d 09       		.uleb128 0x9
 1023 031e 43080000 		.4byte	.LASF62
 1024 0322 09       		.byte	0x9
 1025 0323 9801     		.2byte	0x198
 1026 0325 77020000 		.4byte	0x277
ARM GAS  /tmp/ccPDl681.s 			page 19


 1027 0329 14       		.byte	0x14
 1028 032a 09       		.uleb128 0x9
 1029 032b A9070000 		.4byte	.LASF63
 1030 032f 09       		.byte	0x9
 1031 0330 9B01     		.2byte	0x19b
 1032 0332 77020000 		.4byte	0x277
 1033 0336 18       		.byte	0x18
 1034 0337 00       		.byte	0
 1035 0338 03       		.uleb128 0x3
 1036 0339 AD000000 		.4byte	.LASF64
 1037 033d 08       		.byte	0x8
 1038 033e 5C       		.byte	0x5c
 1039 033f 43030000 		.4byte	0x343
 1040 0343 0A       		.uleb128 0xa
 1041 0344 04       		.byte	0x4
 1042 0345 49030000 		.4byte	0x349
 1043 0349 0C       		.uleb128 0xc
 1044 034a 54030000 		.4byte	0x354
 1045 034e 0D       		.uleb128 0xd
 1046 034f 54030000 		.4byte	0x354
 1047 0353 00       		.byte	0
 1048 0354 0E       		.uleb128 0xe
 1049 0355 04       		.byte	0x4
 1050 0356 03       		.uleb128 0x3
 1051 0357 48050000 		.4byte	.LASF65
 1052 035b 08       		.byte	0x8
 1053 035c 61       		.byte	0x61
 1054 035d 61030000 		.4byte	0x361
 1055 0361 0B       		.uleb128 0xb
 1056 0362 31070000 		.4byte	.LASF66
 1057 0366 14       		.byte	0x14
 1058 0367 09       		.byte	0x9
 1059 0368 6B01     		.2byte	0x16b
 1060 036a B0030000 		.4byte	0x3b0
 1061 036e 09       		.uleb128 0x9
 1062 036f FE050000 		.4byte	.LASF67
 1063 0373 09       		.byte	0x9
 1064 0374 6C01     		.2byte	0x16c
 1065 0376 68080000 		.4byte	0x868
 1066 037a 00       		.byte	0
 1067 037b 09       		.uleb128 0x9
 1068 037c 06060000 		.4byte	.LASF68
 1069 0380 09       		.byte	0x9
 1070 0381 6D01     		.2byte	0x16d
 1071 0383 68080000 		.4byte	0x868
 1072 0387 04       		.byte	0x4
 1073 0388 09       		.uleb128 0x9
 1074 0389 28070000 		.4byte	.LASF69
 1075 038d 09       		.byte	0x9
 1076 038e 6E01     		.2byte	0x16e
 1077 0390 51010000 		.4byte	0x151
 1078 0394 08       		.byte	0x8
 1079 0395 09       		.uleb128 0x9
 1080 0396 7A040000 		.4byte	.LASF70
 1081 039a 09       		.byte	0x9
 1082 039b 6F01     		.2byte	0x16f
 1083 039d 38030000 		.4byte	0x338
ARM GAS  /tmp/ccPDl681.s 			page 20


 1084 03a1 0C       		.byte	0xc
 1085 03a2 09       		.uleb128 0x9
 1086 03a3 34010000 		.4byte	.LASF71
 1087 03a7 09       		.byte	0x9
 1088 03a8 7101     		.2byte	0x171
 1089 03aa 54030000 		.4byte	0x354
 1090 03ae 10       		.byte	0x10
 1091 03af 00       		.byte	0
 1092 03b0 03       		.uleb128 0x3
 1093 03b1 26050000 		.4byte	.LASF72
 1094 03b5 08       		.byte	0x8
 1095 03b6 66       		.byte	0x66
 1096 03b7 BB030000 		.4byte	0x3bb
 1097 03bb 0B       		.uleb128 0xb
 1098 03bc C3000000 		.4byte	.LASF73
 1099 03c0 10       		.byte	0x10
 1100 03c1 09       		.byte	0x9
 1101 03c2 7B01     		.2byte	0x17b
 1102 03c4 FD030000 		.4byte	0x3fd
 1103 03c8 09       		.uleb128 0x9
 1104 03c9 FE050000 		.4byte	.LASF67
 1105 03cd 09       		.byte	0x9
 1106 03ce 7C01     		.2byte	0x17c
 1107 03d0 68080000 		.4byte	0x868
 1108 03d4 00       		.byte	0
 1109 03d5 09       		.uleb128 0x9
 1110 03d6 06060000 		.4byte	.LASF68
 1111 03da 09       		.byte	0x9
 1112 03db 7E01     		.2byte	0x17e
 1113 03dd 68080000 		.4byte	0x868
 1114 03e1 04       		.byte	0x4
 1115 03e2 09       		.uleb128 0x9
 1116 03e3 28070000 		.4byte	.LASF69
 1117 03e7 09       		.byte	0x9
 1118 03e8 8001     		.2byte	0x180
 1119 03ea 51010000 		.4byte	0x151
 1120 03ee 08       		.byte	0x8
 1121 03ef 09       		.uleb128 0x9
 1122 03f0 33080000 		.4byte	.LASF74
 1123 03f4 09       		.byte	0x9
 1124 03f5 8201     		.2byte	0x182
 1125 03f7 63080000 		.4byte	0x863
 1126 03fb 0C       		.byte	0xc
 1127 03fc 00       		.byte	0
 1128 03fd 03       		.uleb128 0x3
 1129 03fe 7F030000 		.4byte	.LASF75
 1130 0402 08       		.byte	0x8
 1131 0403 6B       		.byte	0x6b
 1132 0404 08040000 		.4byte	0x408
 1133 0408 0B       		.uleb128 0xb
 1134 0409 BD080000 		.4byte	.LASF76
 1135 040d 04       		.byte	0x4
 1136 040e 09       		.byte	0x9
 1137 040f A201     		.2byte	0x1a2
 1138 0411 23040000 		.4byte	0x423
 1139 0415 09       		.uleb128 0x9
 1140 0416 62030000 		.4byte	.LASF77
ARM GAS  /tmp/ccPDl681.s 			page 21


 1141 041a 09       		.byte	0x9
 1142 041b AA01     		.2byte	0x1aa
 1143 041d 6E080000 		.4byte	0x86e
 1144 0421 00       		.byte	0
 1145 0422 00       		.byte	0
 1146 0423 03       		.uleb128 0x3
 1147 0424 83090000 		.4byte	.LASF78
 1148 0428 08       		.byte	0x8
 1149 0429 70       		.byte	0x70
 1150 042a 2E040000 		.4byte	0x42e
 1151 042e 0F       		.uleb128 0xf
 1152 042f 4B090000 		.4byte	.LASF79
 1153 0433 5802     		.2byte	0x258
 1154 0435 09       		.byte	0x9
 1155 0436 C201     		.2byte	0x1c2
 1156 0438 8A040000 		.4byte	0x48a
 1157 043c 09       		.uleb128 0x9
 1158 043d 16080000 		.4byte	.LASF80
 1159 0441 09       		.byte	0x9
 1160 0442 C601     		.2byte	0x1c6
 1161 0444 D1020000 		.4byte	0x2d1
 1162 0448 00       		.byte	0
 1163 0449 09       		.uleb128 0x9
 1164 044a 08090000 		.4byte	.LASF81
 1165 044e 09       		.byte	0x9
 1166 044f CA01     		.2byte	0x1ca
 1167 0451 B0030000 		.4byte	0x3b0
 1168 0455 1C       		.byte	0x1c
 1169 0456 08       		.uleb128 0x8
 1170 0457 64626700 		.ascii	"dbg\000"
 1171 045b 09       		.byte	0x9
 1172 045c CE01     		.2byte	0x1ce
 1173 045e FD030000 		.4byte	0x3fd
 1174 0462 2C       		.byte	0x2c
 1175 0463 09       		.uleb128 0x9
 1176 0464 F5070000 		.4byte	.LASF82
 1177 0468 09       		.byte	0x9
 1178 0469 D201     		.2byte	0x1d2
 1179 046b 5C010000 		.4byte	0x15c
 1180 046f 30       		.byte	0x30
 1181 0470 08       		.uleb128 0x8
 1182 0471 746D00   		.ascii	"tm\000"
 1183 0474 09       		.byte	0x9
 1184 0475 D701     		.2byte	0x1d7
 1185 0477 81070000 		.4byte	0x781
 1186 047b 78       		.byte	0x78
 1187 047c 09       		.uleb128 0x9
 1188 047d 71060000 		.4byte	.LASF83
 1189 0481 09       		.byte	0x9
 1190 0482 E301     		.2byte	0x1e3
 1191 0484 73080000 		.4byte	0x873
 1192 0488 80       		.byte	0x80
 1193 0489 00       		.byte	0
 1194 048a 04       		.uleb128 0x4
 1195 048b 04       		.byte	0x4
 1196 048c 07       		.byte	0x7
 1197 048d 29000000 		.4byte	.LASF84
ARM GAS  /tmp/ccPDl681.s 			page 22


 1198 0491 10       		.uleb128 0x10
 1199 0492 50       		.byte	0x50
 1200 0493 0A       		.byte	0xa
 1201 0494 C4       		.byte	0xc4
 1202 0495 88050000 		.4byte	0x588
 1203 0499 11       		.uleb128 0x11
 1204 049a 535200   		.ascii	"SR\000"
 1205 049d 0A       		.byte	0xa
 1206 049e C6       		.byte	0xc6
 1207 049f E9000000 		.4byte	0xe9
 1208 04a3 00       		.byte	0
 1209 04a4 11       		.uleb128 0x11
 1210 04a5 43523100 		.ascii	"CR1\000"
 1211 04a9 0A       		.byte	0xa
 1212 04aa C7       		.byte	0xc7
 1213 04ab E9000000 		.4byte	0xe9
 1214 04af 04       		.byte	0x4
 1215 04b0 11       		.uleb128 0x11
 1216 04b1 43523200 		.ascii	"CR2\000"
 1217 04b5 0A       		.byte	0xa
 1218 04b6 C8       		.byte	0xc8
 1219 04b7 E9000000 		.4byte	0xe9
 1220 04bb 08       		.byte	0x8
 1221 04bc 07       		.uleb128 0x7
 1222 04bd 3C050000 		.4byte	.LASF85
 1223 04c1 0A       		.byte	0xa
 1224 04c2 C9       		.byte	0xc9
 1225 04c3 E9000000 		.4byte	0xe9
 1226 04c7 0C       		.byte	0xc
 1227 04c8 07       		.uleb128 0x7
 1228 04c9 42050000 		.4byte	.LASF86
 1229 04cd 0A       		.byte	0xa
 1230 04ce CA       		.byte	0xca
 1231 04cf E9000000 		.4byte	0xe9
 1232 04d3 10       		.byte	0x10
 1233 04d4 07       		.uleb128 0x7
 1234 04d5 9E080000 		.4byte	.LASF87
 1235 04d9 0A       		.byte	0xa
 1236 04da CB       		.byte	0xcb
 1237 04db E9000000 		.4byte	0xe9
 1238 04df 14       		.byte	0x14
 1239 04e0 07       		.uleb128 0x7
 1240 04e1 A4080000 		.4byte	.LASF88
 1241 04e5 0A       		.byte	0xa
 1242 04e6 CC       		.byte	0xcc
 1243 04e7 E9000000 		.4byte	0xe9
 1244 04eb 18       		.byte	0x18
 1245 04ec 07       		.uleb128 0x7
 1246 04ed AA080000 		.4byte	.LASF89
 1247 04f1 0A       		.byte	0xa
 1248 04f2 CD       		.byte	0xcd
 1249 04f3 E9000000 		.4byte	0xe9
 1250 04f7 1C       		.byte	0x1c
 1251 04f8 07       		.uleb128 0x7
 1252 04f9 B0080000 		.4byte	.LASF90
 1253 04fd 0A       		.byte	0xa
 1254 04fe CE       		.byte	0xce
ARM GAS  /tmp/ccPDl681.s 			page 23


 1255 04ff E9000000 		.4byte	0xe9
 1256 0503 20       		.byte	0x20
 1257 0504 11       		.uleb128 0x11
 1258 0505 48545200 		.ascii	"HTR\000"
 1259 0509 0A       		.byte	0xa
 1260 050a CF       		.byte	0xcf
 1261 050b E9000000 		.4byte	0xe9
 1262 050f 24       		.byte	0x24
 1263 0510 11       		.uleb128 0x11
 1264 0511 4C545200 		.ascii	"LTR\000"
 1265 0515 0A       		.byte	0xa
 1266 0516 D0       		.byte	0xd0
 1267 0517 E9000000 		.4byte	0xe9
 1268 051b 28       		.byte	0x28
 1269 051c 07       		.uleb128 0x7
 1270 051d 6D000000 		.4byte	.LASF91
 1271 0521 0A       		.byte	0xa
 1272 0522 D1       		.byte	0xd1
 1273 0523 E9000000 		.4byte	0xe9
 1274 0527 2C       		.byte	0x2c
 1275 0528 07       		.uleb128 0x7
 1276 0529 72000000 		.4byte	.LASF92
 1277 052d 0A       		.byte	0xa
 1278 052e D2       		.byte	0xd2
 1279 052f E9000000 		.4byte	0xe9
 1280 0533 30       		.byte	0x30
 1281 0534 07       		.uleb128 0x7
 1282 0535 77000000 		.4byte	.LASF93
 1283 0539 0A       		.byte	0xa
 1284 053a D3       		.byte	0xd3
 1285 053b E9000000 		.4byte	0xe9
 1286 053f 34       		.byte	0x34
 1287 0540 07       		.uleb128 0x7
 1288 0541 03090000 		.4byte	.LASF94
 1289 0545 0A       		.byte	0xa
 1290 0546 D4       		.byte	0xd4
 1291 0547 E9000000 		.4byte	0xe9
 1292 054b 38       		.byte	0x38
 1293 054c 07       		.uleb128 0x7
 1294 054d DB080000 		.4byte	.LASF95
 1295 0551 0A       		.byte	0xa
 1296 0552 D5       		.byte	0xd5
 1297 0553 E9000000 		.4byte	0xe9
 1298 0557 3C       		.byte	0x3c
 1299 0558 07       		.uleb128 0x7
 1300 0559 E0080000 		.4byte	.LASF96
 1301 055d 0A       		.byte	0xa
 1302 055e D6       		.byte	0xd6
 1303 055f E9000000 		.4byte	0xe9
 1304 0563 40       		.byte	0x40
 1305 0564 07       		.uleb128 0x7
 1306 0565 E5080000 		.4byte	.LASF97
 1307 0569 0A       		.byte	0xa
 1308 056a D7       		.byte	0xd7
 1309 056b E9000000 		.4byte	0xe9
 1310 056f 44       		.byte	0x44
 1311 0570 07       		.uleb128 0x7
ARM GAS  /tmp/ccPDl681.s 			page 24


 1312 0571 EA080000 		.4byte	.LASF98
 1313 0575 0A       		.byte	0xa
 1314 0576 D8       		.byte	0xd8
 1315 0577 E9000000 		.4byte	0xe9
 1316 057b 48       		.byte	0x48
 1317 057c 11       		.uleb128 0x11
 1318 057d 445200   		.ascii	"DR\000"
 1319 0580 0A       		.byte	0xa
 1320 0581 D9       		.byte	0xd9
 1321 0582 E9000000 		.4byte	0xe9
 1322 0586 4C       		.byte	0x4c
 1323 0587 00       		.byte	0
 1324 0588 03       		.uleb128 0x3
 1325 0589 8A040000 		.4byte	.LASF99
 1326 058d 0A       		.byte	0xa
 1327 058e DA       		.byte	0xda
 1328 058f 91040000 		.4byte	0x491
 1329 0593 12       		.uleb128 0x12
 1330 0594 18       		.byte	0x18
 1331 0595 0A       		.byte	0xa
 1332 0596 6B01     		.2byte	0x16b
 1333 0598 EA050000 		.4byte	0x5ea
 1334 059c 08       		.uleb128 0x8
 1335 059d 435200   		.ascii	"CR\000"
 1336 05a0 0A       		.byte	0xa
 1337 05a1 6D01     		.2byte	0x16d
 1338 05a3 E9000000 		.4byte	0xe9
 1339 05a7 00       		.byte	0
 1340 05a8 09       		.uleb128 0x9
 1341 05a9 B5090000 		.4byte	.LASF100
 1342 05ad 0A       		.byte	0xa
 1343 05ae 6E01     		.2byte	0x16e
 1344 05b0 E9000000 		.4byte	0xe9
 1345 05b4 04       		.byte	0x4
 1346 05b5 08       		.uleb128 0x8
 1347 05b6 50415200 		.ascii	"PAR\000"
 1348 05ba 0A       		.byte	0xa
 1349 05bb 6F01     		.2byte	0x16f
 1350 05bd E9000000 		.4byte	0xe9
 1351 05c1 08       		.byte	0x8
 1352 05c2 09       		.uleb128 0x9
 1353 05c3 63080000 		.4byte	.LASF101
 1354 05c7 0A       		.byte	0xa
 1355 05c8 7001     		.2byte	0x170
 1356 05ca E9000000 		.4byte	0xe9
 1357 05ce 0C       		.byte	0xc
 1358 05cf 09       		.uleb128 0x9
 1359 05d0 00000000 		.4byte	.LASF102
 1360 05d4 0A       		.byte	0xa
 1361 05d5 7101     		.2byte	0x171
 1362 05d7 E9000000 		.4byte	0xe9
 1363 05db 10       		.byte	0x10
 1364 05dc 08       		.uleb128 0x8
 1365 05dd 46435200 		.ascii	"FCR\000"
 1366 05e1 0A       		.byte	0xa
 1367 05e2 7201     		.2byte	0x172
 1368 05e4 E9000000 		.4byte	0xe9
ARM GAS  /tmp/ccPDl681.s 			page 25


 1369 05e8 14       		.byte	0x14
 1370 05e9 00       		.byte	0
 1371 05ea 13       		.uleb128 0x13
 1372 05eb D0060000 		.4byte	.LASF103
 1373 05ef 0A       		.byte	0xa
 1374 05f0 7301     		.2byte	0x173
 1375 05f2 93050000 		.4byte	0x593
 1376 05f6 03       		.uleb128 0x3
 1377 05f7 D6010000 		.4byte	.LASF104
 1378 05fb 0B       		.byte	0xb
 1379 05fc 65       		.byte	0x65
 1380 05fd 54030000 		.4byte	0x354
 1381 0601 03       		.uleb128 0x3
 1382 0602 D9030000 		.4byte	.LASF105
 1383 0606 0B       		.byte	0xb
 1384 0607 6D       		.byte	0x6d
 1385 0608 D9000000 		.4byte	0xd9
 1386 060c 06       		.uleb128 0x6
 1387 060d 46030000 		.4byte	.LASF106
 1388 0611 04       		.byte	0x4
 1389 0612 0B       		.byte	0xb
 1390 0613 89       		.byte	0x89
 1391 0614 25060000 		.4byte	0x625
 1392 0618 11       		.uleb128 0x11
 1393 0619 72313300 		.ascii	"r13\000"
 1394 061d 0B       		.byte	0xb
 1395 061e 8A       		.byte	0x8a
 1396 061f 66070000 		.4byte	0x766
 1397 0623 00       		.byte	0
 1398 0624 00       		.byte	0
 1399 0625 06       		.uleb128 0x6
 1400 0626 11070000 		.4byte	.LASF107
 1401 062a 64       		.byte	0x64
 1402 062b 0C       		.byte	0xc
 1403 062c F4       		.byte	0xf4
 1404 062d 66070000 		.4byte	0x766
 1405 0631 11       		.uleb128 0x11
 1406 0632 73313600 		.ascii	"s16\000"
 1407 0636 0C       		.byte	0xc
 1408 0637 F6       		.byte	0xf6
 1409 0638 F6050000 		.4byte	0x5f6
 1410 063c 00       		.byte	0
 1411 063d 11       		.uleb128 0x11
 1412 063e 73313700 		.ascii	"s17\000"
 1413 0642 0C       		.byte	0xc
 1414 0643 F7       		.byte	0xf7
 1415 0644 F6050000 		.4byte	0x5f6
 1416 0648 04       		.byte	0x4
 1417 0649 11       		.uleb128 0x11
 1418 064a 73313800 		.ascii	"s18\000"
 1419 064e 0C       		.byte	0xc
 1420 064f F8       		.byte	0xf8
 1421 0650 F6050000 		.4byte	0x5f6
 1422 0654 08       		.byte	0x8
 1423 0655 11       		.uleb128 0x11
 1424 0656 73313900 		.ascii	"s19\000"
 1425 065a 0C       		.byte	0xc
ARM GAS  /tmp/ccPDl681.s 			page 26


 1426 065b F9       		.byte	0xf9
 1427 065c F6050000 		.4byte	0x5f6
 1428 0660 0C       		.byte	0xc
 1429 0661 11       		.uleb128 0x11
 1430 0662 73323000 		.ascii	"s20\000"
 1431 0666 0C       		.byte	0xc
 1432 0667 FA       		.byte	0xfa
 1433 0668 F6050000 		.4byte	0x5f6
 1434 066c 10       		.byte	0x10
 1435 066d 11       		.uleb128 0x11
 1436 066e 73323100 		.ascii	"s21\000"
 1437 0672 0C       		.byte	0xc
 1438 0673 FB       		.byte	0xfb
 1439 0674 F6050000 		.4byte	0x5f6
 1440 0678 14       		.byte	0x14
 1441 0679 11       		.uleb128 0x11
 1442 067a 73323200 		.ascii	"s22\000"
 1443 067e 0C       		.byte	0xc
 1444 067f FC       		.byte	0xfc
 1445 0680 F6050000 		.4byte	0x5f6
 1446 0684 18       		.byte	0x18
 1447 0685 11       		.uleb128 0x11
 1448 0686 73323300 		.ascii	"s23\000"
 1449 068a 0C       		.byte	0xc
 1450 068b FD       		.byte	0xfd
 1451 068c F6050000 		.4byte	0x5f6
 1452 0690 1C       		.byte	0x1c
 1453 0691 11       		.uleb128 0x11
 1454 0692 73323400 		.ascii	"s24\000"
 1455 0696 0C       		.byte	0xc
 1456 0697 FE       		.byte	0xfe
 1457 0698 F6050000 		.4byte	0x5f6
 1458 069c 20       		.byte	0x20
 1459 069d 11       		.uleb128 0x11
 1460 069e 73323500 		.ascii	"s25\000"
 1461 06a2 0C       		.byte	0xc
 1462 06a3 FF       		.byte	0xff
 1463 06a4 F6050000 		.4byte	0x5f6
 1464 06a8 24       		.byte	0x24
 1465 06a9 08       		.uleb128 0x8
 1466 06aa 73323600 		.ascii	"s26\000"
 1467 06ae 0C       		.byte	0xc
 1468 06af 0001     		.2byte	0x100
 1469 06b1 F6050000 		.4byte	0x5f6
 1470 06b5 28       		.byte	0x28
 1471 06b6 08       		.uleb128 0x8
 1472 06b7 73323700 		.ascii	"s27\000"
 1473 06bb 0C       		.byte	0xc
 1474 06bc 0101     		.2byte	0x101
 1475 06be F6050000 		.4byte	0x5f6
 1476 06c2 2C       		.byte	0x2c
 1477 06c3 08       		.uleb128 0x8
 1478 06c4 73323800 		.ascii	"s28\000"
 1479 06c8 0C       		.byte	0xc
 1480 06c9 0201     		.2byte	0x102
 1481 06cb F6050000 		.4byte	0x5f6
 1482 06cf 30       		.byte	0x30
ARM GAS  /tmp/ccPDl681.s 			page 27


 1483 06d0 08       		.uleb128 0x8
 1484 06d1 73323900 		.ascii	"s29\000"
 1485 06d5 0C       		.byte	0xc
 1486 06d6 0301     		.2byte	0x103
 1487 06d8 F6050000 		.4byte	0x5f6
 1488 06dc 34       		.byte	0x34
 1489 06dd 08       		.uleb128 0x8
 1490 06de 73333000 		.ascii	"s30\000"
 1491 06e2 0C       		.byte	0xc
 1492 06e3 0401     		.2byte	0x104
 1493 06e5 F6050000 		.4byte	0x5f6
 1494 06e9 38       		.byte	0x38
 1495 06ea 08       		.uleb128 0x8
 1496 06eb 73333100 		.ascii	"s31\000"
 1497 06ef 0C       		.byte	0xc
 1498 06f0 0501     		.2byte	0x105
 1499 06f2 F6050000 		.4byte	0x5f6
 1500 06f6 3C       		.byte	0x3c
 1501 06f7 08       		.uleb128 0x8
 1502 06f8 723400   		.ascii	"r4\000"
 1503 06fb 0C       		.byte	0xc
 1504 06fc 0701     		.2byte	0x107
 1505 06fe F6050000 		.4byte	0x5f6
 1506 0702 40       		.byte	0x40
 1507 0703 08       		.uleb128 0x8
 1508 0704 723500   		.ascii	"r5\000"
 1509 0707 0C       		.byte	0xc
 1510 0708 0801     		.2byte	0x108
 1511 070a F6050000 		.4byte	0x5f6
 1512 070e 44       		.byte	0x44
 1513 070f 08       		.uleb128 0x8
 1514 0710 723600   		.ascii	"r6\000"
 1515 0713 0C       		.byte	0xc
 1516 0714 0901     		.2byte	0x109
 1517 0716 F6050000 		.4byte	0x5f6
 1518 071a 48       		.byte	0x48
 1519 071b 08       		.uleb128 0x8
 1520 071c 723700   		.ascii	"r7\000"
 1521 071f 0C       		.byte	0xc
 1522 0720 0A01     		.2byte	0x10a
 1523 0722 F6050000 		.4byte	0x5f6
 1524 0726 4C       		.byte	0x4c
 1525 0727 08       		.uleb128 0x8
 1526 0728 723800   		.ascii	"r8\000"
 1527 072b 0C       		.byte	0xc
 1528 072c 0B01     		.2byte	0x10b
 1529 072e F6050000 		.4byte	0x5f6
 1530 0732 50       		.byte	0x50
 1531 0733 08       		.uleb128 0x8
 1532 0734 723900   		.ascii	"r9\000"
 1533 0737 0C       		.byte	0xc
 1534 0738 0C01     		.2byte	0x10c
 1535 073a F6050000 		.4byte	0x5f6
 1536 073e 54       		.byte	0x54
 1537 073f 08       		.uleb128 0x8
 1538 0740 72313000 		.ascii	"r10\000"
 1539 0744 0C       		.byte	0xc
ARM GAS  /tmp/ccPDl681.s 			page 28


 1540 0745 0D01     		.2byte	0x10d
 1541 0747 F6050000 		.4byte	0x5f6
 1542 074b 58       		.byte	0x58
 1543 074c 08       		.uleb128 0x8
 1544 074d 72313100 		.ascii	"r11\000"
 1545 0751 0C       		.byte	0xc
 1546 0752 0E01     		.2byte	0x10e
 1547 0754 F6050000 		.4byte	0x5f6
 1548 0758 5C       		.byte	0x5c
 1549 0759 08       		.uleb128 0x8
 1550 075a 6C7200   		.ascii	"lr\000"
 1551 075d 0C       		.byte	0xc
 1552 075e 0F01     		.2byte	0x10f
 1553 0760 F6050000 		.4byte	0x5f6
 1554 0764 60       		.byte	0x60
 1555 0765 00       		.byte	0
 1556 0766 0A       		.uleb128 0xa
 1557 0767 04       		.byte	0x4
 1558 0768 25060000 		.4byte	0x625
 1559 076c 10       		.uleb128 0x10
 1560 076d 04       		.byte	0x4
 1561 076e 0D       		.byte	0xd
 1562 076f 38       		.byte	0x38
 1563 0770 81070000 		.4byte	0x781
 1564 0774 07       		.uleb128 0x7
 1565 0775 B1060000 		.4byte	.LASF108
 1566 0779 0D       		.byte	0xd
 1567 077a 3C       		.byte	0x3c
 1568 077b EE000000 		.4byte	0xee
 1569 077f 00       		.byte	0
 1570 0780 00       		.byte	0
 1571 0781 03       		.uleb128 0x3
 1572 0782 4B080000 		.4byte	.LASF109
 1573 0786 0D       		.byte	0xd
 1574 0787 3D       		.byte	0x3d
 1575 0788 6C070000 		.4byte	0x76c
 1576 078c 14       		.uleb128 0x14
 1577 078d 04       		.byte	0x4
 1578 078e 09       		.byte	0x9
 1579 078f FA       		.byte	0xfa
 1580 0790 E9070000 		.4byte	0x7e9
 1581 0794 15       		.uleb128 0x15
 1582 0795 5E090000 		.4byte	.LASF110
 1583 0799 09       		.byte	0x9
 1584 079a 0101     		.2byte	0x101
 1585 079c 30010000 		.4byte	0x130
 1586 07a0 15       		.uleb128 0x15
 1587 07a1 42010000 		.4byte	.LASF111
 1588 07a5 09       		.byte	0x9
 1589 07a6 0801     		.2byte	0x108
 1590 07a8 30010000 		.4byte	0x130
 1591 07ac 15       		.uleb128 0x15
 1592 07ad C8030000 		.4byte	.LASF112
 1593 07b1 09       		.byte	0x9
 1594 07b2 0F01     		.2byte	0x10f
 1595 07b4 54030000 		.4byte	0x354
 1596 07b8 15       		.uleb128 0x15
ARM GAS  /tmp/ccPDl681.s 			page 29


 1597 07b9 4E030000 		.4byte	.LASF113
 1598 07bd 09       		.byte	0x9
 1599 07be 1601     		.2byte	0x116
 1600 07c0 E9070000 		.4byte	0x7e9
 1601 07c4 15       		.uleb128 0x15
 1602 07c5 40000000 		.4byte	.LASF114
 1603 07c9 09       		.byte	0x9
 1604 07ca 1E01     		.2byte	0x11e
 1605 07cc 14080000 		.4byte	0x814
 1606 07d0 15       		.uleb128 0x15
 1607 07d1 C0040000 		.4byte	.LASF115
 1608 07d5 09       		.byte	0x9
 1609 07d6 2701     		.2byte	0x127
 1610 07d8 4B080000 		.4byte	0x84b
 1611 07dc 15       		.uleb128 0x15
 1612 07dd 67010000 		.4byte	.LASF116
 1613 07e1 09       		.byte	0x9
 1614 07e2 2F01     		.2byte	0x12f
 1615 07e4 3B010000 		.4byte	0x13b
 1616 07e8 00       		.byte	0
 1617 07e9 0A       		.uleb128 0xa
 1618 07ea 04       		.byte	0x4
 1619 07eb 6C020000 		.4byte	0x26c
 1620 07ef 06       		.uleb128 0x6
 1621 07f0 0F050000 		.4byte	.LASF117
 1622 07f4 0C       		.byte	0xc
 1623 07f5 0E       		.byte	0xe
 1624 07f6 34       		.byte	0x34
 1625 07f7 14080000 		.4byte	0x814
 1626 07fb 07       		.uleb128 0x7
 1627 07fc 72080000 		.4byte	.LASF118
 1628 0800 0E       		.byte	0xe
 1629 0801 35       		.byte	0x35
 1630 0802 A1020000 		.4byte	0x2a1
 1631 0806 00       		.byte	0
 1632 0807 07       		.uleb128 0x7
 1633 0808 42070000 		.4byte	.LASF119
 1634 080c 0E       		.byte	0xe
 1635 080d 37       		.byte	0x37
 1636 080e 46010000 		.4byte	0x146
 1637 0812 08       		.byte	0x8
 1638 0813 00       		.byte	0
 1639 0814 0A       		.uleb128 0xa
 1640 0815 04       		.byte	0x4
 1641 0816 EF070000 		.4byte	0x7ef
 1642 081a 06       		.uleb128 0x6
 1643 081b 95080000 		.4byte	.LASF120
 1644 081f 10       		.byte	0x10
 1645 0820 0F       		.byte	0xf
 1646 0821 39       		.byte	0x39
 1647 0822 4B080000 		.4byte	0x84b
 1648 0826 07       		.uleb128 0x7
 1649 0827 F6050000 		.4byte	.LASF121
 1650 082b 0F       		.byte	0xf
 1651 082c 3A       		.byte	0x3a
 1652 082d A1020000 		.4byte	0x2a1
 1653 0831 00       		.byte	0
ARM GAS  /tmp/ccPDl681.s 			page 30


 1654 0832 07       		.uleb128 0x7
 1655 0833 2C010000 		.4byte	.LASF122
 1656 0837 0F       		.byte	0xf
 1657 0838 3C       		.byte	0x3c
 1658 0839 77020000 		.4byte	0x277
 1659 083d 08       		.byte	0x8
 1660 083e 07       		.uleb128 0x7
 1661 083f D6090000 		.4byte	.LASF123
 1662 0843 0F       		.byte	0xf
 1663 0844 3E       		.byte	0x3e
 1664 0845 8E080000 		.4byte	0x88e
 1665 0849 0C       		.byte	0xc
 1666 084a 00       		.byte	0
 1667 084b 0A       		.uleb128 0xa
 1668 084c 04       		.byte	0x4
 1669 084d 1A080000 		.4byte	0x81a
 1670 0851 0A       		.uleb128 0xa
 1671 0852 04       		.byte	0x4
 1672 0853 57080000 		.4byte	0x857
 1673 0857 16       		.uleb128 0x16
 1674 0858 5C080000 		.4byte	0x85c
 1675 085c 04       		.uleb128 0x4
 1676 085d 01       		.byte	0x1
 1677 085e 08       		.byte	0x8
 1678 085f AA030000 		.4byte	.LASF124
 1679 0863 05       		.uleb128 0x5
 1680 0864 51010000 		.4byte	0x151
 1681 0868 0A       		.uleb128 0xa
 1682 0869 04       		.byte	0x4
 1683 086a 56030000 		.4byte	0x356
 1684 086e 05       		.uleb128 0x5
 1685 086f 51080000 		.4byte	0x851
 1686 0873 17       		.uleb128 0x17
 1687 0874 01060000 		.4byte	0x601
 1688 0878 83080000 		.4byte	0x883
 1689 087c 18       		.uleb128 0x18
 1690 087d 8A040000 		.4byte	0x48a
 1691 0881 3A       		.byte	0x3a
 1692 0882 00       		.byte	0
 1693 0883 03       		.uleb128 0x3
 1694 0884 21090000 		.4byte	.LASF125
 1695 0888 0F       		.byte	0xf
 1696 0889 34       		.byte	0x34
 1697 088a 1A080000 		.4byte	0x81a
 1698 088e 0A       		.uleb128 0xa
 1699 088f 04       		.byte	0x4
 1700 0890 83080000 		.4byte	0x883
 1701 0894 10       		.uleb128 0x10
 1702 0895 0C       		.byte	0xc
 1703 0896 10       		.byte	0x10
 1704 0897 DA       		.byte	0xda
 1705 0898 D9080000 		.4byte	0x8d9
 1706 089c 07       		.uleb128 0x7
 1707 089d 58040000 		.4byte	.LASF126
 1708 08a1 10       		.byte	0x10
 1709 08a2 DB       		.byte	0xdb
 1710 08a3 D9080000 		.4byte	0x8d9
ARM GAS  /tmp/ccPDl681.s 			page 31


 1711 08a7 00       		.byte	0
 1712 08a8 07       		.uleb128 0x7
 1713 08a9 BA090000 		.4byte	.LASF127
 1714 08ad 10       		.byte	0x10
 1715 08ae DC       		.byte	0xdc
 1716 08af DF080000 		.4byte	0x8df
 1717 08b3 04       		.byte	0x4
 1718 08b4 07       		.uleb128 0x7
 1719 08b5 AF030000 		.4byte	.LASF128
 1720 08b9 10       		.byte	0x10
 1721 08ba DD       		.byte	0xdd
 1722 08bb AD000000 		.4byte	0xad
 1723 08bf 08       		.byte	0x8
 1724 08c0 07       		.uleb128 0x7
 1725 08c1 48070000 		.4byte	.LASF129
 1726 08c5 10       		.byte	0x10
 1727 08c6 DF       		.byte	0xdf
 1728 08c7 AD000000 		.4byte	0xad
 1729 08cb 09       		.byte	0x9
 1730 08cc 07       		.uleb128 0x7
 1731 08cd CA070000 		.4byte	.LASF130
 1732 08d1 10       		.byte	0x10
 1733 08d2 E0       		.byte	0xe0
 1734 08d3 AD000000 		.4byte	0xad
 1735 08d7 0A       		.byte	0xa
 1736 08d8 00       		.byte	0
 1737 08d9 0A       		.uleb128 0xa
 1738 08da 04       		.byte	0x4
 1739 08db EA050000 		.4byte	0x5ea
 1740 08df 0A       		.uleb128 0xa
 1741 08e0 04       		.byte	0x4
 1742 08e1 E9000000 		.4byte	0xe9
 1743 08e5 03       		.uleb128 0x3
 1744 08e6 05000000 		.4byte	.LASF131
 1745 08ea 10       		.byte	0x10
 1746 08eb E1       		.byte	0xe1
 1747 08ec 94080000 		.4byte	0x894
 1748 08f0 04       		.uleb128 0x4
 1749 08f1 01       		.byte	0x1
 1750 08f2 02       		.byte	0x2
 1751 08f3 98030000 		.4byte	.LASF132
 1752 08f7 19       		.uleb128 0x19
 1753 08f8 01       		.byte	0x1
 1754 08f9 11       		.byte	0x11
 1755 08fa 46       		.byte	0x46
 1756 08fb 24090000 		.4byte	0x924
 1757 08ff 1A       		.uleb128 0x1a
 1758 0900 78090000 		.4byte	.LASF133
 1759 0904 00       		.sleb128 0
 1760 0905 1A       		.uleb128 0x1a
 1761 0906 2A080000 		.4byte	.LASF134
 1762 090a 01       		.sleb128 1
 1763 090b 1A       		.uleb128 0x1a
 1764 090c 8E030000 		.4byte	.LASF135
 1765 0910 02       		.sleb128 2
 1766 0911 1A       		.uleb128 0x1a
 1767 0912 1D070000 		.4byte	.LASF136
ARM GAS  /tmp/ccPDl681.s 			page 32


 1768 0916 03       		.sleb128 3
 1769 0917 1A       		.uleb128 0x1a
 1770 0918 78050000 		.4byte	.LASF137
 1771 091c 04       		.sleb128 4
 1772 091d 1A       		.uleb128 0x1a
 1773 091e CF030000 		.4byte	.LASF138
 1774 0922 05       		.sleb128 5
 1775 0923 00       		.byte	0
 1776 0924 03       		.uleb128 0x3
 1777 0925 95000000 		.4byte	.LASF139
 1778 0929 11       		.byte	0x11
 1779 092a 4D       		.byte	0x4d
 1780 092b F7080000 		.4byte	0x8f7
 1781 092f 13       		.uleb128 0x13
 1782 0930 9E030000 		.4byte	.LASF140
 1783 0934 12       		.byte	0x12
 1784 0935 2701     		.2byte	0x127
 1785 0937 B8000000 		.4byte	0xb8
 1786 093b 13       		.uleb128 0x13
 1787 093c BA050000 		.4byte	.LASF141
 1788 0940 12       		.byte	0x12
 1789 0941 2C01     		.2byte	0x12c
 1790 0943 B8000000 		.4byte	0xb8
 1791 0947 1B       		.uleb128 0x1b
 1792 0948 01       		.byte	0x1
 1793 0949 12       		.byte	0x12
 1794 094a 3301     		.2byte	0x133
 1795 094c 5D090000 		.4byte	0x95d
 1796 0950 1A       		.uleb128 0x1a
 1797 0951 45040000 		.4byte	.LASF142
 1798 0955 00       		.sleb128 0
 1799 0956 1A       		.uleb128 0x1a
 1800 0957 E4070000 		.4byte	.LASF143
 1801 095b 01       		.sleb128 1
 1802 095c 00       		.byte	0
 1803 095d 13       		.uleb128 0x13
 1804 095e 6C030000 		.4byte	.LASF144
 1805 0962 12       		.byte	0x12
 1806 0963 3601     		.2byte	0x136
 1807 0965 47090000 		.4byte	0x947
 1808 0969 13       		.uleb128 0x13
 1809 096a B3070000 		.4byte	.LASF145
 1810 096e 12       		.byte	0x12
 1811 096f 3B01     		.2byte	0x13b
 1812 0971 75090000 		.4byte	0x975
 1813 0975 0B       		.uleb128 0xb
 1814 0976 B3070000 		.4byte	.LASF145
 1815 097a 34       		.byte	0x34
 1816 097b 12       		.byte	0x12
 1817 097c 9F01     		.2byte	0x19f
 1818 097e 050A0000 		.4byte	0xa05
 1819 0982 09       		.uleb128 0x9
 1820 0983 FD000000 		.4byte	.LASF146
 1821 0987 12       		.byte	0x12
 1822 0988 A301     		.2byte	0x1a3
 1823 098a 24090000 		.4byte	0x924
 1824 098e 00       		.byte	0
ARM GAS  /tmp/ccPDl681.s 			page 33


 1825 098f 09       		.uleb128 0x9
 1826 0990 F6000000 		.4byte	.LASF147
 1827 0994 12       		.byte	0x12
 1828 0995 A701     		.2byte	0x1a7
 1829 0997 220B0000 		.4byte	0xb22
 1830 099b 04       		.byte	0x4
 1831 099c 09       		.uleb128 0x9
 1832 099d 6C040000 		.4byte	.LASF148
 1833 09a1 12       		.byte	0x12
 1834 09a2 AB01     		.2byte	0x1ab
 1835 09a4 320A0000 		.4byte	0xa32
 1836 09a8 08       		.byte	0x8
 1837 09a9 09       		.uleb128 0x9
 1838 09aa 26060000 		.4byte	.LASF149
 1839 09ae 12       		.byte	0x12
 1840 09af AF01     		.2byte	0x1af
 1841 09b1 2C000000 		.4byte	0x2c
 1842 09b5 0C       		.byte	0xc
 1843 09b6 09       		.uleb128 0x9
 1844 09b7 3E080000 		.4byte	.LASF150
 1845 09bb 12       		.byte	0x12
 1846 09bc B301     		.2byte	0x1b3
 1847 09be 2D0B0000 		.4byte	0xb2d
 1848 09c2 10       		.byte	0x10
 1849 09c3 09       		.uleb128 0x9
 1850 09c4 5C080000 		.4byte	.LASF151
 1851 09c8 12       		.byte	0x12
 1852 09c9 B801     		.2byte	0x1b8
 1853 09cb 6C020000 		.4byte	0x26c
 1854 09cf 14       		.byte	0x14
 1855 09d0 09       		.uleb128 0x9
 1856 09d1 36060000 		.4byte	.LASF152
 1857 09d5 12       		.byte	0x12
 1858 09d6 BE01     		.2byte	0x1be
 1859 09d8 83080000 		.4byte	0x883
 1860 09dc 18       		.byte	0x18
 1861 09dd 08       		.uleb128 0x8
 1862 09de 61646300 		.ascii	"adc\000"
 1863 09e2 12       		.byte	0x12
 1864 09e3 C701     		.2byte	0x1c7
 1865 09e5 380B0000 		.4byte	0xb38
 1866 09e9 28       		.byte	0x28
 1867 09ea 09       		.uleb128 0x9
 1868 09eb 08050000 		.4byte	.LASF153
 1869 09ef 12       		.byte	0x12
 1870 09f0 CB01     		.2byte	0x1cb
 1871 09f2 3E0B0000 		.4byte	0xb3e
 1872 09f6 2C       		.byte	0x2c
 1873 09f7 09       		.uleb128 0x9
 1874 09f8 49060000 		.4byte	.LASF154
 1875 09fc 12       		.byte	0x12
 1876 09fd CF01     		.2byte	0x1cf
 1877 09ff CE000000 		.4byte	0xce
 1878 0a03 30       		.byte	0x30
 1879 0a04 00       		.byte	0
 1880 0a05 13       		.uleb128 0x13
 1881 0a06 5F000000 		.4byte	.LASF155
ARM GAS  /tmp/ccPDl681.s 			page 34


 1882 0a0a 12       		.byte	0x12
 1883 0a0b 4501     		.2byte	0x145
 1884 0a0d 110A0000 		.4byte	0xa11
 1885 0a11 0A       		.uleb128 0xa
 1886 0a12 04       		.byte	0x4
 1887 0a13 170A0000 		.4byte	0xa17
 1888 0a17 0C       		.uleb128 0xc
 1889 0a18 2C0A0000 		.4byte	0xa2c
 1890 0a1c 0D       		.uleb128 0xd
 1891 0a1d 2C0A0000 		.4byte	0xa2c
 1892 0a21 0D       		.uleb128 0xd
 1893 0a22 320A0000 		.4byte	0xa32
 1894 0a26 0D       		.uleb128 0xd
 1895 0a27 2C000000 		.4byte	0x2c
 1896 0a2b 00       		.byte	0
 1897 0a2c 0A       		.uleb128 0xa
 1898 0a2d 04       		.byte	0x4
 1899 0a2e 69090000 		.4byte	0x969
 1900 0a32 0A       		.uleb128 0xa
 1901 0a33 04       		.byte	0x4
 1902 0a34 2F090000 		.4byte	0x92f
 1903 0a38 13       		.uleb128 0x13
 1904 0a39 13060000 		.4byte	.LASF156
 1905 0a3d 12       		.byte	0x12
 1906 0a3e 4E01     		.2byte	0x14e
 1907 0a40 440A0000 		.4byte	0xa44
 1908 0a44 0A       		.uleb128 0xa
 1909 0a45 04       		.byte	0x4
 1910 0a46 4A0A0000 		.4byte	0xa4a
 1911 0a4a 0C       		.uleb128 0xc
 1912 0a4b 5A0A0000 		.4byte	0xa5a
 1913 0a4f 0D       		.uleb128 0xd
 1914 0a50 2C0A0000 		.4byte	0xa2c
 1915 0a54 0D       		.uleb128 0xd
 1916 0a55 5D090000 		.4byte	0x95d
 1917 0a59 00       		.byte	0
 1918 0a5a 12       		.uleb128 0x12
 1919 0a5b 28       		.byte	0x28
 1920 0a5c 12       		.byte	0x12
 1921 0a5d 5801     		.2byte	0x158
 1922 0a5f F30A0000 		.4byte	0xaf3
 1923 0a63 09       		.uleb128 0x9
 1924 0a64 F7030000 		.4byte	.LASF157
 1925 0a68 12       		.byte	0x12
 1926 0a69 5C01     		.2byte	0x15c
 1927 0a6b F0080000 		.4byte	0x8f0
 1928 0a6f 00       		.byte	0
 1929 0a70 09       		.uleb128 0x9
 1930 0a71 A4060000 		.4byte	.LASF158
 1931 0a75 12       		.byte	0x12
 1932 0a76 6001     		.2byte	0x160
 1933 0a78 3B090000 		.4byte	0x93b
 1934 0a7c 02       		.byte	0x2
 1935 0a7d 09       		.uleb128 0x9
 1936 0a7e 3B010000 		.4byte	.LASF159
 1937 0a82 12       		.byte	0x12
 1938 0a83 6401     		.2byte	0x164
ARM GAS  /tmp/ccPDl681.s 			page 35


 1939 0a85 050A0000 		.4byte	0xa05
 1940 0a89 04       		.byte	0x4
 1941 0a8a 09       		.uleb128 0x9
 1942 0a8b 03010000 		.4byte	.LASF160
 1943 0a8f 12       		.byte	0x12
 1944 0a90 6801     		.2byte	0x168
 1945 0a92 380A0000 		.4byte	0xa38
 1946 0a96 08       		.byte	0x8
 1947 0a97 08       		.uleb128 0x8
 1948 0a98 63723100 		.ascii	"cr1\000"
 1949 0a9c 12       		.byte	0x12
 1950 0a9d 6F01     		.2byte	0x16f
 1951 0a9f CE000000 		.4byte	0xce
 1952 0aa3 0C       		.byte	0xc
 1953 0aa4 08       		.uleb128 0x8
 1954 0aa5 63723200 		.ascii	"cr2\000"
 1955 0aa9 12       		.byte	0x12
 1956 0aaa 7601     		.2byte	0x176
 1957 0aac CE000000 		.4byte	0xce
 1958 0ab0 10       		.byte	0x10
 1959 0ab1 09       		.uleb128 0x9
 1960 0ab2 95050000 		.4byte	.LASF161
 1961 0ab6 12       		.byte	0x12
 1962 0ab7 7C01     		.2byte	0x17c
 1963 0ab9 CE000000 		.4byte	0xce
 1964 0abd 14       		.byte	0x14
 1965 0abe 09       		.uleb128 0x9
 1966 0abf 9B050000 		.4byte	.LASF162
 1967 0ac3 12       		.byte	0x12
 1968 0ac4 8201     		.2byte	0x182
 1969 0ac6 CE000000 		.4byte	0xce
 1970 0aca 18       		.byte	0x18
 1971 0acb 09       		.uleb128 0x9
 1972 0acc 1F000000 		.4byte	.LASF163
 1973 0ad0 12       		.byte	0x12
 1974 0ad1 8701     		.2byte	0x187
 1975 0ad3 CE000000 		.4byte	0xce
 1976 0ad7 1C       		.byte	0x1c
 1977 0ad8 09       		.uleb128 0x9
 1978 0ad9 24000000 		.4byte	.LASF164
 1979 0add 12       		.byte	0x12
 1980 0ade 8C01     		.2byte	0x18c
 1981 0ae0 CE000000 		.4byte	0xce
 1982 0ae4 20       		.byte	0x20
 1983 0ae5 09       		.uleb128 0x9
 1984 0ae6 F2030000 		.4byte	.LASF165
 1985 0aea 12       		.byte	0x12
 1986 0aeb 9101     		.2byte	0x191
 1987 0aed CE000000 		.4byte	0xce
 1988 0af1 24       		.byte	0x24
 1989 0af2 00       		.byte	0
 1990 0af3 13       		.uleb128 0x13
 1991 0af4 65050000 		.4byte	.LASF166
 1992 0af8 12       		.byte	0x12
 1993 0af9 9201     		.2byte	0x192
 1994 0afb 5A0A0000 		.4byte	0xa5a
 1995 0aff 12       		.uleb128 0x12
ARM GAS  /tmp/ccPDl681.s 			page 36


 1996 0b00 04       		.byte	0x4
 1997 0b01 12       		.byte	0x12
 1998 0b02 9801     		.2byte	0x198
 1999 0b04 160B0000 		.4byte	0xb16
 2000 0b08 09       		.uleb128 0x9
 2001 0b09 24080000 		.4byte	.LASF167
 2002 0b0d 12       		.byte	0x12
 2003 0b0e 9901     		.2byte	0x199
 2004 0b10 CE000000 		.4byte	0xce
 2005 0b14 00       		.byte	0
 2006 0b15 00       		.byte	0
 2007 0b16 13       		.uleb128 0x13
 2008 0b17 E3090000 		.4byte	.LASF168
 2009 0b1b 12       		.byte	0x12
 2010 0b1c 9A01     		.2byte	0x19a
 2011 0b1e FF0A0000 		.4byte	0xaff
 2012 0b22 0A       		.uleb128 0xa
 2013 0b23 04       		.byte	0x4
 2014 0b24 280B0000 		.4byte	0xb28
 2015 0b28 16       		.uleb128 0x16
 2016 0b29 160B0000 		.4byte	0xb16
 2017 0b2d 0A       		.uleb128 0xa
 2018 0b2e 04       		.byte	0x4
 2019 0b2f 330B0000 		.4byte	0xb33
 2020 0b33 16       		.uleb128 0x16
 2021 0b34 F30A0000 		.4byte	0xaf3
 2022 0b38 0A       		.uleb128 0xa
 2023 0b39 04       		.byte	0x4
 2024 0b3a 88050000 		.4byte	0x588
 2025 0b3e 0A       		.uleb128 0xa
 2026 0b3f 04       		.byte	0x4
 2027 0b40 440B0000 		.4byte	0xb44
 2028 0b44 16       		.uleb128 0x16
 2029 0b45 E5080000 		.4byte	0x8e5
 2030 0b49 1C       		.uleb128 0x1c
 2031 0b4a 08080000 		.4byte	.LASF169
 2032 0b4e 03       		.byte	0x3
 2033 0b4f 5401     		.2byte	0x154
 2034 0b51 03       		.byte	0x3
 2035 0b52 1C       		.uleb128 0x1c
 2036 0b53 5F040000 		.4byte	.LASF170
 2037 0b57 03       		.byte	0x3
 2038 0b58 4901     		.2byte	0x149
 2039 0b5a 03       		.byte	0x3
 2040 0b5b 1C       		.uleb128 0x1c
 2041 0b5c 68080000 		.4byte	.LASF171
 2042 0b60 0C       		.byte	0xc
 2043 0b61 BC01     		.2byte	0x1bc
 2044 0b63 03       		.byte	0x3
 2045 0b64 1C       		.uleb128 0x1c
 2046 0b65 94010000 		.4byte	.LASF172
 2047 0b69 0C       		.byte	0xc
 2048 0b6a CA01     		.2byte	0x1ca
 2049 0b6c 03       		.byte	0x3
 2050 0b6d 1C       		.uleb128 0x1c
 2051 0b6e FE040000 		.4byte	.LASF173
 2052 0b72 13       		.byte	0x13
ARM GAS  /tmp/ccPDl681.s 			page 37


 2053 0b73 5A01     		.2byte	0x15a
 2054 0b75 03       		.byte	0x3
 2055 0b76 1D       		.uleb128 0x1d
 2056 0b77 E0040000 		.4byte	.LASF174
 2057 0b7b 13       		.byte	0x13
 2058 0b7c 6601     		.2byte	0x166
 2059 0b7e 03       		.byte	0x3
 2060 0b7f 910B0000 		.4byte	0xb91
 2061 0b83 1E       		.uleb128 0x1e
 2062 0b84 DA000000 		.4byte	.LASF179
 2063 0b88 A10B0000 		.4byte	0xba1
 2064 0b8c E0040000 		.4byte	.LASF174
 2065 0b90 00       		.byte	0
 2066 0b91 17       		.uleb128 0x17
 2067 0b92 5C080000 		.4byte	0x85c
 2068 0b96 A10B0000 		.4byte	0xba1
 2069 0b9a 18       		.uleb128 0x18
 2070 0b9b 8A040000 		.4byte	0x48a
 2071 0b9f 0B       		.byte	0xb
 2072 0ba0 00       		.byte	0
 2073 0ba1 16       		.uleb128 0x16
 2074 0ba2 910B0000 		.4byte	0xb91
 2075 0ba6 1D       		.uleb128 0x1d
 2076 0ba7 EF080000 		.4byte	.LASF175
 2077 0bab 02       		.byte	0x2
 2078 0bac 7403     		.2byte	0x374
 2079 0bae 03       		.byte	0x3
 2080 0baf BF0B0000 		.4byte	0xbbf
 2081 0bb3 1F       		.uleb128 0x1f
 2082 0bb4 6D7000   		.ascii	"mp\000"
 2083 0bb7 02       		.byte	0x2
 2084 0bb8 7403     		.2byte	0x374
 2085 0bba 8E080000 		.4byte	0x88e
 2086 0bbe 00       		.byte	0
 2087 0bbf 1C       		.uleb128 0x1c
 2088 0bc0 EC010000 		.4byte	.LASF176
 2089 0bc4 02       		.byte	0x2
 2090 0bc5 EB01     		.2byte	0x1eb
 2091 0bc7 03       		.byte	0x3
 2092 0bc8 1C       		.uleb128 0x1c
 2093 0bc9 0C010000 		.4byte	.LASF177
 2094 0bcd 02       		.byte	0x2
 2095 0bce F601     		.2byte	0x1f6
 2096 0bd0 03       		.byte	0x3
 2097 0bd1 20       		.uleb128 0x20
 2098 0bd2 31040000 		.4byte	.LASF180
 2099 0bd6 01       		.byte	0x1
 2100 0bd7 AB       		.byte	0xab
 2101 0bd8 01       		.byte	0x1
 2102 0bd9 170C0000 		.4byte	0xc17
 2103 0bdd 21       		.uleb128 0x21
 2104 0bde 0E060000 		.4byte	.LASF178
 2105 0be2 01       		.byte	0x1
 2106 0be3 AB       		.byte	0xab
 2107 0be4 2C0A0000 		.4byte	0xa2c
 2108 0be8 21       		.uleb128 0x21
 2109 0be9 3E080000 		.4byte	.LASF150
ARM GAS  /tmp/ccPDl681.s 			page 38


 2110 0bed 01       		.byte	0x1
 2111 0bee AC       		.byte	0xac
 2112 0bef 2D0B0000 		.4byte	0xb2d
 2113 0bf3 21       		.uleb128 0x21
 2114 0bf4 6C040000 		.4byte	.LASF148
 2115 0bf8 01       		.byte	0x1
 2116 0bf9 AD       		.byte	0xad
 2117 0bfa 320A0000 		.4byte	0xa32
 2118 0bfe 21       		.uleb128 0x21
 2119 0bff 26060000 		.4byte	.LASF149
 2120 0c03 01       		.byte	0x1
 2121 0c04 AE       		.byte	0xae
 2122 0c05 2C000000 		.4byte	0x2c
 2123 0c09 1E       		.uleb128 0x1e
 2124 0c0a DA000000 		.4byte	.LASF179
 2125 0c0e 270C0000 		.4byte	0xc27
 2126 0c12 31040000 		.4byte	.LASF180
 2127 0c16 00       		.byte	0
 2128 0c17 17       		.uleb128 0x17
 2129 0c18 5C080000 		.4byte	0x85c
 2130 0c1c 270C0000 		.4byte	0xc27
 2131 0c20 18       		.uleb128 0x18
 2132 0c21 8A040000 		.4byte	0x48a
 2133 0c25 13       		.byte	0x13
 2134 0c26 00       		.byte	0
 2135 0c27 16       		.uleb128 0x16
 2136 0c28 170C0000 		.4byte	0xc17
 2137 0c2c 1D       		.uleb128 0x1d
 2138 0c2d 4B010000 		.4byte	.LASF181
 2139 0c31 02       		.byte	0x2
 2140 0c32 E502     		.2byte	0x2e5
 2141 0c34 03       		.byte	0x3
 2142 0c35 520C0000 		.4byte	0xc52
 2143 0c39 1F       		.uleb128 0x1f
 2144 0c3a 74727000 		.ascii	"trp\000"
 2145 0c3e 02       		.byte	0x2
 2146 0c3f E502     		.2byte	0x2e5
 2147 0c41 E9070000 		.4byte	0x7e9
 2148 0c45 1F       		.uleb128 0x1f
 2149 0c46 6D736700 		.ascii	"msg\000"
 2150 0c4a 02       		.byte	0x2
 2151 0c4b E502     		.2byte	0x2e5
 2152 0c4d 30010000 		.4byte	0x130
 2153 0c51 00       		.byte	0
 2154 0c52 1D       		.uleb128 0x1d
 2155 0c53 1A010000 		.4byte	.LASF182
 2156 0c57 02       		.byte	0x2
 2157 0c58 D602     		.2byte	0x2d6
 2158 0c5a 03       		.byte	0x3
 2159 0c5b 780C0000 		.4byte	0xc78
 2160 0c5f 1F       		.uleb128 0x1f
 2161 0c60 74727000 		.ascii	"trp\000"
 2162 0c64 02       		.byte	0x2
 2163 0c65 D602     		.2byte	0x2d6
 2164 0c67 E9070000 		.4byte	0x7e9
 2165 0c6b 1F       		.uleb128 0x1f
 2166 0c6c 6D736700 		.ascii	"msg\000"
ARM GAS  /tmp/ccPDl681.s 			page 39


 2167 0c70 02       		.byte	0x2
 2168 0c71 D602     		.2byte	0x2d6
 2169 0c73 30010000 		.4byte	0x130
 2170 0c77 00       		.byte	0
 2171 0c78 22       		.uleb128 0x22
 2172 0c79 E3000000 		.4byte	.LASF206
 2173 0c7d 02       		.byte	0x2
 2174 0c7e AE02     		.2byte	0x2ae
 2175 0c80 30010000 		.4byte	0x130
 2176 0c84 03       		.byte	0x3
 2177 0c85 960C0000 		.4byte	0xc96
 2178 0c89 1F       		.uleb128 0x1f
 2179 0c8a 74727000 		.ascii	"trp\000"
 2180 0c8e 02       		.byte	0x2
 2181 0c8f AE02     		.2byte	0x2ae
 2182 0c91 E9070000 		.4byte	0x7e9
 2183 0c95 00       		.byte	0
 2184 0c96 1D       		.uleb128 0x1d
 2185 0c97 5B060000 		.4byte	.LASF183
 2186 0c9b 02       		.byte	0x2
 2187 0c9c 8803     		.2byte	0x388
 2188 0c9e 03       		.byte	0x3
 2189 0c9f AF0C0000 		.4byte	0xcaf
 2190 0ca3 1F       		.uleb128 0x1f
 2191 0ca4 6D7000   		.ascii	"mp\000"
 2192 0ca7 02       		.byte	0x2
 2193 0ca8 8803     		.2byte	0x388
 2194 0caa 8E080000 		.4byte	0x88e
 2195 0cae 00       		.byte	0
 2196 0caf 1D       		.uleb128 0x1d
 2197 0cb0 CD050000 		.4byte	.LASF184
 2198 0cb4 02       		.byte	0x2
 2199 0cb5 A003     		.2byte	0x3a0
 2200 0cb7 03       		.byte	0x3
 2201 0cb8 C80C0000 		.4byte	0xcc8
 2202 0cbc 1F       		.uleb128 0x1f
 2203 0cbd 6D7000   		.ascii	"mp\000"
 2204 0cc0 02       		.byte	0x2
 2205 0cc1 A003     		.2byte	0x3a0
 2206 0cc3 8E080000 		.4byte	0x88e
 2207 0cc7 00       		.byte	0
 2208 0cc8 23       		.uleb128 0x23
 2209 0cc9 82040000 		.4byte	.LASF185
 2210 0ccd 01       		.byte	0x1
 2211 0cce 38       		.byte	0x38
 2212 0ccf 00000000 		.4byte	.LFB256
 2213 0cd3 04000000 		.4byte	.LFE256-.LFB256
 2214 0cd7 01       		.uleb128 0x1
 2215 0cd8 9C       		.byte	0x9c
 2216 0cd9 E70C0000 		.4byte	0xce7
 2217 0cdd 24       		.uleb128 0x24
 2218 0cde 04000000 		.4byte	.LVL0
 2219 0ce2 FB140000 		.4byte	0x14fb
 2220 0ce6 00       		.byte	0
 2221 0ce7 23       		.uleb128 0x23
 2222 0ce8 CD080000 		.4byte	.LASF186
 2223 0cec 01       		.byte	0x1
ARM GAS  /tmp/ccPDl681.s 			page 40


 2224 0ced 44       		.byte	0x44
 2225 0cee 00000000 		.4byte	.LFB257
 2226 0cf2 16000000 		.4byte	.LFE257-.LFB257
 2227 0cf6 01       		.uleb128 0x1
 2228 0cf7 9C       		.byte	0x9c
 2229 0cf8 380D0000 		.4byte	0xd38
 2230 0cfc 25       		.uleb128 0x25
 2231 0cfd 0E060000 		.4byte	.LASF178
 2232 0d01 01       		.byte	0x1
 2233 0d02 44       		.byte	0x44
 2234 0d03 2C0A0000 		.4byte	0xa2c
 2235 0d07 00000000 		.4byte	.LLST0
 2236 0d0b 26       		.uleb128 0x26
 2237 0d0c A60B0000 		.4byte	0xba6
 2238 0d10 10000000 		.4byte	.LBB105
 2239 0d14 06000000 		.4byte	.LBE105-.LBB105
 2240 0d18 01       		.byte	0x1
 2241 0d19 4F       		.byte	0x4f
 2242 0d1a 27       		.uleb128 0x27
 2243 0d1b B30B0000 		.4byte	0xbb3
 2244 0d1f 2E000000 		.4byte	.LLST1
 2245 0d23 28       		.uleb128 0x28
 2246 0d24 16000000 		.4byte	.LVL4
 2247 0d28 03150000 		.4byte	0x1503
 2248 0d2c 29       		.uleb128 0x29
 2249 0d2d 01       		.uleb128 0x1
 2250 0d2e 50       		.byte	0x50
 2251 0d2f 05       		.uleb128 0x5
 2252 0d30 F3       		.byte	0xf3
 2253 0d31 01       		.uleb128 0x1
 2254 0d32 50       		.byte	0x50
 2255 0d33 23       		.byte	0x23
 2256 0d34 18       		.uleb128 0x18
 2257 0d35 00       		.byte	0
 2258 0d36 00       		.byte	0
 2259 0d37 00       		.byte	0
 2260 0d38 23       		.uleb128 0x23
 2261 0d39 8F090000 		.4byte	.LASF187
 2262 0d3d 01       		.byte	0x1
 2263 0d3e 5F       		.byte	0x5f
 2264 0d3f 00000000 		.4byte	.LFB258
 2265 0d43 14000000 		.4byte	.LFE258-.LFB258
 2266 0d47 01       		.uleb128 0x1
 2267 0d48 9C       		.byte	0x9c
 2268 0d49 200E0000 		.4byte	0xe20
 2269 0d4d 25       		.uleb128 0x25
 2270 0d4e 0E060000 		.4byte	.LASF178
 2271 0d52 01       		.byte	0x1
 2272 0d53 5F       		.byte	0x5f
 2273 0d54 2C0A0000 		.4byte	0xa2c
 2274 0d58 5E000000 		.4byte	.LLST2
 2275 0d5c 25       		.uleb128 0x25
 2276 0d5d F6000000 		.4byte	.LASF147
 2277 0d61 01       		.byte	0x1
 2278 0d62 5F       		.byte	0x5f
 2279 0d63 220B0000 		.4byte	0xb22
 2280 0d67 7C000000 		.4byte	.LLST3
ARM GAS  /tmp/ccPDl681.s 			page 41


 2281 0d6b 2A       		.uleb128 0x2a
 2282 0d6c DA000000 		.4byte	.LASF179
 2283 0d70 300E0000 		.4byte	0xe30
 2284 0d74 2B       		.uleb128 0x2b
 2285 0d75 BF0B0000 		.4byte	0xbbf
 2286 0d79 04000000 		.4byte	.LBB107
 2287 0d7d 02000000 		.4byte	.LBE107-.LBB107
 2288 0d81 01       		.byte	0x1
 2289 0d82 63       		.byte	0x63
 2290 0d83 BA0D0000 		.4byte	0xdba
 2291 0d87 2C       		.uleb128 0x2c
 2292 0d88 6D0B0000 		.4byte	0xb6d
 2293 0d8c 04000000 		.4byte	.LBB108
 2294 0d90 02000000 		.4byte	.LBE108-.LBB108
 2295 0d94 02       		.byte	0x2
 2296 0d95 ED01     		.2byte	0x1ed
 2297 0d97 2C       		.uleb128 0x2c
 2298 0d98 5B0B0000 		.4byte	0xb5b
 2299 0d9c 04000000 		.4byte	.LBB109
 2300 0da0 02000000 		.4byte	.LBE109-.LBB109
 2301 0da4 13       		.byte	0x13
 2302 0da5 5C01     		.2byte	0x15c
 2303 0da7 2D       		.uleb128 0x2d
 2304 0da8 490B0000 		.4byte	0xb49
 2305 0dac 04000000 		.4byte	.LBB110
 2306 0db0 02000000 		.4byte	.LBE110-.LBB110
 2307 0db4 0C       		.byte	0xc
 2308 0db5 C101     		.2byte	0x1c1
 2309 0db7 00       		.byte	0
 2310 0db8 00       		.byte	0
 2311 0db9 00       		.byte	0
 2312 0dba 2B       		.uleb128 0x2b
 2313 0dbb C80B0000 		.4byte	0xbc8
 2314 0dbf 10000000 		.4byte	.LBB112
 2315 0dc3 04000000 		.4byte	.LBE112-.LBB112
 2316 0dc7 01       		.byte	0x1
 2317 0dc8 69       		.byte	0x69
 2318 0dc9 0F0E0000 		.4byte	0xe0f
 2319 0dcd 2C       		.uleb128 0x2c
 2320 0dce 760B0000 		.4byte	0xb76
 2321 0dd2 10000000 		.4byte	.LBB113
 2322 0dd6 04000000 		.4byte	.LBE113-.LBB113
 2323 0dda 02       		.byte	0x2
 2324 0ddb F801     		.2byte	0x1f8
 2325 0ddd 2E       		.uleb128 0x2e
 2326 0dde 10000000 		.4byte	.LBB114
 2327 0de2 04000000 		.4byte	.LBE114-.LBB114
 2328 0de6 2F       		.uleb128 0x2f
 2329 0de7 830B0000 		.4byte	0xb83
 2330 0deb 2C       		.uleb128 0x2c
 2331 0dec 640B0000 		.4byte	0xb64
 2332 0df0 10000000 		.4byte	.LBB115
 2333 0df4 04000000 		.4byte	.LBE115-.LBB115
 2334 0df8 13       		.byte	0x13
 2335 0df9 7301     		.2byte	0x173
 2336 0dfb 2D       		.uleb128 0x2d
 2337 0dfc 520B0000 		.4byte	0xb52
ARM GAS  /tmp/ccPDl681.s 			page 42


 2338 0e00 10000000 		.4byte	.LBB116
 2339 0e04 04000000 		.4byte	.LBE116-.LBB116
 2340 0e08 0C       		.byte	0xc
 2341 0e09 CF01     		.2byte	0x1cf
 2342 0e0b 00       		.byte	0
 2343 0e0c 00       		.byte	0
 2344 0e0d 00       		.byte	0
 2345 0e0e 00       		.byte	0
 2346 0e0f 30       		.uleb128 0x30
 2347 0e10 0C000000 		.4byte	.LVL6
 2348 0e14 14150000 		.4byte	0x1514
 2349 0e18 29       		.uleb128 0x29
 2350 0e19 01       		.uleb128 0x1
 2351 0e1a 50       		.byte	0x50
 2352 0e1b 02       		.uleb128 0x2
 2353 0e1c 74       		.byte	0x74
 2354 0e1d 00       		.sleb128 0
 2355 0e1e 00       		.byte	0
 2356 0e1f 00       		.byte	0
 2357 0e20 17       		.uleb128 0x17
 2358 0e21 5C080000 		.4byte	0x85c
 2359 0e25 300E0000 		.4byte	0xe30
 2360 0e29 18       		.uleb128 0x18
 2361 0e2a 8A040000 		.4byte	0x48a
 2362 0e2e 08       		.byte	0x8
 2363 0e2f 00       		.byte	0
 2364 0e30 16       		.uleb128 0x16
 2365 0e31 200E0000 		.4byte	0xe20
 2366 0e35 23       		.uleb128 0x23
 2367 0e36 7A080000 		.4byte	.LASF188
 2368 0e3a 01       		.byte	0x1
 2369 0e3b 73       		.byte	0x73
 2370 0e3c 00000000 		.4byte	.LFB259
 2371 0e40 12000000 		.4byte	.LFE259-.LFB259
 2372 0e44 01       		.uleb128 0x1
 2373 0e45 9C       		.byte	0x9c
 2374 0e46 0E0F0000 		.4byte	0xf0e
 2375 0e4a 25       		.uleb128 0x25
 2376 0e4b 0E060000 		.4byte	.LASF178
 2377 0e4f 01       		.byte	0x1
 2378 0e50 73       		.byte	0x73
 2379 0e51 2C0A0000 		.4byte	0xa2c
 2380 0e55 9D000000 		.4byte	.LLST4
 2381 0e59 2A       		.uleb128 0x2a
 2382 0e5a DA000000 		.4byte	.LASF179
 2383 0e5e 1E0F0000 		.4byte	0xf1e
 2384 0e62 2B       		.uleb128 0x2b
 2385 0e63 BF0B0000 		.4byte	0xbbf
 2386 0e67 04000000 		.4byte	.LBB118
 2387 0e6b 02000000 		.4byte	.LBE118-.LBB118
 2388 0e6f 01       		.byte	0x1
 2389 0e70 77       		.byte	0x77
 2390 0e71 A80E0000 		.4byte	0xea8
 2391 0e75 2C       		.uleb128 0x2c
 2392 0e76 6D0B0000 		.4byte	0xb6d
 2393 0e7a 04000000 		.4byte	.LBB119
 2394 0e7e 02000000 		.4byte	.LBE119-.LBB119
ARM GAS  /tmp/ccPDl681.s 			page 43


 2395 0e82 02       		.byte	0x2
 2396 0e83 ED01     		.2byte	0x1ed
 2397 0e85 2C       		.uleb128 0x2c
 2398 0e86 5B0B0000 		.4byte	0xb5b
 2399 0e8a 04000000 		.4byte	.LBB120
 2400 0e8e 02000000 		.4byte	.LBE120-.LBB120
 2401 0e92 13       		.byte	0x13
 2402 0e93 5C01     		.2byte	0x15c
 2403 0e95 2D       		.uleb128 0x2d
 2404 0e96 490B0000 		.4byte	0xb49
 2405 0e9a 04000000 		.4byte	.LBB121
 2406 0e9e 02000000 		.4byte	.LBE121-.LBB121
 2407 0ea2 0C       		.byte	0xc
 2408 0ea3 C101     		.2byte	0x1c1
 2409 0ea5 00       		.byte	0
 2410 0ea6 00       		.byte	0
 2411 0ea7 00       		.byte	0
 2412 0ea8 2B       		.uleb128 0x2b
 2413 0ea9 C80B0000 		.4byte	0xbc8
 2414 0ead 0E000000 		.4byte	.LBB123
 2415 0eb1 04000000 		.4byte	.LBE123-.LBB123
 2416 0eb5 01       		.byte	0x1
 2417 0eb6 7C       		.byte	0x7c
 2418 0eb7 FD0E0000 		.4byte	0xefd
 2419 0ebb 2C       		.uleb128 0x2c
 2420 0ebc 760B0000 		.4byte	0xb76
 2421 0ec0 0E000000 		.4byte	.LBB124
 2422 0ec4 04000000 		.4byte	.LBE124-.LBB124
 2423 0ec8 02       		.byte	0x2
 2424 0ec9 F801     		.2byte	0x1f8
 2425 0ecb 2E       		.uleb128 0x2e
 2426 0ecc 0E000000 		.4byte	.LBB125
 2427 0ed0 04000000 		.4byte	.LBE125-.LBB125
 2428 0ed4 2F       		.uleb128 0x2f
 2429 0ed5 830B0000 		.4byte	0xb83
 2430 0ed9 2C       		.uleb128 0x2c
 2431 0eda 640B0000 		.4byte	0xb64
 2432 0ede 0E000000 		.4byte	.LBB126
 2433 0ee2 04000000 		.4byte	.LBE126-.LBB126
 2434 0ee6 13       		.byte	0x13
 2435 0ee7 7301     		.2byte	0x173
 2436 0ee9 2D       		.uleb128 0x2d
 2437 0eea 520B0000 		.4byte	0xb52
 2438 0eee 0E000000 		.4byte	.LBB127
 2439 0ef2 04000000 		.4byte	.LBE127-.LBB127
 2440 0ef6 0C       		.byte	0xc
 2441 0ef7 CF01     		.2byte	0x1cf
 2442 0ef9 00       		.byte	0
 2443 0efa 00       		.byte	0
 2444 0efb 00       		.byte	0
 2445 0efc 00       		.byte	0
 2446 0efd 30       		.uleb128 0x30
 2447 0efe 0A000000 		.4byte	.LVL8
 2448 0f02 26150000 		.4byte	0x1526
 2449 0f06 29       		.uleb128 0x29
 2450 0f07 01       		.uleb128 0x1
 2451 0f08 50       		.byte	0x50
ARM GAS  /tmp/ccPDl681.s 			page 44


 2452 0f09 02       		.uleb128 0x2
 2453 0f0a 74       		.byte	0x74
 2454 0f0b 00       		.sleb128 0
 2455 0f0c 00       		.byte	0
 2456 0f0d 00       		.byte	0
 2457 0f0e 17       		.uleb128 0x17
 2458 0f0f 5C080000 		.4byte	0x85c
 2459 0f13 1E0F0000 		.4byte	0xf1e
 2460 0f17 18       		.uleb128 0x18
 2461 0f18 8A040000 		.4byte	0x48a
 2462 0f1c 07       		.byte	0x7
 2463 0f1d 00       		.byte	0
 2464 0f1e 16       		.uleb128 0x16
 2465 0f1f 0E0F0000 		.4byte	0xf0e
 2466 0f23 23       		.uleb128 0x23
 2467 0f24 98090000 		.4byte	.LASF189
 2468 0f28 01       		.byte	0x1
 2469 0f29 8F       		.byte	0x8f
 2470 0f2a 00000000 		.4byte	.LFB260
 2471 0f2e 16000000 		.4byte	.LFE260-.LFB260
 2472 0f32 01       		.uleb128 0x1
 2473 0f33 9C       		.byte	0x9c
 2474 0f34 64100000 		.4byte	0x1064
 2475 0f38 25       		.uleb128 0x25
 2476 0f39 0E060000 		.4byte	.LASF178
 2477 0f3d 01       		.byte	0x1
 2478 0f3e 8F       		.byte	0x8f
 2479 0f3f 2C0A0000 		.4byte	0xa2c
 2480 0f43 BB000000 		.4byte	.LLST5
 2481 0f47 25       		.uleb128 0x25
 2482 0f48 3E080000 		.4byte	.LASF150
 2483 0f4c 01       		.byte	0x1
 2484 0f4d 90       		.byte	0x90
 2485 0f4e 2D0B0000 		.4byte	0xb2d
 2486 0f52 DC000000 		.4byte	.LLST6
 2487 0f56 25       		.uleb128 0x25
 2488 0f57 6C040000 		.4byte	.LASF148
 2489 0f5b 01       		.byte	0x1
 2490 0f5c 91       		.byte	0x91
 2491 0f5d 320A0000 		.4byte	0xa32
 2492 0f61 FD000000 		.4byte	.LLST7
 2493 0f65 25       		.uleb128 0x25
 2494 0f66 26060000 		.4byte	.LASF149
 2495 0f6a 01       		.byte	0x1
 2496 0f6b 92       		.byte	0x92
 2497 0f6c 2C000000 		.4byte	0x2c
 2498 0f70 1E010000 		.4byte	.LLST8
 2499 0f74 2B       		.uleb128 0x2b
 2500 0f75 BF0B0000 		.4byte	0xbbf
 2501 0f79 02000000 		.4byte	.LBB129
 2502 0f7d 02000000 		.4byte	.LBE129-.LBB129
 2503 0f81 01       		.byte	0x1
 2504 0f82 94       		.byte	0x94
 2505 0f83 BA0F0000 		.4byte	0xfba
 2506 0f87 2C       		.uleb128 0x2c
 2507 0f88 6D0B0000 		.4byte	0xb6d
 2508 0f8c 02000000 		.4byte	.LBB130
ARM GAS  /tmp/ccPDl681.s 			page 45


 2509 0f90 02000000 		.4byte	.LBE130-.LBB130
 2510 0f94 02       		.byte	0x2
 2511 0f95 ED01     		.2byte	0x1ed
 2512 0f97 2C       		.uleb128 0x2c
 2513 0f98 5B0B0000 		.4byte	0xb5b
 2514 0f9c 02000000 		.4byte	.LBB131
 2515 0fa0 02000000 		.4byte	.LBE131-.LBB131
 2516 0fa4 13       		.byte	0x13
 2517 0fa5 5C01     		.2byte	0x15c
 2518 0fa7 2D       		.uleb128 0x2d
 2519 0fa8 490B0000 		.4byte	0xb49
 2520 0fac 02000000 		.4byte	.LBB132
 2521 0fb0 02000000 		.4byte	.LBE132-.LBB132
 2522 0fb4 0C       		.byte	0xc
 2523 0fb5 C101     		.2byte	0x1c1
 2524 0fb7 00       		.byte	0
 2525 0fb8 00       		.byte	0
 2526 0fb9 00       		.byte	0
 2527 0fba 2B       		.uleb128 0x2b
 2528 0fbb D10B0000 		.4byte	0xbd1
 2529 0fbf 04000000 		.4byte	.LBB134
 2530 0fc3 0E000000 		.4byte	.LBE134-.LBB134
 2531 0fc7 01       		.byte	0x1
 2532 0fc8 95       		.byte	0x95
 2533 0fc9 12100000 		.4byte	0x1012
 2534 0fcd 27       		.uleb128 0x27
 2535 0fce FE0B0000 		.4byte	0xbfe
 2536 0fd2 3F010000 		.4byte	.LLST9
 2537 0fd6 27       		.uleb128 0x27
 2538 0fd7 F30B0000 		.4byte	0xbf3
 2539 0fdb 60010000 		.4byte	.LLST10
 2540 0fdf 27       		.uleb128 0x27
 2541 0fe0 E80B0000 		.4byte	0xbe8
 2542 0fe4 81010000 		.4byte	.LLST11
 2543 0fe8 27       		.uleb128 0x27
 2544 0fe9 DD0B0000 		.4byte	0xbdd
 2545 0fed A2010000 		.4byte	.LLST12
 2546 0ff1 2E       		.uleb128 0x2e
 2547 0ff2 04000000 		.4byte	.LBB135
 2548 0ff6 0E000000 		.4byte	.LBE135-.LBB135
 2549 0ffa 2F       		.uleb128 0x2f
 2550 0ffb 090C0000 		.4byte	0xc09
 2551 0fff 30       		.uleb128 0x30
 2552 1000 12000000 		.4byte	.LVL11
 2553 1004 38150000 		.4byte	0x1538
 2554 1008 29       		.uleb128 0x29
 2555 1009 01       		.uleb128 0x1
 2556 100a 50       		.byte	0x50
 2557 100b 03       		.uleb128 0x3
 2558 100c F3       		.byte	0xf3
 2559 100d 01       		.uleb128 0x1
 2560 100e 50       		.byte	0x50
 2561 100f 00       		.byte	0
 2562 1010 00       		.byte	0
 2563 1011 00       		.byte	0
 2564 1012 26       		.uleb128 0x26
 2565 1013 C80B0000 		.4byte	0xbc8
ARM GAS  /tmp/ccPDl681.s 			page 46


 2566 1017 12000000 		.4byte	.LBB136
 2567 101b 04000000 		.4byte	.LBE136-.LBB136
 2568 101f 01       		.byte	0x1
 2569 1020 96       		.byte	0x96
 2570 1021 2C       		.uleb128 0x2c
 2571 1022 760B0000 		.4byte	0xb76
 2572 1026 12000000 		.4byte	.LBB137
 2573 102a 04000000 		.4byte	.LBE137-.LBB137
 2574 102e 02       		.byte	0x2
 2575 102f F801     		.2byte	0x1f8
 2576 1031 2E       		.uleb128 0x2e
 2577 1032 12000000 		.4byte	.LBB138
 2578 1036 04000000 		.4byte	.LBE138-.LBB138
 2579 103a 2F       		.uleb128 0x2f
 2580 103b 830B0000 		.4byte	0xb83
 2581 103f 2C       		.uleb128 0x2c
 2582 1040 640B0000 		.4byte	0xb64
 2583 1044 12000000 		.4byte	.LBB139
 2584 1048 04000000 		.4byte	.LBE139-.LBB139
 2585 104c 13       		.byte	0x13
 2586 104d 7301     		.2byte	0x173
 2587 104f 2D       		.uleb128 0x2d
 2588 1050 520B0000 		.4byte	0xb52
 2589 1054 12000000 		.4byte	.LBB140
 2590 1058 04000000 		.4byte	.LBE140-.LBB140
 2591 105c 0C       		.byte	0xc
 2592 105d CF01     		.2byte	0x1cf
 2593 105f 00       		.byte	0
 2594 1060 00       		.byte	0
 2595 1061 00       		.byte	0
 2596 1062 00       		.byte	0
 2597 1063 00       		.byte	0
 2598 1064 31       		.uleb128 0x31
 2599 1065 D10B0000 		.4byte	0xbd1
 2600 1069 00000000 		.4byte	.LFB261
 2601 106d 12000000 		.4byte	.LFE261-.LFB261
 2602 1071 01       		.uleb128 0x1
 2603 1072 9C       		.byte	0x9c
 2604 1073 B2100000 		.4byte	0x10b2
 2605 1077 27       		.uleb128 0x27
 2606 1078 DD0B0000 		.4byte	0xbdd
 2607 107c C3010000 		.4byte	.LLST13
 2608 1080 27       		.uleb128 0x27
 2609 1081 E80B0000 		.4byte	0xbe8
 2610 1085 E4010000 		.4byte	.LLST14
 2611 1089 27       		.uleb128 0x27
 2612 108a F30B0000 		.4byte	0xbf3
 2613 108e 05020000 		.4byte	.LLST15
 2614 1092 27       		.uleb128 0x27
 2615 1093 FE0B0000 		.4byte	0xbfe
 2616 1097 26020000 		.4byte	.LLST16
 2617 109b 2F       		.uleb128 0x2f
 2618 109c 090C0000 		.4byte	0xc09
 2619 10a0 28       		.uleb128 0x28
 2620 10a1 12000000 		.4byte	.LVL13
 2621 10a5 38150000 		.4byte	0x1538
 2622 10a9 29       		.uleb128 0x29
ARM GAS  /tmp/ccPDl681.s 			page 47


 2623 10aa 01       		.uleb128 0x1
 2624 10ab 50       		.byte	0x50
 2625 10ac 03       		.uleb128 0x3
 2626 10ad F3       		.byte	0xf3
 2627 10ae 01       		.uleb128 0x1
 2628 10af 50       		.byte	0x50
 2629 10b0 00       		.byte	0
 2630 10b1 00       		.byte	0
 2631 10b2 23       		.uleb128 0x23
 2632 10b3 0F090000 		.4byte	.LASF190
 2633 10b7 01       		.byte	0x1
 2634 10b8 C9       		.byte	0xc9
 2635 10b9 00000000 		.4byte	.LFB262
 2636 10bd 2C000000 		.4byte	.LFE262-.LFB262
 2637 10c1 01       		.uleb128 0x1
 2638 10c2 9C       		.byte	0x9c
 2639 10c3 C7110000 		.4byte	0x11c7
 2640 10c7 25       		.uleb128 0x25
 2641 10c8 0E060000 		.4byte	.LASF178
 2642 10cc 01       		.byte	0x1
 2643 10cd C9       		.byte	0xc9
 2644 10ce 2C0A0000 		.4byte	0xa2c
 2645 10d2 47020000 		.4byte	.LLST17
 2646 10d6 2A       		.uleb128 0x2a
 2647 10d7 DA000000 		.4byte	.LASF179
 2648 10db D7110000 		.4byte	0x11d7
 2649 10df 2B       		.uleb128 0x2b
 2650 10e0 BF0B0000 		.4byte	0xbbf
 2651 10e4 00000000 		.4byte	.LBB142
 2652 10e8 02000000 		.4byte	.LBE142-.LBB142
 2653 10ec 01       		.byte	0x1
 2654 10ed CD       		.byte	0xcd
 2655 10ee 25110000 		.4byte	0x1125
 2656 10f2 2C       		.uleb128 0x2c
 2657 10f3 6D0B0000 		.4byte	0xb6d
 2658 10f7 00000000 		.4byte	.LBB143
 2659 10fb 02000000 		.4byte	.LBE143-.LBB143
 2660 10ff 02       		.byte	0x2
 2661 1100 ED01     		.2byte	0x1ed
 2662 1102 2C       		.uleb128 0x2c
 2663 1103 5B0B0000 		.4byte	0xb5b
 2664 1107 00000000 		.4byte	.LBB144
 2665 110b 02000000 		.4byte	.LBE144-.LBB144
 2666 110f 13       		.byte	0x13
 2667 1110 5C01     		.2byte	0x15c
 2668 1112 2D       		.uleb128 0x2d
 2669 1113 490B0000 		.4byte	0xb49
 2670 1117 00000000 		.4byte	.LBB145
 2671 111b 02000000 		.4byte	.LBE145-.LBB145
 2672 111f 0C       		.byte	0xc
 2673 1120 C101     		.2byte	0x1c1
 2674 1122 00       		.byte	0
 2675 1123 00       		.byte	0
 2676 1124 00       		.byte	0
 2677 1125 32       		.uleb128 0x32
 2678 1126 2C0C0000 		.4byte	0xc2c
 2679 112a 18000000 		.4byte	.LBB147
ARM GAS  /tmp/ccPDl681.s 			page 48


 2680 112e 00000000 		.4byte	.Ldebug_ranges0+0
 2681 1132 01       		.byte	0x1
 2682 1133 D4       		.byte	0xd4
 2683 1134 61110000 		.4byte	0x1161
 2684 1138 27       		.uleb128 0x27
 2685 1139 450C0000 		.4byte	0xc45
 2686 113d 70020000 		.4byte	.LLST18
 2687 1141 27       		.uleb128 0x27
 2688 1142 390C0000 		.4byte	0xc39
 2689 1146 85020000 		.4byte	.LLST19
 2690 114a 30       		.uleb128 0x30
 2691 114b 24000000 		.4byte	.LVL17
 2692 114f 4A150000 		.4byte	0x154a
 2693 1153 29       		.uleb128 0x29
 2694 1154 01       		.uleb128 0x1
 2695 1155 51       		.byte	0x51
 2696 1156 02       		.uleb128 0x2
 2697 1157 09       		.byte	0x9
 2698 1158 FE       		.byte	0xfe
 2699 1159 29       		.uleb128 0x29
 2700 115a 01       		.uleb128 0x1
 2701 115b 50       		.byte	0x50
 2702 115c 02       		.uleb128 0x2
 2703 115d 74       		.byte	0x74
 2704 115e 14       		.sleb128 20
 2705 115f 00       		.byte	0
 2706 1160 00       		.byte	0
 2707 1161 2B       		.uleb128 0x2b
 2708 1162 C80B0000 		.4byte	0xbc8
 2709 1166 24000000 		.4byte	.LBB151
 2710 116a 08000000 		.4byte	.LBE151-.LBB151
 2711 116e 01       		.byte	0x1
 2712 116f D6       		.byte	0xd6
 2713 1170 B6110000 		.4byte	0x11b6
 2714 1174 2C       		.uleb128 0x2c
 2715 1175 760B0000 		.4byte	0xb76
 2716 1179 24000000 		.4byte	.LBB152
 2717 117d 08000000 		.4byte	.LBE152-.LBB152
 2718 1181 02       		.byte	0x2
 2719 1182 F801     		.2byte	0x1f8
 2720 1184 2E       		.uleb128 0x2e
 2721 1185 24000000 		.4byte	.LBB153
 2722 1189 08000000 		.4byte	.LBE153-.LBB153
 2723 118d 2F       		.uleb128 0x2f
 2724 118e 830B0000 		.4byte	0xb83
 2725 1192 2C       		.uleb128 0x2c
 2726 1193 640B0000 		.4byte	0xb64
 2727 1197 24000000 		.4byte	.LBB154
 2728 119b 08000000 		.4byte	.LBE154-.LBB154
 2729 119f 13       		.byte	0x13
 2730 11a0 7301     		.2byte	0x173
 2731 11a2 2D       		.uleb128 0x2d
 2732 11a3 520B0000 		.4byte	0xb52
 2733 11a7 24000000 		.4byte	.LBB155
 2734 11ab 08000000 		.4byte	.LBE155-.LBB155
 2735 11af 0C       		.byte	0xc
 2736 11b0 CF01     		.2byte	0x1cf
ARM GAS  /tmp/ccPDl681.s 			page 49


 2737 11b2 00       		.byte	0
 2738 11b3 00       		.byte	0
 2739 11b4 00       		.byte	0
 2740 11b5 00       		.byte	0
 2741 11b6 30       		.uleb128 0x30
 2742 11b7 10000000 		.4byte	.LVL15
 2743 11bb 60150000 		.4byte	0x1560
 2744 11bf 29       		.uleb128 0x29
 2745 11c0 01       		.uleb128 0x1
 2746 11c1 50       		.byte	0x50
 2747 11c2 02       		.uleb128 0x2
 2748 11c3 74       		.byte	0x74
 2749 11c4 00       		.sleb128 0
 2750 11c5 00       		.byte	0
 2751 11c6 00       		.byte	0
 2752 11c7 17       		.uleb128 0x17
 2753 11c8 5C080000 		.4byte	0x85c
 2754 11cc D7110000 		.4byte	0x11d7
 2755 11d0 18       		.uleb128 0x18
 2756 11d1 8A040000 		.4byte	0x48a
 2757 11d5 11       		.byte	0x11
 2758 11d6 00       		.byte	0
 2759 11d7 16       		.uleb128 0x16
 2760 11d8 C7110000 		.4byte	0x11c7
 2761 11dc 23       		.uleb128 0x23
 2762 11dd D1070000 		.4byte	.LASF191
 2763 11e1 01       		.byte	0x1
 2764 11e2 E3       		.byte	0xe3
 2765 11e3 00000000 		.4byte	.LFB263
 2766 11e7 28000000 		.4byte	.LFE263-.LFB263
 2767 11eb 01       		.uleb128 0x1
 2768 11ec 9C       		.byte	0x9c
 2769 11ed 59120000 		.4byte	0x1259
 2770 11f1 25       		.uleb128 0x25
 2771 11f2 0E060000 		.4byte	.LASF178
 2772 11f6 01       		.byte	0x1
 2773 11f7 E3       		.byte	0xe3
 2774 11f8 2C0A0000 		.4byte	0xa2c
 2775 11fc 9A020000 		.4byte	.LLST20
 2776 1200 2A       		.uleb128 0x2a
 2777 1201 DA000000 		.4byte	.LASF179
 2778 1205 69120000 		.4byte	0x1269
 2779 1209 32       		.uleb128 0x32
 2780 120a 520C0000 		.4byte	0xc52
 2781 120e 16000000 		.4byte	.LBB157
 2782 1212 18000000 		.4byte	.Ldebug_ranges0+0x18
 2783 1216 01       		.byte	0x1
 2784 1217 F0       		.byte	0xf0
 2785 1218 48120000 		.4byte	0x1248
 2786 121c 27       		.uleb128 0x27
 2787 121d 6B0C0000 		.4byte	0xc6b
 2788 1221 DE020000 		.4byte	.LLST21
 2789 1225 27       		.uleb128 0x27
 2790 1226 5F0C0000 		.4byte	0xc5f
 2791 122a F3020000 		.4byte	.LLST22
 2792 122e 28       		.uleb128 0x28
 2793 122f 26000000 		.4byte	.LVL23
ARM GAS  /tmp/ccPDl681.s 			page 50


 2794 1233 72150000 		.4byte	0x1572
 2795 1237 29       		.uleb128 0x29
 2796 1238 01       		.uleb128 0x1
 2797 1239 51       		.byte	0x51
 2798 123a 02       		.uleb128 0x2
 2799 123b 09       		.byte	0x9
 2800 123c FE       		.byte	0xfe
 2801 123d 29       		.uleb128 0x29
 2802 123e 01       		.uleb128 0x1
 2803 123f 50       		.byte	0x50
 2804 1240 05       		.uleb128 0x5
 2805 1241 F3       		.byte	0xf3
 2806 1242 01       		.uleb128 0x1
 2807 1243 50       		.byte	0x50
 2808 1244 23       		.byte	0x23
 2809 1245 14       		.uleb128 0x14
 2810 1246 00       		.byte	0
 2811 1247 00       		.byte	0
 2812 1248 30       		.uleb128 0x30
 2813 1249 0E000000 		.4byte	.LVL20
 2814 124d 60150000 		.4byte	0x1560
 2815 1251 29       		.uleb128 0x29
 2816 1252 01       		.uleb128 0x1
 2817 1253 50       		.byte	0x50
 2818 1254 02       		.uleb128 0x2
 2819 1255 74       		.byte	0x74
 2820 1256 00       		.sleb128 0
 2821 1257 00       		.byte	0
 2822 1258 00       		.byte	0
 2823 1259 17       		.uleb128 0x17
 2824 125a 5C080000 		.4byte	0x85c
 2825 125e 69120000 		.4byte	0x1269
 2826 1262 18       		.uleb128 0x18
 2827 1263 8A040000 		.4byte	0x48a
 2828 1267 12       		.byte	0x12
 2829 1268 00       		.byte	0
 2830 1269 16       		.uleb128 0x16
 2831 126a 59120000 		.4byte	0x1259
 2832 126e 33       		.uleb128 0x33
 2833 126f 31090000 		.4byte	.LASF207
 2834 1273 01       		.byte	0x1
 2835 1274 0C01     		.2byte	0x10c
 2836 1276 30010000 		.4byte	0x130
 2837 127a 00000000 		.4byte	.LFB264
 2838 127e 20000000 		.4byte	.LFE264-.LFB264
 2839 1282 01       		.uleb128 0x1
 2840 1283 9C       		.byte	0x9c
 2841 1284 FB130000 		.4byte	0x13fb
 2842 1288 34       		.uleb128 0x34
 2843 1289 0E060000 		.4byte	.LASF178
 2844 128d 01       		.byte	0x1
 2845 128e 0C01     		.2byte	0x10c
 2846 1290 2C0A0000 		.4byte	0xa2c
 2847 1294 23030000 		.4byte	.LLST23
 2848 1298 34       		.uleb128 0x34
 2849 1299 3E080000 		.4byte	.LASF150
 2850 129d 01       		.byte	0x1
ARM GAS  /tmp/ccPDl681.s 			page 51


 2851 129e 0D01     		.2byte	0x10d
 2852 12a0 2D0B0000 		.4byte	0xb2d
 2853 12a4 43030000 		.4byte	.LLST24
 2854 12a8 34       		.uleb128 0x34
 2855 12a9 6C040000 		.4byte	.LASF148
 2856 12ad 01       		.byte	0x1
 2857 12ae 0E01     		.2byte	0x10e
 2858 12b0 320A0000 		.4byte	0xa32
 2859 12b4 64030000 		.4byte	.LLST25
 2860 12b8 34       		.uleb128 0x34
 2861 12b9 26060000 		.4byte	.LASF149
 2862 12bd 01       		.byte	0x1
 2863 12be 0F01     		.2byte	0x10f
 2864 12c0 2C000000 		.4byte	0x2c
 2865 12c4 85030000 		.4byte	.LLST26
 2866 12c8 35       		.uleb128 0x35
 2867 12c9 6D736700 		.ascii	"msg\000"
 2868 12cd 01       		.byte	0x1
 2869 12ce 1001     		.2byte	0x110
 2870 12d0 30010000 		.4byte	0x130
 2871 12d4 2A       		.uleb128 0x2a
 2872 12d5 DA000000 		.4byte	.LASF179
 2873 12d9 0B140000 		.4byte	0x140b
 2874 12dd 36       		.uleb128 0x36
 2875 12de BF0B0000 		.4byte	0xbbf
 2876 12e2 02000000 		.4byte	.LBB161
 2877 12e6 02000000 		.4byte	.LBE161-.LBB161
 2878 12ea 01       		.byte	0x1
 2879 12eb 1201     		.2byte	0x112
 2880 12ed 24130000 		.4byte	0x1324
 2881 12f1 2C       		.uleb128 0x2c
 2882 12f2 6D0B0000 		.4byte	0xb6d
 2883 12f6 02000000 		.4byte	.LBB162
 2884 12fa 02000000 		.4byte	.LBE162-.LBB162
 2885 12fe 02       		.byte	0x2
 2886 12ff ED01     		.2byte	0x1ed
 2887 1301 2C       		.uleb128 0x2c
 2888 1302 5B0B0000 		.4byte	0xb5b
 2889 1306 02000000 		.4byte	.LBB163
 2890 130a 02000000 		.4byte	.LBE163-.LBB163
 2891 130e 13       		.byte	0x13
 2892 130f 5C01     		.2byte	0x15c
 2893 1311 2D       		.uleb128 0x2d
 2894 1312 490B0000 		.4byte	0xb49
 2895 1316 02000000 		.4byte	.LBB164
 2896 131a 02000000 		.4byte	.LBE164-.LBB164
 2897 131e 0C       		.byte	0xc
 2898 131f C101     		.2byte	0x1c1
 2899 1321 00       		.byte	0
 2900 1322 00       		.byte	0
 2901 1323 00       		.byte	0
 2902 1324 36       		.uleb128 0x36
 2903 1325 D10B0000 		.4byte	0xbd1
 2904 1329 04000000 		.4byte	.LBB166
 2905 132d 12000000 		.4byte	.LBE166-.LBB166
 2906 1331 01       		.byte	0x1
 2907 1332 1401     		.2byte	0x114
ARM GAS  /tmp/ccPDl681.s 			page 52


 2908 1334 7C130000 		.4byte	0x137c
 2909 1338 27       		.uleb128 0x27
 2910 1339 FE0B0000 		.4byte	0xbfe
 2911 133d A6030000 		.4byte	.LLST27
 2912 1341 27       		.uleb128 0x27
 2913 1342 F30B0000 		.4byte	0xbf3
 2914 1346 C7030000 		.4byte	.LLST28
 2915 134a 27       		.uleb128 0x27
 2916 134b E80B0000 		.4byte	0xbe8
 2917 134f E8030000 		.4byte	.LLST29
 2918 1353 27       		.uleb128 0x27
 2919 1354 DD0B0000 		.4byte	0xbdd
 2920 1358 09040000 		.4byte	.LLST30
 2921 135c 2E       		.uleb128 0x2e
 2922 135d 04000000 		.4byte	.LBB167
 2923 1361 12000000 		.4byte	.LBE167-.LBB167
 2924 1365 2F       		.uleb128 0x2f
 2925 1366 090C0000 		.4byte	0xc09
 2926 136a 30       		.uleb128 0x30
 2927 136b 16000000 		.4byte	.LVL26
 2928 136f 38150000 		.4byte	0x1538
 2929 1373 29       		.uleb128 0x29
 2930 1374 01       		.uleb128 0x1
 2931 1375 50       		.byte	0x50
 2932 1376 02       		.uleb128 0x2
 2933 1377 75       		.byte	0x75
 2934 1378 6C       		.sleb128 -20
 2935 1379 00       		.byte	0
 2936 137a 00       		.byte	0
 2937 137b 00       		.byte	0
 2938 137c 36       		.uleb128 0x36
 2939 137d 780C0000 		.4byte	0xc78
 2940 1381 16000000 		.4byte	.LBB168
 2941 1385 06000000 		.4byte	.LBE168-.LBB168
 2942 1389 01       		.byte	0x1
 2943 138a 1501     		.2byte	0x115
 2944 138c A8130000 		.4byte	0x13a8
 2945 1390 37       		.uleb128 0x37
 2946 1391 890C0000 		.4byte	0xc89
 2947 1395 01       		.uleb128 0x1
 2948 1396 55       		.byte	0x55
 2949 1397 30       		.uleb128 0x30
 2950 1398 1C000000 		.4byte	.LVL27
 2951 139c 88150000 		.4byte	0x1588
 2952 13a0 29       		.uleb128 0x29
 2953 13a1 01       		.uleb128 0x1
 2954 13a2 50       		.byte	0x50
 2955 13a3 02       		.uleb128 0x2
 2956 13a4 75       		.byte	0x75
 2957 13a5 00       		.sleb128 0
 2958 13a6 00       		.byte	0
 2959 13a7 00       		.byte	0
 2960 13a8 2C       		.uleb128 0x2c
 2961 13a9 C80B0000 		.4byte	0xbc8
 2962 13ad 1C000000 		.4byte	.LBB170
 2963 13b1 02000000 		.4byte	.LBE170-.LBB170
 2964 13b5 01       		.byte	0x1
ARM GAS  /tmp/ccPDl681.s 			page 53


 2965 13b6 1601     		.2byte	0x116
 2966 13b8 2C       		.uleb128 0x2c
 2967 13b9 760B0000 		.4byte	0xb76
 2968 13bd 1C000000 		.4byte	.LBB171
 2969 13c1 02000000 		.4byte	.LBE171-.LBB171
 2970 13c5 02       		.byte	0x2
 2971 13c6 F801     		.2byte	0x1f8
 2972 13c8 2E       		.uleb128 0x2e
 2973 13c9 1C000000 		.4byte	.LBB172
 2974 13cd 02000000 		.4byte	.LBE172-.LBB172
 2975 13d1 2F       		.uleb128 0x2f
 2976 13d2 830B0000 		.4byte	0xb83
 2977 13d6 2C       		.uleb128 0x2c
 2978 13d7 640B0000 		.4byte	0xb64
 2979 13db 1C000000 		.4byte	.LBB173
 2980 13df 02000000 		.4byte	.LBE173-.LBB173
 2981 13e3 13       		.byte	0x13
 2982 13e4 7301     		.2byte	0x173
 2983 13e6 2D       		.uleb128 0x2d
 2984 13e7 520B0000 		.4byte	0xb52
 2985 13eb 1C000000 		.4byte	.LBB174
 2986 13ef 02000000 		.4byte	.LBE174-.LBB174
 2987 13f3 0C       		.byte	0xc
 2988 13f4 CF01     		.2byte	0x1cf
 2989 13f6 00       		.byte	0
 2990 13f7 00       		.byte	0
 2991 13f8 00       		.byte	0
 2992 13f9 00       		.byte	0
 2993 13fa 00       		.byte	0
 2994 13fb 17       		.uleb128 0x17
 2995 13fc 5C080000 		.4byte	0x85c
 2996 1400 0B140000 		.4byte	0x140b
 2997 1404 18       		.uleb128 0x18
 2998 1405 8A040000 		.4byte	0x48a
 2999 1409 0A       		.byte	0xa
 3000 140a 00       		.byte	0
 3001 140b 16       		.uleb128 0x16
 3002 140c FB130000 		.4byte	0x13fb
 3003 1410 38       		.uleb128 0x38
 3004 1411 E4030000 		.4byte	.LASF192
 3005 1415 01       		.byte	0x1
 3006 1416 2701     		.2byte	0x127
 3007 1418 00000000 		.4byte	.LFB265
 3008 141c 06000000 		.4byte	.LFE265-.LFB265
 3009 1420 01       		.uleb128 0x1
 3010 1421 9C       		.byte	0x9c
 3011 1422 6D140000 		.4byte	0x146d
 3012 1426 34       		.uleb128 0x34
 3013 1427 0E060000 		.4byte	.LASF178
 3014 142b 01       		.byte	0x1
 3015 142c 2701     		.2byte	0x127
 3016 142e 2C0A0000 		.4byte	0xa2c
 3017 1432 29040000 		.4byte	.LLST31
 3018 1436 2A       		.uleb128 0x2a
 3019 1437 DA000000 		.4byte	.LASF179
 3020 143b 7D140000 		.4byte	0x147d
 3021 143f 2C       		.uleb128 0x2c
ARM GAS  /tmp/ccPDl681.s 			page 54


 3022 1440 960C0000 		.4byte	0xc96
 3023 1444 00000000 		.4byte	.LBB176
 3024 1448 06000000 		.4byte	.LBE176-.LBB176
 3025 144c 01       		.byte	0x1
 3026 144d 2B01     		.2byte	0x12b
 3027 144f 27       		.uleb128 0x27
 3028 1450 A30C0000 		.4byte	0xca3
 3029 1454 57040000 		.4byte	.LLST32
 3030 1458 28       		.uleb128 0x28
 3031 1459 06000000 		.4byte	.LVL30
 3032 145d 9D150000 		.4byte	0x159d
 3033 1461 29       		.uleb128 0x29
 3034 1462 01       		.uleb128 0x1
 3035 1463 50       		.byte	0x50
 3036 1464 05       		.uleb128 0x5
 3037 1465 F3       		.byte	0xf3
 3038 1466 01       		.uleb128 0x1
 3039 1467 50       		.byte	0x50
 3040 1468 23       		.byte	0x23
 3041 1469 18       		.uleb128 0x18
 3042 146a 00       		.byte	0
 3043 146b 00       		.byte	0
 3044 146c 00       		.byte	0
 3045 146d 17       		.uleb128 0x17
 3046 146e 5C080000 		.4byte	0x85c
 3047 1472 7D140000 		.4byte	0x147d
 3048 1476 18       		.uleb128 0x18
 3049 1477 8A040000 		.4byte	0x48a
 3050 147b 0D       		.byte	0xd
 3051 147c 00       		.byte	0
 3052 147d 16       		.uleb128 0x16
 3053 147e 6D140000 		.4byte	0x146d
 3054 1482 38       		.uleb128 0x38
 3055 1483 52070000 		.4byte	.LASF193
 3056 1487 01       		.byte	0x1
 3057 1488 3701     		.2byte	0x137
 3058 148a 00000000 		.4byte	.LFB266
 3059 148e 06000000 		.4byte	.LFE266-.LFB266
 3060 1492 01       		.uleb128 0x1
 3061 1493 9C       		.byte	0x9c
 3062 1494 DF140000 		.4byte	0x14df
 3063 1498 34       		.uleb128 0x34
 3064 1499 0E060000 		.4byte	.LASF178
 3065 149d 01       		.byte	0x1
 3066 149e 3701     		.2byte	0x137
 3067 14a0 2C0A0000 		.4byte	0xa2c
 3068 14a4 87040000 		.4byte	.LLST33
 3069 14a8 2A       		.uleb128 0x2a
 3070 14a9 DA000000 		.4byte	.LASF179
 3071 14ad DF140000 		.4byte	0x14df
 3072 14b1 2C       		.uleb128 0x2c
 3073 14b2 AF0C0000 		.4byte	0xcaf
 3074 14b6 00000000 		.4byte	.LBB178
 3075 14ba 06000000 		.4byte	.LBE178-.LBB178
 3076 14be 01       		.byte	0x1
 3077 14bf 3B01     		.2byte	0x13b
 3078 14c1 27       		.uleb128 0x27
ARM GAS  /tmp/ccPDl681.s 			page 55


 3079 14c2 BC0C0000 		.4byte	0xcbc
 3080 14c6 B5040000 		.4byte	.LLST34
 3081 14ca 28       		.uleb128 0x28
 3082 14cb 06000000 		.4byte	.LVL33
 3083 14cf AE150000 		.4byte	0x15ae
 3084 14d3 29       		.uleb128 0x29
 3085 14d4 01       		.uleb128 0x1
 3086 14d5 50       		.byte	0x50
 3087 14d6 05       		.uleb128 0x5
 3088 14d7 F3       		.byte	0xf3
 3089 14d8 01       		.uleb128 0x1
 3090 14d9 50       		.byte	0x50
 3091 14da 23       		.byte	0x23
 3092 14db 18       		.uleb128 0x18
 3093 14dc 00       		.byte	0
 3094 14dd 00       		.byte	0
 3095 14de 00       		.byte	0
 3096 14df 16       		.uleb128 0x16
 3097 14e0 6D140000 		.4byte	0x146d
 3098 14e4 39       		.uleb128 0x39
 3099 14e5 3C060000 		.4byte	.LASF194
 3100 14e9 15       		.byte	0x15
 3101 14ea A706     		.2byte	0x6a7
 3102 14ec E4000000 		.4byte	0xe4
 3103 14f0 3A       		.uleb128 0x3a
 3104 14f1 636800   		.ascii	"ch\000"
 3105 14f4 09       		.byte	0x9
 3106 14f5 0902     		.2byte	0x209
 3107 14f7 23040000 		.4byte	0x423
 3108 14fb 3B       		.uleb128 0x3b
 3109 14fc BD070000 		.4byte	.LASF208
 3110 1500 12       		.byte	0x12
 3111 1501 2202     		.2byte	0x222
 3112 1503 3C       		.uleb128 0x3c
 3113 1504 BF090000 		.4byte	.LASF195
 3114 1508 0F       		.byte	0xf
 3115 1509 67       		.byte	0x67
 3116 150a 14150000 		.4byte	0x1514
 3117 150e 0D       		.uleb128 0xd
 3118 150f 8E080000 		.4byte	0x88e
 3119 1513 00       		.byte	0
 3120 1514 3D       		.uleb128 0x3d
 3121 1515 32000000 		.4byte	.LASF196
 3122 1519 12       		.byte	0x12
 3123 151a 2302     		.2byte	0x223
 3124 151c 26150000 		.4byte	0x1526
 3125 1520 0D       		.uleb128 0xd
 3126 1521 2C0A0000 		.4byte	0xa2c
 3127 1525 00       		.byte	0
 3128 1526 3D       		.uleb128 0x3d
 3129 1527 DF010000 		.4byte	.LASF197
 3130 152b 12       		.byte	0x12
 3131 152c 2402     		.2byte	0x224
 3132 152e 38150000 		.4byte	0x1538
 3133 1532 0D       		.uleb128 0xd
 3134 1533 2C0A0000 		.4byte	0xa2c
 3135 1537 00       		.byte	0
ARM GAS  /tmp/ccPDl681.s 			page 56


 3136 1538 3D       		.uleb128 0x3d
 3137 1539 A1050000 		.4byte	.LASF198
 3138 153d 12       		.byte	0x12
 3139 153e 2502     		.2byte	0x225
 3140 1540 4A150000 		.4byte	0x154a
 3141 1544 0D       		.uleb128 0xd
 3142 1545 2C0A0000 		.4byte	0xa2c
 3143 1549 00       		.byte	0
 3144 154a 3C       		.uleb128 0x3c
 3145 154b B6000000 		.4byte	.LASF199
 3146 154f 14       		.byte	0x14
 3147 1550 90       		.byte	0x90
 3148 1551 60150000 		.4byte	0x1560
 3149 1555 0D       		.uleb128 0xd
 3150 1556 E9070000 		.4byte	0x7e9
 3151 155a 0D       		.uleb128 0xd
 3152 155b 30010000 		.4byte	0x130
 3153 155f 00       		.byte	0
 3154 1560 3D       		.uleb128 0x3d
 3155 1561 B8060000 		.4byte	.LASF200
 3156 1565 12       		.byte	0x12
 3157 1566 2602     		.2byte	0x226
 3158 1568 72150000 		.4byte	0x1572
 3159 156c 0D       		.uleb128 0xd
 3160 156d 2C0A0000 		.4byte	0xa2c
 3161 1571 00       		.byte	0
 3162 1572 3C       		.uleb128 0x3c
 3163 1573 A0000000 		.4byte	.LASF201
 3164 1577 14       		.byte	0x14
 3165 1578 8F       		.byte	0x8f
 3166 1579 88150000 		.4byte	0x1588
 3167 157d 0D       		.uleb128 0xd
 3168 157e E9070000 		.4byte	0x7e9
 3169 1582 0D       		.uleb128 0xd
 3170 1583 30010000 		.4byte	0x130
 3171 1587 00       		.byte	0
 3172 1588 3E       		.uleb128 0x3e
 3173 1589 6E010000 		.4byte	.LASF209
 3174 158d 14       		.byte	0x14
 3175 158e 8D       		.byte	0x8d
 3176 158f 30010000 		.4byte	0x130
 3177 1593 9D150000 		.4byte	0x159d
 3178 1597 0D       		.uleb128 0xd
 3179 1598 E9070000 		.4byte	0x7e9
 3180 159c 00       		.byte	0
 3181 159d 3C       		.uleb128 0x3c
 3182 159e 2C060000 		.4byte	.LASF202
 3183 15a2 0F       		.byte	0xf
 3184 15a3 68       		.byte	0x68
 3185 15a4 AE150000 		.4byte	0x15ae
 3186 15a8 0D       		.uleb128 0xd
 3187 15a9 8E080000 		.4byte	0x88e
 3188 15ad 00       		.byte	0
 3189 15ae 3F       		.uleb128 0x3f
 3190 15af A0010000 		.4byte	.LASF210
 3191 15b3 0F       		.byte	0xf
 3192 15b4 6C       		.byte	0x6c
ARM GAS  /tmp/ccPDl681.s 			page 57


 3193 15b5 0D       		.uleb128 0xd
 3194 15b6 8E080000 		.4byte	0x88e
 3195 15ba 00       		.byte	0
 3196 15bb 00       		.byte	0
 3197              		.section	.debug_abbrev,"",%progbits
 3198              	.Ldebug_abbrev0:
 3199 0000 01       		.uleb128 0x1
 3200 0001 11       		.uleb128 0x11
 3201 0002 01       		.byte	0x1
 3202 0003 25       		.uleb128 0x25
 3203 0004 0E       		.uleb128 0xe
 3204 0005 13       		.uleb128 0x13
 3205 0006 0B       		.uleb128 0xb
 3206 0007 03       		.uleb128 0x3
 3207 0008 0E       		.uleb128 0xe
 3208 0009 1B       		.uleb128 0x1b
 3209 000a 0E       		.uleb128 0xe
 3210 000b 55       		.uleb128 0x55
 3211 000c 17       		.uleb128 0x17
 3212 000d 11       		.uleb128 0x11
 3213 000e 01       		.uleb128 0x1
 3214 000f 10       		.uleb128 0x10
 3215 0010 17       		.uleb128 0x17
 3216 0011 00       		.byte	0
 3217 0012 00       		.byte	0
 3218 0013 02       		.uleb128 0x2
 3219 0014 24       		.uleb128 0x24
 3220 0015 00       		.byte	0
 3221 0016 0B       		.uleb128 0xb
 3222 0017 0B       		.uleb128 0xb
 3223 0018 3E       		.uleb128 0x3e
 3224 0019 0B       		.uleb128 0xb
 3225 001a 03       		.uleb128 0x3
 3226 001b 08       		.uleb128 0x8
 3227 001c 00       		.byte	0
 3228 001d 00       		.byte	0
 3229 001e 03       		.uleb128 0x3
 3230 001f 16       		.uleb128 0x16
 3231 0020 00       		.byte	0
 3232 0021 03       		.uleb128 0x3
 3233 0022 0E       		.uleb128 0xe
 3234 0023 3A       		.uleb128 0x3a
 3235 0024 0B       		.uleb128 0xb
 3236 0025 3B       		.uleb128 0x3b
 3237 0026 0B       		.uleb128 0xb
 3238 0027 49       		.uleb128 0x49
 3239 0028 13       		.uleb128 0x13
 3240 0029 00       		.byte	0
 3241 002a 00       		.byte	0
 3242 002b 04       		.uleb128 0x4
 3243 002c 24       		.uleb128 0x24
 3244 002d 00       		.byte	0
 3245 002e 0B       		.uleb128 0xb
 3246 002f 0B       		.uleb128 0xb
 3247 0030 3E       		.uleb128 0x3e
 3248 0031 0B       		.uleb128 0xb
 3249 0032 03       		.uleb128 0x3
ARM GAS  /tmp/ccPDl681.s 			page 58


 3250 0033 0E       		.uleb128 0xe
 3251 0034 00       		.byte	0
 3252 0035 00       		.byte	0
 3253 0036 05       		.uleb128 0x5
 3254 0037 35       		.uleb128 0x35
 3255 0038 00       		.byte	0
 3256 0039 49       		.uleb128 0x49
 3257 003a 13       		.uleb128 0x13
 3258 003b 00       		.byte	0
 3259 003c 00       		.byte	0
 3260 003d 06       		.uleb128 0x6
 3261 003e 13       		.uleb128 0x13
 3262 003f 01       		.byte	0x1
 3263 0040 03       		.uleb128 0x3
 3264 0041 0E       		.uleb128 0xe
 3265 0042 0B       		.uleb128 0xb
 3266 0043 0B       		.uleb128 0xb
 3267 0044 3A       		.uleb128 0x3a
 3268 0045 0B       		.uleb128 0xb
 3269 0046 3B       		.uleb128 0x3b
 3270 0047 0B       		.uleb128 0xb
 3271 0048 01       		.uleb128 0x1
 3272 0049 13       		.uleb128 0x13
 3273 004a 00       		.byte	0
 3274 004b 00       		.byte	0
 3275 004c 07       		.uleb128 0x7
 3276 004d 0D       		.uleb128 0xd
 3277 004e 00       		.byte	0
 3278 004f 03       		.uleb128 0x3
 3279 0050 0E       		.uleb128 0xe
 3280 0051 3A       		.uleb128 0x3a
 3281 0052 0B       		.uleb128 0xb
 3282 0053 3B       		.uleb128 0x3b
 3283 0054 0B       		.uleb128 0xb
 3284 0055 49       		.uleb128 0x49
 3285 0056 13       		.uleb128 0x13
 3286 0057 38       		.uleb128 0x38
 3287 0058 0B       		.uleb128 0xb
 3288 0059 00       		.byte	0
 3289 005a 00       		.byte	0
 3290 005b 08       		.uleb128 0x8
 3291 005c 0D       		.uleb128 0xd
 3292 005d 00       		.byte	0
 3293 005e 03       		.uleb128 0x3
 3294 005f 08       		.uleb128 0x8
 3295 0060 3A       		.uleb128 0x3a
 3296 0061 0B       		.uleb128 0xb
 3297 0062 3B       		.uleb128 0x3b
 3298 0063 05       		.uleb128 0x5
 3299 0064 49       		.uleb128 0x49
 3300 0065 13       		.uleb128 0x13
 3301 0066 38       		.uleb128 0x38
 3302 0067 0B       		.uleb128 0xb
 3303 0068 00       		.byte	0
 3304 0069 00       		.byte	0
 3305 006a 09       		.uleb128 0x9
 3306 006b 0D       		.uleb128 0xd
ARM GAS  /tmp/ccPDl681.s 			page 59


 3307 006c 00       		.byte	0
 3308 006d 03       		.uleb128 0x3
 3309 006e 0E       		.uleb128 0xe
 3310 006f 3A       		.uleb128 0x3a
 3311 0070 0B       		.uleb128 0xb
 3312 0071 3B       		.uleb128 0x3b
 3313 0072 05       		.uleb128 0x5
 3314 0073 49       		.uleb128 0x49
 3315 0074 13       		.uleb128 0x13
 3316 0075 38       		.uleb128 0x38
 3317 0076 0B       		.uleb128 0xb
 3318 0077 00       		.byte	0
 3319 0078 00       		.byte	0
 3320 0079 0A       		.uleb128 0xa
 3321 007a 0F       		.uleb128 0xf
 3322 007b 00       		.byte	0
 3323 007c 0B       		.uleb128 0xb
 3324 007d 0B       		.uleb128 0xb
 3325 007e 49       		.uleb128 0x49
 3326 007f 13       		.uleb128 0x13
 3327 0080 00       		.byte	0
 3328 0081 00       		.byte	0
 3329 0082 0B       		.uleb128 0xb
 3330 0083 13       		.uleb128 0x13
 3331 0084 01       		.byte	0x1
 3332 0085 03       		.uleb128 0x3
 3333 0086 0E       		.uleb128 0xe
 3334 0087 0B       		.uleb128 0xb
 3335 0088 0B       		.uleb128 0xb
 3336 0089 3A       		.uleb128 0x3a
 3337 008a 0B       		.uleb128 0xb
 3338 008b 3B       		.uleb128 0x3b
 3339 008c 05       		.uleb128 0x5
 3340 008d 01       		.uleb128 0x1
 3341 008e 13       		.uleb128 0x13
 3342 008f 00       		.byte	0
 3343 0090 00       		.byte	0
 3344 0091 0C       		.uleb128 0xc
 3345 0092 15       		.uleb128 0x15
 3346 0093 01       		.byte	0x1
 3347 0094 27       		.uleb128 0x27
 3348 0095 19       		.uleb128 0x19
 3349 0096 01       		.uleb128 0x1
 3350 0097 13       		.uleb128 0x13
 3351 0098 00       		.byte	0
 3352 0099 00       		.byte	0
 3353 009a 0D       		.uleb128 0xd
 3354 009b 05       		.uleb128 0x5
 3355 009c 00       		.byte	0
 3356 009d 49       		.uleb128 0x49
 3357 009e 13       		.uleb128 0x13
 3358 009f 00       		.byte	0
 3359 00a0 00       		.byte	0
 3360 00a1 0E       		.uleb128 0xe
 3361 00a2 0F       		.uleb128 0xf
 3362 00a3 00       		.byte	0
 3363 00a4 0B       		.uleb128 0xb
ARM GAS  /tmp/ccPDl681.s 			page 60


 3364 00a5 0B       		.uleb128 0xb
 3365 00a6 00       		.byte	0
 3366 00a7 00       		.byte	0
 3367 00a8 0F       		.uleb128 0xf
 3368 00a9 13       		.uleb128 0x13
 3369 00aa 01       		.byte	0x1
 3370 00ab 03       		.uleb128 0x3
 3371 00ac 0E       		.uleb128 0xe
 3372 00ad 0B       		.uleb128 0xb
 3373 00ae 05       		.uleb128 0x5
 3374 00af 3A       		.uleb128 0x3a
 3375 00b0 0B       		.uleb128 0xb
 3376 00b1 3B       		.uleb128 0x3b
 3377 00b2 05       		.uleb128 0x5
 3378 00b3 01       		.uleb128 0x1
 3379 00b4 13       		.uleb128 0x13
 3380 00b5 00       		.byte	0
 3381 00b6 00       		.byte	0
 3382 00b7 10       		.uleb128 0x10
 3383 00b8 13       		.uleb128 0x13
 3384 00b9 01       		.byte	0x1
 3385 00ba 0B       		.uleb128 0xb
 3386 00bb 0B       		.uleb128 0xb
 3387 00bc 3A       		.uleb128 0x3a
 3388 00bd 0B       		.uleb128 0xb
 3389 00be 3B       		.uleb128 0x3b
 3390 00bf 0B       		.uleb128 0xb
 3391 00c0 01       		.uleb128 0x1
 3392 00c1 13       		.uleb128 0x13
 3393 00c2 00       		.byte	0
 3394 00c3 00       		.byte	0
 3395 00c4 11       		.uleb128 0x11
 3396 00c5 0D       		.uleb128 0xd
 3397 00c6 00       		.byte	0
 3398 00c7 03       		.uleb128 0x3
 3399 00c8 08       		.uleb128 0x8
 3400 00c9 3A       		.uleb128 0x3a
 3401 00ca 0B       		.uleb128 0xb
 3402 00cb 3B       		.uleb128 0x3b
 3403 00cc 0B       		.uleb128 0xb
 3404 00cd 49       		.uleb128 0x49
 3405 00ce 13       		.uleb128 0x13
 3406 00cf 38       		.uleb128 0x38
 3407 00d0 0B       		.uleb128 0xb
 3408 00d1 00       		.byte	0
 3409 00d2 00       		.byte	0
 3410 00d3 12       		.uleb128 0x12
 3411 00d4 13       		.uleb128 0x13
 3412 00d5 01       		.byte	0x1
 3413 00d6 0B       		.uleb128 0xb
 3414 00d7 0B       		.uleb128 0xb
 3415 00d8 3A       		.uleb128 0x3a
 3416 00d9 0B       		.uleb128 0xb
 3417 00da 3B       		.uleb128 0x3b
 3418 00db 05       		.uleb128 0x5
 3419 00dc 01       		.uleb128 0x1
 3420 00dd 13       		.uleb128 0x13
ARM GAS  /tmp/ccPDl681.s 			page 61


 3421 00de 00       		.byte	0
 3422 00df 00       		.byte	0
 3423 00e0 13       		.uleb128 0x13
 3424 00e1 16       		.uleb128 0x16
 3425 00e2 00       		.byte	0
 3426 00e3 03       		.uleb128 0x3
 3427 00e4 0E       		.uleb128 0xe
 3428 00e5 3A       		.uleb128 0x3a
 3429 00e6 0B       		.uleb128 0xb
 3430 00e7 3B       		.uleb128 0x3b
 3431 00e8 05       		.uleb128 0x5
 3432 00e9 49       		.uleb128 0x49
 3433 00ea 13       		.uleb128 0x13
 3434 00eb 00       		.byte	0
 3435 00ec 00       		.byte	0
 3436 00ed 14       		.uleb128 0x14
 3437 00ee 17       		.uleb128 0x17
 3438 00ef 01       		.byte	0x1
 3439 00f0 0B       		.uleb128 0xb
 3440 00f1 0B       		.uleb128 0xb
 3441 00f2 3A       		.uleb128 0x3a
 3442 00f3 0B       		.uleb128 0xb
 3443 00f4 3B       		.uleb128 0x3b
 3444 00f5 0B       		.uleb128 0xb
 3445 00f6 01       		.uleb128 0x1
 3446 00f7 13       		.uleb128 0x13
 3447 00f8 00       		.byte	0
 3448 00f9 00       		.byte	0
 3449 00fa 15       		.uleb128 0x15
 3450 00fb 0D       		.uleb128 0xd
 3451 00fc 00       		.byte	0
 3452 00fd 03       		.uleb128 0x3
 3453 00fe 0E       		.uleb128 0xe
 3454 00ff 3A       		.uleb128 0x3a
 3455 0100 0B       		.uleb128 0xb
 3456 0101 3B       		.uleb128 0x3b
 3457 0102 05       		.uleb128 0x5
 3458 0103 49       		.uleb128 0x49
 3459 0104 13       		.uleb128 0x13
 3460 0105 00       		.byte	0
 3461 0106 00       		.byte	0
 3462 0107 16       		.uleb128 0x16
 3463 0108 26       		.uleb128 0x26
 3464 0109 00       		.byte	0
 3465 010a 49       		.uleb128 0x49
 3466 010b 13       		.uleb128 0x13
 3467 010c 00       		.byte	0
 3468 010d 00       		.byte	0
 3469 010e 17       		.uleb128 0x17
 3470 010f 01       		.uleb128 0x1
 3471 0110 01       		.byte	0x1
 3472 0111 49       		.uleb128 0x49
 3473 0112 13       		.uleb128 0x13
 3474 0113 01       		.uleb128 0x1
 3475 0114 13       		.uleb128 0x13
 3476 0115 00       		.byte	0
 3477 0116 00       		.byte	0
ARM GAS  /tmp/ccPDl681.s 			page 62


 3478 0117 18       		.uleb128 0x18
 3479 0118 21       		.uleb128 0x21
 3480 0119 00       		.byte	0
 3481 011a 49       		.uleb128 0x49
 3482 011b 13       		.uleb128 0x13
 3483 011c 2F       		.uleb128 0x2f
 3484 011d 0B       		.uleb128 0xb
 3485 011e 00       		.byte	0
 3486 011f 00       		.byte	0
 3487 0120 19       		.uleb128 0x19
 3488 0121 04       		.uleb128 0x4
 3489 0122 01       		.byte	0x1
 3490 0123 0B       		.uleb128 0xb
 3491 0124 0B       		.uleb128 0xb
 3492 0125 3A       		.uleb128 0x3a
 3493 0126 0B       		.uleb128 0xb
 3494 0127 3B       		.uleb128 0x3b
 3495 0128 0B       		.uleb128 0xb
 3496 0129 01       		.uleb128 0x1
 3497 012a 13       		.uleb128 0x13
 3498 012b 00       		.byte	0
 3499 012c 00       		.byte	0
 3500 012d 1A       		.uleb128 0x1a
 3501 012e 28       		.uleb128 0x28
 3502 012f 00       		.byte	0
 3503 0130 03       		.uleb128 0x3
 3504 0131 0E       		.uleb128 0xe
 3505 0132 1C       		.uleb128 0x1c
 3506 0133 0D       		.uleb128 0xd
 3507 0134 00       		.byte	0
 3508 0135 00       		.byte	0
 3509 0136 1B       		.uleb128 0x1b
 3510 0137 04       		.uleb128 0x4
 3511 0138 01       		.byte	0x1
 3512 0139 0B       		.uleb128 0xb
 3513 013a 0B       		.uleb128 0xb
 3514 013b 3A       		.uleb128 0x3a
 3515 013c 0B       		.uleb128 0xb
 3516 013d 3B       		.uleb128 0x3b
 3517 013e 05       		.uleb128 0x5
 3518 013f 01       		.uleb128 0x1
 3519 0140 13       		.uleb128 0x13
 3520 0141 00       		.byte	0
 3521 0142 00       		.byte	0
 3522 0143 1C       		.uleb128 0x1c
 3523 0144 2E       		.uleb128 0x2e
 3524 0145 00       		.byte	0
 3525 0146 03       		.uleb128 0x3
 3526 0147 0E       		.uleb128 0xe
 3527 0148 3A       		.uleb128 0x3a
 3528 0149 0B       		.uleb128 0xb
 3529 014a 3B       		.uleb128 0x3b
 3530 014b 05       		.uleb128 0x5
 3531 014c 27       		.uleb128 0x27
 3532 014d 19       		.uleb128 0x19
 3533 014e 20       		.uleb128 0x20
 3534 014f 0B       		.uleb128 0xb
ARM GAS  /tmp/ccPDl681.s 			page 63


 3535 0150 00       		.byte	0
 3536 0151 00       		.byte	0
 3537 0152 1D       		.uleb128 0x1d
 3538 0153 2E       		.uleb128 0x2e
 3539 0154 01       		.byte	0x1
 3540 0155 03       		.uleb128 0x3
 3541 0156 0E       		.uleb128 0xe
 3542 0157 3A       		.uleb128 0x3a
 3543 0158 0B       		.uleb128 0xb
 3544 0159 3B       		.uleb128 0x3b
 3545 015a 05       		.uleb128 0x5
 3546 015b 27       		.uleb128 0x27
 3547 015c 19       		.uleb128 0x19
 3548 015d 20       		.uleb128 0x20
 3549 015e 0B       		.uleb128 0xb
 3550 015f 01       		.uleb128 0x1
 3551 0160 13       		.uleb128 0x13
 3552 0161 00       		.byte	0
 3553 0162 00       		.byte	0
 3554 0163 1E       		.uleb128 0x1e
 3555 0164 34       		.uleb128 0x34
 3556 0165 00       		.byte	0
 3557 0166 03       		.uleb128 0x3
 3558 0167 0E       		.uleb128 0xe
 3559 0168 49       		.uleb128 0x49
 3560 0169 13       		.uleb128 0x13
 3561 016a 34       		.uleb128 0x34
 3562 016b 19       		.uleb128 0x19
 3563 016c 1C       		.uleb128 0x1c
 3564 016d 0E       		.uleb128 0xe
 3565 016e 00       		.byte	0
 3566 016f 00       		.byte	0
 3567 0170 1F       		.uleb128 0x1f
 3568 0171 05       		.uleb128 0x5
 3569 0172 00       		.byte	0
 3570 0173 03       		.uleb128 0x3
 3571 0174 08       		.uleb128 0x8
 3572 0175 3A       		.uleb128 0x3a
 3573 0176 0B       		.uleb128 0xb
 3574 0177 3B       		.uleb128 0x3b
 3575 0178 05       		.uleb128 0x5
 3576 0179 49       		.uleb128 0x49
 3577 017a 13       		.uleb128 0x13
 3578 017b 00       		.byte	0
 3579 017c 00       		.byte	0
 3580 017d 20       		.uleb128 0x20
 3581 017e 2E       		.uleb128 0x2e
 3582 017f 01       		.byte	0x1
 3583 0180 3F       		.uleb128 0x3f
 3584 0181 19       		.uleb128 0x19
 3585 0182 03       		.uleb128 0x3
 3586 0183 0E       		.uleb128 0xe
 3587 0184 3A       		.uleb128 0x3a
 3588 0185 0B       		.uleb128 0xb
 3589 0186 3B       		.uleb128 0x3b
 3590 0187 0B       		.uleb128 0xb
 3591 0188 27       		.uleb128 0x27
ARM GAS  /tmp/ccPDl681.s 			page 64


 3592 0189 19       		.uleb128 0x19
 3593 018a 20       		.uleb128 0x20
 3594 018b 0B       		.uleb128 0xb
 3595 018c 01       		.uleb128 0x1
 3596 018d 13       		.uleb128 0x13
 3597 018e 00       		.byte	0
 3598 018f 00       		.byte	0
 3599 0190 21       		.uleb128 0x21
 3600 0191 05       		.uleb128 0x5
 3601 0192 00       		.byte	0
 3602 0193 03       		.uleb128 0x3
 3603 0194 0E       		.uleb128 0xe
 3604 0195 3A       		.uleb128 0x3a
 3605 0196 0B       		.uleb128 0xb
 3606 0197 3B       		.uleb128 0x3b
 3607 0198 0B       		.uleb128 0xb
 3608 0199 49       		.uleb128 0x49
 3609 019a 13       		.uleb128 0x13
 3610 019b 00       		.byte	0
 3611 019c 00       		.byte	0
 3612 019d 22       		.uleb128 0x22
 3613 019e 2E       		.uleb128 0x2e
 3614 019f 01       		.byte	0x1
 3615 01a0 03       		.uleb128 0x3
 3616 01a1 0E       		.uleb128 0xe
 3617 01a2 3A       		.uleb128 0x3a
 3618 01a3 0B       		.uleb128 0xb
 3619 01a4 3B       		.uleb128 0x3b
 3620 01a5 05       		.uleb128 0x5
 3621 01a6 27       		.uleb128 0x27
 3622 01a7 19       		.uleb128 0x19
 3623 01a8 49       		.uleb128 0x49
 3624 01a9 13       		.uleb128 0x13
 3625 01aa 20       		.uleb128 0x20
 3626 01ab 0B       		.uleb128 0xb
 3627 01ac 01       		.uleb128 0x1
 3628 01ad 13       		.uleb128 0x13
 3629 01ae 00       		.byte	0
 3630 01af 00       		.byte	0
 3631 01b0 23       		.uleb128 0x23
 3632 01b1 2E       		.uleb128 0x2e
 3633 01b2 01       		.byte	0x1
 3634 01b3 3F       		.uleb128 0x3f
 3635 01b4 19       		.uleb128 0x19
 3636 01b5 03       		.uleb128 0x3
 3637 01b6 0E       		.uleb128 0xe
 3638 01b7 3A       		.uleb128 0x3a
 3639 01b8 0B       		.uleb128 0xb
 3640 01b9 3B       		.uleb128 0x3b
 3641 01ba 0B       		.uleb128 0xb
 3642 01bb 27       		.uleb128 0x27
 3643 01bc 19       		.uleb128 0x19
 3644 01bd 11       		.uleb128 0x11
 3645 01be 01       		.uleb128 0x1
 3646 01bf 12       		.uleb128 0x12
 3647 01c0 06       		.uleb128 0x6
 3648 01c1 40       		.uleb128 0x40
ARM GAS  /tmp/ccPDl681.s 			page 65


 3649 01c2 18       		.uleb128 0x18
 3650 01c3 9742     		.uleb128 0x2117
 3651 01c5 19       		.uleb128 0x19
 3652 01c6 01       		.uleb128 0x1
 3653 01c7 13       		.uleb128 0x13
 3654 01c8 00       		.byte	0
 3655 01c9 00       		.byte	0
 3656 01ca 24       		.uleb128 0x24
 3657 01cb 898201   		.uleb128 0x4109
 3658 01ce 00       		.byte	0
 3659 01cf 11       		.uleb128 0x11
 3660 01d0 01       		.uleb128 0x1
 3661 01d1 9542     		.uleb128 0x2115
 3662 01d3 19       		.uleb128 0x19
 3663 01d4 31       		.uleb128 0x31
 3664 01d5 13       		.uleb128 0x13
 3665 01d6 00       		.byte	0
 3666 01d7 00       		.byte	0
 3667 01d8 25       		.uleb128 0x25
 3668 01d9 05       		.uleb128 0x5
 3669 01da 00       		.byte	0
 3670 01db 03       		.uleb128 0x3
 3671 01dc 0E       		.uleb128 0xe
 3672 01dd 3A       		.uleb128 0x3a
 3673 01de 0B       		.uleb128 0xb
 3674 01df 3B       		.uleb128 0x3b
 3675 01e0 0B       		.uleb128 0xb
 3676 01e1 49       		.uleb128 0x49
 3677 01e2 13       		.uleb128 0x13
 3678 01e3 02       		.uleb128 0x2
 3679 01e4 17       		.uleb128 0x17
 3680 01e5 00       		.byte	0
 3681 01e6 00       		.byte	0
 3682 01e7 26       		.uleb128 0x26
 3683 01e8 1D       		.uleb128 0x1d
 3684 01e9 01       		.byte	0x1
 3685 01ea 31       		.uleb128 0x31
 3686 01eb 13       		.uleb128 0x13
 3687 01ec 11       		.uleb128 0x11
 3688 01ed 01       		.uleb128 0x1
 3689 01ee 12       		.uleb128 0x12
 3690 01ef 06       		.uleb128 0x6
 3691 01f0 58       		.uleb128 0x58
 3692 01f1 0B       		.uleb128 0xb
 3693 01f2 59       		.uleb128 0x59
 3694 01f3 0B       		.uleb128 0xb
 3695 01f4 00       		.byte	0
 3696 01f5 00       		.byte	0
 3697 01f6 27       		.uleb128 0x27
 3698 01f7 05       		.uleb128 0x5
 3699 01f8 00       		.byte	0
 3700 01f9 31       		.uleb128 0x31
 3701 01fa 13       		.uleb128 0x13
 3702 01fb 02       		.uleb128 0x2
 3703 01fc 17       		.uleb128 0x17
 3704 01fd 00       		.byte	0
 3705 01fe 00       		.byte	0
ARM GAS  /tmp/ccPDl681.s 			page 66


 3706 01ff 28       		.uleb128 0x28
 3707 0200 898201   		.uleb128 0x4109
 3708 0203 01       		.byte	0x1
 3709 0204 11       		.uleb128 0x11
 3710 0205 01       		.uleb128 0x1
 3711 0206 9542     		.uleb128 0x2115
 3712 0208 19       		.uleb128 0x19
 3713 0209 31       		.uleb128 0x31
 3714 020a 13       		.uleb128 0x13
 3715 020b 00       		.byte	0
 3716 020c 00       		.byte	0
 3717 020d 29       		.uleb128 0x29
 3718 020e 8A8201   		.uleb128 0x410a
 3719 0211 00       		.byte	0
 3720 0212 02       		.uleb128 0x2
 3721 0213 18       		.uleb128 0x18
 3722 0214 9142     		.uleb128 0x2111
 3723 0216 18       		.uleb128 0x18
 3724 0217 00       		.byte	0
 3725 0218 00       		.byte	0
 3726 0219 2A       		.uleb128 0x2a
 3727 021a 34       		.uleb128 0x34
 3728 021b 00       		.byte	0
 3729 021c 03       		.uleb128 0x3
 3730 021d 0E       		.uleb128 0xe
 3731 021e 49       		.uleb128 0x49
 3732 021f 13       		.uleb128 0x13
 3733 0220 34       		.uleb128 0x34
 3734 0221 19       		.uleb128 0x19
 3735 0222 00       		.byte	0
 3736 0223 00       		.byte	0
 3737 0224 2B       		.uleb128 0x2b
 3738 0225 1D       		.uleb128 0x1d
 3739 0226 01       		.byte	0x1
 3740 0227 31       		.uleb128 0x31
 3741 0228 13       		.uleb128 0x13
 3742 0229 11       		.uleb128 0x11
 3743 022a 01       		.uleb128 0x1
 3744 022b 12       		.uleb128 0x12
 3745 022c 06       		.uleb128 0x6
 3746 022d 58       		.uleb128 0x58
 3747 022e 0B       		.uleb128 0xb
 3748 022f 59       		.uleb128 0x59
 3749 0230 0B       		.uleb128 0xb
 3750 0231 01       		.uleb128 0x1
 3751 0232 13       		.uleb128 0x13
 3752 0233 00       		.byte	0
 3753 0234 00       		.byte	0
 3754 0235 2C       		.uleb128 0x2c
 3755 0236 1D       		.uleb128 0x1d
 3756 0237 01       		.byte	0x1
 3757 0238 31       		.uleb128 0x31
 3758 0239 13       		.uleb128 0x13
 3759 023a 11       		.uleb128 0x11
 3760 023b 01       		.uleb128 0x1
 3761 023c 12       		.uleb128 0x12
 3762 023d 06       		.uleb128 0x6
ARM GAS  /tmp/ccPDl681.s 			page 67


 3763 023e 58       		.uleb128 0x58
 3764 023f 0B       		.uleb128 0xb
 3765 0240 59       		.uleb128 0x59
 3766 0241 05       		.uleb128 0x5
 3767 0242 00       		.byte	0
 3768 0243 00       		.byte	0
 3769 0244 2D       		.uleb128 0x2d
 3770 0245 1D       		.uleb128 0x1d
 3771 0246 00       		.byte	0
 3772 0247 31       		.uleb128 0x31
 3773 0248 13       		.uleb128 0x13
 3774 0249 11       		.uleb128 0x11
 3775 024a 01       		.uleb128 0x1
 3776 024b 12       		.uleb128 0x12
 3777 024c 06       		.uleb128 0x6
 3778 024d 58       		.uleb128 0x58
 3779 024e 0B       		.uleb128 0xb
 3780 024f 59       		.uleb128 0x59
 3781 0250 05       		.uleb128 0x5
 3782 0251 00       		.byte	0
 3783 0252 00       		.byte	0
 3784 0253 2E       		.uleb128 0x2e
 3785 0254 0B       		.uleb128 0xb
 3786 0255 01       		.byte	0x1
 3787 0256 11       		.uleb128 0x11
 3788 0257 01       		.uleb128 0x1
 3789 0258 12       		.uleb128 0x12
 3790 0259 06       		.uleb128 0x6
 3791 025a 00       		.byte	0
 3792 025b 00       		.byte	0
 3793 025c 2F       		.uleb128 0x2f
 3794 025d 34       		.uleb128 0x34
 3795 025e 00       		.byte	0
 3796 025f 31       		.uleb128 0x31
 3797 0260 13       		.uleb128 0x13
 3798 0261 00       		.byte	0
 3799 0262 00       		.byte	0
 3800 0263 30       		.uleb128 0x30
 3801 0264 898201   		.uleb128 0x4109
 3802 0267 01       		.byte	0x1
 3803 0268 11       		.uleb128 0x11
 3804 0269 01       		.uleb128 0x1
 3805 026a 31       		.uleb128 0x31
 3806 026b 13       		.uleb128 0x13
 3807 026c 00       		.byte	0
 3808 026d 00       		.byte	0
 3809 026e 31       		.uleb128 0x31
 3810 026f 2E       		.uleb128 0x2e
 3811 0270 01       		.byte	0x1
 3812 0271 31       		.uleb128 0x31
 3813 0272 13       		.uleb128 0x13
 3814 0273 11       		.uleb128 0x11
 3815 0274 01       		.uleb128 0x1
 3816 0275 12       		.uleb128 0x12
 3817 0276 06       		.uleb128 0x6
 3818 0277 40       		.uleb128 0x40
 3819 0278 18       		.uleb128 0x18
ARM GAS  /tmp/ccPDl681.s 			page 68


 3820 0279 9742     		.uleb128 0x2117
 3821 027b 19       		.uleb128 0x19
 3822 027c 01       		.uleb128 0x1
 3823 027d 13       		.uleb128 0x13
 3824 027e 00       		.byte	0
 3825 027f 00       		.byte	0
 3826 0280 32       		.uleb128 0x32
 3827 0281 1D       		.uleb128 0x1d
 3828 0282 01       		.byte	0x1
 3829 0283 31       		.uleb128 0x31
 3830 0284 13       		.uleb128 0x13
 3831 0285 52       		.uleb128 0x52
 3832 0286 01       		.uleb128 0x1
 3833 0287 55       		.uleb128 0x55
 3834 0288 17       		.uleb128 0x17
 3835 0289 58       		.uleb128 0x58
 3836 028a 0B       		.uleb128 0xb
 3837 028b 59       		.uleb128 0x59
 3838 028c 0B       		.uleb128 0xb
 3839 028d 01       		.uleb128 0x1
 3840 028e 13       		.uleb128 0x13
 3841 028f 00       		.byte	0
 3842 0290 00       		.byte	0
 3843 0291 33       		.uleb128 0x33
 3844 0292 2E       		.uleb128 0x2e
 3845 0293 01       		.byte	0x1
 3846 0294 3F       		.uleb128 0x3f
 3847 0295 19       		.uleb128 0x19
 3848 0296 03       		.uleb128 0x3
 3849 0297 0E       		.uleb128 0xe
 3850 0298 3A       		.uleb128 0x3a
 3851 0299 0B       		.uleb128 0xb
 3852 029a 3B       		.uleb128 0x3b
 3853 029b 05       		.uleb128 0x5
 3854 029c 27       		.uleb128 0x27
 3855 029d 19       		.uleb128 0x19
 3856 029e 49       		.uleb128 0x49
 3857 029f 13       		.uleb128 0x13
 3858 02a0 11       		.uleb128 0x11
 3859 02a1 01       		.uleb128 0x1
 3860 02a2 12       		.uleb128 0x12
 3861 02a3 06       		.uleb128 0x6
 3862 02a4 40       		.uleb128 0x40
 3863 02a5 18       		.uleb128 0x18
 3864 02a6 9742     		.uleb128 0x2117
 3865 02a8 19       		.uleb128 0x19
 3866 02a9 01       		.uleb128 0x1
 3867 02aa 13       		.uleb128 0x13
 3868 02ab 00       		.byte	0
 3869 02ac 00       		.byte	0
 3870 02ad 34       		.uleb128 0x34
 3871 02ae 05       		.uleb128 0x5
 3872 02af 00       		.byte	0
 3873 02b0 03       		.uleb128 0x3
 3874 02b1 0E       		.uleb128 0xe
 3875 02b2 3A       		.uleb128 0x3a
 3876 02b3 0B       		.uleb128 0xb
ARM GAS  /tmp/ccPDl681.s 			page 69


 3877 02b4 3B       		.uleb128 0x3b
 3878 02b5 05       		.uleb128 0x5
 3879 02b6 49       		.uleb128 0x49
 3880 02b7 13       		.uleb128 0x13
 3881 02b8 02       		.uleb128 0x2
 3882 02b9 17       		.uleb128 0x17
 3883 02ba 00       		.byte	0
 3884 02bb 00       		.byte	0
 3885 02bc 35       		.uleb128 0x35
 3886 02bd 34       		.uleb128 0x34
 3887 02be 00       		.byte	0
 3888 02bf 03       		.uleb128 0x3
 3889 02c0 08       		.uleb128 0x8
 3890 02c1 3A       		.uleb128 0x3a
 3891 02c2 0B       		.uleb128 0xb
 3892 02c3 3B       		.uleb128 0x3b
 3893 02c4 05       		.uleb128 0x5
 3894 02c5 49       		.uleb128 0x49
 3895 02c6 13       		.uleb128 0x13
 3896 02c7 00       		.byte	0
 3897 02c8 00       		.byte	0
 3898 02c9 36       		.uleb128 0x36
 3899 02ca 1D       		.uleb128 0x1d
 3900 02cb 01       		.byte	0x1
 3901 02cc 31       		.uleb128 0x31
 3902 02cd 13       		.uleb128 0x13
 3903 02ce 11       		.uleb128 0x11
 3904 02cf 01       		.uleb128 0x1
 3905 02d0 12       		.uleb128 0x12
 3906 02d1 06       		.uleb128 0x6
 3907 02d2 58       		.uleb128 0x58
 3908 02d3 0B       		.uleb128 0xb
 3909 02d4 59       		.uleb128 0x59
 3910 02d5 05       		.uleb128 0x5
 3911 02d6 01       		.uleb128 0x1
 3912 02d7 13       		.uleb128 0x13
 3913 02d8 00       		.byte	0
 3914 02d9 00       		.byte	0
 3915 02da 37       		.uleb128 0x37
 3916 02db 05       		.uleb128 0x5
 3917 02dc 00       		.byte	0
 3918 02dd 31       		.uleb128 0x31
 3919 02de 13       		.uleb128 0x13
 3920 02df 02       		.uleb128 0x2
 3921 02e0 18       		.uleb128 0x18
 3922 02e1 00       		.byte	0
 3923 02e2 00       		.byte	0
 3924 02e3 38       		.uleb128 0x38
 3925 02e4 2E       		.uleb128 0x2e
 3926 02e5 01       		.byte	0x1
 3927 02e6 3F       		.uleb128 0x3f
 3928 02e7 19       		.uleb128 0x19
 3929 02e8 03       		.uleb128 0x3
 3930 02e9 0E       		.uleb128 0xe
 3931 02ea 3A       		.uleb128 0x3a
 3932 02eb 0B       		.uleb128 0xb
 3933 02ec 3B       		.uleb128 0x3b
ARM GAS  /tmp/ccPDl681.s 			page 70


 3934 02ed 05       		.uleb128 0x5
 3935 02ee 27       		.uleb128 0x27
 3936 02ef 19       		.uleb128 0x19
 3937 02f0 11       		.uleb128 0x11
 3938 02f1 01       		.uleb128 0x1
 3939 02f2 12       		.uleb128 0x12
 3940 02f3 06       		.uleb128 0x6
 3941 02f4 40       		.uleb128 0x40
 3942 02f5 18       		.uleb128 0x18
 3943 02f6 9742     		.uleb128 0x2117
 3944 02f8 19       		.uleb128 0x19
 3945 02f9 01       		.uleb128 0x1
 3946 02fa 13       		.uleb128 0x13
 3947 02fb 00       		.byte	0
 3948 02fc 00       		.byte	0
 3949 02fd 39       		.uleb128 0x39
 3950 02fe 34       		.uleb128 0x34
 3951 02ff 00       		.byte	0
 3952 0300 03       		.uleb128 0x3
 3953 0301 0E       		.uleb128 0xe
 3954 0302 3A       		.uleb128 0x3a
 3955 0303 0B       		.uleb128 0xb
 3956 0304 3B       		.uleb128 0x3b
 3957 0305 05       		.uleb128 0x5
 3958 0306 49       		.uleb128 0x49
 3959 0307 13       		.uleb128 0x13
 3960 0308 3F       		.uleb128 0x3f
 3961 0309 19       		.uleb128 0x19
 3962 030a 3C       		.uleb128 0x3c
 3963 030b 19       		.uleb128 0x19
 3964 030c 00       		.byte	0
 3965 030d 00       		.byte	0
 3966 030e 3A       		.uleb128 0x3a
 3967 030f 34       		.uleb128 0x34
 3968 0310 00       		.byte	0
 3969 0311 03       		.uleb128 0x3
 3970 0312 08       		.uleb128 0x8
 3971 0313 3A       		.uleb128 0x3a
 3972 0314 0B       		.uleb128 0xb
 3973 0315 3B       		.uleb128 0x3b
 3974 0316 05       		.uleb128 0x5
 3975 0317 49       		.uleb128 0x49
 3976 0318 13       		.uleb128 0x13
 3977 0319 3F       		.uleb128 0x3f
 3978 031a 19       		.uleb128 0x19
 3979 031b 3C       		.uleb128 0x3c
 3980 031c 19       		.uleb128 0x19
 3981 031d 00       		.byte	0
 3982 031e 00       		.byte	0
 3983 031f 3B       		.uleb128 0x3b
 3984 0320 2E       		.uleb128 0x2e
 3985 0321 00       		.byte	0
 3986 0322 3F       		.uleb128 0x3f
 3987 0323 19       		.uleb128 0x19
 3988 0324 03       		.uleb128 0x3
 3989 0325 0E       		.uleb128 0xe
 3990 0326 3A       		.uleb128 0x3a
ARM GAS  /tmp/ccPDl681.s 			page 71


 3991 0327 0B       		.uleb128 0xb
 3992 0328 3B       		.uleb128 0x3b
 3993 0329 05       		.uleb128 0x5
 3994 032a 27       		.uleb128 0x27
 3995 032b 19       		.uleb128 0x19
 3996 032c 3C       		.uleb128 0x3c
 3997 032d 19       		.uleb128 0x19
 3998 032e 00       		.byte	0
 3999 032f 00       		.byte	0
 4000 0330 3C       		.uleb128 0x3c
 4001 0331 2E       		.uleb128 0x2e
 4002 0332 01       		.byte	0x1
 4003 0333 3F       		.uleb128 0x3f
 4004 0334 19       		.uleb128 0x19
 4005 0335 03       		.uleb128 0x3
 4006 0336 0E       		.uleb128 0xe
 4007 0337 3A       		.uleb128 0x3a
 4008 0338 0B       		.uleb128 0xb
 4009 0339 3B       		.uleb128 0x3b
 4010 033a 0B       		.uleb128 0xb
 4011 033b 27       		.uleb128 0x27
 4012 033c 19       		.uleb128 0x19
 4013 033d 3C       		.uleb128 0x3c
 4014 033e 19       		.uleb128 0x19
 4015 033f 01       		.uleb128 0x1
 4016 0340 13       		.uleb128 0x13
 4017 0341 00       		.byte	0
 4018 0342 00       		.byte	0
 4019 0343 3D       		.uleb128 0x3d
 4020 0344 2E       		.uleb128 0x2e
 4021 0345 01       		.byte	0x1
 4022 0346 3F       		.uleb128 0x3f
 4023 0347 19       		.uleb128 0x19
 4024 0348 03       		.uleb128 0x3
 4025 0349 0E       		.uleb128 0xe
 4026 034a 3A       		.uleb128 0x3a
 4027 034b 0B       		.uleb128 0xb
 4028 034c 3B       		.uleb128 0x3b
 4029 034d 05       		.uleb128 0x5
 4030 034e 27       		.uleb128 0x27
 4031 034f 19       		.uleb128 0x19
 4032 0350 3C       		.uleb128 0x3c
 4033 0351 19       		.uleb128 0x19
 4034 0352 01       		.uleb128 0x1
 4035 0353 13       		.uleb128 0x13
 4036 0354 00       		.byte	0
 4037 0355 00       		.byte	0
 4038 0356 3E       		.uleb128 0x3e
 4039 0357 2E       		.uleb128 0x2e
 4040 0358 01       		.byte	0x1
 4041 0359 3F       		.uleb128 0x3f
 4042 035a 19       		.uleb128 0x19
 4043 035b 03       		.uleb128 0x3
 4044 035c 0E       		.uleb128 0xe
 4045 035d 3A       		.uleb128 0x3a
 4046 035e 0B       		.uleb128 0xb
 4047 035f 3B       		.uleb128 0x3b
ARM GAS  /tmp/ccPDl681.s 			page 72


 4048 0360 0B       		.uleb128 0xb
 4049 0361 27       		.uleb128 0x27
 4050 0362 19       		.uleb128 0x19
 4051 0363 49       		.uleb128 0x49
 4052 0364 13       		.uleb128 0x13
 4053 0365 3C       		.uleb128 0x3c
 4054 0366 19       		.uleb128 0x19
 4055 0367 01       		.uleb128 0x1
 4056 0368 13       		.uleb128 0x13
 4057 0369 00       		.byte	0
 4058 036a 00       		.byte	0
 4059 036b 3F       		.uleb128 0x3f
 4060 036c 2E       		.uleb128 0x2e
 4061 036d 01       		.byte	0x1
 4062 036e 3F       		.uleb128 0x3f
 4063 036f 19       		.uleb128 0x19
 4064 0370 03       		.uleb128 0x3
 4065 0371 0E       		.uleb128 0xe
 4066 0372 3A       		.uleb128 0x3a
 4067 0373 0B       		.uleb128 0xb
 4068 0374 3B       		.uleb128 0x3b
 4069 0375 0B       		.uleb128 0xb
 4070 0376 27       		.uleb128 0x27
 4071 0377 19       		.uleb128 0x19
 4072 0378 3C       		.uleb128 0x3c
 4073 0379 19       		.uleb128 0x19
 4074 037a 00       		.byte	0
 4075 037b 00       		.byte	0
 4076 037c 00       		.byte	0
 4077              		.section	.debug_loc,"",%progbits
 4078              	.Ldebug_loc0:
 4079              	.LLST0:
 4080 0000 00000000 		.4byte	.LVL1
 4081 0004 12000000 		.4byte	.LVL3
 4082 0008 0100     		.2byte	0x1
 4083 000a 50       		.byte	0x50
 4084 000b 12000000 		.4byte	.LVL3
 4085 000f 15000000 		.4byte	.LVL4-1
 4086 0013 0300     		.2byte	0x3
 4087 0015 70       		.byte	0x70
 4088 0016 68       		.sleb128 -24
 4089 0017 9F       		.byte	0x9f
 4090 0018 15000000 		.4byte	.LVL4-1
 4091 001c 16000000 		.4byte	.LFE257
 4092 0020 0400     		.2byte	0x4
 4093 0022 F3       		.byte	0xf3
 4094 0023 01       		.uleb128 0x1
 4095 0024 50       		.byte	0x50
 4096 0025 9F       		.byte	0x9f
 4097 0026 00000000 		.4byte	0
 4098 002a 00000000 		.4byte	0
 4099              	.LLST1:
 4100 002e 10000000 		.4byte	.LVL2
 4101 0032 12000000 		.4byte	.LVL3
 4102 0036 0300     		.2byte	0x3
 4103 0038 70       		.byte	0x70
 4104 0039 18       		.sleb128 24
ARM GAS  /tmp/ccPDl681.s 			page 73


 4105 003a 9F       		.byte	0x9f
 4106 003b 12000000 		.4byte	.LVL3
 4107 003f 15000000 		.4byte	.LVL4-1
 4108 0043 0100     		.2byte	0x1
 4109 0045 50       		.byte	0x50
 4110 0046 15000000 		.4byte	.LVL4-1
 4111 004a 16000000 		.4byte	.LFE257
 4112 004e 0600     		.2byte	0x6
 4113 0050 F3       		.byte	0xf3
 4114 0051 01       		.uleb128 0x1
 4115 0052 50       		.byte	0x50
 4116 0053 23       		.byte	0x23
 4117 0054 18       		.uleb128 0x18
 4118 0055 9F       		.byte	0x9f
 4119 0056 00000000 		.4byte	0
 4120 005a 00000000 		.4byte	0
 4121              	.LLST2:
 4122 005e 00000000 		.4byte	.LVL5
 4123 0062 0B000000 		.4byte	.LVL6-1
 4124 0066 0100     		.2byte	0x1
 4125 0068 50       		.byte	0x50
 4126 0069 0B000000 		.4byte	.LVL6-1
 4127 006d 14000000 		.4byte	.LFE258
 4128 0071 0100     		.2byte	0x1
 4129 0073 54       		.byte	0x54
 4130 0074 00000000 		.4byte	0
 4131 0078 00000000 		.4byte	0
 4132              	.LLST3:
 4133 007c 00000000 		.4byte	.LVL5
 4134 0080 0B000000 		.4byte	.LVL6-1
 4135 0084 0100     		.2byte	0x1
 4136 0086 51       		.byte	0x51
 4137 0087 0B000000 		.4byte	.LVL6-1
 4138 008b 14000000 		.4byte	.LFE258
 4139 008f 0400     		.2byte	0x4
 4140 0091 F3       		.byte	0xf3
 4141 0092 01       		.uleb128 0x1
 4142 0093 51       		.byte	0x51
 4143 0094 9F       		.byte	0x9f
 4144 0095 00000000 		.4byte	0
 4145 0099 00000000 		.4byte	0
 4146              	.LLST4:
 4147 009d 00000000 		.4byte	.LVL7
 4148 00a1 09000000 		.4byte	.LVL8-1
 4149 00a5 0100     		.2byte	0x1
 4150 00a7 50       		.byte	0x50
 4151 00a8 09000000 		.4byte	.LVL8-1
 4152 00ac 12000000 		.4byte	.LFE259
 4153 00b0 0100     		.2byte	0x1
 4154 00b2 54       		.byte	0x54
 4155 00b3 00000000 		.4byte	0
 4156 00b7 00000000 		.4byte	0
 4157              	.LLST5:
 4158 00bb 00000000 		.4byte	.LVL9
 4159 00bf 11000000 		.4byte	.LVL11-1
 4160 00c3 0100     		.2byte	0x1
 4161 00c5 50       		.byte	0x50
ARM GAS  /tmp/ccPDl681.s 			page 74


 4162 00c6 11000000 		.4byte	.LVL11-1
 4163 00ca 16000000 		.4byte	.LFE260
 4164 00ce 0400     		.2byte	0x4
 4165 00d0 F3       		.byte	0xf3
 4166 00d1 01       		.uleb128 0x1
 4167 00d2 50       		.byte	0x50
 4168 00d3 9F       		.byte	0x9f
 4169 00d4 00000000 		.4byte	0
 4170 00d8 00000000 		.4byte	0
 4171              	.LLST6:
 4172 00dc 00000000 		.4byte	.LVL9
 4173 00e0 11000000 		.4byte	.LVL11-1
 4174 00e4 0100     		.2byte	0x1
 4175 00e6 51       		.byte	0x51
 4176 00e7 11000000 		.4byte	.LVL11-1
 4177 00eb 16000000 		.4byte	.LFE260
 4178 00ef 0400     		.2byte	0x4
 4179 00f1 F3       		.byte	0xf3
 4180 00f2 01       		.uleb128 0x1
 4181 00f3 51       		.byte	0x51
 4182 00f4 9F       		.byte	0x9f
 4183 00f5 00000000 		.4byte	0
 4184 00f9 00000000 		.4byte	0
 4185              	.LLST7:
 4186 00fd 00000000 		.4byte	.LVL9
 4187 0101 11000000 		.4byte	.LVL11-1
 4188 0105 0100     		.2byte	0x1
 4189 0107 52       		.byte	0x52
 4190 0108 11000000 		.4byte	.LVL11-1
 4191 010c 16000000 		.4byte	.LFE260
 4192 0110 0400     		.2byte	0x4
 4193 0112 F3       		.byte	0xf3
 4194 0113 01       		.uleb128 0x1
 4195 0114 52       		.byte	0x52
 4196 0115 9F       		.byte	0x9f
 4197 0116 00000000 		.4byte	0
 4198 011a 00000000 		.4byte	0
 4199              	.LLST8:
 4200 011e 00000000 		.4byte	.LVL9
 4201 0122 11000000 		.4byte	.LVL11-1
 4202 0126 0100     		.2byte	0x1
 4203 0128 53       		.byte	0x53
 4204 0129 11000000 		.4byte	.LVL11-1
 4205 012d 16000000 		.4byte	.LFE260
 4206 0131 0400     		.2byte	0x4
 4207 0133 F3       		.byte	0xf3
 4208 0134 01       		.uleb128 0x1
 4209 0135 53       		.byte	0x53
 4210 0136 9F       		.byte	0x9f
 4211 0137 00000000 		.4byte	0
 4212 013b 00000000 		.4byte	0
 4213              	.LLST9:
 4214 013f 04000000 		.4byte	.LVL10
 4215 0143 11000000 		.4byte	.LVL11-1
 4216 0147 0100     		.2byte	0x1
 4217 0149 53       		.byte	0x53
 4218 014a 11000000 		.4byte	.LVL11-1
ARM GAS  /tmp/ccPDl681.s 			page 75


 4219 014e 16000000 		.4byte	.LFE260
 4220 0152 0400     		.2byte	0x4
 4221 0154 F3       		.byte	0xf3
 4222 0155 01       		.uleb128 0x1
 4223 0156 53       		.byte	0x53
 4224 0157 9F       		.byte	0x9f
 4225 0158 00000000 		.4byte	0
 4226 015c 00000000 		.4byte	0
 4227              	.LLST10:
 4228 0160 04000000 		.4byte	.LVL10
 4229 0164 11000000 		.4byte	.LVL11-1
 4230 0168 0100     		.2byte	0x1
 4231 016a 52       		.byte	0x52
 4232 016b 11000000 		.4byte	.LVL11-1
 4233 016f 16000000 		.4byte	.LFE260
 4234 0173 0400     		.2byte	0x4
 4235 0175 F3       		.byte	0xf3
 4236 0176 01       		.uleb128 0x1
 4237 0177 52       		.byte	0x52
 4238 0178 9F       		.byte	0x9f
 4239 0179 00000000 		.4byte	0
 4240 017d 00000000 		.4byte	0
 4241              	.LLST11:
 4242 0181 04000000 		.4byte	.LVL10
 4243 0185 11000000 		.4byte	.LVL11-1
 4244 0189 0100     		.2byte	0x1
 4245 018b 51       		.byte	0x51
 4246 018c 11000000 		.4byte	.LVL11-1
 4247 0190 16000000 		.4byte	.LFE260
 4248 0194 0400     		.2byte	0x4
 4249 0196 F3       		.byte	0xf3
 4250 0197 01       		.uleb128 0x1
 4251 0198 51       		.byte	0x51
 4252 0199 9F       		.byte	0x9f
 4253 019a 00000000 		.4byte	0
 4254 019e 00000000 		.4byte	0
 4255              	.LLST12:
 4256 01a2 04000000 		.4byte	.LVL10
 4257 01a6 11000000 		.4byte	.LVL11-1
 4258 01aa 0100     		.2byte	0x1
 4259 01ac 50       		.byte	0x50
 4260 01ad 11000000 		.4byte	.LVL11-1
 4261 01b1 16000000 		.4byte	.LFE260
 4262 01b5 0400     		.2byte	0x4
 4263 01b7 F3       		.byte	0xf3
 4264 01b8 01       		.uleb128 0x1
 4265 01b9 50       		.byte	0x50
 4266 01ba 9F       		.byte	0x9f
 4267 01bb 00000000 		.4byte	0
 4268 01bf 00000000 		.4byte	0
 4269              	.LLST13:
 4270 01c3 00000000 		.4byte	.LVL12
 4271 01c7 11000000 		.4byte	.LVL13-1
 4272 01cb 0100     		.2byte	0x1
 4273 01cd 50       		.byte	0x50
 4274 01ce 11000000 		.4byte	.LVL13-1
 4275 01d2 12000000 		.4byte	.LFE261
ARM GAS  /tmp/ccPDl681.s 			page 76


 4276 01d6 0400     		.2byte	0x4
 4277 01d8 F3       		.byte	0xf3
 4278 01d9 01       		.uleb128 0x1
 4279 01da 50       		.byte	0x50
 4280 01db 9F       		.byte	0x9f
 4281 01dc 00000000 		.4byte	0
 4282 01e0 00000000 		.4byte	0
 4283              	.LLST14:
 4284 01e4 00000000 		.4byte	.LVL12
 4285 01e8 11000000 		.4byte	.LVL13-1
 4286 01ec 0100     		.2byte	0x1
 4287 01ee 51       		.byte	0x51
 4288 01ef 11000000 		.4byte	.LVL13-1
 4289 01f3 12000000 		.4byte	.LFE261
 4290 01f7 0400     		.2byte	0x4
 4291 01f9 F3       		.byte	0xf3
 4292 01fa 01       		.uleb128 0x1
 4293 01fb 51       		.byte	0x51
 4294 01fc 9F       		.byte	0x9f
 4295 01fd 00000000 		.4byte	0
 4296 0201 00000000 		.4byte	0
 4297              	.LLST15:
 4298 0205 00000000 		.4byte	.LVL12
 4299 0209 11000000 		.4byte	.LVL13-1
 4300 020d 0100     		.2byte	0x1
 4301 020f 52       		.byte	0x52
 4302 0210 11000000 		.4byte	.LVL13-1
 4303 0214 12000000 		.4byte	.LFE261
 4304 0218 0400     		.2byte	0x4
 4305 021a F3       		.byte	0xf3
 4306 021b 01       		.uleb128 0x1
 4307 021c 52       		.byte	0x52
 4308 021d 9F       		.byte	0x9f
 4309 021e 00000000 		.4byte	0
 4310 0222 00000000 		.4byte	0
 4311              	.LLST16:
 4312 0226 00000000 		.4byte	.LVL12
 4313 022a 11000000 		.4byte	.LVL13-1
 4314 022e 0100     		.2byte	0x1
 4315 0230 53       		.byte	0x53
 4316 0231 11000000 		.4byte	.LVL13-1
 4317 0235 12000000 		.4byte	.LFE261
 4318 0239 0400     		.2byte	0x4
 4319 023b F3       		.byte	0xf3
 4320 023c 01       		.uleb128 0x1
 4321 023d 53       		.byte	0x53
 4322 023e 9F       		.byte	0x9f
 4323 023f 00000000 		.4byte	0
 4324 0243 00000000 		.4byte	0
 4325              	.LLST17:
 4326 0247 00000000 		.4byte	.LVL14
 4327 024b 0F000000 		.4byte	.LVL15-1
 4328 024f 0100     		.2byte	0x1
 4329 0251 50       		.byte	0x50
 4330 0252 0F000000 		.4byte	.LVL15-1
 4331 0256 28000000 		.4byte	.LVL18
 4332 025a 0100     		.2byte	0x1
ARM GAS  /tmp/ccPDl681.s 			page 77


 4333 025c 54       		.byte	0x54
 4334 025d 28000000 		.4byte	.LVL18
 4335 0261 2C000000 		.4byte	.LFE262
 4336 0265 0100     		.2byte	0x1
 4337 0267 50       		.byte	0x50
 4338 0268 00000000 		.4byte	0
 4339 026c 00000000 		.4byte	0
 4340              	.LLST18:
 4341 0270 20000000 		.4byte	.LVL16
 4342 0274 28000000 		.4byte	.LVL18
 4343 0278 0300     		.2byte	0x3
 4344 027a 09       		.byte	0x9
 4345 027b FE       		.byte	0xfe
 4346 027c 9F       		.byte	0x9f
 4347 027d 00000000 		.4byte	0
 4348 0281 00000000 		.4byte	0
 4349              	.LLST19:
 4350 0285 20000000 		.4byte	.LVL16
 4351 0289 28000000 		.4byte	.LVL18
 4352 028d 0300     		.2byte	0x3
 4353 028f 74       		.byte	0x74
 4354 0290 14       		.sleb128 20
 4355 0291 9F       		.byte	0x9f
 4356 0292 00000000 		.4byte	0
 4357 0296 00000000 		.4byte	0
 4358              	.LLST20:
 4359 029a 00000000 		.4byte	.LVL19
 4360 029e 0D000000 		.4byte	.LVL20-1
 4361 02a2 0100     		.2byte	0x1
 4362 02a4 50       		.byte	0x50
 4363 02a5 0D000000 		.4byte	.LVL20-1
 4364 02a9 22000000 		.4byte	.LVL22
 4365 02ad 0100     		.2byte	0x1
 4366 02af 54       		.byte	0x54
 4367 02b0 22000000 		.4byte	.LVL22
 4368 02b4 25000000 		.4byte	.LVL23-1
 4369 02b8 0300     		.2byte	0x3
 4370 02ba 70       		.byte	0x70
 4371 02bb 6C       		.sleb128 -20
 4372 02bc 9F       		.byte	0x9f
 4373 02bd 25000000 		.4byte	.LVL23-1
 4374 02c1 26000000 		.4byte	.LVL23
 4375 02c5 0400     		.2byte	0x4
 4376 02c7 F3       		.byte	0xf3
 4377 02c8 01       		.uleb128 0x1
 4378 02c9 50       		.byte	0x50
 4379 02ca 9F       		.byte	0x9f
 4380 02cb 26000000 		.4byte	.LVL23
 4381 02cf 28000000 		.4byte	.LFE263
 4382 02d3 0100     		.2byte	0x1
 4383 02d5 50       		.byte	0x50
 4384 02d6 00000000 		.4byte	0
 4385 02da 00000000 		.4byte	0
 4386              	.LLST21:
 4387 02de 1E000000 		.4byte	.LVL21
 4388 02e2 26000000 		.4byte	.LVL23
 4389 02e6 0300     		.2byte	0x3
ARM GAS  /tmp/ccPDl681.s 			page 78


 4390 02e8 09       		.byte	0x9
 4391 02e9 FE       		.byte	0xfe
 4392 02ea 9F       		.byte	0x9f
 4393 02eb 00000000 		.4byte	0
 4394 02ef 00000000 		.4byte	0
 4395              	.LLST22:
 4396 02f3 1E000000 		.4byte	.LVL21
 4397 02f7 22000000 		.4byte	.LVL22
 4398 02fb 0300     		.2byte	0x3
 4399 02fd 74       		.byte	0x74
 4400 02fe 14       		.sleb128 20
 4401 02ff 9F       		.byte	0x9f
 4402 0300 22000000 		.4byte	.LVL22
 4403 0304 25000000 		.4byte	.LVL23-1
 4404 0308 0100     		.2byte	0x1
 4405 030a 50       		.byte	0x50
 4406 030b 25000000 		.4byte	.LVL23-1
 4407 030f 26000000 		.4byte	.LVL23
 4408 0313 0600     		.2byte	0x6
 4409 0315 F3       		.byte	0xf3
 4410 0316 01       		.uleb128 0x1
 4411 0317 50       		.byte	0x50
 4412 0318 23       		.byte	0x23
 4413 0319 14       		.uleb128 0x14
 4414 031a 9F       		.byte	0x9f
 4415 031b 00000000 		.4byte	0
 4416 031f 00000000 		.4byte	0
 4417              	.LLST23:
 4418 0323 00000000 		.4byte	.LVL24
 4419 0327 15000000 		.4byte	.LVL26-1
 4420 032b 0100     		.2byte	0x1
 4421 032d 50       		.byte	0x50
 4422 032e 15000000 		.4byte	.LVL26-1
 4423 0332 20000000 		.4byte	.LFE264
 4424 0336 0300     		.2byte	0x3
 4425 0338 75       		.byte	0x75
 4426 0339 6C       		.sleb128 -20
 4427 033a 9F       		.byte	0x9f
 4428 033b 00000000 		.4byte	0
 4429 033f 00000000 		.4byte	0
 4430              	.LLST24:
 4431 0343 00000000 		.4byte	.LVL24
 4432 0347 15000000 		.4byte	.LVL26-1
 4433 034b 0100     		.2byte	0x1
 4434 034d 51       		.byte	0x51
 4435 034e 15000000 		.4byte	.LVL26-1
 4436 0352 20000000 		.4byte	.LFE264
 4437 0356 0400     		.2byte	0x4
 4438 0358 F3       		.byte	0xf3
 4439 0359 01       		.uleb128 0x1
 4440 035a 51       		.byte	0x51
 4441 035b 9F       		.byte	0x9f
 4442 035c 00000000 		.4byte	0
 4443 0360 00000000 		.4byte	0
 4444              	.LLST25:
 4445 0364 00000000 		.4byte	.LVL24
 4446 0368 15000000 		.4byte	.LVL26-1
ARM GAS  /tmp/ccPDl681.s 			page 79


 4447 036c 0100     		.2byte	0x1
 4448 036e 52       		.byte	0x52
 4449 036f 15000000 		.4byte	.LVL26-1
 4450 0373 20000000 		.4byte	.LFE264
 4451 0377 0400     		.2byte	0x4
 4452 0379 F3       		.byte	0xf3
 4453 037a 01       		.uleb128 0x1
 4454 037b 52       		.byte	0x52
 4455 037c 9F       		.byte	0x9f
 4456 037d 00000000 		.4byte	0
 4457 0381 00000000 		.4byte	0
 4458              	.LLST26:
 4459 0385 00000000 		.4byte	.LVL24
 4460 0389 15000000 		.4byte	.LVL26-1
 4461 038d 0100     		.2byte	0x1
 4462 038f 53       		.byte	0x53
 4463 0390 15000000 		.4byte	.LVL26-1
 4464 0394 20000000 		.4byte	.LFE264
 4465 0398 0400     		.2byte	0x4
 4466 039a F3       		.byte	0xf3
 4467 039b 01       		.uleb128 0x1
 4468 039c 53       		.byte	0x53
 4469 039d 9F       		.byte	0x9f
 4470 039e 00000000 		.4byte	0
 4471 03a2 00000000 		.4byte	0
 4472              	.LLST27:
 4473 03a6 04000000 		.4byte	.LVL25
 4474 03aa 15000000 		.4byte	.LVL26-1
 4475 03ae 0100     		.2byte	0x1
 4476 03b0 53       		.byte	0x53
 4477 03b1 15000000 		.4byte	.LVL26-1
 4478 03b5 20000000 		.4byte	.LFE264
 4479 03b9 0400     		.2byte	0x4
 4480 03bb F3       		.byte	0xf3
 4481 03bc 01       		.uleb128 0x1
 4482 03bd 53       		.byte	0x53
 4483 03be 9F       		.byte	0x9f
 4484 03bf 00000000 		.4byte	0
 4485 03c3 00000000 		.4byte	0
 4486              	.LLST28:
 4487 03c7 04000000 		.4byte	.LVL25
 4488 03cb 15000000 		.4byte	.LVL26-1
 4489 03cf 0100     		.2byte	0x1
 4490 03d1 52       		.byte	0x52
 4491 03d2 15000000 		.4byte	.LVL26-1
 4492 03d6 20000000 		.4byte	.LFE264
 4493 03da 0400     		.2byte	0x4
 4494 03dc F3       		.byte	0xf3
 4495 03dd 01       		.uleb128 0x1
 4496 03de 52       		.byte	0x52
 4497 03df 9F       		.byte	0x9f
 4498 03e0 00000000 		.4byte	0
 4499 03e4 00000000 		.4byte	0
 4500              	.LLST29:
 4501 03e8 04000000 		.4byte	.LVL25
 4502 03ec 15000000 		.4byte	.LVL26-1
 4503 03f0 0100     		.2byte	0x1
ARM GAS  /tmp/ccPDl681.s 			page 80


 4504 03f2 51       		.byte	0x51
 4505 03f3 15000000 		.4byte	.LVL26-1
 4506 03f7 20000000 		.4byte	.LFE264
 4507 03fb 0400     		.2byte	0x4
 4508 03fd F3       		.byte	0xf3
 4509 03fe 01       		.uleb128 0x1
 4510 03ff 51       		.byte	0x51
 4511 0400 9F       		.byte	0x9f
 4512 0401 00000000 		.4byte	0
 4513 0405 00000000 		.4byte	0
 4514              	.LLST30:
 4515 0409 04000000 		.4byte	.LVL25
 4516 040d 15000000 		.4byte	.LVL26-1
 4517 0411 0100     		.2byte	0x1
 4518 0413 50       		.byte	0x50
 4519 0414 15000000 		.4byte	.LVL26-1
 4520 0418 20000000 		.4byte	.LFE264
 4521 041c 0300     		.2byte	0x3
 4522 041e 75       		.byte	0x75
 4523 041f 6C       		.sleb128 -20
 4524 0420 9F       		.byte	0x9f
 4525 0421 00000000 		.4byte	0
 4526 0425 00000000 		.4byte	0
 4527              	.LLST31:
 4528 0429 00000000 		.4byte	.LVL28
 4529 042d 02000000 		.4byte	.LVL29
 4530 0431 0100     		.2byte	0x1
 4531 0433 50       		.byte	0x50
 4532 0434 02000000 		.4byte	.LVL29
 4533 0438 05000000 		.4byte	.LVL30-1
 4534 043c 0300     		.2byte	0x3
 4535 043e 70       		.byte	0x70
 4536 043f 68       		.sleb128 -24
 4537 0440 9F       		.byte	0x9f
 4538 0441 05000000 		.4byte	.LVL30-1
 4539 0445 06000000 		.4byte	.LFE265
 4540 0449 0400     		.2byte	0x4
 4541 044b F3       		.byte	0xf3
 4542 044c 01       		.uleb128 0x1
 4543 044d 50       		.byte	0x50
 4544 044e 9F       		.byte	0x9f
 4545 044f 00000000 		.4byte	0
 4546 0453 00000000 		.4byte	0
 4547              	.LLST32:
 4548 0457 00000000 		.4byte	.LVL28
 4549 045b 02000000 		.4byte	.LVL29
 4550 045f 0300     		.2byte	0x3
 4551 0461 70       		.byte	0x70
 4552 0462 18       		.sleb128 24
 4553 0463 9F       		.byte	0x9f
 4554 0464 02000000 		.4byte	.LVL29
 4555 0468 05000000 		.4byte	.LVL30-1
 4556 046c 0100     		.2byte	0x1
 4557 046e 50       		.byte	0x50
 4558 046f 05000000 		.4byte	.LVL30-1
 4559 0473 06000000 		.4byte	.LFE265
 4560 0477 0600     		.2byte	0x6
ARM GAS  /tmp/ccPDl681.s 			page 81


 4561 0479 F3       		.byte	0xf3
 4562 047a 01       		.uleb128 0x1
 4563 047b 50       		.byte	0x50
 4564 047c 23       		.byte	0x23
 4565 047d 18       		.uleb128 0x18
 4566 047e 9F       		.byte	0x9f
 4567 047f 00000000 		.4byte	0
 4568 0483 00000000 		.4byte	0
 4569              	.LLST33:
 4570 0487 00000000 		.4byte	.LVL31
 4571 048b 02000000 		.4byte	.LVL32
 4572 048f 0100     		.2byte	0x1
 4573 0491 50       		.byte	0x50
 4574 0492 02000000 		.4byte	.LVL32
 4575 0496 05000000 		.4byte	.LVL33-1
 4576 049a 0300     		.2byte	0x3
 4577 049c 70       		.byte	0x70
 4578 049d 68       		.sleb128 -24
 4579 049e 9F       		.byte	0x9f
 4580 049f 05000000 		.4byte	.LVL33-1
 4581 04a3 06000000 		.4byte	.LFE266
 4582 04a7 0400     		.2byte	0x4
 4583 04a9 F3       		.byte	0xf3
 4584 04aa 01       		.uleb128 0x1
 4585 04ab 50       		.byte	0x50
 4586 04ac 9F       		.byte	0x9f
 4587 04ad 00000000 		.4byte	0
 4588 04b1 00000000 		.4byte	0
 4589              	.LLST34:
 4590 04b5 00000000 		.4byte	.LVL31
 4591 04b9 02000000 		.4byte	.LVL32
 4592 04bd 0300     		.2byte	0x3
 4593 04bf 70       		.byte	0x70
 4594 04c0 18       		.sleb128 24
 4595 04c1 9F       		.byte	0x9f
 4596 04c2 02000000 		.4byte	.LVL32
 4597 04c6 05000000 		.4byte	.LVL33-1
 4598 04ca 0100     		.2byte	0x1
 4599 04cc 50       		.byte	0x50
 4600 04cd 05000000 		.4byte	.LVL33-1
 4601 04d1 06000000 		.4byte	.LFE266
 4602 04d5 0600     		.2byte	0x6
 4603 04d7 F3       		.byte	0xf3
 4604 04d8 01       		.uleb128 0x1
 4605 04d9 50       		.byte	0x50
 4606 04da 23       		.byte	0x23
 4607 04db 18       		.uleb128 0x18
 4608 04dc 9F       		.byte	0x9f
 4609 04dd 00000000 		.4byte	0
 4610 04e1 00000000 		.4byte	0
 4611              		.section	.debug_aranges,"",%progbits
 4612 0000 6C000000 		.4byte	0x6c
 4613 0004 0200     		.2byte	0x2
 4614 0006 00000000 		.4byte	.Ldebug_info0
 4615 000a 04       		.byte	0x4
 4616 000b 00       		.byte	0
 4617 000c 0000     		.2byte	0
ARM GAS  /tmp/ccPDl681.s 			page 82


 4618 000e 0000     		.2byte	0
 4619 0010 00000000 		.4byte	.LFB256
 4620 0014 04000000 		.4byte	.LFE256-.LFB256
 4621 0018 00000000 		.4byte	.LFB257
 4622 001c 16000000 		.4byte	.LFE257-.LFB257
 4623 0020 00000000 		.4byte	.LFB258
 4624 0024 14000000 		.4byte	.LFE258-.LFB258
 4625 0028 00000000 		.4byte	.LFB259
 4626 002c 12000000 		.4byte	.LFE259-.LFB259
 4627 0030 00000000 		.4byte	.LFB260
 4628 0034 16000000 		.4byte	.LFE260-.LFB260
 4629 0038 00000000 		.4byte	.LFB261
 4630 003c 12000000 		.4byte	.LFE261-.LFB261
 4631 0040 00000000 		.4byte	.LFB262
 4632 0044 2C000000 		.4byte	.LFE262-.LFB262
 4633 0048 00000000 		.4byte	.LFB263
 4634 004c 28000000 		.4byte	.LFE263-.LFB263
 4635 0050 00000000 		.4byte	.LFB264
 4636 0054 20000000 		.4byte	.LFE264-.LFB264
 4637 0058 00000000 		.4byte	.LFB265
 4638 005c 06000000 		.4byte	.LFE265-.LFB265
 4639 0060 00000000 		.4byte	.LFB266
 4640 0064 06000000 		.4byte	.LFE266-.LFB266
 4641 0068 00000000 		.4byte	0
 4642 006c 00000000 		.4byte	0
 4643              		.section	.debug_ranges,"",%progbits
 4644              	.Ldebug_ranges0:
 4645 0000 18000000 		.4byte	.LBB147
 4646 0004 1C000000 		.4byte	.LBE147
 4647 0008 20000000 		.4byte	.LBB150
 4648 000c 24000000 		.4byte	.LBE150
 4649 0010 00000000 		.4byte	0
 4650 0014 00000000 		.4byte	0
 4651 0018 16000000 		.4byte	.LBB157
 4652 001c 1A000000 		.4byte	.LBE157
 4653 0020 22000000 		.4byte	.LBB160
 4654 0024 28000000 		.4byte	.LBE160
 4655 0028 00000000 		.4byte	0
 4656 002c 00000000 		.4byte	0
 4657 0030 00000000 		.4byte	.LFB256
 4658 0034 04000000 		.4byte	.LFE256
 4659 0038 00000000 		.4byte	.LFB257
 4660 003c 16000000 		.4byte	.LFE257
 4661 0040 00000000 		.4byte	.LFB258
 4662 0044 14000000 		.4byte	.LFE258
 4663 0048 00000000 		.4byte	.LFB259
 4664 004c 12000000 		.4byte	.LFE259
 4665 0050 00000000 		.4byte	.LFB260
 4666 0054 16000000 		.4byte	.LFE260
 4667 0058 00000000 		.4byte	.LFB261
 4668 005c 12000000 		.4byte	.LFE261
 4669 0060 00000000 		.4byte	.LFB262
 4670 0064 2C000000 		.4byte	.LFE262
 4671 0068 00000000 		.4byte	.LFB263
 4672 006c 28000000 		.4byte	.LFE263
 4673 0070 00000000 		.4byte	.LFB264
 4674 0074 20000000 		.4byte	.LFE264
ARM GAS  /tmp/ccPDl681.s 			page 83


 4675 0078 00000000 		.4byte	.LFB265
 4676 007c 06000000 		.4byte	.LFE265
 4677 0080 00000000 		.4byte	.LFB266
 4678 0084 06000000 		.4byte	.LFE266
 4679 0088 00000000 		.4byte	0
 4680 008c 00000000 		.4byte	0
 4681              		.section	.debug_line,"",%progbits
 4682              	.Ldebug_line0:
 4683 0000 42040000 		.section	.debug_str,"MS",%progbits,1
 4683      0200BD02 
 4683      00000201 
 4683      FB0E0D00 
 4683      01010101 
 4684              	.LASF102:
 4685 0000 4D314152 		.ascii	"M1AR\000"
 4685      00
 4686              	.LASF131:
 4687 0005 73746D33 		.ascii	"stm32_dma_stream_t\000"
 4687      325F646D 
 4687      615F7374 
 4687      7265616D 
 4687      5F7400
 4688              	.LASF2:
 4689 0018 73697A65 		.ascii	"size_t\000"
 4689      5F7400
 4690              	.LASF163:
 4691 001f 73717231 		.ascii	"sqr1\000"
 4691      00
 4692              	.LASF164:
 4693 0024 73717232 		.ascii	"sqr2\000"
 4693      00
 4694              	.LASF84:
 4695 0029 73697A65 		.ascii	"sizetype\000"
 4695      74797065 
 4695      00
 4696              	.LASF196:
 4697 0032 6164635F 		.ascii	"adc_lld_start\000"
 4697      6C6C645F 
 4697      73746172 
 4697      7400
 4698              	.LASF114:
 4699 0040 77747365 		.ascii	"wtsemp\000"
 4699      6D7000
 4700              	.LASF29:
 4701 0047 73797374 		.ascii	"systime_t\000"
 4701      696D655F 
 4701      7400
 4702              	.LASF34:
 4703 0051 705F6374 		.ascii	"p_ctx\000"
 4703      7800
 4704              	.LASF25:
 4705 0057 74707269 		.ascii	"tprio_t\000"
 4705      6F5F7400 
 4706              	.LASF155:
 4707 005f 61646363 		.ascii	"adccallback_t\000"
 4707      616C6C62 
 4707      61636B5F 
ARM GAS  /tmp/ccPDl681.s 			page 84


 4707      7400
 4708              	.LASF91:
 4709 006d 53515231 		.ascii	"SQR1\000"
 4709      00
 4710              	.LASF92:
 4711 0072 53515232 		.ascii	"SQR2\000"
 4711      00
 4712              	.LASF93:
 4713 0077 53515233 		.ascii	"SQR3\000"
 4713      00
 4714              	.LASF44:
 4715 007c 705F6D73 		.ascii	"p_msgqueue\000"
 4715      67717565 
 4715      756500
 4716              	.LASF60:
 4717 0087 725F6374 		.ascii	"r_ctx\000"
 4717      7800
 4718              	.LASF17:
 4719 008d 696E7433 		.ascii	"int32_t\000"
 4719      325F7400 
 4720              	.LASF139:
 4721 0095 61646373 		.ascii	"adcstate_t\000"
 4721      74617465 
 4721      5F7400
 4722              	.LASF201:
 4723 00a0 63685468 		.ascii	"chThdResumeI\000"
 4723      64526573 
 4723      756D6549 
 4723      00
 4724              	.LASF64:
 4725 00ad 76746675 		.ascii	"vtfunc_t\000"
 4725      6E635F74 
 4725      00
 4726              	.LASF199:
 4727 00b6 63685468 		.ascii	"chThdResumeS\000"
 4727      64526573 
 4727      756D6553 
 4727      00
 4728              	.LASF73:
 4729 00c3 63685F76 		.ascii	"ch_virtual_timers_list\000"
 4729      69727475 
 4729      616C5F74 
 4729      696D6572 
 4729      735F6C69 
 4730              	.LASF179:
 4731 00da 5F5F6675 		.ascii	"__func__\000"
 4731      6E635F5F 
 4731      00
 4732              	.LASF206:
 4733 00e3 6F73616C 		.ascii	"osalThreadSuspendS\000"
 4733      54687265 
 4733      61645375 
 4733      7370656E 
 4733      645300
 4734              	.LASF147:
 4735 00f6 636F6E66 		.ascii	"config\000"
 4735      696700
ARM GAS  /tmp/ccPDl681.s 			page 85


 4736              	.LASF146:
 4737 00fd 73746174 		.ascii	"state\000"
 4737      6500
 4738              	.LASF160:
 4739 0103 6572726F 		.ascii	"error_cb\000"
 4739      725F6362 
 4739      00
 4740              	.LASF177:
 4741 010c 6F73616C 		.ascii	"osalSysUnlock\000"
 4741      53797355 
 4741      6E6C6F63 
 4741      6B00
 4742              	.LASF182:
 4743 011a 6F73616C 		.ascii	"osalThreadResumeI\000"
 4743      54687265 
 4743      61645265 
 4743      73756D65 
 4743      4900
 4744              	.LASF122:
 4745 012c 6D5F6F77 		.ascii	"m_owner\000"
 4745      6E657200 
 4746              	.LASF71:
 4747 0134 76745F70 		.ascii	"vt_par\000"
 4747      617200
 4748              	.LASF159:
 4749 013b 656E645F 		.ascii	"end_cb\000"
 4749      636200
 4750              	.LASF111:
 4751 0142 65786974 		.ascii	"exitcode\000"
 4751      636F6465 
 4751      00
 4752              	.LASF181:
 4753 014b 6F73616C 		.ascii	"osalThreadResumeS\000"
 4753      54687265 
 4753      61645265 
 4753      73756D65 
 4753      5300
 4754              	.LASF3:
 4755 015d 5F5F7569 		.ascii	"__uint8_t\000"
 4755      6E74385F 
 4755      7400
 4756              	.LASF116:
 4757 0167 65776D61 		.ascii	"ewmask\000"
 4757      736B00
 4758              	.LASF209:
 4759 016e 63685468 		.ascii	"chThdSuspendS\000"
 4759      64537573 
 4759      70656E64 
 4759      5300
 4760              	.LASF35:
 4761 017c 705F6E65 		.ascii	"p_newer\000"
 4761      77657200 
 4762              	.LASF9:
 4763 0184 6C6F6E67 		.ascii	"long int\000"
 4763      20696E74 
 4763      00
 4764              	.LASF31:
ARM GAS  /tmp/ccPDl681.s 			page 86


 4765 018d 705F6E65 		.ascii	"p_next\000"
 4765      787400
 4766              	.LASF172:
 4767 0194 706F7274 		.ascii	"port_unlock\000"
 4767      5F756E6C 
 4767      6F636B00 
 4768              	.LASF210:
 4769 01a0 63684D74 		.ascii	"chMtxUnlock\000"
 4769      78556E6C 
 4769      6F636B00 
 4770              	.LASF32:
 4771 01ac 705F7072 		.ascii	"p_prev\000"
 4771      657600
 4772              	.LASF22:
 4773 01b3 74737461 		.ascii	"tstate_t\000"
 4773      74655F74 
 4773      00
 4774              	.LASF54:
 4775 01bc 74687265 		.ascii	"threads_queue_t\000"
 4775      6164735F 
 4775      71756575 
 4775      655F7400 
 4776              	.LASF47:
 4777 01cc 705F6D74 		.ascii	"p_mtxlist\000"
 4777      786C6973 
 4777      7400
 4778              	.LASF104:
 4779 01d6 72656761 		.ascii	"regarm_t\000"
 4779      726D5F74 
 4779      00
 4780              	.LASF197:
 4781 01df 6164635F 		.ascii	"adc_lld_stop\000"
 4781      6C6C645F 
 4781      73746F70 
 4781      00
 4782              	.LASF176:
 4783 01ec 6F73616C 		.ascii	"osalSysLock\000"
 4783      5379734C 
 4783      6F636B00 
 4784              	.LASF203:
 4785 01f8 474E5520 		.ascii	"GNU C 4.9.3 20150529 (release) [ARM/embedded-4_9-br"
 4785      4320342E 
 4785      392E3320 
 4785      32303135 
 4785      30353239 
 4786 022b 616E6368 		.ascii	"anch revision 227977] -mcpu=cortex-m4 -mfloat-abi=h"
 4786      20726576 
 4786      6973696F 
 4786      6E203232 
 4786      37393737 
 4787 025e 61726420 		.ascii	"ard -mfpu=fpv4-sp-d16 -mno-thumb-interwork -mthumb "
 4787      2D6D6670 
 4787      753D6670 
 4787      76342D73 
 4787      702D6431 
 4788 0291 2D676764 		.ascii	"-ggdb -O2 -std=gnu99 -fomit-frame-pointer -falign-f"
 4788      62202D4F 
ARM GAS  /tmp/ccPDl681.s 			page 87


 4788      32202D73 
 4788      74643D67 
 4788      6E753939 
 4789 02c4 756E6374 		.ascii	"unctions=16 -ffunction-sections -fdata-sections -fn"
 4789      696F6E73 
 4789      3D313620 
 4789      2D666675 
 4789      6E637469 
 4790 02f7 6F2D636F 		.ascii	"o-common -fsingle-precision-constant\000"
 4790      6D6D6F6E 
 4790      202D6673 
 4790      696E676C 
 4790      652D7072 
 4791              	.LASF1:
 4792 031c 7369676E 		.ascii	"signed char\000"
 4792      65642063 
 4792      68617200 
 4793              	.LASF41:
 4794 0328 705F7072 		.ascii	"p_preempt\000"
 4794      65656D70 
 4794      7400
 4795              	.LASF15:
 4796 0332 75696E74 		.ascii	"uint8_t\000"
 4796      385F7400 
 4797              	.LASF27:
 4798 033a 6576656E 		.ascii	"eventmask_t\000"
 4798      746D6173 
 4798      6B5F7400 
 4799              	.LASF106:
 4800 0346 636F6E74 		.ascii	"context\000"
 4800      65787400 
 4801              	.LASF113:
 4802 034e 77747472 		.ascii	"wttrp\000"
 4802      7000
 4803              	.LASF4:
 4804 0354 756E7369 		.ascii	"unsigned char\000"
 4804      676E6564 
 4804      20636861 
 4804      7200
 4805              	.LASF77:
 4806 0362 70616E69 		.ascii	"panic_msg\000"
 4806      635F6D73 
 4806      6700
 4807              	.LASF144:
 4808 036c 61646365 		.ascii	"adcerror_t\000"
 4808      72726F72 
 4808      5F7400
 4809              	.LASF61:
 4810 0377 725F6E65 		.ascii	"r_newer\000"
 4810      77657200 
 4811              	.LASF75:
 4812 037f 73797374 		.ascii	"system_debug_t\000"
 4812      656D5F64 
 4812      65627567 
 4812      5F7400
 4813              	.LASF135:
 4814 038e 4144435F 		.ascii	"ADC_READY\000"
ARM GAS  /tmp/ccPDl681.s 			page 88


 4814      52454144 
 4814      5900
 4815              	.LASF132:
 4816 0398 5F426F6F 		.ascii	"_Bool\000"
 4816      6C00
 4817              	.LASF140:
 4818 039e 61646373 		.ascii	"adcsample_t\000"
 4818      616D706C 
 4818      655F7400 
 4819              	.LASF124:
 4820 03aa 63686172 		.ascii	"char\000"
 4820      00
 4821              	.LASF128:
 4822 03af 69736869 		.ascii	"ishift\000"
 4822      667400
 4823              	.LASF33:
 4824 03b6 705F7072 		.ascii	"p_prio\000"
 4824      696F00
 4825              	.LASF6:
 4826 03bd 5F5F7569 		.ascii	"__uint16_t\000"
 4826      6E743136 
 4826      5F7400
 4827              	.LASF112:
 4828 03c8 77746F62 		.ascii	"wtobjp\000"
 4828      6A7000
 4829              	.LASF138:
 4830 03cf 4144435F 		.ascii	"ADC_ERROR\000"
 4830      4552524F 
 4830      5200
 4831              	.LASF105:
 4832 03d9 73746B61 		.ascii	"stkalign_t\000"
 4832      6C69676E 
 4832      5F7400
 4833              	.LASF192:
 4834 03e4 61646341 		.ascii	"adcAcquireBus\000"
 4834      63717569 
 4834      72654275 
 4834      7300
 4835              	.LASF165:
 4836 03f2 73717233 		.ascii	"sqr3\000"
 4836      00
 4837              	.LASF157:
 4838 03f7 63697263 		.ascii	"circular\000"
 4838      756C6172 
 4838      00
 4839              	.LASF205:
 4840 0400 2F686F6D 		.ascii	"/home/benjamin/Skrivbord/SP-RCCar/Embedded/Mote/\000"
 4840      652F6265 
 4840      6E6A616D 
 4840      696E2F53 
 4840      6B726976 
 4841              	.LASF180:
 4842 0431 61646353 		.ascii	"adcStartConversionI\000"
 4842      74617274 
 4842      436F6E76 
 4842      65727369 
 4842      6F6E4900 
ARM GAS  /tmp/ccPDl681.s 			page 89


 4843              	.LASF142:
 4844 0445 4144435F 		.ascii	"ADC_ERR_DMAFAILURE\000"
 4844      4552525F 
 4844      444D4146 
 4844      41494C55 
 4844      524500
 4845              	.LASF126:
 4846 0458 73747265 		.ascii	"stream\000"
 4846      616D00
 4847              	.LASF170:
 4848 045f 5F5F656E 		.ascii	"__enable_irq\000"
 4848      61626C65 
 4848      5F697271 
 4848      00
 4849              	.LASF148:
 4850 046c 73616D70 		.ascii	"samples\000"
 4850      6C657300 
 4851              	.LASF28:
 4852 0474 636E745F 		.ascii	"cnt_t\000"
 4852      7400
 4853              	.LASF70:
 4854 047a 76745F66 		.ascii	"vt_func\000"
 4854      756E6300 
 4855              	.LASF185:
 4856 0482 61646349 		.ascii	"adcInit\000"
 4856      6E697400 
 4857              	.LASF99:
 4858 048a 4144435F 		.ascii	"ADC_TypeDef\000"
 4858      54797065 
 4858      44656600 
 4859              	.LASF204:
 4860 0496 43686962 		.ascii	"ChibiOS_3.0.2/os/hal/src/adc.c\000"
 4860      694F535F 
 4860      332E302E 
 4860      322F6F73 
 4860      2F68616C 
 4861              	.LASF46:
 4862 04b5 705F6570 		.ascii	"p_epending\000"
 4862      656E6469 
 4862      6E6700
 4863              	.LASF115:
 4864 04c0 77746D74 		.ascii	"wtmtxp\000"
 4864      787000
 4865              	.LASF57:
 4866 04c7 63685F72 		.ascii	"ch_ready_list\000"
 4866      65616479 
 4866      5F6C6973 
 4866      7400
 4867              	.LASF13:
 4868 04d5 5F5F7569 		.ascii	"__uint64_t\000"
 4868      6E743634 
 4868      5F7400
 4869              	.LASF174:
 4870 04e0 63685379 		.ascii	"chSysUnlock\000"
 4870      73556E6C 
 4870      6F636B00 
 4871              	.LASF11:
ARM GAS  /tmp/ccPDl681.s 			page 90


 4872 04ec 6C6F6E67 		.ascii	"long unsigned int\000"
 4872      20756E73 
 4872      69676E65 
 4872      6420696E 
 4872      7400
 4873              	.LASF173:
 4874 04fe 63685379 		.ascii	"chSysLock\000"
 4874      734C6F63 
 4874      6B00
 4875              	.LASF153:
 4876 0508 646D6173 		.ascii	"dmastp\000"
 4876      747000
 4877              	.LASF117:
 4878 050f 63685F73 		.ascii	"ch_semaphore\000"
 4878      656D6170 
 4878      686F7265 
 4878      00
 4879              	.LASF52:
 4880 051c 63685F74 		.ascii	"ch_thread\000"
 4880      68726561 
 4880      6400
 4881              	.LASF72:
 4882 0526 76697274 		.ascii	"virtual_timers_list_t\000"
 4882      75616C5F 
 4882      74696D65 
 4882      72735F6C 
 4882      6973745F 
 4883              	.LASF85:
 4884 053c 534D5052 		.ascii	"SMPR1\000"
 4884      3100
 4885              	.LASF86:
 4886 0542 534D5052 		.ascii	"SMPR2\000"
 4886      3200
 4887              	.LASF65:
 4888 0548 76697274 		.ascii	"virtual_timer_t\000"
 4888      75616C5F 
 4888      74696D65 
 4888      725F7400 
 4889              	.LASF56:
 4890 0558 72656164 		.ascii	"ready_list_t\000"
 4890      795F6C69 
 4890      73745F74 
 4890      00
 4891              	.LASF166:
 4892 0565 41444343 		.ascii	"ADCConversionGroup\000"
 4892      6F6E7665 
 4892      7273696F 
 4892      6E47726F 
 4892      757000
 4893              	.LASF137:
 4894 0578 4144435F 		.ascii	"ADC_COMPLETE\000"
 4894      434F4D50 
 4894      4C455445 
 4894      00
 4895              	.LASF53:
 4896 0585 63685F74 		.ascii	"ch_threads_list\000"
 4896      68726561 
ARM GAS  /tmp/ccPDl681.s 			page 91


 4896      64735F6C 
 4896      69737400 
 4897              	.LASF161:
 4898 0595 736D7072 		.ascii	"smpr1\000"
 4898      3100
 4899              	.LASF162:
 4900 059b 736D7072 		.ascii	"smpr2\000"
 4900      3200
 4901              	.LASF198:
 4902 05a1 6164635F 		.ascii	"adc_lld_start_conversion\000"
 4902      6C6C645F 
 4902      73746172 
 4902      745F636F 
 4902      6E766572 
 4903              	.LASF141:
 4904 05ba 6164635F 		.ascii	"adc_channels_num_t\000"
 4904      6368616E 
 4904      6E656C73 
 4904      5F6E756D 
 4904      5F7400
 4905              	.LASF184:
 4906 05cd 6F73616C 		.ascii	"osalMutexUnlock\000"
 4906      4D757465 
 4906      78556E6C 
 4906      6F636B00 
 4907              	.LASF10:
 4908 05dd 5F5F7569 		.ascii	"__uint32_t\000"
 4908      6E743332 
 4908      5F7400
 4909              	.LASF12:
 4910 05e8 6C6F6E67 		.ascii	"long long int\000"
 4910      206C6F6E 
 4910      6720696E 
 4910      7400
 4911              	.LASF121:
 4912 05f6 6D5F7175 		.ascii	"m_queue\000"
 4912      65756500 
 4913              	.LASF67:
 4914 05fe 76745F6E 		.ascii	"vt_next\000"
 4914      65787400 
 4915              	.LASF68:
 4916 0606 76745F70 		.ascii	"vt_prev\000"
 4916      72657600 
 4917              	.LASF178:
 4918 060e 61646370 		.ascii	"adcp\000"
 4918      00
 4919              	.LASF156:
 4920 0613 61646365 		.ascii	"adcerrorcallback_t\000"
 4920      72726F72 
 4920      63616C6C 
 4920      6261636B 
 4920      5F7400
 4921              	.LASF149:
 4922 0626 64657074 		.ascii	"depth\000"
 4922      6800
 4923              	.LASF202:
 4924 062c 63684D74 		.ascii	"chMtxLock\000"
ARM GAS  /tmp/ccPDl681.s 			page 92


 4924      784C6F63 
 4924      6B00
 4925              	.LASF152:
 4926 0636 6D757465 		.ascii	"mutex\000"
 4926      7800
 4927              	.LASF194:
 4928 063c 49544D5F 		.ascii	"ITM_RxBuffer\000"
 4928      52784275 
 4928      66666572 
 4928      00
 4929              	.LASF154:
 4930 0649 646D616D 		.ascii	"dmamode\000"
 4930      6F646500 
 4931              	.LASF43:
 4932 0651 705F7761 		.ascii	"p_waiting\000"
 4932      6974696E 
 4932      6700
 4933              	.LASF183:
 4934 065b 6F73616C 		.ascii	"osalMutexLock\000"
 4934      4D757465 
 4934      784C6F63 
 4934      6B00
 4935              	.LASF39:
 4936 0669 705F666C 		.ascii	"p_flags\000"
 4936      61677300 
 4937              	.LASF83:
 4938 0671 69646C65 		.ascii	"idle_thread_wa\000"
 4938      5F746872 
 4938      6561645F 
 4938      776100
 4939              	.LASF0:
 4940 0680 756E7369 		.ascii	"unsigned int\000"
 4940      676E6564 
 4940      20696E74 
 4940      00
 4941              	.LASF20:
 4942 068d 7274636E 		.ascii	"rtcnt_t\000"
 4942      745F7400 
 4943              	.LASF49:
 4944 0695 705F6D70 		.ascii	"p_mpool\000"
 4944      6F6F6C00 
 4945              	.LASF40:
 4946 069d 705F7265 		.ascii	"p_refs\000"
 4946      667300
 4947              	.LASF158:
 4948 06a4 6E756D5F 		.ascii	"num_channels\000"
 4948      6368616E 
 4948      6E656C73 
 4948      00
 4949              	.LASF108:
 4950 06b1 6F666673 		.ascii	"offset\000"
 4950      657400
 4951              	.LASF200:
 4952 06b8 6164635F 		.ascii	"adc_lld_stop_conversion\000"
 4952      6C6C645F 
 4952      73746F70 
 4952      5F636F6E 
ARM GAS  /tmp/ccPDl681.s 			page 93


 4952      76657273 
 4953              	.LASF103:
 4954 06d0 444D415F 		.ascii	"DMA_Stream_TypeDef\000"
 4954      53747265 
 4954      616D5F54 
 4954      79706544 
 4954      656600
 4955              	.LASF42:
 4956 06e3 705F7469 		.ascii	"p_time\000"
 4956      6D6500
 4957              	.LASF30:
 4958 06ea 74687265 		.ascii	"thread_t\000"
 4958      61645F74 
 4958      00
 4959              	.LASF50:
 4960 06f3 74687265 		.ascii	"thread_reference_t\000"
 4960      61645F72 
 4960      65666572 
 4960      656E6365 
 4960      5F7400
 4961              	.LASF48:
 4962 0706 705F7265 		.ascii	"p_realprio\000"
 4962      616C7072 
 4962      696F00
 4963              	.LASF107:
 4964 0711 706F7274 		.ascii	"port_intctx\000"
 4964      5F696E74 
 4964      63747800 
 4965              	.LASF136:
 4966 071d 4144435F 		.ascii	"ADC_ACTIVE\000"
 4966      41435449 
 4966      564500
 4967              	.LASF69:
 4968 0728 76745F64 		.ascii	"vt_delta\000"
 4968      656C7461 
 4968      00
 4969              	.LASF66:
 4970 0731 63685F76 		.ascii	"ch_virtual_timer\000"
 4970      69727475 
 4970      616C5F74 
 4970      696D6572 
 4970      00
 4971              	.LASF119:
 4972 0742 735F636E 		.ascii	"s_cnt\000"
 4972      7400
 4973              	.LASF129:
 4974 0748 73656C66 		.ascii	"selfindex\000"
 4974      696E6465 
 4974      7800
 4975              	.LASF193:
 4976 0752 61646352 		.ascii	"adcReleaseBus\000"
 4976      656C6561 
 4976      73654275 
 4976      7300
 4977              	.LASF14:
 4978 0760 6C6F6E67 		.ascii	"long long unsigned int\000"
 4978      206C6F6E 
ARM GAS  /tmp/ccPDl681.s 			page 94


 4978      6720756E 
 4978      7369676E 
 4978      65642069 
 4979              	.LASF36:
 4980 0777 705F6F6C 		.ascii	"p_older\000"
 4980      64657200 
 4981              	.LASF16:
 4982 077f 75696E74 		.ascii	"uint16_t\000"
 4982      31365F74 
 4982      00
 4983              	.LASF26:
 4984 0788 6D73675F 		.ascii	"msg_t\000"
 4984      7400
 4985              	.LASF55:
 4986 078e 63685F74 		.ascii	"ch_threads_queue\000"
 4986      68726561 
 4986      64735F71 
 4986      75657565 
 4986      00
 4987              	.LASF24:
 4988 079f 74736C69 		.ascii	"tslices_t\000"
 4988      6365735F 
 4988      7400
 4989              	.LASF63:
 4990 07a9 725F6375 		.ascii	"r_current\000"
 4990      7272656E 
 4990      7400
 4991              	.LASF145:
 4992 07b3 41444344 		.ascii	"ADCDriver\000"
 4992      72697665 
 4992      7200
 4993              	.LASF208:
 4994 07bd 6164635F 		.ascii	"adc_lld_init\000"
 4994      6C6C645F 
 4994      696E6974 
 4994      00
 4995              	.LASF130:
 4996 07ca 76656374 		.ascii	"vector\000"
 4996      6F7200
 4997              	.LASF191:
 4998 07d1 61646353 		.ascii	"adcStopConversionI\000"
 4998      746F7043 
 4998      6F6E7665 
 4998      7273696F 
 4998      6E4900
 4999              	.LASF143:
 5000 07e4 4144435F 		.ascii	"ADC_ERR_OVERFLOW\000"
 5000      4552525F 
 5000      4F564552 
 5000      464C4F57 
 5000      00
 5001              	.LASF82:
 5002 07f5 6D61696E 		.ascii	"mainthread\000"
 5002      74687265 
 5002      616400
 5003              	.LASF58:
 5004 0800 725F7175 		.ascii	"r_queue\000"
ARM GAS  /tmp/ccPDl681.s 			page 95


 5004      65756500 
 5005              	.LASF169:
 5006 0808 5F5F6469 		.ascii	"__disable_irq\000"
 5006      7361626C 
 5006      655F6972 
 5006      7100
 5007              	.LASF80:
 5008 0816 726C6973 		.ascii	"rlist\000"
 5008      7400
 5009              	.LASF21:
 5010 081c 746D6F64 		.ascii	"tmode_t\000"
 5010      655F7400 
 5011              	.LASF167:
 5012 0824 64756D6D 		.ascii	"dummy\000"
 5012      7900
 5013              	.LASF134:
 5014 082a 4144435F 		.ascii	"ADC_STOP\000"
 5014      53544F50 
 5014      00
 5015              	.LASF74:
 5016 0833 76745F73 		.ascii	"vt_systime\000"
 5016      79737469 
 5016      6D6500
 5017              	.LASF150:
 5018 083e 67727070 		.ascii	"grpp\000"
 5018      00
 5019              	.LASF62:
 5020 0843 725F6F6C 		.ascii	"r_older\000"
 5020      64657200 
 5021              	.LASF109:
 5022 084b 746D5F63 		.ascii	"tm_calibration_t\000"
 5022      616C6962 
 5022      72617469 
 5022      6F6E5F74 
 5022      00
 5023              	.LASF151:
 5024 085c 74687265 		.ascii	"thread\000"
 5024      616400
 5025              	.LASF101:
 5026 0863 4D304152 		.ascii	"M0AR\000"
 5026      00
 5027              	.LASF171:
 5028 0868 706F7274 		.ascii	"port_lock\000"
 5028      5F6C6F63 
 5028      6B00
 5029              	.LASF118:
 5030 0872 735F7175 		.ascii	"s_queue\000"
 5030      65756500 
 5031              	.LASF188:
 5032 087a 61646353 		.ascii	"adcStop\000"
 5032      746F7000 
 5033              	.LASF5:
 5034 0882 73686F72 		.ascii	"short int\000"
 5034      7420696E 
 5034      7400
 5035              	.LASF19:
 5036 088c 75696E74 		.ascii	"uint64_t\000"
ARM GAS  /tmp/ccPDl681.s 			page 96


 5036      36345F74 
 5036      00
 5037              	.LASF120:
 5038 0895 63685F6D 		.ascii	"ch_mutex\000"
 5038      75746578 
 5038      00
 5039              	.LASF87:
 5040 089e 4A4F4652 		.ascii	"JOFR1\000"
 5040      3100
 5041              	.LASF88:
 5042 08a4 4A4F4652 		.ascii	"JOFR2\000"
 5042      3200
 5043              	.LASF89:
 5044 08aa 4A4F4652 		.ascii	"JOFR3\000"
 5044      3300
 5045              	.LASF90:
 5046 08b0 4A4F4652 		.ascii	"JOFR4\000"
 5046      3400
 5047              	.LASF59:
 5048 08b6 725F7072 		.ascii	"r_prio\000"
 5048      696F00
 5049              	.LASF76:
 5050 08bd 63685F73 		.ascii	"ch_system_debug\000"
 5050      79737465 
 5050      6D5F6465 
 5050      62756700 
 5051              	.LASF186:
 5052 08cd 6164634F 		.ascii	"adcObjectInit\000"
 5052      626A6563 
 5052      74496E69 
 5052      7400
 5053              	.LASF95:
 5054 08db 4A445231 		.ascii	"JDR1\000"
 5054      00
 5055              	.LASF96:
 5056 08e0 4A445232 		.ascii	"JDR2\000"
 5056      00
 5057              	.LASF97:
 5058 08e5 4A445233 		.ascii	"JDR3\000"
 5058      00
 5059              	.LASF98:
 5060 08ea 4A445234 		.ascii	"JDR4\000"
 5060      00
 5061              	.LASF175:
 5062 08ef 6F73616C 		.ascii	"osalMutexObjectInit\000"
 5062      4D757465 
 5062      784F626A 
 5062      65637449 
 5062      6E697400 
 5063              	.LASF94:
 5064 0903 4A535152 		.ascii	"JSQR\000"
 5064      00
 5065              	.LASF81:
 5066 0908 76746C69 		.ascii	"vtlist\000"
 5066      737400
 5067              	.LASF190:
 5068 090f 61646353 		.ascii	"adcStopConversion\000"
ARM GAS  /tmp/ccPDl681.s 			page 97


 5068      746F7043 
 5068      6F6E7665 
 5068      7273696F 
 5068      6E00
 5069              	.LASF125:
 5070 0921 6D757465 		.ascii	"mutex_t\000"
 5070      785F7400 
 5071              	.LASF23:
 5072 0929 74726566 		.ascii	"trefs_t\000"
 5072      735F7400 
 5073              	.LASF207:
 5074 0931 61646343 		.ascii	"adcConvert\000"
 5074      6F6E7665 
 5074      727400
 5075              	.LASF51:
 5076 093c 74687265 		.ascii	"threads_list_t\000"
 5076      6164735F 
 5076      6C697374 
 5076      5F7400
 5077              	.LASF79:
 5078 094b 63685F73 		.ascii	"ch_system\000"
 5078      79737465 
 5078      6D00
 5079              	.LASF18:
 5080 0955 75696E74 		.ascii	"uint32_t\000"
 5080      33325F74 
 5080      00
 5081              	.LASF110:
 5082 095e 7264796D 		.ascii	"rdymsg\000"
 5082      736700
 5083              	.LASF7:
 5084 0965 73686F72 		.ascii	"short unsigned int\000"
 5084      7420756E 
 5084      7369676E 
 5084      65642069 
 5084      6E7400
 5085              	.LASF133:
 5086 0978 4144435F 		.ascii	"ADC_UNINIT\000"
 5086      554E494E 
 5086      495400
 5087              	.LASF78:
 5088 0983 63685F73 		.ascii	"ch_system_t\000"
 5088      79737465 
 5088      6D5F7400 
 5089              	.LASF187:
 5090 098f 61646353 		.ascii	"adcStart\000"
 5090      74617274 
 5090      00
 5091              	.LASF189:
 5092 0998 61646353 		.ascii	"adcStartConversion\000"
 5092      74617274 
 5092      436F6E76 
 5092      65727369 
 5092      6F6E00
 5093              	.LASF8:
 5094 09ab 5F5F696E 		.ascii	"__int32_t\000"
 5094      7433325F 
ARM GAS  /tmp/ccPDl681.s 			page 98


 5094      7400
 5095              	.LASF100:
 5096 09b5 4E445452 		.ascii	"NDTR\000"
 5096      00
 5097              	.LASF127:
 5098 09ba 69666372 		.ascii	"ifcr\000"
 5098      00
 5099              	.LASF195:
 5100 09bf 63684D74 		.ascii	"chMtxObjectInit\000"
 5100      784F626A 
 5100      65637449 
 5100      6E697400 
 5101              	.LASF37:
 5102 09cf 705F6E61 		.ascii	"p_name\000"
 5102      6D6500
 5103              	.LASF123:
 5104 09d6 6D5F6E65 		.ascii	"m_next\000"
 5104      787400
 5105              	.LASF45:
 5106 09dd 705F6D73 		.ascii	"p_msg\000"
 5106      6700
 5107              	.LASF168:
 5108 09e3 41444343 		.ascii	"ADCConfig\000"
 5108      6F6E6669 
 5108      6700
 5109              	.LASF38:
 5110 09ed 705F7374 		.ascii	"p_state\000"
 5110      61746500 
 5111              		.ident	"GCC: (GNU Tools for ARM Embedded Processors) 4.9.3 20150529 (release) [ARM/embedded-4_9-br
ARM GAS  /tmp/ccPDl681.s 			page 99


DEFINED SYMBOLS
                            *ABS*:0000000000000000 adc.c
     /tmp/ccPDl681.s:21     .text.adcInit:0000000000000000 $t
     /tmp/ccPDl681.s:27     .text.adcInit:0000000000000000 adcInit
     /tmp/ccPDl681.s:42     .text.adcObjectInit:0000000000000000 $t
     /tmp/ccPDl681.s:48     .text.adcObjectInit:0000000000000000 adcObjectInit
     /tmp/ccPDl681.s:86     .text.adcStart:0000000000000000 $t
     /tmp/ccPDl681.s:92     .text.adcStart:0000000000000000 adcStart
     /tmp/ccPDl681.s:151    .text.adcStop:0000000000000000 $t
     /tmp/ccPDl681.s:157    .text.adcStop:0000000000000000 adcStop
     /tmp/ccPDl681.s:213    .text.adcStartConversion:0000000000000000 $t
     /tmp/ccPDl681.s:219    .text.adcStartConversion:0000000000000000 adcStartConversion
     /tmp/ccPDl681.s:287    .text.adcStartConversionI:0000000000000000 $t
     /tmp/ccPDl681.s:293    .text.adcStartConversionI:0000000000000000 adcStartConversionI
     /tmp/ccPDl681.s:326    .text.adcStopConversion:0000000000000000 $t
     /tmp/ccPDl681.s:332    .text.adcStopConversion:0000000000000000 adcStopConversion
     /tmp/ccPDl681.s:423    .text.adcStopConversionI:0000000000000000 $t
     /tmp/ccPDl681.s:429    .text.adcStopConversionI:0000000000000000 adcStopConversionI
     /tmp/ccPDl681.s:485    .text.adcConvert:0000000000000000 $t
     /tmp/ccPDl681.s:491    .text.adcConvert:0000000000000000 adcConvert
     /tmp/ccPDl681.s:569    .text.adcAcquireBus:0000000000000000 $t
     /tmp/ccPDl681.s:575    .text.adcAcquireBus:0000000000000000 adcAcquireBus
     /tmp/ccPDl681.s:596    .text.adcReleaseBus:0000000000000000 $t
     /tmp/ccPDl681.s:602    .text.adcReleaseBus:0000000000000000 adcReleaseBus
                     .debug_frame:0000000000000010 $d

UNDEFINED SYMBOLS
adc_lld_init
chMtxObjectInit
adc_lld_start
adc_lld_stop
adc_lld_start_conversion
adc_lld_stop_conversion
chThdResumeS
chThdResumeI
chThdSuspendS
chMtxLock
chMtxUnlock
