ARM GAS  /tmp/ccCcZugi.s 			page 1


   1              		.syntax unified
   2              		.cpu cortex-m4
   3              		.eabi_attribute 27, 1
   4              		.eabi_attribute 28, 1
   5              		.fpu fpv4-sp-d16
   6              		.eabi_attribute 20, 1
   7              		.eabi_attribute 21, 1
   8              		.eabi_attribute 23, 3
   9              		.eabi_attribute 24, 1
  10              		.eabi_attribute 25, 1
  11              		.eabi_attribute 26, 1
  12              		.eabi_attribute 30, 2
  13              		.eabi_attribute 34, 1
  14              		.eabi_attribute 18, 4
  15              		.thumb
  16              		.file	"adc_lld.c"
  17              		.text
  18              	.Ltext0:
  19              		.cfi_sections	.debug_frame
  20              		.section	.text.adc_lld_init,"ax",%progbits
  21              		.align	2
  22              		.p2align 4,,15
  23              		.global	adc_lld_init
  24              		.thumb
  25              		.thumb_func
  26              		.type	adc_lld_init, %function
  27              	adc_lld_init:
  28              	.LFB258:
  29              		.file 1 "ChibiOS_3.0.2/os/hal/ports/STM32/STM32F4xx/adc_lld.c"
  30              		.loc 1 170 0
  31              		.cfi_startproc
  32              		@ args = 0, pretend = 0, frame = 0
  33              		@ frame_needed = 0, uses_anonymous_args = 0
  34 0000 10B5     		push	{r4, lr}
  35              		.cfi_def_cfa_offset 8
  36              		.cfi_offset 4, -8
  37              		.cfi_offset 14, -4
  38              		.loc 1 174 0
  39 0002 084C     		ldr	r4, .L3
  40 0004 2046     		mov	r0, r4
  41 0006 FFF7FEFF 		bl	adcObjectInit
  42              	.LVL0:
  43              		.loc 1 175 0
  44 000a 0749     		ldr	r1, .L3+4
  45              		.loc 1 176 0
  46 000c 074A     		ldr	r2, .L3+8
  47              		.loc 1 177 0
  48 000e 084B     		ldr	r3, .L3+12
  49              		.loc 1 175 0
  50 0010 A162     		str	r1, [r4, #40]
  51              		.loc 1 176 0
  52 0012 E262     		str	r2, [r4, #44]
  53              		.loc 1 177 0
  54 0014 2363     		str	r3, [r4, #48]
  55              		.loc 1 213 0
  56 0016 1220     		movs	r0, #18
  57 0018 0621     		movs	r1, #6
ARM GAS  /tmp/ccCcZugi.s 			page 2


  58              		.loc 1 214 0
  59 001a BDE81040 		pop	{r4, lr}
  60              		.cfi_restore 14
  61              		.cfi_restore 4
  62              		.cfi_def_cfa_offset 0
  63              		.loc 1 213 0
  64 001e FFF7FEBF 		b	nvicEnableVector
  65              	.LVL1:
  66              	.L4:
  67 0022 00BF     		.align	2
  68              	.L3:
  69 0024 00000000 		.word	.LANCHOR0
  70 0028 00200140 		.word	1073815552
  71 002c 90000000 		.word	_stm32_dma_streams+144
  72 0030 162C0200 		.word	142358
  73              		.cfi_endproc
  74              	.LFE258:
  75              		.size	adc_lld_init, .-adc_lld_init
  76              		.section	.text.adc_lld_start,"ax",%progbits
  77              		.align	2
  78              		.p2align 4,,15
  79              		.global	adc_lld_start
  80              		.thumb
  81              		.thumb_func
  82              		.type	adc_lld_start, %function
  83              	adc_lld_start:
  84              	.LFB259:
  85              		.loc 1 223 0
  86              		.cfi_startproc
  87              		@ args = 0, pretend = 0, frame = 0
  88              		@ frame_needed = 0, uses_anonymous_args = 0
  89              	.LVL2:
  90              		.loc 1 226 0
  91 0000 0378     		ldrb	r3, [r0]	@ zero_extendqisi2
  92 0002 012B     		cmp	r3, #1
  93 0004 00D0     		beq	.L11
  94 0006 7047     		bx	lr
  95              	.L11:
  96              		.loc 1 228 0
  97 0008 114B     		ldr	r3, .L13
  98 000a 9842     		cmp	r0, r3
  99              		.loc 1 223 0
 100 000c 10B5     		push	{r4, lr}
 101              		.cfi_def_cfa_offset 8
 102              		.cfi_offset 4, -8
 103              		.cfi_offset 14, -4
 104 000e 0446     		mov	r4, r0
 105              		.loc 1 228 0
 106 0010 0DD0     		beq	.L12
 107              	.LVL3:
 108              	.L7:
 109              		.loc 1 268 0
 110 0012 1048     		ldr	r0, .L13+4
 111              		.loc 1 273 0
 112 0014 A26A     		ldr	r2, [r4, #40]
 113              		.loc 1 268 0
 114 0016 4368     		ldr	r3, [r0, #4]
ARM GAS  /tmp/ccCcZugi.s 			page 3


 115 0018 03F44003 		and	r3, r3, #12582912
 116              		.loc 1 273 0
 117 001c 0021     		movs	r1, #0
 118              		.loc 1 268 0
 119 001e 43F48033 		orr	r3, r3, #65536
 120              		.loc 1 275 0
 121 0022 0124     		movs	r4, #1
 122              	.LVL4:
 123              		.loc 1 268 0
 124 0024 4360     		str	r3, [r0, #4]
 125              		.loc 1 273 0
 126 0026 5160     		str	r1, [r2, #4]
 127              		.loc 1 274 0
 128 0028 9160     		str	r1, [r2, #8]
 129              		.loc 1 275 0
 130 002a 9460     		str	r4, [r2, #8]
 131 002c 10BD     		pop	{r4, pc}
 132              	.LVL5:
 133              	.L12:
 134              	.LBB85:
 135              		.loc 1 230 0
 136 002e 0A4A     		ldr	r2, .L13+8
 137 0030 C06A     		ldr	r0, [r0, #44]
 138              	.LVL6:
 139 0032 0621     		movs	r1, #6
 140 0034 2346     		mov	r3, r4
 141 0036 FFF7FEFF 		bl	dmaStreamAllocate
 142              	.LVL7:
 143              		.loc 1 235 0
 144 003a E36A     		ldr	r3, [r4, #44]
 145              		.loc 1 236 0
 146 003c 074A     		ldr	r2, .L13+12
 147              		.loc 1 235 0
 148 003e 1B68     		ldr	r3, [r3]
 149 0040 0749     		ldr	r1, .L13+16
 150 0042 9960     		str	r1, [r3, #8]
 151              		.loc 1 236 0
 152 0044 536C     		ldr	r3, [r2, #68]
 153 0046 43F48073 		orr	r3, r3, #256
 154 004a 5364     		str	r3, [r2, #68]
 155 004c E1E7     		b	.L7
 156              	.L14:
 157 004e 00BF     		.align	2
 158              	.L13:
 159 0050 00000000 		.word	.LANCHOR0
 160 0054 00230140 		.word	1073816320
 161 0058 00000000 		.word	adc_lld_serve_rx_interrupt
 162 005c 00380240 		.word	1073887232
 163 0060 4C200140 		.word	1073815628
 164              	.LBE85:
 165              		.cfi_endproc
 166              	.LFE259:
 167              		.size	adc_lld_start, .-adc_lld_start
 168              		.section	.text.adc_lld_stop,"ax",%progbits
 169              		.align	2
 170              		.p2align 4,,15
 171              		.global	adc_lld_stop
ARM GAS  /tmp/ccCcZugi.s 			page 4


 172              		.thumb
 173              		.thumb_func
 174              		.type	adc_lld_stop, %function
 175              	adc_lld_stop:
 176              	.LFB260:
 177              		.loc 1 286 0
 178              		.cfi_startproc
 179              		@ args = 0, pretend = 0, frame = 0
 180              		@ frame_needed = 0, uses_anonymous_args = 0
 181              	.LVL8:
 182              		.loc 1 289 0
 183 0000 0378     		ldrb	r3, [r0]	@ zero_extendqisi2
 184 0002 022B     		cmp	r3, #2
 185 0004 00D0     		beq	.L21
 186 0006 7047     		bx	lr
 187              	.L21:
 188              		.loc 1 286 0
 189 0008 10B5     		push	{r4, lr}
 190              		.cfi_def_cfa_offset 8
 191              		.cfi_offset 4, -8
 192              		.cfi_offset 14, -4
 193 000a 0446     		mov	r4, r0
 194              		.loc 1 290 0
 195 000c C06A     		ldr	r0, [r0, #44]
 196              	.LVL9:
 197 000e FFF7FEFF 		bl	dmaStreamRelease
 198              	.LVL10:
 199              		.loc 1 295 0
 200 0012 0749     		ldr	r1, .L23
 201              		.loc 1 291 0
 202 0014 A36A     		ldr	r3, [r4, #40]
 203 0016 0022     		movs	r2, #0
 204              		.loc 1 295 0
 205 0018 8C42     		cmp	r4, r1
 206              		.loc 1 291 0
 207 001a 5A60     		str	r2, [r3, #4]
 208              		.loc 1 292 0
 209 001c 9A60     		str	r2, [r3, #8]
 210              		.loc 1 295 0
 211 001e 00D0     		beq	.L22
 212              	.L15:
 213 0020 10BD     		pop	{r4, pc}
 214              	.LVL11:
 215              	.L22:
 216              		.loc 1 296 0
 217 0022 044A     		ldr	r2, .L23+4
 218 0024 536C     		ldr	r3, [r2, #68]
 219 0026 23F48073 		bic	r3, r3, #256
 220 002a 5364     		str	r3, [r2, #68]
 221 002c F8E7     		b	.L15
 222              	.L24:
 223 002e 00BF     		.align	2
 224              	.L23:
 225 0030 00000000 		.word	.LANCHOR0
 226 0034 00380240 		.word	1073887232
 227              		.cfi_endproc
 228              	.LFE260:
ARM GAS  /tmp/ccCcZugi.s 			page 5


 229              		.size	adc_lld_stop, .-adc_lld_stop
 230              		.section	.text.adc_lld_start_conversion,"ax",%progbits
 231              		.align	2
 232              		.p2align 4,,15
 233              		.global	adc_lld_start_conversion
 234              		.thumb
 235              		.thumb_func
 236              		.type	adc_lld_start_conversion, %function
 237              	adc_lld_start_conversion:
 238              	.LFB261:
 239              		.loc 1 318 0
 240              		.cfi_startproc
 241              		@ args = 0, pretend = 0, frame = 0
 242              		@ frame_needed = 0, uses_anonymous_args = 0
 243              	.LVL12:
 244              		.loc 1 321 0
 245 0000 0369     		ldr	r3, [r0, #16]
 246              	.LVL13:
 247              		.loc 1 324 0
 248 0002 016B     		ldr	r1, [r0, #48]
 249              	.LVL14:
 250              		.loc 1 325 0
 251 0004 1A78     		ldrb	r2, [r3]	@ zero_extendqisi2
 252              		.loc 1 318 0
 253 0006 2DE9F043 		push	{r4, r5, r6, r7, r8, r9, lr}
 254              		.cfi_def_cfa_offset 28
 255              		.cfi_offset 4, -28
 256              		.cfi_offset 5, -24
 257              		.cfi_offset 6, -20
 258              		.cfi_offset 7, -16
 259              		.cfi_offset 8, -12
 260              		.cfi_offset 9, -8
 261              		.cfi_offset 14, -4
 262              		.loc 1 327 0
 263 000a C468     		ldr	r4, [r0, #12]
 264              		.loc 1 325 0
 265 000c 2AB1     		cbz	r2, .L27
 266              	.LVL15:
 267              		.loc 1 327 0
 268 000e 012C     		cmp	r4, #1
 269              		.loc 1 326 0
 270 0010 94BF     		ite	ls
 271 0012 41F48071 		orrls	r1, r1, #256
 272              	.LVL16:
 273              		.loc 1 330 0
 274 0016 41F48471 		orrhi	r1, r1, #264
 275              	.LVL17:
 276              	.L27:
 277              		.loc 1 333 0
 278 001a C56A     		ldr	r5, [r0, #44]
 279              		.loc 1 334 0
 280 001c 5A88     		ldrh	r2, [r3, #2]
 281              		.loc 1 333 0
 282 001e 2D68     		ldr	r5, [r5]
 283 0020 8668     		ldr	r6, [r0, #8]
 284 0022 EE60     		str	r6, [r5, #12]
 285              		.loc 1 334 0
ARM GAS  /tmp/ccCcZugi.s 			page 6


 286 0024 02FB04F2 		mul	r2, r2, r4
 287              		.loc 1 344 0
 288 0028 03F11808 		add	r8, r3, #24
 289              		.loc 1 334 0
 290 002c 6A60     		str	r2, [r5, #4]
 291              		.loc 1 348 0
 292 002e DC68     		ldr	r4, [r3, #12]
 293              		.loc 1 336 0
 294 0030 2960     		str	r1, [r5]
 295              		.loc 1 344 0
 296 0032 98E80051 		ldmia	r8, {r8, ip, lr}
 297              		.loc 1 337 0
 298 0036 2E68     		ldr	r6, [r5]
 299              		.loc 1 351 0
 300 0038 1969     		ldr	r1, [r3, #16]
 301              	.LVL18:
 302              		.loc 1 340 0
 303 003a 826A     		ldr	r2, [r0, #40]
 304              		.loc 1 341 0
 305 003c D3F81490 		ldr	r9, [r3, #20]
 306              		.loc 1 345 0
 307 0040 5F6A     		ldr	r7, [r3, #36]
 308              		.loc 1 348 0
 309 0042 44F08063 		orr	r3, r4, #67108864
 310              	.LVL19:
 311 0046 43F48073 		orr	r3, r3, #256
 312              		.loc 1 337 0
 313 004a 46F00100 		orr	r0, r6, #1
 314              	.LVL20:
 315              		.loc 1 340 0
 316 004e 0024     		movs	r4, #0
 317              		.loc 1 337 0
 318 0050 2860     		str	r0, [r5]
 319              	.LVL21:
 320              		.loc 1 340 0
 321 0052 1460     		str	r4, [r2]
 322              		.loc 1 341 0
 323 0054 C2F80C90 		str	r9, [r2, #12]
 324              		.loc 1 342 0
 325 0058 C2F81080 		str	r8, [r2, #16]
 326              		.loc 1 343 0
 327 005c C2F82CC0 		str	ip, [r2, #44]
 328              		.loc 1 344 0
 329 0060 C2F830E0 		str	lr, [r2, #48]
 330              		.loc 1 345 0
 331 0064 5763     		str	r7, [r2, #52]
 332              		.loc 1 348 0
 333 0066 5360     		str	r3, [r2, #4]
 334              		.loc 1 355 0
 335 0068 4B00     		lsls	r3, r1, #1
 336 006a 06D4     		bmi	.L32
 337              		.loc 1 351 0
 338 006c 41F44071 		orr	r1, r1, #768
 339              	.LVL22:
 340 0070 41F00101 		orr	r1, r1, #1
 341              		.loc 1 363 0
 342 0074 9160     		str	r1, [r2, #8]
ARM GAS  /tmp/ccCcZugi.s 			page 7


 343              	.LVL23:
 344 0076 BDE8F083 		pop	{r4, r5, r6, r7, r8, r9, pc}
 345              	.LVL24:
 346              	.L32:
 347              		.loc 1 357 0
 348 007a 21F08043 		bic	r3, r1, #1073741824
 349 007e 23F00203 		bic	r3, r3, #2
 350 0082 43F44073 		orr	r3, r3, #768
 351              		.loc 1 360 0
 352 0086 41F44071 		orr	r1, r1, #768
 353              	.LVL25:
 354              		.loc 1 357 0
 355 008a 43F00303 		orr	r3, r3, #3
 356              		.loc 1 360 0
 357 008e 41F00301 		orr	r1, r1, #3
 358              		.loc 1 357 0
 359 0092 9360     		str	r3, [r2, #8]
 360              		.loc 1 360 0
 361 0094 9160     		str	r1, [r2, #8]
 362              	.LVL26:
 363 0096 BDE8F083 		pop	{r4, r5, r6, r7, r8, r9, pc}
 364              		.cfi_endproc
 365              	.LFE261:
 366              		.size	adc_lld_start_conversion, .-adc_lld_start_conversion
 367 009a 00BF     		.section	.text.adc_lld_stop_conversion,"ax",%progbits
 368              		.align	2
 369              		.p2align 4,,15
 370              		.global	adc_lld_stop_conversion
 371              		.thumb
 372              		.thumb_func
 373              		.type	adc_lld_stop_conversion, %function
 374              	adc_lld_stop_conversion:
 375              	.LFB262:
 376              		.loc 1 373 0
 377              		.cfi_startproc
 378              		@ args = 0, pretend = 0, frame = 0
 379              		@ frame_needed = 0, uses_anonymous_args = 0
 380              		@ link register save eliminated.
 381              	.LVL27:
 382              		.loc 1 375 0
 383 0000 C16A     		ldr	r1, [r0, #44]
 384 0002 0A68     		ldr	r2, [r1]
 385 0004 1368     		ldr	r3, [r2]
 386 0006 23F01F03 		bic	r3, r3, #31
 387 000a 1360     		str	r3, [r2]
 388              	.L34:
 389              		.loc 1 375 0 is_stmt 0 discriminator 2
 390 000c 1368     		ldr	r3, [r2]
 391 000e 13F00103 		ands	r3, r3, #1
 392 0012 FBD1     		bne	.L34
 393              		.loc 1 373 0 is_stmt 1 discriminator 3
 394 0014 30B4     		push	{r4, r5}
 395              		.cfi_def_cfa_offset 8
 396              		.cfi_offset 4, -8
 397              		.cfi_offset 5, -4
 398              		.loc 1 375 0 discriminator 3
 399 0016 0D7A     		ldrb	r5, [r1, #8]	@ zero_extendqisi2
ARM GAS  /tmp/ccCcZugi.s 			page 8


 400 0018 4C68     		ldr	r4, [r1, #4]
 401              		.loc 1 376 0 discriminator 3
 402 001a 826A     		ldr	r2, [r0, #40]
 403              		.loc 1 375 0 discriminator 3
 404 001c 3D21     		movs	r1, #61
 405 001e A940     		lsls	r1, r1, r5
 406              		.loc 1 378 0 discriminator 3
 407 0020 0120     		movs	r0, #1
 408              	.LVL28:
 409              		.loc 1 375 0 discriminator 3
 410 0022 2160     		str	r1, [r4]
 411              		.loc 1 376 0 discriminator 3
 412 0024 5360     		str	r3, [r2, #4]
 413              		.loc 1 379 0 discriminator 3
 414 0026 30BC     		pop	{r4, r5}
 415              		.cfi_restore 5
 416              		.cfi_restore 4
 417              		.cfi_def_cfa_offset 0
 418              		.loc 1 377 0 discriminator 3
 419 0028 9360     		str	r3, [r2, #8]
 420              		.loc 1 378 0 discriminator 3
 421 002a 9060     		str	r0, [r2, #8]
 422              		.loc 1 379 0 discriminator 3
 423 002c 7047     		bx	lr
 424              		.cfi_endproc
 425              	.LFE262:
 426              		.size	adc_lld_stop_conversion, .-adc_lld_stop_conversion
 427 002e 00BF     		.section	.text.Vector88,"ax",%progbits
 428              		.align	2
 429              		.p2align 4,,15
 430              		.global	Vector88
 431              		.thumb
 432              		.thumb_func
 433              		.type	Vector88, %function
 434              	Vector88:
 435              	.LFB257:
 436              		.loc 1 110 0
 437              		.cfi_startproc
 438              		@ args = 0, pretend = 0, frame = 0
 439              		@ frame_needed = 0, uses_anonymous_args = 0
 440              		.loc 1 116 0
 441 0000 164B     		ldr	r3, .L53
 442 0002 1A68     		ldr	r2, [r3]
 443              	.LVL29:
 444              		.loc 1 117 0
 445 0004 0021     		movs	r1, #0
 446 0006 1960     		str	r1, [r3]
 447              		.loc 1 120 0
 448 0008 9306     		lsls	r3, r2, #26
 449 000a 24D5     		bpl	.L52
 450              		.loc 1 110 0 discriminator 1
 451 000c 10B5     		push	{r4, lr}
 452              		.cfi_def_cfa_offset 8
 453              		.cfi_offset 4, -8
 454              		.cfi_offset 14, -4
 455              		.loc 1 120 0 discriminator 1
 456 000e 144C     		ldr	r4, .L53+4
ARM GAS  /tmp/ccCcZugi.s 			page 9


 457 0010 E36A     		ldr	r3, [r4, #44]
 458 0012 1B68     		ldr	r3, [r3]
 459 0014 5B68     		ldr	r3, [r3, #4]
 460 0016 D3B1     		cbz	r3, .L38
 461              		.loc 1 123 0
 462 0018 2369     		ldr	r3, [r4, #16]
 463 001a C3B1     		cbz	r3, .L38
 464              		.loc 1 124 0
 465 001c 2046     		mov	r0, r4
 466 001e FFF7FEFF 		bl	adc_lld_stop_conversion
 467              	.LVL30:
 468 0022 2369     		ldr	r3, [r4, #16]
 469 0024 9B68     		ldr	r3, [r3, #8]
 470 0026 4BB1     		cbz	r3, .L40
 471              		.loc 1 124 0 is_stmt 0 discriminator 1
 472 0028 0522     		movs	r2, #5
 473 002a 2270     		strb	r2, [r4]
 474 002c 2046     		mov	r0, r4
 475 002e 0121     		movs	r1, #1
 476 0030 9847     		blx	r3
 477              	.LVL31:
 478 0032 2378     		ldrb	r3, [r4]	@ zero_extendqisi2
 479 0034 052B     		cmp	r3, #5
 480 0036 04BF     		itt	eq
 481 0038 0223     		moveq	r3, #2
 482 003a 2370     		strbeq	r3, [r4]
 483              	.L40:
 484              		.loc 1 124 0 discriminator 5
 485 003c 0023     		movs	r3, #0
 486 003e 2361     		str	r3, [r4, #16]
 487              	.LBB86:
 488              	.LBB87:
 489              	.LBB88:
 490              	.LBB89:
 491              	.LBB90:
 492              	.LBB91:
 493              		.file 2 "ChibiOS_3.0.2/os/ext/CMSIS/include/core_cmFunc.h"
 494              		.loc 2 342 0 is_stmt 1 discriminator 5
 495              	@ 342 "ChibiOS_3.0.2/os/ext/CMSIS/include/core_cmFunc.h" 1
 496 0040 72B6     		cpsid i
 497              	@ 0 "" 2
 498              	.LVL32:
 499              		.thumb
 500              	.LBE91:
 501              	.LBE90:
 502              	.LBE89:
 503              	.LBE88:
 504              	.LBE87:
 505              	.LBE86:
 506              	.LBB92:
 507              	.LBB93:
 508              		.file 3 "ChibiOS_3.0.2/os/hal/osal/rt/osal.h"
 509              		.loc 3 728 0 discriminator 5
 510 0042 0848     		ldr	r0, .L53+8
 511 0044 4FF0FF31 		mov	r1, #-1
 512 0048 FFF7FEFF 		bl	chThdResumeI
 513              	.LVL33:
ARM GAS  /tmp/ccCcZugi.s 			page 10


 514              	.LBE93:
 515              	.LBE92:
 516              	.LBB94:
 517              	.LBB95:
 518              	.LBB96:
 519              	.LBB97:
 520              	.LBB98:
 521              	.LBB99:
 522              		.loc 2 331 0 discriminator 5
 523              	@ 331 "ChibiOS_3.0.2/os/ext/CMSIS/include/core_cmFunc.h" 1
 524 004c 62B6     		cpsie i
 525              	@ 0 "" 2
 526              	.LVL34:
 527              		.thumb
 528              	.L38:
 529              	.LBE99:
 530              	.LBE98:
 531              	.LBE97:
 532              	.LBE96:
 533              	.LBE95:
 534              	.LBE94:
 535              		.loc 1 158 0
 536 004e BDE81040 		pop	{r4, lr}
 537              		.cfi_restore 14
 538              		.cfi_restore 4
 539              		.cfi_def_cfa_offset 0
 540              		.loc 1 157 0
 541 0052 FFF7FEBF 		b	_port_irq_epilogue
 542              	.LVL35:
 543              	.L52:
 544 0056 FFF7FEBF 		b	_port_irq_epilogue
 545              	.LVL36:
 546              	.L54:
 547 005a 00BF     		.align	2
 548              	.L53:
 549 005c 00200140 		.word	1073815552
 550 0060 00000000 		.word	.LANCHOR0
 551 0064 14000000 		.word	.LANCHOR0+20
 552              		.cfi_endproc
 553              	.LFE257:
 554              		.size	Vector88, .-Vector88
 555              		.section	.text.adc_lld_serve_rx_interrupt,"ax",%progbits
 556              		.align	2
 557              		.p2align 4,,15
 558              		.thumb
 559              		.thumb_func
 560              		.type	adc_lld_serve_rx_interrupt, %function
 561              	adc_lld_serve_rx_interrupt:
 562              	.LFB256:
 563              		.loc 1 75 0
 564              		.cfi_startproc
 565              		@ args = 0, pretend = 0, frame = 0
 566              		@ frame_needed = 0, uses_anonymous_args = 0
 567              	.LVL37:
 568              		.loc 1 78 0
 569 0000 11F00C0F 		tst	r1, #12
 570              		.loc 1 75 0
ARM GAS  /tmp/ccCcZugi.s 			page 11


 571 0004 70B5     		push	{r4, r5, r6, lr}
 572              		.cfi_def_cfa_offset 16
 573              		.cfi_offset 4, -16
 574              		.cfi_offset 5, -12
 575              		.cfi_offset 6, -8
 576              		.cfi_offset 14, -4
 577              		.loc 1 75 0
 578 0006 0446     		mov	r4, r0
 579              		.loc 1 78 0
 580 0008 19D1     		bne	.L82
 581              		.loc 1 86 0
 582 000a 0369     		ldr	r3, [r0, #16]
 583 000c B3B1     		cbz	r3, .L55
 584              		.loc 1 87 0
 585 000e 8D06     		lsls	r5, r1, #26
 586 0010 12D5     		bpl	.L61
 587              		.loc 1 89 0
 588 0012 1A78     		ldrb	r2, [r3]	@ zero_extendqisi2
 589 0014 002A     		cmp	r2, #0
 590 0016 3AD0     		beq	.L62
 591              		.loc 1 89 0 is_stmt 0 discriminator 1
 592 0018 5D68     		ldr	r5, [r3, #4]
 593 001a 7DB1     		cbz	r5, .L55
 594              		.loc 1 89 0 discriminator 3
 595 001c C268     		ldr	r2, [r0, #12]
 596 001e 012A     		cmp	r2, #1
 597 0020 30D9     		bls	.L63
 598              	.LBB100:
 599              		.loc 1 89 0 discriminator 4
 600 0022 5B88     		ldrh	r3, [r3, #2]
 601 0024 8168     		ldr	r1, [r0, #8]
 602              	.LVL38:
 603 0026 5208     		lsrs	r2, r2, #1
 604              	.LVL39:
 605 0028 03FB02F3 		mul	r3, r3, r2
 606 002c 01EB4301 		add	r1, r1, r3, lsl #1
 607 0030 2B46     		mov	r3, r5
 608              	.LBE100:
 609              		.loc 1 97 0 is_stmt 1 discriminator 4
 610 0032 BDE87040 		pop	{r4, r5, r6, lr}
 611              		.cfi_remember_state
 612              		.cfi_restore 14
 613              		.cfi_restore 6
 614              		.cfi_restore 5
 615              		.cfi_restore 4
 616              		.cfi_def_cfa_offset 0
 617              	.LBB101:
 618              		.loc 1 89 0 discriminator 4
 619 0036 1847     		bx	r3	@ indirect register sibling call
 620              	.LVL40:
 621              	.L61:
 622              		.cfi_restore_state
 623              	.LBE101:
 624              		.loc 1 91 0
 625 0038 CA06     		lsls	r2, r1, #27
 626 003a 1AD4     		bmi	.L83
 627              	.L55:
ARM GAS  /tmp/ccCcZugi.s 			page 12


 628 003c 70BD     		pop	{r4, r5, r6, pc}
 629              	.L82:
 630              		.loc 1 81 0
 631 003e FFF7FEFF 		bl	adc_lld_stop_conversion
 632              	.LVL41:
 633 0042 2369     		ldr	r3, [r4, #16]
 634 0044 9B68     		ldr	r3, [r3, #8]
 635 0046 4BB1     		cbz	r3, .L58
 636              		.loc 1 81 0 is_stmt 0 discriminator 1
 637 0048 0522     		movs	r2, #5
 638 004a 2270     		strb	r2, [r4]
 639 004c 2046     		mov	r0, r4
 640 004e 0021     		movs	r1, #0
 641 0050 9847     		blx	r3
 642              	.LVL42:
 643 0052 2378     		ldrb	r3, [r4]	@ zero_extendqisi2
 644 0054 052B     		cmp	r3, #5
 645 0056 04BF     		itt	eq
 646 0058 0223     		moveq	r3, #2
 647 005a 2370     		strbeq	r3, [r4]
 648              	.L58:
 649              		.loc 1 81 0 discriminator 5
 650 005c 0023     		movs	r3, #0
 651 005e 2361     		str	r3, [r4, #16]
 652              	.LBB102:
 653              	.LBB103:
 654              	.LBB104:
 655              	.LBB105:
 656              	.LBB106:
 657              	.LBB107:
 658              		.loc 2 342 0 is_stmt 1 discriminator 5
 659              	@ 342 "ChibiOS_3.0.2/os/ext/CMSIS/include/core_cmFunc.h" 1
 660 0060 72B6     		cpsid i
 661              	@ 0 "" 2
 662              	.LVL43:
 663              		.thumb
 664              	.LBE107:
 665              	.LBE106:
 666              	.LBE105:
 667              	.LBE104:
 668              	.LBE103:
 669              	.LBE102:
 670              	.LBB108:
 671              	.LBB109:
 672              		.loc 3 728 0 discriminator 5
 673 0062 4FF0FF31 		mov	r1, #-1
 674 0066 04F11400 		add	r0, r4, #20
 675              	.LVL44:
 676 006a FFF7FEFF 		bl	chThdResumeI
 677              	.LVL45:
 678              	.LBE109:
 679              	.LBE108:
 680              	.LBB110:
 681              	.LBB111:
 682              	.LBB112:
 683              	.LBB113:
 684              	.LBB114:
ARM GAS  /tmp/ccCcZugi.s 			page 13


 685              	.LBB115:
 686              		.loc 2 331 0 discriminator 5
 687              	@ 331 "ChibiOS_3.0.2/os/ext/CMSIS/include/core_cmFunc.h" 1
 688 006e 62B6     		cpsie i
 689              	@ 0 "" 2
 690              		.thumb
 691 0070 70BD     		pop	{r4, r5, r6, pc}
 692              	.LVL46:
 693              	.L83:
 694              	.LBE115:
 695              	.LBE114:
 696              	.LBE113:
 697              	.LBE112:
 698              	.LBE111:
 699              	.LBE110:
 700              		.loc 1 93 0
 701 0072 5B68     		ldr	r3, [r3, #4]
 702 0074 002B     		cmp	r3, #0
 703 0076 E1D0     		beq	.L55
 704              		.loc 1 93 0 is_stmt 0 discriminator 1
 705 0078 C268     		ldr	r2, [r0, #12]
 706 007a 8168     		ldr	r1, [r0, #8]
 707              	.LVL47:
 708 007c 5208     		lsrs	r2, r2, #1
 709              		.loc 1 97 0 is_stmt 1 discriminator 1
 710 007e BDE87040 		pop	{r4, r5, r6, lr}
 711              		.cfi_remember_state
 712              		.cfi_restore 14
 713              		.cfi_restore 6
 714              		.cfi_restore 5
 715              		.cfi_restore 4
 716              		.cfi_def_cfa_offset 0
 717              		.loc 1 93 0 discriminator 1
 718 0082 1847     		bx	r3	@ indirect register sibling call
 719              	.LVL48:
 720              	.L63:
 721              		.cfi_restore_state
 722              		.loc 1 89 0 discriminator 5
 723 0084 2B46     		mov	r3, r5
 724 0086 8168     		ldr	r1, [r0, #8]
 725              	.LVL49:
 726              		.loc 1 97 0 discriminator 5
 727 0088 BDE87040 		pop	{r4, r5, r6, lr}
 728              		.cfi_remember_state
 729              		.cfi_restore 14
 730              		.cfi_restore 6
 731              		.cfi_restore 5
 732              		.cfi_restore 4
 733              		.cfi_def_cfa_offset 0
 734              		.loc 1 89 0 discriminator 5
 735 008c 1847     		bx	r3	@ indirect register sibling call
 736              	.LVL50:
 737              	.L62:
 738              		.cfi_restore_state
 739              		.loc 1 89 0 is_stmt 0 discriminator 2
 740 008e FFF7FEFF 		bl	adc_lld_stop_conversion
 741              	.LVL51:
ARM GAS  /tmp/ccCcZugi.s 			page 14


 742 0092 2369     		ldr	r3, [r4, #16]
 743 0094 5B68     		ldr	r3, [r3, #4]
 744 0096 83B1     		cbz	r3, .L64
 745              		.loc 1 89 0 discriminator 6
 746 0098 0422     		movs	r2, #4
 747 009a 2270     		strb	r2, [r4]
 748 009c 2046     		mov	r0, r4
 749 009e A168     		ldr	r1, [r4, #8]
 750 00a0 E268     		ldr	r2, [r4, #12]
 751 00a2 9847     		blx	r3
 752              	.LVL52:
 753 00a4 2378     		ldrb	r3, [r4]	@ zero_extendqisi2
 754 00a6 042B     		cmp	r3, #4
 755 00a8 07D0     		beq	.L64
 756              	.L65:
 757              	.LBB116:
 758              	.LBB117:
 759              	.LBB118:
 760              	.LBB119:
 761              	.LBB120:
 762              	.LBB121:
 763              		.loc 2 342 0 is_stmt 1 discriminator 9
 764              	@ 342 "ChibiOS_3.0.2/os/ext/CMSIS/include/core_cmFunc.h" 1
 765 00aa 72B6     		cpsid i
 766              	@ 0 "" 2
 767              	.LVL53:
 768              		.thumb
 769              	.LBE121:
 770              	.LBE120:
 771              	.LBE119:
 772              	.LBE118:
 773              	.LBE117:
 774              	.LBE116:
 775              	.LBB122:
 776              	.LBB123:
 777              		.loc 3 728 0 discriminator 9
 778 00ac 0021     		movs	r1, #0
 779 00ae 04F11400 		add	r0, r4, #20
 780              	.LVL54:
 781 00b2 FFF7FEFF 		bl	chThdResumeI
 782              	.LVL55:
 783              	.LBE123:
 784              	.LBE122:
 785              	.LBB124:
 786              	.LBB125:
 787              	.LBB126:
 788              	.LBB127:
 789              	.LBB128:
 790              	.LBB129:
 791              		.loc 2 331 0 discriminator 9
 792              	@ 331 "ChibiOS_3.0.2/os/ext/CMSIS/include/core_cmFunc.h" 1
 793 00b6 62B6     		cpsie i
 794              	@ 0 "" 2
 795              		.thumb
 796 00b8 70BD     		pop	{r4, r5, r6, pc}
 797              	.LVL56:
 798              	.L64:
ARM GAS  /tmp/ccCcZugi.s 			page 15


 799              	.LBE129:
 800              	.LBE128:
 801              	.LBE127:
 802              	.LBE126:
 803              	.LBE125:
 804              	.LBE124:
 805              		.loc 1 89 0 discriminator 8
 806 00ba 0222     		movs	r2, #2
 807 00bc 0023     		movs	r3, #0
 808 00be 2270     		strb	r2, [r4]
 809 00c0 2361     		str	r3, [r4, #16]
 810 00c2 F2E7     		b	.L65
 811              		.cfi_endproc
 812              	.LFE256:
 813              		.size	adc_lld_serve_rx_interrupt, .-adc_lld_serve_rx_interrupt
 814              		.section	.text.adcSTM32EnableTSVREFE,"ax",%progbits
 815              		.align	2
 816              		.p2align 4,,15
 817              		.global	adcSTM32EnableTSVREFE
 818              		.thumb
 819              		.thumb_func
 820              		.type	adcSTM32EnableTSVREFE, %function
 821              	adcSTM32EnableTSVREFE:
 822              	.LFB263:
 823              		.loc 1 387 0
 824              		.cfi_startproc
 825              		@ args = 0, pretend = 0, frame = 0
 826              		@ frame_needed = 0, uses_anonymous_args = 0
 827              		@ link register save eliminated.
 828              		.loc 1 389 0
 829 0000 024A     		ldr	r2, .L85
 830 0002 5368     		ldr	r3, [r2, #4]
 831 0004 43F40003 		orr	r3, r3, #8388608
 832 0008 5360     		str	r3, [r2, #4]
 833 000a 7047     		bx	lr
 834              	.L86:
 835              		.align	2
 836              	.L85:
 837 000c 00230140 		.word	1073816320
 838              		.cfi_endproc
 839              	.LFE263:
 840              		.size	adcSTM32EnableTSVREFE, .-adcSTM32EnableTSVREFE
 841              		.section	.text.adcSTM32DisableTSVREFE,"ax",%progbits
 842              		.align	2
 843              		.p2align 4,,15
 844              		.global	adcSTM32DisableTSVREFE
 845              		.thumb
 846              		.thumb_func
 847              		.type	adcSTM32DisableTSVREFE, %function
 848              	adcSTM32DisableTSVREFE:
 849              	.LFB264:
 850              		.loc 1 398 0
 851              		.cfi_startproc
 852              		@ args = 0, pretend = 0, frame = 0
 853              		@ frame_needed = 0, uses_anonymous_args = 0
 854              		@ link register save eliminated.
 855              		.loc 1 400 0
ARM GAS  /tmp/ccCcZugi.s 			page 16


 856 0000 024A     		ldr	r2, .L88
 857 0002 5368     		ldr	r3, [r2, #4]
 858 0004 23F40003 		bic	r3, r3, #8388608
 859 0008 5360     		str	r3, [r2, #4]
 860 000a 7047     		bx	lr
 861              	.L89:
 862              		.align	2
 863              	.L88:
 864 000c 00230140 		.word	1073816320
 865              		.cfi_endproc
 866              	.LFE264:
 867              		.size	adcSTM32DisableTSVREFE, .-adcSTM32DisableTSVREFE
 868              		.section	.text.adcSTM32EnableVBATE,"ax",%progbits
 869              		.align	2
 870              		.p2align 4,,15
 871              		.global	adcSTM32EnableVBATE
 872              		.thumb
 873              		.thumb_func
 874              		.type	adcSTM32EnableVBATE, %function
 875              	adcSTM32EnableVBATE:
 876              	.LFB265:
 877              		.loc 1 409 0
 878              		.cfi_startproc
 879              		@ args = 0, pretend = 0, frame = 0
 880              		@ frame_needed = 0, uses_anonymous_args = 0
 881              		@ link register save eliminated.
 882              		.loc 1 411 0
 883 0000 024A     		ldr	r2, .L91
 884 0002 5368     		ldr	r3, [r2, #4]
 885 0004 43F48003 		orr	r3, r3, #4194304
 886 0008 5360     		str	r3, [r2, #4]
 887 000a 7047     		bx	lr
 888              	.L92:
 889              		.align	2
 890              	.L91:
 891 000c 00230140 		.word	1073816320
 892              		.cfi_endproc
 893              	.LFE265:
 894              		.size	adcSTM32EnableVBATE, .-adcSTM32EnableVBATE
 895              		.section	.text.adcSTM32DisableVBATE,"ax",%progbits
 896              		.align	2
 897              		.p2align 4,,15
 898              		.global	adcSTM32DisableVBATE
 899              		.thumb
 900              		.thumb_func
 901              		.type	adcSTM32DisableVBATE, %function
 902              	adcSTM32DisableVBATE:
 903              	.LFB266:
 904              		.loc 1 420 0
 905              		.cfi_startproc
 906              		@ args = 0, pretend = 0, frame = 0
 907              		@ frame_needed = 0, uses_anonymous_args = 0
 908              		@ link register save eliminated.
 909              		.loc 1 422 0
 910 0000 024A     		ldr	r2, .L94
 911 0002 5368     		ldr	r3, [r2, #4]
 912 0004 23F48003 		bic	r3, r3, #4194304
ARM GAS  /tmp/ccCcZugi.s 			page 17


 913 0008 5360     		str	r3, [r2, #4]
 914 000a 7047     		bx	lr
 915              	.L95:
 916              		.align	2
 917              	.L94:
 918 000c 00230140 		.word	1073816320
 919              		.cfi_endproc
 920              	.LFE266:
 921              		.size	adcSTM32DisableVBATE, .-adcSTM32DisableVBATE
 922              		.global	ADCD1
 923              		.section	.bss.ADCD1,"aw",%nobits
 924              		.align	2
 925              		.set	.LANCHOR0,. + 0
 926              		.type	ADCD1, %object
 927              		.size	ADCD1, 52
 928              	ADCD1:
 929 0000 00000000 		.space	52
 929      00000000 
 929      00000000 
 929      00000000 
 929      00000000 
 930              		.text
 931              	.Letext0:
 932              		.file 4 "/usr/lib/gcc/arm-none-eabi/4.9.3/include/stddef.h"
 933              		.file 5 "/usr/arm-none-eabi/include/machine/_default_types.h"
 934              		.file 6 "/usr/arm-none-eabi/include/sys/_stdint.h"
 935              		.file 7 "ChibiOS_3.0.2/os/rt/ports/ARMCMx/compilers/GCC/chtypes.h"
 936              		.file 8 "ChibiOS_3.0.2/os/rt/include/chsystypes.h"
 937              		.file 9 "ChibiOS_3.0.2/os/rt/include/chschd.h"
 938              		.file 10 "ChibiOS_3.0.2/os/ext/CMSIS/ST/stm32f407xx.h"
 939              		.file 11 "ChibiOS_3.0.2/os/rt/ports/ARMCMx/chcore.h"
 940              		.file 12 "ChibiOS_3.0.2/os/rt/ports/ARMCMx/chcore_v7m.h"
 941              		.file 13 "ChibiOS_3.0.2/os/rt/include/chtm.h"
 942              		.file 14 "ChibiOS_3.0.2/os/rt/include/chsem.h"
 943              		.file 15 "ChibiOS_3.0.2/os/rt/include/chmtx.h"
 944              		.file 16 "ChibiOS_3.0.2/os/hal/ports/STM32/STM32F4xx/stm32_dma.h"
 945              		.file 17 "ChibiOS_3.0.2/os/hal/include/adc.h"
 946              		.file 18 "ChibiOS_3.0.2/os/hal/ports/STM32/STM32F4xx/adc_lld.h"
 947              		.file 19 "ChibiOS_3.0.2/os/rt/include/chsys.h"
 948              		.file 20 "ChibiOS_3.0.2/os/ext/CMSIS/include/core_cm4.h"
 949              		.file 21 "ChibiOS_3.0.2/os/hal/ports/common/ARMCMx/nvic.h"
 950              		.file 22 "ChibiOS_3.0.2/os/rt/include/chthreads.h"