ARM GAS  /tmp/ccjPIjVQ.s 			page 1


   1              		.syntax unified
   2              		.cpu cortex-m4
   3              		.eabi_attribute 27, 1
   4              		.eabi_attribute 28, 1
   5              		.fpu fpv4-sp-d16
   6              		.eabi_attribute 20, 1
   7              		.eabi_attribute 21, 1
   8              		.eabi_attribute 23, 3
   9              		.eabi_attribute 24, 1
  10              		.eabi_attribute 25, 1
  11              		.eabi_attribute 26, 1
  12              		.eabi_attribute 30, 2
  13              		.eabi_attribute 34, 1
  14              		.eabi_attribute 18, 4
  15              		.thumb
  16              		.file	"basic_rf.c"
  17              		.text
  18              	.Ltext0:
  19              		.cfi_sections	.debug_frame
  20              		.section	.text.basicRf_thread,"ax",%progbits
  21              		.align	2
  22              		.p2align 4,,15
  23              		.thumb
  24              		.thumb_func
  25              		.type	basicRf_thread, %function
  26              	basicRf_thread:
  27              	.LFB256:
  28              		.file 1 "cc2520/basicrf/basic_rf.c"
  29              		.loc 1 148 0
  30              		.cfi_startproc
  31              		@ Volatile: function does not return.
  32              		@ args = 0, pretend = 0, frame = 0
  33              		@ frame_needed = 0, uses_anonymous_args = 0
  34              	.LVL0:
  35 0000 08B5     		push	{r3, lr}
  36              		.cfi_def_cfa_offset 8
  37              		.cfi_offset 3, -8
  38              		.cfi_offset 14, -4
  39              	.LBB8:
  40              	.LBB9:
  41              		.file 2 "ChibiOS_3.0.2/os/rt/include/chregistry.h"
  42              		.loc 2 135 0
  43 0002 0C4B     		ldr	r3, .L9
  44 0004 0C4A     		ldr	r2, .L9+4
  45 0006 9B69     		ldr	r3, [r3, #24]
  46              	.LBE9:
  47              	.LBE8:
  48              		.loc 1 154 0
  49 0008 0C4C     		ldr	r4, .L9+8
  50              	.LBB11:
  51              	.LBB10:
  52              		.loc 2 135 0
  53 000a 9A61     		str	r2, [r3, #24]
  54 000c 02E0     		b	.L3
  55              	.LVL1:
  56              	.L2:
  57              	.LBE10:
ARM GAS  /tmp/ccjPIjVQ.s 			page 2


  58              	.LBE11:
  59              		.loc 1 161 0
  60 000e 0A20     		movs	r0, #10
  61 0010 FFF7FEFF 		bl	chThdSleep
  62              	.LVL2:
  63              	.L3:
  64              		.loc 1 154 0
  65 0014 2369     		ldr	r3, [r4, #16]
  66 0016 DB07     		lsls	r3, r3, #31
  67 0018 F9D5     		bpl	.L2
  68              		.loc 1 155 0
  69 001a 0948     		ldr	r0, .L9+12
  70 001c FFF7FEFF 		bl	chMtxLock
  71              	.LVL3:
  72              		.loc 1 156 0
  73 0020 FFF7FEFF 		bl	halRfFlushRx
  74              	.LVL4:
  75              		.loc 1 157 0
  76 0024 8620     		movs	r0, #134
  77 0026 FFF7FEFF 		bl	CC2520_BCLR
  78              	.LVL5:
  79              		.loc 1 158 0
  80 002a 0548     		ldr	r0, .L9+12
  81 002c FFF7FEFF 		bl	chMtxUnlock
  82              	.LVL6:
  83 0030 EDE7     		b	.L2
  84              	.L10:
  85 0032 00BF     		.align	2
  86              	.L9:
  87 0034 00000000 		.word	ch
  88 0038 00000000 		.word	.LC0
  89 003c 00040240 		.word	1073873920
  90 0040 00000000 		.word	.LANCHOR0
  91              		.cfi_endproc
  92              	.LFE256:
  93              		.size	basicRf_thread, .-basicRf_thread
  94              		.section	.text.basicRfRxFrmDoneIsr,"ax",%progbits
  95              		.align	2
  96              		.p2align 4,,15
  97              		.thumb
  98              		.thumb_func
  99              		.type	basicRfRxFrmDoneIsr, %function
 100              	basicRfRxFrmDoneIsr:
 101              	.LFB259:
 102              		.loc 1 254 0
 103              		.cfi_startproc
 104              		@ args = 0, pretend = 0, frame = 0
 105              		@ frame_needed = 0, uses_anonymous_args = 0
 106 0000 38B5     		push	{r3, r4, r5, lr}
 107              		.cfi_def_cfa_offset 16
 108              		.cfi_offset 3, -16
 109              		.cfi_offset 4, -12
 110              		.cfi_offset 5, -8
 111              		.cfi_offset 14, -4
 112              		.loc 1 261 0
 113 0002 2848     		ldr	r0, .L19
 114              		.loc 1 270 0
ARM GAS  /tmp/ccjPIjVQ.s 			page 3


 115 0004 284C     		ldr	r4, .L19+4
 116              		.loc 1 261 0
 117 0006 FFF7FEFF 		bl	chMtxLock
 118              	.LVL7:
 119              		.loc 1 267 0
 120 000a 8820     		movs	r0, #136
 121 000c FFF7FEFF 		bl	CC2520_BCLR
 122              	.LVL8:
 123              		.loc 1 270 0
 124 0010 0121     		movs	r1, #1
 125 0012 2046     		mov	r0, r4
 126 0014 FFF7FEFF 		bl	halRfReadRxBuf
 127              	.LVL9:
 128              		.loc 1 271 0
 129 0018 2178     		ldrb	r1, [r4]	@ zero_extendqisi2
 130 001a 01F07F01 		and	r1, r1, #127
 131              		.loc 1 275 0
 132 001e 0529     		cmp	r1, #5
 133              		.loc 1 271 0
 134 0020 2170     		strb	r1, [r4]
 135              		.loc 1 275 0
 136 0022 21D0     		beq	.L17
 137              		.loc 1 304 0
 138 0024 214D     		ldr	r5, .L19+8
 139 0026 A1F10B03 		sub	r3, r1, #11
 140 002a DBB2     		uxtb	r3, r3
 141              		.loc 1 311 0
 142 002c 601C     		adds	r0, r4, #1
 143              		.loc 1 304 0
 144 002e AB71     		strb	r3, [r5, #6]
 145              		.loc 1 311 0
 146 0030 FFF7FEFF 		bl	halRfReadRxBuf
 147              	.LVL10:
 148              		.loc 1 322 0
 149 0034 6178     		ldrb	r1, [r4, #1]	@ zero_extendqisi2
 150              		.loc 1 325 0
 151 0036 2289     		ldrh	r2, [r4, #8]
 152              		.loc 1 322 0
 153 0038 C1F34010 		ubfx	r0, r1, #5, #1
 154              		.loc 1 328 0
 155 003c 04F10A03 		add	r3, r4, #10
 156              		.loc 1 322 0
 157 0040 2873     		strb	r0, [r5, #12]
 158              		.loc 1 325 0
 159 0042 6A80     		strh	r2, [r5, #2]	@ movhi
 160              		.loc 1 328 0
 161 0044 AB60     		str	r3, [r5, #8]
 162              		.loc 1 331 0
 163 0046 AA68     		ldr	r2, [r5, #8]
 164 0048 AB79     		ldrb	r3, [r5, #6]	@ zero_extendqisi2
 165 004a 5BB2     		sxtb	r3, r3
 166 004c D018     		adds	r0, r2, r3
 167              	.LVL11:
 168              		.loc 1 335 0
 169 004e D35C     		ldrb	r3, [r2, r3]	@ zero_extendqisi2
 170 0050 6B73     		strb	r3, [r5, #13]
 171              		.loc 1 339 0
ARM GAS  /tmp/ccjPIjVQ.s 			page 4


 172 0052 90F90130 		ldrsb	r3, [r0, #1]
 173 0056 002B     		cmp	r3, #0
 174 0058 E378     		ldrb	r3, [r4, #3]	@ zero_extendqisi2
 175 005a 19DB     		blt	.L18
 176              	.L15:
 177              		.loc 1 354 0
 178 005c 2B70     		strb	r3, [r5]
 179              	.LVL12:
 180              	.L13:
 181              		.loc 1 357 0
 182 005e 1148     		ldr	r0, .L19
 183              		.loc 1 358 0
 184 0060 BDE83840 		pop	{r3, r4, r5, lr}
 185              		.cfi_remember_state
 186              		.cfi_restore 14
 187              		.cfi_restore 5
 188              		.cfi_restore 4
 189              		.cfi_restore 3
 190              		.cfi_def_cfa_offset 0
 191              		.loc 1 357 0
 192 0064 FFF7FEBF 		b	chMtxUnlock
 193              	.LVL13:
 194              	.L17:
 195              		.cfi_restore_state
 196              		.loc 1 278 0
 197 0068 601C     		adds	r0, r4, #1
 198 006a FFF7FEFF 		bl	halRfReadRxBuf
 199              	.LVL14:
 200              		.loc 1 288 0
 201 006e 6378     		ldrb	r3, [r4, #1]	@ zero_extendqisi2
 202              		.loc 1 294 0
 203 0070 94F90520 		ldrsb	r2, [r4, #5]
 204              		.loc 1 288 0
 205 0074 0D49     		ldr	r1, .L19+8
 206 0076 C3F34013 		ubfx	r3, r3, #5, #1
 207              		.loc 1 294 0
 208 007a 002A     		cmp	r2, #0
 209              		.loc 1 288 0
 210 007c 0B73     		strb	r3, [r1, #12]
 211              	.LVL15:
 212              		.loc 1 294 0
 213 007e EEDA     		bge	.L13
 214              		.loc 1 294 0 is_stmt 0 discriminator 1
 215 0080 0B4B     		ldr	r3, .L19+12
 216 0082 E178     		ldrb	r1, [r4, #3]	@ zero_extendqisi2
 217 0084 1A78     		ldrb	r2, [r3]	@ zero_extendqisi2
 218 0086 9142     		cmp	r1, r2
 219 0088 E9D1     		bne	.L13
 220              		.loc 1 295 0 is_stmt 1
 221 008a 0122     		movs	r2, #1
 222 008c 5A70     		strb	r2, [r3, #1]
 223 008e E6E7     		b	.L13
 224              	.LVL16:
 225              	.L18:
 226              		.loc 1 339 0 discriminator 1
 227 0090 2A78     		ldrb	r2, [r5]	@ zero_extendqisi2
 228 0092 9A42     		cmp	r2, r3
ARM GAS  /tmp/ccjPIjVQ.s 			page 5


 229 0094 E2D0     		beq	.L15
 230              		.loc 1 349 0
 231 0096 01F0DF01 		and	r1, r1, #223
 232 009a 4129     		cmp	r1, #65
 233              		.loc 1 350 0
 234 009c 04BF     		itt	eq
 235 009e 0122     		moveq	r2, #1
 236 00a0 AA73     		strbeq	r2, [r5, #14]
 237 00a2 DBE7     		b	.L15
 238              	.L20:
 239              		.align	2
 240              	.L19:
 241 00a4 00000000 		.word	.LANCHOR0
 242 00a8 00000000 		.word	.LANCHOR1
 243 00ac 00000000 		.word	.LANCHOR2
 244 00b0 00000000 		.word	.LANCHOR3
 245              		.cfi_endproc
 246              	.LFE259:
 247              		.size	basicRfRxFrmDoneIsr, .-basicRfRxFrmDoneIsr
 248              		.section	.text.basicRfInit,"ax",%progbits
 249              		.align	2
 250              		.p2align 4,,15
 251              		.global	basicRfInit
 252              		.thumb
 253              		.thumb_func
 254              		.type	basicRfInit, %function
 255              	basicRfInit:
 256              	.LFB260:
 257              		.loc 1 379 0
 258              		.cfi_startproc
 259              		@ args = 0, pretend = 0, frame = 0
 260              		@ frame_needed = 0, uses_anonymous_args = 0
 261              	.LVL17:
 262 0000 70B5     		push	{r4, r5, r6, lr}
 263              		.cfi_def_cfa_offset 16
 264              		.cfi_offset 4, -16
 265              		.cfi_offset 5, -12
 266              		.cfi_offset 6, -8
 267              		.cfi_offset 14, -4
 268 0002 82B0     		sub	sp, sp, #8
 269              		.cfi_def_cfa_offset 24
 270              		.loc 1 379 0
 271 0004 0646     		mov	r6, r0
 272              		.loc 1 380 0
 273 0006 FFF7FEFF 		bl	halRfInit
 274              	.LVL18:
 275 000a 0128     		cmp	r0, #1
 276 000c 27D0     		beq	.L22
 277              		.loc 1 384 0
 278 000e 1548     		ldr	r0, .L27
 279              		.loc 1 388 0
 280 0010 154D     		ldr	r5, .L27+4
 281              		.loc 1 384 0
 282 0012 FFF7FEFF 		bl	chMtxObjectInit
 283              	.LVL19:
 284              		.loc 1 385 0
 285 0016 1548     		ldr	r0, .L27+8
ARM GAS  /tmp/ccjPIjVQ.s 			page 6


 286 0018 FFF7FEFF 		bl	chMtxObjectInit
 287              	.LVL20:
 288              		.loc 1 389 0
 289 001c 1449     		ldr	r1, .L27+12
 290              		.loc 1 391 0
 291 001e 154B     		ldr	r3, .L27+16
 292              		.loc 1 388 0
 293 0020 2E60     		str	r6, [r5]
 294              		.loc 1 391 0
 295 0022 0122     		movs	r2, #1
 296              		.loc 1 389 0
 297 0024 0024     		movs	r4, #0
 298 0026 8C60     		str	r4, [r1, #8]
 299              		.loc 1 391 0
 300 0028 9A70     		strb	r2, [r3, #2]
 301              		.loc 1 392 0
 302 002a 5C60     		str	r4, [r3, #4]
 303              		.loc 1 395 0
 304 002c 3079     		ldrb	r0, [r6, #4]	@ zero_extendqisi2
 305 002e FFF7FEFF 		bl	halRfSetChannel
 306              	.LVL21:
 307              		.loc 1 398 0
 308 0032 2B68     		ldr	r3, [r5]
 309 0034 1888     		ldrh	r0, [r3]
 310 0036 80B2     		uxth	r0, r0
 311 0038 FFF7FEFF 		bl	halRfSetShortAddr
 312              	.LVL22:
 313              		.loc 1 399 0
 314 003c 2B68     		ldr	r3, [r5]
 315 003e 5888     		ldrh	r0, [r3, #2]
 316 0040 80B2     		uxth	r0, r0
 317 0042 FFF7FEFF 		bl	halRfSetPanId
 318              	.LVL23:
 319              		.loc 1 407 0
 320 0046 0C48     		ldr	r0, .L27+20
 321 0048 FFF7FEFF 		bl	halRfRxInterruptConfig
 322              	.LVL24:
 323              		.loc 1 409 0
 324 004c 0094     		str	r4, [sp]
 325 004e 0B48     		ldr	r0, .L27+24
 326 0050 0B4B     		ldr	r3, .L27+28
 327 0052 4FF42671 		mov	r1, #664
 328 0056 4022     		movs	r2, #64
 329 0058 FFF7FEFF 		bl	chThdCreateStatic
 330              	.LVL25:
 331              		.loc 1 411 0
 332 005c 2046     		mov	r0, r4
 333              	.L22:
 334              		.loc 1 412 0
 335 005e 02B0     		add	sp, sp, #8
 336              		.cfi_def_cfa_offset 16
 337              		@ sp needed
 338 0060 70BD     		pop	{r4, r5, r6, pc}
 339              	.LVL26:
 340              	.L28:
 341 0062 00BF     		.align	2
 342              	.L27:
ARM GAS  /tmp/ccjPIjVQ.s 			page 7


 343 0064 00000000 		.word	.LANCHOR0
 344 0068 00000000 		.word	.LANCHOR5
 345 006c 00000000 		.word	.LANCHOR4
 346 0070 00000000 		.word	.LANCHOR2
 347 0074 00000000 		.word	.LANCHOR3
 348 0078 00000000 		.word	basicRfRxFrmDoneIsr
 349 007c 00000000 		.word	.LANCHOR6
 350 0080 00000000 		.word	basicRf_thread
 351              		.cfi_endproc
 352              	.LFE260:
 353              		.size	basicRfInit, .-basicRfInit
 354              		.section	.text.basicRfPacketIsReady,"ax",%progbits
 355              		.align	2
 356              		.p2align 4,,15
 357              		.global	basicRfPacketIsReady
 358              		.thumb
 359              		.thumb_func
 360              		.type	basicRfPacketIsReady, %function
 361              	basicRfPacketIsReady:
 362              	.LFB262:
 363              		.loc 1 503 0
 364              		.cfi_startproc
 365              		@ args = 0, pretend = 0, frame = 0
 366              		@ frame_needed = 0, uses_anonymous_args = 0
 367              		@ link register save eliminated.
 368              		.loc 1 504 0
 369 0000 014B     		ldr	r3, .L30
 370 0002 987B     		ldrb	r0, [r3, #14]	@ zero_extendqisi2
 371              		.loc 1 505 0
 372 0004 7047     		bx	lr
 373              	.L31:
 374 0006 00BF     		.align	2
 375              	.L30:
 376 0008 00000000 		.word	.LANCHOR2
 377              		.cfi_endproc
 378              	.LFE262:
 379              		.size	basicRfPacketIsReady, .-basicRfPacketIsReady
 380              		.section	.text.basicRfReceive,"ax",%progbits
 381              		.align	2
 382              		.p2align 4,,15
 383              		.global	basicRfReceive
 384              		.thumb
 385              		.thumb_func
 386              		.type	basicRfReceive, %function
 387              	basicRfReceive:
 388              	.LFB263:
 389              		.loc 1 522 0
 390              		.cfi_startproc
 391              		@ args = 0, pretend = 0, frame = 0
 392              		@ frame_needed = 0, uses_anonymous_args = 0
 393              	.LVL27:
 394 0000 2DE9F041 		push	{r4, r5, r6, r7, r8, lr}
 395              		.cfi_def_cfa_offset 24
 396              		.cfi_offset 4, -24
 397              		.cfi_offset 5, -20
 398              		.cfi_offset 6, -16
 399              		.cfi_offset 7, -12
ARM GAS  /tmp/ccjPIjVQ.s 			page 8


 400              		.cfi_offset 8, -8
 401              		.cfi_offset 14, -4
 402              		.loc 1 527 0
 403 0004 114D     		ldr	r5, .L38
 404              		.loc 1 522 0
 405 0006 8046     		mov	r8, r0
 406 0008 0E46     		mov	r6, r1
 407              		.loc 1 525 0
 408 000a 1148     		ldr	r0, .L38+4
 409              	.LVL28:
 410              		.loc 1 522 0
 411 000c 1746     		mov	r7, r2
 412              		.loc 1 525 0
 413 000e FFF7FEFF 		bl	chMtxLock
 414              	.LVL29:
 415              		.loc 1 527 0
 416 0012 AC68     		ldr	r4, [r5, #8]
 417 0014 A879     		ldrb	r0, [r5, #6]	@ zero_extendqisi2
 418 0016 3146     		mov	r1, r6
 419 0018 FFF7FEFF 		bl	min
 420              	.LVL30:
 421 001c 2146     		mov	r1, r4
 422 001e 0246     		mov	r2, r0
 423 0020 4046     		mov	r0, r8
 424 0022 FFF7FEFF 		bl	memcpy
 425              	.LVL31:
 426              		.loc 1 528 0
 427 0026 37B1     		cbz	r7, .L33
 428              	.LBB12:
 429              	.LBB13:
 430              		.loc 1 554 0
 431 0028 6C7B     		ldrb	r4, [r5, #13]	@ zero_extendqisi2
 432 002a FFF7FEFF 		bl	halRfGetRssiOffset
 433              	.LVL32:
 434 002e E4B2     		uxtb	r4, r4
 435 0030 201A     		subs	r0, r4, r0
 436              	.LBE13:
 437              	.LBE12:
 438              		.loc 1 529 0
 439 0032 40B2     		sxtb	r0, r0
 440 0034 3880     		strh	r0, [r7]	@ movhi
 441              	.L33:
 442              		.loc 1 531 0
 443 0036 0023     		movs	r3, #0
 444              		.loc 1 534 0
 445 0038 0548     		ldr	r0, .L38+4
 446              		.loc 1 531 0
 447 003a AB73     		strb	r3, [r5, #14]
 448              		.loc 1 534 0
 449 003c FFF7FEFF 		bl	chMtxUnlock
 450              	.LVL33:
 451              		.loc 1 536 0
 452 0040 A879     		ldrb	r0, [r5, #6]	@ zero_extendqisi2
 453 0042 3146     		mov	r1, r6
 454              		.loc 1 537 0
 455 0044 BDE8F041 		pop	{r4, r5, r6, r7, r8, lr}
 456              		.cfi_restore 14
ARM GAS  /tmp/ccjPIjVQ.s 			page 9


 457              		.cfi_restore 8
 458              		.cfi_restore 7
 459              		.cfi_restore 6
 460              		.cfi_restore 5
 461              		.cfi_restore 4
 462              		.cfi_def_cfa_offset 0
 463              	.LVL34:
 464              		.loc 1 536 0
 465 0048 FFF7FEBF 		b	min
 466              	.LVL35:
 467              	.L39:
 468              		.align	2
 469              	.L38:
 470 004c 00000000 		.word	.LANCHOR2
 471 0050 00000000 		.word	.LANCHOR0
 472              		.cfi_endproc
 473              	.LFE263:
 474              		.size	basicRfReceive, .-basicRfReceive
 475              		.section	.text.basicRfGetSouceAddress,"ax",%progbits
 476              		.align	2
 477              		.p2align 4,,15
 478              		.global	basicRfGetSouceAddress
 479              		.thumb
 480              		.thumb_func
 481              		.type	basicRfGetSouceAddress, %function
 482              	basicRfGetSouceAddress:
 483              	.LFB264:
 484              		.loc 1 540 0
 485              		.cfi_startproc
 486              		@ args = 0, pretend = 0, frame = 0
 487              		@ frame_needed = 0, uses_anonymous_args = 0
 488              		@ link register save eliminated.
 489              		.loc 1 541 0
 490 0000 014B     		ldr	r3, .L41
 491 0002 5888     		ldrh	r0, [r3, #2]
 492              		.loc 1 542 0
 493 0004 80B2     		uxth	r0, r0
 494 0006 7047     		bx	lr
 495              	.L42:
 496              		.align	2
 497              	.L41:
 498 0008 00000000 		.word	.LANCHOR2
 499              		.cfi_endproc
 500              	.LFE264:
 501              		.size	basicRfGetSouceAddress, .-basicRfGetSouceAddress
 502              		.section	.text.basicRfGetRssi,"ax",%progbits
 503              		.align	2
 504              		.p2align 4,,15
 505              		.global	basicRfGetRssi
 506              		.thumb
 507              		.thumb_func
 508              		.type	basicRfGetRssi, %function
 509              	basicRfGetRssi:
 510              	.LFB265:
 511              		.loc 1 553 0
 512              		.cfi_startproc
 513              		@ args = 0, pretend = 0, frame = 0
ARM GAS  /tmp/ccjPIjVQ.s 			page 10


 514              		@ frame_needed = 0, uses_anonymous_args = 0
 515 0000 10B5     		push	{r4, lr}
 516              		.cfi_def_cfa_offset 8
 517              		.cfi_offset 4, -8
 518              		.cfi_offset 14, -4
 519              		.loc 1 554 0
 520 0002 044B     		ldr	r3, .L45
 521 0004 5C7B     		ldrb	r4, [r3, #13]	@ zero_extendqisi2
 522 0006 FFF7FEFF 		bl	halRfGetRssiOffset
 523              	.LVL36:
 524 000a E4B2     		uxtb	r4, r4
 525 000c 201A     		subs	r0, r4, r0
 526              		.loc 1 555 0
 527 000e 40B2     		sxtb	r0, r0
 528 0010 10BD     		pop	{r4, pc}
 529              	.L46:
 530 0012 00BF     		.align	2
 531              	.L45:
 532 0014 00000000 		.word	.LANCHOR2
 533              		.cfi_endproc
 534              	.LFE265:
 535              		.size	basicRfGetRssi, .-basicRfGetRssi
 536              		.section	.text.basicRfReceiveOn,"ax",%progbits
 537              		.align	2
 538              		.p2align 4,,15
 539              		.global	basicRfReceiveOn
 540              		.thumb
 541              		.thumb_func
 542              		.type	basicRfReceiveOn, %function
 543              	basicRfReceiveOn:
 544              	.LFB266:
 545              		.loc 1 566 0
 546              		.cfi_startproc
 547              		@ args = 0, pretend = 0, frame = 0
 548              		@ frame_needed = 0, uses_anonymous_args = 0
 549 0000 10B5     		push	{r4, lr}
 550              		.cfi_def_cfa_offset 8
 551              		.cfi_offset 4, -8
 552              		.cfi_offset 14, -4
 553              		.loc 1 567 0
 554 0002 074C     		ldr	r4, .L49
 555 0004 2046     		mov	r0, r4
 556 0006 FFF7FEFF 		bl	chMtxLock
 557              	.LVL37:
 558              		.loc 1 568 0
 559 000a 064B     		ldr	r3, .L49+4
 560 000c 0122     		movs	r2, #1
 561 000e 9A70     		strb	r2, [r3, #2]
 562              		.loc 1 569 0
 563 0010 FFF7FEFF 		bl	halRfReceiveOn
 564              	.LVL38:
 565              		.loc 1 570 0
 566 0014 2046     		mov	r0, r4
 567              		.loc 1 571 0
 568 0016 BDE81040 		pop	{r4, lr}
 569              		.cfi_restore 14
 570              		.cfi_restore 4
ARM GAS  /tmp/ccjPIjVQ.s 			page 11


 571              		.cfi_def_cfa_offset 0
 572              		.loc 1 570 0
 573 001a FFF7FEBF 		b	chMtxUnlock
 574              	.LVL39:
 575              	.L50:
 576 001e 00BF     		.align	2
 577              	.L49:
 578 0020 00000000 		.word	.LANCHOR0
 579 0024 00000000 		.word	.LANCHOR3
 580              		.cfi_endproc
 581              	.LFE266:
 582              		.size	basicRfReceiveOn, .-basicRfReceiveOn
 583              		.section	.text.basicRfReceiveOff,"ax",%progbits
 584              		.align	2
 585              		.p2align 4,,15
 586              		.global	basicRfReceiveOff
 587              		.thumb
 588              		.thumb_func
 589              		.type	basicRfReceiveOff, %function
 590              	basicRfReceiveOff:
 591              	.LFB267:
 592              		.loc 1 583 0
 593              		.cfi_startproc
 594              		@ args = 0, pretend = 0, frame = 0
 595              		@ frame_needed = 0, uses_anonymous_args = 0
 596 0000 10B5     		push	{r4, lr}
 597              		.cfi_def_cfa_offset 8
 598              		.cfi_offset 4, -8
 599              		.cfi_offset 14, -4
 600              		.loc 1 584 0
 601 0002 074C     		ldr	r4, .L53
 602 0004 2046     		mov	r0, r4
 603 0006 FFF7FEFF 		bl	chMtxLock
 604              	.LVL40:
 605              		.loc 1 585 0
 606 000a 064B     		ldr	r3, .L53+4
 607 000c 0022     		movs	r2, #0
 608 000e 9A70     		strb	r2, [r3, #2]
 609              		.loc 1 586 0
 610 0010 FFF7FEFF 		bl	halRfReceiveOff
 611              	.LVL41:
 612              		.loc 1 587 0
 613 0014 2046     		mov	r0, r4
 614              		.loc 1 588 0
 615 0016 BDE81040 		pop	{r4, lr}
 616              		.cfi_restore 14
 617              		.cfi_restore 4
 618              		.cfi_def_cfa_offset 0
 619              		.loc 1 587 0
 620 001a FFF7FEBF 		b	chMtxUnlock
 621              	.LVL42:
 622              	.L54:
 623 001e 00BF     		.align	2
 624              	.L53:
 625 0020 00000000 		.word	.LANCHOR0
 626 0024 00000000 		.word	.LANCHOR3
 627              		.cfi_endproc
ARM GAS  /tmp/ccjPIjVQ.s 			page 12


 628              	.LFE267:
 629              		.size	basicRfReceiveOff, .-basicRfReceiveOff
 630              		.section	.text.basicRfSendPacket,"ax",%progbits
 631              		.align	2
 632              		.p2align 4,,15
 633              		.global	basicRfSendPacket
 634              		.thumb
 635              		.thumb_func
 636              		.type	basicRfSendPacket, %function
 637              	basicRfSendPacket:
 638              	.LFB261:
 639              		.loc 1 428 0
 640              		.cfi_startproc
 641              		@ args = 0, pretend = 0, frame = 0
 642              		@ frame_needed = 0, uses_anonymous_args = 0
 643              	.LVL43:
 644 0000 2DE9F041 		push	{r4, r5, r6, r7, r8, lr}
 645              		.cfi_def_cfa_offset 24
 646              		.cfi_offset 4, -24
 647              		.cfi_offset 5, -20
 648              		.cfi_offset 6, -16
 649              		.cfi_offset 7, -12
 650              		.cfi_offset 8, -8
 651              		.cfi_offset 14, -4
 652              		.loc 1 435 0
 653 0004 364D     		ldr	r5, .L74
 654              		.loc 1 428 0
 655 0006 8046     		mov	r8, r0
 656              	.LVL44:
 657              		.loc 1 432 0
 658 0008 3648     		ldr	r0, .L74+4
 659              	.LVL45:
 660              		.loc 1 428 0
 661 000a 0C46     		mov	r4, r1
 662 000c 1746     		mov	r7, r2
 663              		.loc 1 432 0
 664 000e FFF7FEFF 		bl	chMtxLock
 665              	.LVL46:
 666              		.loc 1 435 0
 667 0012 AB78     		ldrb	r3, [r5, #2]	@ zero_extendqisi2
 668 0014 002B     		cmp	r3, #0
 669 0016 5FD0     		beq	.L72
 670              	.L56:
 671              		.loc 1 440 0
 672 0018 3846     		mov	r0, r7
 673 001a 6721     		movs	r1, #103
 674              	.LBB18:
 675              	.LBB19:
 676              	.LBB20:
 677              	.LBB21:
 678              		.loc 1 185 0
 679 001c 324E     		ldr	r6, .L74+8
 680              	.LBE21:
 681              	.LBE20:
 682              	.LBE19:
 683              	.LBE18:
 684              		.loc 1 440 0
ARM GAS  /tmp/ccjPIjVQ.s 			page 13


 685 001e FFF7FEFF 		bl	min
 686              	.LVL47:
 687              	.LBB29:
 688              	.LBB26:
 689              	.LBB24:
 690              	.LBB22:
 691              		.loc 1 185 0
 692 0022 3268     		ldr	r2, [r6]
 693              		.loc 1 183 0
 694 0024 314B     		ldr	r3, .L74+12
 695              	.LBE22:
 696              	.LBE24:
 697              	.LBE26:
 698              	.LBE29:
 699              		.loc 1 440 0
 700 0026 0746     		mov	r7, r0
 701              	.LVL48:
 702              	.LBB30:
 703              	.LBB27:
 704              	.LBB25:
 705              	.LBB23:
 706              		.loc 1 185 0
 707 0028 5079     		ldrb	r0, [r2, #5]	@ zero_extendqisi2
 708              		.loc 1 188 0
 709 002a 2978     		ldrb	r1, [r5]	@ zero_extendqisi2
 710 002c D970     		strb	r1, [r3, #3]
 711              		.loc 1 187 0
 712 002e 8821     		movs	r1, #136
 713              		.loc 1 185 0
 714 0030 0028     		cmp	r0, #0
 715              		.loc 1 187 0
 716 0032 9970     		strb	r1, [r3, #2]
 717              		.loc 1 189 0
 718 0034 5188     		ldrh	r1, [r2, #2]
 719 0036 9980     		strh	r1, [r3, #4]	@ movhi
 720              		.loc 1 185 0
 721 0038 14BF     		ite	ne
 722 003a 4FF0610E 		movne	lr, #97
 723 003e 4FF0410E 		moveq	lr, #65
 724              		.loc 1 183 0
 725 0042 07F10B00 		add	r0, r7, #11
 726              		.loc 1 186 0
 727 0046 83F801E0 		strb	lr, [r3, #1]
 728              		.loc 1 183 0
 729 004a 1870     		strb	r0, [r3]
 730              		.loc 1 190 0
 731 004c A3F80680 		strh	r8, [r3, #6]	@ movhi
 732              		.loc 1 191 0
 733 0050 1288     		ldrh	r2, [r2]
 734 0052 1A81     		strh	r2, [r3, #8]	@ movhi
 735              	.LVL49:
 736              	.LBE23:
 737              	.LBE25:
 738              		.loc 1 234 0
 739 0054 5FB1     		cbz	r7, .L62
 740 0056 781E     		subs	r0, r7, #1
 741 0058 C0B2     		uxtb	r0, r0
ARM GAS  /tmp/ccjPIjVQ.s 			page 14


 742 005a 0A30     		adds	r0, r0, #10
 743 005c 1844     		add	r0, r0, r3
 744 005e 621E     		subs	r2, r4, #1
 745 0060 0933     		adds	r3, r3, #9
 746              	.LVL50:
 747              	.L61:
 748              		.loc 1 235 0
 749 0062 12F8011F 		ldrb	r1, [r2, #1]!	@ zero_extendqisi2
 750              	.LVL51:
 751 0066 03F8011F 		strb	r1, [r3, #1]!
 752              	.LVL52:
 753              		.loc 1 234 0
 754 006a 8342     		cmp	r3, r0
 755 006c F9D1     		bne	.L61
 756              	.LVL53:
 757              	.L62:
 758              	.LBE27:
 759              	.LBE30:
 760              		.loc 1 444 0
 761 006e 2048     		ldr	r0, .L74+16
 762 0070 FFF7FEFF 		bl	chMtxLock
 763              	.LVL54:
 764              		.loc 1 445 0
 765 0074 FFF7FEFF 		bl	halRfWaitTransceiverReady
 766              	.LVL55:
 767              	.LBB31:
 768              	.LBB28:
 769              		.loc 1 238 0
 770 0078 07F10A01 		add	r1, r7, #10
 771              	.LBE28:
 772              	.LBE31:
 773              		.loc 1 451 0
 774 007c C9B2     		uxtb	r1, r1
 775 007e 1B48     		ldr	r0, .L74+12
 776 0080 FFF7FEFF 		bl	halRfWriteTxBuf
 777              	.LVL56:
 778              		.loc 1 455 0
 779 0084 FFF7FEFF 		bl	halRfTransmit
 780              	.LVL57:
 781 0088 0746     		mov	r7, r0
 782              	.LVL58:
 783 008a 98B1     		cbz	r0, .L73
 784              	.LVL59:
 785              		.loc 1 459 0
 786 008c 1848     		ldr	r0, .L74+16
 787 008e FFF7FEFF 		bl	chMtxUnlock
 788              	.LVL60:
 789              		.loc 1 462 0
 790 0092 3368     		ldr	r3, [r6]
 791 0094 5B79     		ldrb	r3, [r3, #5]	@ zero_extendqisi2
 792              		.loc 1 456 0
 793 0096 0124     		movs	r4, #1
 794              	.LVL61:
 795              	.L64:
 796              		.loc 1 476 0
 797 0098 AB78     		ldrb	r3, [r5, #2]	@ zero_extendqisi2
 798 009a 0BB9     		cbnz	r3, .L63
ARM GAS  /tmp/ccjPIjVQ.s 			page 15


 799              		.loc 1 477 0
 800 009c FFF7FEFF 		bl	basicRfReceiveOff
 801              	.LVL62:
 802              	.L63:
 803              		.loc 1 480 0
 804 00a0 2B78     		ldrb	r3, [r5]	@ zero_extendqisi2
 805              		.loc 1 488 0
 806 00a2 1048     		ldr	r0, .L74+4
 807              		.loc 1 480 0
 808 00a4 0133     		adds	r3, r3, #1
 809 00a6 DBB2     		uxtb	r3, r3
 810 00a8 2B70     		strb	r3, [r5]
 811              		.loc 1 488 0
 812 00aa FFF7FEFF 		bl	chMtxUnlock
 813              	.LVL63:
 814              		.loc 1 491 0
 815 00ae 2046     		mov	r0, r4
 816 00b0 BDE8F081 		pop	{r4, r5, r6, r7, r8, pc}
 817              	.LVL64:
 818              	.L73:
 819              		.loc 1 459 0
 820 00b4 0E48     		ldr	r0, .L74+16
 821 00b6 FFF7FEFF 		bl	chMtxUnlock
 822              	.LVL65:
 823              		.loc 1 462 0
 824 00ba 3368     		ldr	r3, [r6]
 825 00bc 5B79     		ldrb	r3, [r3, #5]	@ zero_extendqisi2
 826 00be 03F0FF04 		and	r4, r3, #255
 827              	.LVL66:
 828 00c2 002B     		cmp	r3, #0
 829 00c4 E8D0     		beq	.L64
 830              		.loc 1 469 0
 831 00c6 0620     		movs	r0, #6
 832              		.loc 1 463 0
 833 00c8 6F70     		strb	r7, [r5, #1]
 834              		.loc 1 469 0
 835 00ca FFF7FEFF 		bl	chThdSleep
 836              	.LVL67:
 837              		.loc 1 472 0
 838 00ce 6C78     		ldrb	r4, [r5, #1]	@ zero_extendqisi2
 839 00d0 B4FA84F4 		clz	r4, r4
 840 00d4 6409     		lsrs	r4, r4, #5
 841              	.LVL68:
 842 00d6 DFE7     		b	.L64
 843              	.LVL69:
 844              	.L72:
 845              		.loc 1 436 0
 846 00d8 FFF7FEFF 		bl	basicRfReceiveOn
 847              	.LVL70:
 848 00dc 9CE7     		b	.L56
 849              	.L75:
 850 00de 00BF     		.align	2
 851              	.L74:
 852 00e0 00000000 		.word	.LANCHOR3
 853 00e4 00000000 		.word	.LANCHOR4
 854 00e8 00000000 		.word	.LANCHOR5
 855 00ec 00000000 		.word	.LANCHOR7
ARM GAS  /tmp/ccjPIjVQ.s 			page 16


 856 00f0 00000000 		.word	.LANCHOR0
 857              		.cfi_endproc
 858              	.LFE261:
 859              		.size	basicRfSendPacket, .-basicRfSendPacket
 860              		.section	.text.basicRfGetExceptionRegister,"ax",%progbits
 861              		.align	2
 862              		.p2align 4,,15
 863              		.global	basicRfGetExceptionRegister
 864              		.thumb
 865              		.thumb_func
 866              		.type	basicRfGetExceptionRegister, %function
 867              	basicRfGetExceptionRegister:
 868              	.LFB268:
 869              		.loc 1 592 0
 870              		.cfi_startproc
 871              		@ args = 0, pretend = 0, frame = 0
 872              		@ frame_needed = 0, uses_anonymous_args = 0
 873              	.LVL71:
 874 0000 38B5     		push	{r3, r4, r5, lr}
 875              		.cfi_def_cfa_offset 16
 876              		.cfi_offset 3, -16
 877              		.cfi_offset 4, -12
 878              		.cfi_offset 5, -8
 879              		.cfi_offset 14, -4
 880              		.loc 1 593 0
 881 0002 084D     		ldr	r5, .L78
 882              		.loc 1 592 0
 883 0004 0446     		mov	r4, r0
 884              		.loc 1 593 0
 885 0006 2846     		mov	r0, r5
 886              	.LVL72:
 887 0008 FFF7FEFF 		bl	chMtxLock
 888              	.LVL73:
 889              		.loc 1 594 0
 890 000c 04F11000 		add	r0, r4, #16
 891 0010 C0B2     		uxtb	r0, r0
 892 0012 FFF7FEFF 		bl	CC2520_REGRD8
 893              	.LVL74:
 894 0016 0446     		mov	r4, r0
 895              	.LVL75:
 896              		.loc 1 595 0
 897 0018 2846     		mov	r0, r5
 898 001a FFF7FEFF 		bl	chMtxUnlock
 899              	.LVL76:
 900              		.loc 1 597 0
 901 001e 2046     		mov	r0, r4
 902 0020 38BD     		pop	{r3, r4, r5, pc}
 903              	.LVL77:
 904              	.L79:
 905 0022 00BF     		.align	2
 906              	.L78:
 907 0024 00000000 		.word	.LANCHOR0
 908              		.cfi_endproc
 909              	.LFE268:
 910              		.size	basicRfGetExceptionRegister, .-basicRfGetExceptionRegister
 911              		.section	.text.basicRfClearException,"ax",%progbits
 912              		.align	2
ARM GAS  /tmp/ccjPIjVQ.s 			page 17


 913              		.p2align 4,,15
 914              		.global	basicRfClearException
 915              		.thumb
 916              		.thumb_func
 917              		.type	basicRfClearException, %function
 918              	basicRfClearException:
 919              	.LFB269:
 920              		.loc 1 599 0
 921              		.cfi_startproc
 922              		@ args = 0, pretend = 0, frame = 0
 923              		@ frame_needed = 0, uses_anonymous_args = 0
 924              	.LVL78:
 925 0000 38B5     		push	{r3, r4, r5, lr}
 926              		.cfi_def_cfa_offset 16
 927              		.cfi_offset 3, -16
 928              		.cfi_offset 4, -12
 929              		.cfi_offset 5, -8
 930              		.cfi_offset 14, -4
 931              		.loc 1 600 0
 932 0002 094D     		ldr	r5, .L82
 933              		.loc 1 599 0
 934 0004 0446     		mov	r4, r0
 935              		.loc 1 600 0
 936 0006 2846     		mov	r0, r5
 937              	.LVL79:
 938 0008 FFF7FEFF 		bl	chMtxLock
 939              	.LVL80:
 940              		.loc 1 601 0
 941 000c 04F01800 		and	r0, r4, #24
 942 0010 8030     		adds	r0, r0, #128
 943 0012 04F00704 		and	r4, r4, #7
 944 0016 2043     		orrs	r0, r0, r4
 945 0018 C0B2     		uxtb	r0, r0
 946 001a FFF7FEFF 		bl	CC2520_BCLR
 947              	.LVL81:
 948              		.loc 1 602 0
 949 001e 2846     		mov	r0, r5
 950              		.loc 1 603 0
 951 0020 BDE83840 		pop	{r3, r4, r5, lr}
 952              		.cfi_restore 14
 953              		.cfi_restore 5
 954              		.cfi_restore 4
 955              		.cfi_restore 3
 956              		.cfi_def_cfa_offset 0
 957              		.loc 1 602 0
 958 0024 FFF7FEBF 		b	chMtxUnlock
 959              	.LVL82:
 960              	.L83:
 961              		.align	2
 962              	.L82:
 963 0028 00000000 		.word	.LANCHOR0
 964              		.cfi_endproc
 965              	.LFE269:
 966              		.size	basicRfClearException, .-basicRfClearException
 967              		.section	.text.basicRfFlushRx,"ax",%progbits
 968              		.align	2
 969              		.p2align 4,,15
ARM GAS  /tmp/ccjPIjVQ.s 			page 18


 970              		.global	basicRfFlushRx
 971              		.thumb
 972              		.thumb_func
 973              		.type	basicRfFlushRx, %function
 974              	basicRfFlushRx:
 975              	.LFB270:
 976              		.loc 1 605 0
 977              		.cfi_startproc
 978              		@ args = 0, pretend = 0, frame = 0
 979              		@ frame_needed = 0, uses_anonymous_args = 0
 980 0000 10B5     		push	{r4, lr}
 981              		.cfi_def_cfa_offset 8
 982              		.cfi_offset 4, -8
 983              		.cfi_offset 14, -4
 984              		.loc 1 606 0
 985 0002 054C     		ldr	r4, .L86
 986 0004 2046     		mov	r0, r4
 987 0006 FFF7FEFF 		bl	chMtxLock
 988              	.LVL83:
 989              		.loc 1 607 0
 990 000a FFF7FEFF 		bl	halRfFlushRx
 991              	.LVL84:
 992              		.loc 1 608 0
 993 000e 2046     		mov	r0, r4
 994              		.loc 1 609 0
 995 0010 BDE81040 		pop	{r4, lr}
 996              		.cfi_restore 14
 997              		.cfi_restore 4
 998              		.cfi_def_cfa_offset 0
 999              		.loc 1 608 0
 1000 0014 FFF7FEBF 		b	chMtxUnlock
 1001              	.LVL85:
 1002              	.L87:
 1003              		.align	2
 1004              	.L86:
 1005 0018 00000000 		.word	.LANCHOR0
 1006              		.cfi_endproc
 1007              	.LFE270:
 1008              		.size	basicRfFlushRx, .-basicRfFlushRx
 1009              		.section	.bss.rxi,"aw",%nobits
 1010              		.align	2
 1011              		.set	.LANCHOR2,. + 0
 1012              		.type	rxi, %object
 1013              		.size	rxi, 16
 1014              	rxi:
 1015 0000 00000000 		.space	16
 1015      00000000 
 1015      00000000 
 1015      00000000 
 1016              		.section	.bss.rxMpdu,"aw",%nobits
 1017              		.align	2
 1018              		.set	.LANCHOR1,. + 0
 1019              		.type	rxMpdu, %object
 1020              		.size	rxMpdu, 128
 1021              	rxMpdu:
 1022 0000 00000000 		.space	128
 1022      00000000 
ARM GAS  /tmp/ccjPIjVQ.s 			page 19


 1022      00000000 
 1022      00000000 
 1022      00000000 
 1023              		.section	.bss.basicRf_thread_wa,"aw",%nobits
 1024              		.align	3
 1025              		.set	.LANCHOR6,. + 0
 1026              		.type	basicRf_thread_wa, %object
 1027              		.size	basicRf_thread_wa, 664
 1028              	basicRf_thread_wa:
 1029 0000 00000000 		.space	664
 1029      00000000 
 1029      00000000 
 1029      00000000 
 1029      00000000 
 1030              		.section	.bss.rf_send_mutex,"aw",%nobits
 1031              		.align	2
 1032              		.set	.LANCHOR4,. + 0
 1033              		.type	rf_send_mutex, %object
 1034              		.size	rf_send_mutex, 16
 1035              	rf_send_mutex:
 1036 0000 00000000 		.space	16
 1036      00000000 
 1036      00000000 
 1036      00000000 
 1037              		.section	.rodata.str1.4,"aMS",%progbits,1
 1038              		.align	2
 1039              	.LC0:
 1040 0000 43433235 		.ascii	"CC2520 EXC\000"
 1040      32302045 
 1040      584300
 1041              		.section	.bss.txState,"aw",%nobits
 1042              		.align	2
 1043              		.set	.LANCHOR3,. + 0
 1044              		.type	txState, %object
 1045              		.size	txState, 8
 1046              	txState:
 1047 0000 00000000 		.space	8
 1047      00000000 
 1048              		.section	.bss.rf_mutex,"aw",%nobits
 1049              		.align	2
 1050              		.set	.LANCHOR0,. + 0
 1051              		.type	rf_mutex, %object
 1052              		.size	rf_mutex, 16
 1053              	rf_mutex:
 1054 0000 00000000 		.space	16
 1054      00000000 
 1054      00000000 
 1054      00000000 
 1055              		.section	.bss.pConfig,"aw",%nobits
 1056              		.align	2
 1057              		.set	.LANCHOR5,. + 0
 1058              		.type	pConfig, %object
 1059              		.size	pConfig, 4
 1060              	pConfig:
 1061 0000 00000000 		.space	4
 1062              		.section	.bss.txMpdu,"aw",%nobits
 1063              		.align	2
ARM GAS  /tmp/ccjPIjVQ.s 			page 20


 1064              		.set	.LANCHOR7,. + 0
 1065              		.type	txMpdu, %object
 1066              		.size	txMpdu, 115
 1067              	txMpdu:
 1068 0000 00000000 		.space	115
 1068      00000000 
 1068      00000000 
 1068      00000000 
 1068      00000000 
 1069              		.text
 1070              	.Letext0:
 1071              		.file 3 "/usr/arm-none-eabi/include/machine/_default_types.h"
 1072              		.file 4 "/usr/arm-none-eabi/include/sys/_stdint.h"
 1073              		.file 5 "/usr/lib/gcc/arm-none-eabi/4.9.3/include/stddef.h"
 1074              		.file 6 "ChibiOS_3.0.2/os/rt/ports/ARMCMx/compilers/GCC/chtypes.h"
 1075              		.file 7 "ChibiOS_3.0.2/os/rt/include/chsystypes.h"
 1076              		.file 8 "ChibiOS_3.0.2/os/rt/include/chschd.h"
 1077              		.file 9 "ChibiOS_3.0.2/os/rt/ports/ARMCMx/chcore.h"
 1078              		.file 10 "ChibiOS_3.0.2/os/rt/ports/ARMCMx/chcore_v7m.h"
 1079              		.file 11 "ChibiOS_3.0.2/os/rt/include/chtm.h"
 1080              		.file 12 "ChibiOS_3.0.2/os/rt/include/chsem.h"
 1081              		.file 13 "ChibiOS_3.0.2/os/rt/include/chmtx.h"
 1082              		.file 14 "ChibiOS_3.0.2/os/rt/include/chthreads.h"
 1083              		.file 15 "ChibiOS_3.0.2/os/hal/ports/STM32/LLD/GPIOv2/pal_lld.h"
 1084              		.file 16 "cc2520/driver/hal_types.h"
 1085              		.file 17 "cc2520/basicrf/basic_rf.h"
 1086              		.file 18 "cc2520/driver/hal_rf.h"
 1087              		.file 19 "cc2520/driver/hal_cc2520.h"
 1088              		.file 20 "ChibiOS_3.0.2/os/ext/CMSIS/include/core_cm4.h"
 1089              		.file 21 "cc2520/driver/util.h"