ARM GAS  /tmp/cccJA4Ha.s 			page 1


   1              		.syntax unified
   2              		.cpu cortex-m4
   3              		.eabi_attribute 27, 1
   4              		.eabi_attribute 28, 1
   5              		.fpu fpv4-sp-d16
   6              		.eabi_attribute 20, 1
   7              		.eabi_attribute 21, 1
   8              		.eabi_attribute 23, 3
   9              		.eabi_attribute 24, 1
  10              		.eabi_attribute 25, 1
  11              		.eabi_attribute 26, 1
  12              		.eabi_attribute 30, 2
  13              		.eabi_attribute 34, 1
  14              		.eabi_attribute 18, 4
  15              		.thumb
  16              		.file	"buffer.c"
  17              		.text
  18              	.Ltext0:
  19              		.cfi_sections	.debug_frame
  20              		.section	.text.buffer_append_int16,"ax",%progbits
  21              		.align	2
  22              		.p2align 4,,15
  23              		.global	buffer_append_int16
  24              		.thumb
  25              		.thumb_func
  26              		.type	buffer_append_int16, %function
  27              	buffer_append_int16:
  28              	.LFB0:
  29              		.file 1 "buffer.c"
  30              		.loc 1 27 0
  31              		.cfi_startproc
  32              		@ args = 0, pretend = 0, frame = 0
  33              		@ frame_needed = 0, uses_anonymous_args = 0
  34              		@ link register save eliminated.
  35              	.LVL0:
  36              		.loc 1 28 0
  37 0000 1368     		ldr	r3, [r2]
  38              		.loc 1 27 0
  39 0002 30B4     		push	{r4, r5}
  40              		.cfi_def_cfa_offset 8
  41              		.cfi_offset 4, -8
  42              		.cfi_offset 5, -4
  43              		.loc 1 28 0
  44 0004 5D1C     		adds	r5, r3, #1
  45 0006 0C12     		asrs	r4, r1, #8
  46 0008 1560     		str	r5, [r2]
  47 000a C454     		strb	r4, [r0, r3]
  48              		.loc 1 29 0
  49 000c 1368     		ldr	r3, [r2]
  50 000e 5C1C     		adds	r4, r3, #1
  51 0010 1460     		str	r4, [r2]
  52 0012 C154     		strb	r1, [r0, r3]
  53              		.loc 1 30 0
  54 0014 30BC     		pop	{r4, r5}
  55              		.cfi_restore 5
  56              		.cfi_restore 4
  57              		.cfi_def_cfa_offset 0
ARM GAS  /tmp/cccJA4Ha.s 			page 2


  58 0016 7047     		bx	lr
  59              		.cfi_endproc
  60              	.LFE0:
  61              		.size	buffer_append_int16, .-buffer_append_int16
  62              		.section	.text.buffer_append_uint16,"ax",%progbits
  63              		.align	2
  64              		.p2align 4,,15
  65              		.global	buffer_append_uint16
  66              		.thumb
  67              		.thumb_func
  68              		.type	buffer_append_uint16, %function
  69              	buffer_append_uint16:
  70              	.LFB1:
  71              		.loc 1 32 0
  72              		.cfi_startproc
  73              		@ args = 0, pretend = 0, frame = 0
  74              		@ frame_needed = 0, uses_anonymous_args = 0
  75              		@ link register save eliminated.
  76              	.LVL1:
  77              		.loc 1 33 0
  78 0000 1368     		ldr	r3, [r2]
  79              		.loc 1 32 0
  80 0002 30B4     		push	{r4, r5}
  81              		.cfi_def_cfa_offset 8
  82              		.cfi_offset 4, -8
  83              		.cfi_offset 5, -4
  84              		.loc 1 33 0
  85 0004 5D1C     		adds	r5, r3, #1
  86 0006 0C0A     		lsrs	r4, r1, #8
  87 0008 1560     		str	r5, [r2]
  88 000a C454     		strb	r4, [r0, r3]
  89              		.loc 1 34 0
  90 000c 1368     		ldr	r3, [r2]
  91 000e 5C1C     		adds	r4, r3, #1
  92 0010 1460     		str	r4, [r2]
  93 0012 C154     		strb	r1, [r0, r3]
  94              		.loc 1 35 0
  95 0014 30BC     		pop	{r4, r5}
  96              		.cfi_restore 5
  97              		.cfi_restore 4
  98              		.cfi_def_cfa_offset 0
  99 0016 7047     		bx	lr
 100              		.cfi_endproc
 101              	.LFE1:
 102              		.size	buffer_append_uint16, .-buffer_append_uint16
 103              		.section	.text.buffer_append_int32,"ax",%progbits
 104              		.align	2
 105              		.p2align 4,,15
 106              		.global	buffer_append_int32
 107              		.thumb
 108              		.thumb_func
 109              		.type	buffer_append_int32, %function
 110              	buffer_append_int32:
 111              	.LFB2:
 112              		.loc 1 37 0
 113              		.cfi_startproc
 114              		@ args = 0, pretend = 0, frame = 0
ARM GAS  /tmp/cccJA4Ha.s 			page 3


 115              		@ frame_needed = 0, uses_anonymous_args = 0
 116              		@ link register save eliminated.
 117              	.LVL2:
 118              		.loc 1 38 0
 119 0000 1368     		ldr	r3, [r2]
 120              		.loc 1 37 0
 121 0002 30B4     		push	{r4, r5}
 122              		.cfi_def_cfa_offset 8
 123              		.cfi_offset 4, -8
 124              		.cfi_offset 5, -4
 125              		.loc 1 38 0
 126 0004 5D1C     		adds	r5, r3, #1
 127 0006 0C16     		asrs	r4, r1, #24
 128 0008 1560     		str	r5, [r2]
 129 000a C454     		strb	r4, [r0, r3]
 130              		.loc 1 39 0
 131 000c 1368     		ldr	r3, [r2]
 132 000e 0C14     		asrs	r4, r1, #16
 133 0010 5D1C     		adds	r5, r3, #1
 134 0012 1560     		str	r5, [r2]
 135 0014 C454     		strb	r4, [r0, r3]
 136              		.loc 1 40 0
 137 0016 1368     		ldr	r3, [r2]
 138 0018 0C12     		asrs	r4, r1, #8
 139 001a 5D1C     		adds	r5, r3, #1
 140 001c 1560     		str	r5, [r2]
 141 001e C454     		strb	r4, [r0, r3]
 142              		.loc 1 41 0
 143 0020 1368     		ldr	r3, [r2]
 144 0022 5C1C     		adds	r4, r3, #1
 145 0024 1460     		str	r4, [r2]
 146 0026 C154     		strb	r1, [r0, r3]
 147              		.loc 1 42 0
 148 0028 30BC     		pop	{r4, r5}
 149              		.cfi_restore 5
 150              		.cfi_restore 4
 151              		.cfi_def_cfa_offset 0
 152 002a 7047     		bx	lr
 153              		.cfi_endproc
 154              	.LFE2:
 155              		.size	buffer_append_int32, .-buffer_append_int32
 156              		.section	.text.buffer_append_uint32,"ax",%progbits
 157              		.align	2
 158              		.p2align 4,,15
 159              		.global	buffer_append_uint32
 160              		.thumb
 161              		.thumb_func
 162              		.type	buffer_append_uint32, %function
 163              	buffer_append_uint32:
 164              	.LFB3:
 165              		.loc 1 44 0
 166              		.cfi_startproc
 167              		@ args = 0, pretend = 0, frame = 0
 168              		@ frame_needed = 0, uses_anonymous_args = 0
 169              		@ link register save eliminated.
 170              	.LVL3:
 171              		.loc 1 45 0
ARM GAS  /tmp/cccJA4Ha.s 			page 4


 172 0000 1368     		ldr	r3, [r2]
 173              		.loc 1 44 0
 174 0002 30B4     		push	{r4, r5}
 175              		.cfi_def_cfa_offset 8
 176              		.cfi_offset 4, -8
 177              		.cfi_offset 5, -4
 178              		.loc 1 45 0
 179 0004 5D1C     		adds	r5, r3, #1
 180 0006 0C0E     		lsrs	r4, r1, #24
 181 0008 1560     		str	r5, [r2]
 182 000a C454     		strb	r4, [r0, r3]
 183              		.loc 1 46 0
 184 000c 1368     		ldr	r3, [r2]
 185 000e 0C0C     		lsrs	r4, r1, #16
 186 0010 5D1C     		adds	r5, r3, #1
 187 0012 1560     		str	r5, [r2]
 188 0014 C454     		strb	r4, [r0, r3]
 189              		.loc 1 47 0
 190 0016 1368     		ldr	r3, [r2]
 191 0018 0C0A     		lsrs	r4, r1, #8
 192 001a 5D1C     		adds	r5, r3, #1
 193 001c 1560     		str	r5, [r2]
 194 001e C454     		strb	r4, [r0, r3]
 195              		.loc 1 48 0
 196 0020 1368     		ldr	r3, [r2]
 197 0022 5C1C     		adds	r4, r3, #1
 198 0024 1460     		str	r4, [r2]
 199 0026 C154     		strb	r1, [r0, r3]
 200              		.loc 1 49 0
 201 0028 30BC     		pop	{r4, r5}
 202              		.cfi_restore 5
 203              		.cfi_restore 4
 204              		.cfi_def_cfa_offset 0
 205 002a 7047     		bx	lr
 206              		.cfi_endproc
 207              	.LFE3:
 208              		.size	buffer_append_uint32, .-buffer_append_uint32
 209              		.section	.text.buffer_append_float16,"ax",%progbits
 210              		.align	2
 211              		.p2align 4,,15
 212              		.global	buffer_append_float16
 213              		.thumb
 214              		.thumb_func
 215              		.type	buffer_append_float16, %function
 216              	buffer_append_float16:
 217              	.LFB4:
 218              		.loc 1 51 0
 219              		.cfi_startproc
 220              		@ args = 0, pretend = 0, frame = 8
 221              		@ frame_needed = 0, uses_anonymous_args = 0
 222              		@ link register save eliminated.
 223              	.LVL4:
 224 0000 30B4     		push	{r4, r5}
 225              		.cfi_def_cfa_offset 8
 226              		.cfi_offset 4, -8
 227              		.cfi_offset 5, -4
 228              		.loc 1 52 0
ARM GAS  /tmp/cccJA4Ha.s 			page 5


 229 0002 60EE200A 		fmuls	s1, s0, s1
 230              	.LVL5:
 231              		.loc 1 51 0
 232 0006 82B0     		sub	sp, sp, #8
 233              		.cfi_def_cfa_offset 16
 234              		.loc 1 52 0
 235 0008 FDEEE00A 		ftosizs	s1, s1
 236              	.LBB6:
 237              	.LBB7:
 238              		.loc 1 28 0
 239 000c 0A68     		ldr	r2, [r1]
 240              	.LBE7:
 241              	.LBE6:
 242              		.loc 1 52 0
 243 000e CDED010A 		fsts	s1, [sp, #4]	@ int
 244 0012 BDF80430 		ldrh	r3, [sp, #4]
 245              	.LVL6:
 246              	.LBB9:
 247              	.LBB8:
 248              		.loc 1 28 0
 249 0016 551C     		adds	r5, r2, #1
 250 0018 43F30724 		sbfx	r4, r3, #8, #8
 251 001c 0D60     		str	r5, [r1]
 252 001e 8454     		strb	r4, [r0, r2]
 253              		.loc 1 29 0
 254 0020 0A68     		ldr	r2, [r1]
 255 0022 541C     		adds	r4, r2, #1
 256 0024 0C60     		str	r4, [r1]
 257 0026 8354     		strb	r3, [r0, r2]
 258              	.LBE8:
 259              	.LBE9:
 260              		.loc 1 53 0
 261 0028 02B0     		add	sp, sp, #8
 262              		.cfi_def_cfa_offset 8
 263              		@ sp needed
 264 002a 30BC     		pop	{r4, r5}
 265              		.cfi_restore 5
 266              		.cfi_restore 4
 267              		.cfi_def_cfa_offset 0
 268 002c 7047     		bx	lr
 269              		.cfi_endproc
 270              	.LFE4:
 271              		.size	buffer_append_float16, .-buffer_append_float16
 272 002e 00BF     		.section	.text.buffer_append_float32,"ax",%progbits
 273              		.align	2
 274              		.p2align 4,,15
 275              		.global	buffer_append_float32
 276              		.thumb
 277              		.thumb_func
 278              		.type	buffer_append_float32, %function
 279              	buffer_append_float32:
 280              	.LFB5:
 281              		.loc 1 55 0
 282              		.cfi_startproc
 283              		@ args = 0, pretend = 0, frame = 0
 284              		@ frame_needed = 0, uses_anonymous_args = 0
 285              		@ link register save eliminated.
ARM GAS  /tmp/cccJA4Ha.s 			page 6


 286              	.LVL7:
 287              		.loc 1 56 0
 288 0000 60EE200A 		fmuls	s1, s0, s1
 289              	.LVL8:
 290              		.loc 1 55 0
 291 0004 0A46     		mov	r2, r1
 292              		.loc 1 56 0
 293 0006 FDEEE07A 		ftosizs	s15, s1
 294 000a 17EE901A 		fmrs	r1, s15	@ int
 295              	.LVL9:
 296 000e FFF7FEBF 		b	buffer_append_int32
 297              	.LVL10:
 298              		.cfi_endproc
 299              	.LFE5:
 300              		.size	buffer_append_float32, .-buffer_append_float32
 301 0012 00BF     		.section	.text.buffer_get_int16,"ax",%progbits
 302              		.align	2
 303              		.p2align 4,,15
 304              		.global	buffer_get_int16
 305              		.thumb
 306              		.thumb_func
 307              		.type	buffer_get_int16, %function
 308              	buffer_get_int16:
 309              	.LFB6:
 310              		.loc 1 59 0
 311              		.cfi_startproc
 312              		@ args = 0, pretend = 0, frame = 0
 313              		@ frame_needed = 0, uses_anonymous_args = 0
 314              		@ link register save eliminated.
 315              	.LVL11:
 316              		.loc 1 60 0
 317 0000 0B68     		ldr	r3, [r1]
 318              		.loc 1 61 0
 319 0002 C218     		adds	r2, r0, r3
 320              		.loc 1 60 0
 321 0004 C05C     		ldrb	r0, [r0, r3]	@ zero_extendqisi2
 322              	.LVL12:
 323 0006 5278     		ldrb	r2, [r2, #1]	@ zero_extendqisi2
 324              		.loc 1 62 0
 325 0008 0233     		adds	r3, r3, #2
 326              		.loc 1 60 0
 327 000a 42EA0020 		orr	r0, r2, r0, lsl #8
 328              	.LVL13:
 329              		.loc 1 62 0
 330 000e 0B60     		str	r3, [r1]
 331              		.loc 1 64 0
 332 0010 00B2     		sxth	r0, r0
 333 0012 7047     		bx	lr
 334              		.cfi_endproc
 335              	.LFE6:
 336              		.size	buffer_get_int16, .-buffer_get_int16
 337              		.section	.text.buffer_get_uint16,"ax",%progbits
 338              		.align	2
 339              		.p2align 4,,15
 340              		.global	buffer_get_uint16
 341              		.thumb
 342              		.thumb_func
ARM GAS  /tmp/cccJA4Ha.s 			page 7


 343              		.type	buffer_get_uint16, %function
 344              	buffer_get_uint16:
 345              	.LFB7:
 346              		.loc 1 66 0
 347              		.cfi_startproc
 348              		@ args = 0, pretend = 0, frame = 0
 349              		@ frame_needed = 0, uses_anonymous_args = 0
 350              		@ link register save eliminated.
 351              	.LVL14:
 352              		.loc 1 67 0
 353 0000 0B68     		ldr	r3, [r1]
 354              		.loc 1 68 0
 355 0002 C218     		adds	r2, r0, r3
 356              		.loc 1 67 0
 357 0004 C05C     		ldrb	r0, [r0, r3]	@ zero_extendqisi2
 358              	.LVL15:
 359 0006 5278     		ldrb	r2, [r2, #1]	@ zero_extendqisi2
 360              	.LVL16:
 361              		.loc 1 69 0
 362 0008 0233     		adds	r3, r3, #2
 363 000a 0B60     		str	r3, [r1]
 364              		.loc 1 71 0
 365 000c 42EA0020 		orr	r0, r2, r0, lsl #8
 366              	.LVL17:
 367 0010 7047     		bx	lr
 368              		.cfi_endproc
 369              	.LFE7:
 370              		.size	buffer_get_uint16, .-buffer_get_uint16
 371 0012 00BF     		.section	.text.buffer_get_int32,"ax",%progbits
 372              		.align	2
 373              		.p2align 4,,15
 374              		.global	buffer_get_int32
 375              		.thumb
 376              		.thumb_func
 377              		.type	buffer_get_int32, %function
 378              	buffer_get_int32:
 379              	.LFB8:
 380              		.loc 1 73 0
 381              		.cfi_startproc
 382              		@ args = 0, pretend = 0, frame = 0
 383              		@ frame_needed = 0, uses_anonymous_args = 0
 384              		@ link register save eliminated.
 385              	.LVL18:
 386 0000 70B4     		push	{r4, r5, r6}
 387              		.cfi_def_cfa_offset 12
 388              		.cfi_offset 4, -12
 389              		.cfi_offset 5, -8
 390              		.cfi_offset 6, -4
 391              		.loc 1 74 0
 392 0002 0C68     		ldr	r4, [r1]
 393              		.loc 1 77 0
 394 0004 0519     		adds	r5, r0, r4
 395              		.loc 1 74 0
 396 0006 035D     		ldrb	r3, [r0, r4]	@ zero_extendqisi2
 397              		.loc 1 77 0
 398 0008 EA78     		ldrb	r2, [r5, #3]	@ zero_extendqisi2
 399              		.loc 1 75 0
ARM GAS  /tmp/cccJA4Ha.s 			page 8


 400 000a 6E78     		ldrb	r6, [r5, #1]	@ zero_extendqisi2
 401              		.loc 1 76 0
 402 000c A878     		ldrb	r0, [r5, #2]	@ zero_extendqisi2
 403              	.LVL19:
 404 000e 42EA0363 		orr	r3, r2, r3, lsl #24
 405              		.loc 1 78 0
 406 0012 0434     		adds	r4, r4, #4
 407 0014 43EA0643 		orr	r3, r3, r6, lsl #16
 408              	.LVL20:
 409 0018 0C60     		str	r4, [r1]
 410              		.loc 1 80 0
 411 001a 43EA0020 		orr	r0, r3, r0, lsl #8
 412              	.LVL21:
 413 001e 70BC     		pop	{r4, r5, r6}
 414              		.cfi_restore 6
 415              		.cfi_restore 5
 416              		.cfi_restore 4
 417              		.cfi_def_cfa_offset 0
 418 0020 7047     		bx	lr
 419              		.cfi_endproc
 420              	.LFE8:
 421              		.size	buffer_get_int32, .-buffer_get_int32
 422 0022 00BF     		.section	.text.buffer_get_uint32,"ax",%progbits
 423              		.align	2
 424              		.p2align 4,,15
 425              		.global	buffer_get_uint32
 426              		.thumb
 427              		.thumb_func
 428              		.type	buffer_get_uint32, %function
 429              	buffer_get_uint32:
 430              	.LFB9:
 431              		.loc 1 82 0
 432              		.cfi_startproc
 433              		@ args = 0, pretend = 0, frame = 0
 434              		@ frame_needed = 0, uses_anonymous_args = 0
 435              		@ link register save eliminated.
 436              	.LVL22:
 437 0000 70B4     		push	{r4, r5, r6}
 438              		.cfi_def_cfa_offset 12
 439              		.cfi_offset 4, -12
 440              		.cfi_offset 5, -8
 441              		.cfi_offset 6, -4
 442              		.loc 1 83 0
 443 0002 0C68     		ldr	r4, [r1]
 444              		.loc 1 86 0
 445 0004 0519     		adds	r5, r0, r4
 446              		.loc 1 83 0
 447 0006 035D     		ldrb	r3, [r0, r4]	@ zero_extendqisi2
 448              		.loc 1 86 0
 449 0008 EA78     		ldrb	r2, [r5, #3]	@ zero_extendqisi2
 450              		.loc 1 84 0
 451 000a 6E78     		ldrb	r6, [r5, #1]	@ zero_extendqisi2
 452              		.loc 1 85 0
 453 000c A878     		ldrb	r0, [r5, #2]	@ zero_extendqisi2
 454              	.LVL23:
 455 000e 42EA0363 		orr	r3, r2, r3, lsl #24
 456              		.loc 1 87 0
ARM GAS  /tmp/cccJA4Ha.s 			page 9


 457 0012 0434     		adds	r4, r4, #4
 458 0014 43EA0643 		orr	r3, r3, r6, lsl #16
 459              	.LVL24:
 460 0018 0C60     		str	r4, [r1]
 461              		.loc 1 89 0
 462 001a 43EA0020 		orr	r0, r3, r0, lsl #8
 463              	.LVL25:
 464 001e 70BC     		pop	{r4, r5, r6}
 465              		.cfi_restore 6
 466              		.cfi_restore 5
 467              		.cfi_restore 4
 468              		.cfi_def_cfa_offset 0
 469 0020 7047     		bx	lr
 470              		.cfi_endproc
 471              	.LFE9:
 472              		.size	buffer_get_uint32, .-buffer_get_uint32
 473 0022 00BF     		.section	.text.buffer_get_float16,"ax",%progbits
 474              		.align	2
 475              		.p2align 4,,15
 476              		.global	buffer_get_float16
 477              		.thumb
 478              		.thumb_func
 479              		.type	buffer_get_float16, %function
 480              	buffer_get_float16:
 481              	.LFB10:
 482              		.loc 1 91 0
 483              		.cfi_startproc
 484              		@ args = 0, pretend = 0, frame = 0
 485              		@ frame_needed = 0, uses_anonymous_args = 0
 486              		@ link register save eliminated.
 487              	.LVL26:
 488              	.LBB10:
 489              	.LBB11:
 490              		.loc 1 60 0
 491 0000 0A68     		ldr	r2, [r1]
 492              		.loc 1 61 0
 493 0002 8318     		adds	r3, r0, r2
 494              		.loc 1 60 0
 495 0004 805C     		ldrb	r0, [r0, r2]	@ zero_extendqisi2
 496              	.LVL27:
 497 0006 5B78     		ldrb	r3, [r3, #1]	@ zero_extendqisi2
 498 0008 43EA0023 		orr	r3, r3, r0, lsl #8
 499              	.LVL28:
 500              	.LBE11:
 501              	.LBE10:
 502              		.loc 1 92 0
 503 000c 1BB2     		sxth	r3, r3
 504 000e 07EE903A 		fmsr	s15, r3	@ int
 505 0012 F8EEE77A 		fsitos	s15, s15
 506              	.LBB13:
 507              	.LBB12:
 508              		.loc 1 62 0
 509 0016 0232     		adds	r2, r2, #2
 510 0018 0A60     		str	r2, [r1]
 511              	.LBE12:
 512              	.LBE13:
 513              		.loc 1 93 0
ARM GAS  /tmp/cccJA4Ha.s 			page 10


 514 001a 87EE800A 		fdivs	s0, s15, s0
 515              	.LVL29:
 516 001e 7047     		bx	lr
 517              		.cfi_endproc
 518              	.LFE10:
 519              		.size	buffer_get_float16, .-buffer_get_float16
 520              		.section	.text.buffer_get_float32,"ax",%progbits
 521              		.align	2
 522              		.p2align 4,,15
 523              		.global	buffer_get_float32
 524              		.thumb
 525              		.thumb_func
 526              		.type	buffer_get_float32, %function
 527              	buffer_get_float32:
 528              	.LFB11:
 529              		.loc 1 95 0
 530              		.cfi_startproc
 531              		@ args = 0, pretend = 0, frame = 0
 532              		@ frame_needed = 0, uses_anonymous_args = 0
 533              	.LVL30:
 534 0000 08B5     		push	{r3, lr}
 535              		.cfi_def_cfa_offset 8
 536              		.cfi_offset 3, -8
 537              		.cfi_offset 14, -4
 538 0002 2DED028B 		fstmfdd	sp!, {d8}
 539              		.cfi_def_cfa_offset 16
 540              		.cfi_offset 80, -16
 541              		.cfi_offset 81, -12
 542              		.loc 1 95 0
 543 0006 B0EE408A 		fcpys	s16, s0
 544              		.loc 1 96 0
 545 000a FFF7FEFF 		bl	buffer_get_int32
 546              	.LVL31:
 547 000e 07EE900A 		fmsr	s15, r0	@ int
 548 0012 B8EEE70A 		fsitos	s0, s15
 549              		.loc 1 97 0
 550 0016 80EE080A 		fdivs	s0, s0, s16
 551 001a BDEC028B 		fldmfdd	sp!, {d8}
 552              		.cfi_restore 80
 553              		.cfi_restore 81
 554              		.cfi_def_cfa_offset 8
 555              	.LVL32:
 556 001e 08BD     		pop	{r3, pc}
 557              		.cfi_endproc
 558              	.LFE11:
 559              		.size	buffer_get_float32, .-buffer_get_float32
 560              		.text
 561              	.Letext0:
 562              		.file 2 "/usr/arm-none-eabi/include/machine/_default_types.h"
 563              		.file 3 "/usr/arm-none-eabi/include/sys/_stdint.h"