ARM GAS  /tmp/cczR1cFg.s 			page 1


   1              		.syntax unified
   2              		.cpu cortex-m4
   3              		.eabi_attribute 27, 1
   4              		.eabi_attribute 28, 1
   5              		.fpu fpv4-sp-d16
   6              		.eabi_attribute 20, 1
   7              		.eabi_attribute 21, 1
   8              		.eabi_attribute 23, 3
   9              		.eabi_attribute 24, 1
  10              		.eabi_attribute 25, 1
  11              		.eabi_attribute 26, 1
  12              		.eabi_attribute 30, 2
  13              		.eabi_attribute 34, 1
  14              		.eabi_attribute 18, 4
  15              		.thumb
  16              		.file	"can.c"
  17              		.text
  18              	.Ltext0:
  19              		.cfi_sections	.debug_frame
  20              		.section	.text.canInit,"ax",%progbits
  21              		.align	2
  22              		.p2align 4,,15
  23              		.global	canInit
  24              		.thumb
  25              		.thumb_func
  26              		.type	canInit, %function
  27              	canInit:
  28              	.LFB256:
  29              		.file 1 "ChibiOS_3.0.2/os/hal/src/can.c"
  30              		.loc 1 56 0
  31              		.cfi_startproc
  32              		@ args = 0, pretend = 0, frame = 0
  33              		@ frame_needed = 0, uses_anonymous_args = 0
  34              		@ link register save eliminated.
  35              		.loc 1 58 0
  36 0000 FFF7FEBF 		b	can_lld_init
  37              	.LVL0:
  38              		.cfi_endproc
  39              	.LFE256:
  40              		.size	canInit, .-canInit
  41              		.section	.text.canObjectInit,"ax",%progbits
  42              		.align	2
  43              		.p2align 4,,15
  44              		.global	canObjectInit
  45              		.thumb
  46              		.thumb_func
  47              		.type	canObjectInit, %function
  48              	canObjectInit:
  49              	.LFB257:
  50              		.loc 1 68 0
  51              		.cfi_startproc
  52              		@ args = 0, pretend = 0, frame = 0
  53              		@ frame_needed = 0, uses_anonymous_args = 0
  54              	.LVL1:
  55 0000 F0B5     		push	{r4, r5, r6, r7, lr}
  56              		.cfi_def_cfa_offset 20
  57              		.cfi_offset 4, -20
ARM GAS  /tmp/cczR1cFg.s 			page 2


  58              		.cfi_offset 5, -16
  59              		.cfi_offset 6, -12
  60              		.cfi_offset 7, -8
  61              		.cfi_offset 14, -4
  62              		.loc 1 72 0
  63 0002 00F10802 		add	r2, r0, #8
  64              	.LVL2:
  65              		.loc 1 73 0
  66 0006 00F11003 		add	r3, r0, #16
  67              	.LVL3:
  68              		.loc 1 70 0
  69 000a 4FF0010C 		mov	ip, #1
  70              		.loc 1 71 0
  71 000e 4FF0000E 		mov	lr, #0
  72              		.loc 1 74 0
  73 0012 00F11807 		add	r7, r0, #24
  74              		.loc 1 75 0
  75 0016 00F11C06 		add	r6, r0, #28
  76              		.loc 1 76 0
  77 001a 00F12005 		add	r5, r0, #32
  78              		.loc 1 78 0
  79 001e 00F12404 		add	r4, r0, #36
  80              		.loc 1 79 0
  81 0022 00F12801 		add	r1, r0, #40
  82              		.loc 1 70 0
  83 0026 80F800C0 		strb	ip, [r0]
  84              		.loc 1 71 0
  85 002a C0F804E0 		str	lr, [r0, #4]
  86              	.LBB174:
  87              	.LBB175:
  88              	.LBB176:
  89              		.file 2 "ChibiOS_3.0.2/os/rt/include/chevents.h"
  90              		.loc 2 172 0
  91 002e 8761     		str	r7, [r0, #24]
  92              	.LBE176:
  93              	.LBE175:
  94              	.LBE174:
  95              	.LBB177:
  96              	.LBB178:
  97              	.LBB179:
  98 0030 C661     		str	r6, [r0, #28]
  99              	.LBE179:
 100              	.LBE178:
 101              	.LBE177:
 102              	.LBB180:
 103              	.LBB181:
 104              	.LBB182:
 105 0032 0562     		str	r5, [r0, #32]
 106              	.LBE182:
 107              	.LBE181:
 108              	.LBE180:
 109              	.LBB183:
 110              	.LBB184:
 111              	.LBB185:
 112 0034 4462     		str	r4, [r0, #36]
 113              	.LBE185:
 114              	.LBE184:
ARM GAS  /tmp/cczR1cFg.s 			page 3


 115              	.LBE183:
 116              	.LBB186:
 117              	.LBB187:
 118              	.LBB188:
 119 0036 8162     		str	r1, [r0, #40]
 120              	.LBE188:
 121              	.LBE187:
 122              	.LBE186:
 123              	.LBB189:
 124              	.LBB190:
 125              	.LBB191:
 126              	.LBB192:
 127              		.file 3 "ChibiOS_3.0.2/os/rt/include/chschd.h"
 128              		.loc 3 604 0
 129 0038 8260     		str	r2, [r0, #8]
 130              		.loc 3 605 0
 131 003a C260     		str	r2, [r0, #12]
 132              	.LBE192:
 133              	.LBE191:
 134              	.LBE190:
 135              	.LBE189:
 136              	.LBB193:
 137              	.LBB194:
 138              	.LBB195:
 139              	.LBB196:
 140              		.loc 3 604 0
 141 003c 0361     		str	r3, [r0, #16]
 142              		.loc 3 605 0
 143 003e 4361     		str	r3, [r0, #20]
 144              	.LVL4:
 145 0040 F0BD     		pop	{r4, r5, r6, r7, pc}
 146              	.LBE196:
 147              	.LBE195:
 148              	.LBE194:
 149              	.LBE193:
 150              		.cfi_endproc
 151              	.LFE257:
 152              		.size	canObjectInit, .-canObjectInit
 153 0042 00BF     		.section	.text.canStart,"ax",%progbits
 154              		.align	2
 155              		.p2align 4,,15
 156              		.global	canStart
 157              		.thumb
 158              		.thumb_func
 159              		.type	canStart, %function
 160              	canStart:
 161              	.LFB258:
 162              		.loc 1 95 0
 163              		.cfi_startproc
 164              		@ args = 0, pretend = 0, frame = 0
 165              		@ frame_needed = 0, uses_anonymous_args = 0
 166              	.LVL5:
 167 0000 10B5     		push	{r4, lr}
 168              		.cfi_def_cfa_offset 8
 169              		.cfi_offset 4, -8
 170              		.cfi_offset 14, -4
 171              		.loc 1 95 0
ARM GAS  /tmp/cczR1cFg.s 			page 4


 172 0002 0446     		mov	r4, r0
 173              	.LBB197:
 174              	.LBB198:
 175              	.LBB199:
 176              	.LBB200:
 177              	.LBB201:
 178              		.file 4 "ChibiOS_3.0.2/os/ext/CMSIS/include/core_cmFunc.h"
 179              		.loc 4 342 0
 180              	@ 342 "ChibiOS_3.0.2/os/ext/CMSIS/include/core_cmFunc.h" 1
 181 0004 72B6     		cpsid i
 182              	@ 0 "" 2
 183              		.thumb
 184              	.LBE201:
 185              	.LBE200:
 186              	.LBE199:
 187              	.LBE198:
 188              	.LBE197:
 189              		.loc 1 103 0
 190 0006 0223     		movs	r3, #2
 191 0008 0370     		strb	r3, [r0]
 192              		.loc 1 104 0
 193 000a 4160     		str	r1, [r0, #4]
 194              		.loc 1 108 0
 195 000c FFF7FEFF 		bl	can_lld_start
 196              	.LVL6:
 197              		.loc 1 111 0
 198 0010 0323     		movs	r3, #3
 199 0012 2370     		strb	r3, [r4]
 200              	.LBB202:
 201              	.LBB203:
 202              	.LBB204:
 203              	.LBB205:
 204              	.LBB206:
 205              	.LBB207:
 206              		.loc 4 331 0
 207              	@ 331 "ChibiOS_3.0.2/os/ext/CMSIS/include/core_cmFunc.h" 1
 208 0014 62B6     		cpsie i
 209              	@ 0 "" 2
 210              		.thumb
 211 0016 10BD     		pop	{r4, pc}
 212              	.LBE207:
 213              	.LBE206:
 214              	.LBE205:
 215              	.LBE204:
 216              	.LBE203:
 217              	.LBE202:
 218              		.cfi_endproc
 219              	.LFE258:
 220              		.size	canStart, .-canStart
 221              		.section	.text.canStop,"ax",%progbits
 222              		.align	2
 223              		.p2align 4,,15
 224              		.global	canStop
 225              		.thumb
 226              		.thumb_func
 227              		.type	canStop, %function
 228              	canStop:
ARM GAS  /tmp/cczR1cFg.s 			page 5


 229              	.LFB259:
 230              		.loc 1 122 0
 231              		.cfi_startproc
 232              		@ args = 0, pretend = 0, frame = 0
 233              		@ frame_needed = 0, uses_anonymous_args = 0
 234              	.LVL7:
 235 0000 10B5     		push	{r4, lr}
 236              		.cfi_def_cfa_offset 8
 237              		.cfi_offset 4, -8
 238              		.cfi_offset 14, -4
 239              		.loc 1 122 0
 240 0002 0446     		mov	r4, r0
 241              	.LBB208:
 242              	.LBB209:
 243              	.LBB210:
 244              	.LBB211:
 245              	.LBB212:
 246              		.loc 4 342 0
 247              	@ 342 "ChibiOS_3.0.2/os/ext/CMSIS/include/core_cmFunc.h" 1
 248 0004 72B6     		cpsid i
 249              	@ 0 "" 2
 250              		.thumb
 251              	.LBE212:
 252              	.LBE211:
 253              	.LBE210:
 254              	.LBE209:
 255              	.LBE208:
 256              		.loc 1 131 0
 257 0006 FFF7FEFF 		bl	can_lld_stop
 258              	.LVL8:
 259              		.loc 1 132 0
 260 000a 2046     		mov	r0, r4
 261 000c 0123     		movs	r3, #1
 262 000e 00F8103B 		strb	r3, [r0], #16
 263              	.LVL9:
 264              	.LBB213:
 265              	.LBB214:
 266              		.file 5 "ChibiOS_3.0.2/os/hal/osal/rt/osal.h"
 267              		.loc 5 810 0
 268 0012 6FF00101 		mvn	r1, #1
 269 0016 FFF7FEFF 		bl	chThdDequeueAllI
 270              	.LVL10:
 271              	.LBE214:
 272              	.LBE213:
 273              	.LBB215:
 274              	.LBB216:
 275 001a 04F10800 		add	r0, r4, #8
 276              	.LVL11:
 277 001e 6FF00101 		mvn	r1, #1
 278 0022 FFF7FEFF 		bl	chThdDequeueAllI
 279              	.LVL12:
 280              	.LBE216:
 281              	.LBE215:
 282              	.LBB217:
 283              	.LBB218:
 284              		.loc 5 600 0
 285 0026 FFF7FEFF 		bl	chSchRescheduleS
ARM GAS  /tmp/cczR1cFg.s 			page 6


 286              	.LVL13:
 287              	.LBE218:
 288              	.LBE217:
 289              	.LBB219:
 290              	.LBB220:
 291              	.LBB221:
 292              	.LBB222:
 293              	.LBB223:
 294              	.LBB224:
 295              		.loc 4 331 0
 296              	@ 331 "ChibiOS_3.0.2/os/ext/CMSIS/include/core_cmFunc.h" 1
 297 002a 62B6     		cpsie i
 298              	@ 0 "" 2
 299              		.thumb
 300 002c 10BD     		pop	{r4, pc}
 301              	.LBE224:
 302              	.LBE223:
 303              	.LBE222:
 304              	.LBE221:
 305              	.LBE220:
 306              	.LBE219:
 307              		.cfi_endproc
 308              	.LFE259:
 309              		.size	canStop, .-canStop
 310 002e 00BF     		.section	.text.canTransmit,"ax",%progbits
 311              		.align	2
 312              		.p2align 4,,15
 313              		.global	canTransmit
 314              		.thumb
 315              		.thumb_func
 316              		.type	canTransmit, %function
 317              	canTransmit:
 318              	.LFB260:
 319              		.loc 1 166 0
 320              		.cfi_startproc
 321              		@ args = 0, pretend = 0, frame = 0
 322              		@ frame_needed = 0, uses_anonymous_args = 0
 323              	.LVL14:
 324 0000 2DE9F041 		push	{r4, r5, r6, r7, r8, lr}
 325              		.cfi_def_cfa_offset 24
 326              		.cfi_offset 4, -24
 327              		.cfi_offset 5, -20
 328              		.cfi_offset 6, -16
 329              		.cfi_offset 7, -12
 330              		.cfi_offset 8, -8
 331              		.cfi_offset 14, -4
 332              		.loc 1 166 0
 333 0004 0446     		mov	r4, r0
 334 0006 0D46     		mov	r5, r1
 335 0008 9046     		mov	r8, r2
 336 000a 1F46     		mov	r7, r3
 337              	.LBB225:
 338              	.LBB226:
 339              	.LBB227:
 340              	.LBB228:
 341              	.LBB229:
 342              		.loc 4 342 0
ARM GAS  /tmp/cczR1cFg.s 			page 7


 343              	@ 342 "ChibiOS_3.0.2/os/ext/CMSIS/include/core_cmFunc.h" 1
 344 000c 72B6     		cpsid i
 345              	@ 0 "" 2
 346              		.thumb
 347              	.LBE229:
 348              	.LBE228:
 349              	.LBE227:
 350              	.LBE226:
 351              	.LBE225:
 352              	.LBB230:
 353              		.loc 1 177 0
 354 000e 00F10806 		add	r6, r0, #8
 355              	.LVL15:
 356              	.L9:
 357              	.LBE230:
 358              		.loc 1 175 0
 359 0012 2378     		ldrb	r3, [r4]	@ zero_extendqisi2
 360 0014 042B     		cmp	r3, #4
 361 0016 2946     		mov	r1, r5
 362 0018 2046     		mov	r0, r4
 363 001a 02D0     		beq	.L11
 364              	.LVL16:
 365              		.loc 1 175 0 is_stmt 0 discriminator 1
 366 001c FFF7FEFF 		bl	can_lld_is_tx_empty
 367              	.LVL17:
 368 0020 40B9     		cbnz	r0, .L22
 369              	.L11:
 370              	.LVL18:
 371              	.LBB239:
 372              	.LBB231:
 373              	.LBB232:
 374              		.loc 5 784 0 is_stmt 1
 375 0022 3046     		mov	r0, r6
 376 0024 3946     		mov	r1, r7
 377 0026 FFF7FEFF 		bl	chThdEnqueueTimeoutS
 378              	.LVL19:
 379              	.LBE232:
 380              	.LBE231:
 381              		.loc 1 178 0
 382 002a 0028     		cmp	r0, #0
 383 002c F1D0     		beq	.L9
 384              	.LBB233:
 385              	.LBB234:
 386              	.LBB235:
 387              	.LBB236:
 388              	.LBB237:
 389              	.LBB238:
 390              		.loc 4 331 0
 391              	@ 331 "ChibiOS_3.0.2/os/ext/CMSIS/include/core_cmFunc.h" 1
 392 002e 62B6     		cpsie i
 393              	@ 0 "" 2
 394              		.thumb
 395              	.LBE238:
 396              	.LBE237:
 397              	.LBE236:
 398              	.LBE235:
 399              	.LBE234:
ARM GAS  /tmp/cczR1cFg.s 			page 8


 400              	.LBE233:
 401              		.loc 1 180 0
 402 0030 BDE8F081 		pop	{r4, r5, r6, r7, r8, pc}
 403              	.LVL20:
 404              	.L22:
 405              	.LBE239:
 406              		.loc 1 183 0
 407 0034 2046     		mov	r0, r4
 408 0036 2946     		mov	r1, r5
 409 0038 4246     		mov	r2, r8
 410 003a FFF7FEFF 		bl	can_lld_transmit
 411              	.LVL21:
 412              	.LBB240:
 413              	.LBB241:
 414              	.LBB242:
 415              	.LBB243:
 416              	.LBB244:
 417              	.LBB245:
 418              		.loc 4 331 0
 419              	@ 331 "ChibiOS_3.0.2/os/ext/CMSIS/include/core_cmFunc.h" 1
 420 003e 62B6     		cpsie i
 421              	@ 0 "" 2
 422              		.thumb
 423              	.LBE245:
 424              	.LBE244:
 425              	.LBE243:
 426              	.LBE242:
 427              	.LBE241:
 428              	.LBE240:
 429              		.loc 1 185 0
 430 0040 0020     		movs	r0, #0
 431              		.loc 1 186 0
 432 0042 BDE8F081 		pop	{r4, r5, r6, r7, r8, pc}
 433              		.cfi_endproc
 434              	.LFE260:
 435              		.size	canTransmit, .-canTransmit
 436 0046 00BF     		.section	.text.canReceive,"ax",%progbits
 437              		.align	2
 438              		.p2align 4,,15
 439              		.global	canReceive
 440              		.thumb
 441              		.thumb_func
 442              		.type	canReceive, %function
 443              	canReceive:
 444              	.LFB261:
 445              		.loc 1 213 0
 446              		.cfi_startproc
 447              		@ args = 0, pretend = 0, frame = 0
 448              		@ frame_needed = 0, uses_anonymous_args = 0
 449              	.LVL22:
 450 0000 2DE9F041 		push	{r4, r5, r6, r7, r8, lr}
 451              		.cfi_def_cfa_offset 24
 452              		.cfi_offset 4, -24
 453              		.cfi_offset 5, -20
 454              		.cfi_offset 6, -16
 455              		.cfi_offset 7, -12
 456              		.cfi_offset 8, -8
ARM GAS  /tmp/cczR1cFg.s 			page 9


 457              		.cfi_offset 14, -4
 458              		.loc 1 213 0
 459 0004 0446     		mov	r4, r0
 460 0006 0D46     		mov	r5, r1
 461 0008 9046     		mov	r8, r2
 462 000a 1F46     		mov	r7, r3
 463              	.LBB246:
 464              	.LBB247:
 465              	.LBB248:
 466              	.LBB249:
 467              	.LBB250:
 468              		.loc 4 342 0
 469              	@ 342 "ChibiOS_3.0.2/os/ext/CMSIS/include/core_cmFunc.h" 1
 470 000c 72B6     		cpsid i
 471              	@ 0 "" 2
 472              		.thumb
 473              	.LBE250:
 474              	.LBE249:
 475              	.LBE248:
 476              	.LBE247:
 477              	.LBE246:
 478              	.LBB251:
 479              		.loc 1 224 0
 480 000e 00F11006 		add	r6, r0, #16
 481              	.LVL23:
 482              	.L24:
 483              	.LBE251:
 484              		.loc 1 222 0
 485 0012 2378     		ldrb	r3, [r4]	@ zero_extendqisi2
 486 0014 042B     		cmp	r3, #4
 487 0016 2946     		mov	r1, r5
 488 0018 2046     		mov	r0, r4
 489 001a 02D0     		beq	.L26
 490              	.LVL24:
 491              		.loc 1 222 0 is_stmt 0 discriminator 1
 492 001c FFF7FEFF 		bl	can_lld_is_rx_nonempty
 493              	.LVL25:
 494 0020 40B9     		cbnz	r0, .L36
 495              	.L26:
 496              	.LVL26:
 497              	.LBB260:
 498              	.LBB252:
 499              	.LBB253:
 500              		.loc 5 784 0 is_stmt 1
 501 0022 3046     		mov	r0, r6
 502 0024 3946     		mov	r1, r7
 503 0026 FFF7FEFF 		bl	chThdEnqueueTimeoutS
 504              	.LVL27:
 505              	.LBE253:
 506              	.LBE252:
 507              		.loc 1 225 0
 508 002a 0028     		cmp	r0, #0
 509 002c F1D0     		beq	.L24
 510              	.LBB254:
 511              	.LBB255:
 512              	.LBB256:
 513              	.LBB257:
ARM GAS  /tmp/cczR1cFg.s 			page 10


 514              	.LBB258:
 515              	.LBB259:
 516              		.loc 4 331 0
 517              	@ 331 "ChibiOS_3.0.2/os/ext/CMSIS/include/core_cmFunc.h" 1
 518 002e 62B6     		cpsie i
 519              	@ 0 "" 2
 520              		.thumb
 521              	.LBE259:
 522              	.LBE258:
 523              	.LBE257:
 524              	.LBE256:
 525              	.LBE255:
 526              	.LBE254:
 527              		.loc 1 227 0
 528 0030 BDE8F081 		pop	{r4, r5, r6, r7, r8, pc}
 529              	.LVL28:
 530              	.L36:
 531              	.LBE260:
 532              		.loc 1 230 0
 533 0034 2046     		mov	r0, r4
 534 0036 2946     		mov	r1, r5
 535 0038 4246     		mov	r2, r8
 536 003a FFF7FEFF 		bl	can_lld_receive
 537              	.LVL29:
 538              	.LBB261:
 539              	.LBB262:
 540              	.LBB263:
 541              	.LBB264:
 542              	.LBB265:
 543              	.LBB266:
 544              		.loc 4 331 0
 545              	@ 331 "ChibiOS_3.0.2/os/ext/CMSIS/include/core_cmFunc.h" 1
 546 003e 62B6     		cpsie i
 547              	@ 0 "" 2
 548              		.thumb
 549              	.LBE266:
 550              	.LBE265:
 551              	.LBE264:
 552              	.LBE263:
 553              	.LBE262:
 554              	.LBE261:
 555              		.loc 1 232 0
 556 0040 0020     		movs	r0, #0
 557              		.loc 1 233 0
 558 0042 BDE8F081 		pop	{r4, r5, r6, r7, r8, pc}
 559              		.cfi_endproc
 560              	.LFE261:
 561              		.size	canReceive, .-canReceive
 562 0046 00BF     		.section	.text.canSleep,"ax",%progbits
 563              		.align	2
 564              		.p2align 4,,15
 565              		.global	canSleep
 566              		.thumb
 567              		.thumb_func
 568              		.type	canSleep, %function
 569              	canSleep:
 570              	.LFB262:
ARM GAS  /tmp/cczR1cFg.s 			page 11


 571              		.loc 1 248 0
 572              		.cfi_startproc
 573              		@ args = 0, pretend = 0, frame = 0
 574              		@ frame_needed = 0, uses_anonymous_args = 0
 575              	.LVL30:
 576              	.LBB267:
 577              	.LBB268:
 578              	.LBB269:
 579              	.LBB270:
 580              	.LBB271:
 581              		.loc 4 342 0
 582              	@ 342 "ChibiOS_3.0.2/os/ext/CMSIS/include/core_cmFunc.h" 1
 583 0000 72B6     		cpsid i
 584              	@ 0 "" 2
 585              		.thumb
 586              	.LBE271:
 587              	.LBE270:
 588              	.LBE269:
 589              	.LBE268:
 590              	.LBE267:
 591              		.loc 1 255 0
 592 0002 0278     		ldrb	r2, [r0]	@ zero_extendqisi2
 593 0004 032A     		cmp	r2, #3
 594 0006 01D0     		beq	.L41
 595              	.LBB272:
 596              	.LBB273:
 597              	.LBB274:
 598              	.LBB275:
 599              	.LBB276:
 600              	.LBB277:
 601              		.loc 4 331 0
 602              	@ 331 "ChibiOS_3.0.2/os/ext/CMSIS/include/core_cmFunc.h" 1
 603 0008 62B6     		cpsie i
 604              	@ 0 "" 2
 605              		.thumb
 606 000a 7047     		bx	lr
 607              	.L41:
 608              	.LBE277:
 609              	.LBE276:
 610              	.LBE275:
 611              	.LBE274:
 612              	.LBE273:
 613              	.LBE272:
 614              		.loc 1 248 0
 615 000c 10B5     		push	{r4, lr}
 616              		.cfi_def_cfa_offset 8
 617              		.cfi_offset 4, -8
 618              		.cfi_offset 14, -4
 619 000e 0446     		mov	r4, r0
 620              		.loc 1 256 0
 621 0010 FFF7FEFF 		bl	can_lld_sleep
 622              	.LVL31:
 623              		.loc 1 257 0
 624 0014 2046     		mov	r0, r4
 625 0016 0423     		movs	r3, #4
 626 0018 00F8243B 		strb	r3, [r0], #36
 627              	.LVL32:
ARM GAS  /tmp/cczR1cFg.s 			page 12


 628              	.LBB283:
 629              	.LBB284:
 630              		.loc 5 844 0
 631 001c 0021     		movs	r1, #0
 632 001e FFF7FEFF 		bl	chEvtBroadcastFlagsI
 633              	.LVL33:
 634              	.LBE284:
 635              	.LBE283:
 636              	.LBB285:
 637              	.LBB286:
 638              		.loc 5 600 0
 639 0022 FFF7FEFF 		bl	chSchRescheduleS
 640              	.LVL34:
 641              	.LBE286:
 642              	.LBE285:
 643              	.LBB287:
 644              	.LBB282:
 645              	.LBB281:
 646              	.LBB280:
 647              	.LBB279:
 648              	.LBB278:
 649              		.loc 4 331 0
 650              	@ 331 "ChibiOS_3.0.2/os/ext/CMSIS/include/core_cmFunc.h" 1
 651 0026 62B6     		cpsie i
 652              	@ 0 "" 2
 653              		.thumb
 654 0028 10BD     		pop	{r4, pc}
 655              	.LBE278:
 656              	.LBE279:
 657              	.LBE280:
 658              	.LBE281:
 659              	.LBE282:
 660              	.LBE287:
 661              		.cfi_endproc
 662              	.LFE262:
 663              		.size	canSleep, .-canSleep
 664 002a 00BF     		.section	.text.canWakeup,"ax",%progbits
 665              		.align	2
 666              		.p2align 4,,15
 667              		.global	canWakeup
 668              		.thumb
 669              		.thumb_func
 670              		.type	canWakeup, %function
 671              	canWakeup:
 672              	.LFB263:
 673              		.loc 1 271 0
 674              		.cfi_startproc
 675              		@ args = 0, pretend = 0, frame = 0
 676              		@ frame_needed = 0, uses_anonymous_args = 0
 677              	.LVL35:
 678              	.LBB288:
 679              	.LBB289:
 680              	.LBB290:
 681              	.LBB291:
 682              	.LBB292:
 683              		.loc 4 342 0
 684              	@ 342 "ChibiOS_3.0.2/os/ext/CMSIS/include/core_cmFunc.h" 1
ARM GAS  /tmp/cczR1cFg.s 			page 13


 685 0000 72B6     		cpsid i
 686              	@ 0 "" 2
 687              		.thumb
 688              	.LBE292:
 689              	.LBE291:
 690              	.LBE290:
 691              	.LBE289:
 692              	.LBE288:
 693              		.loc 1 278 0
 694 0002 0278     		ldrb	r2, [r0]	@ zero_extendqisi2
 695 0004 042A     		cmp	r2, #4
 696 0006 01D0     		beq	.L46
 697              	.LBB293:
 698              	.LBB294:
 699              	.LBB295:
 700              	.LBB296:
 701              	.LBB297:
 702              	.LBB298:
 703              		.loc 4 331 0
 704              	@ 331 "ChibiOS_3.0.2/os/ext/CMSIS/include/core_cmFunc.h" 1
 705 0008 62B6     		cpsie i
 706              	@ 0 "" 2
 707              		.thumb
 708 000a 7047     		bx	lr
 709              	.L46:
 710              	.LBE298:
 711              	.LBE297:
 712              	.LBE296:
 713              	.LBE295:
 714              	.LBE294:
 715              	.LBE293:
 716              		.loc 1 271 0
 717 000c 10B5     		push	{r4, lr}
 718              		.cfi_def_cfa_offset 8
 719              		.cfi_offset 4, -8
 720              		.cfi_offset 14, -4
 721 000e 0446     		mov	r4, r0
 722              		.loc 1 279 0
 723 0010 FFF7FEFF 		bl	can_lld_wakeup
 724              	.LVL36:
 725              		.loc 1 280 0
 726 0014 2046     		mov	r0, r4
 727 0016 0323     		movs	r3, #3
 728 0018 00F8283B 		strb	r3, [r0], #40
 729              	.LVL37:
 730              	.LBB304:
 731              	.LBB305:
 732              		.loc 5 844 0
 733 001c 0021     		movs	r1, #0
 734 001e FFF7FEFF 		bl	chEvtBroadcastFlagsI
 735              	.LVL38:
 736              	.LBE305:
 737              	.LBE304:
 738              	.LBB306:
 739              	.LBB307:
 740              		.loc 5 600 0
 741 0022 FFF7FEFF 		bl	chSchRescheduleS
ARM GAS  /tmp/cczR1cFg.s 			page 14


 742              	.LVL39:
 743              	.LBE307:
 744              	.LBE306:
 745              	.LBB308:
 746              	.LBB303:
 747              	.LBB302:
 748              	.LBB301:
 749              	.LBB300:
 750              	.LBB299:
 751              		.loc 4 331 0
 752              	@ 331 "ChibiOS_3.0.2/os/ext/CMSIS/include/core_cmFunc.h" 1
 753 0026 62B6     		cpsie i
 754              	@ 0 "" 2
 755              		.thumb
 756 0028 10BD     		pop	{r4, pc}
 757              	.LBE299:
 758              	.LBE300:
 759              	.LBE301:
 760              	.LBE302:
 761              	.LBE303:
 762              	.LBE308:
 763              		.cfi_endproc
 764              	.LFE263:
 765              		.size	canWakeup, .-canWakeup
 766 002a 00BF     		.text
 767              	.Letext0:
 768              		.file 6 "/usr/arm-none-eabi/include/machine/_default_types.h"
 769              		.file 7 "/usr/arm-none-eabi/include/sys/_stdint.h"
 770              		.file 8 "ChibiOS_3.0.2/os/rt/ports/ARMCMx/compilers/GCC/chtypes.h"
 771              		.file 9 "ChibiOS_3.0.2/os/rt/include/chsystypes.h"
 772              		.file 10 "ChibiOS_3.0.2/os/ext/CMSIS/ST/stm32f407xx.h"
 773              		.file 11 "ChibiOS_3.0.2/os/rt/ports/ARMCMx/chcore.h"
 774              		.file 12 "ChibiOS_3.0.2/os/rt/ports/ARMCMx/chcore_v7m.h"
 775              		.file 13 "ChibiOS_3.0.2/os/rt/include/chtm.h"
 776              		.file 14 "ChibiOS_3.0.2/os/rt/include/chsem.h"
 777              		.file 15 "ChibiOS_3.0.2/os/rt/include/chmtx.h"
 778              		.file 16 "ChibiOS_3.0.2/os/hal/include/can.h"
 779              		.file 17 "ChibiOS_3.0.2/os/hal/ports/STM32/LLD/can_lld.h"
 780              		.file 18 "ChibiOS_3.0.2/os/rt/include/chsys.h"
 781              		.file 19 "ChibiOS_3.0.2/os/rt/include/chthreads.h"
 782              		.file 20 "ChibiOS_3.0.2/os/ext/CMSIS/include/core_cm4.h"