ARM GAS  /tmp/cc6dSZm1.s 			page 1


   1              		.syntax unified
   2              		.cpu cortex-m4
   3              		.eabi_attribute 27, 1
   4              		.eabi_attribute 28, 1
   5              		.fpu fpv4-sp-d16
   6              		.eabi_attribute 20, 1
   7              		.eabi_attribute 21, 1
   8              		.eabi_attribute 23, 3
   9              		.eabi_attribute 24, 1
  10              		.eabi_attribute 25, 1
  11              		.eabi_attribute 26, 1
  12              		.eabi_attribute 30, 2
  13              		.eabi_attribute 34, 1
  14              		.eabi_attribute 18, 4
  15              		.thumb
  16              		.file	"chcond.c"
  17              		.text
  18              	.Ltext0:
  19              		.cfi_sections	.debug_frame
  20              		.section	.text.chCondObjectInit,"ax",%progbits
  21              		.align	2
  22              		.p2align 4,,15
  23              		.global	chCondObjectInit
  24              		.thumb
  25              		.thumb_func
  26              		.type	chCondObjectInit, %function
  27              	chCondObjectInit:
  28              	.LFB219:
  29              		.file 1 "ChibiOS_3.0.2/os/rt/src/chcond.c"
  30              		.loc 1 75 0
  31              		.cfi_startproc
  32              		@ args = 0, pretend = 0, frame = 0
  33              		@ frame_needed = 0, uses_anonymous_args = 0
  34              		@ link register save eliminated.
  35              	.LVL0:
  36              	.LBB83:
  37              	.LBB84:
  38              		.file 2 "ChibiOS_3.0.2/os/rt/include/chschd.h"
  39              		.loc 2 604 0
  40 0000 0060     		str	r0, [r0]
  41              		.loc 2 605 0
  42 0002 4060     		str	r0, [r0, #4]
  43 0004 7047     		bx	lr
  44              	.LBE84:
  45              	.LBE83:
  46              		.cfi_endproc
  47              	.LFE219:
  48              		.size	chCondObjectInit, .-chCondObjectInit
  49 0006 00BF     		.section	.text.chCondSignal,"ax",%progbits
  50              		.align	2
  51              		.p2align 4,,15
  52              		.global	chCondSignal
  53              		.thumb
  54              		.thumb_func
  55              		.type	chCondSignal, %function
  56              	chCondSignal:
  57              	.LFB220:
ARM GAS  /tmp/cc6dSZm1.s 			page 2


  58              		.loc 1 89 0
  59              		.cfi_startproc
  60              		@ args = 0, pretend = 0, frame = 0
  61              		@ frame_needed = 0, uses_anonymous_args = 0
  62              	.LVL1:
  63              	.LBB85:
  64              	.LBB86:
  65              	.LBB87:
  66              	.LBB88:
  67              		.file 3 "ChibiOS_3.0.2/os/ext/CMSIS/include/core_cmFunc.h"
  68              		.loc 3 342 0
  69              	@ 342 "ChibiOS_3.0.2/os/ext/CMSIS/include/core_cmFunc.h" 1
  70 0000 72B6     		cpsid i
  71              	@ 0 "" 2
  72              	.LVL2:
  73              		.thumb
  74              	.LBE88:
  75              	.LBE87:
  76              	.LBE86:
  77              	.LBE85:
  78              	.LBB89:
  79              	.LBB90:
  80              		.loc 2 631 0
  81 0002 0268     		ldr	r2, [r0]
  82              	.LBE90:
  83              	.LBE89:
  84              		.loc 1 94 0
  85 0004 8242     		cmp	r2, r0
  86 0006 0AD0     		beq	.L5
  87              	.LBB91:
  88              	.LBB92:
  89              		.loc 2 674 0
  90 0008 1168     		ldr	r1, [r2]
  91              	.LBE92:
  92              	.LBE91:
  93              		.loc 1 89 0
  94 000a 08B5     		push	{r3, lr}
  95              		.cfi_def_cfa_offset 8
  96              		.cfi_offset 3, -8
  97              		.cfi_offset 14, -4
  98 000c 0346     		mov	r3, r0
  99              	.LVL3:
 100              	.LBB94:
 101              	.LBB93:
 102              		.loc 2 674 0
 103 000e 0160     		str	r1, [r0]
 104              		.loc 2 675 0
 105 0010 4B60     		str	r3, [r1, #4]
 106              	.LBE93:
 107              	.LBE94:
 108              		.loc 1 95 0
 109 0012 1046     		mov	r0, r2
 110              	.LVL4:
 111 0014 0021     		movs	r1, #0
 112 0016 FFF7FEFF 		bl	chSchWakeupS
 113              	.LVL5:
 114              	.LBB95:
ARM GAS  /tmp/cc6dSZm1.s 			page 3


 115              	.LBB96:
 116              	.LBB97:
 117              	.LBB98:
 118              	.LBB99:
 119              		.loc 3 331 0
 120              	@ 331 "ChibiOS_3.0.2/os/ext/CMSIS/include/core_cmFunc.h" 1
 121 001a 62B6     		cpsie i
 122              	@ 0 "" 2
 123              		.thumb
 124 001c 08BD     		pop	{r3, pc}
 125              	.LVL6:
 126              	.L5:
 127              		.cfi_def_cfa_offset 0
 128              		.cfi_restore 3
 129              		.cfi_restore 14
 130              	@ 331 "ChibiOS_3.0.2/os/ext/CMSIS/include/core_cmFunc.h" 1
 131 001e 62B6     		cpsie i
 132              	@ 0 "" 2
 133              		.thumb
 134 0020 7047     		bx	lr
 135              	.LBE99:
 136              	.LBE98:
 137              	.LBE97:
 138              	.LBE96:
 139              	.LBE95:
 140              		.cfi_endproc
 141              	.LFE220:
 142              		.size	chCondSignal, .-chCondSignal
 143 0022 00BF     		.section	.text.chCondSignalI,"ax",%progbits
 144              		.align	2
 145              		.p2align 4,,15
 146              		.global	chCondSignalI
 147              		.thumb
 148              		.thumb_func
 149              		.type	chCondSignalI, %function
 150              	chCondSignalI:
 151              	.LFB221:
 152              		.loc 1 111 0
 153              		.cfi_startproc
 154              		@ args = 0, pretend = 0, frame = 0
 155              		@ frame_needed = 0, uses_anonymous_args = 0
 156              		@ link register save eliminated.
 157              	.LVL7:
 158              	.LBB100:
 159              	.LBB101:
 160              		.loc 2 631 0
 161 0000 0368     		ldr	r3, [r0]
 162              	.LBE101:
 163              	.LBE100:
 164              		.loc 1 116 0
 165 0002 9842     		cmp	r0, r3
 166 0004 07D0     		beq	.L7
 167              	.LVL8:
 168              	.LBB102:
 169              	.LBB103:
 170              	.LBB104:
 171              		.loc 2 674 0
ARM GAS  /tmp/cc6dSZm1.s 			page 4


 172 0006 1A68     		ldr	r2, [r3]
 173 0008 0260     		str	r2, [r0]
 174              	.LBE104:
 175              	.LBE103:
 176              		.loc 1 118 0
 177 000a 0021     		movs	r1, #0
 178              	.LBB106:
 179              	.LBB105:
 180              		.loc 2 675 0
 181 000c 5060     		str	r0, [r2, #4]
 182              	.LBE105:
 183              	.LBE106:
 184              		.loc 1 119 0
 185 000e 1846     		mov	r0, r3
 186              	.LVL9:
 187              		.loc 1 118 0
 188 0010 5962     		str	r1, [r3, #36]
 189              		.loc 1 119 0
 190 0012 FFF7FEBF 		b	chSchReadyI
 191              	.LVL10:
 192              	.L7:
 193 0016 7047     		bx	lr
 194              	.LBE102:
 195              		.cfi_endproc
 196              	.LFE221:
 197              		.size	chCondSignalI, .-chCondSignalI
 198              		.section	.text.chCondBroadcastI,"ax",%progbits
 199              		.align	2
 200              		.p2align 4,,15
 201              		.global	chCondBroadcastI
 202              		.thumb
 203              		.thumb_func
 204              		.type	chCondBroadcastI, %function
 205              	chCondBroadcastI:
 206              	.LFB223:
 207              		.loc 1 149 0
 208              		.cfi_startproc
 209              		@ args = 0, pretend = 0, frame = 0
 210              		@ frame_needed = 0, uses_anonymous_args = 0
 211              	.LVL11:
 212 0000 38B5     		push	{r3, r4, r5, lr}
 213              		.cfi_def_cfa_offset 16
 214              		.cfi_offset 3, -16
 215              		.cfi_offset 4, -12
 216              		.cfi_offset 5, -8
 217              		.cfi_offset 14, -4
 218              		.loc 1 149 0
 219 0002 0446     		mov	r4, r0
 220              	.LVL12:
 221              	.LBB107:
 222              	.LBB108:
 223              		.loc 2 631 0
 224 0004 0068     		ldr	r0, [r0]
 225              	.LVL13:
 226              	.LBE108:
 227              	.LBE107:
 228              		.loc 1 157 0
ARM GAS  /tmp/cc6dSZm1.s 			page 5


 229 0006 8442     		cmp	r4, r0
 230 0008 0AD0     		beq	.L9
 231              		.loc 1 158 0
 232 000a 6FF00105 		mvn	r5, #1
 233              	.L11:
 234              	.LVL14:
 235              	.LBB110:
 236              	.LBB111:
 237              		.loc 2 674 0
 238 000e 0368     		ldr	r3, [r0]
 239 0010 2360     		str	r3, [r4]
 240              		.loc 2 675 0
 241 0012 5C60     		str	r4, [r3, #4]
 242              	.LBE111:
 243              	.LBE110:
 244              		.loc 1 158 0
 245 0014 FFF7FEFF 		bl	chSchReadyI
 246              	.LVL15:
 247 0018 4562     		str	r5, [r0, #36]
 248              	.LBB112:
 249              	.LBB109:
 250              		.loc 2 631 0
 251 001a 2068     		ldr	r0, [r4]
 252              	.LBE109:
 253              	.LBE112:
 254              		.loc 1 157 0
 255 001c A042     		cmp	r0, r4
 256 001e F6D1     		bne	.L11
 257              	.LVL16:
 258              	.L9:
 259 0020 38BD     		pop	{r3, r4, r5, pc}
 260              		.cfi_endproc
 261              	.LFE223:
 262              		.size	chCondBroadcastI, .-chCondBroadcastI
 263 0022 00BF     		.section	.text.chCondBroadcast,"ax",%progbits
 264              		.align	2
 265              		.p2align 4,,15
 266              		.global	chCondBroadcast
 267              		.thumb
 268              		.thumb_func
 269              		.type	chCondBroadcast, %function
 270              	chCondBroadcast:
 271              	.LFB222:
 272              		.loc 1 130 0
 273              		.cfi_startproc
 274              		@ args = 0, pretend = 0, frame = 0
 275              		@ frame_needed = 0, uses_anonymous_args = 0
 276              	.LVL17:
 277 0000 08B5     		push	{r3, lr}
 278              		.cfi_def_cfa_offset 8
 279              		.cfi_offset 3, -8
 280              		.cfi_offset 14, -4
 281              	.LBB113:
 282              	.LBB114:
 283              	.LBB115:
 284              	.LBB116:
 285              		.loc 3 342 0
ARM GAS  /tmp/cc6dSZm1.s 			page 6


 286              	@ 342 "ChibiOS_3.0.2/os/ext/CMSIS/include/core_cmFunc.h" 1
 287 0002 72B6     		cpsid i
 288              	@ 0 "" 2
 289              		.thumb
 290              	.LBE116:
 291              	.LBE115:
 292              	.LBE114:
 293              	.LBE113:
 294              		.loc 1 133 0
 295 0004 FFF7FEFF 		bl	chCondBroadcastI
 296              	.LVL18:
 297              		.loc 1 134 0
 298 0008 FFF7FEFF 		bl	chSchRescheduleS
 299              	.LVL19:
 300              	.LBB117:
 301              	.LBB118:
 302              	.LBB119:
 303              	.LBB120:
 304              	.LBB121:
 305              		.loc 3 331 0
 306              	@ 331 "ChibiOS_3.0.2/os/ext/CMSIS/include/core_cmFunc.h" 1
 307 000c 62B6     		cpsie i
 308              	@ 0 "" 2
 309              		.thumb
 310 000e 08BD     		pop	{r3, pc}
 311              	.LBE121:
 312              	.LBE120:
 313              	.LBE119:
 314              	.LBE118:
 315              	.LBE117:
 316              		.cfi_endproc
 317              	.LFE222:
 318              		.size	chCondBroadcast, .-chCondBroadcast
 319              		.section	.text.chCondWaitS,"ax",%progbits
 320              		.align	2
 321              		.p2align 4,,15
 322              		.global	chCondWaitS
 323              		.thumb
 324              		.thumb_func
 325              		.type	chCondWaitS, %function
 326              	chCondWaitS:
 327              	.LFB225:
 328              		.loc 1 205 0
 329              		.cfi_startproc
 330              		@ args = 0, pretend = 0, frame = 0
 331              		@ frame_needed = 0, uses_anonymous_args = 0
 332              	.LVL20:
 333              		.loc 1 206 0
 334 0000 0F4B     		ldr	r3, .L25
 335              		.loc 1 205 0
 336 0002 70B5     		push	{r4, r5, r6, lr}
 337              		.cfi_def_cfa_offset 16
 338              		.cfi_offset 4, -16
 339              		.cfi_offset 5, -12
 340              		.cfi_offset 6, -8
 341              		.cfi_offset 14, -4
 342              		.loc 1 206 0
ARM GAS  /tmp/cc6dSZm1.s 			page 7


 343 0004 9C69     		ldr	r4, [r3, #24]
 344              	.LVL21:
 345              	.LBB122:
 346              	.LBB123:
 347              		.file 4 "ChibiOS_3.0.2/os/rt/include/chmtx.h"
 348              		.loc 4 146 0
 349 0006 E66B     		ldr	r6, [r4, #60]
 350              	.LBE123:
 351              	.LBE122:
 352              		.loc 1 205 0
 353 0008 0546     		mov	r5, r0
 354              		.loc 1 216 0
 355 000a 3046     		mov	r0, r6
 356              	.LVL22:
 357 000c FFF7FEFF 		bl	chMtxUnlockS
 358              	.LVL23:
 359              		.loc 1 220 0
 360 0010 6562     		str	r5, [r4, #36]
 361              	.LVL24:
 362              	.LBB124:
 363              	.LBB125:
 364              		.loc 2 653 0
 365 0012 2B46     		mov	r3, r5
 366 0014 03E0     		b	.L19
 367              	.LVL25:
 368              	.L24:
 369              		.loc 2 656 0
 370 0016 9968     		ldr	r1, [r3, #8]
 371 0018 A268     		ldr	r2, [r4, #8]
 372 001a 9142     		cmp	r1, r2
 373 001c 02D3     		bcc	.L20
 374              	.L19:
 375              		.loc 2 655 0
 376 001e 1B68     		ldr	r3, [r3]
 377              	.LVL26:
 378              		.loc 2 656 0
 379 0020 9D42     		cmp	r5, r3
 380 0022 F8D1     		bne	.L24
 381              	.L20:
 382              		.loc 2 658 0
 383 0024 5A68     		ldr	r2, [r3, #4]
 384 0026 6260     		str	r2, [r4, #4]
 385              		.loc 2 657 0
 386 0028 2360     		str	r3, [r4]
 387              	.LBE125:
 388              	.LBE124:
 389              		.loc 1 222 0
 390 002a 0720     		movs	r0, #7
 391              	.LBB127:
 392              	.LBB126:
 393              		.loc 2 659 0
 394 002c 1460     		str	r4, [r2]
 395              		.loc 2 660 0
 396 002e 5C60     		str	r4, [r3, #4]
 397              	.LBE126:
 398              	.LBE127:
 399              		.loc 1 222 0
ARM GAS  /tmp/cc6dSZm1.s 			page 8


 400 0030 FFF7FEFF 		bl	chSchGoSleepS
 401              	.LVL27:
 402              		.loc 1 223 0
 403 0034 646A     		ldr	r4, [r4, #36]
 404              	.LVL28:
 405              		.loc 1 224 0
 406 0036 3046     		mov	r0, r6
 407 0038 FFF7FEFF 		bl	chMtxLockS
 408              	.LVL29:
 409              		.loc 1 227 0
 410 003c 2046     		mov	r0, r4
 411 003e 70BD     		pop	{r4, r5, r6, pc}
 412              	.LVL30:
 413              	.L26:
 414              		.align	2
 415              	.L25:
 416 0040 00000000 		.word	ch
 417              		.cfi_endproc
 418              	.LFE225:
 419              		.size	chCondWaitS, .-chCondWaitS
 420              		.section	.text.chCondWait,"ax",%progbits
 421              		.align	2
 422              		.p2align 4,,15
 423              		.global	chCondWait
 424              		.thumb
 425              		.thumb_func
 426              		.type	chCondWait, %function
 427              	chCondWait:
 428              	.LFB224:
 429              		.loc 1 179 0
 430              		.cfi_startproc
 431              		@ args = 0, pretend = 0, frame = 0
 432              		@ frame_needed = 0, uses_anonymous_args = 0
 433              	.LVL31:
 434 0000 08B5     		push	{r3, lr}
 435              		.cfi_def_cfa_offset 8
 436              		.cfi_offset 3, -8
 437              		.cfi_offset 14, -4
 438              	.LBB128:
 439              	.LBB129:
 440              	.LBB130:
 441              	.LBB131:
 442              		.loc 3 342 0
 443              	@ 342 "ChibiOS_3.0.2/os/ext/CMSIS/include/core_cmFunc.h" 1
 444 0002 72B6     		cpsid i
 445              	@ 0 "" 2
 446              		.thumb
 447              	.LBE131:
 448              	.LBE130:
 449              	.LBE129:
 450              	.LBE128:
 451              		.loc 1 183 0
 452 0004 FFF7FEFF 		bl	chCondWaitS
 453              	.LVL32:
 454              	.LBB132:
 455              	.LBB133:
 456              	.LBB134:
ARM GAS  /tmp/cc6dSZm1.s 			page 9


 457              	.LBB135:
 458              	.LBB136:
 459              		.loc 3 331 0
 460              	@ 331 "ChibiOS_3.0.2/os/ext/CMSIS/include/core_cmFunc.h" 1
 461 0008 62B6     		cpsie i
 462              	@ 0 "" 2
 463              		.thumb
 464              	.LBE136:
 465              	.LBE135:
 466              	.LBE134:
 467              	.LBE133:
 468              	.LBE132:
 469              		.loc 1 186 0
 470 000a 08BD     		pop	{r3, pc}
 471              		.cfi_endproc
 472              	.LFE224:
 473              		.size	chCondWait, .-chCondWait
 474              		.section	.text.chCondWaitTimeoutS,"ax",%progbits
 475              		.align	2
 476              		.p2align 4,,15
 477              		.global	chCondWaitTimeoutS
 478              		.thumb
 479              		.thumb_func
 480              		.type	chCondWaitTimeoutS, %function
 481              	chCondWaitTimeoutS:
 482              	.LFB227:
 483              		.loc 1 296 0
 484              		.cfi_startproc
 485              		@ args = 0, pretend = 0, frame = 0
 486              		@ frame_needed = 0, uses_anonymous_args = 0
 487              	.LVL33:
 488 0000 F8B5     		push	{r3, r4, r5, r6, r7, lr}
 489              		.cfi_def_cfa_offset 24
 490              		.cfi_offset 3, -24
 491              		.cfi_offset 4, -20
 492              		.cfi_offset 5, -16
 493              		.cfi_offset 6, -12
 494              		.cfi_offset 7, -8
 495              		.cfi_offset 14, -4
 496              	.LBB137:
 497              	.LBB138:
 498              	.LBB139:
 499              	.LBB140:
 500              		.file 5 "ChibiOS_3.0.2/os/rt/include/chthreads.h"
 501              		.loc 5 176 0
 502 0002 124C     		ldr	r4, .L37
 503              	.LBE140:
 504              	.LBE139:
 505              		.loc 4 146 0
 506 0004 A369     		ldr	r3, [r4, #24]
 507 0006 DE6B     		ldr	r6, [r3, #60]
 508              	.LBE138:
 509              	.LBE137:
 510              		.loc 1 296 0
 511 0008 0546     		mov	r5, r0
 512              		.loc 1 306 0
 513 000a 3046     		mov	r0, r6
ARM GAS  /tmp/cc6dSZm1.s 			page 10


 514              	.LVL34:
 515              		.loc 1 296 0
 516 000c 0F46     		mov	r7, r1
 517              		.loc 1 306 0
 518 000e FFF7FEFF 		bl	chMtxUnlockS
 519              	.LVL35:
 520              		.loc 1 310 0
 521 0012 A469     		ldr	r4, [r4, #24]
 522              	.LBB141:
 523              	.LBB142:
 524              		.loc 2 653 0
 525 0014 2B46     		mov	r3, r5
 526              	.LBE142:
 527              	.LBE141:
 528              		.loc 1 310 0
 529 0016 6562     		str	r5, [r4, #36]
 530              	.LVL36:
 531 0018 03E0     		b	.L33
 532              	.LVL37:
 533              	.L30:
 534              	.LBB146:
 535              	.LBB143:
 536              		.loc 2 656 0
 537 001a 9868     		ldr	r0, [r3, #8]
 538 001c A268     		ldr	r2, [r4, #8]
 539 001e 9042     		cmp	r0, r2
 540 0020 02D3     		bcc	.L34
 541              	.L33:
 542              		.loc 2 655 0
 543 0022 1B68     		ldr	r3, [r3]
 544              	.LVL38:
 545              		.loc 2 656 0
 546 0024 9D42     		cmp	r5, r3
 547 0026 F8D1     		bne	.L30
 548              	.L34:
 549              		.loc 2 658 0
 550 0028 5A68     		ldr	r2, [r3, #4]
 551 002a 6260     		str	r2, [r4, #4]
 552              		.loc 2 657 0
 553 002c 2360     		str	r3, [r4]
 554              	.LBE143:
 555              	.LBE146:
 556              		.loc 1 312 0
 557 002e 3946     		mov	r1, r7
 558              	.LBB147:
 559              	.LBB144:
 560              		.loc 2 659 0
 561 0030 1460     		str	r4, [r2]
 562              	.LBE144:
 563              	.LBE147:
 564              		.loc 1 312 0
 565 0032 0720     		movs	r0, #7
 566              	.LBB148:
 567              	.LBB145:
 568              		.loc 2 660 0
 569 0034 5C60     		str	r4, [r3, #4]
 570              	.LBE145:
ARM GAS  /tmp/cc6dSZm1.s 			page 11


 571              	.LBE148:
 572              		.loc 1 312 0
 573 0036 FFF7FEFF 		bl	chSchGoSleepTimeoutS
 574              	.LVL39:
 575              		.loc 1 313 0
 576 003a 431C     		adds	r3, r0, #1
 577              		.loc 1 312 0
 578 003c 0446     		mov	r4, r0
 579              	.LVL40:
 580              		.loc 1 313 0
 581 003e 02D0     		beq	.L32
 582              		.loc 1 314 0
 583 0040 3046     		mov	r0, r6
 584              	.LVL41:
 585 0042 FFF7FEFF 		bl	chMtxLockS
 586              	.LVL42:
 587              	.L32:
 588              		.loc 1 318 0
 589 0046 2046     		mov	r0, r4
 590 0048 F8BD     		pop	{r3, r4, r5, r6, r7, pc}
 591              	.LVL43:
 592              	.L38:
 593 004a 00BF     		.align	2
 594              	.L37:
 595 004c 00000000 		.word	ch
 596              		.cfi_endproc
 597              	.LFE227:
 598              		.size	chCondWaitTimeoutS, .-chCondWaitTimeoutS
 599              		.section	.text.chCondWaitTimeout,"ax",%progbits
 600              		.align	2
 601              		.p2align 4,,15
 602              		.global	chCondWaitTimeout
 603              		.thumb
 604              		.thumb_func
 605              		.type	chCondWaitTimeout, %function
 606              	chCondWaitTimeout:
 607              	.LFB226:
 608              		.loc 1 258 0
 609              		.cfi_startproc
 610              		@ args = 0, pretend = 0, frame = 0
 611              		@ frame_needed = 0, uses_anonymous_args = 0
 612              	.LVL44:
 613 0000 08B5     		push	{r3, lr}
 614              		.cfi_def_cfa_offset 8
 615              		.cfi_offset 3, -8
 616              		.cfi_offset 14, -4
 617              	.LBB149:
 618              	.LBB150:
 619              	.LBB151:
 620              	.LBB152:
 621              		.loc 3 342 0
 622              	@ 342 "ChibiOS_3.0.2/os/ext/CMSIS/include/core_cmFunc.h" 1
 623 0002 72B6     		cpsid i
 624              	@ 0 "" 2
 625              		.thumb
 626              	.LBE152:
 627              	.LBE151:
ARM GAS  /tmp/cc6dSZm1.s 			page 12


 628              	.LBE150:
 629              	.LBE149:
 630              		.loc 1 262 0
 631 0004 FFF7FEFF 		bl	chCondWaitTimeoutS
 632              	.LVL45:
 633              	.LBB153:
 634              	.LBB154:
 635              	.LBB155:
 636              	.LBB156:
 637              	.LBB157:
 638              		.loc 3 331 0
 639              	@ 331 "ChibiOS_3.0.2/os/ext/CMSIS/include/core_cmFunc.h" 1
 640 0008 62B6     		cpsie i
 641              	@ 0 "" 2
 642              		.thumb
 643              	.LBE157:
 644              	.LBE156:
 645              	.LBE155:
 646              	.LBE154:
 647              	.LBE153:
 648              		.loc 1 266 0
 649 000a 08BD     		pop	{r3, pc}
 650              		.cfi_endproc
 651              	.LFE226:
 652              		.size	chCondWaitTimeout, .-chCondWaitTimeout
 653              		.text
 654              	.Letext0:
 655              		.file 6 "/usr/arm-none-eabi/include/machine/_default_types.h"
 656              		.file 7 "/usr/arm-none-eabi/include/sys/_stdint.h"
 657              		.file 8 "ChibiOS_3.0.2/os/rt/ports/ARMCMx/compilers/GCC/chtypes.h"
 658              		.file 9 "ChibiOS_3.0.2/os/rt/include/chsystypes.h"
 659              		.file 10 "ChibiOS_3.0.2/os/rt/ports/ARMCMx/chcore.h"
 660              		.file 11 "ChibiOS_3.0.2/os/rt/ports/ARMCMx/chcore_v7m.h"
 661              		.file 12 "ChibiOS_3.0.2/os/rt/include/chtm.h"
 662              		.file 13 "ChibiOS_3.0.2/os/rt/include/chsem.h"
 663              		.file 14 "ChibiOS_3.0.2/os/rt/include/chcond.h"
 664              		.file 15 "ChibiOS_3.0.2/os/rt/include/chsys.h"
 665              		.file 16 "ChibiOS_3.0.2/os/ext/CMSIS/include/core_cm4.h"
 666              		.section	.debug_info,"",%progbits
 667              	.Ldebug_info0:
 668 0000 B70F0000 		.4byte	0xfb7
 669 0004 0400     		.2byte	0x4
 670 0006 00000000 		.4byte	.Ldebug_abbrev0
 671 000a 04       		.byte	0x4
 672 000b 01       		.uleb128 0x1
 673 000c D7050000 		.4byte	.LASF137
 674 0010 01       		.byte	0x1
 675 0011 D4000000 		.4byte	.LASF138
 676 0015 B9030000 		.4byte	.LASF139
 677 0019 88000000 		.4byte	.Ldebug_ranges0+0x88
 678 001d 00000000 		.4byte	0
 679 0021 00000000 		.4byte	.Ldebug_line0
 680 0025 02       		.uleb128 0x2
 681 0026 04       		.byte	0x4
 682 0027 05       		.byte	0x5
 683 0028 696E7400 		.ascii	"int\000"
 684 002c 03       		.uleb128 0x3
ARM GAS  /tmp/cc6dSZm1.s 			page 13


 685 002d 04       		.byte	0x4
 686 002e 07       		.byte	0x7
 687 002f 15020000 		.4byte	.LASF0
 688 0033 03       		.uleb128 0x3
 689 0034 01       		.byte	0x1
 690 0035 06       		.byte	0x6
 691 0036 1B010000 		.4byte	.LASF1
 692 003a 04       		.uleb128 0x4
 693 003b 2B000000 		.4byte	.LASF5
 694 003f 06       		.byte	0x6
 695 0040 1D       		.byte	0x1d
 696 0041 45000000 		.4byte	0x45
 697 0045 03       		.uleb128 0x3
 698 0046 01       		.byte	0x1
 699 0047 08       		.byte	0x8
 700 0048 06040000 		.4byte	.LASF2
 701 004c 03       		.uleb128 0x3
 702 004d 02       		.byte	0x2
 703 004e 05       		.byte	0x5
 704 004f 1E040000 		.4byte	.LASF3
 705 0053 03       		.uleb128 0x3
 706 0054 02       		.byte	0x2
 707 0055 07       		.byte	0x7
 708 0056 52020000 		.4byte	.LASF4
 709 005a 04       		.uleb128 0x4
 710 005b B0020000 		.4byte	.LASF6
 711 005f 06       		.byte	0x6
 712 0060 3F       		.byte	0x3f
 713 0061 65000000 		.4byte	0x65
 714 0065 03       		.uleb128 0x3
 715 0066 04       		.byte	0x4
 716 0067 05       		.byte	0x5
 717 0068 73010000 		.4byte	.LASF7
 718 006c 04       		.uleb128 0x4
 719 006d 54050000 		.4byte	.LASF8
 720 0071 06       		.byte	0x6
 721 0072 41       		.byte	0x41
 722 0073 77000000 		.4byte	0x77
 723 0077 03       		.uleb128 0x3
 724 0078 04       		.byte	0x4
 725 0079 07       		.byte	0x7
 726 007a F0040000 		.4byte	.LASF9
 727 007e 03       		.uleb128 0x3
 728 007f 08       		.byte	0x8
 729 0080 05       		.byte	0x5
 730 0081 0D010000 		.4byte	.LASF10
 731 0085 04       		.uleb128 0x4
 732 0086 81030000 		.4byte	.LASF11
 733 008a 06       		.byte	0x6
 734 008b 5B       		.byte	0x5b
 735 008c 90000000 		.4byte	0x90
 736 0090 03       		.uleb128 0x3
 737 0091 08       		.byte	0x8
 738 0092 07       		.byte	0x7
 739 0093 86000000 		.4byte	.LASF12
 740 0097 04       		.uleb128 0x4
 741 0098 CF050000 		.4byte	.LASF13
ARM GAS  /tmp/cc6dSZm1.s 			page 14


 742 009c 07       		.byte	0x7
 743 009d 14       		.byte	0x14
 744 009e 3A000000 		.4byte	0x3a
 745 00a2 04       		.uleb128 0x4
 746 00a3 FE030000 		.4byte	.LASF14
 747 00a7 07       		.byte	0x7
 748 00a8 1F       		.byte	0x1f
 749 00a9 5A000000 		.4byte	0x5a
 750 00ad 04       		.uleb128 0x4
 751 00ae BC040000 		.4byte	.LASF15
 752 00b2 07       		.byte	0x7
 753 00b3 20       		.byte	0x20
 754 00b4 6C000000 		.4byte	0x6c
 755 00b8 04       		.uleb128 0x4
 756 00b9 22000000 		.4byte	.LASF16
 757 00bd 07       		.byte	0x7
 758 00be 26       		.byte	0x26
 759 00bf 85000000 		.4byte	0x85
 760 00c3 05       		.uleb128 0x5
 761 00c4 A2000000 		.4byte	0xa2
 762 00c8 04       		.uleb128 0x4
 763 00c9 78050000 		.4byte	.LASF17
 764 00cd 08       		.byte	0x8
 765 00ce 45       		.byte	0x45
 766 00cf AD000000 		.4byte	0xad
 767 00d3 04       		.uleb128 0x4
 768 00d4 8E020000 		.4byte	.LASF18
 769 00d8 08       		.byte	0x8
 770 00d9 48       		.byte	0x48
 771 00da 97000000 		.4byte	0x97
 772 00de 04       		.uleb128 0x4
 773 00df 7C010000 		.4byte	.LASF19
 774 00e3 08       		.byte	0x8
 775 00e4 49       		.byte	0x49
 776 00e5 97000000 		.4byte	0x97
 777 00e9 04       		.uleb128 0x4
 778 00ea 00000000 		.4byte	.LASF20
 779 00ee 08       		.byte	0x8
 780 00ef 4A       		.byte	0x4a
 781 00f0 97000000 		.4byte	0x97
 782 00f4 04       		.uleb128 0x4
 783 00f5 5F010000 		.4byte	.LASF21
 784 00f9 08       		.byte	0x8
 785 00fa 4B       		.byte	0x4b
 786 00fb 97000000 		.4byte	0x97
 787 00ff 04       		.uleb128 0x4
 788 0100 B1030000 		.4byte	.LASF22
 789 0104 08       		.byte	0x8
 790 0105 4C       		.byte	0x4c
 791 0106 AD000000 		.4byte	0xad
 792 010a 04       		.uleb128 0x4
 793 010b 7C020000 		.4byte	.LASF23
 794 010f 08       		.byte	0x8
 795 0110 4D       		.byte	0x4d
 796 0111 A2000000 		.4byte	0xa2
 797 0115 04       		.uleb128 0x4
 798 0116 A4020000 		.4byte	.LASF24
ARM GAS  /tmp/cc6dSZm1.s 			page 15


 799 011a 08       		.byte	0x8
 800 011b 4F       		.byte	0x4f
 801 011c AD000000 		.4byte	0xad
 802 0120 04       		.uleb128 0x4
 803 0121 02020000 		.4byte	.LASF25
 804 0125 08       		.byte	0x8
 805 0126 51       		.byte	0x51
 806 0127 A2000000 		.4byte	0xa2
 807 012b 04       		.uleb128 0x4
 808 012c 36050000 		.4byte	.LASF26
 809 0130 09       		.byte	0x9
 810 0131 33       		.byte	0x33
 811 0132 AD000000 		.4byte	0xad
 812 0136 04       		.uleb128 0x4
 813 0137 B2050000 		.4byte	.LASF27
 814 013b 09       		.byte	0x9
 815 013c 3F       		.byte	0x3f
 816 013d 41010000 		.4byte	0x141
 817 0141 06       		.uleb128 0x6
 818 0142 65020000 		.4byte	.LASF49
 819 0146 48       		.byte	0x48
 820 0147 02       		.byte	0x2
 821 0148 C2       		.byte	0xc2
 822 0149 46020000 		.4byte	0x246
 823 014d 07       		.uleb128 0x7
 824 014e 48040000 		.4byte	.LASF28
 825 0152 02       		.byte	0x2
 826 0153 C3       		.byte	0xc3
 827 0154 51020000 		.4byte	0x251
 828 0158 00       		.byte	0
 829 0159 07       		.uleb128 0x7
 830 015a AA030000 		.4byte	.LASF29
 831 015e 02       		.byte	0x2
 832 015f C5       		.byte	0xc5
 833 0160 51020000 		.4byte	0x251
 834 0164 04       		.byte	0x4
 835 0165 07       		.uleb128 0x7
 836 0166 06010000 		.4byte	.LASF30
 837 016a 02       		.byte	0x2
 838 016b C7       		.byte	0xc7
 839 016c FF000000 		.4byte	0xff
 840 0170 08       		.byte	0x8
 841 0171 07       		.uleb128 0x7
 842 0172 72070000 		.4byte	.LASF31
 843 0176 02       		.byte	0x2
 844 0177 C8       		.byte	0xc8
 845 0178 81040000 		.4byte	0x481
 846 017c 0C       		.byte	0xc
 847 017d 07       		.uleb128 0x7
 848 017e 94010000 		.4byte	.LASF32
 849 0182 02       		.byte	0x2
 850 0183 CA       		.byte	0xca
 851 0184 51020000 		.4byte	0x251
 852 0188 10       		.byte	0x10
 853 0189 07       		.uleb128 0x7
 854 018a 37030000 		.4byte	.LASF33
 855 018e 02       		.byte	0x2
ARM GAS  /tmp/cc6dSZm1.s 			page 16


 856 018f CB       		.byte	0xcb
 857 0190 51020000 		.4byte	0x251
 858 0194 14       		.byte	0x14
 859 0195 07       		.uleb128 0x7
 860 0196 02070000 		.4byte	.LASF34
 861 019a 02       		.byte	0x2
 862 019b D2       		.byte	0xd2
 863 019c C6060000 		.4byte	0x6c6
 864 01a0 18       		.byte	0x18
 865 01a1 07       		.uleb128 0x7
 866 01a2 28040000 		.4byte	.LASF35
 867 01a6 02       		.byte	0x2
 868 01a7 DD       		.byte	0xdd
 869 01a8 DE000000 		.4byte	0xde
 870 01ac 1C       		.byte	0x1c
 871 01ad 07       		.uleb128 0x7
 872 01ae 4F040000 		.4byte	.LASF36
 873 01b2 02       		.byte	0x2
 874 01b3 E1       		.byte	0xe1
 875 01b4 D3000000 		.4byte	0xd3
 876 01b8 1D       		.byte	0x1d
 877 01b9 07       		.uleb128 0x7
 878 01ba AB050000 		.4byte	.LASF37
 879 01be 02       		.byte	0x2
 880 01bf E6       		.byte	0xe6
 881 01c0 E9000000 		.4byte	0xe9
 882 01c4 1E       		.byte	0x1e
 883 01c5 07       		.uleb128 0x7
 884 01c6 30040000 		.4byte	.LASF38
 885 01ca 02       		.byte	0x2
 886 01cb EC       		.byte	0xec
 887 01cc F4000000 		.4byte	0xf4
 888 01d0 1F       		.byte	0x1f
 889 01d1 07       		.uleb128 0x7
 890 01d2 2A020000 		.4byte	.LASF39
 891 01d6 02       		.byte	0x2
 892 01d7 F3       		.byte	0xf3
 893 01d8 D8060000 		.4byte	0x6d8
 894 01dc 20       		.byte	0x20
 895 01dd 08       		.uleb128 0x8
 896 01de 705F7500 		.ascii	"p_u\000"
 897 01e2 02       		.byte	0x2
 898 01e3 3101     		.2byte	0x131
 899 01e5 01060000 		.4byte	0x601
 900 01e9 24       		.byte	0x24
 901 01ea 09       		.uleb128 0x9
 902 01eb D4020000 		.4byte	.LASF40
 903 01ef 02       		.byte	0x2
 904 01f0 3601     		.2byte	0x136
 905 01f2 57020000 		.4byte	0x257
 906 01f6 28       		.byte	0x28
 907 01f7 09       		.uleb128 0x9
 908 01f8 41020000 		.4byte	.LASF41
 909 01fc 02       		.byte	0x2
 910 01fd 3C01     		.2byte	0x13c
 911 01ff 7B020000 		.4byte	0x27b
 912 0203 2C       		.byte	0x2c
ARM GAS  /tmp/cc6dSZm1.s 			page 17


 913 0204 09       		.uleb128 0x9
 914 0205 47070000 		.4byte	.LASF42
 915 0209 02       		.byte	0x2
 916 020a 4001     		.2byte	0x140
 917 020c 0A010000 		.4byte	0x10a
 918 0210 34       		.byte	0x34
 919 0211 09       		.uleb128 0x9
 920 0212 9E040000 		.4byte	.LASF43
 921 0216 02       		.byte	0x2
 922 0217 4601     		.2byte	0x146
 923 0219 15010000 		.4byte	0x115
 924 021d 38       		.byte	0x38
 925 021e 09       		.uleb128 0x9
 926 021f 14040000 		.4byte	.LASF44
 927 0223 02       		.byte	0x2
 928 0224 4D01     		.2byte	0x14d
 929 0226 C0060000 		.4byte	0x6c0
 930 022a 3C       		.byte	0x3c
 931 022b 09       		.uleb128 0x9
 932 022c 40050000 		.4byte	.LASF45
 933 0230 02       		.byte	0x2
 934 0231 5101     		.2byte	0x151
 935 0233 FF000000 		.4byte	0xff
 936 0237 40       		.byte	0x40
 937 0238 09       		.uleb128 0x9
 938 0239 3C010000 		.4byte	.LASF46
 939 023d 02       		.byte	0x2
 940 023e 5801     		.2byte	0x158
 941 0240 2E030000 		.4byte	0x32e
 942 0244 44       		.byte	0x44
 943 0245 00       		.byte	0
 944 0246 04       		.uleb128 0x4
 945 0247 E7020000 		.4byte	.LASF47
 946 024b 09       		.byte	0x9
 947 024c 44       		.byte	0x44
 948 024d 51020000 		.4byte	0x251
 949 0251 0A       		.uleb128 0xa
 950 0252 04       		.byte	0x4
 951 0253 36010000 		.4byte	0x136
 952 0257 04       		.uleb128 0x4
 953 0258 C5020000 		.4byte	.LASF48
 954 025c 09       		.byte	0x9
 955 025d 49       		.byte	0x49
 956 025e 62020000 		.4byte	0x262
 957 0262 06       		.uleb128 0x6
 958 0263 E0040000 		.4byte	.LASF50
 959 0267 04       		.byte	0x4
 960 0268 02       		.byte	0x2
 961 0269 B0       		.byte	0xb0
 962 026a 7B020000 		.4byte	0x27b
 963 026e 07       		.uleb128 0x7
 964 026f 48040000 		.4byte	.LASF28
 965 0273 02       		.byte	0x2
 966 0274 B1       		.byte	0xb1
 967 0275 51020000 		.4byte	0x251
 968 0279 00       		.byte	0
 969 027a 00       		.byte	0
ARM GAS  /tmp/cc6dSZm1.s 			page 18


 970 027b 04       		.uleb128 0x4
 971 027c 92050000 		.4byte	.LASF51
 972 0280 09       		.byte	0x9
 973 0281 50       		.byte	0x50
 974 0282 86020000 		.4byte	0x286
 975 0286 06       		.uleb128 0x6
 976 0287 F5000000 		.4byte	.LASF52
 977 028b 08       		.byte	0x8
 978 028c 02       		.byte	0x2
 979 028d B7       		.byte	0xb7
 980 028e AB020000 		.4byte	0x2ab
 981 0292 07       		.uleb128 0x7
 982 0293 48040000 		.4byte	.LASF28
 983 0297 02       		.byte	0x2
 984 0298 B8       		.byte	0xb8
 985 0299 51020000 		.4byte	0x251
 986 029d 00       		.byte	0
 987 029e 07       		.uleb128 0x7
 988 029f AA030000 		.4byte	.LASF29
 989 02a3 02       		.byte	0x2
 990 02a4 B9       		.byte	0xb9
 991 02a5 51020000 		.4byte	0x251
 992 02a9 04       		.byte	0x4
 993 02aa 00       		.byte	0
 994 02ab 04       		.uleb128 0x4
 995 02ac 08000000 		.4byte	.LASF53
 996 02b0 09       		.byte	0x9
 997 02b1 57       		.byte	0x57
 998 02b2 B6020000 		.4byte	0x2b6
 999 02b6 0B       		.uleb128 0xb
 1000 02b7 96020000 		.4byte	.LASF54
 1001 02bb 1C       		.byte	0x1c
 1002 02bc 02       		.byte	0x2
 1003 02bd 9001     		.2byte	0x190
 1004 02bf 12030000 		.4byte	0x312
 1005 02c3 09       		.uleb128 0x9
 1006 02c4 CC040000 		.4byte	.LASF55
 1007 02c8 02       		.byte	0x2
 1008 02c9 9101     		.2byte	0x191
 1009 02cb 7B020000 		.4byte	0x27b
 1010 02cf 00       		.byte	0
 1011 02d0 09       		.uleb128 0x9
 1012 02d1 3A040000 		.4byte	.LASF56
 1013 02d5 02       		.byte	0x2
 1014 02d6 9201     		.2byte	0x192
 1015 02d8 FF000000 		.4byte	0xff
 1016 02dc 08       		.byte	0x8
 1017 02dd 09       		.uleb128 0x9
 1018 02de 3F030000 		.4byte	.LASF57
 1019 02e2 02       		.byte	0x2
 1020 02e3 9401     		.2byte	0x194
 1021 02e5 81040000 		.4byte	0x481
 1022 02e9 0C       		.byte	0xc
 1023 02ea 09       		.uleb128 0x9
 1024 02eb B5010000 		.4byte	.LASF58
 1025 02ef 02       		.byte	0x2
 1026 02f0 9701     		.2byte	0x197
ARM GAS  /tmp/cc6dSZm1.s 			page 19


 1027 02f2 51020000 		.4byte	0x251
 1028 02f6 10       		.byte	0x10
 1029 02f7 09       		.uleb128 0x9
 1030 02f8 6C030000 		.4byte	.LASF59
 1031 02fc 02       		.byte	0x2
 1032 02fd 9801     		.2byte	0x198
 1033 02ff 51020000 		.4byte	0x251
 1034 0303 14       		.byte	0x14
 1035 0304 09       		.uleb128 0x9
 1036 0305 62030000 		.4byte	.LASF60
 1037 0309 02       		.byte	0x2
 1038 030a 9B01     		.2byte	0x19b
 1039 030c 51020000 		.4byte	0x251
 1040 0310 18       		.byte	0x18
 1041 0311 00       		.byte	0
 1042 0312 04       		.uleb128 0x4
 1043 0313 4B050000 		.4byte	.LASF61
 1044 0317 09       		.byte	0x9
 1045 0318 5C       		.byte	0x5c
 1046 0319 1D030000 		.4byte	0x31d
 1047 031d 0A       		.uleb128 0xa
 1048 031e 04       		.byte	0x4
 1049 031f 23030000 		.4byte	0x323
 1050 0323 0C       		.uleb128 0xc
 1051 0324 2E030000 		.4byte	0x32e
 1052 0328 0D       		.uleb128 0xd
 1053 0329 2E030000 		.4byte	0x32e
 1054 032d 00       		.byte	0
 1055 032e 0E       		.uleb128 0xe
 1056 032f 04       		.byte	0x4
 1057 0330 04       		.uleb128 0x4
 1058 0331 9A030000 		.4byte	.LASF62
 1059 0335 09       		.byte	0x9
 1060 0336 61       		.byte	0x61
 1061 0337 3B030000 		.4byte	0x33b
 1062 033b 0B       		.uleb128 0xb
 1063 033c 6A040000 		.4byte	.LASF63
 1064 0340 14       		.byte	0x14
 1065 0341 02       		.byte	0x2
 1066 0342 6B01     		.2byte	0x16b
 1067 0344 8A030000 		.4byte	0x38a
 1068 0348 09       		.uleb128 0x9
 1069 0349 22020000 		.4byte	.LASF64
 1070 034d 02       		.byte	0x2
 1071 034e 6C01     		.2byte	0x16c
 1072 0350 DD060000 		.4byte	0x6dd
 1073 0354 00       		.byte	0
 1074 0355 09       		.uleb128 0x9
 1075 0356 C6010000 		.4byte	.LASF65
 1076 035a 02       		.byte	0x2
 1077 035b 6D01     		.2byte	0x16d
 1078 035d DD060000 		.4byte	0x6dd
 1079 0361 04       		.byte	0x4
 1080 0362 09       		.uleb128 0x9
 1081 0363 38020000 		.4byte	.LASF66
 1082 0367 02       		.byte	0x2
 1083 0368 6E01     		.2byte	0x16e
ARM GAS  /tmp/cc6dSZm1.s 			page 20


 1084 036a 2B010000 		.4byte	0x12b
 1085 036e 08       		.byte	0x8
 1086 036f 09       		.uleb128 0x9
 1087 0370 78070000 		.4byte	.LASF67
 1088 0374 02       		.byte	0x2
 1089 0375 6F01     		.2byte	0x16f
 1090 0377 12030000 		.4byte	0x312
 1091 037b 0C       		.byte	0xc
 1092 037c 09       		.uleb128 0x9
 1093 037d 8B050000 		.4byte	.LASF68
 1094 0381 02       		.byte	0x2
 1095 0382 7101     		.2byte	0x171
 1096 0384 2E030000 		.4byte	0x32e
 1097 0388 10       		.byte	0x10
 1098 0389 00       		.byte	0
 1099 038a 04       		.uleb128 0x4
 1100 038b B1000000 		.4byte	.LASF69
 1101 038f 09       		.byte	0x9
 1102 0390 66       		.byte	0x66
 1103 0391 95030000 		.4byte	0x395
 1104 0395 0B       		.uleb128 0xb
 1105 0396 FA020000 		.4byte	.LASF70
 1106 039a 10       		.byte	0x10
 1107 039b 02       		.byte	0x2
 1108 039c 7B01     		.2byte	0x17b
 1109 039e D7030000 		.4byte	0x3d7
 1110 03a2 09       		.uleb128 0x9
 1111 03a3 22020000 		.4byte	.LASF64
 1112 03a7 02       		.byte	0x2
 1113 03a8 7C01     		.2byte	0x17c
 1114 03aa DD060000 		.4byte	0x6dd
 1115 03ae 00       		.byte	0
 1116 03af 09       		.uleb128 0x9
 1117 03b0 C6010000 		.4byte	.LASF65
 1118 03b4 02       		.byte	0x2
 1119 03b5 7E01     		.2byte	0x17e
 1120 03b7 DD060000 		.4byte	0x6dd
 1121 03bb 04       		.byte	0x4
 1122 03bc 09       		.uleb128 0x9
 1123 03bd 38020000 		.4byte	.LASF66
 1124 03c1 02       		.byte	0x2
 1125 03c2 8001     		.2byte	0x180
 1126 03c4 2B010000 		.4byte	0x12b
 1127 03c8 08       		.byte	0x8
 1128 03c9 09       		.uleb128 0x9
 1129 03ca 1B070000 		.4byte	.LASF71
 1130 03ce 02       		.byte	0x2
 1131 03cf 8201     		.2byte	0x182
 1132 03d1 D8060000 		.4byte	0x6d8
 1133 03d5 0C       		.byte	0xc
 1134 03d6 00       		.byte	0
 1135 03d7 04       		.uleb128 0x4
 1136 03d8 41000000 		.4byte	.LASF72
 1137 03dc 09       		.byte	0x9
 1138 03dd 6B       		.byte	0x6b
 1139 03de E2030000 		.4byte	0x3e2
 1140 03e2 0B       		.uleb128 0xb
ARM GAS  /tmp/cc6dSZm1.s 			page 21


 1141 03e3 CE010000 		.4byte	.LASF73
 1142 03e7 04       		.byte	0x4
 1143 03e8 02       		.byte	0x2
 1144 03e9 A201     		.2byte	0x1a2
 1145 03eb FD030000 		.4byte	0x3fd
 1146 03ef 09       		.uleb128 0x9
 1147 03f0 5F050000 		.4byte	.LASF74
 1148 03f4 02       		.byte	0x2
 1149 03f5 AA01     		.2byte	0x1aa
 1150 03f7 E3060000 		.4byte	0x6e3
 1151 03fb 00       		.byte	0
 1152 03fc 00       		.byte	0
 1153 03fd 04       		.uleb128 0x4
 1154 03fe 82020000 		.4byte	.LASF75
 1155 0402 09       		.byte	0x9
 1156 0403 70       		.byte	0x70
 1157 0404 08040000 		.4byte	0x408
 1158 0408 0F       		.uleb128 0xf
 1159 0409 69010000 		.4byte	.LASF76
 1160 040d 5802     		.2byte	0x258
 1161 040f 02       		.byte	0x2
 1162 0410 C201     		.2byte	0x1c2
 1163 0412 64040000 		.4byte	0x464
 1164 0416 09       		.uleb128 0x9
 1165 0417 BB050000 		.4byte	.LASF77
 1166 041b 02       		.byte	0x2
 1167 041c C601     		.2byte	0x1c6
 1168 041e AB020000 		.4byte	0x2ab
 1169 0422 00       		.byte	0
 1170 0423 09       		.uleb128 0x9
 1171 0424 4C010000 		.4byte	.LASF78
 1172 0428 02       		.byte	0x2
 1173 0429 CA01     		.2byte	0x1ca
 1174 042b 8A030000 		.4byte	0x38a
 1175 042f 1C       		.byte	0x1c
 1176 0430 08       		.uleb128 0x8
 1177 0431 64626700 		.ascii	"dbg\000"
 1178 0435 02       		.byte	0x2
 1179 0436 CE01     		.2byte	0x1ce
 1180 0438 D7030000 		.4byte	0x3d7
 1181 043c 2C       		.byte	0x2c
 1182 043d 09       		.uleb128 0x9
 1183 043e A6000000 		.4byte	.LASF79
 1184 0442 02       		.byte	0x2
 1185 0443 D201     		.2byte	0x1d2
 1186 0445 36010000 		.4byte	0x136
 1187 0449 30       		.byte	0x30
 1188 044a 08       		.uleb128 0x8
 1189 044b 746D00   		.ascii	"tm\000"
 1190 044e 02       		.byte	0x2
 1191 044f D701     		.2byte	0x1d7
 1192 0451 F6050000 		.4byte	0x5f6
 1193 0455 78       		.byte	0x78
 1194 0456 09       		.uleb128 0x9
 1195 0457 F3010000 		.4byte	.LASF80
 1196 045b 02       		.byte	0x2
 1197 045c E301     		.2byte	0x1e3
ARM GAS  /tmp/cc6dSZm1.s 			page 22


 1198 045e E8060000 		.4byte	0x6e8
 1199 0462 80       		.byte	0x80
 1200 0463 00       		.byte	0
 1201 0464 03       		.uleb128 0x3
 1202 0465 04       		.byte	0x4
 1203 0466 07       		.byte	0x7
 1204 0467 DE020000 		.4byte	.LASF81
 1205 046b 04       		.uleb128 0x4
 1206 046c BD010000 		.4byte	.LASF82
 1207 0470 0A       		.byte	0xa
 1208 0471 65       		.byte	0x65
 1209 0472 2E030000 		.4byte	0x32e
 1210 0476 04       		.uleb128 0x4
 1211 0477 BA020000 		.4byte	.LASF83
 1212 047b 0A       		.byte	0xa
 1213 047c 6D       		.byte	0x6d
 1214 047d B8000000 		.4byte	0xb8
 1215 0481 06       		.uleb128 0x6
 1216 0482 70050000 		.4byte	.LASF84
 1217 0486 04       		.byte	0x4
 1218 0487 0A       		.byte	0xa
 1219 0488 89       		.byte	0x89
 1220 0489 9A040000 		.4byte	0x49a
 1221 048d 10       		.uleb128 0x10
 1222 048e 72313300 		.ascii	"r13\000"
 1223 0492 0A       		.byte	0xa
 1224 0493 8A       		.byte	0x8a
 1225 0494 DB050000 		.4byte	0x5db
 1226 0498 00       		.byte	0
 1227 0499 00       		.byte	0
 1228 049a 06       		.uleb128 0x6
 1229 049b 35000000 		.4byte	.LASF85
 1230 049f 64       		.byte	0x64
 1231 04a0 0B       		.byte	0xb
 1232 04a1 F4       		.byte	0xf4
 1233 04a2 DB050000 		.4byte	0x5db
 1234 04a6 10       		.uleb128 0x10
 1235 04a7 73313600 		.ascii	"s16\000"
 1236 04ab 0B       		.byte	0xb
 1237 04ac F6       		.byte	0xf6
 1238 04ad 6B040000 		.4byte	0x46b
 1239 04b1 00       		.byte	0
 1240 04b2 10       		.uleb128 0x10
 1241 04b3 73313700 		.ascii	"s17\000"
 1242 04b7 0B       		.byte	0xb
 1243 04b8 F7       		.byte	0xf7
 1244 04b9 6B040000 		.4byte	0x46b
 1245 04bd 04       		.byte	0x4
 1246 04be 10       		.uleb128 0x10
 1247 04bf 73313800 		.ascii	"s18\000"
 1248 04c3 0B       		.byte	0xb
 1249 04c4 F8       		.byte	0xf8
 1250 04c5 6B040000 		.4byte	0x46b
 1251 04c9 08       		.byte	0x8
 1252 04ca 10       		.uleb128 0x10
 1253 04cb 73313900 		.ascii	"s19\000"
 1254 04cf 0B       		.byte	0xb
ARM GAS  /tmp/cc6dSZm1.s 			page 23


 1255 04d0 F9       		.byte	0xf9
 1256 04d1 6B040000 		.4byte	0x46b
 1257 04d5 0C       		.byte	0xc
 1258 04d6 10       		.uleb128 0x10
 1259 04d7 73323000 		.ascii	"s20\000"
 1260 04db 0B       		.byte	0xb
 1261 04dc FA       		.byte	0xfa
 1262 04dd 6B040000 		.4byte	0x46b
 1263 04e1 10       		.byte	0x10
 1264 04e2 10       		.uleb128 0x10
 1265 04e3 73323100 		.ascii	"s21\000"
 1266 04e7 0B       		.byte	0xb
 1267 04e8 FB       		.byte	0xfb
 1268 04e9 6B040000 		.4byte	0x46b
 1269 04ed 14       		.byte	0x14
 1270 04ee 10       		.uleb128 0x10
 1271 04ef 73323200 		.ascii	"s22\000"
 1272 04f3 0B       		.byte	0xb
 1273 04f4 FC       		.byte	0xfc
 1274 04f5 6B040000 		.4byte	0x46b
 1275 04f9 18       		.byte	0x18
 1276 04fa 10       		.uleb128 0x10
 1277 04fb 73323300 		.ascii	"s23\000"
 1278 04ff 0B       		.byte	0xb
 1279 0500 FD       		.byte	0xfd
 1280 0501 6B040000 		.4byte	0x46b
 1281 0505 1C       		.byte	0x1c
 1282 0506 10       		.uleb128 0x10
 1283 0507 73323400 		.ascii	"s24\000"
 1284 050b 0B       		.byte	0xb
 1285 050c FE       		.byte	0xfe
 1286 050d 6B040000 		.4byte	0x46b
 1287 0511 20       		.byte	0x20
 1288 0512 10       		.uleb128 0x10
 1289 0513 73323500 		.ascii	"s25\000"
 1290 0517 0B       		.byte	0xb
 1291 0518 FF       		.byte	0xff
 1292 0519 6B040000 		.4byte	0x46b
 1293 051d 24       		.byte	0x24
 1294 051e 08       		.uleb128 0x8
 1295 051f 73323600 		.ascii	"s26\000"
 1296 0523 0B       		.byte	0xb
 1297 0524 0001     		.2byte	0x100
 1298 0526 6B040000 		.4byte	0x46b
 1299 052a 28       		.byte	0x28
 1300 052b 08       		.uleb128 0x8
 1301 052c 73323700 		.ascii	"s27\000"
 1302 0530 0B       		.byte	0xb
 1303 0531 0101     		.2byte	0x101
 1304 0533 6B040000 		.4byte	0x46b
 1305 0537 2C       		.byte	0x2c
 1306 0538 08       		.uleb128 0x8
 1307 0539 73323800 		.ascii	"s28\000"
 1308 053d 0B       		.byte	0xb
 1309 053e 0201     		.2byte	0x102
 1310 0540 6B040000 		.4byte	0x46b
 1311 0544 30       		.byte	0x30
ARM GAS  /tmp/cc6dSZm1.s 			page 24


 1312 0545 08       		.uleb128 0x8
 1313 0546 73323900 		.ascii	"s29\000"
 1314 054a 0B       		.byte	0xb
 1315 054b 0301     		.2byte	0x103
 1316 054d 6B040000 		.4byte	0x46b
 1317 0551 34       		.byte	0x34
 1318 0552 08       		.uleb128 0x8
 1319 0553 73333000 		.ascii	"s30\000"
 1320 0557 0B       		.byte	0xb
 1321 0558 0401     		.2byte	0x104
 1322 055a 6B040000 		.4byte	0x46b
 1323 055e 38       		.byte	0x38
 1324 055f 08       		.uleb128 0x8
 1325 0560 73333100 		.ascii	"s31\000"
 1326 0564 0B       		.byte	0xb
 1327 0565 0501     		.2byte	0x105
 1328 0567 6B040000 		.4byte	0x46b
 1329 056b 3C       		.byte	0x3c
 1330 056c 08       		.uleb128 0x8
 1331 056d 723400   		.ascii	"r4\000"
 1332 0570 0B       		.byte	0xb
 1333 0571 0701     		.2byte	0x107
 1334 0573 6B040000 		.4byte	0x46b
 1335 0577 40       		.byte	0x40
 1336 0578 08       		.uleb128 0x8
 1337 0579 723500   		.ascii	"r5\000"
 1338 057c 0B       		.byte	0xb
 1339 057d 0801     		.2byte	0x108
 1340 057f 6B040000 		.4byte	0x46b
 1341 0583 44       		.byte	0x44
 1342 0584 08       		.uleb128 0x8
 1343 0585 723600   		.ascii	"r6\000"
 1344 0588 0B       		.byte	0xb
 1345 0589 0901     		.2byte	0x109
 1346 058b 6B040000 		.4byte	0x46b
 1347 058f 48       		.byte	0x48
 1348 0590 08       		.uleb128 0x8
 1349 0591 723700   		.ascii	"r7\000"
 1350 0594 0B       		.byte	0xb
 1351 0595 0A01     		.2byte	0x10a
 1352 0597 6B040000 		.4byte	0x46b
 1353 059b 4C       		.byte	0x4c
 1354 059c 08       		.uleb128 0x8
 1355 059d 723800   		.ascii	"r8\000"
 1356 05a0 0B       		.byte	0xb
 1357 05a1 0B01     		.2byte	0x10b
 1358 05a3 6B040000 		.4byte	0x46b
 1359 05a7 50       		.byte	0x50
 1360 05a8 08       		.uleb128 0x8
 1361 05a9 723900   		.ascii	"r9\000"
 1362 05ac 0B       		.byte	0xb
 1363 05ad 0C01     		.2byte	0x10c
 1364 05af 6B040000 		.4byte	0x46b
 1365 05b3 54       		.byte	0x54
 1366 05b4 08       		.uleb128 0x8
 1367 05b5 72313000 		.ascii	"r10\000"
 1368 05b9 0B       		.byte	0xb
ARM GAS  /tmp/cc6dSZm1.s 			page 25


 1369 05ba 0D01     		.2byte	0x10d
 1370 05bc 6B040000 		.4byte	0x46b
 1371 05c0 58       		.byte	0x58
 1372 05c1 08       		.uleb128 0x8
 1373 05c2 72313100 		.ascii	"r11\000"
 1374 05c6 0B       		.byte	0xb
 1375 05c7 0E01     		.2byte	0x10e
 1376 05c9 6B040000 		.4byte	0x46b
 1377 05cd 5C       		.byte	0x5c
 1378 05ce 08       		.uleb128 0x8
 1379 05cf 6C7200   		.ascii	"lr\000"
 1380 05d2 0B       		.byte	0xb
 1381 05d3 0F01     		.2byte	0x10f
 1382 05d5 6B040000 		.4byte	0x46b
 1383 05d9 60       		.byte	0x60
 1384 05da 00       		.byte	0
 1385 05db 0A       		.uleb128 0xa
 1386 05dc 04       		.byte	0x4
 1387 05dd 9A040000 		.4byte	0x49a
 1388 05e1 11       		.uleb128 0x11
 1389 05e2 04       		.byte	0x4
 1390 05e3 0C       		.byte	0xc
 1391 05e4 38       		.byte	0x38
 1392 05e5 F6050000 		.4byte	0x5f6
 1393 05e9 07       		.uleb128 0x7
 1394 05ea 69050000 		.4byte	.LASF86
 1395 05ee 0C       		.byte	0xc
 1396 05ef 3C       		.byte	0x3c
 1397 05f0 C8000000 		.4byte	0xc8
 1398 05f4 00       		.byte	0
 1399 05f5 00       		.byte	0
 1400 05f6 04       		.uleb128 0x4
 1401 05f7 45030000 		.4byte	.LASF87
 1402 05fb 0C       		.byte	0xc
 1403 05fc 3D       		.byte	0x3d
 1404 05fd E1050000 		.4byte	0x5e1
 1405 0601 12       		.uleb128 0x12
 1406 0602 04       		.byte	0x4
 1407 0603 02       		.byte	0x2
 1408 0604 FA       		.byte	0xfa
 1409 0605 5E060000 		.4byte	0x65e
 1410 0609 13       		.uleb128 0x13
 1411 060a 1B000000 		.4byte	.LASF88
 1412 060e 02       		.byte	0x2
 1413 060f 0101     		.2byte	0x101
 1414 0611 0A010000 		.4byte	0x10a
 1415 0615 13       		.uleb128 0x13
 1416 0616 9D000000 		.4byte	.LASF89
 1417 061a 02       		.byte	0x2
 1418 061b 0801     		.2byte	0x108
 1419 061d 0A010000 		.4byte	0x10a
 1420 0621 13       		.uleb128 0x13
 1421 0622 FB060000 		.4byte	.LASF90
 1422 0626 02       		.byte	0x2
 1423 0627 0F01     		.2byte	0x10f
 1424 0629 2E030000 		.4byte	0x32e
 1425 062d 13       		.uleb128 0x13
ARM GAS  /tmp/cc6dSZm1.s 			page 26


 1426 062e 15000000 		.4byte	.LASF91
 1427 0632 02       		.byte	0x2
 1428 0633 1601     		.2byte	0x116
 1429 0635 5E060000 		.4byte	0x65e
 1430 0639 13       		.uleb128 0x13
 1431 063a 31020000 		.4byte	.LASF92
 1432 063e 02       		.byte	0x2
 1433 063f 1E01     		.2byte	0x11e
 1434 0641 89060000 		.4byte	0x689
 1435 0645 13       		.uleb128 0x13
 1436 0646 C5040000 		.4byte	.LASF93
 1437 064a 02       		.byte	0x2
 1438 064b 2701     		.2byte	0x127
 1439 064d C0060000 		.4byte	0x6c0
 1440 0651 13       		.uleb128 0x13
 1441 0652 41040000 		.4byte	.LASF94
 1442 0656 02       		.byte	0x2
 1443 0657 2F01     		.2byte	0x12f
 1444 0659 15010000 		.4byte	0x115
 1445 065d 00       		.byte	0
 1446 065e 0A       		.uleb128 0xa
 1447 065f 04       		.byte	0x4
 1448 0660 46020000 		.4byte	0x246
 1449 0664 06       		.uleb128 0x6
 1450 0665 83040000 		.4byte	.LASF95
 1451 0669 0C       		.byte	0xc
 1452 066a 0D       		.byte	0xd
 1453 066b 34       		.byte	0x34
 1454 066c 89060000 		.4byte	0x689
 1455 0670 07       		.uleb128 0x7
 1456 0671 9C010000 		.4byte	.LASF96
 1457 0675 0D       		.byte	0xd
 1458 0676 35       		.byte	0x35
 1459 0677 7B020000 		.4byte	0x27b
 1460 067b 00       		.byte	0
 1461 067c 07       		.uleb128 0x7
 1462 067d 4C020000 		.4byte	.LASF97
 1463 0681 0D       		.byte	0xd
 1464 0682 37       		.byte	0x37
 1465 0683 20010000 		.4byte	0x120
 1466 0687 08       		.byte	0x8
 1467 0688 00       		.byte	0
 1468 0689 0A       		.uleb128 0xa
 1469 068a 04       		.byte	0x4
 1470 068b 64060000 		.4byte	0x664
 1471 068f 06       		.uleb128 0x6
 1472 0690 A2050000 		.4byte	.LASF98
 1473 0694 10       		.byte	0x10
 1474 0695 04       		.byte	0x4
 1475 0696 39       		.byte	0x39
 1476 0697 C0060000 		.4byte	0x6c0
 1477 069b 07       		.uleb128 0x7
 1478 069c 44010000 		.4byte	.LASF99
 1479 06a0 04       		.byte	0x4
 1480 06a1 3A       		.byte	0x3a
 1481 06a2 7B020000 		.4byte	0x27b
 1482 06a6 00       		.byte	0
ARM GAS  /tmp/cc6dSZm1.s 			page 27


 1483 06a7 07       		.uleb128 0x7
 1484 06a8 6A070000 		.4byte	.LASF100
 1485 06ac 04       		.byte	0x4
 1486 06ad 3C       		.byte	0x3c
 1487 06ae 51020000 		.4byte	0x251
 1488 06b2 08       		.byte	0x8
 1489 06b3 07       		.uleb128 0x7
 1490 06b4 56030000 		.4byte	.LASF101
 1491 06b8 04       		.byte	0x4
 1492 06b9 3E       		.byte	0x3e
 1493 06ba 03070000 		.4byte	0x703
 1494 06be 0C       		.byte	0xc
 1495 06bf 00       		.byte	0
 1496 06c0 0A       		.uleb128 0xa
 1497 06c1 04       		.byte	0x4
 1498 06c2 8F060000 		.4byte	0x68f
 1499 06c6 0A       		.uleb128 0xa
 1500 06c7 04       		.byte	0x4
 1501 06c8 CC060000 		.4byte	0x6cc
 1502 06cc 14       		.uleb128 0x14
 1503 06cd D1060000 		.4byte	0x6d1
 1504 06d1 03       		.uleb128 0x3
 1505 06d2 01       		.byte	0x1
 1506 06d3 08       		.byte	0x8
 1507 06d4 02050000 		.4byte	.LASF102
 1508 06d8 05       		.uleb128 0x5
 1509 06d9 2B010000 		.4byte	0x12b
 1510 06dd 0A       		.uleb128 0xa
 1511 06de 04       		.byte	0x4
 1512 06df 30030000 		.4byte	0x330
 1513 06e3 05       		.uleb128 0x5
 1514 06e4 C6060000 		.4byte	0x6c6
 1515 06e8 15       		.uleb128 0x15
 1516 06e9 76040000 		.4byte	0x476
 1517 06ed F8060000 		.4byte	0x6f8
 1518 06f1 16       		.uleb128 0x16
 1519 06f2 64040000 		.4byte	0x464
 1520 06f6 3A       		.byte	0x3a
 1521 06f7 00       		.byte	0
 1522 06f8 04       		.uleb128 0x4
 1523 06f9 DE010000 		.4byte	.LASF103
 1524 06fd 04       		.byte	0x4
 1525 06fe 34       		.byte	0x34
 1526 06ff 8F060000 		.4byte	0x68f
 1527 0703 0A       		.uleb128 0xa
 1528 0704 04       		.byte	0x4
 1529 0705 F8060000 		.4byte	0x6f8
 1530 0709 06       		.uleb128 0x6
 1531 070a 11030000 		.4byte	.LASF104
 1532 070e 08       		.byte	0x8
 1533 070f 0E       		.byte	0xe
 1534 0710 3B       		.byte	0x3b
 1535 0711 22070000 		.4byte	0x722
 1536 0715 07       		.uleb128 0x7
 1537 0716 7B040000 		.4byte	.LASF105
 1538 071a 0E       		.byte	0xe
 1539 071b 3C       		.byte	0x3c
ARM GAS  /tmp/cc6dSZm1.s 			page 28


 1540 071c 7B020000 		.4byte	0x27b
 1541 0720 00       		.byte	0
 1542 0721 00       		.byte	0
 1543 0722 04       		.uleb128 0x4
 1544 0723 27010000 		.4byte	.LASF106
 1545 0727 0E       		.byte	0xe
 1546 0728 3E       		.byte	0x3e
 1547 0729 09070000 		.4byte	0x709
 1548 072d 17       		.uleb128 0x17
 1549 072e 8C030000 		.4byte	.LASF107
 1550 0732 03       		.byte	0x3
 1551 0733 5401     		.2byte	0x154
 1552 0735 03       		.byte	0x3
 1553 0736 17       		.uleb128 0x17
 1554 0737 74030000 		.4byte	.LASF108
 1555 073b 03       		.byte	0x3
 1556 073c 4901     		.2byte	0x149
 1557 073e 03       		.byte	0x3
 1558 073f 17       		.uleb128 0x17
 1559 0740 5B000000 		.4byte	.LASF109
 1560 0744 0B       		.byte	0xb
 1561 0745 BC01     		.2byte	0x1bc
 1562 0747 03       		.byte	0x3
 1563 0748 17       		.uleb128 0x17
 1564 0749 53010000 		.4byte	.LASF110
 1565 074d 0B       		.byte	0xb
 1566 074e CA01     		.2byte	0x1ca
 1567 0750 03       		.byte	0x3
 1568 0751 18       		.uleb128 0x18
 1569 0752 C1050000 		.4byte	.LASF118
 1570 0756 05       		.byte	0x5
 1571 0757 AE       		.byte	0xae
 1572 0758 51020000 		.4byte	0x251
 1573 075c 03       		.byte	0x3
 1574 075d 19       		.uleb128 0x19
 1575 075e 50000000 		.4byte	.LASF115
 1576 0762 02       		.byte	0x2
 1577 0763 5A02     		.2byte	0x25a
 1578 0765 03       		.byte	0x3
 1579 0766 77070000 		.4byte	0x777
 1580 076a 1A       		.uleb128 0x1a
 1581 076b 74717000 		.ascii	"tqp\000"
 1582 076f 02       		.byte	0x2
 1583 0770 5A02     		.2byte	0x25a
 1584 0772 77070000 		.4byte	0x777
 1585 0776 00       		.byte	0
 1586 0777 0A       		.uleb128 0xa
 1587 0778 04       		.byte	0x4
 1588 0779 7B020000 		.4byte	0x27b
 1589 077d 17       		.uleb128 0x17
 1590 077e 60040000 		.4byte	.LASF111
 1591 0782 0F       		.byte	0xf
 1592 0783 5A01     		.2byte	0x15a
 1593 0785 03       		.byte	0x3
 1594 0786 1B       		.uleb128 0x1b
 1595 0787 85010000 		.4byte	.LASF113
 1596 078b 02       		.byte	0x2
ARM GAS  /tmp/cc6dSZm1.s 			page 29


 1597 078c 7502     		.2byte	0x275
 1598 078e A4070000 		.4byte	0x7a4
 1599 0792 03       		.byte	0x3
 1600 0793 A4070000 		.4byte	0x7a4
 1601 0797 1A       		.uleb128 0x1a
 1602 0798 74717000 		.ascii	"tqp\000"
 1603 079c 02       		.byte	0x2
 1604 079d 7502     		.2byte	0x275
 1605 079f AB070000 		.4byte	0x7ab
 1606 07a3 00       		.byte	0
 1607 07a4 03       		.uleb128 0x3
 1608 07a5 01       		.byte	0x1
 1609 07a6 02       		.byte	0x2
 1610 07a7 F8030000 		.4byte	.LASF112
 1611 07ab 0A       		.uleb128 0xa
 1612 07ac 04       		.byte	0x4
 1613 07ad B1070000 		.4byte	0x7b1
 1614 07b1 14       		.uleb128 0x14
 1615 07b2 7B020000 		.4byte	0x27b
 1616 07b6 1B       		.uleb128 0x1b
 1617 07b7 24050000 		.4byte	.LASF114
 1618 07bb 02       		.byte	0x2
 1619 07bc 9F02     		.2byte	0x29f
 1620 07be 51020000 		.4byte	0x251
 1621 07c2 03       		.byte	0x3
 1622 07c3 DF070000 		.4byte	0x7df
 1623 07c7 1A       		.uleb128 0x1a
 1624 07c8 74717000 		.ascii	"tqp\000"
 1625 07cc 02       		.byte	0x2
 1626 07cd 9F02     		.2byte	0x29f
 1627 07cf 77070000 		.4byte	0x777
 1628 07d3 1C       		.uleb128 0x1c
 1629 07d4 747000   		.ascii	"tp\000"
 1630 07d7 02       		.byte	0x2
 1631 07d8 A002     		.2byte	0x2a0
 1632 07da 51020000 		.4byte	0x251
 1633 07de 00       		.byte	0
 1634 07df 19       		.uleb128 0x19
 1635 07e0 3B070000 		.4byte	.LASF116
 1636 07e4 0F       		.byte	0xf
 1637 07e5 6601     		.2byte	0x166
 1638 07e7 03       		.byte	0x3
 1639 07e8 FA070000 		.4byte	0x7fa
 1640 07ec 1D       		.uleb128 0x1d
 1641 07ed 57040000 		.4byte	.LASF117
 1642 07f1 0A080000 		.4byte	0x80a
 1643 07f5 3B070000 		.4byte	.LASF116
 1644 07f9 00       		.byte	0
 1645 07fa 15       		.uleb128 0x15
 1646 07fb D1060000 		.4byte	0x6d1
 1647 07ff 0A080000 		.4byte	0x80a
 1648 0803 16       		.uleb128 0x16
 1649 0804 64040000 		.4byte	0x464
 1650 0808 0B       		.byte	0xb
 1651 0809 00       		.byte	0
 1652 080a 14       		.uleb128 0x14
 1653 080b FA070000 		.4byte	0x7fa
ARM GAS  /tmp/cc6dSZm1.s 			page 30


 1654 080f 18       		.uleb128 0x18
 1655 0810 A9040000 		.4byte	.LASF119
 1656 0814 04       		.byte	0x4
 1657 0815 90       		.byte	0x90
 1658 0816 03070000 		.4byte	0x703
 1659 081a 03       		.byte	0x3
 1660 081b 19       		.uleb128 0x19
 1661 081c 58070000 		.4byte	.LASF120
 1662 0820 02       		.byte	0x2
 1663 0821 8B02     		.2byte	0x28b
 1664 0823 03       		.byte	0x3
 1665 0824 4B080000 		.4byte	0x84b
 1666 0828 1A       		.uleb128 0x1a
 1667 0829 747000   		.ascii	"tp\000"
 1668 082c 02       		.byte	0x2
 1669 082d 8B02     		.2byte	0x28b
 1670 082f 51020000 		.4byte	0x251
 1671 0833 1A       		.uleb128 0x1a
 1672 0834 74717000 		.ascii	"tqp\000"
 1673 0838 02       		.byte	0x2
 1674 0839 8B02     		.2byte	0x28b
 1675 083b 77070000 		.4byte	0x777
 1676 083f 1C       		.uleb128 0x1c
 1677 0840 637000   		.ascii	"cp\000"
 1678 0843 02       		.byte	0x2
 1679 0844 8D02     		.2byte	0x28d
 1680 0846 51020000 		.4byte	0x251
 1681 084a 00       		.byte	0
 1682 084b 1E       		.uleb128 0x1e
 1683 084c 13050000 		.4byte	.LASF121
 1684 0850 01       		.byte	0x1
 1685 0851 4B       		.byte	0x4b
 1686 0852 00000000 		.4byte	.LFB219
 1687 0856 06000000 		.4byte	.LFE219-.LFB219
 1688 085a 01       		.uleb128 0x1
 1689 085b 9C       		.byte	0x9c
 1690 085c 8D080000 		.4byte	0x88d
 1691 0860 1F       		.uleb128 0x1f
 1692 0861 637000   		.ascii	"cp\000"
 1693 0864 01       		.byte	0x1
 1694 0865 4B       		.byte	0x4b
 1695 0866 8D080000 		.4byte	0x88d
 1696 086a 01       		.uleb128 0x1
 1697 086b 50       		.byte	0x50
 1698 086c 20       		.uleb128 0x20
 1699 086d 57040000 		.4byte	.LASF117
 1700 0871 A3080000 		.4byte	0x8a3
 1701 0875 21       		.uleb128 0x21
 1702 0876 5D070000 		.4byte	0x75d
 1703 087a 00000000 		.4byte	.LBB83
 1704 087e 06000000 		.4byte	.LBE83-.LBB83
 1705 0882 01       		.byte	0x1
 1706 0883 4F       		.byte	0x4f
 1707 0884 22       		.uleb128 0x22
 1708 0885 6A070000 		.4byte	0x76a
 1709 0889 01       		.uleb128 0x1
 1710 088a 50       		.byte	0x50
ARM GAS  /tmp/cc6dSZm1.s 			page 31


 1711 088b 00       		.byte	0
 1712 088c 00       		.byte	0
 1713 088d 0A       		.uleb128 0xa
 1714 088e 04       		.byte	0x4
 1715 088f 22070000 		.4byte	0x722
 1716 0893 15       		.uleb128 0x15
 1717 0894 D1060000 		.4byte	0x6d1
 1718 0898 A3080000 		.4byte	0x8a3
 1719 089c 16       		.uleb128 0x16
 1720 089d 64040000 		.4byte	0x464
 1721 08a1 10       		.byte	0x10
 1722 08a2 00       		.byte	0
 1723 08a3 14       		.uleb128 0x14
 1724 08a4 93080000 		.4byte	0x893
 1725 08a8 1E       		.uleb128 0x1e
 1726 08a9 E6010000 		.4byte	.LASF122
 1727 08ad 01       		.byte	0x1
 1728 08ae 59       		.byte	0x59
 1729 08af 00000000 		.4byte	.LFB220
 1730 08b3 22000000 		.4byte	.LFE220-.LFB220
 1731 08b7 01       		.uleb128 0x1
 1732 08b8 9C       		.byte	0x9c
 1733 08b9 A6090000 		.4byte	0x9a6
 1734 08bd 23       		.uleb128 0x23
 1735 08be 637000   		.ascii	"cp\000"
 1736 08c1 01       		.byte	0x1
 1737 08c2 59       		.byte	0x59
 1738 08c3 8D080000 		.4byte	0x88d
 1739 08c7 00000000 		.4byte	.LLST0
 1740 08cb 20       		.uleb128 0x20
 1741 08cc 57040000 		.4byte	.LASF117
 1742 08d0 B6090000 		.4byte	0x9b6
 1743 08d4 24       		.uleb128 0x24
 1744 08d5 7D070000 		.4byte	0x77d
 1745 08d9 00000000 		.4byte	.LBB85
 1746 08dd 02000000 		.4byte	.LBE85-.LBB85
 1747 08e1 01       		.byte	0x1
 1748 08e2 5D       		.byte	0x5d
 1749 08e3 09090000 		.4byte	0x909
 1750 08e7 25       		.uleb128 0x25
 1751 08e8 3F070000 		.4byte	0x73f
 1752 08ec 00000000 		.4byte	.LBB86
 1753 08f0 02000000 		.4byte	.LBE86-.LBB86
 1754 08f4 0F       		.byte	0xf
 1755 08f5 5C01     		.2byte	0x15c
 1756 08f7 26       		.uleb128 0x26
 1757 08f8 2D070000 		.4byte	0x72d
 1758 08fc 00000000 		.4byte	.LBB87
 1759 0900 02000000 		.4byte	.LBE87-.LBB87
 1760 0904 0B       		.byte	0xb
 1761 0905 C101     		.2byte	0x1c1
 1762 0907 00       		.byte	0
 1763 0908 00       		.byte	0
 1764 0909 24       		.uleb128 0x24
 1765 090a 86070000 		.4byte	0x786
 1766 090e 02000000 		.4byte	.LBB89
 1767 0912 02000000 		.4byte	.LBE89-.LBB89
ARM GAS  /tmp/cc6dSZm1.s 			page 32


 1768 0916 01       		.byte	0x1
 1769 0917 5E       		.byte	0x5e
 1770 0918 26090000 		.4byte	0x926
 1771 091c 27       		.uleb128 0x27
 1772 091d 97070000 		.4byte	0x797
 1773 0921 37000000 		.4byte	.LLST1
 1774 0925 00       		.byte	0
 1775 0926 28       		.uleb128 0x28
 1776 0927 B6070000 		.4byte	0x7b6
 1777 092b 08000000 		.4byte	.LBB91
 1778 092f 00000000 		.4byte	.Ldebug_ranges0+0
 1779 0933 01       		.byte	0x1
 1780 0934 5F       		.byte	0x5f
 1781 0935 52090000 		.4byte	0x952
 1782 0939 27       		.uleb128 0x27
 1783 093a C7070000 		.4byte	0x7c7
 1784 093e 6E000000 		.4byte	.LLST2
 1785 0942 29       		.uleb128 0x29
 1786 0943 00000000 		.4byte	.Ldebug_ranges0+0
 1787 0947 2A       		.uleb128 0x2a
 1788 0948 D3070000 		.4byte	0x7d3
 1789 094c 9A000000 		.4byte	.LLST3
 1790 0950 00       		.byte	0
 1791 0951 00       		.byte	0
 1792 0952 24       		.uleb128 0x24
 1793 0953 DF070000 		.4byte	0x7df
 1794 0957 1A000000 		.4byte	.LBB95
 1795 095b 08000000 		.4byte	.LBE95-.LBB95
 1796 095f 01       		.byte	0x1
 1797 0960 61       		.byte	0x61
 1798 0961 96090000 		.4byte	0x996
 1799 0965 2B       		.uleb128 0x2b
 1800 0966 1A000000 		.4byte	.LBB96
 1801 096a 08000000 		.4byte	.LBE96-.LBB96
 1802 096e 2C       		.uleb128 0x2c
 1803 096f EC070000 		.4byte	0x7ec
 1804 0973 25       		.uleb128 0x25
 1805 0974 48070000 		.4byte	0x748
 1806 0978 1A000000 		.4byte	.LBB97
 1807 097c 08000000 		.4byte	.LBE97-.LBB97
 1808 0980 0F       		.byte	0xf
 1809 0981 7301     		.2byte	0x173
 1810 0983 26       		.uleb128 0x26
 1811 0984 36070000 		.4byte	0x736
 1812 0988 1A000000 		.4byte	.LBB98
 1813 098c 08000000 		.4byte	.LBE98-.LBB98
 1814 0990 0B       		.byte	0xb
 1815 0991 CF01     		.2byte	0x1cf
 1816 0993 00       		.byte	0
 1817 0994 00       		.byte	0
 1818 0995 00       		.byte	0
 1819 0996 2D       		.uleb128 0x2d
 1820 0997 1A000000 		.4byte	.LVL5
 1821 099b 3A0F0000 		.4byte	0xf3a
 1822 099f 2E       		.uleb128 0x2e
 1823 09a0 01       		.uleb128 0x1
 1824 09a1 51       		.byte	0x51
ARM GAS  /tmp/cc6dSZm1.s 			page 33


 1825 09a2 01       		.uleb128 0x1
 1826 09a3 30       		.byte	0x30
 1827 09a4 00       		.byte	0
 1828 09a5 00       		.byte	0
 1829 09a6 15       		.uleb128 0x15
 1830 09a7 D1060000 		.4byte	0x6d1
 1831 09ab B6090000 		.4byte	0x9b6
 1832 09af 16       		.uleb128 0x16
 1833 09b0 64040000 		.4byte	0x464
 1834 09b4 0C       		.byte	0xc
 1835 09b5 00       		.byte	0
 1836 09b6 14       		.uleb128 0x14
 1837 09b7 A6090000 		.4byte	0x9a6
 1838 09bb 1E       		.uleb128 0x1e
 1839 09bc EA030000 		.4byte	.LASF123
 1840 09c0 01       		.byte	0x1
 1841 09c1 6F       		.byte	0x6f
 1842 09c2 00000000 		.4byte	.LFB221
 1843 09c6 18000000 		.4byte	.LFE221-.LFB221
 1844 09ca 01       		.uleb128 0x1
 1845 09cb 9C       		.byte	0x9c
 1846 09cc 4E0A0000 		.4byte	0xa4e
 1847 09d0 23       		.uleb128 0x23
 1848 09d1 637000   		.ascii	"cp\000"
 1849 09d4 01       		.byte	0x1
 1850 09d5 6F       		.byte	0x6f
 1851 09d6 8D080000 		.4byte	0x88d
 1852 09da AD000000 		.4byte	.LLST4
 1853 09de 20       		.uleb128 0x20
 1854 09df 57040000 		.4byte	.LASF117
 1855 09e3 5E0A0000 		.4byte	0xa5e
 1856 09e7 24       		.uleb128 0x24
 1857 09e8 86070000 		.4byte	0x786
 1858 09ec 00000000 		.4byte	.LBB100
 1859 09f0 02000000 		.4byte	.LBE100-.LBB100
 1860 09f4 01       		.byte	0x1
 1861 09f5 74       		.byte	0x74
 1862 09f6 040A0000 		.4byte	0xa04
 1863 09fa 27       		.uleb128 0x27
 1864 09fb 97070000 		.4byte	0x797
 1865 09ff AD000000 		.4byte	.LLST4
 1866 0a03 00       		.byte	0
 1867 0a04 2B       		.uleb128 0x2b
 1868 0a05 06000000 		.4byte	.LBB102
 1869 0a09 12000000 		.4byte	.LBE102-.LBB102
 1870 0a0d 2F       		.uleb128 0x2f
 1871 0a0e 747000   		.ascii	"tp\000"
 1872 0a11 01       		.byte	0x1
 1873 0a12 75       		.byte	0x75
 1874 0a13 51020000 		.4byte	0x251
 1875 0a17 28       		.uleb128 0x28
 1876 0a18 B6070000 		.4byte	0x7b6
 1877 0a1c 06000000 		.4byte	.LBB103
 1878 0a20 18000000 		.4byte	.Ldebug_ranges0+0x18
 1879 0a24 01       		.byte	0x1
 1880 0a25 75       		.byte	0x75
 1881 0a26 430A0000 		.4byte	0xa43
ARM GAS  /tmp/cc6dSZm1.s 			page 34


 1882 0a2a 27       		.uleb128 0x27
 1883 0a2b C7070000 		.4byte	0x7c7
 1884 0a2f E5000000 		.4byte	.LLST6
 1885 0a33 29       		.uleb128 0x29
 1886 0a34 18000000 		.4byte	.Ldebug_ranges0+0x18
 1887 0a38 2A       		.uleb128 0x2a
 1888 0a39 D3070000 		.4byte	0x7d3
 1889 0a3d 12010000 		.4byte	.LLST7
 1890 0a41 00       		.byte	0
 1891 0a42 00       		.byte	0
 1892 0a43 30       		.uleb128 0x30
 1893 0a44 16000000 		.4byte	.LVL10
 1894 0a48 510F0000 		.4byte	0xf51
 1895 0a4c 00       		.byte	0
 1896 0a4d 00       		.byte	0
 1897 0a4e 15       		.uleb128 0x15
 1898 0a4f D1060000 		.4byte	0x6d1
 1899 0a53 5E0A0000 		.4byte	0xa5e
 1900 0a57 16       		.uleb128 0x16
 1901 0a58 64040000 		.4byte	0x464
 1902 0a5c 0D       		.byte	0xd
 1903 0a5d 00       		.byte	0
 1904 0a5e 14       		.uleb128 0x14
 1905 0a5f 4E0A0000 		.4byte	0xa4e
 1906 0a63 1E       		.uleb128 0x1e
 1907 0a64 75000000 		.4byte	.LASF124
 1908 0a68 01       		.byte	0x1
 1909 0a69 95       		.byte	0x95
 1910 0a6a 00000000 		.4byte	.LFB223
 1911 0a6e 22000000 		.4byte	.LFE223-.LFB223
 1912 0a72 01       		.uleb128 0x1
 1913 0a73 9C       		.byte	0x9c
 1914 0a74 E60A0000 		.4byte	0xae6
 1915 0a78 23       		.uleb128 0x23
 1916 0a79 637000   		.ascii	"cp\000"
 1917 0a7c 01       		.byte	0x1
 1918 0a7d 95       		.byte	0x95
 1919 0a7e 8D080000 		.4byte	0x88d
 1920 0a82 25010000 		.4byte	.LLST8
 1921 0a86 20       		.uleb128 0x20
 1922 0a87 57040000 		.4byte	.LASF117
 1923 0a8b E60A0000 		.4byte	0xae6
 1924 0a8f 28       		.uleb128 0x28
 1925 0a90 86070000 		.4byte	0x786
 1926 0a94 04000000 		.4byte	.LBB107
 1927 0a98 30000000 		.4byte	.Ldebug_ranges0+0x30
 1928 0a9c 01       		.byte	0x1
 1929 0a9d 9D       		.byte	0x9d
 1930 0a9e AC0A0000 		.4byte	0xaac
 1931 0aa2 27       		.uleb128 0x27
 1932 0aa3 97070000 		.4byte	0x797
 1933 0aa7 43010000 		.4byte	.LLST9
 1934 0aab 00       		.byte	0
 1935 0aac 24       		.uleb128 0x24
 1936 0aad B6070000 		.4byte	0x7b6
 1937 0ab1 0E000000 		.4byte	.LBB110
 1938 0ab5 06000000 		.4byte	.LBE110-.LBB110
ARM GAS  /tmp/cc6dSZm1.s 			page 35


 1939 0ab9 01       		.byte	0x1
 1940 0aba 9E       		.byte	0x9e
 1941 0abb DC0A0000 		.4byte	0xadc
 1942 0abf 27       		.uleb128 0x27
 1943 0ac0 C7070000 		.4byte	0x7c7
 1944 0ac4 61010000 		.4byte	.LLST10
 1945 0ac8 2B       		.uleb128 0x2b
 1946 0ac9 0E000000 		.4byte	.LBB111
 1947 0acd 06000000 		.4byte	.LBE111-.LBB111
 1948 0ad1 2A       		.uleb128 0x2a
 1949 0ad2 D3070000 		.4byte	0x7d3
 1950 0ad6 74010000 		.4byte	.LLST11
 1951 0ada 00       		.byte	0
 1952 0adb 00       		.byte	0
 1953 0adc 31       		.uleb128 0x31
 1954 0add 18000000 		.4byte	.LVL15
 1955 0ae1 510F0000 		.4byte	0xf51
 1956 0ae5 00       		.byte	0
 1957 0ae6 14       		.uleb128 0x14
 1958 0ae7 93080000 		.4byte	0x893
 1959 0aeb 1E       		.uleb128 0x1e
 1960 0aec 65000000 		.4byte	.LASF125
 1961 0af0 01       		.byte	0x1
 1962 0af1 82       		.byte	0x82
 1963 0af2 00000000 		.4byte	.LFB222
 1964 0af6 10000000 		.4byte	.LFE222-.LFB222
 1965 0afa 01       		.uleb128 0x1
 1966 0afb 9C       		.byte	0x9c
 1967 0afc A60B0000 		.4byte	0xba6
 1968 0b00 23       		.uleb128 0x23
 1969 0b01 637000   		.ascii	"cp\000"
 1970 0b04 01       		.byte	0x1
 1971 0b05 82       		.byte	0x82
 1972 0b06 8D080000 		.4byte	0x88d
 1973 0b0a 87010000 		.4byte	.LLST12
 1974 0b0e 24       		.uleb128 0x24
 1975 0b0f 7D070000 		.4byte	0x77d
 1976 0b13 02000000 		.4byte	.LBB113
 1977 0b17 02000000 		.4byte	.LBE113-.LBB113
 1978 0b1b 01       		.byte	0x1
 1979 0b1c 84       		.byte	0x84
 1980 0b1d 430B0000 		.4byte	0xb43
 1981 0b21 25       		.uleb128 0x25
 1982 0b22 3F070000 		.4byte	0x73f
 1983 0b26 02000000 		.4byte	.LBB114
 1984 0b2a 02000000 		.4byte	.LBE114-.LBB114
 1985 0b2e 0F       		.byte	0xf
 1986 0b2f 5C01     		.2byte	0x15c
 1987 0b31 26       		.uleb128 0x26
 1988 0b32 2D070000 		.4byte	0x72d
 1989 0b36 02000000 		.4byte	.LBB115
 1990 0b3a 02000000 		.4byte	.LBE115-.LBB115
 1991 0b3e 0B       		.byte	0xb
 1992 0b3f C101     		.2byte	0x1c1
 1993 0b41 00       		.byte	0
 1994 0b42 00       		.byte	0
 1995 0b43 24       		.uleb128 0x24
ARM GAS  /tmp/cc6dSZm1.s 			page 36


 1996 0b44 DF070000 		.4byte	0x7df
 1997 0b48 0C000000 		.4byte	.LBB117
 1998 0b4c 04000000 		.4byte	.LBE117-.LBB117
 1999 0b50 01       		.byte	0x1
 2000 0b51 87       		.byte	0x87
 2001 0b52 870B0000 		.4byte	0xb87
 2002 0b56 2B       		.uleb128 0x2b
 2003 0b57 0C000000 		.4byte	.LBB118
 2004 0b5b 04000000 		.4byte	.LBE118-.LBB118
 2005 0b5f 2C       		.uleb128 0x2c
 2006 0b60 EC070000 		.4byte	0x7ec
 2007 0b64 25       		.uleb128 0x25
 2008 0b65 48070000 		.4byte	0x748
 2009 0b69 0C000000 		.4byte	.LBB119
 2010 0b6d 04000000 		.4byte	.LBE119-.LBB119
 2011 0b71 0F       		.byte	0xf
 2012 0b72 7301     		.2byte	0x173
 2013 0b74 26       		.uleb128 0x26
 2014 0b75 36070000 		.4byte	0x736
 2015 0b79 0C000000 		.4byte	.LBB120
 2016 0b7d 04000000 		.4byte	.LBE120-.LBB120
 2017 0b81 0B       		.byte	0xb
 2018 0b82 CF01     		.2byte	0x1cf
 2019 0b84 00       		.byte	0
 2020 0b85 00       		.byte	0
 2021 0b86 00       		.byte	0
 2022 0b87 32       		.uleb128 0x32
 2023 0b88 08000000 		.4byte	.LVL18
 2024 0b8c 630A0000 		.4byte	0xa63
 2025 0b90 9C0B0000 		.4byte	0xb9c
 2026 0b94 2E       		.uleb128 0x2e
 2027 0b95 01       		.uleb128 0x1
 2028 0b96 50       		.byte	0x50
 2029 0b97 03       		.uleb128 0x3
 2030 0b98 F3       		.byte	0xf3
 2031 0b99 01       		.uleb128 0x1
 2032 0b9a 50       		.byte	0x50
 2033 0b9b 00       		.byte	0
 2034 0b9c 31       		.uleb128 0x31
 2035 0b9d 0C000000 		.4byte	.LVL19
 2036 0ba1 670F0000 		.4byte	0xf67
 2037 0ba5 00       		.byte	0
 2038 0ba6 33       		.uleb128 0x33
 2039 0ba7 07050000 		.4byte	.LASF126
 2040 0bab 01       		.byte	0x1
 2041 0bac CD       		.byte	0xcd
 2042 0bad 0A010000 		.4byte	0x10a
 2043 0bb1 00000000 		.4byte	.LFB225
 2044 0bb5 44000000 		.4byte	.LFE225-.LFB225
 2045 0bb9 01       		.uleb128 0x1
 2046 0bba 9C       		.byte	0x9c
 2047 0bbb 7A0C0000 		.4byte	0xc7a
 2048 0bbf 23       		.uleb128 0x23
 2049 0bc0 637000   		.ascii	"cp\000"
 2050 0bc3 01       		.byte	0x1
 2051 0bc4 CD       		.byte	0xcd
 2052 0bc5 8D080000 		.4byte	0x88d
ARM GAS  /tmp/cc6dSZm1.s 			page 37


 2053 0bc9 A8010000 		.4byte	.LLST13
 2054 0bcd 34       		.uleb128 0x34
 2055 0bce 63747000 		.ascii	"ctp\000"
 2056 0bd2 01       		.byte	0x1
 2057 0bd3 CE       		.byte	0xce
 2058 0bd4 51020000 		.4byte	0x251
 2059 0bd8 D4010000 		.4byte	.LLST14
 2060 0bdc 2F       		.uleb128 0x2f
 2061 0bdd 6D7000   		.ascii	"mp\000"
 2062 0be0 01       		.byte	0x1
 2063 0be1 CF       		.byte	0xcf
 2064 0be2 03070000 		.4byte	0x703
 2065 0be6 34       		.uleb128 0x34
 2066 0be7 6D736700 		.ascii	"msg\000"
 2067 0beb 01       		.byte	0x1
 2068 0bec D0       		.byte	0xd0
 2069 0bed 0A010000 		.4byte	0x10a
 2070 0bf1 E7010000 		.4byte	.LLST15
 2071 0bf5 20       		.uleb128 0x20
 2072 0bf6 57040000 		.4byte	.LASF117
 2073 0bfa 7A0C0000 		.4byte	0xc7a
 2074 0bfe 35       		.uleb128 0x35
 2075 0bff 0F080000 		.4byte	0x80f
 2076 0c03 06000000 		.4byte	.LBB122
 2077 0c07 02000000 		.4byte	.LBE122-.LBB122
 2078 0c0b 01       		.byte	0x1
 2079 0c0c D7       		.byte	0xd7
 2080 0c0d 28       		.uleb128 0x28
 2081 0c0e 1B080000 		.4byte	0x81b
 2082 0c12 12000000 		.4byte	.LBB124
 2083 0c16 48000000 		.4byte	.Ldebug_ranges0+0x48
 2084 0c1a 01       		.byte	0x1
 2085 0c1b DD       		.byte	0xdd
 2086 0c1c 420C0000 		.4byte	0xc42
 2087 0c20 27       		.uleb128 0x27
 2088 0c21 33080000 		.4byte	0x833
 2089 0c25 05020000 		.4byte	.LLST16
 2090 0c29 27       		.uleb128 0x27
 2091 0c2a 28080000 		.4byte	0x828
 2092 0c2e 26020000 		.4byte	.LLST17
 2093 0c32 29       		.uleb128 0x29
 2094 0c33 48000000 		.4byte	.Ldebug_ranges0+0x48
 2095 0c37 2A       		.uleb128 0x2a
 2096 0c38 3F080000 		.4byte	0x83f
 2097 0c3c 39020000 		.4byte	.LLST18
 2098 0c40 00       		.byte	0
 2099 0c41 00       		.byte	0
 2100 0c42 32       		.uleb128 0x32
 2101 0c43 10000000 		.4byte	.LVL23
 2102 0c47 6F0F0000 		.4byte	0xf6f
 2103 0c4b 560C0000 		.4byte	0xc56
 2104 0c4f 2E       		.uleb128 0x2e
 2105 0c50 01       		.uleb128 0x1
 2106 0c51 50       		.byte	0x50
 2107 0c52 02       		.uleb128 0x2
 2108 0c53 76       		.byte	0x76
 2109 0c54 00       		.sleb128 0
ARM GAS  /tmp/cc6dSZm1.s 			page 38


 2110 0c55 00       		.byte	0
 2111 0c56 32       		.uleb128 0x32
 2112 0c57 34000000 		.4byte	.LVL27
 2113 0c5b 800F0000 		.4byte	0xf80
 2114 0c5f 690C0000 		.4byte	0xc69
 2115 0c63 2E       		.uleb128 0x2e
 2116 0c64 01       		.uleb128 0x1
 2117 0c65 50       		.byte	0x50
 2118 0c66 01       		.uleb128 0x1
 2119 0c67 37       		.byte	0x37
 2120 0c68 00       		.byte	0
 2121 0c69 2D       		.uleb128 0x2d
 2122 0c6a 3C000000 		.4byte	.LVL29
 2123 0c6e 920F0000 		.4byte	0xf92
 2124 0c72 2E       		.uleb128 0x2e
 2125 0c73 01       		.uleb128 0x1
 2126 0c74 50       		.byte	0x50
 2127 0c75 02       		.uleb128 0x2
 2128 0c76 76       		.byte	0x76
 2129 0c77 00       		.sleb128 0
 2130 0c78 00       		.byte	0
 2131 0c79 00       		.byte	0
 2132 0c7a 14       		.uleb128 0x14
 2133 0c7b FA070000 		.4byte	0x7fa
 2134 0c7f 33       		.uleb128 0x33
 2135 0c80 80050000 		.4byte	.LASF127
 2136 0c84 01       		.byte	0x1
 2137 0c85 B3       		.byte	0xb3
 2138 0c86 0A010000 		.4byte	0x10a
 2139 0c8a 00000000 		.4byte	.LFB224
 2140 0c8e 0C000000 		.4byte	.LFE224-.LFB224
 2141 0c92 01       		.uleb128 0x1
 2142 0c93 9C       		.byte	0x9c
 2143 0c94 3E0D0000 		.4byte	0xd3e
 2144 0c98 23       		.uleb128 0x23
 2145 0c99 637000   		.ascii	"cp\000"
 2146 0c9c 01       		.byte	0x1
 2147 0c9d B3       		.byte	0xb3
 2148 0c9e 8D080000 		.4byte	0x88d
 2149 0ca2 57020000 		.4byte	.LLST19
 2150 0ca6 36       		.uleb128 0x36
 2151 0ca7 6D736700 		.ascii	"msg\000"
 2152 0cab 01       		.byte	0x1
 2153 0cac B4       		.byte	0xb4
 2154 0cad 0A010000 		.4byte	0x10a
 2155 0cb1 01       		.uleb128 0x1
 2156 0cb2 50       		.byte	0x50
 2157 0cb3 24       		.uleb128 0x24
 2158 0cb4 7D070000 		.4byte	0x77d
 2159 0cb8 02000000 		.4byte	.LBB128
 2160 0cbc 02000000 		.4byte	.LBE128-.LBB128
 2161 0cc0 01       		.byte	0x1
 2162 0cc1 B6       		.byte	0xb6
 2163 0cc2 E80C0000 		.4byte	0xce8
 2164 0cc6 25       		.uleb128 0x25
 2165 0cc7 3F070000 		.4byte	0x73f
 2166 0ccb 02000000 		.4byte	.LBB129
ARM GAS  /tmp/cc6dSZm1.s 			page 39


 2167 0ccf 02000000 		.4byte	.LBE129-.LBB129
 2168 0cd3 0F       		.byte	0xf
 2169 0cd4 5C01     		.2byte	0x15c
 2170 0cd6 26       		.uleb128 0x26
 2171 0cd7 2D070000 		.4byte	0x72d
 2172 0cdb 02000000 		.4byte	.LBB130
 2173 0cdf 02000000 		.4byte	.LBE130-.LBB130
 2174 0ce3 0B       		.byte	0xb
 2175 0ce4 C101     		.2byte	0x1c1
 2176 0ce6 00       		.byte	0
 2177 0ce7 00       		.byte	0
 2178 0ce8 24       		.uleb128 0x24
 2179 0ce9 DF070000 		.4byte	0x7df
 2180 0ced 08000000 		.4byte	.LBB132
 2181 0cf1 02000000 		.4byte	.LBE132-.LBB132
 2182 0cf5 01       		.byte	0x1
 2183 0cf6 B8       		.byte	0xb8
 2184 0cf7 2C0D0000 		.4byte	0xd2c
 2185 0cfb 2B       		.uleb128 0x2b
 2186 0cfc 08000000 		.4byte	.LBB133
 2187 0d00 02000000 		.4byte	.LBE133-.LBB133
 2188 0d04 2C       		.uleb128 0x2c
 2189 0d05 EC070000 		.4byte	0x7ec
 2190 0d09 25       		.uleb128 0x25
 2191 0d0a 48070000 		.4byte	0x748
 2192 0d0e 08000000 		.4byte	.LBB134
 2193 0d12 02000000 		.4byte	.LBE134-.LBB134
 2194 0d16 0F       		.byte	0xf
 2195 0d17 7301     		.2byte	0x173
 2196 0d19 26       		.uleb128 0x26
 2197 0d1a 36070000 		.4byte	0x736
 2198 0d1e 08000000 		.4byte	.LBB135
 2199 0d22 02000000 		.4byte	.LBE135-.LBB135
 2200 0d26 0B       		.byte	0xb
 2201 0d27 CF01     		.2byte	0x1cf
 2202 0d29 00       		.byte	0
 2203 0d2a 00       		.byte	0
 2204 0d2b 00       		.byte	0
 2205 0d2c 2D       		.uleb128 0x2d
 2206 0d2d 08000000 		.4byte	.LVL32
 2207 0d31 A60B0000 		.4byte	0xba6
 2208 0d35 2E       		.uleb128 0x2e
 2209 0d36 01       		.uleb128 0x1
 2210 0d37 50       		.byte	0x50
 2211 0d38 03       		.uleb128 0x3
 2212 0d39 F3       		.byte	0xf3
 2213 0d3a 01       		.uleb128 0x1
 2214 0d3b 50       		.byte	0x50
 2215 0d3c 00       		.byte	0
 2216 0d3d 00       		.byte	0
 2217 0d3e 37       		.uleb128 0x37
 2218 0d3f 24030000 		.4byte	.LASF128
 2219 0d43 01       		.byte	0x1
 2220 0d44 2801     		.2byte	0x128
 2221 0d46 0A010000 		.4byte	0x10a
 2222 0d4a 00000000 		.4byte	.LFB227
 2223 0d4e 50000000 		.4byte	.LFE227-.LFB227
ARM GAS  /tmp/cc6dSZm1.s 			page 40


 2224 0d52 01       		.uleb128 0x1
 2225 0d53 9C       		.byte	0x9c
 2226 0d54 330E0000 		.4byte	0xe33
 2227 0d58 38       		.uleb128 0x38
 2228 0d59 637000   		.ascii	"cp\000"
 2229 0d5c 01       		.byte	0x1
 2230 0d5d 2801     		.2byte	0x128
 2231 0d5f 8D080000 		.4byte	0x88d
 2232 0d63 78020000 		.4byte	.LLST20
 2233 0d67 39       		.uleb128 0x39
 2234 0d68 5D030000 		.4byte	.LASF129
 2235 0d6c 01       		.byte	0x1
 2236 0d6d 2801     		.2byte	0x128
 2237 0d6f 2B010000 		.4byte	0x12b
 2238 0d73 A4020000 		.4byte	.LLST21
 2239 0d77 1C       		.uleb128 0x1c
 2240 0d78 6D7000   		.ascii	"mp\000"
 2241 0d7b 01       		.byte	0x1
 2242 0d7c 2901     		.2byte	0x129
 2243 0d7e 03070000 		.4byte	0x703
 2244 0d82 3A       		.uleb128 0x3a
 2245 0d83 6D736700 		.ascii	"msg\000"
 2246 0d87 01       		.byte	0x1
 2247 0d88 2A01     		.2byte	0x12a
 2248 0d8a 0A010000 		.4byte	0x10a
 2249 0d8e D0020000 		.4byte	.LLST22
 2250 0d92 20       		.uleb128 0x20
 2251 0d93 57040000 		.4byte	.LASF117
 2252 0d97 430E0000 		.4byte	0xe43
 2253 0d9b 3B       		.uleb128 0x3b
 2254 0d9c 0F080000 		.4byte	0x80f
 2255 0da0 02000000 		.4byte	.LBB137
 2256 0da4 06000000 		.4byte	.LBE137-.LBB137
 2257 0da8 01       		.byte	0x1
 2258 0da9 3101     		.2byte	0x131
 2259 0dab BF0D0000 		.4byte	0xdbf
 2260 0daf 35       		.uleb128 0x35
 2261 0db0 51070000 		.4byte	0x751
 2262 0db4 02000000 		.4byte	.LBB139
 2263 0db8 02000000 		.4byte	.LBE139-.LBB139
 2264 0dbc 04       		.byte	0x4
 2265 0dbd 92       		.byte	0x92
 2266 0dbe 00       		.byte	0
 2267 0dbf 3C       		.uleb128 0x3c
 2268 0dc0 1B080000 		.4byte	0x81b
 2269 0dc4 14000000 		.4byte	.LBB141
 2270 0dc8 60000000 		.4byte	.Ldebug_ranges0+0x60
 2271 0dcc 01       		.byte	0x1
 2272 0dcd 3701     		.2byte	0x137
 2273 0dcf F50D0000 		.4byte	0xdf5
 2274 0dd3 27       		.uleb128 0x27
 2275 0dd4 33080000 		.4byte	0x833
 2276 0dd8 F9020000 		.4byte	.LLST23
 2277 0ddc 27       		.uleb128 0x27
 2278 0ddd 28080000 		.4byte	0x828
 2279 0de1 1A030000 		.4byte	.LLST24
 2280 0de5 29       		.uleb128 0x29
ARM GAS  /tmp/cc6dSZm1.s 			page 41


 2281 0de6 60000000 		.4byte	.Ldebug_ranges0+0x60
 2282 0dea 2A       		.uleb128 0x2a
 2283 0deb 3F080000 		.4byte	0x83f
 2284 0def 2D030000 		.4byte	.LLST25
 2285 0df3 00       		.byte	0
 2286 0df4 00       		.byte	0
 2287 0df5 32       		.uleb128 0x32
 2288 0df6 12000000 		.4byte	.LVL35
 2289 0dfa 6F0F0000 		.4byte	0xf6f
 2290 0dfe 090E0000 		.4byte	0xe09
 2291 0e02 2E       		.uleb128 0x2e
 2292 0e03 01       		.uleb128 0x1
 2293 0e04 50       		.byte	0x50
 2294 0e05 02       		.uleb128 0x2
 2295 0e06 76       		.byte	0x76
 2296 0e07 00       		.sleb128 0
 2297 0e08 00       		.byte	0
 2298 0e09 32       		.uleb128 0x32
 2299 0e0a 3A000000 		.4byte	.LVL39
 2300 0e0e A30F0000 		.4byte	0xfa3
 2301 0e12 220E0000 		.4byte	0xe22
 2302 0e16 2E       		.uleb128 0x2e
 2303 0e17 01       		.uleb128 0x1
 2304 0e18 51       		.byte	0x51
 2305 0e19 02       		.uleb128 0x2
 2306 0e1a 77       		.byte	0x77
 2307 0e1b 00       		.sleb128 0
 2308 0e1c 2E       		.uleb128 0x2e
 2309 0e1d 01       		.uleb128 0x1
 2310 0e1e 50       		.byte	0x50
 2311 0e1f 01       		.uleb128 0x1
 2312 0e20 37       		.byte	0x37
 2313 0e21 00       		.byte	0
 2314 0e22 2D       		.uleb128 0x2d
 2315 0e23 46000000 		.4byte	.LVL42
 2316 0e27 920F0000 		.4byte	0xf92
 2317 0e2b 2E       		.uleb128 0x2e
 2318 0e2c 01       		.uleb128 0x1
 2319 0e2d 50       		.byte	0x50
 2320 0e2e 02       		.uleb128 0x2
 2321 0e2f 76       		.byte	0x76
 2322 0e30 00       		.sleb128 0
 2323 0e31 00       		.byte	0
 2324 0e32 00       		.byte	0
 2325 0e33 15       		.uleb128 0x15
 2326 0e34 D1060000 		.4byte	0x6d1
 2327 0e38 430E0000 		.4byte	0xe43
 2328 0e3c 16       		.uleb128 0x16
 2329 0e3d 64040000 		.4byte	0x464
 2330 0e41 12       		.byte	0x12
 2331 0e42 00       		.byte	0
 2332 0e43 14       		.uleb128 0x14
 2333 0e44 330E0000 		.4byte	0xe33
 2334 0e48 37       		.uleb128 0x37
 2335 0e49 09070000 		.4byte	.LASF130
 2336 0e4d 01       		.byte	0x1
 2337 0e4e 0201     		.2byte	0x102
ARM GAS  /tmp/cc6dSZm1.s 			page 42


 2338 0e50 0A010000 		.4byte	0x10a
 2339 0e54 00000000 		.4byte	.LFB226
 2340 0e58 0C000000 		.4byte	.LFE226-.LFB226
 2341 0e5c 01       		.uleb128 0x1
 2342 0e5d 9C       		.byte	0x9c
 2343 0e5e 230F0000 		.4byte	0xf23
 2344 0e62 38       		.uleb128 0x38
 2345 0e63 637000   		.ascii	"cp\000"
 2346 0e66 01       		.byte	0x1
 2347 0e67 0201     		.2byte	0x102
 2348 0e69 8D080000 		.4byte	0x88d
 2349 0e6d 4B030000 		.4byte	.LLST26
 2350 0e71 39       		.uleb128 0x39
 2351 0e72 5D030000 		.4byte	.LASF129
 2352 0e76 01       		.byte	0x1
 2353 0e77 0201     		.2byte	0x102
 2354 0e79 2B010000 		.4byte	0x12b
 2355 0e7d 6C030000 		.4byte	.LLST27
 2356 0e81 3D       		.uleb128 0x3d
 2357 0e82 6D736700 		.ascii	"msg\000"
 2358 0e86 01       		.byte	0x1
 2359 0e87 0301     		.2byte	0x103
 2360 0e89 0A010000 		.4byte	0x10a
 2361 0e8d 01       		.uleb128 0x1
 2362 0e8e 50       		.byte	0x50
 2363 0e8f 3B       		.uleb128 0x3b
 2364 0e90 7D070000 		.4byte	0x77d
 2365 0e94 02000000 		.4byte	.LBB149
 2366 0e98 02000000 		.4byte	.LBE149-.LBB149
 2367 0e9c 01       		.byte	0x1
 2368 0e9d 0501     		.2byte	0x105
 2369 0e9f C50E0000 		.4byte	0xec5
 2370 0ea3 25       		.uleb128 0x25
 2371 0ea4 3F070000 		.4byte	0x73f
 2372 0ea8 02000000 		.4byte	.LBB150
 2373 0eac 02000000 		.4byte	.LBE150-.LBB150
 2374 0eb0 0F       		.byte	0xf
 2375 0eb1 5C01     		.2byte	0x15c
 2376 0eb3 26       		.uleb128 0x26
 2377 0eb4 2D070000 		.4byte	0x72d
 2378 0eb8 02000000 		.4byte	.LBB151
 2379 0ebc 02000000 		.4byte	.LBE151-.LBB151
 2380 0ec0 0B       		.byte	0xb
 2381 0ec1 C101     		.2byte	0x1c1
 2382 0ec3 00       		.byte	0
 2383 0ec4 00       		.byte	0
 2384 0ec5 3B       		.uleb128 0x3b
 2385 0ec6 DF070000 		.4byte	0x7df
 2386 0eca 08000000 		.4byte	.LBB153
 2387 0ece 02000000 		.4byte	.LBE153-.LBB153
 2388 0ed2 01       		.byte	0x1
 2389 0ed3 0701     		.2byte	0x107
 2390 0ed5 0A0F0000 		.4byte	0xf0a
 2391 0ed9 2B       		.uleb128 0x2b
 2392 0eda 08000000 		.4byte	.LBB154
 2393 0ede 02000000 		.4byte	.LBE154-.LBB154
 2394 0ee2 2C       		.uleb128 0x2c
ARM GAS  /tmp/cc6dSZm1.s 			page 43


 2395 0ee3 EC070000 		.4byte	0x7ec
 2396 0ee7 25       		.uleb128 0x25
 2397 0ee8 48070000 		.4byte	0x748
 2398 0eec 08000000 		.4byte	.LBB155
 2399 0ef0 02000000 		.4byte	.LBE155-.LBB155
 2400 0ef4 0F       		.byte	0xf
 2401 0ef5 7301     		.2byte	0x173
 2402 0ef7 26       		.uleb128 0x26
 2403 0ef8 36070000 		.4byte	0x736
 2404 0efc 08000000 		.4byte	.LBB156
 2405 0f00 02000000 		.4byte	.LBE156-.LBB156
 2406 0f04 0B       		.byte	0xb
 2407 0f05 CF01     		.2byte	0x1cf
 2408 0f07 00       		.byte	0
 2409 0f08 00       		.byte	0
 2410 0f09 00       		.byte	0
 2411 0f0a 2D       		.uleb128 0x2d
 2412 0f0b 08000000 		.4byte	.LVL45
 2413 0f0f 3E0D0000 		.4byte	0xd3e
 2414 0f13 2E       		.uleb128 0x2e
 2415 0f14 01       		.uleb128 0x1
 2416 0f15 51       		.byte	0x51
 2417 0f16 03       		.uleb128 0x3
 2418 0f17 F3       		.byte	0xf3
 2419 0f18 01       		.uleb128 0x1
 2420 0f19 51       		.byte	0x51
 2421 0f1a 2E       		.uleb128 0x2e
 2422 0f1b 01       		.uleb128 0x1
 2423 0f1c 50       		.byte	0x50
 2424 0f1d 03       		.uleb128 0x3
 2425 0f1e F3       		.byte	0xf3
 2426 0f1f 01       		.uleb128 0x1
 2427 0f20 50       		.byte	0x50
 2428 0f21 00       		.byte	0
 2429 0f22 00       		.byte	0
 2430 0f23 3E       		.uleb128 0x3e
 2431 0f24 C7000000 		.4byte	.LASF131
 2432 0f28 10       		.byte	0x10
 2433 0f29 A706     		.2byte	0x6a7
 2434 0f2b C3000000 		.4byte	0xc3
 2435 0f2f 3F       		.uleb128 0x3f
 2436 0f30 636800   		.ascii	"ch\000"
 2437 0f33 02       		.byte	0x2
 2438 0f34 0902     		.2byte	0x209
 2439 0f36 FD030000 		.4byte	0x3fd
 2440 0f3a 40       		.uleb128 0x40
 2441 0f3b 6F020000 		.4byte	.LASF132
 2442 0f3f 02       		.byte	0x2
 2443 0f40 1602     		.2byte	0x216
 2444 0f42 510F0000 		.4byte	0xf51
 2445 0f46 0D       		.uleb128 0xd
 2446 0f47 51020000 		.4byte	0x251
 2447 0f4b 0D       		.uleb128 0xd
 2448 0f4c 0A010000 		.4byte	0x10a
 2449 0f50 00       		.byte	0
 2450 0f51 41       		.uleb128 0x41
 2451 0f52 D4040000 		.4byte	.LASF140
ARM GAS  /tmp/cc6dSZm1.s 			page 44


 2452 0f56 02       		.byte	0x2
 2453 0f57 1302     		.2byte	0x213
 2454 0f59 51020000 		.4byte	0x251
 2455 0f5d 670F0000 		.4byte	0xf67
 2456 0f61 0D       		.uleb128 0xd
 2457 0f62 51020000 		.4byte	0x251
 2458 0f66 00       		.byte	0
 2459 0f67 42       		.uleb128 0x42
 2460 0f68 A4010000 		.4byte	.LASF141
 2461 0f6c 02       		.byte	0x2
 2462 0f6d 1702     		.2byte	0x217
 2463 0f6f 43       		.uleb128 0x43
 2464 0f70 08020000 		.4byte	.LASF133
 2465 0f74 04       		.byte	0x4
 2466 0f75 6D       		.byte	0x6d
 2467 0f76 800F0000 		.4byte	0xf80
 2468 0f7a 0D       		.uleb128 0xd
 2469 0f7b 03070000 		.4byte	0x703
 2470 0f7f 00       		.byte	0
 2471 0f80 40       		.uleb128 0x40
 2472 0f81 90040000 		.4byte	.LASF134
 2473 0f85 02       		.byte	0x2
 2474 0f86 1402     		.2byte	0x214
 2475 0f88 920F0000 		.4byte	0xf92
 2476 0f8c 0D       		.uleb128 0xd
 2477 0f8d DE000000 		.4byte	0xde
 2478 0f91 00       		.byte	0
 2479 0f92 43       		.uleb128 0x43
 2480 0f93 4D070000 		.4byte	.LASF135
 2481 0f97 04       		.byte	0x4
 2482 0f98 69       		.byte	0x69
 2483 0f99 A30F0000 		.4byte	0xfa3
 2484 0f9d 0D       		.uleb128 0xd
 2485 0f9e 03070000 		.4byte	0x703
 2486 0fa2 00       		.byte	0
 2487 0fa3 44       		.uleb128 0x44
 2488 0fa4 26070000 		.4byte	.LASF136
 2489 0fa8 02       		.byte	0x2
 2490 0fa9 1502     		.2byte	0x215
 2491 0fab 0A010000 		.4byte	0x10a
 2492 0faf 0D       		.uleb128 0xd
 2493 0fb0 DE000000 		.4byte	0xde
 2494 0fb4 0D       		.uleb128 0xd
 2495 0fb5 2B010000 		.4byte	0x12b
 2496 0fb9 00       		.byte	0
 2497 0fba 00       		.byte	0
 2498              		.section	.debug_abbrev,"",%progbits
 2499              	.Ldebug_abbrev0:
 2500 0000 01       		.uleb128 0x1
 2501 0001 11       		.uleb128 0x11
 2502 0002 01       		.byte	0x1
 2503 0003 25       		.uleb128 0x25
 2504 0004 0E       		.uleb128 0xe
 2505 0005 13       		.uleb128 0x13
 2506 0006 0B       		.uleb128 0xb
 2507 0007 03       		.uleb128 0x3
 2508 0008 0E       		.uleb128 0xe
ARM GAS  /tmp/cc6dSZm1.s 			page 45


 2509 0009 1B       		.uleb128 0x1b
 2510 000a 0E       		.uleb128 0xe
 2511 000b 55       		.uleb128 0x55
 2512 000c 17       		.uleb128 0x17
 2513 000d 11       		.uleb128 0x11
 2514 000e 01       		.uleb128 0x1
 2515 000f 10       		.uleb128 0x10
 2516 0010 17       		.uleb128 0x17
 2517 0011 00       		.byte	0
 2518 0012 00       		.byte	0
 2519 0013 02       		.uleb128 0x2
 2520 0014 24       		.uleb128 0x24
 2521 0015 00       		.byte	0
 2522 0016 0B       		.uleb128 0xb
 2523 0017 0B       		.uleb128 0xb
 2524 0018 3E       		.uleb128 0x3e
 2525 0019 0B       		.uleb128 0xb
 2526 001a 03       		.uleb128 0x3
 2527 001b 08       		.uleb128 0x8
 2528 001c 00       		.byte	0
 2529 001d 00       		.byte	0
 2530 001e 03       		.uleb128 0x3
 2531 001f 24       		.uleb128 0x24
 2532 0020 00       		.byte	0
 2533 0021 0B       		.uleb128 0xb
 2534 0022 0B       		.uleb128 0xb
 2535 0023 3E       		.uleb128 0x3e
 2536 0024 0B       		.uleb128 0xb
 2537 0025 03       		.uleb128 0x3
 2538 0026 0E       		.uleb128 0xe
 2539 0027 00       		.byte	0
 2540 0028 00       		.byte	0
 2541 0029 04       		.uleb128 0x4
 2542 002a 16       		.uleb128 0x16
 2543 002b 00       		.byte	0
 2544 002c 03       		.uleb128 0x3
 2545 002d 0E       		.uleb128 0xe
 2546 002e 3A       		.uleb128 0x3a
 2547 002f 0B       		.uleb128 0xb
 2548 0030 3B       		.uleb128 0x3b
 2549 0031 0B       		.uleb128 0xb
 2550 0032 49       		.uleb128 0x49
 2551 0033 13       		.uleb128 0x13
 2552 0034 00       		.byte	0
 2553 0035 00       		.byte	0
 2554 0036 05       		.uleb128 0x5
 2555 0037 35       		.uleb128 0x35
 2556 0038 00       		.byte	0
 2557 0039 49       		.uleb128 0x49
 2558 003a 13       		.uleb128 0x13
 2559 003b 00       		.byte	0
 2560 003c 00       		.byte	0
 2561 003d 06       		.uleb128 0x6
 2562 003e 13       		.uleb128 0x13
 2563 003f 01       		.byte	0x1
 2564 0040 03       		.uleb128 0x3
 2565 0041 0E       		.uleb128 0xe
ARM GAS  /tmp/cc6dSZm1.s 			page 46


 2566 0042 0B       		.uleb128 0xb
 2567 0043 0B       		.uleb128 0xb
 2568 0044 3A       		.uleb128 0x3a
 2569 0045 0B       		.uleb128 0xb
 2570 0046 3B       		.uleb128 0x3b
 2571 0047 0B       		.uleb128 0xb
 2572 0048 01       		.uleb128 0x1
 2573 0049 13       		.uleb128 0x13
 2574 004a 00       		.byte	0
 2575 004b 00       		.byte	0
 2576 004c 07       		.uleb128 0x7
 2577 004d 0D       		.uleb128 0xd
 2578 004e 00       		.byte	0
 2579 004f 03       		.uleb128 0x3
 2580 0050 0E       		.uleb128 0xe
 2581 0051 3A       		.uleb128 0x3a
 2582 0052 0B       		.uleb128 0xb
 2583 0053 3B       		.uleb128 0x3b
 2584 0054 0B       		.uleb128 0xb
 2585 0055 49       		.uleb128 0x49
 2586 0056 13       		.uleb128 0x13
 2587 0057 38       		.uleb128 0x38
 2588 0058 0B       		.uleb128 0xb
 2589 0059 00       		.byte	0
 2590 005a 00       		.byte	0
 2591 005b 08       		.uleb128 0x8
 2592 005c 0D       		.uleb128 0xd
 2593 005d 00       		.byte	0
 2594 005e 03       		.uleb128 0x3
 2595 005f 08       		.uleb128 0x8
 2596 0060 3A       		.uleb128 0x3a
 2597 0061 0B       		.uleb128 0xb
 2598 0062 3B       		.uleb128 0x3b
 2599 0063 05       		.uleb128 0x5
 2600 0064 49       		.uleb128 0x49
 2601 0065 13       		.uleb128 0x13
 2602 0066 38       		.uleb128 0x38
 2603 0067 0B       		.uleb128 0xb
 2604 0068 00       		.byte	0
 2605 0069 00       		.byte	0
 2606 006a 09       		.uleb128 0x9
 2607 006b 0D       		.uleb128 0xd
 2608 006c 00       		.byte	0
 2609 006d 03       		.uleb128 0x3
 2610 006e 0E       		.uleb128 0xe
 2611 006f 3A       		.uleb128 0x3a
 2612 0070 0B       		.uleb128 0xb
 2613 0071 3B       		.uleb128 0x3b
 2614 0072 05       		.uleb128 0x5
 2615 0073 49       		.uleb128 0x49
 2616 0074 13       		.uleb128 0x13
 2617 0075 38       		.uleb128 0x38
 2618 0076 0B       		.uleb128 0xb
 2619 0077 00       		.byte	0
 2620 0078 00       		.byte	0
 2621 0079 0A       		.uleb128 0xa
 2622 007a 0F       		.uleb128 0xf
ARM GAS  /tmp/cc6dSZm1.s 			page 47


 2623 007b 00       		.byte	0
 2624 007c 0B       		.uleb128 0xb
 2625 007d 0B       		.uleb128 0xb
 2626 007e 49       		.uleb128 0x49
 2627 007f 13       		.uleb128 0x13
 2628 0080 00       		.byte	0
 2629 0081 00       		.byte	0
 2630 0082 0B       		.uleb128 0xb
 2631 0083 13       		.uleb128 0x13
 2632 0084 01       		.byte	0x1
 2633 0085 03       		.uleb128 0x3
 2634 0086 0E       		.uleb128 0xe
 2635 0087 0B       		.uleb128 0xb
 2636 0088 0B       		.uleb128 0xb
 2637 0089 3A       		.uleb128 0x3a
 2638 008a 0B       		.uleb128 0xb
 2639 008b 3B       		.uleb128 0x3b
 2640 008c 05       		.uleb128 0x5
 2641 008d 01       		.uleb128 0x1
 2642 008e 13       		.uleb128 0x13
 2643 008f 00       		.byte	0
 2644 0090 00       		.byte	0
 2645 0091 0C       		.uleb128 0xc
 2646 0092 15       		.uleb128 0x15
 2647 0093 01       		.byte	0x1
 2648 0094 27       		.uleb128 0x27
 2649 0095 19       		.uleb128 0x19
 2650 0096 01       		.uleb128 0x1
 2651 0097 13       		.uleb128 0x13
 2652 0098 00       		.byte	0
 2653 0099 00       		.byte	0
 2654 009a 0D       		.uleb128 0xd
 2655 009b 05       		.uleb128 0x5
 2656 009c 00       		.byte	0
 2657 009d 49       		.uleb128 0x49
 2658 009e 13       		.uleb128 0x13
 2659 009f 00       		.byte	0
 2660 00a0 00       		.byte	0
 2661 00a1 0E       		.uleb128 0xe
 2662 00a2 0F       		.uleb128 0xf
 2663 00a3 00       		.byte	0
 2664 00a4 0B       		.uleb128 0xb
 2665 00a5 0B       		.uleb128 0xb
 2666 00a6 00       		.byte	0
 2667 00a7 00       		.byte	0
 2668 00a8 0F       		.uleb128 0xf
 2669 00a9 13       		.uleb128 0x13
 2670 00aa 01       		.byte	0x1
 2671 00ab 03       		.uleb128 0x3
 2672 00ac 0E       		.uleb128 0xe
 2673 00ad 0B       		.uleb128 0xb
 2674 00ae 05       		.uleb128 0x5
 2675 00af 3A       		.uleb128 0x3a
 2676 00b0 0B       		.uleb128 0xb
 2677 00b1 3B       		.uleb128 0x3b
 2678 00b2 05       		.uleb128 0x5
 2679 00b3 01       		.uleb128 0x1
ARM GAS  /tmp/cc6dSZm1.s 			page 48


 2680 00b4 13       		.uleb128 0x13
 2681 00b5 00       		.byte	0
 2682 00b6 00       		.byte	0
 2683 00b7 10       		.uleb128 0x10
 2684 00b8 0D       		.uleb128 0xd
 2685 00b9 00       		.byte	0
 2686 00ba 03       		.uleb128 0x3
 2687 00bb 08       		.uleb128 0x8
 2688 00bc 3A       		.uleb128 0x3a
 2689 00bd 0B       		.uleb128 0xb
 2690 00be 3B       		.uleb128 0x3b
 2691 00bf 0B       		.uleb128 0xb
 2692 00c0 49       		.uleb128 0x49
 2693 00c1 13       		.uleb128 0x13
 2694 00c2 38       		.uleb128 0x38
 2695 00c3 0B       		.uleb128 0xb
 2696 00c4 00       		.byte	0
 2697 00c5 00       		.byte	0
 2698 00c6 11       		.uleb128 0x11
 2699 00c7 13       		.uleb128 0x13
 2700 00c8 01       		.byte	0x1
 2701 00c9 0B       		.uleb128 0xb
 2702 00ca 0B       		.uleb128 0xb
 2703 00cb 3A       		.uleb128 0x3a
 2704 00cc 0B       		.uleb128 0xb
 2705 00cd 3B       		.uleb128 0x3b
 2706 00ce 0B       		.uleb128 0xb
 2707 00cf 01       		.uleb128 0x1
 2708 00d0 13       		.uleb128 0x13
 2709 00d1 00       		.byte	0
 2710 00d2 00       		.byte	0
 2711 00d3 12       		.uleb128 0x12
 2712 00d4 17       		.uleb128 0x17
 2713 00d5 01       		.byte	0x1
 2714 00d6 0B       		.uleb128 0xb
 2715 00d7 0B       		.uleb128 0xb
 2716 00d8 3A       		.uleb128 0x3a
 2717 00d9 0B       		.uleb128 0xb
 2718 00da 3B       		.uleb128 0x3b
 2719 00db 0B       		.uleb128 0xb
 2720 00dc 01       		.uleb128 0x1
 2721 00dd 13       		.uleb128 0x13
 2722 00de 00       		.byte	0
 2723 00df 00       		.byte	0
 2724 00e0 13       		.uleb128 0x13
 2725 00e1 0D       		.uleb128 0xd
 2726 00e2 00       		.byte	0
 2727 00e3 03       		.uleb128 0x3
 2728 00e4 0E       		.uleb128 0xe
 2729 00e5 3A       		.uleb128 0x3a
 2730 00e6 0B       		.uleb128 0xb
 2731 00e7 3B       		.uleb128 0x3b
 2732 00e8 05       		.uleb128 0x5
 2733 00e9 49       		.uleb128 0x49
 2734 00ea 13       		.uleb128 0x13
 2735 00eb 00       		.byte	0
 2736 00ec 00       		.byte	0
ARM GAS  /tmp/cc6dSZm1.s 			page 49


 2737 00ed 14       		.uleb128 0x14
 2738 00ee 26       		.uleb128 0x26
 2739 00ef 00       		.byte	0
 2740 00f0 49       		.uleb128 0x49
 2741 00f1 13       		.uleb128 0x13
 2742 00f2 00       		.byte	0
 2743 00f3 00       		.byte	0
 2744 00f4 15       		.uleb128 0x15
 2745 00f5 01       		.uleb128 0x1
 2746 00f6 01       		.byte	0x1
 2747 00f7 49       		.uleb128 0x49
 2748 00f8 13       		.uleb128 0x13
 2749 00f9 01       		.uleb128 0x1
 2750 00fa 13       		.uleb128 0x13
 2751 00fb 00       		.byte	0
 2752 00fc 00       		.byte	0
 2753 00fd 16       		.uleb128 0x16
 2754 00fe 21       		.uleb128 0x21
 2755 00ff 00       		.byte	0
 2756 0100 49       		.uleb128 0x49
 2757 0101 13       		.uleb128 0x13
 2758 0102 2F       		.uleb128 0x2f
 2759 0103 0B       		.uleb128 0xb
 2760 0104 00       		.byte	0
 2761 0105 00       		.byte	0
 2762 0106 17       		.uleb128 0x17
 2763 0107 2E       		.uleb128 0x2e
 2764 0108 00       		.byte	0
 2765 0109 03       		.uleb128 0x3
 2766 010a 0E       		.uleb128 0xe
 2767 010b 3A       		.uleb128 0x3a
 2768 010c 0B       		.uleb128 0xb
 2769 010d 3B       		.uleb128 0x3b
 2770 010e 05       		.uleb128 0x5
 2771 010f 27       		.uleb128 0x27
 2772 0110 19       		.uleb128 0x19
 2773 0111 20       		.uleb128 0x20
 2774 0112 0B       		.uleb128 0xb
 2775 0113 00       		.byte	0
 2776 0114 00       		.byte	0
 2777 0115 18       		.uleb128 0x18
 2778 0116 2E       		.uleb128 0x2e
 2779 0117 00       		.byte	0
 2780 0118 03       		.uleb128 0x3
 2781 0119 0E       		.uleb128 0xe
 2782 011a 3A       		.uleb128 0x3a
 2783 011b 0B       		.uleb128 0xb
 2784 011c 3B       		.uleb128 0x3b
 2785 011d 0B       		.uleb128 0xb
 2786 011e 27       		.uleb128 0x27
 2787 011f 19       		.uleb128 0x19
 2788 0120 49       		.uleb128 0x49
 2789 0121 13       		.uleb128 0x13
 2790 0122 20       		.uleb128 0x20
 2791 0123 0B       		.uleb128 0xb
 2792 0124 00       		.byte	0
 2793 0125 00       		.byte	0
ARM GAS  /tmp/cc6dSZm1.s 			page 50


 2794 0126 19       		.uleb128 0x19
 2795 0127 2E       		.uleb128 0x2e
 2796 0128 01       		.byte	0x1
 2797 0129 03       		.uleb128 0x3
 2798 012a 0E       		.uleb128 0xe
 2799 012b 3A       		.uleb128 0x3a
 2800 012c 0B       		.uleb128 0xb
 2801 012d 3B       		.uleb128 0x3b
 2802 012e 05       		.uleb128 0x5
 2803 012f 27       		.uleb128 0x27
 2804 0130 19       		.uleb128 0x19
 2805 0131 20       		.uleb128 0x20
 2806 0132 0B       		.uleb128 0xb
 2807 0133 01       		.uleb128 0x1
 2808 0134 13       		.uleb128 0x13
 2809 0135 00       		.byte	0
 2810 0136 00       		.byte	0
 2811 0137 1A       		.uleb128 0x1a
 2812 0138 05       		.uleb128 0x5
 2813 0139 00       		.byte	0
 2814 013a 03       		.uleb128 0x3
 2815 013b 08       		.uleb128 0x8
 2816 013c 3A       		.uleb128 0x3a
 2817 013d 0B       		.uleb128 0xb
 2818 013e 3B       		.uleb128 0x3b
 2819 013f 05       		.uleb128 0x5
 2820 0140 49       		.uleb128 0x49
 2821 0141 13       		.uleb128 0x13
 2822 0142 00       		.byte	0
 2823 0143 00       		.byte	0
 2824 0144 1B       		.uleb128 0x1b
 2825 0145 2E       		.uleb128 0x2e
 2826 0146 01       		.byte	0x1
 2827 0147 03       		.uleb128 0x3
 2828 0148 0E       		.uleb128 0xe
 2829 0149 3A       		.uleb128 0x3a
 2830 014a 0B       		.uleb128 0xb
 2831 014b 3B       		.uleb128 0x3b
 2832 014c 05       		.uleb128 0x5
 2833 014d 27       		.uleb128 0x27
 2834 014e 19       		.uleb128 0x19
 2835 014f 49       		.uleb128 0x49
 2836 0150 13       		.uleb128 0x13
 2837 0151 20       		.uleb128 0x20
 2838 0152 0B       		.uleb128 0xb
 2839 0153 01       		.uleb128 0x1
 2840 0154 13       		.uleb128 0x13
 2841 0155 00       		.byte	0
 2842 0156 00       		.byte	0
 2843 0157 1C       		.uleb128 0x1c
 2844 0158 34       		.uleb128 0x34
 2845 0159 00       		.byte	0
 2846 015a 03       		.uleb128 0x3
 2847 015b 08       		.uleb128 0x8
 2848 015c 3A       		.uleb128 0x3a
 2849 015d 0B       		.uleb128 0xb
 2850 015e 3B       		.uleb128 0x3b
ARM GAS  /tmp/cc6dSZm1.s 			page 51


 2851 015f 05       		.uleb128 0x5
 2852 0160 49       		.uleb128 0x49
 2853 0161 13       		.uleb128 0x13
 2854 0162 00       		.byte	0
 2855 0163 00       		.byte	0
 2856 0164 1D       		.uleb128 0x1d
 2857 0165 34       		.uleb128 0x34
 2858 0166 00       		.byte	0
 2859 0167 03       		.uleb128 0x3
 2860 0168 0E       		.uleb128 0xe
 2861 0169 49       		.uleb128 0x49
 2862 016a 13       		.uleb128 0x13
 2863 016b 34       		.uleb128 0x34
 2864 016c 19       		.uleb128 0x19
 2865 016d 1C       		.uleb128 0x1c
 2866 016e 0E       		.uleb128 0xe
 2867 016f 00       		.byte	0
 2868 0170 00       		.byte	0
 2869 0171 1E       		.uleb128 0x1e
 2870 0172 2E       		.uleb128 0x2e
 2871 0173 01       		.byte	0x1
 2872 0174 3F       		.uleb128 0x3f
 2873 0175 19       		.uleb128 0x19
 2874 0176 03       		.uleb128 0x3
 2875 0177 0E       		.uleb128 0xe
 2876 0178 3A       		.uleb128 0x3a
 2877 0179 0B       		.uleb128 0xb
 2878 017a 3B       		.uleb128 0x3b
 2879 017b 0B       		.uleb128 0xb
 2880 017c 27       		.uleb128 0x27
 2881 017d 19       		.uleb128 0x19
 2882 017e 11       		.uleb128 0x11
 2883 017f 01       		.uleb128 0x1
 2884 0180 12       		.uleb128 0x12
 2885 0181 06       		.uleb128 0x6
 2886 0182 40       		.uleb128 0x40
 2887 0183 18       		.uleb128 0x18
 2888 0184 9742     		.uleb128 0x2117
 2889 0186 19       		.uleb128 0x19
 2890 0187 01       		.uleb128 0x1
 2891 0188 13       		.uleb128 0x13
 2892 0189 00       		.byte	0
 2893 018a 00       		.byte	0
 2894 018b 1F       		.uleb128 0x1f
 2895 018c 05       		.uleb128 0x5
 2896 018d 00       		.byte	0
 2897 018e 03       		.uleb128 0x3
 2898 018f 08       		.uleb128 0x8
 2899 0190 3A       		.uleb128 0x3a
 2900 0191 0B       		.uleb128 0xb
 2901 0192 3B       		.uleb128 0x3b
 2902 0193 0B       		.uleb128 0xb
 2903 0194 49       		.uleb128 0x49
 2904 0195 13       		.uleb128 0x13
 2905 0196 02       		.uleb128 0x2
 2906 0197 18       		.uleb128 0x18
 2907 0198 00       		.byte	0
ARM GAS  /tmp/cc6dSZm1.s 			page 52


 2908 0199 00       		.byte	0
 2909 019a 20       		.uleb128 0x20
 2910 019b 34       		.uleb128 0x34
 2911 019c 00       		.byte	0
 2912 019d 03       		.uleb128 0x3
 2913 019e 0E       		.uleb128 0xe
 2914 019f 49       		.uleb128 0x49
 2915 01a0 13       		.uleb128 0x13
 2916 01a1 34       		.uleb128 0x34
 2917 01a2 19       		.uleb128 0x19
 2918 01a3 00       		.byte	0
 2919 01a4 00       		.byte	0
 2920 01a5 21       		.uleb128 0x21
 2921 01a6 1D       		.uleb128 0x1d
 2922 01a7 01       		.byte	0x1
 2923 01a8 31       		.uleb128 0x31
 2924 01a9 13       		.uleb128 0x13
 2925 01aa 11       		.uleb128 0x11
 2926 01ab 01       		.uleb128 0x1
 2927 01ac 12       		.uleb128 0x12
 2928 01ad 06       		.uleb128 0x6
 2929 01ae 58       		.uleb128 0x58
 2930 01af 0B       		.uleb128 0xb
 2931 01b0 59       		.uleb128 0x59
 2932 01b1 0B       		.uleb128 0xb
 2933 01b2 00       		.byte	0
 2934 01b3 00       		.byte	0
 2935 01b4 22       		.uleb128 0x22
 2936 01b5 05       		.uleb128 0x5
 2937 01b6 00       		.byte	0
 2938 01b7 31       		.uleb128 0x31
 2939 01b8 13       		.uleb128 0x13
 2940 01b9 02       		.uleb128 0x2
 2941 01ba 18       		.uleb128 0x18
 2942 01bb 00       		.byte	0
 2943 01bc 00       		.byte	0
 2944 01bd 23       		.uleb128 0x23
 2945 01be 05       		.uleb128 0x5
 2946 01bf 00       		.byte	0
 2947 01c0 03       		.uleb128 0x3
 2948 01c1 08       		.uleb128 0x8
 2949 01c2 3A       		.uleb128 0x3a
 2950 01c3 0B       		.uleb128 0xb
 2951 01c4 3B       		.uleb128 0x3b
 2952 01c5 0B       		.uleb128 0xb
 2953 01c6 49       		.uleb128 0x49
 2954 01c7 13       		.uleb128 0x13
 2955 01c8 02       		.uleb128 0x2
 2956 01c9 17       		.uleb128 0x17
 2957 01ca 00       		.byte	0
 2958 01cb 00       		.byte	0
 2959 01cc 24       		.uleb128 0x24
 2960 01cd 1D       		.uleb128 0x1d
 2961 01ce 01       		.byte	0x1
 2962 01cf 31       		.uleb128 0x31
 2963 01d0 13       		.uleb128 0x13
 2964 01d1 11       		.uleb128 0x11
ARM GAS  /tmp/cc6dSZm1.s 			page 53


 2965 01d2 01       		.uleb128 0x1
 2966 01d3 12       		.uleb128 0x12
 2967 01d4 06       		.uleb128 0x6
 2968 01d5 58       		.uleb128 0x58
 2969 01d6 0B       		.uleb128 0xb
 2970 01d7 59       		.uleb128 0x59
 2971 01d8 0B       		.uleb128 0xb
 2972 01d9 01       		.uleb128 0x1
 2973 01da 13       		.uleb128 0x13
 2974 01db 00       		.byte	0
 2975 01dc 00       		.byte	0
 2976 01dd 25       		.uleb128 0x25
 2977 01de 1D       		.uleb128 0x1d
 2978 01df 01       		.byte	0x1
 2979 01e0 31       		.uleb128 0x31
 2980 01e1 13       		.uleb128 0x13
 2981 01e2 11       		.uleb128 0x11
 2982 01e3 01       		.uleb128 0x1
 2983 01e4 12       		.uleb128 0x12
 2984 01e5 06       		.uleb128 0x6
 2985 01e6 58       		.uleb128 0x58
 2986 01e7 0B       		.uleb128 0xb
 2987 01e8 59       		.uleb128 0x59
 2988 01e9 05       		.uleb128 0x5
 2989 01ea 00       		.byte	0
 2990 01eb 00       		.byte	0
 2991 01ec 26       		.uleb128 0x26
 2992 01ed 1D       		.uleb128 0x1d
 2993 01ee 00       		.byte	0
 2994 01ef 31       		.uleb128 0x31
 2995 01f0 13       		.uleb128 0x13
 2996 01f1 11       		.uleb128 0x11
 2997 01f2 01       		.uleb128 0x1
 2998 01f3 12       		.uleb128 0x12
 2999 01f4 06       		.uleb128 0x6
 3000 01f5 58       		.uleb128 0x58
 3001 01f6 0B       		.uleb128 0xb
 3002 01f7 59       		.uleb128 0x59
 3003 01f8 05       		.uleb128 0x5
 3004 01f9 00       		.byte	0
 3005 01fa 00       		.byte	0
 3006 01fb 27       		.uleb128 0x27
 3007 01fc 05       		.uleb128 0x5
 3008 01fd 00       		.byte	0
 3009 01fe 31       		.uleb128 0x31
 3010 01ff 13       		.uleb128 0x13
 3011 0200 02       		.uleb128 0x2
 3012 0201 17       		.uleb128 0x17
 3013 0202 00       		.byte	0
 3014 0203 00       		.byte	0
 3015 0204 28       		.uleb128 0x28
 3016 0205 1D       		.uleb128 0x1d
 3017 0206 01       		.byte	0x1
 3018 0207 31       		.uleb128 0x31
 3019 0208 13       		.uleb128 0x13
 3020 0209 52       		.uleb128 0x52
 3021 020a 01       		.uleb128 0x1
ARM GAS  /tmp/cc6dSZm1.s 			page 54


 3022 020b 55       		.uleb128 0x55
 3023 020c 17       		.uleb128 0x17
 3024 020d 58       		.uleb128 0x58
 3025 020e 0B       		.uleb128 0xb
 3026 020f 59       		.uleb128 0x59
 3027 0210 0B       		.uleb128 0xb
 3028 0211 01       		.uleb128 0x1
 3029 0212 13       		.uleb128 0x13
 3030 0213 00       		.byte	0
 3031 0214 00       		.byte	0
 3032 0215 29       		.uleb128 0x29
 3033 0216 0B       		.uleb128 0xb
 3034 0217 01       		.byte	0x1
 3035 0218 55       		.uleb128 0x55
 3036 0219 17       		.uleb128 0x17
 3037 021a 00       		.byte	0
 3038 021b 00       		.byte	0
 3039 021c 2A       		.uleb128 0x2a
 3040 021d 34       		.uleb128 0x34
 3041 021e 00       		.byte	0
 3042 021f 31       		.uleb128 0x31
 3043 0220 13       		.uleb128 0x13
 3044 0221 02       		.uleb128 0x2
 3045 0222 17       		.uleb128 0x17
 3046 0223 00       		.byte	0
 3047 0224 00       		.byte	0
 3048 0225 2B       		.uleb128 0x2b
 3049 0226 0B       		.uleb128 0xb
 3050 0227 01       		.byte	0x1
 3051 0228 11       		.uleb128 0x11
 3052 0229 01       		.uleb128 0x1
 3053 022a 12       		.uleb128 0x12
 3054 022b 06       		.uleb128 0x6
 3055 022c 00       		.byte	0
 3056 022d 00       		.byte	0
 3057 022e 2C       		.uleb128 0x2c
 3058 022f 34       		.uleb128 0x34
 3059 0230 00       		.byte	0
 3060 0231 31       		.uleb128 0x31
 3061 0232 13       		.uleb128 0x13
 3062 0233 00       		.byte	0
 3063 0234 00       		.byte	0
 3064 0235 2D       		.uleb128 0x2d
 3065 0236 898201   		.uleb128 0x4109
 3066 0239 01       		.byte	0x1
 3067 023a 11       		.uleb128 0x11
 3068 023b 01       		.uleb128 0x1
 3069 023c 31       		.uleb128 0x31
 3070 023d 13       		.uleb128 0x13
 3071 023e 00       		.byte	0
 3072 023f 00       		.byte	0
 3073 0240 2E       		.uleb128 0x2e
 3074 0241 8A8201   		.uleb128 0x410a
 3075 0244 00       		.byte	0
 3076 0245 02       		.uleb128 0x2
 3077 0246 18       		.uleb128 0x18
 3078 0247 9142     		.uleb128 0x2111
ARM GAS  /tmp/cc6dSZm1.s 			page 55


 3079 0249 18       		.uleb128 0x18
 3080 024a 00       		.byte	0
 3081 024b 00       		.byte	0
 3082 024c 2F       		.uleb128 0x2f
 3083 024d 34       		.uleb128 0x34
 3084 024e 00       		.byte	0
 3085 024f 03       		.uleb128 0x3
 3086 0250 08       		.uleb128 0x8
 3087 0251 3A       		.uleb128 0x3a
 3088 0252 0B       		.uleb128 0xb
 3089 0253 3B       		.uleb128 0x3b
 3090 0254 0B       		.uleb128 0xb
 3091 0255 49       		.uleb128 0x49
 3092 0256 13       		.uleb128 0x13
 3093 0257 00       		.byte	0
 3094 0258 00       		.byte	0
 3095 0259 30       		.uleb128 0x30
 3096 025a 898201   		.uleb128 0x4109
 3097 025d 00       		.byte	0
 3098 025e 11       		.uleb128 0x11
 3099 025f 01       		.uleb128 0x1
 3100 0260 9542     		.uleb128 0x2115
 3101 0262 19       		.uleb128 0x19
 3102 0263 31       		.uleb128 0x31
 3103 0264 13       		.uleb128 0x13
 3104 0265 00       		.byte	0
 3105 0266 00       		.byte	0
 3106 0267 31       		.uleb128 0x31
 3107 0268 898201   		.uleb128 0x4109
 3108 026b 00       		.byte	0
 3109 026c 11       		.uleb128 0x11
 3110 026d 01       		.uleb128 0x1
 3111 026e 31       		.uleb128 0x31
 3112 026f 13       		.uleb128 0x13
 3113 0270 00       		.byte	0
 3114 0271 00       		.byte	0
 3115 0272 32       		.uleb128 0x32
 3116 0273 898201   		.uleb128 0x4109
 3117 0276 01       		.byte	0x1
 3118 0277 11       		.uleb128 0x11
 3119 0278 01       		.uleb128 0x1
 3120 0279 31       		.uleb128 0x31
 3121 027a 13       		.uleb128 0x13
 3122 027b 01       		.uleb128 0x1
 3123 027c 13       		.uleb128 0x13
 3124 027d 00       		.byte	0
 3125 027e 00       		.byte	0
 3126 027f 33       		.uleb128 0x33
 3127 0280 2E       		.uleb128 0x2e
 3128 0281 01       		.byte	0x1
 3129 0282 3F       		.uleb128 0x3f
 3130 0283 19       		.uleb128 0x19
 3131 0284 03       		.uleb128 0x3
 3132 0285 0E       		.uleb128 0xe
 3133 0286 3A       		.uleb128 0x3a
 3134 0287 0B       		.uleb128 0xb
 3135 0288 3B       		.uleb128 0x3b
ARM GAS  /tmp/cc6dSZm1.s 			page 56


 3136 0289 0B       		.uleb128 0xb
 3137 028a 27       		.uleb128 0x27
 3138 028b 19       		.uleb128 0x19
 3139 028c 49       		.uleb128 0x49
 3140 028d 13       		.uleb128 0x13
 3141 028e 11       		.uleb128 0x11
 3142 028f 01       		.uleb128 0x1
 3143 0290 12       		.uleb128 0x12
 3144 0291 06       		.uleb128 0x6
 3145 0292 40       		.uleb128 0x40
 3146 0293 18       		.uleb128 0x18
 3147 0294 9742     		.uleb128 0x2117
 3148 0296 19       		.uleb128 0x19
 3149 0297 01       		.uleb128 0x1
 3150 0298 13       		.uleb128 0x13
 3151 0299 00       		.byte	0
 3152 029a 00       		.byte	0
 3153 029b 34       		.uleb128 0x34
 3154 029c 34       		.uleb128 0x34
 3155 029d 00       		.byte	0
 3156 029e 03       		.uleb128 0x3
 3157 029f 08       		.uleb128 0x8
 3158 02a0 3A       		.uleb128 0x3a
 3159 02a1 0B       		.uleb128 0xb
 3160 02a2 3B       		.uleb128 0x3b
 3161 02a3 0B       		.uleb128 0xb
 3162 02a4 49       		.uleb128 0x49
 3163 02a5 13       		.uleb128 0x13
 3164 02a6 02       		.uleb128 0x2
 3165 02a7 17       		.uleb128 0x17
 3166 02a8 00       		.byte	0
 3167 02a9 00       		.byte	0
 3168 02aa 35       		.uleb128 0x35
 3169 02ab 1D       		.uleb128 0x1d
 3170 02ac 00       		.byte	0
 3171 02ad 31       		.uleb128 0x31
 3172 02ae 13       		.uleb128 0x13
 3173 02af 11       		.uleb128 0x11
 3174 02b0 01       		.uleb128 0x1
 3175 02b1 12       		.uleb128 0x12
 3176 02b2 06       		.uleb128 0x6
 3177 02b3 58       		.uleb128 0x58
 3178 02b4 0B       		.uleb128 0xb
 3179 02b5 59       		.uleb128 0x59
 3180 02b6 0B       		.uleb128 0xb
 3181 02b7 00       		.byte	0
 3182 02b8 00       		.byte	0
 3183 02b9 36       		.uleb128 0x36
 3184 02ba 34       		.uleb128 0x34
 3185 02bb 00       		.byte	0
 3186 02bc 03       		.uleb128 0x3
 3187 02bd 08       		.uleb128 0x8
 3188 02be 3A       		.uleb128 0x3a
 3189 02bf 0B       		.uleb128 0xb
 3190 02c0 3B       		.uleb128 0x3b
 3191 02c1 0B       		.uleb128 0xb
 3192 02c2 49       		.uleb128 0x49
ARM GAS  /tmp/cc6dSZm1.s 			page 57


 3193 02c3 13       		.uleb128 0x13
 3194 02c4 02       		.uleb128 0x2
 3195 02c5 18       		.uleb128 0x18
 3196 02c6 00       		.byte	0
 3197 02c7 00       		.byte	0
 3198 02c8 37       		.uleb128 0x37
 3199 02c9 2E       		.uleb128 0x2e
 3200 02ca 01       		.byte	0x1
 3201 02cb 3F       		.uleb128 0x3f
 3202 02cc 19       		.uleb128 0x19
 3203 02cd 03       		.uleb128 0x3
 3204 02ce 0E       		.uleb128 0xe
 3205 02cf 3A       		.uleb128 0x3a
 3206 02d0 0B       		.uleb128 0xb
 3207 02d1 3B       		.uleb128 0x3b
 3208 02d2 05       		.uleb128 0x5
 3209 02d3 27       		.uleb128 0x27
 3210 02d4 19       		.uleb128 0x19
 3211 02d5 49       		.uleb128 0x49
 3212 02d6 13       		.uleb128 0x13
 3213 02d7 11       		.uleb128 0x11
 3214 02d8 01       		.uleb128 0x1
 3215 02d9 12       		.uleb128 0x12
 3216 02da 06       		.uleb128 0x6
 3217 02db 40       		.uleb128 0x40
 3218 02dc 18       		.uleb128 0x18
 3219 02dd 9742     		.uleb128 0x2117
 3220 02df 19       		.uleb128 0x19
 3221 02e0 01       		.uleb128 0x1
 3222 02e1 13       		.uleb128 0x13
 3223 02e2 00       		.byte	0
 3224 02e3 00       		.byte	0
 3225 02e4 38       		.uleb128 0x38
 3226 02e5 05       		.uleb128 0x5
 3227 02e6 00       		.byte	0
 3228 02e7 03       		.uleb128 0x3
 3229 02e8 08       		.uleb128 0x8
 3230 02e9 3A       		.uleb128 0x3a
 3231 02ea 0B       		.uleb128 0xb
 3232 02eb 3B       		.uleb128 0x3b
 3233 02ec 05       		.uleb128 0x5
 3234 02ed 49       		.uleb128 0x49
 3235 02ee 13       		.uleb128 0x13
 3236 02ef 02       		.uleb128 0x2
 3237 02f0 17       		.uleb128 0x17
 3238 02f1 00       		.byte	0
 3239 02f2 00       		.byte	0
 3240 02f3 39       		.uleb128 0x39
 3241 02f4 05       		.uleb128 0x5
 3242 02f5 00       		.byte	0
 3243 02f6 03       		.uleb128 0x3
 3244 02f7 0E       		.uleb128 0xe
 3245 02f8 3A       		.uleb128 0x3a
 3246 02f9 0B       		.uleb128 0xb
 3247 02fa 3B       		.uleb128 0x3b
 3248 02fb 05       		.uleb128 0x5
 3249 02fc 49       		.uleb128 0x49
ARM GAS  /tmp/cc6dSZm1.s 			page 58


 3250 02fd 13       		.uleb128 0x13
 3251 02fe 02       		.uleb128 0x2
 3252 02ff 17       		.uleb128 0x17
 3253 0300 00       		.byte	0
 3254 0301 00       		.byte	0
 3255 0302 3A       		.uleb128 0x3a
 3256 0303 34       		.uleb128 0x34
 3257 0304 00       		.byte	0
 3258 0305 03       		.uleb128 0x3
 3259 0306 08       		.uleb128 0x8
 3260 0307 3A       		.uleb128 0x3a
 3261 0308 0B       		.uleb128 0xb
 3262 0309 3B       		.uleb128 0x3b
 3263 030a 05       		.uleb128 0x5
 3264 030b 49       		.uleb128 0x49
 3265 030c 13       		.uleb128 0x13
 3266 030d 02       		.uleb128 0x2
 3267 030e 17       		.uleb128 0x17
 3268 030f 00       		.byte	0
 3269 0310 00       		.byte	0
 3270 0311 3B       		.uleb128 0x3b
 3271 0312 1D       		.uleb128 0x1d
 3272 0313 01       		.byte	0x1
 3273 0314 31       		.uleb128 0x31
 3274 0315 13       		.uleb128 0x13
 3275 0316 11       		.uleb128 0x11
 3276 0317 01       		.uleb128 0x1
 3277 0318 12       		.uleb128 0x12
 3278 0319 06       		.uleb128 0x6
 3279 031a 58       		.uleb128 0x58
 3280 031b 0B       		.uleb128 0xb
 3281 031c 59       		.uleb128 0x59
 3282 031d 05       		.uleb128 0x5
 3283 031e 01       		.uleb128 0x1
 3284 031f 13       		.uleb128 0x13
 3285 0320 00       		.byte	0
 3286 0321 00       		.byte	0
 3287 0322 3C       		.uleb128 0x3c
 3288 0323 1D       		.uleb128 0x1d
 3289 0324 01       		.byte	0x1
 3290 0325 31       		.uleb128 0x31
 3291 0326 13       		.uleb128 0x13
 3292 0327 52       		.uleb128 0x52
 3293 0328 01       		.uleb128 0x1
 3294 0329 55       		.uleb128 0x55
 3295 032a 17       		.uleb128 0x17
 3296 032b 58       		.uleb128 0x58
 3297 032c 0B       		.uleb128 0xb
 3298 032d 59       		.uleb128 0x59
 3299 032e 05       		.uleb128 0x5
 3300 032f 01       		.uleb128 0x1
 3301 0330 13       		.uleb128 0x13
 3302 0331 00       		.byte	0
 3303 0332 00       		.byte	0
 3304 0333 3D       		.uleb128 0x3d
 3305 0334 34       		.uleb128 0x34
 3306 0335 00       		.byte	0
ARM GAS  /tmp/cc6dSZm1.s 			page 59


 3307 0336 03       		.uleb128 0x3
 3308 0337 08       		.uleb128 0x8
 3309 0338 3A       		.uleb128 0x3a
 3310 0339 0B       		.uleb128 0xb
 3311 033a 3B       		.uleb128 0x3b
 3312 033b 05       		.uleb128 0x5
 3313 033c 49       		.uleb128 0x49
 3314 033d 13       		.uleb128 0x13
 3315 033e 02       		.uleb128 0x2
 3316 033f 18       		.uleb128 0x18
 3317 0340 00       		.byte	0
 3318 0341 00       		.byte	0
 3319 0342 3E       		.uleb128 0x3e
 3320 0343 34       		.uleb128 0x34
 3321 0344 00       		.byte	0
 3322 0345 03       		.uleb128 0x3
 3323 0346 0E       		.uleb128 0xe
 3324 0347 3A       		.uleb128 0x3a
 3325 0348 0B       		.uleb128 0xb
 3326 0349 3B       		.uleb128 0x3b
 3327 034a 05       		.uleb128 0x5
 3328 034b 49       		.uleb128 0x49
 3329 034c 13       		.uleb128 0x13
 3330 034d 3F       		.uleb128 0x3f
 3331 034e 19       		.uleb128 0x19
 3332 034f 3C       		.uleb128 0x3c
 3333 0350 19       		.uleb128 0x19
 3334 0351 00       		.byte	0
 3335 0352 00       		.byte	0
 3336 0353 3F       		.uleb128 0x3f
 3337 0354 34       		.uleb128 0x34
 3338 0355 00       		.byte	0
 3339 0356 03       		.uleb128 0x3
 3340 0357 08       		.uleb128 0x8
 3341 0358 3A       		.uleb128 0x3a
 3342 0359 0B       		.uleb128 0xb
 3343 035a 3B       		.uleb128 0x3b
 3344 035b 05       		.uleb128 0x5
 3345 035c 49       		.uleb128 0x49
 3346 035d 13       		.uleb128 0x13
 3347 035e 3F       		.uleb128 0x3f
 3348 035f 19       		.uleb128 0x19
 3349 0360 3C       		.uleb128 0x3c
 3350 0361 19       		.uleb128 0x19
 3351 0362 00       		.byte	0
 3352 0363 00       		.byte	0
 3353 0364 40       		.uleb128 0x40
 3354 0365 2E       		.uleb128 0x2e
 3355 0366 01       		.byte	0x1
 3356 0367 3F       		.uleb128 0x3f
 3357 0368 19       		.uleb128 0x19
 3358 0369 03       		.uleb128 0x3
 3359 036a 0E       		.uleb128 0xe
 3360 036b 3A       		.uleb128 0x3a
 3361 036c 0B       		.uleb128 0xb
 3362 036d 3B       		.uleb128 0x3b
 3363 036e 05       		.uleb128 0x5
ARM GAS  /tmp/cc6dSZm1.s 			page 60


 3364 036f 27       		.uleb128 0x27
 3365 0370 19       		.uleb128 0x19
 3366 0371 3C       		.uleb128 0x3c
 3367 0372 19       		.uleb128 0x19
 3368 0373 01       		.uleb128 0x1
 3369 0374 13       		.uleb128 0x13
 3370 0375 00       		.byte	0
 3371 0376 00       		.byte	0
 3372 0377 41       		.uleb128 0x41
 3373 0378 2E       		.uleb128 0x2e
 3374 0379 01       		.byte	0x1
 3375 037a 3F       		.uleb128 0x3f
 3376 037b 19       		.uleb128 0x19
 3377 037c 03       		.uleb128 0x3
 3378 037d 0E       		.uleb128 0xe
 3379 037e 3A       		.uleb128 0x3a
 3380 037f 0B       		.uleb128 0xb
 3381 0380 3B       		.uleb128 0x3b
 3382 0381 05       		.uleb128 0x5
 3383 0382 27       		.uleb128 0x27
 3384 0383 19       		.uleb128 0x19
 3385 0384 49       		.uleb128 0x49
 3386 0385 13       		.uleb128 0x13
 3387 0386 3C       		.uleb128 0x3c
 3388 0387 19       		.uleb128 0x19
 3389 0388 01       		.uleb128 0x1
 3390 0389 13       		.uleb128 0x13
 3391 038a 00       		.byte	0
 3392 038b 00       		.byte	0
 3393 038c 42       		.uleb128 0x42
 3394 038d 2E       		.uleb128 0x2e
 3395 038e 00       		.byte	0
 3396 038f 3F       		.uleb128 0x3f
 3397 0390 19       		.uleb128 0x19
 3398 0391 03       		.uleb128 0x3
 3399 0392 0E       		.uleb128 0xe
 3400 0393 3A       		.uleb128 0x3a
 3401 0394 0B       		.uleb128 0xb
 3402 0395 3B       		.uleb128 0x3b
 3403 0396 05       		.uleb128 0x5
 3404 0397 27       		.uleb128 0x27
 3405 0398 19       		.uleb128 0x19
 3406 0399 3C       		.uleb128 0x3c
 3407 039a 19       		.uleb128 0x19
 3408 039b 00       		.byte	0
 3409 039c 00       		.byte	0
 3410 039d 43       		.uleb128 0x43
 3411 039e 2E       		.uleb128 0x2e
 3412 039f 01       		.byte	0x1
 3413 03a0 3F       		.uleb128 0x3f
 3414 03a1 19       		.uleb128 0x19
 3415 03a2 03       		.uleb128 0x3
 3416 03a3 0E       		.uleb128 0xe
 3417 03a4 3A       		.uleb128 0x3a
 3418 03a5 0B       		.uleb128 0xb
 3419 03a6 3B       		.uleb128 0x3b
 3420 03a7 0B       		.uleb128 0xb
ARM GAS  /tmp/cc6dSZm1.s 			page 61


 3421 03a8 27       		.uleb128 0x27
 3422 03a9 19       		.uleb128 0x19
 3423 03aa 3C       		.uleb128 0x3c
 3424 03ab 19       		.uleb128 0x19
 3425 03ac 01       		.uleb128 0x1
 3426 03ad 13       		.uleb128 0x13
 3427 03ae 00       		.byte	0
 3428 03af 00       		.byte	0
 3429 03b0 44       		.uleb128 0x44
 3430 03b1 2E       		.uleb128 0x2e
 3431 03b2 01       		.byte	0x1
 3432 03b3 3F       		.uleb128 0x3f
 3433 03b4 19       		.uleb128 0x19
 3434 03b5 03       		.uleb128 0x3
 3435 03b6 0E       		.uleb128 0xe
 3436 03b7 3A       		.uleb128 0x3a
 3437 03b8 0B       		.uleb128 0xb
 3438 03b9 3B       		.uleb128 0x3b
 3439 03ba 05       		.uleb128 0x5
 3440 03bb 27       		.uleb128 0x27
 3441 03bc 19       		.uleb128 0x19
 3442 03bd 49       		.uleb128 0x49
 3443 03be 13       		.uleb128 0x13
 3444 03bf 3C       		.uleb128 0x3c
 3445 03c0 19       		.uleb128 0x19
 3446 03c1 00       		.byte	0
 3447 03c2 00       		.byte	0
 3448 03c3 00       		.byte	0
 3449              		.section	.debug_loc,"",%progbits
 3450              	.Ldebug_loc0:
 3451              	.LLST0:
 3452 0000 00000000 		.4byte	.LVL1
 3453 0004 14000000 		.4byte	.LVL4
 3454 0008 0100     		.2byte	0x1
 3455 000a 50       		.byte	0x50
 3456 000b 14000000 		.4byte	.LVL4
 3457 000f 19000000 		.4byte	.LVL5-1
 3458 0013 0100     		.2byte	0x1
 3459 0015 53       		.byte	0x53
 3460 0016 19000000 		.4byte	.LVL5-1
 3461 001a 1E000000 		.4byte	.LVL6
 3462 001e 0400     		.2byte	0x4
 3463 0020 F3       		.byte	0xf3
 3464 0021 01       		.uleb128 0x1
 3465 0022 50       		.byte	0x50
 3466 0023 9F       		.byte	0x9f
 3467 0024 1E000000 		.4byte	.LVL6
 3468 0028 22000000 		.4byte	.LFE220
 3469 002c 0100     		.2byte	0x1
 3470 002e 50       		.byte	0x50
 3471 002f 00000000 		.4byte	0
 3472 0033 00000000 		.4byte	0
 3473              	.LLST1:
 3474 0037 02000000 		.4byte	.LVL2
 3475 003b 14000000 		.4byte	.LVL4
 3476 003f 0100     		.2byte	0x1
 3477 0041 50       		.byte	0x50
ARM GAS  /tmp/cc6dSZm1.s 			page 62


 3478 0042 14000000 		.4byte	.LVL4
 3479 0046 19000000 		.4byte	.LVL5-1
 3480 004a 0100     		.2byte	0x1
 3481 004c 53       		.byte	0x53
 3482 004d 19000000 		.4byte	.LVL5-1
 3483 0051 1E000000 		.4byte	.LVL6
 3484 0055 0400     		.2byte	0x4
 3485 0057 F3       		.byte	0xf3
 3486 0058 01       		.uleb128 0x1
 3487 0059 50       		.byte	0x50
 3488 005a 9F       		.byte	0x9f
 3489 005b 1E000000 		.4byte	.LVL6
 3490 005f 22000000 		.4byte	.LFE220
 3491 0063 0100     		.2byte	0x1
 3492 0065 50       		.byte	0x50
 3493 0066 00000000 		.4byte	0
 3494 006a 00000000 		.4byte	0
 3495              	.LLST2:
 3496 006e 0E000000 		.4byte	.LVL3
 3497 0072 14000000 		.4byte	.LVL4
 3498 0076 0100     		.2byte	0x1
 3499 0078 50       		.byte	0x50
 3500 0079 14000000 		.4byte	.LVL4
 3501 007d 19000000 		.4byte	.LVL5-1
 3502 0081 0100     		.2byte	0x1
 3503 0083 53       		.byte	0x53
 3504 0084 19000000 		.4byte	.LVL5-1
 3505 0088 1E000000 		.4byte	.LVL6
 3506 008c 0400     		.2byte	0x4
 3507 008e F3       		.byte	0xf3
 3508 008f 01       		.uleb128 0x1
 3509 0090 50       		.byte	0x50
 3510 0091 9F       		.byte	0x9f
 3511 0092 00000000 		.4byte	0
 3512 0096 00000000 		.4byte	0
 3513              	.LLST3:
 3514 009a 0E000000 		.4byte	.LVL3
 3515 009e 19000000 		.4byte	.LVL5-1
 3516 00a2 0100     		.2byte	0x1
 3517 00a4 52       		.byte	0x52
 3518 00a5 00000000 		.4byte	0
 3519 00a9 00000000 		.4byte	0
 3520              	.LLST4:
 3521 00ad 00000000 		.4byte	.LVL7
 3522 00b1 10000000 		.4byte	.LVL9
 3523 00b5 0100     		.2byte	0x1
 3524 00b7 50       		.byte	0x50
 3525 00b8 10000000 		.4byte	.LVL9
 3526 00bc 15000000 		.4byte	.LVL10-1
 3527 00c0 0200     		.2byte	0x2
 3528 00c2 72       		.byte	0x72
 3529 00c3 04       		.sleb128 4
 3530 00c4 15000000 		.4byte	.LVL10-1
 3531 00c8 16000000 		.4byte	.LVL10
 3532 00cc 0400     		.2byte	0x4
 3533 00ce F3       		.byte	0xf3
 3534 00cf 01       		.uleb128 0x1
ARM GAS  /tmp/cc6dSZm1.s 			page 63


 3535 00d0 50       		.byte	0x50
 3536 00d1 9F       		.byte	0x9f
 3537 00d2 16000000 		.4byte	.LVL10
 3538 00d6 18000000 		.4byte	.LFE221
 3539 00da 0100     		.2byte	0x1
 3540 00dc 50       		.byte	0x50
 3541 00dd 00000000 		.4byte	0
 3542 00e1 00000000 		.4byte	0
 3543              	.LLST6:
 3544 00e5 06000000 		.4byte	.LVL8
 3545 00e9 10000000 		.4byte	.LVL9
 3546 00ed 0100     		.2byte	0x1
 3547 00ef 50       		.byte	0x50
 3548 00f0 10000000 		.4byte	.LVL9
 3549 00f4 15000000 		.4byte	.LVL10-1
 3550 00f8 0200     		.2byte	0x2
 3551 00fa 72       		.byte	0x72
 3552 00fb 04       		.sleb128 4
 3553 00fc 15000000 		.4byte	.LVL10-1
 3554 0100 16000000 		.4byte	.LVL10
 3555 0104 0400     		.2byte	0x4
 3556 0106 F3       		.byte	0xf3
 3557 0107 01       		.uleb128 0x1
 3558 0108 50       		.byte	0x50
 3559 0109 9F       		.byte	0x9f
 3560 010a 00000000 		.4byte	0
 3561 010e 00000000 		.4byte	0
 3562              	.LLST7:
 3563 0112 06000000 		.4byte	.LVL8
 3564 0116 15000000 		.4byte	.LVL10-1
 3565 011a 0100     		.2byte	0x1
 3566 011c 53       		.byte	0x53
 3567 011d 00000000 		.4byte	0
 3568 0121 00000000 		.4byte	0
 3569              	.LLST8:
 3570 0125 00000000 		.4byte	.LVL11
 3571 0129 06000000 		.4byte	.LVL13
 3572 012d 0100     		.2byte	0x1
 3573 012f 50       		.byte	0x50
 3574 0130 06000000 		.4byte	.LVL13
 3575 0134 22000000 		.4byte	.LFE223
 3576 0138 0100     		.2byte	0x1
 3577 013a 54       		.byte	0x54
 3578 013b 00000000 		.4byte	0
 3579 013f 00000000 		.4byte	0
 3580              	.LLST9:
 3581 0143 04000000 		.4byte	.LVL12
 3582 0147 06000000 		.4byte	.LVL13
 3583 014b 0100     		.2byte	0x1
 3584 014d 50       		.byte	0x50
 3585 014e 06000000 		.4byte	.LVL13
 3586 0152 22000000 		.4byte	.LFE223
 3587 0156 0100     		.2byte	0x1
 3588 0158 54       		.byte	0x54
 3589 0159 00000000 		.4byte	0
 3590 015d 00000000 		.4byte	0
 3591              	.LLST10:
ARM GAS  /tmp/cc6dSZm1.s 			page 64


 3592 0161 0E000000 		.4byte	.LVL14
 3593 0165 20000000 		.4byte	.LVL16
 3594 0169 0100     		.2byte	0x1
 3595 016b 54       		.byte	0x54
 3596 016c 00000000 		.4byte	0
 3597 0170 00000000 		.4byte	0
 3598              	.LLST11:
 3599 0174 0E000000 		.4byte	.LVL14
 3600 0178 17000000 		.4byte	.LVL15-1
 3601 017c 0100     		.2byte	0x1
 3602 017e 50       		.byte	0x50
 3603 017f 00000000 		.4byte	0
 3604 0183 00000000 		.4byte	0
 3605              	.LLST12:
 3606 0187 00000000 		.4byte	.LVL17
 3607 018b 07000000 		.4byte	.LVL18-1
 3608 018f 0100     		.2byte	0x1
 3609 0191 50       		.byte	0x50
 3610 0192 07000000 		.4byte	.LVL18-1
 3611 0196 10000000 		.4byte	.LFE222
 3612 019a 0400     		.2byte	0x4
 3613 019c F3       		.byte	0xf3
 3614 019d 01       		.uleb128 0x1
 3615 019e 50       		.byte	0x50
 3616 019f 9F       		.byte	0x9f
 3617 01a0 00000000 		.4byte	0
 3618 01a4 00000000 		.4byte	0
 3619              	.LLST13:
 3620 01a8 00000000 		.4byte	.LVL20
 3621 01ac 0C000000 		.4byte	.LVL22
 3622 01b0 0100     		.2byte	0x1
 3623 01b2 50       		.byte	0x50
 3624 01b3 0C000000 		.4byte	.LVL22
 3625 01b7 40000000 		.4byte	.LVL30
 3626 01bb 0100     		.2byte	0x1
 3627 01bd 55       		.byte	0x55
 3628 01be 40000000 		.4byte	.LVL30
 3629 01c2 44000000 		.4byte	.LFE225
 3630 01c6 0400     		.2byte	0x4
 3631 01c8 F3       		.byte	0xf3
 3632 01c9 01       		.uleb128 0x1
 3633 01ca 50       		.byte	0x50
 3634 01cb 9F       		.byte	0x9f
 3635 01cc 00000000 		.4byte	0
 3636 01d0 00000000 		.4byte	0
 3637              	.LLST14:
 3638 01d4 06000000 		.4byte	.LVL21
 3639 01d8 36000000 		.4byte	.LVL28
 3640 01dc 0100     		.2byte	0x1
 3641 01de 54       		.byte	0x54
 3642 01df 00000000 		.4byte	0
 3643 01e3 00000000 		.4byte	0
 3644              	.LLST15:
 3645 01e7 36000000 		.4byte	.LVL28
 3646 01eb 40000000 		.4byte	.LVL30
 3647 01ef 0100     		.2byte	0x1
 3648 01f1 54       		.byte	0x54
ARM GAS  /tmp/cc6dSZm1.s 			page 65


 3649 01f2 40000000 		.4byte	.LVL30
 3650 01f6 44000000 		.4byte	.LFE225
 3651 01fa 0100     		.2byte	0x1
 3652 01fc 50       		.byte	0x50
 3653 01fd 00000000 		.4byte	0
 3654 0201 00000000 		.4byte	0
 3655              	.LLST16:
 3656 0205 12000000 		.4byte	.LVL24
 3657 0209 40000000 		.4byte	.LVL30
 3658 020d 0100     		.2byte	0x1
 3659 020f 55       		.byte	0x55
 3660 0210 40000000 		.4byte	.LVL30
 3661 0214 44000000 		.4byte	.LFE225
 3662 0218 0400     		.2byte	0x4
 3663 021a F3       		.byte	0xf3
 3664 021b 01       		.uleb128 0x1
 3665 021c 50       		.byte	0x50
 3666 021d 9F       		.byte	0x9f
 3667 021e 00000000 		.4byte	0
 3668 0222 00000000 		.4byte	0
 3669              	.LLST17:
 3670 0226 12000000 		.4byte	.LVL24
 3671 022a 36000000 		.4byte	.LVL28
 3672 022e 0100     		.2byte	0x1
 3673 0230 54       		.byte	0x54
 3674 0231 00000000 		.4byte	0
 3675 0235 00000000 		.4byte	0
 3676              	.LLST18:
 3677 0239 12000000 		.4byte	.LVL24
 3678 023d 16000000 		.4byte	.LVL25
 3679 0241 0100     		.2byte	0x1
 3680 0243 55       		.byte	0x55
 3681 0244 16000000 		.4byte	.LVL25
 3682 0248 33000000 		.4byte	.LVL27-1
 3683 024c 0100     		.2byte	0x1
 3684 024e 53       		.byte	0x53
 3685 024f 00000000 		.4byte	0
 3686 0253 00000000 		.4byte	0
 3687              	.LLST19:
 3688 0257 00000000 		.4byte	.LVL31
 3689 025b 07000000 		.4byte	.LVL32-1
 3690 025f 0100     		.2byte	0x1
 3691 0261 50       		.byte	0x50
 3692 0262 07000000 		.4byte	.LVL32-1
 3693 0266 0C000000 		.4byte	.LFE224
 3694 026a 0400     		.2byte	0x4
 3695 026c F3       		.byte	0xf3
 3696 026d 01       		.uleb128 0x1
 3697 026e 50       		.byte	0x50
 3698 026f 9F       		.byte	0x9f
 3699 0270 00000000 		.4byte	0
 3700 0274 00000000 		.4byte	0
 3701              	.LLST20:
 3702 0278 00000000 		.4byte	.LVL33
 3703 027c 0C000000 		.4byte	.LVL34
 3704 0280 0100     		.2byte	0x1
 3705 0282 50       		.byte	0x50
ARM GAS  /tmp/cc6dSZm1.s 			page 66


 3706 0283 0C000000 		.4byte	.LVL34
 3707 0287 4A000000 		.4byte	.LVL43
 3708 028b 0100     		.2byte	0x1
 3709 028d 55       		.byte	0x55
 3710 028e 4A000000 		.4byte	.LVL43
 3711 0292 50000000 		.4byte	.LFE227
 3712 0296 0400     		.2byte	0x4
 3713 0298 F3       		.byte	0xf3
 3714 0299 01       		.uleb128 0x1
 3715 029a 50       		.byte	0x50
 3716 029b 9F       		.byte	0x9f
 3717 029c 00000000 		.4byte	0
 3718 02a0 00000000 		.4byte	0
 3719              	.LLST21:
 3720 02a4 00000000 		.4byte	.LVL33
 3721 02a8 11000000 		.4byte	.LVL35-1
 3722 02ac 0100     		.2byte	0x1
 3723 02ae 51       		.byte	0x51
 3724 02af 11000000 		.4byte	.LVL35-1
 3725 02b3 4A000000 		.4byte	.LVL43
 3726 02b7 0100     		.2byte	0x1
 3727 02b9 57       		.byte	0x57
 3728 02ba 4A000000 		.4byte	.LVL43
 3729 02be 50000000 		.4byte	.LFE227
 3730 02c2 0400     		.2byte	0x4
 3731 02c4 F3       		.byte	0xf3
 3732 02c5 01       		.uleb128 0x1
 3733 02c6 51       		.byte	0x51
 3734 02c7 9F       		.byte	0x9f
 3735 02c8 00000000 		.4byte	0
 3736 02cc 00000000 		.4byte	0
 3737              	.LLST22:
 3738 02d0 3E000000 		.4byte	.LVL40
 3739 02d4 42000000 		.4byte	.LVL41
 3740 02d8 0100     		.2byte	0x1
 3741 02da 50       		.byte	0x50
 3742 02db 42000000 		.4byte	.LVL41
 3743 02df 4A000000 		.4byte	.LVL43
 3744 02e3 0100     		.2byte	0x1
 3745 02e5 54       		.byte	0x54
 3746 02e6 4A000000 		.4byte	.LVL43
 3747 02ea 50000000 		.4byte	.LFE227
 3748 02ee 0100     		.2byte	0x1
 3749 02f0 50       		.byte	0x50
 3750 02f1 00000000 		.4byte	0
 3751 02f5 00000000 		.4byte	0
 3752              	.LLST23:
 3753 02f9 18000000 		.4byte	.LVL36
 3754 02fd 4A000000 		.4byte	.LVL43
 3755 0301 0100     		.2byte	0x1
 3756 0303 55       		.byte	0x55
 3757 0304 4A000000 		.4byte	.LVL43
 3758 0308 50000000 		.4byte	.LFE227
 3759 030c 0400     		.2byte	0x4
 3760 030e F3       		.byte	0xf3
 3761 030f 01       		.uleb128 0x1
 3762 0310 50       		.byte	0x50
ARM GAS  /tmp/cc6dSZm1.s 			page 67


 3763 0311 9F       		.byte	0x9f
 3764 0312 00000000 		.4byte	0
 3765 0316 00000000 		.4byte	0
 3766              	.LLST24:
 3767 031a 18000000 		.4byte	.LVL36
 3768 031e 3E000000 		.4byte	.LVL40
 3769 0322 0100     		.2byte	0x1
 3770 0324 54       		.byte	0x54
 3771 0325 00000000 		.4byte	0
 3772 0329 00000000 		.4byte	0
 3773              	.LLST25:
 3774 032d 18000000 		.4byte	.LVL36
 3775 0331 1A000000 		.4byte	.LVL37
 3776 0335 0100     		.2byte	0x1
 3777 0337 55       		.byte	0x55
 3778 0338 1A000000 		.4byte	.LVL37
 3779 033c 39000000 		.4byte	.LVL39-1
 3780 0340 0100     		.2byte	0x1
 3781 0342 53       		.byte	0x53
 3782 0343 00000000 		.4byte	0
 3783 0347 00000000 		.4byte	0
 3784              	.LLST26:
 3785 034b 00000000 		.4byte	.LVL44
 3786 034f 07000000 		.4byte	.LVL45-1
 3787 0353 0100     		.2byte	0x1
 3788 0355 50       		.byte	0x50
 3789 0356 07000000 		.4byte	.LVL45-1
 3790 035a 0C000000 		.4byte	.LFE226
 3791 035e 0400     		.2byte	0x4
 3792 0360 F3       		.byte	0xf3
 3793 0361 01       		.uleb128 0x1
 3794 0362 50       		.byte	0x50
 3795 0363 9F       		.byte	0x9f
 3796 0364 00000000 		.4byte	0
 3797 0368 00000000 		.4byte	0
 3798              	.LLST27:
 3799 036c 00000000 		.4byte	.LVL44
 3800 0370 07000000 		.4byte	.LVL45-1
 3801 0374 0100     		.2byte	0x1
 3802 0376 51       		.byte	0x51
 3803 0377 07000000 		.4byte	.LVL45-1
 3804 037b 0C000000 		.4byte	.LFE226
 3805 037f 0400     		.2byte	0x4
 3806 0381 F3       		.byte	0xf3
 3807 0382 01       		.uleb128 0x1
 3808 0383 51       		.byte	0x51
 3809 0384 9F       		.byte	0x9f
 3810 0385 00000000 		.4byte	0
 3811 0389 00000000 		.4byte	0
 3812              		.section	.debug_aranges,"",%progbits
 3813 0000 5C000000 		.4byte	0x5c
 3814 0004 0200     		.2byte	0x2
 3815 0006 00000000 		.4byte	.Ldebug_info0
 3816 000a 04       		.byte	0x4
 3817 000b 00       		.byte	0
 3818 000c 0000     		.2byte	0
 3819 000e 0000     		.2byte	0
ARM GAS  /tmp/cc6dSZm1.s 			page 68


 3820 0010 00000000 		.4byte	.LFB219
 3821 0014 06000000 		.4byte	.LFE219-.LFB219
 3822 0018 00000000 		.4byte	.LFB220
 3823 001c 22000000 		.4byte	.LFE220-.LFB220
 3824 0020 00000000 		.4byte	.LFB221
 3825 0024 18000000 		.4byte	.LFE221-.LFB221
 3826 0028 00000000 		.4byte	.LFB223
 3827 002c 22000000 		.4byte	.LFE223-.LFB223
 3828 0030 00000000 		.4byte	.LFB222
 3829 0034 10000000 		.4byte	.LFE222-.LFB222
 3830 0038 00000000 		.4byte	.LFB225
 3831 003c 44000000 		.4byte	.LFE225-.LFB225
 3832 0040 00000000 		.4byte	.LFB224
 3833 0044 0C000000 		.4byte	.LFE224-.LFB224
 3834 0048 00000000 		.4byte	.LFB227
 3835 004c 50000000 		.4byte	.LFE227-.LFB227
 3836 0050 00000000 		.4byte	.LFB226
 3837 0054 0C000000 		.4byte	.LFE226-.LFB226
 3838 0058 00000000 		.4byte	0
 3839 005c 00000000 		.4byte	0
 3840              		.section	.debug_ranges,"",%progbits
 3841              	.Ldebug_ranges0:
 3842 0000 08000000 		.4byte	.LBB91
 3843 0004 0A000000 		.4byte	.LBE91
 3844 0008 0E000000 		.4byte	.LBB94
 3845 000c 12000000 		.4byte	.LBE94
 3846 0010 00000000 		.4byte	0
 3847 0014 00000000 		.4byte	0
 3848 0018 06000000 		.4byte	.LBB103
 3849 001c 0A000000 		.4byte	.LBE103
 3850 0020 0C000000 		.4byte	.LBB106
 3851 0024 0E000000 		.4byte	.LBE106
 3852 0028 00000000 		.4byte	0
 3853 002c 00000000 		.4byte	0
 3854 0030 04000000 		.4byte	.LBB107
 3855 0034 06000000 		.4byte	.LBE107
 3856 0038 1A000000 		.4byte	.LBB112
 3857 003c 1C000000 		.4byte	.LBE112
 3858 0040 00000000 		.4byte	0
 3859 0044 00000000 		.4byte	0
 3860 0048 12000000 		.4byte	.LBB124
 3861 004c 2A000000 		.4byte	.LBE124
 3862 0050 2C000000 		.4byte	.LBB127
 3863 0054 30000000 		.4byte	.LBE127
 3864 0058 00000000 		.4byte	0
 3865 005c 00000000 		.4byte	0
 3866 0060 14000000 		.4byte	.LBB141
 3867 0064 16000000 		.4byte	.LBE141
 3868 0068 1A000000 		.4byte	.LBB146
 3869 006c 2E000000 		.4byte	.LBE146
 3870 0070 30000000 		.4byte	.LBB147
 3871 0074 32000000 		.4byte	.LBE147
 3872 0078 34000000 		.4byte	.LBB148
 3873 007c 36000000 		.4byte	.LBE148
 3874 0080 00000000 		.4byte	0
 3875 0084 00000000 		.4byte	0
 3876 0088 00000000 		.4byte	.LFB219
ARM GAS  /tmp/cc6dSZm1.s 			page 69


 3877 008c 06000000 		.4byte	.LFE219
 3878 0090 00000000 		.4byte	.LFB220
 3879 0094 22000000 		.4byte	.LFE220
 3880 0098 00000000 		.4byte	.LFB221
 3881 009c 18000000 		.4byte	.LFE221
 3882 00a0 00000000 		.4byte	.LFB223
 3883 00a4 22000000 		.4byte	.LFE223
 3884 00a8 00000000 		.4byte	.LFB222
 3885 00ac 10000000 		.4byte	.LFE222
 3886 00b0 00000000 		.4byte	.LFB225
 3887 00b4 44000000 		.4byte	.LFE225
 3888 00b8 00000000 		.4byte	.LFB224
 3889 00bc 0C000000 		.4byte	.LFE224
 3890 00c0 00000000 		.4byte	.LFB227
 3891 00c4 50000000 		.4byte	.LFE227
 3892 00c8 00000000 		.4byte	.LFB226
 3893 00cc 0C000000 		.4byte	.LFE226
 3894 00d0 00000000 		.4byte	0
 3895 00d4 00000000 		.4byte	0
 3896              		.section	.debug_line,"",%progbits
 3897              	.Ldebug_line0:
 3898 0000 B7030000 		.section	.debug_str,"MS",%progbits,1
 3898      0200D301 
 3898      00000201 
 3898      FB0E0D00 
 3898      01010101 
 3899              	.LASF20:
 3900 0000 74726566 		.ascii	"trefs_t\000"
 3900      735F7400 
 3901              	.LASF53:
 3902 0008 72656164 		.ascii	"ready_list_t\000"
 3902      795F6C69 
 3902      73745F74 
 3902      00
 3903              	.LASF91:
 3904 0015 77747472 		.ascii	"wttrp\000"
 3904      7000
 3905              	.LASF88:
 3906 001b 7264796D 		.ascii	"rdymsg\000"
 3906      736700
 3907              	.LASF16:
 3908 0022 75696E74 		.ascii	"uint64_t\000"
 3908      36345F74 
 3908      00
 3909              	.LASF5:
 3910 002b 5F5F7569 		.ascii	"__uint8_t\000"
 3910      6E74385F 
 3910      7400
 3911              	.LASF85:
 3912 0035 706F7274 		.ascii	"port_intctx\000"
 3912      5F696E74 
 3912      63747800 
 3913              	.LASF72:
 3914 0041 73797374 		.ascii	"system_debug_t\000"
 3914      656D5F64 
 3914      65627567 
 3914      5F7400
ARM GAS  /tmp/cc6dSZm1.s 			page 70


 3915              	.LASF115:
 3916 0050 71756575 		.ascii	"queue_init\000"
 3916      655F696E 
 3916      697400
 3917              	.LASF109:
 3918 005b 706F7274 		.ascii	"port_lock\000"
 3918      5F6C6F63 
 3918      6B00
 3919              	.LASF125:
 3920 0065 6368436F 		.ascii	"chCondBroadcast\000"
 3920      6E644272 
 3920      6F616463 
 3920      61737400 
 3921              	.LASF124:
 3922 0075 6368436F 		.ascii	"chCondBroadcastI\000"
 3922      6E644272 
 3922      6F616463 
 3922      61737449 
 3922      00
 3923              	.LASF12:
 3924 0086 6C6F6E67 		.ascii	"long long unsigned int\000"
 3924      206C6F6E 
 3924      6720756E 
 3924      7369676E 
 3924      65642069 
 3925              	.LASF89:
 3926 009d 65786974 		.ascii	"exitcode\000"
 3926      636F6465 
 3926      00
 3927              	.LASF79:
 3928 00a6 6D61696E 		.ascii	"mainthread\000"
 3928      74687265 
 3928      616400
 3929              	.LASF69:
 3930 00b1 76697274 		.ascii	"virtual_timers_list_t\000"
 3930      75616C5F 
 3930      74696D65 
 3930      72735F6C 
 3930      6973745F 
 3931              	.LASF131:
 3932 00c7 49544D5F 		.ascii	"ITM_RxBuffer\000"
 3932      52784275 
 3932      66666572 
 3932      00
 3933              	.LASF138:
 3934 00d4 43686962 		.ascii	"ChibiOS_3.0.2/os/rt/src/chcond.c\000"
 3934      694F535F 
 3934      332E302E 
 3934      322F6F73 
 3934      2F72742F 
 3935              	.LASF52:
 3936 00f5 63685F74 		.ascii	"ch_threads_queue\000"
 3936      68726561 
 3936      64735F71 
 3936      75657565 
 3936      00
 3937              	.LASF30:
ARM GAS  /tmp/cc6dSZm1.s 			page 71


 3938 0106 705F7072 		.ascii	"p_prio\000"
 3938      696F00
 3939              	.LASF10:
 3940 010d 6C6F6E67 		.ascii	"long long int\000"
 3940      206C6F6E 
 3940      6720696E 
 3940      7400
 3941              	.LASF1:
 3942 011b 7369676E 		.ascii	"signed char\000"
 3942      65642063 
 3942      68617200 
 3943              	.LASF106:
 3944 0127 636F6E64 		.ascii	"condition_variable_t\000"
 3944      6974696F 
 3944      6E5F7661 
 3944      72696162 
 3944      6C655F74 
 3945              	.LASF46:
 3946 013c 705F6D70 		.ascii	"p_mpool\000"
 3946      6F6F6C00 
 3947              	.LASF99:
 3948 0144 6D5F7175 		.ascii	"m_queue\000"
 3948      65756500 
 3949              	.LASF78:
 3950 014c 76746C69 		.ascii	"vtlist\000"
 3950      737400
 3951              	.LASF110:
 3952 0153 706F7274 		.ascii	"port_unlock\000"
 3952      5F756E6C 
 3952      6F636B00 
 3953              	.LASF21:
 3954 015f 74736C69 		.ascii	"tslices_t\000"
 3954      6365735F 
 3954      7400
 3955              	.LASF76:
 3956 0169 63685F73 		.ascii	"ch_system\000"
 3956      79737465 
 3956      6D00
 3957              	.LASF7:
 3958 0173 6C6F6E67 		.ascii	"long int\000"
 3958      20696E74 
 3958      00
 3959              	.LASF19:
 3960 017c 74737461 		.ascii	"tstate_t\000"
 3960      74655F74 
 3960      00
 3961              	.LASF113:
 3962 0185 71756575 		.ascii	"queue_notempty\000"
 3962      655F6E6F 
 3962      74656D70 
 3962      747900
 3963              	.LASF32:
 3964 0194 705F6E65 		.ascii	"p_newer\000"
 3964      77657200 
 3965              	.LASF96:
 3966 019c 735F7175 		.ascii	"s_queue\000"
 3966      65756500 
ARM GAS  /tmp/cc6dSZm1.s 			page 72


 3967              	.LASF141:
 3968 01a4 63685363 		.ascii	"chSchRescheduleS\000"
 3968      68526573 
 3968      63686564 
 3968      756C6553 
 3968      00
 3969              	.LASF58:
 3970 01b5 725F6E65 		.ascii	"r_newer\000"
 3970      77657200 
 3971              	.LASF82:
 3972 01bd 72656761 		.ascii	"regarm_t\000"
 3972      726D5F74 
 3972      00
 3973              	.LASF65:
 3974 01c6 76745F70 		.ascii	"vt_prev\000"
 3974      72657600 
 3975              	.LASF73:
 3976 01ce 63685F73 		.ascii	"ch_system_debug\000"
 3976      79737465 
 3976      6D5F6465 
 3976      62756700 
 3977              	.LASF103:
 3978 01de 6D757465 		.ascii	"mutex_t\000"
 3978      785F7400 
 3979              	.LASF122:
 3980 01e6 6368436F 		.ascii	"chCondSignal\000"
 3980      6E645369 
 3980      676E616C 
 3980      00
 3981              	.LASF80:
 3982 01f3 69646C65 		.ascii	"idle_thread_wa\000"
 3982      5F746872 
 3982      6561645F 
 3982      776100
 3983              	.LASF25:
 3984 0202 636E745F 		.ascii	"cnt_t\000"
 3984      7400
 3985              	.LASF133:
 3986 0208 63684D74 		.ascii	"chMtxUnlockS\000"
 3986      78556E6C 
 3986      6F636B53 
 3986      00
 3987              	.LASF0:
 3988 0215 756E7369 		.ascii	"unsigned int\000"
 3988      676E6564 
 3988      20696E74 
 3988      00
 3989              	.LASF64:
 3990 0222 76745F6E 		.ascii	"vt_next\000"
 3990      65787400 
 3991              	.LASF39:
 3992 022a 705F7469 		.ascii	"p_time\000"
 3992      6D6500
 3993              	.LASF92:
 3994 0231 77747365 		.ascii	"wtsemp\000"
 3994      6D7000
 3995              	.LASF66:
ARM GAS  /tmp/cc6dSZm1.s 			page 73


 3996 0238 76745F64 		.ascii	"vt_delta\000"
 3996      656C7461 
 3996      00
 3997              	.LASF41:
 3998 0241 705F6D73 		.ascii	"p_msgqueue\000"
 3998      67717565 
 3998      756500
 3999              	.LASF97:
 4000 024c 735F636E 		.ascii	"s_cnt\000"
 4000      7400
 4001              	.LASF4:
 4002 0252 73686F72 		.ascii	"short unsigned int\000"
 4002      7420756E 
 4002      7369676E 
 4002      65642069 
 4002      6E7400
 4003              	.LASF49:
 4004 0265 63685F74 		.ascii	"ch_thread\000"
 4004      68726561 
 4004      6400
 4005              	.LASF132:
 4006 026f 63685363 		.ascii	"chSchWakeupS\000"
 4006      6857616B 
 4006      65757053 
 4006      00
 4007              	.LASF23:
 4008 027c 6D73675F 		.ascii	"msg_t\000"
 4008      7400
 4009              	.LASF75:
 4010 0282 63685F73 		.ascii	"ch_system_t\000"
 4010      79737465 
 4010      6D5F7400 
 4011              	.LASF18:
 4012 028e 746D6F64 		.ascii	"tmode_t\000"
 4012      655F7400 
 4013              	.LASF54:
 4014 0296 63685F72 		.ascii	"ch_ready_list\000"
 4014      65616479 
 4014      5F6C6973 
 4014      7400
 4015              	.LASF24:
 4016 02a4 6576656E 		.ascii	"eventmask_t\000"
 4016      746D6173 
 4016      6B5F7400 
 4017              	.LASF6:
 4018 02b0 5F5F696E 		.ascii	"__int32_t\000"
 4018      7433325F 
 4018      7400
 4019              	.LASF83:
 4020 02ba 73746B61 		.ascii	"stkalign_t\000"
 4020      6C69676E 
 4020      5F7400
 4021              	.LASF48:
 4022 02c5 74687265 		.ascii	"threads_list_t\000"
 4022      6164735F 
 4022      6C697374 
 4022      5F7400
ARM GAS  /tmp/cc6dSZm1.s 			page 74


 4023              	.LASF40:
 4024 02d4 705F7761 		.ascii	"p_waiting\000"
 4024      6974696E 
 4024      6700
 4025              	.LASF81:
 4026 02de 73697A65 		.ascii	"sizetype\000"
 4026      74797065 
 4026      00
 4027              	.LASF47:
 4028 02e7 74687265 		.ascii	"thread_reference_t\000"
 4028      61645F72 
 4028      65666572 
 4028      656E6365 
 4028      5F7400
 4029              	.LASF70:
 4030 02fa 63685F76 		.ascii	"ch_virtual_timers_list\000"
 4030      69727475 
 4030      616C5F74 
 4030      696D6572 
 4030      735F6C69 
 4031              	.LASF104:
 4032 0311 636F6E64 		.ascii	"condition_variable\000"
 4032      6974696F 
 4032      6E5F7661 
 4032      72696162 
 4032      6C6500
 4033              	.LASF128:
 4034 0324 6368436F 		.ascii	"chCondWaitTimeoutS\000"
 4034      6E645761 
 4034      69745469 
 4034      6D656F75 
 4034      745300
 4035              	.LASF33:
 4036 0337 705F6F6C 		.ascii	"p_older\000"
 4036      64657200 
 4037              	.LASF57:
 4038 033f 725F6374 		.ascii	"r_ctx\000"
 4038      7800
 4039              	.LASF87:
 4040 0345 746D5F63 		.ascii	"tm_calibration_t\000"
 4040      616C6962 
 4040      72617469 
 4040      6F6E5F74 
 4040      00
 4041              	.LASF101:
 4042 0356 6D5F6E65 		.ascii	"m_next\000"
 4042      787400
 4043              	.LASF129:
 4044 035d 74696D65 		.ascii	"time\000"
 4044      00
 4045              	.LASF60:
 4046 0362 725F6375 		.ascii	"r_current\000"
 4046      7272656E 
 4046      7400
 4047              	.LASF59:
 4048 036c 725F6F6C 		.ascii	"r_older\000"
 4048      64657200 
ARM GAS  /tmp/cc6dSZm1.s 			page 75


 4049              	.LASF108:
 4050 0374 5F5F656E 		.ascii	"__enable_irq\000"
 4050      61626C65 
 4050      5F697271 
 4050      00
 4051              	.LASF11:
 4052 0381 5F5F7569 		.ascii	"__uint64_t\000"
 4052      6E743634 
 4052      5F7400
 4053              	.LASF107:
 4054 038c 5F5F6469 		.ascii	"__disable_irq\000"
 4054      7361626C 
 4054      655F6972 
 4054      7100
 4055              	.LASF62:
 4056 039a 76697274 		.ascii	"virtual_timer_t\000"
 4056      75616C5F 
 4056      74696D65 
 4056      725F7400 
 4057              	.LASF29:
 4058 03aa 705F7072 		.ascii	"p_prev\000"
 4058      657600
 4059              	.LASF22:
 4060 03b1 74707269 		.ascii	"tprio_t\000"
 4060      6F5F7400 
 4061              	.LASF139:
 4062 03b9 2F686F6D 		.ascii	"/home/benjamin/Skrivbord/SP-RCCar/Embedded/Mote/\000"
 4062      652F6265 
 4062      6E6A616D 
 4062      696E2F53 
 4062      6B726976 
 4063              	.LASF123:
 4064 03ea 6368436F 		.ascii	"chCondSignalI\000"
 4064      6E645369 
 4064      676E616C 
 4064      4900
 4065              	.LASF112:
 4066 03f8 5F426F6F 		.ascii	"_Bool\000"
 4066      6C00
 4067              	.LASF14:
 4068 03fe 696E7433 		.ascii	"int32_t\000"
 4068      325F7400 
 4069              	.LASF2:
 4070 0406 756E7369 		.ascii	"unsigned char\000"
 4070      676E6564 
 4070      20636861 
 4070      7200
 4071              	.LASF44:
 4072 0414 705F6D74 		.ascii	"p_mtxlist\000"
 4072      786C6973 
 4072      7400
 4073              	.LASF3:
 4074 041e 73686F72 		.ascii	"short int\000"
 4074      7420696E 
 4074      7400
 4075              	.LASF35:
 4076 0428 705F7374 		.ascii	"p_state\000"
ARM GAS  /tmp/cc6dSZm1.s 			page 76


 4076      61746500 
 4077              	.LASF38:
 4078 0430 705F7072 		.ascii	"p_preempt\000"
 4078      65656D70 
 4078      7400
 4079              	.LASF56:
 4080 043a 725F7072 		.ascii	"r_prio\000"
 4080      696F00
 4081              	.LASF94:
 4082 0441 65776D61 		.ascii	"ewmask\000"
 4082      736B00
 4083              	.LASF28:
 4084 0448 705F6E65 		.ascii	"p_next\000"
 4084      787400
 4085              	.LASF36:
 4086 044f 705F666C 		.ascii	"p_flags\000"
 4086      61677300 
 4087              	.LASF117:
 4088 0457 5F5F6675 		.ascii	"__func__\000"
 4088      6E635F5F 
 4088      00
 4089              	.LASF111:
 4090 0460 63685379 		.ascii	"chSysLock\000"
 4090      734C6F63 
 4090      6B00
 4091              	.LASF63:
 4092 046a 63685F76 		.ascii	"ch_virtual_timer\000"
 4092      69727475 
 4092      616C5F74 
 4092      696D6572 
 4092      00
 4093              	.LASF105:
 4094 047b 635F7175 		.ascii	"c_queue\000"
 4094      65756500 
 4095              	.LASF95:
 4096 0483 63685F73 		.ascii	"ch_semaphore\000"
 4096      656D6170 
 4096      686F7265 
 4096      00
 4097              	.LASF134:
 4098 0490 63685363 		.ascii	"chSchGoSleepS\000"
 4098      68476F53 
 4098      6C656570 
 4098      5300
 4099              	.LASF43:
 4100 049e 705F6570 		.ascii	"p_epending\000"
 4100      656E6469 
 4100      6E6700
 4101              	.LASF119:
 4102 04a9 63684D74 		.ascii	"chMtxGetNextMutexS\000"
 4102      78476574 
 4102      4E657874 
 4102      4D757465 
 4102      785300
 4103              	.LASF15:
 4104 04bc 75696E74 		.ascii	"uint32_t\000"
 4104      33325F74 
ARM GAS  /tmp/cc6dSZm1.s 			page 77


 4104      00
 4105              	.LASF93:
 4106 04c5 77746D74 		.ascii	"wtmtxp\000"
 4106      787000
 4107              	.LASF55:
 4108 04cc 725F7175 		.ascii	"r_queue\000"
 4108      65756500 
 4109              	.LASF140:
 4110 04d4 63685363 		.ascii	"chSchReadyI\000"
 4110      68526561 
 4110      64794900 
 4111              	.LASF50:
 4112 04e0 63685F74 		.ascii	"ch_threads_list\000"
 4112      68726561 
 4112      64735F6C 
 4112      69737400 
 4113              	.LASF9:
 4114 04f0 6C6F6E67 		.ascii	"long unsigned int\000"
 4114      20756E73 
 4114      69676E65 
 4114      6420696E 
 4114      7400
 4115              	.LASF102:
 4116 0502 63686172 		.ascii	"char\000"
 4116      00
 4117              	.LASF126:
 4118 0507 6368436F 		.ascii	"chCondWaitS\000"
 4118      6E645761 
 4118      69745300 
 4119              	.LASF121:
 4120 0513 6368436F 		.ascii	"chCondObjectInit\000"
 4120      6E644F62 
 4120      6A656374 
 4120      496E6974 
 4120      00
 4121              	.LASF114:
 4122 0524 71756575 		.ascii	"queue_fifo_remove\000"
 4122      655F6669 
 4122      666F5F72 
 4122      656D6F76 
 4122      6500
 4123              	.LASF26:
 4124 0536 73797374 		.ascii	"systime_t\000"
 4124      696D655F 
 4124      7400
 4125              	.LASF45:
 4126 0540 705F7265 		.ascii	"p_realprio\000"
 4126      616C7072 
 4126      696F00
 4127              	.LASF61:
 4128 054b 76746675 		.ascii	"vtfunc_t\000"
 4128      6E635F74 
 4128      00
 4129              	.LASF8:
 4130 0554 5F5F7569 		.ascii	"__uint32_t\000"
 4130      6E743332 
 4130      5F7400
ARM GAS  /tmp/cc6dSZm1.s 			page 78


 4131              	.LASF74:
 4132 055f 70616E69 		.ascii	"panic_msg\000"
 4132      635F6D73 
 4132      6700
 4133              	.LASF86:
 4134 0569 6F666673 		.ascii	"offset\000"
 4134      657400
 4135              	.LASF84:
 4136 0570 636F6E74 		.ascii	"context\000"
 4136      65787400 
 4137              	.LASF17:
 4138 0578 7274636E 		.ascii	"rtcnt_t\000"
 4138      745F7400 
 4139              	.LASF127:
 4140 0580 6368436F 		.ascii	"chCondWait\000"
 4140      6E645761 
 4140      697400
 4141              	.LASF68:
 4142 058b 76745F70 		.ascii	"vt_par\000"
 4142      617200
 4143              	.LASF51:
 4144 0592 74687265 		.ascii	"threads_queue_t\000"
 4144      6164735F 
 4144      71756575 
 4144      655F7400 
 4145              	.LASF98:
 4146 05a2 63685F6D 		.ascii	"ch_mutex\000"
 4146      75746578 
 4146      00
 4147              	.LASF37:
 4148 05ab 705F7265 		.ascii	"p_refs\000"
 4148      667300
 4149              	.LASF27:
 4150 05b2 74687265 		.ascii	"thread_t\000"
 4150      61645F74 
 4150      00
 4151              	.LASF77:
 4152 05bb 726C6973 		.ascii	"rlist\000"
 4152      7400
 4153              	.LASF118:
 4154 05c1 63685468 		.ascii	"chThdGetSelfX\000"
 4154      64476574 
 4154      53656C66 
 4154      5800
 4155              	.LASF13:
 4156 05cf 75696E74 		.ascii	"uint8_t\000"
 4156      385F7400 
 4157              	.LASF137:
 4158 05d7 474E5520 		.ascii	"GNU C 4.9.3 20150529 (release) [ARM/embedded-4_9-br"
 4158      4320342E 
 4158      392E3320 
 4158      32303135 
 4158      30353239 
 4159 060a 616E6368 		.ascii	"anch revision 227977] -mcpu=cortex-m4 -mfloat-abi=h"
 4159      20726576 
 4159      6973696F 
 4159      6E203232 
ARM GAS  /tmp/cc6dSZm1.s 			page 79


 4159      37393737 
 4160 063d 61726420 		.ascii	"ard -mfpu=fpv4-sp-d16 -mno-thumb-interwork -mthumb "
 4160      2D6D6670 
 4160      753D6670 
 4160      76342D73 
 4160      702D6431 
 4161 0670 2D676764 		.ascii	"-ggdb -O2 -std=gnu99 -fomit-frame-pointer -falign-f"
 4161      62202D4F 
 4161      32202D73 
 4161      74643D67 
 4161      6E753939 
 4162 06a3 756E6374 		.ascii	"unctions=16 -ffunction-sections -fdata-sections -fn"
 4162      696F6E73 
 4162      3D313620 
 4162      2D666675 
 4162      6E637469 
 4163 06d6 6F2D636F 		.ascii	"o-common -fsingle-precision-constant\000"
 4163      6D6D6F6E 
 4163      202D6673 
 4163      696E676C 
 4163      652D7072 
 4164              	.LASF90:
 4165 06fb 77746F62 		.ascii	"wtobjp\000"
 4165      6A7000
 4166              	.LASF34:
 4167 0702 705F6E61 		.ascii	"p_name\000"
 4167      6D6500
 4168              	.LASF130:
 4169 0709 6368436F 		.ascii	"chCondWaitTimeout\000"
 4169      6E645761 
 4169      69745469 
 4169      6D656F75 
 4169      7400
 4170              	.LASF71:
 4171 071b 76745F73 		.ascii	"vt_systime\000"
 4171      79737469 
 4171      6D6500
 4172              	.LASF136:
 4173 0726 63685363 		.ascii	"chSchGoSleepTimeoutS\000"
 4173      68476F53 
 4173      6C656570 
 4173      54696D65 
 4173      6F757453 
 4174              	.LASF116:
 4175 073b 63685379 		.ascii	"chSysUnlock\000"
 4175      73556E6C 
 4175      6F636B00 
 4176              	.LASF42:
 4177 0747 705F6D73 		.ascii	"p_msg\000"
 4177      6700
 4178              	.LASF135:
 4179 074d 63684D74 		.ascii	"chMtxLockS\000"
 4179      784C6F63 
 4179      6B5300
 4180              	.LASF120:
 4181 0758 71756575 		.ascii	"queue_prio_insert\000"
 4181      655F7072 
ARM GAS  /tmp/cc6dSZm1.s 			page 80


 4181      696F5F69 
 4181      6E736572 
 4181      7400
 4182              	.LASF100:
 4183 076a 6D5F6F77 		.ascii	"m_owner\000"
 4183      6E657200 
 4184              	.LASF31:
 4185 0772 705F6374 		.ascii	"p_ctx\000"
 4185      7800
 4186              	.LASF67:
 4187 0778 76745F66 		.ascii	"vt_func\000"
 4187      756E6300 
 4188              		.ident	"GCC: (GNU Tools for ARM Embedded Processors) 4.9.3 20150529 (release) [ARM/embedded-4_9-br
ARM GAS  /tmp/cc6dSZm1.s 			page 81


DEFINED SYMBOLS
                            *ABS*:0000000000000000 chcond.c
     /tmp/cc6dSZm1.s:21     .text.chCondObjectInit:0000000000000000 $t
     /tmp/cc6dSZm1.s:27     .text.chCondObjectInit:0000000000000000 chCondObjectInit
     /tmp/cc6dSZm1.s:50     .text.chCondSignal:0000000000000000 $t
     /tmp/cc6dSZm1.s:56     .text.chCondSignal:0000000000000000 chCondSignal
     /tmp/cc6dSZm1.s:144    .text.chCondSignalI:0000000000000000 $t
     /tmp/cc6dSZm1.s:150    .text.chCondSignalI:0000000000000000 chCondSignalI
     /tmp/cc6dSZm1.s:199    .text.chCondBroadcastI:0000000000000000 $t
     /tmp/cc6dSZm1.s:205    .text.chCondBroadcastI:0000000000000000 chCondBroadcastI
     /tmp/cc6dSZm1.s:264    .text.chCondBroadcast:0000000000000000 $t
     /tmp/cc6dSZm1.s:270    .text.chCondBroadcast:0000000000000000 chCondBroadcast
     /tmp/cc6dSZm1.s:320    .text.chCondWaitS:0000000000000000 $t
     /tmp/cc6dSZm1.s:326    .text.chCondWaitS:0000000000000000 chCondWaitS
     /tmp/cc6dSZm1.s:416    .text.chCondWaitS:0000000000000040 $d
     /tmp/cc6dSZm1.s:421    .text.chCondWait:0000000000000000 $t
     /tmp/cc6dSZm1.s:427    .text.chCondWait:0000000000000000 chCondWait
     /tmp/cc6dSZm1.s:475    .text.chCondWaitTimeoutS:0000000000000000 $t
     /tmp/cc6dSZm1.s:481    .text.chCondWaitTimeoutS:0000000000000000 chCondWaitTimeoutS
     /tmp/cc6dSZm1.s:595    .text.chCondWaitTimeoutS:000000000000004c $d
     /tmp/cc6dSZm1.s:600    .text.chCondWaitTimeout:0000000000000000 $t
     /tmp/cc6dSZm1.s:606    .text.chCondWaitTimeout:0000000000000000 chCondWaitTimeout
                     .debug_frame:0000000000000010 $d

UNDEFINED SYMBOLS
chSchWakeupS
chSchReadyI
chSchRescheduleS
chMtxUnlockS
chSchGoSleepS
chMtxLockS
ch
chSchGoSleepTimeoutS
