ARM GAS  /tmp/cc6dSZm1.s 			page 1


   1              		.syntax unified
   2              		.cpu cortex-m4
   3              		.eabi_attribute 27, 1
   4              		.eabi_attribute 28, 1
   5              		.fpu fpv4-sp-d16
   6              		.eabi_attribute 20, 1
   7              		.eabi_attribute 21, 1
   8              		.eabi_attribute 23, 3
   9              		.eabi_attribute 24, 1
  10              		.eabi_attribute 25, 1
  11              		.eabi_attribute 26, 1
  12              		.eabi_attribute 30, 2
  13              		.eabi_attribute 34, 1
  14              		.eabi_attribute 18, 4
  15              		.thumb
  16              		.file	"chcond.c"
  17              		.text
  18              	.Ltext0:
  19              		.cfi_sections	.debug_frame
  20              		.section	.text.chCondObjectInit,"ax",%progbits
  21              		.align	2
  22              		.p2align 4,,15
  23              		.global	chCondObjectInit
  24              		.thumb
  25              		.thumb_func
  26              		.type	chCondObjectInit, %function
  27              	chCondObjectInit:
  28              	.LFB219:
  29              		.file 1 "ChibiOS_3.0.2/os/rt/src/chcond.c"
  30              		.loc 1 75 0
  31              		.cfi_startproc
  32              		@ args = 0, pretend = 0, frame = 0
  33              		@ frame_needed = 0, uses_anonymous_args = 0
  34              		@ link register save eliminated.
  35              	.LVL0:
  36              	.LBB83:
  37              	.LBB84:
  38              		.file 2 "ChibiOS_3.0.2/os/rt/include/chschd.h"
  39              		.loc 2 604 0
  40 0000 0060     		str	r0, [r0]
  41              		.loc 2 605 0
  42 0002 4060     		str	r0, [r0, #4]
  43 0004 7047     		bx	lr
  44              	.LBE84:
  45              	.LBE83:
  46              		.cfi_endproc
  47              	.LFE219:
  48              		.size	chCondObjectInit, .-chCondObjectInit
  49 0006 00BF     		.section	.text.chCondSignal,"ax",%progbits
  50              		.align	2
  51              		.p2align 4,,15
  52              		.global	chCondSignal
  53              		.thumb
  54              		.thumb_func
  55              		.type	chCondSignal, %function
  56              	chCondSignal:
  57              	.LFB220:
ARM GAS  /tmp/cc6dSZm1.s 			page 2


  58              		.loc 1 89 0
  59              		.cfi_startproc
  60              		@ args = 0, pretend = 0, frame = 0
  61              		@ frame_needed = 0, uses_anonymous_args = 0
  62              	.LVL1:
  63              	.LBB85:
  64              	.LBB86:
  65              	.LBB87:
  66              	.LBB88:
  67              		.file 3 "ChibiOS_3.0.2/os/ext/CMSIS/include/core_cmFunc.h"
  68              		.loc 3 342 0
  69              	@ 342 "ChibiOS_3.0.2/os/ext/CMSIS/include/core_cmFunc.h" 1
  70 0000 72B6     		cpsid i
  71              	@ 0 "" 2
  72              	.LVL2:
  73              		.thumb
  74              	.LBE88:
  75              	.LBE87:
  76              	.LBE86:
  77              	.LBE85:
  78              	.LBB89:
  79              	.LBB90:
  80              		.loc 2 631 0
  81 0002 0268     		ldr	r2, [r0]
  82              	.LBE90:
  83              	.LBE89:
  84              		.loc 1 94 0
  85 0004 8242     		cmp	r2, r0
  86 0006 0AD0     		beq	.L5
  87              	.LBB91:
  88              	.LBB92:
  89              		.loc 2 674 0
  90 0008 1168     		ldr	r1, [r2]
  91              	.LBE92:
  92              	.LBE91:
  93              		.loc 1 89 0
  94 000a 08B5     		push	{r3, lr}
  95              		.cfi_def_cfa_offset 8
  96              		.cfi_offset 3, -8
  97              		.cfi_offset 14, -4
  98 000c 0346     		mov	r3, r0
  99              	.LVL3:
 100              	.LBB94:
 101              	.LBB93:
 102              		.loc 2 674 0
 103 000e 0160     		str	r1, [r0]
 104              		.loc 2 675 0
 105 0010 4B60     		str	r3, [r1, #4]
 106              	.LBE93:
 107              	.LBE94:
 108              		.loc 1 95 0
 109 0012 1046     		mov	r0, r2
 110              	.LVL4:
 111 0014 0021     		movs	r1, #0
 112 0016 FFF7FEFF 		bl	chSchWakeupS
 113              	.LVL5:
 114              	.LBB95:
ARM GAS  /tmp/cc6dSZm1.s 			page 3


 115              	.LBB96:
 116              	.LBB97:
 117              	.LBB98:
 118              	.LBB99:
 119              		.loc 3 331 0
 120              	@ 331 "ChibiOS_3.0.2/os/ext/CMSIS/include/core_cmFunc.h" 1
 121 001a 62B6     		cpsie i
 122              	@ 0 "" 2
 123              		.thumb
 124 001c 08BD     		pop	{r3, pc}
 125              	.LVL6:
 126              	.L5:
 127              		.cfi_def_cfa_offset 0
 128              		.cfi_restore 3
 129              		.cfi_restore 14
 130              	@ 331 "ChibiOS_3.0.2/os/ext/CMSIS/include/core_cmFunc.h" 1
 131 001e 62B6     		cpsie i
 132              	@ 0 "" 2
 133              		.thumb
 134 0020 7047     		bx	lr
 135              	.LBE99:
 136              	.LBE98:
 137              	.LBE97:
 138              	.LBE96:
 139              	.LBE95:
 140              		.cfi_endproc
 141              	.LFE220:
 142              		.size	chCondSignal, .-chCondSignal
 143 0022 00BF     		.section	.text.chCondSignalI,"ax",%progbits
 144              		.align	2
 145              		.p2align 4,,15
 146              		.global	chCondSignalI
 147              		.thumb
 148              		.thumb_func
 149              		.type	chCondSignalI, %function
 150              	chCondSignalI:
 151              	.LFB221:
 152              		.loc 1 111 0
 153              		.cfi_startproc
 154              		@ args = 0, pretend = 0, frame = 0
 155              		@ frame_needed = 0, uses_anonymous_args = 0
 156              		@ link register save eliminated.
 157              	.LVL7:
 158              	.LBB100:
 159              	.LBB101:
 160              		.loc 2 631 0
 161 0000 0368     		ldr	r3, [r0]
 162              	.LBE101:
 163              	.LBE100:
 164              		.loc 1 116 0
 165 0002 9842     		cmp	r0, r3
 166 0004 07D0     		beq	.L7
 167              	.LVL8:
 168              	.LBB102:
 169              	.LBB103:
 170              	.LBB104:
 171              		.loc 2 674 0
ARM GAS  /tmp/cc6dSZm1.s 			page 4


 172 0006 1A68     		ldr	r2, [r3]
 173 0008 0260     		str	r2, [r0]
 174              	.LBE104:
 175              	.LBE103:
 176              		.loc 1 118 0
 177 000a 0021     		movs	r1, #0
 178              	.LBB106:
 179              	.LBB105:
 180              		.loc 2 675 0
 181 000c 5060     		str	r0, [r2, #4]
 182              	.LBE105:
 183              	.LBE106:
 184              		.loc 1 119 0
 185 000e 1846     		mov	r0, r3
 186              	.LVL9:
 187              		.loc 1 118 0
 188 0010 5962     		str	r1, [r3, #36]
 189              		.loc 1 119 0
 190 0012 FFF7FEBF 		b	chSchReadyI
 191              	.LVL10:
 192              	.L7:
 193 0016 7047     		bx	lr
 194              	.LBE102:
 195              		.cfi_endproc
 196              	.LFE221:
 197              		.size	chCondSignalI, .-chCondSignalI
 198              		.section	.text.chCondBroadcastI,"ax",%progbits
 199              		.align	2
 200              		.p2align 4,,15
 201              		.global	chCondBroadcastI
 202              		.thumb
 203              		.thumb_func
 204              		.type	chCondBroadcastI, %function
 205              	chCondBroadcastI:
 206              	.LFB223:
 207              		.loc 1 149 0
 208              		.cfi_startproc
 209              		@ args = 0, pretend = 0, frame = 0
 210              		@ frame_needed = 0, uses_anonymous_args = 0
 211              	.LVL11:
 212 0000 38B5     		push	{r3, r4, r5, lr}
 213              		.cfi_def_cfa_offset 16
 214              		.cfi_offset 3, -16
 215              		.cfi_offset 4, -12
 216              		.cfi_offset 5, -8
 217              		.cfi_offset 14, -4
 218              		.loc 1 149 0
 219 0002 0446     		mov	r4, r0
 220              	.LVL12:
 221              	.LBB107:
 222              	.LBB108:
 223              		.loc 2 631 0
 224 0004 0068     		ldr	r0, [r0]
 225              	.LVL13:
 226              	.LBE108:
 227              	.LBE107:
 228              		.loc 1 157 0
ARM GAS  /tmp/cc6dSZm1.s 			page 5


 229 0006 8442     		cmp	r4, r0
 230 0008 0AD0     		beq	.L9
 231              		.loc 1 158 0
 232 000a 6FF00105 		mvn	r5, #1
 233              	.L11:
 234              	.LVL14:
 235              	.LBB110:
 236              	.LBB111:
 237              		.loc 2 674 0
 238 000e 0368     		ldr	r3, [r0]
 239 0010 2360     		str	r3, [r4]
 240              		.loc 2 675 0
 241 0012 5C60     		str	r4, [r3, #4]
 242              	.LBE111:
 243              	.LBE110:
 244              		.loc 1 158 0
 245 0014 FFF7FEFF 		bl	chSchReadyI
 246              	.LVL15:
 247 0018 4562     		str	r5, [r0, #36]
 248              	.LBB112:
 249              	.LBB109:
 250              		.loc 2 631 0
 251 001a 2068     		ldr	r0, [r4]
 252              	.LBE109:
 253              	.LBE112:
 254              		.loc 1 157 0
 255 001c A042     		cmp	r0, r4
 256 001e F6D1     		bne	.L11
 257              	.LVL16:
 258              	.L9:
 259 0020 38BD     		pop	{r3, r4, r5, pc}
 260              		.cfi_endproc
 261              	.LFE223:
 262              		.size	chCondBroadcastI, .-chCondBroadcastI
 263 0022 00BF     		.section	.text.chCondBroadcast,"ax",%progbits
 264              		.align	2
 265              		.p2align 4,,15
 266              		.global	chCondBroadcast
 267              		.thumb
 268              		.thumb_func
 269              		.type	chCondBroadcast, %function
 270              	chCondBroadcast:
 271              	.LFB222:
 272              		.loc 1 130 0
 273              		.cfi_startproc
 274              		@ args = 0, pretend = 0, frame = 0
 275              		@ frame_needed = 0, uses_anonymous_args = 0
 276              	.LVL17:
 277 0000 08B5     		push	{r3, lr}
 278              		.cfi_def_cfa_offset 8
 279              		.cfi_offset 3, -8
 280              		.cfi_offset 14, -4
 281              	.LBB113:
 282              	.LBB114:
 283              	.LBB115:
 284              	.LBB116:
 285              		.loc 3 342 0
ARM GAS  /tmp/cc6dSZm1.s 			page 6


 286              	@ 342 "ChibiOS_3.0.2/os/ext/CMSIS/include/core_cmFunc.h" 1
 287 0002 72B6     		cpsid i
 288              	@ 0 "" 2
 289              		.thumb
 290              	.LBE116:
 291              	.LBE115:
 292              	.LBE114:
 293              	.LBE113:
 294              		.loc 1 133 0
 295 0004 FFF7FEFF 		bl	chCondBroadcastI
 296              	.LVL18:
 297              		.loc 1 134 0
 298 0008 FFF7FEFF 		bl	chSchRescheduleS
 299              	.LVL19:
 300              	.LBB117:
 301              	.LBB118:
 302              	.LBB119:
 303              	.LBB120:
 304              	.LBB121:
 305              		.loc 3 331 0
 306              	@ 331 "ChibiOS_3.0.2/os/ext/CMSIS/include/core_cmFunc.h" 1
 307 000c 62B6     		cpsie i
 308              	@ 0 "" 2
 309              		.thumb
 310 000e 08BD     		pop	{r3, pc}
 311              	.LBE121:
 312              	.LBE120:
 313              	.LBE119:
 314              	.LBE118:
 315              	.LBE117:
 316              		.cfi_endproc
 317              	.LFE222:
 318              		.size	chCondBroadcast, .-chCondBroadcast
 319              		.section	.text.chCondWaitS,"ax",%progbits
 320              		.align	2
 321              		.p2align 4,,15
 322              		.global	chCondWaitS
 323              		.thumb
 324              		.thumb_func
 325              		.type	chCondWaitS, %function
 326              	chCondWaitS:
 327              	.LFB225:
 328              		.loc 1 205 0
 329              		.cfi_startproc
 330              		@ args = 0, pretend = 0, frame = 0
 331              		@ frame_needed = 0, uses_anonymous_args = 0
 332              	.LVL20:
 333              		.loc 1 206 0
 334 0000 0F4B     		ldr	r3, .L25
 335              		.loc 1 205 0
 336 0002 70B5     		push	{r4, r5, r6, lr}
 337              		.cfi_def_cfa_offset 16
 338              		.cfi_offset 4, -16
 339              		.cfi_offset 5, -12
 340              		.cfi_offset 6, -8
 341              		.cfi_offset 14, -4
 342              		.loc 1 206 0
ARM GAS  /tmp/cc6dSZm1.s 			page 7


 343 0004 9C69     		ldr	r4, [r3, #24]
 344              	.LVL21:
 345              	.LBB122:
 346              	.LBB123:
 347              		.file 4 "ChibiOS_3.0.2/os/rt/include/chmtx.h"
 348              		.loc 4 146 0
 349 0006 E66B     		ldr	r6, [r4, #60]
 350              	.LBE123:
 351              	.LBE122:
 352              		.loc 1 205 0
 353 0008 0546     		mov	r5, r0
 354              		.loc 1 216 0
 355 000a 3046     		mov	r0, r6
 356              	.LVL22:
 357 000c FFF7FEFF 		bl	chMtxUnlockS
 358              	.LVL23:
 359              		.loc 1 220 0
 360 0010 6562     		str	r5, [r4, #36]
 361              	.LVL24:
 362              	.LBB124:
 363              	.LBB125:
 364              		.loc 2 653 0
 365 0012 2B46     		mov	r3, r5
 366 0014 03E0     		b	.L19
 367              	.LVL25:
 368              	.L24:
 369              		.loc 2 656 0
 370 0016 9968     		ldr	r1, [r3, #8]
 371 0018 A268     		ldr	r2, [r4, #8]
 372 001a 9142     		cmp	r1, r2
 373 001c 02D3     		bcc	.L20
 374              	.L19:
 375              		.loc 2 655 0
 376 001e 1B68     		ldr	r3, [r3]
 377              	.LVL26:
 378              		.loc 2 656 0
 379 0020 9D42     		cmp	r5, r3
 380 0022 F8D1     		bne	.L24
 381              	.L20:
 382              		.loc 2 658 0
 383 0024 5A68     		ldr	r2, [r3, #4]
 384 0026 6260     		str	r2, [r4, #4]
 385              		.loc 2 657 0
 386 0028 2360     		str	r3, [r4]
 387              	.LBE125:
 388              	.LBE124:
 389              		.loc 1 222 0
 390 002a 0720     		movs	r0, #7
 391              	.LBB127:
 392              	.LBB126:
 393              		.loc 2 659 0
 394 002c 1460     		str	r4, [r2]
 395              		.loc 2 660 0
 396 002e 5C60     		str	r4, [r3, #4]
 397              	.LBE126:
 398              	.LBE127:
 399              		.loc 1 222 0
ARM GAS  /tmp/cc6dSZm1.s 			page 8


 400 0030 FFF7FEFF 		bl	chSchGoSleepS
 401              	.LVL27:
 402              		.loc 1 223 0
 403 0034 646A     		ldr	r4, [r4, #36]
 404              	.LVL28:
 405              		.loc 1 224 0
 406 0036 3046     		mov	r0, r6
 407 0038 FFF7FEFF 		bl	chMtxLockS
 408              	.LVL29:
 409              		.loc 1 227 0
 410 003c 2046     		mov	r0, r4
 411 003e 70BD     		pop	{r4, r5, r6, pc}
 412              	.LVL30:
 413              	.L26:
 414              		.align	2
 415              	.L25:
 416 0040 00000000 		.word	ch
 417              		.cfi_endproc
 418              	.LFE225:
 419              		.size	chCondWaitS, .-chCondWaitS
 420              		.section	.text.chCondWait,"ax",%progbits
 421              		.align	2
 422              		.p2align 4,,15
 423              		.global	chCondWait
 424              		.thumb
 425              		.thumb_func
 426              		.type	chCondWait, %function
 427              	chCondWait:
 428              	.LFB224:
 429              		.loc 1 179 0
 430              		.cfi_startproc
 431              		@ args = 0, pretend = 0, frame = 0
 432              		@ frame_needed = 0, uses_anonymous_args = 0
 433              	.LVL31:
 434 0000 08B5     		push	{r3, lr}
 435              		.cfi_def_cfa_offset 8
 436              		.cfi_offset 3, -8
 437              		.cfi_offset 14, -4
 438              	.LBB128:
 439              	.LBB129:
 440              	.LBB130:
 441              	.LBB131:
 442              		.loc 3 342 0
 443              	@ 342 "ChibiOS_3.0.2/os/ext/CMSIS/include/core_cmFunc.h" 1
 444 0002 72B6     		cpsid i
 445              	@ 0 "" 2
 446              		.thumb
 447              	.LBE131:
 448              	.LBE130:
 449              	.LBE129:
 450              	.LBE128:
 451              		.loc 1 183 0
 452 0004 FFF7FEFF 		bl	chCondWaitS
 453              	.LVL32:
 454              	.LBB132:
 455              	.LBB133:
 456              	.LBB134:
ARM GAS  /tmp/cc6dSZm1.s 			page 9


 457              	.LBB135:
 458              	.LBB136:
 459              		.loc 3 331 0
 460              	@ 331 "ChibiOS_3.0.2/os/ext/CMSIS/include/core_cmFunc.h" 1
 461 0008 62B6     		cpsie i
 462              	@ 0 "" 2
 463              		.thumb
 464              	.LBE136:
 465              	.LBE135:
 466              	.LBE134:
 467              	.LBE133:
 468              	.LBE132:
 469              		.loc 1 186 0
 470 000a 08BD     		pop	{r3, pc}
 471              		.cfi_endproc
 472              	.LFE224:
 473              		.size	chCondWait, .-chCondWait
 474              		.section	.text.chCondWaitTimeoutS,"ax",%progbits
 475              		.align	2
 476              		.p2align 4,,15
 477              		.global	chCondWaitTimeoutS
 478              		.thumb
 479              		.thumb_func
 480              		.type	chCondWaitTimeoutS, %function
 481              	chCondWaitTimeoutS:
 482              	.LFB227:
 483              		.loc 1 296 0
 484              		.cfi_startproc
 485              		@ args = 0, pretend = 0, frame = 0
 486              		@ frame_needed = 0, uses_anonymous_args = 0
 487              	.LVL33:
 488 0000 F8B5     		push	{r3, r4, r5, r6, r7, lr}
 489              		.cfi_def_cfa_offset 24
 490              		.cfi_offset 3, -24
 491              		.cfi_offset 4, -20
 492              		.cfi_offset 5, -16
 493              		.cfi_offset 6, -12
 494              		.cfi_offset 7, -8
 495              		.cfi_offset 14, -4
 496              	.LBB137:
 497              	.LBB138:
 498              	.LBB139:
 499              	.LBB140:
 500              		.file 5 "ChibiOS_3.0.2/os/rt/include/chthreads.h"
 501              		.loc 5 176 0
 502 0002 124C     		ldr	r4, .L37
 503              	.LBE140:
 504              	.LBE139:
 505              		.loc 4 146 0
 506 0004 A369     		ldr	r3, [r4, #24]
 507 0006 DE6B     		ldr	r6, [r3, #60]
 508              	.LBE138:
 509              	.LBE137:
 510              		.loc 1 296 0
 511 0008 0546     		mov	r5, r0
 512              		.loc 1 306 0
 513 000a 3046     		mov	r0, r6
ARM GAS  /tmp/cc6dSZm1.s 			page 10


 514              	.LVL34:
 515              		.loc 1 296 0
 516 000c 0F46     		mov	r7, r1
 517              		.loc 1 306 0
 518 000e FFF7FEFF 		bl	chMtxUnlockS
 519              	.LVL35:
 520              		.loc 1 310 0
 521 0012 A469     		ldr	r4, [r4, #24]
 522              	.LBB141:
 523              	.LBB142:
 524              		.loc 2 653 0
 525 0014 2B46     		mov	r3, r5
 526              	.LBE142:
 527              	.LBE141:
 528              		.loc 1 310 0
 529 0016 6562     		str	r5, [r4, #36]
 530              	.LVL36:
 531 0018 03E0     		b	.L33
 532              	.LVL37:
 533              	.L30:
 534              	.LBB146:
 535              	.LBB143:
 536              		.loc 2 656 0
 537 001a 9868     		ldr	r0, [r3, #8]
 538 001c A268     		ldr	r2, [r4, #8]
 539 001e 9042     		cmp	r0, r2
 540 0020 02D3     		bcc	.L34
 541              	.L33:
 542              		.loc 2 655 0
 543 0022 1B68     		ldr	r3, [r3]
 544              	.LVL38:
 545              		.loc 2 656 0
 546 0024 9D42     		cmp	r5, r3
 547 0026 F8D1     		bne	.L30
 548              	.L34:
 549              		.loc 2 658 0
 550 0028 5A68     		ldr	r2, [r3, #4]
 551 002a 6260     		str	r2, [r4, #4]
 552              		.loc 2 657 0
 553 002c 2360     		str	r3, [r4]
 554              	.LBE143:
 555              	.LBE146:
 556              		.loc 1 312 0
 557 002e 3946     		mov	r1, r7
 558              	.LBB147:
 559              	.LBB144:
 560              		.loc 2 659 0
 561 0030 1460     		str	r4, [r2]
 562              	.LBE144:
 563              	.LBE147:
 564              		.loc 1 312 0
 565 0032 0720     		movs	r0, #7
 566              	.LBB148:
 567              	.LBB145:
 568              		.loc 2 660 0
 569 0034 5C60     		str	r4, [r3, #4]
 570              	.LBE145:
ARM GAS  /tmp/cc6dSZm1.s 			page 11


 571              	.LBE148:
 572              		.loc 1 312 0
 573 0036 FFF7FEFF 		bl	chSchGoSleepTimeoutS
 574              	.LVL39:
 575              		.loc 1 313 0
 576 003a 431C     		adds	r3, r0, #1
 577              		.loc 1 312 0
 578 003c 0446     		mov	r4, r0
 579              	.LVL40:
 580              		.loc 1 313 0
 581 003e 02D0     		beq	.L32
 582              		.loc 1 314 0
 583 0040 3046     		mov	r0, r6
 584              	.LVL41:
 585 0042 FFF7FEFF 		bl	chMtxLockS
 586              	.LVL42:
 587              	.L32:
 588              		.loc 1 318 0
 589 0046 2046     		mov	r0, r4
 590 0048 F8BD     		pop	{r3, r4, r5, r6, r7, pc}
 591              	.LVL43:
 592              	.L38:
 593 004a 00BF     		.align	2
 594              	.L37:
 595 004c 00000000 		.word	ch
 596              		.cfi_endproc
 597              	.LFE227:
 598              		.size	chCondWaitTimeoutS, .-chCondWaitTimeoutS
 599              		.section	.text.chCondWaitTimeout,"ax",%progbits
 600              		.align	2
 601              		.p2align 4,,15
 602              		.global	chCondWaitTimeout
 603              		.thumb
 604              		.thumb_func
 605              		.type	chCondWaitTimeout, %function
 606              	chCondWaitTimeout:
 607              	.LFB226:
 608              		.loc 1 258 0
 609              		.cfi_startproc
 610              		@ args = 0, pretend = 0, frame = 0
 611              		@ frame_needed = 0, uses_anonymous_args = 0
 612              	.LVL44:
 613 0000 08B5     		push	{r3, lr}
 614              		.cfi_def_cfa_offset 8
 615              		.cfi_offset 3, -8
 616              		.cfi_offset 14, -4
 617              	.LBB149:
 618              	.LBB150:
 619              	.LBB151:
 620              	.LBB152:
 621              		.loc 3 342 0
 622              	@ 342 "ChibiOS_3.0.2/os/ext/CMSIS/include/core_cmFunc.h" 1
 623 0002 72B6     		cpsid i
 624              	@ 0 "" 2
 625              		.thumb
 626              	.LBE152:
 627              	.LBE151:
ARM GAS  /tmp/cc6dSZm1.s 			page 12


 628              	.LBE150:
 629              	.LBE149:
 630              		.loc 1 262 0
 631 0004 FFF7FEFF 		bl	chCondWaitTimeoutS
 632              	.LVL45:
 633              	.LBB153:
 634              	.LBB154:
 635              	.LBB155:
 636              	.LBB156:
 637              	.LBB157:
 638              		.loc 3 331 0
 639              	@ 331 "ChibiOS_3.0.2/os/ext/CMSIS/include/core_cmFunc.h" 1
 640 0008 62B6     		cpsie i
 641              	@ 0 "" 2
 642              		.thumb
 643              	.LBE157:
 644              	.LBE156:
 645              	.LBE155:
 646              	.LBE154:
 647              	.LBE153:
 648              		.loc 1 266 0
 649 000a 08BD     		pop	{r3, pc}
 650              		.cfi_endproc
 651              	.LFE226:
 652              		.size	chCondWaitTimeout, .-chCondWaitTimeout
 653              		.text
 654              	.Letext0:
 655              		.file 6 "/usr/arm-none-eabi/include/machine/_default_types.h"
 656              		.file 7 "/usr/arm-none-eabi/include/sys/_stdint.h"
 657              		.file 8 "ChibiOS_3.0.2/os/rt/ports/ARMCMx/compilers/GCC/chtypes.h"
 658              		.file 9 "ChibiOS_3.0.2/os/rt/include/chsystypes.h"
 659              		.file 10 "ChibiOS_3.0.2/os/rt/ports/ARMCMx/chcore.h"
 660              		.file 11 "ChibiOS_3.0.2/os/rt/ports/ARMCMx/chcore_v7m.h"
 661              		.file 12 "ChibiOS_3.0.2/os/rt/include/chtm.h"
 662              		.file 13 "ChibiOS_3.0.2/os/rt/include/chsem.h"
 663              		.file 14 "ChibiOS_3.0.2/os/rt/include/chcond.h"
 664              		.file 15 "ChibiOS_3.0.2/os/rt/include/chsys.h"
 665              		.file 16 "ChibiOS_3.0.2/os/ext/CMSIS/include/core_cm4.h"