ARM GAS  /tmp/ccOHRbCf.s 			page 1


   1              		.syntax unified
   2              		.cpu cortex-m4
   3              		.eabi_attribute 27, 1
   4              		.eabi_attribute 28, 1
   5              		.fpu fpv4-sp-d16
   6              		.eabi_attribute 20, 1
   7              		.eabi_attribute 21, 1
   8              		.eabi_attribute 23, 3
   9              		.eabi_attribute 24, 1
  10              		.eabi_attribute 25, 1
  11              		.eabi_attribute 26, 1
  12              		.eabi_attribute 30, 2
  13              		.eabi_attribute 34, 1
  14              		.eabi_attribute 18, 4
  15              		.thumb
  16              		.file	"chdynamic.c"
  17              		.text
  18              	.Ltext0:
  19              		.cfi_sections	.debug_frame
  20              		.section	.text.chThdAddRef,"ax",%progbits
  21              		.align	2
  22              		.p2align 4,,15
  23              		.global	chThdAddRef
  24              		.thumb
  25              		.thumb_func
  26              		.type	chThdAddRef, %function
  27              	chThdAddRef:
  28              	.LFB219:
  29              		.file 1 "ChibiOS_3.0.2/os/rt/src/chdynamic.c"
  30              		.loc 1 68 0
  31              		.cfi_startproc
  32              		@ args = 0, pretend = 0, frame = 0
  33              		@ frame_needed = 0, uses_anonymous_args = 0
  34              		@ link register save eliminated.
  35              	.LVL0:
  36              	.LBB54:
  37              	.LBB55:
  38              	.LBB56:
  39              	.LBB57:
  40              		.file 2 "ChibiOS_3.0.2/os/ext/CMSIS/include/core_cmFunc.h"
  41              		.loc 2 342 0
  42              	@ 342 "ChibiOS_3.0.2/os/ext/CMSIS/include/core_cmFunc.h" 1
  43 0000 72B6     		cpsid i
  44              	@ 0 "" 2
  45              		.thumb
  46              	.LBE57:
  47              	.LBE56:
  48              	.LBE55:
  49              	.LBE54:
  50              		.loc 1 72 0
  51 0002 837F     		ldrb	r3, [r0, #30]	@ zero_extendqisi2
  52 0004 0133     		adds	r3, r3, #1
  53 0006 8377     		strb	r3, [r0, #30]
  54              	.LBB58:
  55              	.LBB59:
  56              	.LBB60:
  57              	.LBB61:
ARM GAS  /tmp/ccOHRbCf.s 			page 2


  58              	.LBB62:
  59              		.loc 2 331 0
  60              	@ 331 "ChibiOS_3.0.2/os/ext/CMSIS/include/core_cmFunc.h" 1
  61 0008 62B6     		cpsie i
  62              	@ 0 "" 2
  63              		.thumb
  64              	.LBE62:
  65              	.LBE61:
  66              	.LBE60:
  67              	.LBE59:
  68              	.LBE58:
  69              		.loc 1 76 0
  70 000a 7047     		bx	lr
  71              		.cfi_endproc
  72              	.LFE219:
  73              		.size	chThdAddRef, .-chThdAddRef
  74              		.section	.text.chThdRelease,"ax",%progbits
  75              		.align	2
  76              		.p2align 4,,15
  77              		.global	chThdRelease
  78              		.thumb
  79              		.thumb_func
  80              		.type	chThdRelease, %function
  81              	chThdRelease:
  82              	.LFB220:
  83              		.loc 1 91 0
  84              		.cfi_startproc
  85              		@ args = 0, pretend = 0, frame = 0
  86              		@ frame_needed = 0, uses_anonymous_args = 0
  87              		@ link register save eliminated.
  88              	.LVL1:
  89              		.loc 1 91 0
  90 0000 0146     		mov	r1, r0
  91              	.LBB63:
  92              	.LBB64:
  93              	.LBB65:
  94              	.LBB66:
  95              		.loc 2 342 0
  96              	@ 342 "ChibiOS_3.0.2/os/ext/CMSIS/include/core_cmFunc.h" 1
  97 0002 72B6     		cpsid i
  98              	@ 0 "" 2
  99              		.thumb
 100              	.LBE66:
 101              	.LBE65:
 102              	.LBE64:
 103              	.LBE63:
 104              		.loc 1 96 0
 105 0004 837F     		ldrb	r3, [r0, #30]	@ zero_extendqisi2
 106 0006 013B     		subs	r3, r3, #1
 107 0008 DBB2     		uxtb	r3, r3
 108 000a 8377     		strb	r3, [r0, #30]
 109              	.LVL2:
 110              	.LBB67:
 111              	.LBB68:
 112              	.LBB69:
 113              	.LBB70:
 114              	.LBB71:
ARM GAS  /tmp/ccOHRbCf.s 			page 3


 115              		.loc 2 331 0
 116              	@ 331 "ChibiOS_3.0.2/os/ext/CMSIS/include/core_cmFunc.h" 1
 117 000c 62B6     		cpsie i
 118              	@ 0 "" 2
 119              		.thumb
 120              	.LBE71:
 121              	.LBE70:
 122              	.LBE69:
 123              	.LBE68:
 124              	.LBE67:
 125              		.loc 1 103 0
 126 000e 13B9     		cbnz	r3, .L2
 127              		.loc 1 103 0 is_stmt 0 discriminator 1
 128 0010 037F     		ldrb	r3, [r0, #28]	@ zero_extendqisi2
 129              	.LVL3:
 130 0012 0F2B     		cmp	r3, #15
 131 0014 00D0     		beq	.L7
 132              	.L2:
 133 0016 7047     		bx	lr
 134              	.L7:
 135              		.loc 1 104 0 is_stmt 1
 136 0018 437F     		ldrb	r3, [r0, #29]	@ zero_extendqisi2
 137 001a 03F00303 		and	r3, r3, #3
 138 001e 012B     		cmp	r3, #1
 139 0020 02D0     		beq	.L4
 140 0022 022B     		cmp	r3, #2
 141 0024 07D0     		beq	.L5
 142 0026 7047     		bx	lr
 143              	.L4:
 144              		.loc 1 108 0
 145 0028 4369     		ldr	r3, [r0, #20]
 146 002a 0269     		ldr	r2, [r0, #16]
 147 002c 1A61     		str	r2, [r3, #16]
 148 002e 0269     		ldr	r2, [r0, #16]
 149 0030 5361     		str	r3, [r2, #20]
 150              		.loc 1 110 0
 151 0032 FFF7FEBF 		b	chHeapFree
 152              	.LVL4:
 153              	.L5:
 154              		.loc 1 116 0
 155 0036 4369     		ldr	r3, [r0, #20]
 156 0038 0269     		ldr	r2, [r0, #16]
 157 003a 1A61     		str	r2, [r3, #16]
 158 003c 0269     		ldr	r2, [r0, #16]
 159              		.loc 1 118 0
 160 003e 406C     		ldr	r0, [r0, #68]
 161              	.LVL5:
 162              		.loc 1 116 0
 163 0040 5361     		str	r3, [r2, #20]
 164              		.loc 1 118 0
 165 0042 FFF7FEBF 		b	chPoolFree
 166              	.LVL6:
 167              		.cfi_endproc
 168              	.LFE220:
 169              		.size	chThdRelease, .-chThdRelease
 170              		.section	.text.chThdCreateFromHeap,"ax",%progbits
 171              		.align	2
ARM GAS  /tmp/ccOHRbCf.s 			page 4


 172              		.p2align 4,,15
 173              		.global	chThdCreateFromHeap
 174              		.thumb
 175              		.thumb_func
 176              		.type	chThdCreateFromHeap, %function
 177              	chThdCreateFromHeap:
 178              	.LFB221:
 179              		.loc 1 153 0
 180              		.cfi_startproc
 181              		@ args = 4, pretend = 0, frame = 0
 182              		@ frame_needed = 0, uses_anonymous_args = 0
 183              	.LVL7:
 184 0000 F0B5     		push	{r4, r5, r6, r7, lr}
 185              		.cfi_def_cfa_offset 20
 186              		.cfi_offset 4, -20
 187              		.cfi_offset 5, -16
 188              		.cfi_offset 6, -12
 189              		.cfi_offset 7, -8
 190              		.cfi_offset 14, -4
 191 0002 83B0     		sub	sp, sp, #12
 192              		.cfi_def_cfa_offset 32
 193              		.loc 1 153 0
 194 0004 1646     		mov	r6, r2
 195 0006 1D46     		mov	r5, r3
 196 0008 0F46     		mov	r7, r1
 197              		.loc 1 157 0
 198 000a FFF7FEFF 		bl	chHeapAlloc
 199              	.LVL8:
 200              		.loc 1 158 0
 201 000e 78B1     		cbz	r0, .L9
 202              	.LBB72:
 203              	.LBB73:
 204              	.LBB74:
 205              	.LBB75:
 206              		.loc 2 342 0
 207              	@ 342 "ChibiOS_3.0.2/os/ext/CMSIS/include/core_cmFunc.h" 1
 208 0010 72B6     		cpsid i
 209              	@ 0 "" 2
 210              		.thumb
 211              	.LBE75:
 212              	.LBE74:
 213              	.LBE73:
 214              	.LBE72:
 215              		.loc 1 172 0
 216 0012 089B     		ldr	r3, [sp, #32]
 217 0014 0093     		str	r3, [sp]
 218 0016 3946     		mov	r1, r7
 219 0018 3246     		mov	r2, r6
 220 001a 2B46     		mov	r3, r5
 221 001c FFF7FEFF 		bl	chThdCreateI
 222              	.LVL9:
 223              		.loc 1 173 0
 224 0020 0123     		movs	r3, #1
 225 0022 4377     		strb	r3, [r0, #29]
 226              		.loc 1 174 0
 227 0024 0021     		movs	r1, #0
 228              		.loc 1 172 0
ARM GAS  /tmp/ccOHRbCf.s 			page 5


 229 0026 0446     		mov	r4, r0
 230              	.LVL10:
 231              		.loc 1 174 0
 232 0028 FFF7FEFF 		bl	chSchWakeupS
 233              	.LVL11:
 234              	.LBB76:
 235              	.LBB77:
 236              	.LBB78:
 237              	.LBB79:
 238              	.LBB80:
 239              		.loc 2 331 0
 240              	@ 331 "ChibiOS_3.0.2/os/ext/CMSIS/include/core_cmFunc.h" 1
 241 002c 62B6     		cpsie i
 242              	@ 0 "" 2
 243              		.thumb
 244              	.LBE80:
 245              	.LBE79:
 246              	.LBE78:
 247              	.LBE77:
 248              	.LBE76:
 249              		.loc 1 177 0
 250 002e 2046     		mov	r0, r4
 251              	.LVL12:
 252              	.L9:
 253              		.loc 1 178 0
 254 0030 03B0     		add	sp, sp, #12
 255              		.cfi_def_cfa_offset 20
 256              		@ sp needed
 257 0032 F0BD     		pop	{r4, r5, r6, r7, pc}
 258              		.cfi_endproc
 259              	.LFE221:
 260              		.size	chThdCreateFromHeap, .-chThdCreateFromHeap
 261              		.section	.text.chThdCreateFromMemoryPool,"ax",%progbits
 262              		.align	2
 263              		.p2align 4,,15
 264              		.global	chThdCreateFromMemoryPool
 265              		.thumb
 266              		.thumb_func
 267              		.type	chThdCreateFromMemoryPool, %function
 268              	chThdCreateFromMemoryPool:
 269              	.LFB222:
 270              		.loc 1 205 0
 271              		.cfi_startproc
 272              		@ args = 0, pretend = 0, frame = 0
 273              		@ frame_needed = 0, uses_anonymous_args = 0
 274              	.LVL13:
 275 0000 2DE9F041 		push	{r4, r5, r6, r7, r8, lr}
 276              		.cfi_def_cfa_offset 24
 277              		.cfi_offset 4, -24
 278              		.cfi_offset 5, -20
 279              		.cfi_offset 6, -16
 280              		.cfi_offset 7, -12
 281              		.cfi_offset 8, -8
 282              		.cfi_offset 14, -4
 283 0004 82B0     		sub	sp, sp, #8
 284              		.cfi_def_cfa_offset 32
 285              		.loc 1 205 0
ARM GAS  /tmp/ccOHRbCf.s 			page 6


 286 0006 0F46     		mov	r7, r1
 287 0008 1646     		mov	r6, r2
 288 000a 9846     		mov	r8, r3
 289 000c 0546     		mov	r5, r0
 290              		.loc 1 211 0
 291 000e FFF7FEFF 		bl	chPoolAlloc
 292              	.LVL14:
 293              		.loc 1 212 0
 294 0012 80B1     		cbz	r0, .L13
 295              	.LBB81:
 296              	.LBB82:
 297              	.LBB83:
 298              	.LBB84:
 299              		.loc 2 342 0
 300              	@ 342 "ChibiOS_3.0.2/os/ext/CMSIS/include/core_cmFunc.h" 1
 301 0014 72B6     		cpsid i
 302              	@ 0 "" 2
 303              		.thumb
 304              	.LBE84:
 305              	.LBE83:
 306              	.LBE82:
 307              	.LBE81:
 308              		.loc 1 226 0
 309 0016 6968     		ldr	r1, [r5, #4]
 310 0018 CDF80080 		str	r8, [sp]
 311 001c 3A46     		mov	r2, r7
 312 001e 3346     		mov	r3, r6
 313 0020 FFF7FEFF 		bl	chThdCreateI
 314              	.LVL15:
 315              		.loc 1 227 0
 316 0024 0223     		movs	r3, #2
 317              		.loc 1 228 0
 318 0026 4564     		str	r5, [r0, #68]
 319              		.loc 1 227 0
 320 0028 4377     		strb	r3, [r0, #29]
 321              		.loc 1 229 0
 322 002a 0021     		movs	r1, #0
 323              		.loc 1 226 0
 324 002c 0446     		mov	r4, r0
 325              	.LVL16:
 326              		.loc 1 229 0
 327 002e FFF7FEFF 		bl	chSchWakeupS
 328              	.LVL17:
 329              	.LBB85:
 330              	.LBB86:
 331              	.LBB87:
 332              	.LBB88:
 333              	.LBB89:
 334              		.loc 2 331 0
 335              	@ 331 "ChibiOS_3.0.2/os/ext/CMSIS/include/core_cmFunc.h" 1
 336 0032 62B6     		cpsie i
 337              	@ 0 "" 2
 338              		.thumb
 339              	.LBE89:
 340              	.LBE88:
 341              	.LBE87:
 342              	.LBE86:
ARM GAS  /tmp/ccOHRbCf.s 			page 7


 343              	.LBE85:
 344              		.loc 1 232 0
 345 0034 2046     		mov	r0, r4
 346              	.LVL18:
 347              	.L13:
 348              		.loc 1 233 0
 349 0036 02B0     		add	sp, sp, #8
 350              		.cfi_def_cfa_offset 24
 351              		@ sp needed
 352 0038 BDE8F081 		pop	{r4, r5, r6, r7, r8, pc}
 353              		.cfi_endproc
 354              	.LFE222:
 355              		.size	chThdCreateFromMemoryPool, .-chThdCreateFromMemoryPool
 356              		.text
 357              	.Letext0:
 358              		.file 3 "/usr/lib/gcc/arm-none-eabi/4.9.3/include/stddef.h"
 359              		.file 4 "/usr/arm-none-eabi/include/machine/_default_types.h"
 360              		.file 5 "/usr/arm-none-eabi/include/sys/_stdint.h"
 361              		.file 6 "ChibiOS_3.0.2/os/rt/ports/ARMCMx/compilers/GCC/chtypes.h"
 362              		.file 7 "ChibiOS_3.0.2/os/rt/include/chsystypes.h"
 363              		.file 8 "ChibiOS_3.0.2/os/rt/include/chschd.h"
 364              		.file 9 "ChibiOS_3.0.2/os/rt/ports/ARMCMx/chcore.h"
 365              		.file 10 "ChibiOS_3.0.2/os/rt/ports/ARMCMx/chcore_v7m.h"
 366              		.file 11 "ChibiOS_3.0.2/os/rt/include/chtm.h"
 367              		.file 12 "ChibiOS_3.0.2/os/rt/include/chsem.h"
 368              		.file 13 "ChibiOS_3.0.2/os/rt/include/chmtx.h"
 369              		.file 14 "ChibiOS_3.0.2/os/rt/include/chthreads.h"
 370              		.file 15 "ChibiOS_3.0.2/os/rt/include/chmemcore.h"
 371              		.file 16 "ChibiOS_3.0.2/os/rt/include/chheap.h"
 372              		.file 17 "ChibiOS_3.0.2/os/rt/include/chmempools.h"
 373              		.file 18 "ChibiOS_3.0.2/os/rt/include/chsys.h"
 374              		.file 19 "ChibiOS_3.0.2/os/ext/CMSIS/include/core_cm4.h"