ARM GAS  /tmp/ccOHRbCf.s 			page 1


   1              		.syntax unified
   2              		.cpu cortex-m4
   3              		.eabi_attribute 27, 1
   4              		.eabi_attribute 28, 1
   5              		.fpu fpv4-sp-d16
   6              		.eabi_attribute 20, 1
   7              		.eabi_attribute 21, 1
   8              		.eabi_attribute 23, 3
   9              		.eabi_attribute 24, 1
  10              		.eabi_attribute 25, 1
  11              		.eabi_attribute 26, 1
  12              		.eabi_attribute 30, 2
  13              		.eabi_attribute 34, 1
  14              		.eabi_attribute 18, 4
  15              		.thumb
  16              		.file	"chdynamic.c"
  17              		.text
  18              	.Ltext0:
  19              		.cfi_sections	.debug_frame
  20              		.section	.text.chThdAddRef,"ax",%progbits
  21              		.align	2
  22              		.p2align 4,,15
  23              		.global	chThdAddRef
  24              		.thumb
  25              		.thumb_func
  26              		.type	chThdAddRef, %function
  27              	chThdAddRef:
  28              	.LFB219:
  29              		.file 1 "ChibiOS_3.0.2/os/rt/src/chdynamic.c"
  30              		.loc 1 68 0
  31              		.cfi_startproc
  32              		@ args = 0, pretend = 0, frame = 0
  33              		@ frame_needed = 0, uses_anonymous_args = 0
  34              		@ link register save eliminated.
  35              	.LVL0:
  36              	.LBB54:
  37              	.LBB55:
  38              	.LBB56:
  39              	.LBB57:
  40              		.file 2 "ChibiOS_3.0.2/os/ext/CMSIS/include/core_cmFunc.h"
  41              		.loc 2 342 0
  42              	@ 342 "ChibiOS_3.0.2/os/ext/CMSIS/include/core_cmFunc.h" 1
  43 0000 72B6     		cpsid i
  44              	@ 0 "" 2
  45              		.thumb
  46              	.LBE57:
  47              	.LBE56:
  48              	.LBE55:
  49              	.LBE54:
  50              		.loc 1 72 0
  51 0002 837F     		ldrb	r3, [r0, #30]	@ zero_extendqisi2
  52 0004 0133     		adds	r3, r3, #1
  53 0006 8377     		strb	r3, [r0, #30]
  54              	.LBB58:
  55              	.LBB59:
  56              	.LBB60:
  57              	.LBB61:
ARM GAS  /tmp/ccOHRbCf.s 			page 2


  58              	.LBB62:
  59              		.loc 2 331 0
  60              	@ 331 "ChibiOS_3.0.2/os/ext/CMSIS/include/core_cmFunc.h" 1
  61 0008 62B6     		cpsie i
  62              	@ 0 "" 2
  63              		.thumb
  64              	.LBE62:
  65              	.LBE61:
  66              	.LBE60:
  67              	.LBE59:
  68              	.LBE58:
  69              		.loc 1 76 0
  70 000a 7047     		bx	lr
  71              		.cfi_endproc
  72              	.LFE219:
  73              		.size	chThdAddRef, .-chThdAddRef
  74              		.section	.text.chThdRelease,"ax",%progbits
  75              		.align	2
  76              		.p2align 4,,15
  77              		.global	chThdRelease
  78              		.thumb
  79              		.thumb_func
  80              		.type	chThdRelease, %function
  81              	chThdRelease:
  82              	.LFB220:
  83              		.loc 1 91 0
  84              		.cfi_startproc
  85              		@ args = 0, pretend = 0, frame = 0
  86              		@ frame_needed = 0, uses_anonymous_args = 0
  87              		@ link register save eliminated.
  88              	.LVL1:
  89              		.loc 1 91 0
  90 0000 0146     		mov	r1, r0
  91              	.LBB63:
  92              	.LBB64:
  93              	.LBB65:
  94              	.LBB66:
  95              		.loc 2 342 0
  96              	@ 342 "ChibiOS_3.0.2/os/ext/CMSIS/include/core_cmFunc.h" 1
  97 0002 72B6     		cpsid i
  98              	@ 0 "" 2
  99              		.thumb
 100              	.LBE66:
 101              	.LBE65:
 102              	.LBE64:
 103              	.LBE63:
 104              		.loc 1 96 0
 105 0004 837F     		ldrb	r3, [r0, #30]	@ zero_extendqisi2
 106 0006 013B     		subs	r3, r3, #1
 107 0008 DBB2     		uxtb	r3, r3
 108 000a 8377     		strb	r3, [r0, #30]
 109              	.LVL2:
 110              	.LBB67:
 111              	.LBB68:
 112              	.LBB69:
 113              	.LBB70:
 114              	.LBB71:
ARM GAS  /tmp/ccOHRbCf.s 			page 3


 115              		.loc 2 331 0
 116              	@ 331 "ChibiOS_3.0.2/os/ext/CMSIS/include/core_cmFunc.h" 1
 117 000c 62B6     		cpsie i
 118              	@ 0 "" 2
 119              		.thumb
 120              	.LBE71:
 121              	.LBE70:
 122              	.LBE69:
 123              	.LBE68:
 124              	.LBE67:
 125              		.loc 1 103 0
 126 000e 13B9     		cbnz	r3, .L2
 127              		.loc 1 103 0 is_stmt 0 discriminator 1
 128 0010 037F     		ldrb	r3, [r0, #28]	@ zero_extendqisi2
 129              	.LVL3:
 130 0012 0F2B     		cmp	r3, #15
 131 0014 00D0     		beq	.L7
 132              	.L2:
 133 0016 7047     		bx	lr
 134              	.L7:
 135              		.loc 1 104 0 is_stmt 1
 136 0018 437F     		ldrb	r3, [r0, #29]	@ zero_extendqisi2
 137 001a 03F00303 		and	r3, r3, #3
 138 001e 012B     		cmp	r3, #1
 139 0020 02D0     		beq	.L4
 140 0022 022B     		cmp	r3, #2
 141 0024 07D0     		beq	.L5
 142 0026 7047     		bx	lr
 143              	.L4:
 144              		.loc 1 108 0
 145 0028 4369     		ldr	r3, [r0, #20]
 146 002a 0269     		ldr	r2, [r0, #16]
 147 002c 1A61     		str	r2, [r3, #16]
 148 002e 0269     		ldr	r2, [r0, #16]
 149 0030 5361     		str	r3, [r2, #20]
 150              		.loc 1 110 0
 151 0032 FFF7FEBF 		b	chHeapFree
 152              	.LVL4:
 153              	.L5:
 154              		.loc 1 116 0
 155 0036 4369     		ldr	r3, [r0, #20]
 156 0038 0269     		ldr	r2, [r0, #16]
 157 003a 1A61     		str	r2, [r3, #16]
 158 003c 0269     		ldr	r2, [r0, #16]
 159              		.loc 1 118 0
 160 003e 406C     		ldr	r0, [r0, #68]
 161              	.LVL5:
 162              		.loc 1 116 0
 163 0040 5361     		str	r3, [r2, #20]
 164              		.loc 1 118 0
 165 0042 FFF7FEBF 		b	chPoolFree
 166              	.LVL6:
 167              		.cfi_endproc
 168              	.LFE220:
 169              		.size	chThdRelease, .-chThdRelease
 170              		.section	.text.chThdCreateFromHeap,"ax",%progbits
 171              		.align	2
ARM GAS  /tmp/ccOHRbCf.s 			page 4


 172              		.p2align 4,,15
 173              		.global	chThdCreateFromHeap
 174              		.thumb
 175              		.thumb_func
 176              		.type	chThdCreateFromHeap, %function
 177              	chThdCreateFromHeap:
 178              	.LFB221:
 179              		.loc 1 153 0
 180              		.cfi_startproc
 181              		@ args = 4, pretend = 0, frame = 0
 182              		@ frame_needed = 0, uses_anonymous_args = 0
 183              	.LVL7:
 184 0000 F0B5     		push	{r4, r5, r6, r7, lr}
 185              		.cfi_def_cfa_offset 20
 186              		.cfi_offset 4, -20
 187              		.cfi_offset 5, -16
 188              		.cfi_offset 6, -12
 189              		.cfi_offset 7, -8
 190              		.cfi_offset 14, -4
 191 0002 83B0     		sub	sp, sp, #12
 192              		.cfi_def_cfa_offset 32
 193              		.loc 1 153 0
 194 0004 1646     		mov	r6, r2
 195 0006 1D46     		mov	r5, r3
 196 0008 0F46     		mov	r7, r1
 197              		.loc 1 157 0
 198 000a FFF7FEFF 		bl	chHeapAlloc
 199              	.LVL8:
 200              		.loc 1 158 0
 201 000e 78B1     		cbz	r0, .L9
 202              	.LBB72:
 203              	.LBB73:
 204              	.LBB74:
 205              	.LBB75:
 206              		.loc 2 342 0
 207              	@ 342 "ChibiOS_3.0.2/os/ext/CMSIS/include/core_cmFunc.h" 1
 208 0010 72B6     		cpsid i
 209              	@ 0 "" 2
 210              		.thumb
 211              	.LBE75:
 212              	.LBE74:
 213              	.LBE73:
 214              	.LBE72:
 215              		.loc 1 172 0
 216 0012 089B     		ldr	r3, [sp, #32]
 217 0014 0093     		str	r3, [sp]
 218 0016 3946     		mov	r1, r7
 219 0018 3246     		mov	r2, r6
 220 001a 2B46     		mov	r3, r5
 221 001c FFF7FEFF 		bl	chThdCreateI
 222              	.LVL9:
 223              		.loc 1 173 0
 224 0020 0123     		movs	r3, #1
 225 0022 4377     		strb	r3, [r0, #29]
 226              		.loc 1 174 0
 227 0024 0021     		movs	r1, #0
 228              		.loc 1 172 0
ARM GAS  /tmp/ccOHRbCf.s 			page 5


 229 0026 0446     		mov	r4, r0
 230              	.LVL10:
 231              		.loc 1 174 0
 232 0028 FFF7FEFF 		bl	chSchWakeupS
 233              	.LVL11:
 234              	.LBB76:
 235              	.LBB77:
 236              	.LBB78:
 237              	.LBB79:
 238              	.LBB80:
 239              		.loc 2 331 0
 240              	@ 331 "ChibiOS_3.0.2/os/ext/CMSIS/include/core_cmFunc.h" 1
 241 002c 62B6     		cpsie i
 242              	@ 0 "" 2
 243              		.thumb
 244              	.LBE80:
 245              	.LBE79:
 246              	.LBE78:
 247              	.LBE77:
 248              	.LBE76:
 249              		.loc 1 177 0
 250 002e 2046     		mov	r0, r4
 251              	.LVL12:
 252              	.L9:
 253              		.loc 1 178 0
 254 0030 03B0     		add	sp, sp, #12
 255              		.cfi_def_cfa_offset 20
 256              		@ sp needed
 257 0032 F0BD     		pop	{r4, r5, r6, r7, pc}
 258              		.cfi_endproc
 259              	.LFE221:
 260              		.size	chThdCreateFromHeap, .-chThdCreateFromHeap
 261              		.section	.text.chThdCreateFromMemoryPool,"ax",%progbits
 262              		.align	2
 263              		.p2align 4,,15
 264              		.global	chThdCreateFromMemoryPool
 265              		.thumb
 266              		.thumb_func
 267              		.type	chThdCreateFromMemoryPool, %function
 268              	chThdCreateFromMemoryPool:
 269              	.LFB222:
 270              		.loc 1 205 0
 271              		.cfi_startproc
 272              		@ args = 0, pretend = 0, frame = 0
 273              		@ frame_needed = 0, uses_anonymous_args = 0
 274              	.LVL13:
 275 0000 2DE9F041 		push	{r4, r5, r6, r7, r8, lr}
 276              		.cfi_def_cfa_offset 24
 277              		.cfi_offset 4, -24
 278              		.cfi_offset 5, -20
 279              		.cfi_offset 6, -16
 280              		.cfi_offset 7, -12
 281              		.cfi_offset 8, -8
 282              		.cfi_offset 14, -4
 283 0004 82B0     		sub	sp, sp, #8
 284              		.cfi_def_cfa_offset 32
 285              		.loc 1 205 0
ARM GAS  /tmp/ccOHRbCf.s 			page 6


 286 0006 0F46     		mov	r7, r1
 287 0008 1646     		mov	r6, r2
 288 000a 9846     		mov	r8, r3
 289 000c 0546     		mov	r5, r0
 290              		.loc 1 211 0
 291 000e FFF7FEFF 		bl	chPoolAlloc
 292              	.LVL14:
 293              		.loc 1 212 0
 294 0012 80B1     		cbz	r0, .L13
 295              	.LBB81:
 296              	.LBB82:
 297              	.LBB83:
 298              	.LBB84:
 299              		.loc 2 342 0
 300              	@ 342 "ChibiOS_3.0.2/os/ext/CMSIS/include/core_cmFunc.h" 1
 301 0014 72B6     		cpsid i
 302              	@ 0 "" 2
 303              		.thumb
 304              	.LBE84:
 305              	.LBE83:
 306              	.LBE82:
 307              	.LBE81:
 308              		.loc 1 226 0
 309 0016 6968     		ldr	r1, [r5, #4]
 310 0018 CDF80080 		str	r8, [sp]
 311 001c 3A46     		mov	r2, r7
 312 001e 3346     		mov	r3, r6
 313 0020 FFF7FEFF 		bl	chThdCreateI
 314              	.LVL15:
 315              		.loc 1 227 0
 316 0024 0223     		movs	r3, #2
 317              		.loc 1 228 0
 318 0026 4564     		str	r5, [r0, #68]
 319              		.loc 1 227 0
 320 0028 4377     		strb	r3, [r0, #29]
 321              		.loc 1 229 0
 322 002a 0021     		movs	r1, #0
 323              		.loc 1 226 0
 324 002c 0446     		mov	r4, r0
 325              	.LVL16:
 326              		.loc 1 229 0
 327 002e FFF7FEFF 		bl	chSchWakeupS
 328              	.LVL17:
 329              	.LBB85:
 330              	.LBB86:
 331              	.LBB87:
 332              	.LBB88:
 333              	.LBB89:
 334              		.loc 2 331 0
 335              	@ 331 "ChibiOS_3.0.2/os/ext/CMSIS/include/core_cmFunc.h" 1
 336 0032 62B6     		cpsie i
 337              	@ 0 "" 2
 338              		.thumb
 339              	.LBE89:
 340              	.LBE88:
 341              	.LBE87:
 342              	.LBE86:
ARM GAS  /tmp/ccOHRbCf.s 			page 7


 343              	.LBE85:
 344              		.loc 1 232 0
 345 0034 2046     		mov	r0, r4
 346              	.LVL18:
 347              	.L13:
 348              		.loc 1 233 0
 349 0036 02B0     		add	sp, sp, #8
 350              		.cfi_def_cfa_offset 24
 351              		@ sp needed
 352 0038 BDE8F081 		pop	{r4, r5, r6, r7, r8, pc}
 353              		.cfi_endproc
 354              	.LFE222:
 355              		.size	chThdCreateFromMemoryPool, .-chThdCreateFromMemoryPool
 356              		.text
 357              	.Letext0:
 358              		.file 3 "/usr/lib/gcc/arm-none-eabi/4.9.3/include/stddef.h"
 359              		.file 4 "/usr/arm-none-eabi/include/machine/_default_types.h"
 360              		.file 5 "/usr/arm-none-eabi/include/sys/_stdint.h"
 361              		.file 6 "ChibiOS_3.0.2/os/rt/ports/ARMCMx/compilers/GCC/chtypes.h"
 362              		.file 7 "ChibiOS_3.0.2/os/rt/include/chsystypes.h"
 363              		.file 8 "ChibiOS_3.0.2/os/rt/include/chschd.h"
 364              		.file 9 "ChibiOS_3.0.2/os/rt/ports/ARMCMx/chcore.h"
 365              		.file 10 "ChibiOS_3.0.2/os/rt/ports/ARMCMx/chcore_v7m.h"
 366              		.file 11 "ChibiOS_3.0.2/os/rt/include/chtm.h"
 367              		.file 12 "ChibiOS_3.0.2/os/rt/include/chsem.h"
 368              		.file 13 "ChibiOS_3.0.2/os/rt/include/chmtx.h"
 369              		.file 14 "ChibiOS_3.0.2/os/rt/include/chthreads.h"
 370              		.file 15 "ChibiOS_3.0.2/os/rt/include/chmemcore.h"
 371              		.file 16 "ChibiOS_3.0.2/os/rt/include/chheap.h"
 372              		.file 17 "ChibiOS_3.0.2/os/rt/include/chmempools.h"
 373              		.file 18 "ChibiOS_3.0.2/os/rt/include/chsys.h"
 374              		.file 19 "ChibiOS_3.0.2/os/ext/CMSIS/include/core_cm4.h"
 375              		.section	.debug_info,"",%progbits
 376              	.Ldebug_info0:
 377 0000 7A0D0000 		.4byte	0xd7a
 378 0004 0400     		.2byte	0x4
 379 0006 00000000 		.4byte	.Ldebug_abbrev0
 380 000a 04       		.byte	0x4
 381 000b 01       		.uleb128 0x1
 382 000c 02050000 		.4byte	.LASF141
 383 0010 01       		.byte	0x1
 384 0011 74030000 		.4byte	.LASF142
 385 0015 CA030000 		.4byte	.LASF143
 386 0019 00000000 		.4byte	.Ldebug_ranges0+0
 387 001d 00000000 		.4byte	0
 388 0021 00000000 		.4byte	.Ldebug_line0
 389 0025 02       		.uleb128 0x2
 390 0026 04       		.byte	0x4
 391 0027 05       		.byte	0x5
 392 0028 696E7400 		.ascii	"int\000"
 393 002c 03       		.uleb128 0x3
 394 002d 15000000 		.4byte	.LASF2
 395 0031 03       		.byte	0x3
 396 0032 D4       		.byte	0xd4
 397 0033 37000000 		.4byte	0x37
 398 0037 04       		.uleb128 0x4
 399 0038 04       		.byte	0x4
ARM GAS  /tmp/ccOHRbCf.s 			page 8


 400 0039 07       		.byte	0x7
 401 003a F8010000 		.4byte	.LASF0
 402 003e 04       		.uleb128 0x4
 403 003f 01       		.byte	0x1
 404 0040 06       		.byte	0x6
 405 0041 EB000000 		.4byte	.LASF1
 406 0045 03       		.uleb128 0x3
 407 0046 2C000000 		.4byte	.LASF3
 408 004a 04       		.byte	0x4
 409 004b 1D       		.byte	0x1d
 410 004c 50000000 		.4byte	0x50
 411 0050 04       		.uleb128 0x4
 412 0051 01       		.byte	0x1
 413 0052 08       		.byte	0x8
 414 0053 13040000 		.4byte	.LASF4
 415 0057 04       		.uleb128 0x4
 416 0058 02       		.byte	0x2
 417 0059 05       		.byte	0x5
 418 005a 37040000 		.4byte	.LASF5
 419 005e 04       		.uleb128 0x4
 420 005f 02       		.byte	0x2
 421 0060 07       		.byte	0x7
 422 0061 43020000 		.4byte	.LASF6
 423 0065 03       		.uleb128 0x3
 424 0066 AC020000 		.4byte	.LASF7
 425 006a 04       		.byte	0x4
 426 006b 3F       		.byte	0x3f
 427 006c 70000000 		.4byte	0x70
 428 0070 04       		.uleb128 0x4
 429 0071 04       		.byte	0x4
 430 0072 05       		.byte	0x5
 431 0073 52010000 		.4byte	.LASF8
 432 0077 03       		.uleb128 0x3
 433 0078 4B060000 		.4byte	.LASF9
 434 007c 04       		.byte	0x4
 435 007d 41       		.byte	0x41
 436 007e 82000000 		.4byte	0x82
 437 0082 04       		.uleb128 0x4
 438 0083 04       		.byte	0x4
 439 0084 07       		.byte	0x7
 440 0085 E1040000 		.4byte	.LASF10
 441 0089 04       		.uleb128 0x4
 442 008a 08       		.byte	0x8
 443 008b 05       		.byte	0x5
 444 008c DD000000 		.4byte	.LASF11
 445 0090 03       		.uleb128 0x3
 446 0091 61030000 		.4byte	.LASF12
 447 0095 04       		.byte	0x4
 448 0096 5B       		.byte	0x5b
 449 0097 9B000000 		.4byte	0x9b
 450 009b 04       		.uleb128 0x4
 451 009c 08       		.byte	0x8
 452 009d 07       		.byte	0x7
 453 009e 68000000 		.4byte	.LASF13
 454 00a2 03       		.uleb128 0x3
 455 00a3 D2060000 		.4byte	.LASF14
 456 00a7 05       		.byte	0x5
ARM GAS  /tmp/ccOHRbCf.s 			page 9


 457 00a8 14       		.byte	0x14
 458 00a9 45000000 		.4byte	0x45
 459 00ad 03       		.uleb128 0x3
 460 00ae 0B040000 		.4byte	.LASF15
 461 00b2 05       		.byte	0x5
 462 00b3 1F       		.byte	0x1f
 463 00b4 65000000 		.4byte	0x65
 464 00b8 03       		.uleb128 0x3
 465 00b9 B4040000 		.4byte	.LASF16
 466 00bd 05       		.byte	0x5
 467 00be 20       		.byte	0x20
 468 00bf 77000000 		.4byte	0x77
 469 00c3 03       		.uleb128 0x3
 470 00c4 23000000 		.4byte	.LASF17
 471 00c8 05       		.byte	0x5
 472 00c9 26       		.byte	0x26
 473 00ca 90000000 		.4byte	0x90
 474 00ce 05       		.uleb128 0x5
 475 00cf AD000000 		.4byte	0xad
 476 00d3 03       		.uleb128 0x3
 477 00d4 91060000 		.4byte	.LASF18
 478 00d8 06       		.byte	0x6
 479 00d9 45       		.byte	0x45
 480 00da B8000000 		.4byte	0xb8
 481 00de 03       		.uleb128 0x3
 482 00df 8A020000 		.4byte	.LASF19
 483 00e3 06       		.byte	0x6
 484 00e4 48       		.byte	0x48
 485 00e5 A2000000 		.4byte	0xa2
 486 00e9 03       		.uleb128 0x3
 487 00ea 6F010000 		.4byte	.LASF20
 488 00ee 06       		.byte	0x6
 489 00ef 49       		.byte	0x49
 490 00f0 A2000000 		.4byte	0xa2
 491 00f4 03       		.uleb128 0x3
 492 00f5 D5000000 		.4byte	.LASF21
 493 00f9 06       		.byte	0x6
 494 00fa 4A       		.byte	0x4a
 495 00fb A2000000 		.4byte	0xa2
 496 00ff 03       		.uleb128 0x3
 497 0100 2B010000 		.4byte	.LASF22
 498 0104 06       		.byte	0x6
 499 0105 4B       		.byte	0x4b
 500 0106 A2000000 		.4byte	0xa2
 501 010a 03       		.uleb128 0x3
 502 010b C2030000 		.4byte	.LASF23
 503 010f 06       		.byte	0x6
 504 0110 4C       		.byte	0x4c
 505 0111 B8000000 		.4byte	0xb8
 506 0115 03       		.uleb128 0x3
 507 0116 78020000 		.4byte	.LASF24
 508 011a 06       		.byte	0x6
 509 011b 4D       		.byte	0x4d
 510 011c AD000000 		.4byte	0xad
 511 0120 03       		.uleb128 0x3
 512 0121 A0020000 		.4byte	.LASF25
 513 0125 06       		.byte	0x6
ARM GAS  /tmp/ccOHRbCf.s 			page 10


 514 0126 4F       		.byte	0x4f
 515 0127 B8000000 		.4byte	0xb8
 516 012b 03       		.uleb128 0x3
 517 012c F2010000 		.4byte	.LASF26
 518 0130 06       		.byte	0x6
 519 0131 51       		.byte	0x51
 520 0132 AD000000 		.4byte	0xad
 521 0136 03       		.uleb128 0x3
 522 0137 2D060000 		.4byte	.LASF27
 523 013b 07       		.byte	0x7
 524 013c 33       		.byte	0x33
 525 013d B8000000 		.4byte	0xb8
 526 0141 03       		.uleb128 0x3
 527 0142 C3060000 		.4byte	.LASF28
 528 0146 07       		.byte	0x7
 529 0147 3F       		.byte	0x3f
 530 0148 4C010000 		.4byte	0x14c
 531 014c 06       		.uleb128 0x6
 532 014d 56020000 		.4byte	.LASF50
 533 0151 48       		.byte	0x48
 534 0152 08       		.byte	0x8
 535 0153 C2       		.byte	0xc2
 536 0154 51020000 		.4byte	0x251
 537 0158 07       		.uleb128 0x7
 538 0159 61040000 		.4byte	.LASF29
 539 015d 08       		.byte	0x8
 540 015e C3       		.byte	0xc3
 541 015f 5C020000 		.4byte	0x25c
 542 0163 00       		.byte	0
 543 0164 07       		.uleb128 0x7
 544 0165 BB030000 		.4byte	.LASF30
 545 0169 08       		.byte	0x8
 546 016a C5       		.byte	0xc5
 547 016b 5C020000 		.4byte	0x25c
 548 016f 04       		.byte	0x4
 549 0170 07       		.uleb128 0x7
 550 0171 CE000000 		.4byte	.LASF31
 551 0175 08       		.byte	0x8
 552 0176 C7       		.byte	0xc7
 553 0177 0A010000 		.4byte	0x10a
 554 017b 08       		.byte	0x8
 555 017c 07       		.uleb128 0x7
 556 017d 34070000 		.4byte	.LASF32
 557 0181 08       		.byte	0x8
 558 0182 C8       		.byte	0xc8
 559 0183 8C040000 		.4byte	0x48c
 560 0187 0C       		.byte	0xc
 561 0188 07       		.uleb128 0x7
 562 0189 86010000 		.4byte	.LASF33
 563 018d 08       		.byte	0x8
 564 018e CA       		.byte	0xca
 565 018f 5C020000 		.4byte	0x25c
 566 0193 10       		.byte	0x10
 567 0194 07       		.uleb128 0x7
 568 0195 19030000 		.4byte	.LASF34
 569 0199 08       		.byte	0x8
 570 019a CB       		.byte	0xcb
ARM GAS  /tmp/ccOHRbCf.s 			page 11


 571 019b 5C020000 		.4byte	0x25c
 572 019f 14       		.byte	0x14
 573 01a0 07       		.uleb128 0x7
 574 01a1 03070000 		.4byte	.LASF35
 575 01a5 08       		.byte	0x8
 576 01a6 D2       		.byte	0xd2
 577 01a7 D1060000 		.4byte	0x6d1
 578 01ab 18       		.byte	0x18
 579 01ac 07       		.uleb128 0x7
 580 01ad 41040000 		.4byte	.LASF36
 581 01b1 08       		.byte	0x8
 582 01b2 DD       		.byte	0xdd
 583 01b3 E9000000 		.4byte	0xe9
 584 01b7 1C       		.byte	0x1c
 585 01b8 07       		.uleb128 0x7
 586 01b9 68040000 		.4byte	.LASF37
 587 01bd 08       		.byte	0x8
 588 01be E1       		.byte	0xe1
 589 01bf DE000000 		.4byte	0xde
 590 01c3 1D       		.byte	0x1d
 591 01c4 07       		.uleb128 0x7
 592 01c5 BC060000 		.4byte	.LASF38
 593 01c9 08       		.byte	0x8
 594 01ca E6       		.byte	0xe6
 595 01cb F4000000 		.4byte	0xf4
 596 01cf 1E       		.byte	0x1e
 597 01d0 07       		.uleb128 0x7
 598 01d1 49040000 		.4byte	.LASF39
 599 01d5 08       		.byte	0x8
 600 01d6 EC       		.byte	0xec
 601 01d7 FF000000 		.4byte	0xff
 602 01db 1F       		.byte	0x1f
 603 01dc 07       		.uleb128 0x7
 604 01dd 0D020000 		.4byte	.LASF40
 605 01e1 08       		.byte	0x8
 606 01e2 F3       		.byte	0xf3
 607 01e3 E3060000 		.4byte	0x6e3
 608 01e7 20       		.byte	0x20
 609 01e8 08       		.uleb128 0x8
 610 01e9 705F7500 		.ascii	"p_u\000"
 611 01ed 08       		.byte	0x8
 612 01ee 3101     		.2byte	0x131
 613 01f0 0C060000 		.4byte	0x60c
 614 01f4 24       		.byte	0x24
 615 01f5 09       		.uleb128 0x9
 616 01f6 CD020000 		.4byte	.LASF41
 617 01fa 08       		.byte	0x8
 618 01fb 3601     		.2byte	0x136
 619 01fd 62020000 		.4byte	0x262
 620 0201 28       		.byte	0x28
 621 0202 09       		.uleb128 0x9
 622 0203 24020000 		.4byte	.LASF42
 623 0207 08       		.byte	0x8
 624 0208 3C01     		.2byte	0x13c
 625 020a 86020000 		.4byte	0x286
 626 020e 2C       		.byte	0x2c
 627 020f 09       		.uleb128 0x9
ARM GAS  /tmp/ccOHRbCf.s 			page 12


 628 0210 26070000 		.4byte	.LASF43
 629 0214 08       		.byte	0x8
 630 0215 4001     		.2byte	0x140
 631 0217 15010000 		.4byte	0x115
 632 021b 34       		.byte	0x34
 633 021c 09       		.uleb128 0x9
 634 021d A9040000 		.4byte	.LASF44
 635 0221 08       		.byte	0x8
 636 0222 4601     		.2byte	0x146
 637 0224 20010000 		.4byte	0x120
 638 0228 38       		.byte	0x38
 639 0229 09       		.uleb128 0x9
 640 022a 2D040000 		.4byte	.LASF45
 641 022e 08       		.byte	0x8
 642 022f 4D01     		.2byte	0x14d
 643 0231 CB060000 		.4byte	0x6cb
 644 0235 3C       		.byte	0x3c
 645 0236 09       		.uleb128 0x9
 646 0237 37060000 		.4byte	.LASF46
 647 023b 08       		.byte	0x8
 648 023c 5101     		.2byte	0x151
 649 023e 0A010000 		.4byte	0x10a
 650 0242 40       		.byte	0x40
 651 0243 09       		.uleb128 0x9
 652 0244 FD000000 		.4byte	.LASF47
 653 0248 08       		.byte	0x8
 654 0249 5801     		.2byte	0x158
 655 024b 39030000 		.4byte	0x339
 656 024f 44       		.byte	0x44
 657 0250 00       		.byte	0
 658 0251 03       		.uleb128 0x3
 659 0252 E0020000 		.4byte	.LASF48
 660 0256 07       		.byte	0x7
 661 0257 44       		.byte	0x44
 662 0258 5C020000 		.4byte	0x25c
 663 025c 0A       		.uleb128 0xa
 664 025d 04       		.byte	0x4
 665 025e 41010000 		.4byte	0x141
 666 0262 03       		.uleb128 0x3
 667 0263 0A030000 		.4byte	.LASF49
 668 0267 07       		.byte	0x7
 669 0268 49       		.byte	0x49
 670 0269 6D020000 		.4byte	0x26d
 671 026d 06       		.uleb128 0x6
 672 026e CC040000 		.4byte	.LASF51
 673 0272 04       		.byte	0x4
 674 0273 08       		.byte	0x8
 675 0274 B0       		.byte	0xb0
 676 0275 86020000 		.4byte	0x286
 677 0279 07       		.uleb128 0x7
 678 027a 61040000 		.4byte	.LASF29
 679 027e 08       		.byte	0x8
 680 027f B1       		.byte	0xb1
 681 0280 5C020000 		.4byte	0x25c
 682 0284 00       		.byte	0
 683 0285 00       		.byte	0
 684 0286 03       		.uleb128 0x3
ARM GAS  /tmp/ccOHRbCf.s 			page 13


 685 0287 A0060000 		.4byte	.LASF52
 686 028b 07       		.byte	0x7
 687 028c 50       		.byte	0x50
 688 028d 91020000 		.4byte	0x291
 689 0291 06       		.uleb128 0x6
 690 0292 BD000000 		.4byte	.LASF53
 691 0296 08       		.byte	0x8
 692 0297 08       		.byte	0x8
 693 0298 B7       		.byte	0xb7
 694 0299 B6020000 		.4byte	0x2b6
 695 029d 07       		.uleb128 0x7
 696 029e 61040000 		.4byte	.LASF29
 697 02a2 08       		.byte	0x8
 698 02a3 B8       		.byte	0xb8
 699 02a4 5C020000 		.4byte	0x25c
 700 02a8 00       		.byte	0
 701 02a9 07       		.uleb128 0x7
 702 02aa BB030000 		.4byte	.LASF30
 703 02ae 08       		.byte	0x8
 704 02af B9       		.byte	0xb9
 705 02b0 5C020000 		.4byte	0x25c
 706 02b4 04       		.byte	0x4
 707 02b5 00       		.byte	0
 708 02b6 03       		.uleb128 0x3
 709 02b7 08000000 		.4byte	.LASF54
 710 02bb 07       		.byte	0x7
 711 02bc 57       		.byte	0x57
 712 02bd C1020000 		.4byte	0x2c1
 713 02c1 0B       		.uleb128 0xb
 714 02c2 92020000 		.4byte	.LASF55
 715 02c6 1C       		.byte	0x1c
 716 02c7 08       		.byte	0x8
 717 02c8 9001     		.2byte	0x190
 718 02ca 1D030000 		.4byte	0x31d
 719 02ce 09       		.uleb128 0x9
 720 02cf C4040000 		.4byte	.LASF56
 721 02d3 08       		.byte	0x8
 722 02d4 9101     		.2byte	0x191
 723 02d6 86020000 		.4byte	0x286
 724 02da 00       		.byte	0
 725 02db 09       		.uleb128 0x9
 726 02dc 53040000 		.4byte	.LASF57
 727 02e0 08       		.byte	0x8
 728 02e1 9201     		.2byte	0x192
 729 02e3 0A010000 		.4byte	0x10a
 730 02e7 08       		.byte	0x8
 731 02e8 09       		.uleb128 0x9
 732 02e9 21030000 		.4byte	.LASF58
 733 02ed 08       		.byte	0x8
 734 02ee 9401     		.2byte	0x194
 735 02f0 8C040000 		.4byte	0x48c
 736 02f4 0C       		.byte	0xc
 737 02f5 09       		.uleb128 0x9
 738 02f6 B0010000 		.4byte	.LASF59
 739 02fa 08       		.byte	0x8
 740 02fb 9701     		.2byte	0x197
 741 02fd 5C020000 		.4byte	0x25c
ARM GAS  /tmp/ccOHRbCf.s 			page 14


 742 0301 10       		.byte	0x10
 743 0302 09       		.uleb128 0x9
 744 0303 4C030000 		.4byte	.LASF60
 745 0307 08       		.byte	0x8
 746 0308 9801     		.2byte	0x198
 747 030a 5C020000 		.4byte	0x25c
 748 030e 14       		.byte	0x14
 749 030f 09       		.uleb128 0x9
 750 0310 F3040000 		.4byte	.LASF61
 751 0314 08       		.byte	0x8
 752 0315 9B01     		.2byte	0x19b
 753 0317 5C020000 		.4byte	0x25c
 754 031b 18       		.byte	0x18
 755 031c 00       		.byte	0
 756 031d 03       		.uleb128 0x3
 757 031e 42060000 		.4byte	.LASF62
 758 0322 07       		.byte	0x7
 759 0323 5C       		.byte	0x5c
 760 0324 28030000 		.4byte	0x328
 761 0328 0A       		.uleb128 0xa
 762 0329 04       		.byte	0x4
 763 032a 2E030000 		.4byte	0x32e
 764 032e 0C       		.uleb128 0xc
 765 032f 39030000 		.4byte	0x339
 766 0333 0D       		.uleb128 0xd
 767 0334 39030000 		.4byte	0x339
 768 0338 00       		.byte	0
 769 0339 0E       		.uleb128 0xe
 770 033a 04       		.byte	0x4
 771 033b 03       		.uleb128 0x3
 772 033c AB030000 		.4byte	.LASF63
 773 0340 07       		.byte	0x7
 774 0341 61       		.byte	0x61
 775 0342 46030000 		.4byte	0x346
 776 0346 0B       		.uleb128 0xb
 777 0347 80060000 		.4byte	.LASF64
 778 034b 14       		.byte	0x14
 779 034c 08       		.byte	0x8
 780 034d 6B01     		.2byte	0x16b
 781 034f 95030000 		.4byte	0x395
 782 0353 09       		.uleb128 0x9
 783 0354 05020000 		.4byte	.LASF65
 784 0358 08       		.byte	0x8
 785 0359 6C01     		.2byte	0x16c
 786 035b E8060000 		.4byte	0x6e8
 787 035f 00       		.byte	0
 788 0360 09       		.uleb128 0x9
 789 0361 CD010000 		.4byte	.LASF66
 790 0365 08       		.byte	0x8
 791 0366 6D01     		.2byte	0x16d
 792 0368 E8060000 		.4byte	0x6e8
 793 036c 04       		.byte	0x4
 794 036d 09       		.uleb128 0x9
 795 036e 1B020000 		.4byte	.LASF67
 796 0372 08       		.byte	0x8
 797 0373 6E01     		.2byte	0x16e
 798 0375 36010000 		.4byte	0x136
ARM GAS  /tmp/ccOHRbCf.s 			page 15


 799 0379 08       		.byte	0x8
 800 037a 09       		.uleb128 0x9
 801 037b 3A070000 		.4byte	.LASF68
 802 037f 08       		.byte	0x8
 803 0380 6F01     		.2byte	0x16f
 804 0382 1D030000 		.4byte	0x31d
 805 0386 0C       		.byte	0xc
 806 0387 09       		.uleb128 0x9
 807 0388 99060000 		.4byte	.LASF69
 808 038c 08       		.byte	0x8
 809 038d 7101     		.2byte	0x171
 810 038f 39030000 		.4byte	0x339
 811 0393 10       		.byte	0x10
 812 0394 00       		.byte	0
 813 0395 03       		.uleb128 0x3
 814 0396 8F000000 		.4byte	.LASF70
 815 039a 07       		.byte	0x7
 816 039b 66       		.byte	0x66
 817 039c A0030000 		.4byte	0x3a0
 818 03a0 0B       		.uleb128 0xb
 819 03a1 F3020000 		.4byte	.LASF71
 820 03a5 10       		.byte	0x10
 821 03a6 08       		.byte	0x8
 822 03a7 7B01     		.2byte	0x17b
 823 03a9 E2030000 		.4byte	0x3e2
 824 03ad 09       		.uleb128 0x9
 825 03ae 05020000 		.4byte	.LASF65
 826 03b2 08       		.byte	0x8
 827 03b3 7C01     		.2byte	0x17c
 828 03b5 E8060000 		.4byte	0x6e8
 829 03b9 00       		.byte	0
 830 03ba 09       		.uleb128 0x9
 831 03bb CD010000 		.4byte	.LASF66
 832 03bf 08       		.byte	0x8
 833 03c0 7E01     		.2byte	0x17e
 834 03c2 E8060000 		.4byte	0x6e8
 835 03c6 04       		.byte	0x4
 836 03c7 09       		.uleb128 0x9
 837 03c8 1B020000 		.4byte	.LASF67
 838 03cc 08       		.byte	0x8
 839 03cd 8001     		.2byte	0x180
 840 03cf 36010000 		.4byte	0x136
 841 03d3 08       		.byte	0x8
 842 03d4 09       		.uleb128 0x9
 843 03d5 0F070000 		.4byte	.LASF72
 844 03d9 08       		.byte	0x8
 845 03da 8201     		.2byte	0x182
 846 03dc E3060000 		.4byte	0x6e3
 847 03e0 0C       		.byte	0xc
 848 03e1 00       		.byte	0
 849 03e2 03       		.uleb128 0x3
 850 03e3 42000000 		.4byte	.LASF73
 851 03e7 07       		.byte	0x7
 852 03e8 6B       		.byte	0x6b
 853 03e9 ED030000 		.4byte	0x3ed
 854 03ed 0B       		.uleb128 0xb
 855 03ee FB030000 		.4byte	.LASF74
ARM GAS  /tmp/ccOHRbCf.s 			page 16


 856 03f2 04       		.byte	0x4
 857 03f3 08       		.byte	0x8
 858 03f4 A201     		.2byte	0x1a2
 859 03f6 08040000 		.4byte	0x408
 860 03fa 09       		.uleb128 0x9
 861 03fb 56060000 		.4byte	.LASF75
 862 03ff 08       		.byte	0x8
 863 0400 AA01     		.2byte	0x1aa
 864 0402 EE060000 		.4byte	0x6ee
 865 0406 00       		.byte	0
 866 0407 00       		.byte	0
 867 0408 03       		.uleb128 0x3
 868 0409 7E020000 		.4byte	.LASF76
 869 040d 07       		.byte	0x7
 870 040e 70       		.byte	0x70
 871 040f 13040000 		.4byte	0x413
 872 0413 0F       		.uleb128 0xf
 873 0414 48010000 		.4byte	.LASF77
 874 0418 5802     		.2byte	0x258
 875 041a 08       		.byte	0x8
 876 041b C201     		.2byte	0x1c2
 877 041d 6F040000 		.4byte	0x46f
 878 0421 09       		.uleb128 0x9
 879 0422 CC060000 		.4byte	.LASF78
 880 0426 08       		.byte	0x8
 881 0427 C601     		.2byte	0x1c6
 882 0429 B6020000 		.4byte	0x2b6
 883 042d 00       		.byte	0
 884 042e 09       		.uleb128 0x9
 885 042f 18010000 		.4byte	.LASF79
 886 0433 08       		.byte	0x8
 887 0434 CA01     		.2byte	0x1ca
 888 0436 95030000 		.4byte	0x395
 889 043a 1C       		.byte	0x1c
 890 043b 08       		.uleb128 0x8
 891 043c 64626700 		.ascii	"dbg\000"
 892 0440 08       		.byte	0x8
 893 0441 CE01     		.2byte	0x1ce
 894 0443 E2030000 		.4byte	0x3e2
 895 0447 2C       		.byte	0x2c
 896 0448 09       		.uleb128 0x9
 897 0449 6D020000 		.4byte	.LASF80
 898 044d 08       		.byte	0x8
 899 044e D201     		.2byte	0x1d2
 900 0450 41010000 		.4byte	0x141
 901 0454 30       		.byte	0x30
 902 0455 08       		.uleb128 0x8
 903 0456 746D00   		.ascii	"tm\000"
 904 0459 08       		.byte	0x8
 905 045a D701     		.2byte	0x1d7
 906 045c 01060000 		.4byte	0x601
 907 0460 78       		.byte	0x78
 908 0461 09       		.uleb128 0x9
 909 0462 E3010000 		.4byte	.LASF81
 910 0466 08       		.byte	0x8
 911 0467 E301     		.2byte	0x1e3
 912 0469 F3060000 		.4byte	0x6f3
ARM GAS  /tmp/ccOHRbCf.s 			page 17


 913 046d 80       		.byte	0x80
 914 046e 00       		.byte	0
 915 046f 04       		.uleb128 0x4
 916 0470 04       		.byte	0x4
 917 0471 07       		.byte	0x7
 918 0472 D7020000 		.4byte	.LASF82
 919 0476 03       		.uleb128 0x3
 920 0477 C4010000 		.4byte	.LASF83
 921 047b 09       		.byte	0x9
 922 047c 65       		.byte	0x65
 923 047d 39030000 		.4byte	0x339
 924 0481 03       		.uleb128 0x3
 925 0482 C2020000 		.4byte	.LASF84
 926 0486 09       		.byte	0x9
 927 0487 6D       		.byte	0x6d
 928 0488 C3000000 		.4byte	0xc3
 929 048c 06       		.uleb128 0x6
 930 048d 78060000 		.4byte	.LASF85
 931 0491 04       		.byte	0x4
 932 0492 09       		.byte	0x9
 933 0493 89       		.byte	0x89
 934 0494 A5040000 		.4byte	0x4a5
 935 0498 10       		.uleb128 0x10
 936 0499 72313300 		.ascii	"r13\000"
 937 049d 09       		.byte	0x9
 938 049e 8A       		.byte	0x8a
 939 049f E6050000 		.4byte	0x5e6
 940 04a3 00       		.byte	0
 941 04a4 00       		.byte	0
 942 04a5 06       		.uleb128 0x6
 943 04a6 36000000 		.4byte	.LASF86
 944 04aa 64       		.byte	0x64
 945 04ab 0A       		.byte	0xa
 946 04ac F4       		.byte	0xf4
 947 04ad E6050000 		.4byte	0x5e6
 948 04b1 10       		.uleb128 0x10
 949 04b2 73313600 		.ascii	"s16\000"
 950 04b6 0A       		.byte	0xa
 951 04b7 F6       		.byte	0xf6
 952 04b8 76040000 		.4byte	0x476
 953 04bc 00       		.byte	0
 954 04bd 10       		.uleb128 0x10
 955 04be 73313700 		.ascii	"s17\000"
 956 04c2 0A       		.byte	0xa
 957 04c3 F7       		.byte	0xf7
 958 04c4 76040000 		.4byte	0x476
 959 04c8 04       		.byte	0x4
 960 04c9 10       		.uleb128 0x10
 961 04ca 73313800 		.ascii	"s18\000"
 962 04ce 0A       		.byte	0xa
 963 04cf F8       		.byte	0xf8
 964 04d0 76040000 		.4byte	0x476
 965 04d4 08       		.byte	0x8
 966 04d5 10       		.uleb128 0x10
 967 04d6 73313900 		.ascii	"s19\000"
 968 04da 0A       		.byte	0xa
 969 04db F9       		.byte	0xf9
ARM GAS  /tmp/ccOHRbCf.s 			page 18


 970 04dc 76040000 		.4byte	0x476
 971 04e0 0C       		.byte	0xc
 972 04e1 10       		.uleb128 0x10
 973 04e2 73323000 		.ascii	"s20\000"
 974 04e6 0A       		.byte	0xa
 975 04e7 FA       		.byte	0xfa
 976 04e8 76040000 		.4byte	0x476
 977 04ec 10       		.byte	0x10
 978 04ed 10       		.uleb128 0x10
 979 04ee 73323100 		.ascii	"s21\000"
 980 04f2 0A       		.byte	0xa
 981 04f3 FB       		.byte	0xfb
 982 04f4 76040000 		.4byte	0x476
 983 04f8 14       		.byte	0x14
 984 04f9 10       		.uleb128 0x10
 985 04fa 73323200 		.ascii	"s22\000"
 986 04fe 0A       		.byte	0xa
 987 04ff FC       		.byte	0xfc
 988 0500 76040000 		.4byte	0x476
 989 0504 18       		.byte	0x18
 990 0505 10       		.uleb128 0x10
 991 0506 73323300 		.ascii	"s23\000"
 992 050a 0A       		.byte	0xa
 993 050b FD       		.byte	0xfd
 994 050c 76040000 		.4byte	0x476
 995 0510 1C       		.byte	0x1c
 996 0511 10       		.uleb128 0x10
 997 0512 73323400 		.ascii	"s24\000"
 998 0516 0A       		.byte	0xa
 999 0517 FE       		.byte	0xfe
 1000 0518 76040000 		.4byte	0x476
 1001 051c 20       		.byte	0x20
 1002 051d 10       		.uleb128 0x10
 1003 051e 73323500 		.ascii	"s25\000"
 1004 0522 0A       		.byte	0xa
 1005 0523 FF       		.byte	0xff
 1006 0524 76040000 		.4byte	0x476
 1007 0528 24       		.byte	0x24
 1008 0529 08       		.uleb128 0x8
 1009 052a 73323600 		.ascii	"s26\000"
 1010 052e 0A       		.byte	0xa
 1011 052f 0001     		.2byte	0x100
 1012 0531 76040000 		.4byte	0x476
 1013 0535 28       		.byte	0x28
 1014 0536 08       		.uleb128 0x8
 1015 0537 73323700 		.ascii	"s27\000"
 1016 053b 0A       		.byte	0xa
 1017 053c 0101     		.2byte	0x101
 1018 053e 76040000 		.4byte	0x476
 1019 0542 2C       		.byte	0x2c
 1020 0543 08       		.uleb128 0x8
 1021 0544 73323800 		.ascii	"s28\000"
 1022 0548 0A       		.byte	0xa
 1023 0549 0201     		.2byte	0x102
 1024 054b 76040000 		.4byte	0x476
 1025 054f 30       		.byte	0x30
 1026 0550 08       		.uleb128 0x8
ARM GAS  /tmp/ccOHRbCf.s 			page 19


 1027 0551 73323900 		.ascii	"s29\000"
 1028 0555 0A       		.byte	0xa
 1029 0556 0301     		.2byte	0x103
 1030 0558 76040000 		.4byte	0x476
 1031 055c 34       		.byte	0x34
 1032 055d 08       		.uleb128 0x8
 1033 055e 73333000 		.ascii	"s30\000"
 1034 0562 0A       		.byte	0xa
 1035 0563 0401     		.2byte	0x104
 1036 0565 76040000 		.4byte	0x476
 1037 0569 38       		.byte	0x38
 1038 056a 08       		.uleb128 0x8
 1039 056b 73333100 		.ascii	"s31\000"
 1040 056f 0A       		.byte	0xa
 1041 0570 0501     		.2byte	0x105
 1042 0572 76040000 		.4byte	0x476
 1043 0576 3C       		.byte	0x3c
 1044 0577 08       		.uleb128 0x8
 1045 0578 723400   		.ascii	"r4\000"
 1046 057b 0A       		.byte	0xa
 1047 057c 0701     		.2byte	0x107
 1048 057e 76040000 		.4byte	0x476
 1049 0582 40       		.byte	0x40
 1050 0583 08       		.uleb128 0x8
 1051 0584 723500   		.ascii	"r5\000"
 1052 0587 0A       		.byte	0xa
 1053 0588 0801     		.2byte	0x108
 1054 058a 76040000 		.4byte	0x476
 1055 058e 44       		.byte	0x44
 1056 058f 08       		.uleb128 0x8
 1057 0590 723600   		.ascii	"r6\000"
 1058 0593 0A       		.byte	0xa
 1059 0594 0901     		.2byte	0x109
 1060 0596 76040000 		.4byte	0x476
 1061 059a 48       		.byte	0x48
 1062 059b 08       		.uleb128 0x8
 1063 059c 723700   		.ascii	"r7\000"
 1064 059f 0A       		.byte	0xa
 1065 05a0 0A01     		.2byte	0x10a
 1066 05a2 76040000 		.4byte	0x476
 1067 05a6 4C       		.byte	0x4c
 1068 05a7 08       		.uleb128 0x8
 1069 05a8 723800   		.ascii	"r8\000"
 1070 05ab 0A       		.byte	0xa
 1071 05ac 0B01     		.2byte	0x10b
 1072 05ae 76040000 		.4byte	0x476
 1073 05b2 50       		.byte	0x50
 1074 05b3 08       		.uleb128 0x8
 1075 05b4 723900   		.ascii	"r9\000"
 1076 05b7 0A       		.byte	0xa
 1077 05b8 0C01     		.2byte	0x10c
 1078 05ba 76040000 		.4byte	0x476
 1079 05be 54       		.byte	0x54
 1080 05bf 08       		.uleb128 0x8
 1081 05c0 72313000 		.ascii	"r10\000"
 1082 05c4 0A       		.byte	0xa
 1083 05c5 0D01     		.2byte	0x10d
ARM GAS  /tmp/ccOHRbCf.s 			page 20


 1084 05c7 76040000 		.4byte	0x476
 1085 05cb 58       		.byte	0x58
 1086 05cc 08       		.uleb128 0x8
 1087 05cd 72313100 		.ascii	"r11\000"
 1088 05d1 0A       		.byte	0xa
 1089 05d2 0E01     		.2byte	0x10e
 1090 05d4 76040000 		.4byte	0x476
 1091 05d8 5C       		.byte	0x5c
 1092 05d9 08       		.uleb128 0x8
 1093 05da 6C7200   		.ascii	"lr\000"
 1094 05dd 0A       		.byte	0xa
 1095 05de 0F01     		.2byte	0x10f
 1096 05e0 76040000 		.4byte	0x476
 1097 05e4 60       		.byte	0x60
 1098 05e5 00       		.byte	0
 1099 05e6 0A       		.uleb128 0xa
 1100 05e7 04       		.byte	0x4
 1101 05e8 A5040000 		.4byte	0x4a5
 1102 05ec 11       		.uleb128 0x11
 1103 05ed 04       		.byte	0x4
 1104 05ee 0B       		.byte	0xb
 1105 05ef 38       		.byte	0x38
 1106 05f0 01060000 		.4byte	0x601
 1107 05f4 07       		.uleb128 0x7
 1108 05f5 60060000 		.4byte	.LASF87
 1109 05f9 0B       		.byte	0xb
 1110 05fa 3C       		.byte	0x3c
 1111 05fb D3000000 		.4byte	0xd3
 1112 05ff 00       		.byte	0
 1113 0600 00       		.byte	0
 1114 0601 03       		.uleb128 0x3
 1115 0602 36030000 		.4byte	.LASF88
 1116 0606 0B       		.byte	0xb
 1117 0607 3D       		.byte	0x3d
 1118 0608 EC050000 		.4byte	0x5ec
 1119 060c 12       		.uleb128 0x12
 1120 060d 04       		.byte	0x4
 1121 060e 08       		.byte	0x8
 1122 060f FA       		.byte	0xfa
 1123 0610 69060000 		.4byte	0x669
 1124 0614 13       		.uleb128 0x13
 1125 0615 1C000000 		.4byte	.LASF89
 1126 0619 08       		.byte	0x8
 1127 061a 0101     		.2byte	0x101
 1128 061c 15010000 		.4byte	0x115
 1129 0620 13       		.uleb128 0x13
 1130 0621 7F000000 		.4byte	.LASF90
 1131 0625 08       		.byte	0x8
 1132 0626 0801     		.2byte	0x108
 1133 0628 15010000 		.4byte	0x115
 1134 062c 13       		.uleb128 0x13
 1135 062d FC060000 		.4byte	.LASF91
 1136 0631 08       		.byte	0x8
 1137 0632 0F01     		.2byte	0x10f
 1138 0634 39030000 		.4byte	0x339
 1139 0638 13       		.uleb128 0x13
 1140 0639 42010000 		.4byte	.LASF92
ARM GAS  /tmp/ccOHRbCf.s 			page 21


 1141 063d 08       		.byte	0x8
 1142 063e 1601     		.2byte	0x116
 1143 0640 69060000 		.4byte	0x669
 1144 0644 13       		.uleb128 0x13
 1145 0645 14020000 		.4byte	.LASF93
 1146 0649 08       		.byte	0x8
 1147 064a 1E01     		.2byte	0x11e
 1148 064c 94060000 		.4byte	0x694
 1149 0650 13       		.uleb128 0x13
 1150 0651 BD040000 		.4byte	.LASF94
 1151 0655 08       		.byte	0x8
 1152 0656 2701     		.2byte	0x127
 1153 0658 CB060000 		.4byte	0x6cb
 1154 065c 13       		.uleb128 0x13
 1155 065d 5A040000 		.4byte	.LASF95
 1156 0661 08       		.byte	0x8
 1157 0662 2F01     		.2byte	0x12f
 1158 0664 20010000 		.4byte	0x120
 1159 0668 00       		.byte	0
 1160 0669 0A       		.uleb128 0xa
 1161 066a 04       		.byte	0x4
 1162 066b 51020000 		.4byte	0x251
 1163 066f 06       		.uleb128 0x6
 1164 0670 9C040000 		.4byte	.LASF96
 1165 0674 0C       		.byte	0xc
 1166 0675 0C       		.byte	0xc
 1167 0676 34       		.byte	0x34
 1168 0677 94060000 		.4byte	0x694
 1169 067b 07       		.uleb128 0x7
 1170 067c 8E010000 		.4byte	.LASF97
 1171 0680 0C       		.byte	0xc
 1172 0681 35       		.byte	0x35
 1173 0682 86020000 		.4byte	0x286
 1174 0686 00       		.byte	0
 1175 0687 07       		.uleb128 0x7
 1176 0688 3D020000 		.4byte	.LASF98
 1177 068c 0C       		.byte	0xc
 1178 068d 37       		.byte	0x37
 1179 068e 2B010000 		.4byte	0x12b
 1180 0692 08       		.byte	0x8
 1181 0693 00       		.byte	0
 1182 0694 0A       		.uleb128 0xa
 1183 0695 04       		.byte	0x4
 1184 0696 6F060000 		.4byte	0x66f
 1185 069a 06       		.uleb128 0x6
 1186 069b 67060000 		.4byte	.LASF99
 1187 069f 10       		.byte	0x10
 1188 06a0 0D       		.byte	0xd
 1189 06a1 39       		.byte	0x39
 1190 06a2 CB060000 		.4byte	0x6cb
 1191 06a6 07       		.uleb128 0x7
 1192 06a7 05010000 		.4byte	.LASF100
 1193 06ab 0D       		.byte	0xd
 1194 06ac 3A       		.byte	0x3a
 1195 06ad 86020000 		.4byte	0x286
 1196 06b1 00       		.byte	0
 1197 06b2 07       		.uleb128 0x7
ARM GAS  /tmp/ccOHRbCf.s 			page 22


 1198 06b3 2C070000 		.4byte	.LASF101
 1199 06b7 0D       		.byte	0xd
 1200 06b8 3C       		.byte	0x3c
 1201 06b9 5C020000 		.4byte	0x25c
 1202 06bd 08       		.byte	0x8
 1203 06be 07       		.uleb128 0x7
 1204 06bf 26060000 		.4byte	.LASF102
 1205 06c3 0D       		.byte	0xd
 1206 06c4 3E       		.byte	0x3e
 1207 06c5 19070000 		.4byte	0x719
 1208 06c9 0C       		.byte	0xc
 1209 06ca 00       		.byte	0
 1210 06cb 0A       		.uleb128 0xa
 1211 06cc 04       		.byte	0x4
 1212 06cd 9A060000 		.4byte	0x69a
 1213 06d1 0A       		.uleb128 0xa
 1214 06d2 04       		.byte	0x4
 1215 06d3 D7060000 		.4byte	0x6d7
 1216 06d7 14       		.uleb128 0x14
 1217 06d8 DC060000 		.4byte	0x6dc
 1218 06dc 04       		.uleb128 0x4
 1219 06dd 01       		.byte	0x1
 1220 06de 08       		.byte	0x8
 1221 06df FD040000 		.4byte	.LASF103
 1222 06e3 05       		.uleb128 0x5
 1223 06e4 36010000 		.4byte	0x136
 1224 06e8 0A       		.uleb128 0xa
 1225 06e9 04       		.byte	0x4
 1226 06ea 3B030000 		.4byte	0x33b
 1227 06ee 05       		.uleb128 0x5
 1228 06ef D1060000 		.4byte	0x6d1
 1229 06f3 15       		.uleb128 0x15
 1230 06f4 81040000 		.4byte	0x481
 1231 06f8 03070000 		.4byte	0x703
 1232 06fc 16       		.uleb128 0x16
 1233 06fd 6F040000 		.4byte	0x46f
 1234 0701 3A       		.byte	0x3a
 1235 0702 00       		.byte	0
 1236 0703 03       		.uleb128 0x3
 1237 0704 00000000 		.4byte	.LASF104
 1238 0708 0E       		.byte	0xe
 1239 0709 34       		.byte	0x34
 1240 070a 28030000 		.4byte	0x328
 1241 070e 03       		.uleb128 0x3
 1242 070f D5010000 		.4byte	.LASF105
 1243 0713 0D       		.byte	0xd
 1244 0714 34       		.byte	0x34
 1245 0715 9A060000 		.4byte	0x69a
 1246 0719 0A       		.uleb128 0xa
 1247 071a 04       		.byte	0x4
 1248 071b 0E070000 		.4byte	0x70e
 1249 071f 03       		.uleb128 0x3
 1250 0720 5B000000 		.4byte	.LASF106
 1251 0724 0F       		.byte	0xf
 1252 0725 36       		.byte	0x36
 1253 0726 2A070000 		.4byte	0x72a
 1254 072a 0A       		.uleb128 0xa
ARM GAS  /tmp/ccOHRbCf.s 			page 23


 1255 072b 04       		.byte	0x4
 1256 072c 30070000 		.4byte	0x730
 1257 0730 17       		.uleb128 0x17
 1258 0731 39030000 		.4byte	0x339
 1259 0735 3F070000 		.4byte	0x73f
 1260 0739 0D       		.uleb128 0xd
 1261 073a 2C000000 		.4byte	0x2c
 1262 073e 00       		.byte	0
 1263 073f 03       		.uleb128 0x3
 1264 0740 78010000 		.4byte	.LASF107
 1265 0744 10       		.byte	0x10
 1266 0745 3C       		.byte	0x3c
 1267 0746 4A070000 		.4byte	0x74a
 1268 074a 06       		.uleb128 0x6
 1269 074b 42070000 		.4byte	.LASF108
 1270 074f 20       		.byte	0x20
 1271 0750 10       		.byte	0x10
 1272 0751 4F       		.byte	0x4f
 1273 0752 7B070000 		.4byte	0x77b
 1274 0756 07       		.uleb128 0x7
 1275 0757 F1060000 		.4byte	.LASF109
 1276 075b 10       		.byte	0x10
 1277 075c 50       		.byte	0x50
 1278 075d 1F070000 		.4byte	0x71f
 1279 0761 00       		.byte	0
 1280 0762 07       		.uleb128 0x7
 1281 0763 88000000 		.4byte	.LASF110
 1282 0767 10       		.byte	0x10
 1283 0768 52       		.byte	0x52
 1284 0769 9A070000 		.4byte	0x79a
 1285 076d 08       		.byte	0x8
 1286 076e 07       		.uleb128 0x7
 1287 076f F7000000 		.4byte	.LASF111
 1288 0773 10       		.byte	0x10
 1289 0774 54       		.byte	0x54
 1290 0775 0E070000 		.4byte	0x70e
 1291 0779 10       		.byte	0x10
 1292 077a 00       		.byte	0
 1293 077b 12       		.uleb128 0x12
 1294 077c 04       		.byte	0x4
 1295 077d 10       		.byte	0x10
 1296 077e 44       		.byte	0x44
 1297 077f 9A070000 		.4byte	0x79a
 1298 0783 18       		.uleb128 0x18
 1299 0784 B8000000 		.4byte	.LASF112
 1300 0788 10       		.byte	0x10
 1301 0789 45       		.byte	0x45
 1302 078a BB070000 		.4byte	0x7bb
 1303 078e 18       		.uleb128 0x18
 1304 078f DC040000 		.4byte	.LASF113
 1305 0793 10       		.byte	0x10
 1306 0794 46       		.byte	0x46
 1307 0795 C1070000 		.4byte	0x7c1
 1308 0799 00       		.byte	0
 1309 079a 19       		.uleb128 0x19
 1310 079b 21040000 		.4byte	.LASF144
 1311 079f 08       		.byte	0x8
ARM GAS  /tmp/ccOHRbCf.s 			page 24


 1312 07a0 10       		.byte	0x10
 1313 07a1 41       		.byte	0x41
 1314 07a2 BB070000 		.4byte	0x7bb
 1315 07a6 18       		.uleb128 0x18
 1316 07a7 DD010000 		.4byte	.LASF114
 1317 07ab 10       		.byte	0x10
 1318 07ac 42       		.byte	0x42
 1319 07ad 81040000 		.4byte	0x481
 1320 07b1 1A       		.uleb128 0x1a
 1321 07b2 6800     		.ascii	"h\000"
 1322 07b4 10       		.byte	0x10
 1323 07b5 49       		.byte	0x49
 1324 07b6 C7070000 		.4byte	0x7c7
 1325 07ba 00       		.byte	0
 1326 07bb 0A       		.uleb128 0xa
 1327 07bc 04       		.byte	0x4
 1328 07bd 9A070000 		.4byte	0x79a
 1329 07c1 0A       		.uleb128 0xa
 1330 07c2 04       		.byte	0x4
 1331 07c3 3F070000 		.4byte	0x73f
 1332 07c7 11       		.uleb128 0x11
 1333 07c8 08       		.byte	0x8
 1334 07c9 10       		.byte	0x10
 1335 07ca 43       		.byte	0x43
 1336 07cb E6070000 		.4byte	0x7e6
 1337 07cf 10       		.uleb128 0x10
 1338 07d0 7500     		.ascii	"u\000"
 1339 07d2 10       		.byte	0x10
 1340 07d3 47       		.byte	0x47
 1341 07d4 7B070000 		.4byte	0x77b
 1342 07d8 00       		.byte	0
 1343 07d9 07       		.uleb128 0x7
 1344 07da 0A070000 		.4byte	.LASF115
 1345 07de 10       		.byte	0x10
 1346 07df 48       		.byte	0x48
 1347 07e0 2C000000 		.4byte	0x2c
 1348 07e4 04       		.byte	0x4
 1349 07e5 00       		.byte	0
 1350 07e6 06       		.uleb128 0x6
 1351 07e7 B0060000 		.4byte	.LASF116
 1352 07eb 04       		.byte	0x4
 1353 07ec 11       		.byte	0x11
 1354 07ed 38       		.byte	0x38
 1355 07ee FF070000 		.4byte	0x7ff
 1356 07f2 07       		.uleb128 0x7
 1357 07f3 6C030000 		.4byte	.LASF117
 1358 07f7 11       		.byte	0x11
 1359 07f8 39       		.byte	0x39
 1360 07f9 FF070000 		.4byte	0x7ff
 1361 07fd 00       		.byte	0
 1362 07fe 00       		.byte	0
 1363 07ff 0A       		.uleb128 0xa
 1364 0800 04       		.byte	0x4
 1365 0801 E6070000 		.4byte	0x7e6
 1366 0805 11       		.uleb128 0x11
 1367 0806 0C       		.byte	0xc
 1368 0807 11       		.byte	0x11
ARM GAS  /tmp/ccOHRbCf.s 			page 25


 1369 0808 40       		.byte	0x40
 1370 0809 32080000 		.4byte	0x832
 1371 080d 07       		.uleb128 0x7
 1372 080e 70060000 		.4byte	.LASF118
 1373 0812 11       		.byte	0x11
 1374 0813 41       		.byte	0x41
 1375 0814 FF070000 		.4byte	0x7ff
 1376 0818 00       		.byte	0
 1377 0819 07       		.uleb128 0x7
 1378 081a 27030000 		.4byte	.LASF119
 1379 081e 11       		.byte	0x11
 1380 081f 42       		.byte	0x42
 1381 0820 2C000000 		.4byte	0x2c
 1382 0824 04       		.byte	0x4
 1383 0825 07       		.uleb128 0x7
 1384 0826 B8010000 		.4byte	.LASF120
 1385 082a 11       		.byte	0x11
 1386 082b 44       		.byte	0x44
 1387 082c 1F070000 		.4byte	0x71f
 1388 0830 08       		.byte	0x8
 1389 0831 00       		.byte	0
 1390 0832 03       		.uleb128 0x3
 1391 0833 2F020000 		.4byte	.LASF121
 1392 0837 11       		.byte	0x11
 1393 0838 46       		.byte	0x46
 1394 0839 05080000 		.4byte	0x805
 1395 083d 1B       		.uleb128 0x1b
 1396 083e 98030000 		.4byte	.LASF122
 1397 0842 02       		.byte	0x2
 1398 0843 5401     		.2byte	0x154
 1399 0845 03       		.byte	0x3
 1400 0846 1B       		.uleb128 0x1b
 1401 0847 54030000 		.4byte	.LASF123
 1402 084b 02       		.byte	0x2
 1403 084c 4901     		.2byte	0x149
 1404 084e 03       		.byte	0x3
 1405 084f 1B       		.uleb128 0x1b
 1406 0850 51000000 		.4byte	.LASF124
 1407 0854 0A       		.byte	0xa
 1408 0855 BC01     		.2byte	0x1bc
 1409 0857 03       		.byte	0x3
 1410 0858 1B       		.uleb128 0x1b
 1411 0859 1F010000 		.4byte	.LASF125
 1412 085d 0A       		.byte	0xa
 1413 085e CA01     		.2byte	0x1ca
 1414 0860 03       		.byte	0x3
 1415 0861 1B       		.uleb128 0x1b
 1416 0862 79040000 		.4byte	.LASF126
 1417 0866 12       		.byte	0x12
 1418 0867 5A01     		.2byte	0x15a
 1419 0869 03       		.byte	0x3
 1420 086a 1C       		.uleb128 0x1c
 1421 086b 1A070000 		.4byte	.LASF145
 1422 086f 12       		.byte	0x12
 1423 0870 6601     		.2byte	0x166
 1424 0872 03       		.byte	0x3
 1425 0873 85080000 		.4byte	0x885
ARM GAS  /tmp/ccOHRbCf.s 			page 26


 1426 0877 1D       		.uleb128 0x1d
 1427 0878 70040000 		.4byte	.LASF127
 1428 087c 95080000 		.4byte	0x895
 1429 0880 1A070000 		.4byte	.LASF145
 1430 0884 00       		.byte	0
 1431 0885 15       		.uleb128 0x15
 1432 0886 DC060000 		.4byte	0x6dc
 1433 088a 95080000 		.4byte	0x895
 1434 088e 16       		.uleb128 0x16
 1435 088f 6F040000 		.4byte	0x46f
 1436 0893 0B       		.byte	0xb
 1437 0894 00       		.byte	0
 1438 0895 14       		.uleb128 0x14
 1439 0896 85080000 		.4byte	0x885
 1440 089a 1E       		.uleb128 0x1e
 1441 089b B6020000 		.4byte	.LASF128
 1442 089f 01       		.byte	0x1
 1443 08a0 44       		.byte	0x44
 1444 08a1 5C020000 		.4byte	0x25c
 1445 08a5 00000000 		.4byte	.LFB219
 1446 08a9 0C000000 		.4byte	.LFE219-.LFB219
 1447 08ad 01       		.uleb128 0x1
 1448 08ae 9C       		.byte	0x9c
 1449 08af 3E090000 		.4byte	0x93e
 1450 08b3 1F       		.uleb128 0x1f
 1451 08b4 747000   		.ascii	"tp\000"
 1452 08b7 01       		.byte	0x1
 1453 08b8 44       		.byte	0x44
 1454 08b9 5C020000 		.4byte	0x25c
 1455 08bd 01       		.uleb128 0x1
 1456 08be 50       		.byte	0x50
 1457 08bf 20       		.uleb128 0x20
 1458 08c0 70040000 		.4byte	.LASF127
 1459 08c4 3E090000 		.4byte	0x93e
 1460 08c8 21       		.uleb128 0x21
 1461 08c9 61080000 		.4byte	0x861
 1462 08cd 00000000 		.4byte	.LBB54
 1463 08d1 02000000 		.4byte	.LBE54-.LBB54
 1464 08d5 01       		.byte	0x1
 1465 08d6 46       		.byte	0x46
 1466 08d7 FD080000 		.4byte	0x8fd
 1467 08db 22       		.uleb128 0x22
 1468 08dc 4F080000 		.4byte	0x84f
 1469 08e0 00000000 		.4byte	.LBB55
 1470 08e4 02000000 		.4byte	.LBE55-.LBB55
 1471 08e8 12       		.byte	0x12
 1472 08e9 5C01     		.2byte	0x15c
 1473 08eb 23       		.uleb128 0x23
 1474 08ec 3D080000 		.4byte	0x83d
 1475 08f0 00000000 		.4byte	.LBB56
 1476 08f4 02000000 		.4byte	.LBE56-.LBB56
 1477 08f8 0A       		.byte	0xa
 1478 08f9 C101     		.2byte	0x1c1
 1479 08fb 00       		.byte	0
 1480 08fc 00       		.byte	0
 1481 08fd 24       		.uleb128 0x24
 1482 08fe 6A080000 		.4byte	0x86a
ARM GAS  /tmp/ccOHRbCf.s 			page 27


 1483 0902 08000000 		.4byte	.LBB58
 1484 0906 02000000 		.4byte	.LBE58-.LBB58
 1485 090a 01       		.byte	0x1
 1486 090b 49       		.byte	0x49
 1487 090c 25       		.uleb128 0x25
 1488 090d 08000000 		.4byte	.LBB59
 1489 0911 02000000 		.4byte	.LBE59-.LBB59
 1490 0915 26       		.uleb128 0x26
 1491 0916 77080000 		.4byte	0x877
 1492 091a 22       		.uleb128 0x22
 1493 091b 58080000 		.4byte	0x858
 1494 091f 08000000 		.4byte	.LBB60
 1495 0923 02000000 		.4byte	.LBE60-.LBB60
 1496 0927 12       		.byte	0x12
 1497 0928 7301     		.2byte	0x173
 1498 092a 23       		.uleb128 0x23
 1499 092b 46080000 		.4byte	0x846
 1500 092f 08000000 		.4byte	.LBB61
 1501 0933 02000000 		.4byte	.LBE61-.LBB61
 1502 0937 0A       		.byte	0xa
 1503 0938 CF01     		.2byte	0x1cf
 1504 093a 00       		.byte	0
 1505 093b 00       		.byte	0
 1506 093c 00       		.byte	0
 1507 093d 00       		.byte	0
 1508 093e 14       		.uleb128 0x14
 1509 093f 85080000 		.4byte	0x885
 1510 0943 27       		.uleb128 0x27
 1511 0944 83040000 		.4byte	.LASF146
 1512 0948 01       		.byte	0x1
 1513 0949 5B       		.byte	0x5b
 1514 094a 00000000 		.4byte	.LFB220
 1515 094e 46000000 		.4byte	.LFE220-.LFB220
 1516 0952 01       		.uleb128 0x1
 1517 0953 9C       		.byte	0x9c
 1518 0954 160A0000 		.4byte	0xa16
 1519 0958 28       		.uleb128 0x28
 1520 0959 747000   		.ascii	"tp\000"
 1521 095c 01       		.byte	0x1
 1522 095d 5B       		.byte	0x5b
 1523 095e 5C020000 		.4byte	0x25c
 1524 0962 00000000 		.4byte	.LLST0
 1525 0966 29       		.uleb128 0x29
 1526 0967 A6030000 		.4byte	.LASF132
 1527 096b 01       		.byte	0x1
 1528 096c 5C       		.byte	0x5c
 1529 096d F4000000 		.4byte	0xf4
 1530 0971 45000000 		.4byte	.LLST1
 1531 0975 20       		.uleb128 0x20
 1532 0976 70040000 		.4byte	.LASF127
 1533 097a 260A0000 		.4byte	0xa26
 1534 097e 21       		.uleb128 0x21
 1535 097f 61080000 		.4byte	0x861
 1536 0983 02000000 		.4byte	.LBB63
 1537 0987 02000000 		.4byte	.LBE63-.LBB63
 1538 098b 01       		.byte	0x1
 1539 098c 5E       		.byte	0x5e
ARM GAS  /tmp/ccOHRbCf.s 			page 28


 1540 098d B3090000 		.4byte	0x9b3
 1541 0991 22       		.uleb128 0x22
 1542 0992 4F080000 		.4byte	0x84f
 1543 0996 02000000 		.4byte	.LBB64
 1544 099a 02000000 		.4byte	.LBE64-.LBB64
 1545 099e 12       		.byte	0x12
 1546 099f 5C01     		.2byte	0x15c
 1547 09a1 23       		.uleb128 0x23
 1548 09a2 3D080000 		.4byte	0x83d
 1549 09a6 02000000 		.4byte	.LBB65
 1550 09aa 02000000 		.4byte	.LBE65-.LBB65
 1551 09ae 0A       		.byte	0xa
 1552 09af C101     		.2byte	0x1c1
 1553 09b1 00       		.byte	0
 1554 09b2 00       		.byte	0
 1555 09b3 21       		.uleb128 0x21
 1556 09b4 6A080000 		.4byte	0x86a
 1557 09b8 0C000000 		.4byte	.LBB67
 1558 09bc 02000000 		.4byte	.LBE67-.LBB67
 1559 09c0 01       		.byte	0x1
 1560 09c1 62       		.byte	0x62
 1561 09c2 F7090000 		.4byte	0x9f7
 1562 09c6 25       		.uleb128 0x25
 1563 09c7 0C000000 		.4byte	.LBB68
 1564 09cb 02000000 		.4byte	.LBE68-.LBB68
 1565 09cf 26       		.uleb128 0x26
 1566 09d0 77080000 		.4byte	0x877
 1567 09d4 22       		.uleb128 0x22
 1568 09d5 58080000 		.4byte	0x858
 1569 09d9 0C000000 		.4byte	.LBB69
 1570 09dd 02000000 		.4byte	.LBE69-.LBB69
 1571 09e1 12       		.byte	0x12
 1572 09e2 7301     		.2byte	0x173
 1573 09e4 23       		.uleb128 0x23
 1574 09e5 46080000 		.4byte	0x846
 1575 09e9 0C000000 		.4byte	.LBB70
 1576 09ed 02000000 		.4byte	.LBE70-.LBB70
 1577 09f1 0A       		.byte	0xa
 1578 09f2 CF01     		.2byte	0x1cf
 1579 09f4 00       		.byte	0
 1580 09f5 00       		.byte	0
 1581 09f6 00       		.byte	0
 1582 09f7 2A       		.uleb128 0x2a
 1583 09f8 36000000 		.4byte	.LVL4
 1584 09fc EB0C0000 		.4byte	0xceb
 1585 0a00 0C0A0000 		.4byte	0xa0c
 1586 0a04 2B       		.uleb128 0x2b
 1587 0a05 01       		.uleb128 0x1
 1588 0a06 50       		.byte	0x50
 1589 0a07 03       		.uleb128 0x3
 1590 0a08 F3       		.byte	0xf3
 1591 0a09 01       		.uleb128 0x1
 1592 0a0a 50       		.byte	0x50
 1593 0a0b 00       		.byte	0
 1594 0a0c 2C       		.uleb128 0x2c
 1595 0a0d 46000000 		.4byte	.LVL6
 1596 0a11 FC0C0000 		.4byte	0xcfc
ARM GAS  /tmp/ccOHRbCf.s 			page 29


 1597 0a15 00       		.byte	0
 1598 0a16 15       		.uleb128 0x15
 1599 0a17 DC060000 		.4byte	0x6dc
 1600 0a1b 260A0000 		.4byte	0xa26
 1601 0a1f 16       		.uleb128 0x16
 1602 0a20 6F040000 		.4byte	0x46f
 1603 0a24 0C       		.byte	0xc
 1604 0a25 00       		.byte	0
 1605 0a26 14       		.uleb128 0x14
 1606 0a27 160A0000 		.4byte	0xa16
 1607 0a2b 1E       		.uleb128 0x1e
 1608 0a2c 5B010000 		.4byte	.LASF129
 1609 0a30 01       		.byte	0x1
 1610 0a31 98       		.byte	0x98
 1611 0a32 5C020000 		.4byte	0x25c
 1612 0a36 00000000 		.4byte	.LFB221
 1613 0a3a 34000000 		.4byte	.LFE221-.LFB221
 1614 0a3e 01       		.uleb128 0x1
 1615 0a3f 9C       		.byte	0x9c
 1616 0a40 7C0B0000 		.4byte	0xb7c
 1617 0a44 2D       		.uleb128 0x2d
 1618 0a45 B2000000 		.4byte	.LASF130
 1619 0a49 01       		.byte	0x1
 1620 0a4a 98       		.byte	0x98
 1621 0a4b C1070000 		.4byte	0x7c1
 1622 0a4f 7C000000 		.4byte	.LLST2
 1623 0a53 2D       		.uleb128 0x2d
 1624 0a54 0A070000 		.4byte	.LASF115
 1625 0a58 01       		.byte	0x1
 1626 0a59 98       		.byte	0x98
 1627 0a5a 2C000000 		.4byte	0x2c
 1628 0a5e 9D000000 		.4byte	.LLST3
 1629 0a62 2D       		.uleb128 0x2d
 1630 0a63 47030000 		.4byte	.LASF131
 1631 0a67 01       		.byte	0x1
 1632 0a68 99       		.byte	0x99
 1633 0a69 0A010000 		.4byte	0x10a
 1634 0a6d BB000000 		.4byte	.LLST4
 1635 0a71 28       		.uleb128 0x28
 1636 0a72 706600   		.ascii	"pf\000"
 1637 0a75 01       		.byte	0x1
 1638 0a76 99       		.byte	0x99
 1639 0a77 03070000 		.4byte	0x703
 1640 0a7b D9000000 		.4byte	.LLST5
 1641 0a7f 1F       		.uleb128 0x1f
 1642 0a80 61726700 		.ascii	"arg\000"
 1643 0a84 01       		.byte	0x1
 1644 0a85 99       		.byte	0x99
 1645 0a86 39030000 		.4byte	0x339
 1646 0a8a 02       		.uleb128 0x2
 1647 0a8b 91       		.byte	0x91
 1648 0a8c 00       		.sleb128 0
 1649 0a8d 2E       		.uleb128 0x2e
 1650 0a8e 77737000 		.ascii	"wsp\000"
 1651 0a92 01       		.byte	0x1
 1652 0a93 9A       		.byte	0x9a
 1653 0a94 39030000 		.4byte	0x339
ARM GAS  /tmp/ccOHRbCf.s 			page 30


 1654 0a98 F7000000 		.4byte	.LLST6
 1655 0a9c 2E       		.uleb128 0x2e
 1656 0a9d 747000   		.ascii	"tp\000"
 1657 0aa0 01       		.byte	0x1
 1658 0aa1 9B       		.byte	0x9b
 1659 0aa2 5C020000 		.4byte	0x25c
 1660 0aa6 0A010000 		.4byte	.LLST7
 1661 0aaa 21       		.uleb128 0x21
 1662 0aab 61080000 		.4byte	0x861
 1663 0aaf 10000000 		.4byte	.LBB72
 1664 0ab3 02000000 		.4byte	.LBE72-.LBB72
 1665 0ab7 01       		.byte	0x1
 1666 0ab8 AB       		.byte	0xab
 1667 0ab9 DF0A0000 		.4byte	0xadf
 1668 0abd 22       		.uleb128 0x22
 1669 0abe 4F080000 		.4byte	0x84f
 1670 0ac2 10000000 		.4byte	.LBB73
 1671 0ac6 02000000 		.4byte	.LBE73-.LBB73
 1672 0aca 12       		.byte	0x12
 1673 0acb 5C01     		.2byte	0x15c
 1674 0acd 23       		.uleb128 0x23
 1675 0ace 3D080000 		.4byte	0x83d
 1676 0ad2 10000000 		.4byte	.LBB74
 1677 0ad6 02000000 		.4byte	.LBE74-.LBB74
 1678 0ada 0A       		.byte	0xa
 1679 0adb C101     		.2byte	0x1c1
 1680 0add 00       		.byte	0
 1681 0ade 00       		.byte	0
 1682 0adf 21       		.uleb128 0x21
 1683 0ae0 6A080000 		.4byte	0x86a
 1684 0ae4 2C000000 		.4byte	.LBB76
 1685 0ae8 02000000 		.4byte	.LBE76-.LBB76
 1686 0aec 01       		.byte	0x1
 1687 0aed AF       		.byte	0xaf
 1688 0aee 230B0000 		.4byte	0xb23
 1689 0af2 25       		.uleb128 0x25
 1690 0af3 2C000000 		.4byte	.LBB77
 1691 0af7 02000000 		.4byte	.LBE77-.LBB77
 1692 0afb 26       		.uleb128 0x26
 1693 0afc 77080000 		.4byte	0x877
 1694 0b00 22       		.uleb128 0x22
 1695 0b01 58080000 		.4byte	0x858
 1696 0b05 2C000000 		.4byte	.LBB78
 1697 0b09 02000000 		.4byte	.LBE78-.LBB78
 1698 0b0d 12       		.byte	0x12
 1699 0b0e 7301     		.2byte	0x173
 1700 0b10 23       		.uleb128 0x23
 1701 0b11 46080000 		.4byte	0x846
 1702 0b15 2C000000 		.4byte	.LBB79
 1703 0b19 02000000 		.4byte	.LBE79-.LBB79
 1704 0b1d 0A       		.byte	0xa
 1705 0b1e CF01     		.2byte	0x1cf
 1706 0b20 00       		.byte	0
 1707 0b21 00       		.byte	0
 1708 0b22 00       		.byte	0
 1709 0b23 2F       		.uleb128 0x2f
 1710 0b24 0E000000 		.4byte	.LVL8
ARM GAS  /tmp/ccOHRbCf.s 			page 31


 1711 0b28 120D0000 		.4byte	0xd12
 1712 0b2c 3E0B0000 		.4byte	0xb3e
 1713 0b30 2B       		.uleb128 0x2b
 1714 0b31 01       		.uleb128 0x1
 1715 0b32 51       		.byte	0x51
 1716 0b33 02       		.uleb128 0x2
 1717 0b34 77       		.byte	0x77
 1718 0b35 00       		.sleb128 0
 1719 0b36 2B       		.uleb128 0x2b
 1720 0b37 01       		.uleb128 0x1
 1721 0b38 50       		.byte	0x50
 1722 0b39 03       		.uleb128 0x3
 1723 0b3a F3       		.byte	0xf3
 1724 0b3b 01       		.uleb128 0x1
 1725 0b3c 50       		.byte	0x50
 1726 0b3d 00       		.byte	0
 1727 0b3e 2F       		.uleb128 0x2f
 1728 0b3f 20000000 		.4byte	.LVL9
 1729 0b43 2C0D0000 		.4byte	0xd2c
 1730 0b47 660B0000 		.4byte	0xb66
 1731 0b4b 2B       		.uleb128 0x2b
 1732 0b4c 01       		.uleb128 0x1
 1733 0b4d 53       		.byte	0x53
 1734 0b4e 02       		.uleb128 0x2
 1735 0b4f 75       		.byte	0x75
 1736 0b50 00       		.sleb128 0
 1737 0b51 2B       		.uleb128 0x2b
 1738 0b52 01       		.uleb128 0x1
 1739 0b53 52       		.byte	0x52
 1740 0b54 02       		.uleb128 0x2
 1741 0b55 76       		.byte	0x76
 1742 0b56 00       		.sleb128 0
 1743 0b57 2B       		.uleb128 0x2b
 1744 0b58 01       		.uleb128 0x1
 1745 0b59 51       		.byte	0x51
 1746 0b5a 02       		.uleb128 0x2
 1747 0b5b 77       		.byte	0x77
 1748 0b5c 00       		.sleb128 0
 1749 0b5d 2B       		.uleb128 0x2b
 1750 0b5e 02       		.uleb128 0x2
 1751 0b5f 7D       		.byte	0x7d
 1752 0b60 00       		.sleb128 0
 1753 0b61 03       		.uleb128 0x3
 1754 0b62 91       		.byte	0x91
 1755 0b63 00       		.sleb128 0
 1756 0b64 06       		.byte	0x6
 1757 0b65 00       		.byte	0
 1758 0b66 30       		.uleb128 0x30
 1759 0b67 2C000000 		.4byte	.LVL11
 1760 0b6b 550D0000 		.4byte	0xd55
 1761 0b6f 2B       		.uleb128 0x2b
 1762 0b70 01       		.uleb128 0x1
 1763 0b71 51       		.byte	0x51
 1764 0b72 01       		.uleb128 0x1
 1765 0b73 30       		.byte	0x30
 1766 0b74 2B       		.uleb128 0x2b
 1767 0b75 01       		.uleb128 0x1
ARM GAS  /tmp/ccOHRbCf.s 			page 32


 1768 0b76 50       		.byte	0x50
 1769 0b77 02       		.uleb128 0x2
 1770 0b78 74       		.byte	0x74
 1771 0b79 00       		.sleb128 0
 1772 0b7a 00       		.byte	0
 1773 0b7b 00       		.byte	0
 1774 0b7c 1E       		.uleb128 0x1e
 1775 0b7d 96010000 		.4byte	.LASF133
 1776 0b81 01       		.byte	0x1
 1777 0b82 CC       		.byte	0xcc
 1778 0b83 5C020000 		.4byte	0x25c
 1779 0b87 00000000 		.4byte	.LFB222
 1780 0b8b 3C000000 		.4byte	.LFE222-.LFB222
 1781 0b8f 01       		.uleb128 0x1
 1782 0b90 9C       		.byte	0x9c
 1783 0b91 B90C0000 		.4byte	0xcb9
 1784 0b95 28       		.uleb128 0x28
 1785 0b96 6D7000   		.ascii	"mp\000"
 1786 0b99 01       		.byte	0x1
 1787 0b9a CC       		.byte	0xcc
 1788 0b9b B90C0000 		.4byte	0xcb9
 1789 0b9f 28010000 		.4byte	.LLST8
 1790 0ba3 2D       		.uleb128 0x2d
 1791 0ba4 47030000 		.4byte	.LASF131
 1792 0ba8 01       		.byte	0x1
 1793 0ba9 CC       		.byte	0xcc
 1794 0baa 0A010000 		.4byte	0x10a
 1795 0bae 46010000 		.4byte	.LLST9
 1796 0bb2 28       		.uleb128 0x28
 1797 0bb3 706600   		.ascii	"pf\000"
 1798 0bb6 01       		.byte	0x1
 1799 0bb7 CD       		.byte	0xcd
 1800 0bb8 03070000 		.4byte	0x703
 1801 0bbc 64010000 		.4byte	.LLST10
 1802 0bc0 28       		.uleb128 0x28
 1803 0bc1 61726700 		.ascii	"arg\000"
 1804 0bc5 01       		.byte	0x1
 1805 0bc6 CD       		.byte	0xcd
 1806 0bc7 39030000 		.4byte	0x339
 1807 0bcb 82010000 		.4byte	.LLST11
 1808 0bcf 2E       		.uleb128 0x2e
 1809 0bd0 77737000 		.ascii	"wsp\000"
 1810 0bd4 01       		.byte	0x1
 1811 0bd5 CE       		.byte	0xce
 1812 0bd6 39030000 		.4byte	0x339
 1813 0bda A0010000 		.4byte	.LLST12
 1814 0bde 2E       		.uleb128 0x2e
 1815 0bdf 747000   		.ascii	"tp\000"
 1816 0be2 01       		.byte	0x1
 1817 0be3 CF       		.byte	0xcf
 1818 0be4 5C020000 		.4byte	0x25c
 1819 0be8 B3010000 		.4byte	.LLST13
 1820 0bec 20       		.uleb128 0x20
 1821 0bed 70040000 		.4byte	.LASF127
 1822 0bf1 CF0C0000 		.4byte	0xccf
 1823 0bf5 21       		.uleb128 0x21
 1824 0bf6 61080000 		.4byte	0x861
ARM GAS  /tmp/ccOHRbCf.s 			page 33


 1825 0bfa 14000000 		.4byte	.LBB81
 1826 0bfe 02000000 		.4byte	.LBE81-.LBB81
 1827 0c02 01       		.byte	0x1
 1828 0c03 E1       		.byte	0xe1
 1829 0c04 2A0C0000 		.4byte	0xc2a
 1830 0c08 22       		.uleb128 0x22
 1831 0c09 4F080000 		.4byte	0x84f
 1832 0c0d 14000000 		.4byte	.LBB82
 1833 0c11 02000000 		.4byte	.LBE82-.LBB82
 1834 0c15 12       		.byte	0x12
 1835 0c16 5C01     		.2byte	0x15c
 1836 0c18 23       		.uleb128 0x23
 1837 0c19 3D080000 		.4byte	0x83d
 1838 0c1d 14000000 		.4byte	.LBB83
 1839 0c21 02000000 		.4byte	.LBE83-.LBB83
 1840 0c25 0A       		.byte	0xa
 1841 0c26 C101     		.2byte	0x1c1
 1842 0c28 00       		.byte	0
 1843 0c29 00       		.byte	0
 1844 0c2a 21       		.uleb128 0x21
 1845 0c2b 6A080000 		.4byte	0x86a
 1846 0c2f 32000000 		.4byte	.LBB85
 1847 0c33 02000000 		.4byte	.LBE85-.LBB85
 1848 0c37 01       		.byte	0x1
 1849 0c38 E6       		.byte	0xe6
 1850 0c39 6E0C0000 		.4byte	0xc6e
 1851 0c3d 25       		.uleb128 0x25
 1852 0c3e 32000000 		.4byte	.LBB86
 1853 0c42 02000000 		.4byte	.LBE86-.LBB86
 1854 0c46 26       		.uleb128 0x26
 1855 0c47 77080000 		.4byte	0x877
 1856 0c4b 22       		.uleb128 0x22
 1857 0c4c 58080000 		.4byte	0x858
 1858 0c50 32000000 		.4byte	.LBB87
 1859 0c54 02000000 		.4byte	.LBE87-.LBB87
 1860 0c58 12       		.byte	0x12
 1861 0c59 7301     		.2byte	0x173
 1862 0c5b 23       		.uleb128 0x23
 1863 0c5c 46080000 		.4byte	0x846
 1864 0c60 32000000 		.4byte	.LBB88
 1865 0c64 02000000 		.4byte	.LBE88-.LBB88
 1866 0c68 0A       		.byte	0xa
 1867 0c69 CF01     		.2byte	0x1cf
 1868 0c6b 00       		.byte	0
 1869 0c6c 00       		.byte	0
 1870 0c6d 00       		.byte	0
 1871 0c6e 2F       		.uleb128 0x2f
 1872 0c6f 12000000 		.4byte	.LVL14
 1873 0c73 6C0D0000 		.4byte	0xd6c
 1874 0c77 820C0000 		.4byte	0xc82
 1875 0c7b 2B       		.uleb128 0x2b
 1876 0c7c 01       		.uleb128 0x1
 1877 0c7d 50       		.byte	0x50
 1878 0c7e 02       		.uleb128 0x2
 1879 0c7f 75       		.byte	0x75
 1880 0c80 00       		.sleb128 0
 1881 0c81 00       		.byte	0
ARM GAS  /tmp/ccOHRbCf.s 			page 34


 1882 0c82 2F       		.uleb128 0x2f
 1883 0c83 24000000 		.4byte	.LVL15
 1884 0c87 2C0D0000 		.4byte	0xd2c
 1885 0c8b A30C0000 		.4byte	0xca3
 1886 0c8f 2B       		.uleb128 0x2b
 1887 0c90 01       		.uleb128 0x1
 1888 0c91 53       		.byte	0x53
 1889 0c92 02       		.uleb128 0x2
 1890 0c93 76       		.byte	0x76
 1891 0c94 00       		.sleb128 0
 1892 0c95 2B       		.uleb128 0x2b
 1893 0c96 01       		.uleb128 0x1
 1894 0c97 52       		.byte	0x52
 1895 0c98 02       		.uleb128 0x2
 1896 0c99 77       		.byte	0x77
 1897 0c9a 00       		.sleb128 0
 1898 0c9b 2B       		.uleb128 0x2b
 1899 0c9c 02       		.uleb128 0x2
 1900 0c9d 7D       		.byte	0x7d
 1901 0c9e 00       		.sleb128 0
 1902 0c9f 02       		.uleb128 0x2
 1903 0ca0 78       		.byte	0x78
 1904 0ca1 00       		.sleb128 0
 1905 0ca2 00       		.byte	0
 1906 0ca3 30       		.uleb128 0x30
 1907 0ca4 32000000 		.4byte	.LVL17
 1908 0ca8 550D0000 		.4byte	0xd55
 1909 0cac 2B       		.uleb128 0x2b
 1910 0cad 01       		.uleb128 0x1
 1911 0cae 51       		.byte	0x51
 1912 0caf 01       		.uleb128 0x1
 1913 0cb0 30       		.byte	0x30
 1914 0cb1 2B       		.uleb128 0x2b
 1915 0cb2 01       		.uleb128 0x1
 1916 0cb3 50       		.byte	0x50
 1917 0cb4 02       		.uleb128 0x2
 1918 0cb5 74       		.byte	0x74
 1919 0cb6 00       		.sleb128 0
 1920 0cb7 00       		.byte	0
 1921 0cb8 00       		.byte	0
 1922 0cb9 0A       		.uleb128 0xa
 1923 0cba 04       		.byte	0x4
 1924 0cbb 32080000 		.4byte	0x832
 1925 0cbf 15       		.uleb128 0x15
 1926 0cc0 DC060000 		.4byte	0x6dc
 1927 0cc4 CF0C0000 		.4byte	0xccf
 1928 0cc8 16       		.uleb128 0x16
 1929 0cc9 6F040000 		.4byte	0x46f
 1930 0ccd 19       		.byte	0x19
 1931 0cce 00       		.byte	0
 1932 0ccf 14       		.uleb128 0x14
 1933 0cd0 BF0C0000 		.4byte	0xcbf
 1934 0cd4 31       		.uleb128 0x31
 1935 0cd5 A5000000 		.4byte	.LASF134
 1936 0cd9 13       		.byte	0x13
 1937 0cda A706     		.2byte	0x6a7
 1938 0cdc CE000000 		.4byte	0xce
ARM GAS  /tmp/ccOHRbCf.s 			page 35


 1939 0ce0 32       		.uleb128 0x32
 1940 0ce1 636800   		.ascii	"ch\000"
 1941 0ce4 08       		.byte	0x8
 1942 0ce5 0902     		.2byte	0x209
 1943 0ce7 08040000 		.4byte	0x408
 1944 0ceb 33       		.uleb128 0x33
 1945 0cec 0D010000 		.4byte	.LASF135
 1946 0cf0 10       		.byte	0x10
 1947 0cf1 68       		.byte	0x68
 1948 0cf2 FC0C0000 		.4byte	0xcfc
 1949 0cf6 0D       		.uleb128 0xd
 1950 0cf7 39030000 		.4byte	0x339
 1951 0cfb 00       		.byte	0
 1952 0cfc 33       		.uleb128 0x33
 1953 0cfd E6060000 		.4byte	.LASF136
 1954 0d01 11       		.byte	0x11
 1955 0d02 71       		.byte	0x71
 1956 0d03 120D0000 		.4byte	0xd12
 1957 0d07 0D       		.uleb128 0xd
 1958 0d08 B90C0000 		.4byte	0xcb9
 1959 0d0c 0D       		.uleb128 0xd
 1960 0d0d 39030000 		.4byte	0x339
 1961 0d11 00       		.byte	0
 1962 0d12 34       		.uleb128 0x34
 1963 0d13 90040000 		.4byte	.LASF137
 1964 0d17 10       		.byte	0x10
 1965 0d18 67       		.byte	0x67
 1966 0d19 39030000 		.4byte	0x339
 1967 0d1d 2C0D0000 		.4byte	0xd2c
 1968 0d21 0D       		.uleb128 0xd
 1969 0d22 C1070000 		.4byte	0x7c1
 1970 0d26 0D       		.uleb128 0xd
 1971 0d27 2C000000 		.4byte	0x2c
 1972 0d2b 00       		.byte	0
 1973 0d2c 34       		.uleb128 0x34
 1974 0d2d 35010000 		.4byte	.LASF138
 1975 0d31 0E       		.byte	0xe
 1976 0d32 87       		.byte	0x87
 1977 0d33 5C020000 		.4byte	0x25c
 1978 0d37 550D0000 		.4byte	0xd55
 1979 0d3b 0D       		.uleb128 0xd
 1980 0d3c 39030000 		.4byte	0x339
 1981 0d40 0D       		.uleb128 0xd
 1982 0d41 2C000000 		.4byte	0x2c
 1983 0d45 0D       		.uleb128 0xd
 1984 0d46 0A010000 		.4byte	0x10a
 1985 0d4a 0D       		.uleb128 0xd
 1986 0d4b 03070000 		.4byte	0x703
 1987 0d4f 0D       		.uleb128 0xd
 1988 0d50 39030000 		.4byte	0x339
 1989 0d54 00       		.byte	0
 1990 0d55 35       		.uleb128 0x35
 1991 0d56 60020000 		.4byte	.LASF139
 1992 0d5a 08       		.byte	0x8
 1993 0d5b 1602     		.2byte	0x216
 1994 0d5d 6C0D0000 		.4byte	0xd6c
 1995 0d61 0D       		.uleb128 0xd
ARM GAS  /tmp/ccOHRbCf.s 			page 36


 1996 0d62 5C020000 		.4byte	0x25c
 1997 0d66 0D       		.uleb128 0xd
 1998 0d67 15010000 		.4byte	0x115
 1999 0d6b 00       		.byte	0
 2000 0d6c 36       		.uleb128 0x36
 2001 0d6d DA060000 		.4byte	.LASF140
 2002 0d71 11       		.byte	0x11
 2003 0d72 6F       		.byte	0x6f
 2004 0d73 39030000 		.4byte	0x339
 2005 0d77 0D       		.uleb128 0xd
 2006 0d78 B90C0000 		.4byte	0xcb9
 2007 0d7c 00       		.byte	0
 2008 0d7d 00       		.byte	0
 2009              		.section	.debug_abbrev,"",%progbits
 2010              	.Ldebug_abbrev0:
 2011 0000 01       		.uleb128 0x1
 2012 0001 11       		.uleb128 0x11
 2013 0002 01       		.byte	0x1
 2014 0003 25       		.uleb128 0x25
 2015 0004 0E       		.uleb128 0xe
 2016 0005 13       		.uleb128 0x13
 2017 0006 0B       		.uleb128 0xb
 2018 0007 03       		.uleb128 0x3
 2019 0008 0E       		.uleb128 0xe
 2020 0009 1B       		.uleb128 0x1b
 2021 000a 0E       		.uleb128 0xe
 2022 000b 55       		.uleb128 0x55
 2023 000c 17       		.uleb128 0x17
 2024 000d 11       		.uleb128 0x11
 2025 000e 01       		.uleb128 0x1
 2026 000f 10       		.uleb128 0x10
 2027 0010 17       		.uleb128 0x17
 2028 0011 00       		.byte	0
 2029 0012 00       		.byte	0
 2030 0013 02       		.uleb128 0x2
 2031 0014 24       		.uleb128 0x24
 2032 0015 00       		.byte	0
 2033 0016 0B       		.uleb128 0xb
 2034 0017 0B       		.uleb128 0xb
 2035 0018 3E       		.uleb128 0x3e
 2036 0019 0B       		.uleb128 0xb
 2037 001a 03       		.uleb128 0x3
 2038 001b 08       		.uleb128 0x8
 2039 001c 00       		.byte	0
 2040 001d 00       		.byte	0
 2041 001e 03       		.uleb128 0x3
 2042 001f 16       		.uleb128 0x16
 2043 0020 00       		.byte	0
 2044 0021 03       		.uleb128 0x3
 2045 0022 0E       		.uleb128 0xe
 2046 0023 3A       		.uleb128 0x3a
 2047 0024 0B       		.uleb128 0xb
 2048 0025 3B       		.uleb128 0x3b
 2049 0026 0B       		.uleb128 0xb
 2050 0027 49       		.uleb128 0x49
 2051 0028 13       		.uleb128 0x13
 2052 0029 00       		.byte	0
ARM GAS  /tmp/ccOHRbCf.s 			page 37


 2053 002a 00       		.byte	0
 2054 002b 04       		.uleb128 0x4
 2055 002c 24       		.uleb128 0x24
 2056 002d 00       		.byte	0
 2057 002e 0B       		.uleb128 0xb
 2058 002f 0B       		.uleb128 0xb
 2059 0030 3E       		.uleb128 0x3e
 2060 0031 0B       		.uleb128 0xb
 2061 0032 03       		.uleb128 0x3
 2062 0033 0E       		.uleb128 0xe
 2063 0034 00       		.byte	0
 2064 0035 00       		.byte	0
 2065 0036 05       		.uleb128 0x5
 2066 0037 35       		.uleb128 0x35
 2067 0038 00       		.byte	0
 2068 0039 49       		.uleb128 0x49
 2069 003a 13       		.uleb128 0x13
 2070 003b 00       		.byte	0
 2071 003c 00       		.byte	0
 2072 003d 06       		.uleb128 0x6
 2073 003e 13       		.uleb128 0x13
 2074 003f 01       		.byte	0x1
 2075 0040 03       		.uleb128 0x3
 2076 0041 0E       		.uleb128 0xe
 2077 0042 0B       		.uleb128 0xb
 2078 0043 0B       		.uleb128 0xb
 2079 0044 3A       		.uleb128 0x3a
 2080 0045 0B       		.uleb128 0xb
 2081 0046 3B       		.uleb128 0x3b
 2082 0047 0B       		.uleb128 0xb
 2083 0048 01       		.uleb128 0x1
 2084 0049 13       		.uleb128 0x13
 2085 004a 00       		.byte	0
 2086 004b 00       		.byte	0
 2087 004c 07       		.uleb128 0x7
 2088 004d 0D       		.uleb128 0xd
 2089 004e 00       		.byte	0
 2090 004f 03       		.uleb128 0x3
 2091 0050 0E       		.uleb128 0xe
 2092 0051 3A       		.uleb128 0x3a
 2093 0052 0B       		.uleb128 0xb
 2094 0053 3B       		.uleb128 0x3b
 2095 0054 0B       		.uleb128 0xb
 2096 0055 49       		.uleb128 0x49
 2097 0056 13       		.uleb128 0x13
 2098 0057 38       		.uleb128 0x38
 2099 0058 0B       		.uleb128 0xb
 2100 0059 00       		.byte	0
 2101 005a 00       		.byte	0
 2102 005b 08       		.uleb128 0x8
 2103 005c 0D       		.uleb128 0xd
 2104 005d 00       		.byte	0
 2105 005e 03       		.uleb128 0x3
 2106 005f 08       		.uleb128 0x8
 2107 0060 3A       		.uleb128 0x3a
 2108 0061 0B       		.uleb128 0xb
 2109 0062 3B       		.uleb128 0x3b
ARM GAS  /tmp/ccOHRbCf.s 			page 38


 2110 0063 05       		.uleb128 0x5
 2111 0064 49       		.uleb128 0x49
 2112 0065 13       		.uleb128 0x13
 2113 0066 38       		.uleb128 0x38
 2114 0067 0B       		.uleb128 0xb
 2115 0068 00       		.byte	0
 2116 0069 00       		.byte	0
 2117 006a 09       		.uleb128 0x9
 2118 006b 0D       		.uleb128 0xd
 2119 006c 00       		.byte	0
 2120 006d 03       		.uleb128 0x3
 2121 006e 0E       		.uleb128 0xe
 2122 006f 3A       		.uleb128 0x3a
 2123 0070 0B       		.uleb128 0xb
 2124 0071 3B       		.uleb128 0x3b
 2125 0072 05       		.uleb128 0x5
 2126 0073 49       		.uleb128 0x49
 2127 0074 13       		.uleb128 0x13
 2128 0075 38       		.uleb128 0x38
 2129 0076 0B       		.uleb128 0xb
 2130 0077 00       		.byte	0
 2131 0078 00       		.byte	0
 2132 0079 0A       		.uleb128 0xa
 2133 007a 0F       		.uleb128 0xf
 2134 007b 00       		.byte	0
 2135 007c 0B       		.uleb128 0xb
 2136 007d 0B       		.uleb128 0xb
 2137 007e 49       		.uleb128 0x49
 2138 007f 13       		.uleb128 0x13
 2139 0080 00       		.byte	0
 2140 0081 00       		.byte	0
 2141 0082 0B       		.uleb128 0xb
 2142 0083 13       		.uleb128 0x13
 2143 0084 01       		.byte	0x1
 2144 0085 03       		.uleb128 0x3
 2145 0086 0E       		.uleb128 0xe
 2146 0087 0B       		.uleb128 0xb
 2147 0088 0B       		.uleb128 0xb
 2148 0089 3A       		.uleb128 0x3a
 2149 008a 0B       		.uleb128 0xb
 2150 008b 3B       		.uleb128 0x3b
 2151 008c 05       		.uleb128 0x5
 2152 008d 01       		.uleb128 0x1
 2153 008e 13       		.uleb128 0x13
 2154 008f 00       		.byte	0
 2155 0090 00       		.byte	0
 2156 0091 0C       		.uleb128 0xc
 2157 0092 15       		.uleb128 0x15
 2158 0093 01       		.byte	0x1
 2159 0094 27       		.uleb128 0x27
 2160 0095 19       		.uleb128 0x19
 2161 0096 01       		.uleb128 0x1
 2162 0097 13       		.uleb128 0x13
 2163 0098 00       		.byte	0
 2164 0099 00       		.byte	0
 2165 009a 0D       		.uleb128 0xd
 2166 009b 05       		.uleb128 0x5
ARM GAS  /tmp/ccOHRbCf.s 			page 39


 2167 009c 00       		.byte	0
 2168 009d 49       		.uleb128 0x49
 2169 009e 13       		.uleb128 0x13
 2170 009f 00       		.byte	0
 2171 00a0 00       		.byte	0
 2172 00a1 0E       		.uleb128 0xe
 2173 00a2 0F       		.uleb128 0xf
 2174 00a3 00       		.byte	0
 2175 00a4 0B       		.uleb128 0xb
 2176 00a5 0B       		.uleb128 0xb
 2177 00a6 00       		.byte	0
 2178 00a7 00       		.byte	0
 2179 00a8 0F       		.uleb128 0xf
 2180 00a9 13       		.uleb128 0x13
 2181 00aa 01       		.byte	0x1
 2182 00ab 03       		.uleb128 0x3
 2183 00ac 0E       		.uleb128 0xe
 2184 00ad 0B       		.uleb128 0xb
 2185 00ae 05       		.uleb128 0x5
 2186 00af 3A       		.uleb128 0x3a
 2187 00b0 0B       		.uleb128 0xb
 2188 00b1 3B       		.uleb128 0x3b
 2189 00b2 05       		.uleb128 0x5
 2190 00b3 01       		.uleb128 0x1
 2191 00b4 13       		.uleb128 0x13
 2192 00b5 00       		.byte	0
 2193 00b6 00       		.byte	0
 2194 00b7 10       		.uleb128 0x10
 2195 00b8 0D       		.uleb128 0xd
 2196 00b9 00       		.byte	0
 2197 00ba 03       		.uleb128 0x3
 2198 00bb 08       		.uleb128 0x8
 2199 00bc 3A       		.uleb128 0x3a
 2200 00bd 0B       		.uleb128 0xb
 2201 00be 3B       		.uleb128 0x3b
 2202 00bf 0B       		.uleb128 0xb
 2203 00c0 49       		.uleb128 0x49
 2204 00c1 13       		.uleb128 0x13
 2205 00c2 38       		.uleb128 0x38
 2206 00c3 0B       		.uleb128 0xb
 2207 00c4 00       		.byte	0
 2208 00c5 00       		.byte	0
 2209 00c6 11       		.uleb128 0x11
 2210 00c7 13       		.uleb128 0x13
 2211 00c8 01       		.byte	0x1
 2212 00c9 0B       		.uleb128 0xb
 2213 00ca 0B       		.uleb128 0xb
 2214 00cb 3A       		.uleb128 0x3a
 2215 00cc 0B       		.uleb128 0xb
 2216 00cd 3B       		.uleb128 0x3b
 2217 00ce 0B       		.uleb128 0xb
 2218 00cf 01       		.uleb128 0x1
 2219 00d0 13       		.uleb128 0x13
 2220 00d1 00       		.byte	0
 2221 00d2 00       		.byte	0
 2222 00d3 12       		.uleb128 0x12
 2223 00d4 17       		.uleb128 0x17
ARM GAS  /tmp/ccOHRbCf.s 			page 40


 2224 00d5 01       		.byte	0x1
 2225 00d6 0B       		.uleb128 0xb
 2226 00d7 0B       		.uleb128 0xb
 2227 00d8 3A       		.uleb128 0x3a
 2228 00d9 0B       		.uleb128 0xb
 2229 00da 3B       		.uleb128 0x3b
 2230 00db 0B       		.uleb128 0xb
 2231 00dc 01       		.uleb128 0x1
 2232 00dd 13       		.uleb128 0x13
 2233 00de 00       		.byte	0
 2234 00df 00       		.byte	0
 2235 00e0 13       		.uleb128 0x13
 2236 00e1 0D       		.uleb128 0xd
 2237 00e2 00       		.byte	0
 2238 00e3 03       		.uleb128 0x3
 2239 00e4 0E       		.uleb128 0xe
 2240 00e5 3A       		.uleb128 0x3a
 2241 00e6 0B       		.uleb128 0xb
 2242 00e7 3B       		.uleb128 0x3b
 2243 00e8 05       		.uleb128 0x5
 2244 00e9 49       		.uleb128 0x49
 2245 00ea 13       		.uleb128 0x13
 2246 00eb 00       		.byte	0
 2247 00ec 00       		.byte	0
 2248 00ed 14       		.uleb128 0x14
 2249 00ee 26       		.uleb128 0x26
 2250 00ef 00       		.byte	0
 2251 00f0 49       		.uleb128 0x49
 2252 00f1 13       		.uleb128 0x13
 2253 00f2 00       		.byte	0
 2254 00f3 00       		.byte	0
 2255 00f4 15       		.uleb128 0x15
 2256 00f5 01       		.uleb128 0x1
 2257 00f6 01       		.byte	0x1
 2258 00f7 49       		.uleb128 0x49
 2259 00f8 13       		.uleb128 0x13
 2260 00f9 01       		.uleb128 0x1
 2261 00fa 13       		.uleb128 0x13
 2262 00fb 00       		.byte	0
 2263 00fc 00       		.byte	0
 2264 00fd 16       		.uleb128 0x16
 2265 00fe 21       		.uleb128 0x21
 2266 00ff 00       		.byte	0
 2267 0100 49       		.uleb128 0x49
 2268 0101 13       		.uleb128 0x13
 2269 0102 2F       		.uleb128 0x2f
 2270 0103 0B       		.uleb128 0xb
 2271 0104 00       		.byte	0
 2272 0105 00       		.byte	0
 2273 0106 17       		.uleb128 0x17
 2274 0107 15       		.uleb128 0x15
 2275 0108 01       		.byte	0x1
 2276 0109 27       		.uleb128 0x27
 2277 010a 19       		.uleb128 0x19
 2278 010b 49       		.uleb128 0x49
 2279 010c 13       		.uleb128 0x13
 2280 010d 01       		.uleb128 0x1
ARM GAS  /tmp/ccOHRbCf.s 			page 41


 2281 010e 13       		.uleb128 0x13
 2282 010f 00       		.byte	0
 2283 0110 00       		.byte	0
 2284 0111 18       		.uleb128 0x18
 2285 0112 0D       		.uleb128 0xd
 2286 0113 00       		.byte	0
 2287 0114 03       		.uleb128 0x3
 2288 0115 0E       		.uleb128 0xe
 2289 0116 3A       		.uleb128 0x3a
 2290 0117 0B       		.uleb128 0xb
 2291 0118 3B       		.uleb128 0x3b
 2292 0119 0B       		.uleb128 0xb
 2293 011a 49       		.uleb128 0x49
 2294 011b 13       		.uleb128 0x13
 2295 011c 00       		.byte	0
 2296 011d 00       		.byte	0
 2297 011e 19       		.uleb128 0x19
 2298 011f 17       		.uleb128 0x17
 2299 0120 01       		.byte	0x1
 2300 0121 03       		.uleb128 0x3
 2301 0122 0E       		.uleb128 0xe
 2302 0123 0B       		.uleb128 0xb
 2303 0124 0B       		.uleb128 0xb
 2304 0125 3A       		.uleb128 0x3a
 2305 0126 0B       		.uleb128 0xb
 2306 0127 3B       		.uleb128 0x3b
 2307 0128 0B       		.uleb128 0xb
 2308 0129 01       		.uleb128 0x1
 2309 012a 13       		.uleb128 0x13
 2310 012b 00       		.byte	0
 2311 012c 00       		.byte	0
 2312 012d 1A       		.uleb128 0x1a
 2313 012e 0D       		.uleb128 0xd
 2314 012f 00       		.byte	0
 2315 0130 03       		.uleb128 0x3
 2316 0131 08       		.uleb128 0x8
 2317 0132 3A       		.uleb128 0x3a
 2318 0133 0B       		.uleb128 0xb
 2319 0134 3B       		.uleb128 0x3b
 2320 0135 0B       		.uleb128 0xb
 2321 0136 49       		.uleb128 0x49
 2322 0137 13       		.uleb128 0x13
 2323 0138 00       		.byte	0
 2324 0139 00       		.byte	0
 2325 013a 1B       		.uleb128 0x1b
 2326 013b 2E       		.uleb128 0x2e
 2327 013c 00       		.byte	0
 2328 013d 03       		.uleb128 0x3
 2329 013e 0E       		.uleb128 0xe
 2330 013f 3A       		.uleb128 0x3a
 2331 0140 0B       		.uleb128 0xb
 2332 0141 3B       		.uleb128 0x3b
 2333 0142 05       		.uleb128 0x5
 2334 0143 27       		.uleb128 0x27
 2335 0144 19       		.uleb128 0x19
 2336 0145 20       		.uleb128 0x20
 2337 0146 0B       		.uleb128 0xb
ARM GAS  /tmp/ccOHRbCf.s 			page 42


 2338 0147 00       		.byte	0
 2339 0148 00       		.byte	0
 2340 0149 1C       		.uleb128 0x1c
 2341 014a 2E       		.uleb128 0x2e
 2342 014b 01       		.byte	0x1
 2343 014c 03       		.uleb128 0x3
 2344 014d 0E       		.uleb128 0xe
 2345 014e 3A       		.uleb128 0x3a
 2346 014f 0B       		.uleb128 0xb
 2347 0150 3B       		.uleb128 0x3b
 2348 0151 05       		.uleb128 0x5
 2349 0152 27       		.uleb128 0x27
 2350 0153 19       		.uleb128 0x19
 2351 0154 20       		.uleb128 0x20
 2352 0155 0B       		.uleb128 0xb
 2353 0156 01       		.uleb128 0x1
 2354 0157 13       		.uleb128 0x13
 2355 0158 00       		.byte	0
 2356 0159 00       		.byte	0
 2357 015a 1D       		.uleb128 0x1d
 2358 015b 34       		.uleb128 0x34
 2359 015c 00       		.byte	0
 2360 015d 03       		.uleb128 0x3
 2361 015e 0E       		.uleb128 0xe
 2362 015f 49       		.uleb128 0x49
 2363 0160 13       		.uleb128 0x13
 2364 0161 34       		.uleb128 0x34
 2365 0162 19       		.uleb128 0x19
 2366 0163 1C       		.uleb128 0x1c
 2367 0164 0E       		.uleb128 0xe
 2368 0165 00       		.byte	0
 2369 0166 00       		.byte	0
 2370 0167 1E       		.uleb128 0x1e
 2371 0168 2E       		.uleb128 0x2e
 2372 0169 01       		.byte	0x1
 2373 016a 3F       		.uleb128 0x3f
 2374 016b 19       		.uleb128 0x19
 2375 016c 03       		.uleb128 0x3
 2376 016d 0E       		.uleb128 0xe
 2377 016e 3A       		.uleb128 0x3a
 2378 016f 0B       		.uleb128 0xb
 2379 0170 3B       		.uleb128 0x3b
 2380 0171 0B       		.uleb128 0xb
 2381 0172 27       		.uleb128 0x27
 2382 0173 19       		.uleb128 0x19
 2383 0174 49       		.uleb128 0x49
 2384 0175 13       		.uleb128 0x13
 2385 0176 11       		.uleb128 0x11
 2386 0177 01       		.uleb128 0x1
 2387 0178 12       		.uleb128 0x12
 2388 0179 06       		.uleb128 0x6
 2389 017a 40       		.uleb128 0x40
 2390 017b 18       		.uleb128 0x18
 2391 017c 9742     		.uleb128 0x2117
 2392 017e 19       		.uleb128 0x19
 2393 017f 01       		.uleb128 0x1
 2394 0180 13       		.uleb128 0x13
ARM GAS  /tmp/ccOHRbCf.s 			page 43


 2395 0181 00       		.byte	0
 2396 0182 00       		.byte	0
 2397 0183 1F       		.uleb128 0x1f
 2398 0184 05       		.uleb128 0x5
 2399 0185 00       		.byte	0
 2400 0186 03       		.uleb128 0x3
 2401 0187 08       		.uleb128 0x8
 2402 0188 3A       		.uleb128 0x3a
 2403 0189 0B       		.uleb128 0xb
 2404 018a 3B       		.uleb128 0x3b
 2405 018b 0B       		.uleb128 0xb
 2406 018c 49       		.uleb128 0x49
 2407 018d 13       		.uleb128 0x13
 2408 018e 02       		.uleb128 0x2
 2409 018f 18       		.uleb128 0x18
 2410 0190 00       		.byte	0
 2411 0191 00       		.byte	0
 2412 0192 20       		.uleb128 0x20
 2413 0193 34       		.uleb128 0x34
 2414 0194 00       		.byte	0
 2415 0195 03       		.uleb128 0x3
 2416 0196 0E       		.uleb128 0xe
 2417 0197 49       		.uleb128 0x49
 2418 0198 13       		.uleb128 0x13
 2419 0199 34       		.uleb128 0x34
 2420 019a 19       		.uleb128 0x19
 2421 019b 00       		.byte	0
 2422 019c 00       		.byte	0
 2423 019d 21       		.uleb128 0x21
 2424 019e 1D       		.uleb128 0x1d
 2425 019f 01       		.byte	0x1
 2426 01a0 31       		.uleb128 0x31
 2427 01a1 13       		.uleb128 0x13
 2428 01a2 11       		.uleb128 0x11
 2429 01a3 01       		.uleb128 0x1
 2430 01a4 12       		.uleb128 0x12
 2431 01a5 06       		.uleb128 0x6
 2432 01a6 58       		.uleb128 0x58
 2433 01a7 0B       		.uleb128 0xb
 2434 01a8 59       		.uleb128 0x59
 2435 01a9 0B       		.uleb128 0xb
 2436 01aa 01       		.uleb128 0x1
 2437 01ab 13       		.uleb128 0x13
 2438 01ac 00       		.byte	0
 2439 01ad 00       		.byte	0
 2440 01ae 22       		.uleb128 0x22
 2441 01af 1D       		.uleb128 0x1d
 2442 01b0 01       		.byte	0x1
 2443 01b1 31       		.uleb128 0x31
 2444 01b2 13       		.uleb128 0x13
 2445 01b3 11       		.uleb128 0x11
 2446 01b4 01       		.uleb128 0x1
 2447 01b5 12       		.uleb128 0x12
 2448 01b6 06       		.uleb128 0x6
 2449 01b7 58       		.uleb128 0x58
 2450 01b8 0B       		.uleb128 0xb
 2451 01b9 59       		.uleb128 0x59
ARM GAS  /tmp/ccOHRbCf.s 			page 44


 2452 01ba 05       		.uleb128 0x5
 2453 01bb 00       		.byte	0
 2454 01bc 00       		.byte	0
 2455 01bd 23       		.uleb128 0x23
 2456 01be 1D       		.uleb128 0x1d
 2457 01bf 00       		.byte	0
 2458 01c0 31       		.uleb128 0x31
 2459 01c1 13       		.uleb128 0x13
 2460 01c2 11       		.uleb128 0x11
 2461 01c3 01       		.uleb128 0x1
 2462 01c4 12       		.uleb128 0x12
 2463 01c5 06       		.uleb128 0x6
 2464 01c6 58       		.uleb128 0x58
 2465 01c7 0B       		.uleb128 0xb
 2466 01c8 59       		.uleb128 0x59
 2467 01c9 05       		.uleb128 0x5
 2468 01ca 00       		.byte	0
 2469 01cb 00       		.byte	0
 2470 01cc 24       		.uleb128 0x24
 2471 01cd 1D       		.uleb128 0x1d
 2472 01ce 01       		.byte	0x1
 2473 01cf 31       		.uleb128 0x31
 2474 01d0 13       		.uleb128 0x13
 2475 01d1 11       		.uleb128 0x11
 2476 01d2 01       		.uleb128 0x1
 2477 01d3 12       		.uleb128 0x12
 2478 01d4 06       		.uleb128 0x6
 2479 01d5 58       		.uleb128 0x58
 2480 01d6 0B       		.uleb128 0xb
 2481 01d7 59       		.uleb128 0x59
 2482 01d8 0B       		.uleb128 0xb
 2483 01d9 00       		.byte	0
 2484 01da 00       		.byte	0
 2485 01db 25       		.uleb128 0x25
 2486 01dc 0B       		.uleb128 0xb
 2487 01dd 01       		.byte	0x1
 2488 01de 11       		.uleb128 0x11
 2489 01df 01       		.uleb128 0x1
 2490 01e0 12       		.uleb128 0x12
 2491 01e1 06       		.uleb128 0x6
 2492 01e2 00       		.byte	0
 2493 01e3 00       		.byte	0
 2494 01e4 26       		.uleb128 0x26
 2495 01e5 34       		.uleb128 0x34
 2496 01e6 00       		.byte	0
 2497 01e7 31       		.uleb128 0x31
 2498 01e8 13       		.uleb128 0x13
 2499 01e9 00       		.byte	0
 2500 01ea 00       		.byte	0
 2501 01eb 27       		.uleb128 0x27
 2502 01ec 2E       		.uleb128 0x2e
 2503 01ed 01       		.byte	0x1
 2504 01ee 3F       		.uleb128 0x3f
 2505 01ef 19       		.uleb128 0x19
 2506 01f0 03       		.uleb128 0x3
 2507 01f1 0E       		.uleb128 0xe
 2508 01f2 3A       		.uleb128 0x3a
ARM GAS  /tmp/ccOHRbCf.s 			page 45


 2509 01f3 0B       		.uleb128 0xb
 2510 01f4 3B       		.uleb128 0x3b
 2511 01f5 0B       		.uleb128 0xb
 2512 01f6 27       		.uleb128 0x27
 2513 01f7 19       		.uleb128 0x19
 2514 01f8 11       		.uleb128 0x11
 2515 01f9 01       		.uleb128 0x1
 2516 01fa 12       		.uleb128 0x12
 2517 01fb 06       		.uleb128 0x6
 2518 01fc 40       		.uleb128 0x40
 2519 01fd 18       		.uleb128 0x18
 2520 01fe 9742     		.uleb128 0x2117
 2521 0200 19       		.uleb128 0x19
 2522 0201 01       		.uleb128 0x1
 2523 0202 13       		.uleb128 0x13
 2524 0203 00       		.byte	0
 2525 0204 00       		.byte	0
 2526 0205 28       		.uleb128 0x28
 2527 0206 05       		.uleb128 0x5
 2528 0207 00       		.byte	0
 2529 0208 03       		.uleb128 0x3
 2530 0209 08       		.uleb128 0x8
 2531 020a 3A       		.uleb128 0x3a
 2532 020b 0B       		.uleb128 0xb
 2533 020c 3B       		.uleb128 0x3b
 2534 020d 0B       		.uleb128 0xb
 2535 020e 49       		.uleb128 0x49
 2536 020f 13       		.uleb128 0x13
 2537 0210 02       		.uleb128 0x2
 2538 0211 17       		.uleb128 0x17
 2539 0212 00       		.byte	0
 2540 0213 00       		.byte	0
 2541 0214 29       		.uleb128 0x29
 2542 0215 34       		.uleb128 0x34
 2543 0216 00       		.byte	0
 2544 0217 03       		.uleb128 0x3
 2545 0218 0E       		.uleb128 0xe
 2546 0219 3A       		.uleb128 0x3a
 2547 021a 0B       		.uleb128 0xb
 2548 021b 3B       		.uleb128 0x3b
 2549 021c 0B       		.uleb128 0xb
 2550 021d 49       		.uleb128 0x49
 2551 021e 13       		.uleb128 0x13
 2552 021f 02       		.uleb128 0x2
 2553 0220 17       		.uleb128 0x17
 2554 0221 00       		.byte	0
 2555 0222 00       		.byte	0
 2556 0223 2A       		.uleb128 0x2a
 2557 0224 898201   		.uleb128 0x4109
 2558 0227 01       		.byte	0x1
 2559 0228 11       		.uleb128 0x11
 2560 0229 01       		.uleb128 0x1
 2561 022a 9542     		.uleb128 0x2115
 2562 022c 19       		.uleb128 0x19
 2563 022d 31       		.uleb128 0x31
 2564 022e 13       		.uleb128 0x13
 2565 022f 01       		.uleb128 0x1
ARM GAS  /tmp/ccOHRbCf.s 			page 46


 2566 0230 13       		.uleb128 0x13
 2567 0231 00       		.byte	0
 2568 0232 00       		.byte	0
 2569 0233 2B       		.uleb128 0x2b
 2570 0234 8A8201   		.uleb128 0x410a
 2571 0237 00       		.byte	0
 2572 0238 02       		.uleb128 0x2
 2573 0239 18       		.uleb128 0x18
 2574 023a 9142     		.uleb128 0x2111
 2575 023c 18       		.uleb128 0x18
 2576 023d 00       		.byte	0
 2577 023e 00       		.byte	0
 2578 023f 2C       		.uleb128 0x2c
 2579 0240 898201   		.uleb128 0x4109
 2580 0243 00       		.byte	0
 2581 0244 11       		.uleb128 0x11
 2582 0245 01       		.uleb128 0x1
 2583 0246 9542     		.uleb128 0x2115
 2584 0248 19       		.uleb128 0x19
 2585 0249 31       		.uleb128 0x31
 2586 024a 13       		.uleb128 0x13
 2587 024b 00       		.byte	0
 2588 024c 00       		.byte	0
 2589 024d 2D       		.uleb128 0x2d
 2590 024e 05       		.uleb128 0x5
 2591 024f 00       		.byte	0
 2592 0250 03       		.uleb128 0x3
 2593 0251 0E       		.uleb128 0xe
 2594 0252 3A       		.uleb128 0x3a
 2595 0253 0B       		.uleb128 0xb
 2596 0254 3B       		.uleb128 0x3b
 2597 0255 0B       		.uleb128 0xb
 2598 0256 49       		.uleb128 0x49
 2599 0257 13       		.uleb128 0x13
 2600 0258 02       		.uleb128 0x2
 2601 0259 17       		.uleb128 0x17
 2602 025a 00       		.byte	0
 2603 025b 00       		.byte	0
 2604 025c 2E       		.uleb128 0x2e
 2605 025d 34       		.uleb128 0x34
 2606 025e 00       		.byte	0
 2607 025f 03       		.uleb128 0x3
 2608 0260 08       		.uleb128 0x8
 2609 0261 3A       		.uleb128 0x3a
 2610 0262 0B       		.uleb128 0xb
 2611 0263 3B       		.uleb128 0x3b
 2612 0264 0B       		.uleb128 0xb
 2613 0265 49       		.uleb128 0x49
 2614 0266 13       		.uleb128 0x13
 2615 0267 02       		.uleb128 0x2
 2616 0268 17       		.uleb128 0x17
 2617 0269 00       		.byte	0
 2618 026a 00       		.byte	0
 2619 026b 2F       		.uleb128 0x2f
 2620 026c 898201   		.uleb128 0x4109
 2621 026f 01       		.byte	0x1
 2622 0270 11       		.uleb128 0x11
ARM GAS  /tmp/ccOHRbCf.s 			page 47


 2623 0271 01       		.uleb128 0x1
 2624 0272 31       		.uleb128 0x31
 2625 0273 13       		.uleb128 0x13
 2626 0274 01       		.uleb128 0x1
 2627 0275 13       		.uleb128 0x13
 2628 0276 00       		.byte	0
 2629 0277 00       		.byte	0
 2630 0278 30       		.uleb128 0x30
 2631 0279 898201   		.uleb128 0x4109
 2632 027c 01       		.byte	0x1
 2633 027d 11       		.uleb128 0x11
 2634 027e 01       		.uleb128 0x1
 2635 027f 31       		.uleb128 0x31
 2636 0280 13       		.uleb128 0x13
 2637 0281 00       		.byte	0
 2638 0282 00       		.byte	0
 2639 0283 31       		.uleb128 0x31
 2640 0284 34       		.uleb128 0x34
 2641 0285 00       		.byte	0
 2642 0286 03       		.uleb128 0x3
 2643 0287 0E       		.uleb128 0xe
 2644 0288 3A       		.uleb128 0x3a
 2645 0289 0B       		.uleb128 0xb
 2646 028a 3B       		.uleb128 0x3b
 2647 028b 05       		.uleb128 0x5
 2648 028c 49       		.uleb128 0x49
 2649 028d 13       		.uleb128 0x13
 2650 028e 3F       		.uleb128 0x3f
 2651 028f 19       		.uleb128 0x19
 2652 0290 3C       		.uleb128 0x3c
 2653 0291 19       		.uleb128 0x19
 2654 0292 00       		.byte	0
 2655 0293 00       		.byte	0
 2656 0294 32       		.uleb128 0x32
 2657 0295 34       		.uleb128 0x34
 2658 0296 00       		.byte	0
 2659 0297 03       		.uleb128 0x3
 2660 0298 08       		.uleb128 0x8
 2661 0299 3A       		.uleb128 0x3a
 2662 029a 0B       		.uleb128 0xb
 2663 029b 3B       		.uleb128 0x3b
 2664 029c 05       		.uleb128 0x5
 2665 029d 49       		.uleb128 0x49
 2666 029e 13       		.uleb128 0x13
 2667 029f 3F       		.uleb128 0x3f
 2668 02a0 19       		.uleb128 0x19
 2669 02a1 3C       		.uleb128 0x3c
 2670 02a2 19       		.uleb128 0x19
 2671 02a3 00       		.byte	0
 2672 02a4 00       		.byte	0
 2673 02a5 33       		.uleb128 0x33
 2674 02a6 2E       		.uleb128 0x2e
 2675 02a7 01       		.byte	0x1
 2676 02a8 3F       		.uleb128 0x3f
 2677 02a9 19       		.uleb128 0x19
 2678 02aa 03       		.uleb128 0x3
 2679 02ab 0E       		.uleb128 0xe
ARM GAS  /tmp/ccOHRbCf.s 			page 48


 2680 02ac 3A       		.uleb128 0x3a
 2681 02ad 0B       		.uleb128 0xb
 2682 02ae 3B       		.uleb128 0x3b
 2683 02af 0B       		.uleb128 0xb
 2684 02b0 27       		.uleb128 0x27
 2685 02b1 19       		.uleb128 0x19
 2686 02b2 3C       		.uleb128 0x3c
 2687 02b3 19       		.uleb128 0x19
 2688 02b4 01       		.uleb128 0x1
 2689 02b5 13       		.uleb128 0x13
 2690 02b6 00       		.byte	0
 2691 02b7 00       		.byte	0
 2692 02b8 34       		.uleb128 0x34
 2693 02b9 2E       		.uleb128 0x2e
 2694 02ba 01       		.byte	0x1
 2695 02bb 3F       		.uleb128 0x3f
 2696 02bc 19       		.uleb128 0x19
 2697 02bd 03       		.uleb128 0x3
 2698 02be 0E       		.uleb128 0xe
 2699 02bf 3A       		.uleb128 0x3a
 2700 02c0 0B       		.uleb128 0xb
 2701 02c1 3B       		.uleb128 0x3b
 2702 02c2 0B       		.uleb128 0xb
 2703 02c3 27       		.uleb128 0x27
 2704 02c4 19       		.uleb128 0x19
 2705 02c5 49       		.uleb128 0x49
 2706 02c6 13       		.uleb128 0x13
 2707 02c7 3C       		.uleb128 0x3c
 2708 02c8 19       		.uleb128 0x19
 2709 02c9 01       		.uleb128 0x1
 2710 02ca 13       		.uleb128 0x13
 2711 02cb 00       		.byte	0
 2712 02cc 00       		.byte	0
 2713 02cd 35       		.uleb128 0x35
 2714 02ce 2E       		.uleb128 0x2e
 2715 02cf 01       		.byte	0x1
 2716 02d0 3F       		.uleb128 0x3f
 2717 02d1 19       		.uleb128 0x19
 2718 02d2 03       		.uleb128 0x3
 2719 02d3 0E       		.uleb128 0xe
 2720 02d4 3A       		.uleb128 0x3a
 2721 02d5 0B       		.uleb128 0xb
 2722 02d6 3B       		.uleb128 0x3b
 2723 02d7 05       		.uleb128 0x5
 2724 02d8 27       		.uleb128 0x27
 2725 02d9 19       		.uleb128 0x19
 2726 02da 3C       		.uleb128 0x3c
 2727 02db 19       		.uleb128 0x19
 2728 02dc 01       		.uleb128 0x1
 2729 02dd 13       		.uleb128 0x13
 2730 02de 00       		.byte	0
 2731 02df 00       		.byte	0
 2732 02e0 36       		.uleb128 0x36
 2733 02e1 2E       		.uleb128 0x2e
 2734 02e2 01       		.byte	0x1
 2735 02e3 3F       		.uleb128 0x3f
 2736 02e4 19       		.uleb128 0x19
ARM GAS  /tmp/ccOHRbCf.s 			page 49


 2737 02e5 03       		.uleb128 0x3
 2738 02e6 0E       		.uleb128 0xe
 2739 02e7 3A       		.uleb128 0x3a
 2740 02e8 0B       		.uleb128 0xb
 2741 02e9 3B       		.uleb128 0x3b
 2742 02ea 0B       		.uleb128 0xb
 2743 02eb 27       		.uleb128 0x27
 2744 02ec 19       		.uleb128 0x19
 2745 02ed 49       		.uleb128 0x49
 2746 02ee 13       		.uleb128 0x13
 2747 02ef 3C       		.uleb128 0x3c
 2748 02f0 19       		.uleb128 0x19
 2749 02f1 00       		.byte	0
 2750 02f2 00       		.byte	0
 2751 02f3 00       		.byte	0
 2752              		.section	.debug_loc,"",%progbits
 2753              	.Ldebug_loc0:
 2754              	.LLST0:
 2755 0000 00000000 		.4byte	.LVL1
 2756 0004 35000000 		.4byte	.LVL4-1
 2757 0008 0100     		.2byte	0x1
 2758 000a 50       		.byte	0x50
 2759 000b 35000000 		.4byte	.LVL4-1
 2760 000f 36000000 		.4byte	.LVL4
 2761 0013 0400     		.2byte	0x4
 2762 0015 F3       		.byte	0xf3
 2763 0016 01       		.uleb128 0x1
 2764 0017 50       		.byte	0x50
 2765 0018 9F       		.byte	0x9f
 2766 0019 36000000 		.4byte	.LVL4
 2767 001d 40000000 		.4byte	.LVL5
 2768 0021 0100     		.2byte	0x1
 2769 0023 50       		.byte	0x50
 2770 0024 40000000 		.4byte	.LVL5
 2771 0028 45000000 		.4byte	.LVL6-1
 2772 002c 0100     		.2byte	0x1
 2773 002e 51       		.byte	0x51
 2774 002f 45000000 		.4byte	.LVL6-1
 2775 0033 46000000 		.4byte	.LFE220
 2776 0037 0400     		.2byte	0x4
 2777 0039 F3       		.byte	0xf3
 2778 003a 01       		.uleb128 0x1
 2779 003b 50       		.byte	0x50
 2780 003c 9F       		.byte	0x9f
 2781 003d 00000000 		.4byte	0
 2782 0041 00000000 		.4byte	0
 2783              	.LLST1:
 2784 0045 0C000000 		.4byte	.LVL2
 2785 0049 12000000 		.4byte	.LVL3
 2786 004d 0100     		.2byte	0x1
 2787 004f 53       		.byte	0x53
 2788 0050 12000000 		.4byte	.LVL3
 2789 0054 35000000 		.4byte	.LVL4-1
 2790 0058 0200     		.2byte	0x2
 2791 005a 70       		.byte	0x70
 2792 005b 1E       		.sleb128 30
 2793 005c 36000000 		.4byte	.LVL4
ARM GAS  /tmp/ccOHRbCf.s 			page 50


 2794 0060 40000000 		.4byte	.LVL5
 2795 0064 0200     		.2byte	0x2
 2796 0066 70       		.byte	0x70
 2797 0067 1E       		.sleb128 30
 2798 0068 40000000 		.4byte	.LVL5
 2799 006c 45000000 		.4byte	.LVL6-1
 2800 0070 0200     		.2byte	0x2
 2801 0072 71       		.byte	0x71
 2802 0073 1E       		.sleb128 30
 2803 0074 00000000 		.4byte	0
 2804 0078 00000000 		.4byte	0
 2805              	.LLST2:
 2806 007c 00000000 		.4byte	.LVL7
 2807 0080 0D000000 		.4byte	.LVL8-1
 2808 0084 0100     		.2byte	0x1
 2809 0086 50       		.byte	0x50
 2810 0087 0D000000 		.4byte	.LVL8-1
 2811 008b 34000000 		.4byte	.LFE221
 2812 008f 0400     		.2byte	0x4
 2813 0091 F3       		.byte	0xf3
 2814 0092 01       		.uleb128 0x1
 2815 0093 50       		.byte	0x50
 2816 0094 9F       		.byte	0x9f
 2817 0095 00000000 		.4byte	0
 2818 0099 00000000 		.4byte	0
 2819              	.LLST3:
 2820 009d 00000000 		.4byte	.LVL7
 2821 00a1 0D000000 		.4byte	.LVL8-1
 2822 00a5 0100     		.2byte	0x1
 2823 00a7 51       		.byte	0x51
 2824 00a8 0D000000 		.4byte	.LVL8-1
 2825 00ac 34000000 		.4byte	.LFE221
 2826 00b0 0100     		.2byte	0x1
 2827 00b2 57       		.byte	0x57
 2828 00b3 00000000 		.4byte	0
 2829 00b7 00000000 		.4byte	0
 2830              	.LLST4:
 2831 00bb 00000000 		.4byte	.LVL7
 2832 00bf 0D000000 		.4byte	.LVL8-1
 2833 00c3 0100     		.2byte	0x1
 2834 00c5 52       		.byte	0x52
 2835 00c6 0D000000 		.4byte	.LVL8-1
 2836 00ca 34000000 		.4byte	.LFE221
 2837 00ce 0100     		.2byte	0x1
 2838 00d0 56       		.byte	0x56
 2839 00d1 00000000 		.4byte	0
 2840 00d5 00000000 		.4byte	0
 2841              	.LLST5:
 2842 00d9 00000000 		.4byte	.LVL7
 2843 00dd 0D000000 		.4byte	.LVL8-1
 2844 00e1 0100     		.2byte	0x1
 2845 00e3 53       		.byte	0x53
 2846 00e4 0D000000 		.4byte	.LVL8-1
 2847 00e8 34000000 		.4byte	.LFE221
 2848 00ec 0100     		.2byte	0x1
 2849 00ee 55       		.byte	0x55
 2850 00ef 00000000 		.4byte	0
ARM GAS  /tmp/ccOHRbCf.s 			page 51


 2851 00f3 00000000 		.4byte	0
 2852              	.LLST6:
 2853 00f7 0E000000 		.4byte	.LVL8
 2854 00fb 1F000000 		.4byte	.LVL9-1
 2855 00ff 0100     		.2byte	0x1
 2856 0101 50       		.byte	0x50
 2857 0102 00000000 		.4byte	0
 2858 0106 00000000 		.4byte	0
 2859              	.LLST7:
 2860 010a 28000000 		.4byte	.LVL10
 2861 010e 2B000000 		.4byte	.LVL11-1
 2862 0112 0100     		.2byte	0x1
 2863 0114 50       		.byte	0x50
 2864 0115 2B000000 		.4byte	.LVL11-1
 2865 0119 30000000 		.4byte	.LVL12
 2866 011d 0100     		.2byte	0x1
 2867 011f 54       		.byte	0x54
 2868 0120 00000000 		.4byte	0
 2869 0124 00000000 		.4byte	0
 2870              	.LLST8:
 2871 0128 00000000 		.4byte	.LVL13
 2872 012c 11000000 		.4byte	.LVL14-1
 2873 0130 0100     		.2byte	0x1
 2874 0132 50       		.byte	0x50
 2875 0133 11000000 		.4byte	.LVL14-1
 2876 0137 3C000000 		.4byte	.LFE222
 2877 013b 0100     		.2byte	0x1
 2878 013d 55       		.byte	0x55
 2879 013e 00000000 		.4byte	0
 2880 0142 00000000 		.4byte	0
 2881              	.LLST9:
 2882 0146 00000000 		.4byte	.LVL13
 2883 014a 11000000 		.4byte	.LVL14-1
 2884 014e 0100     		.2byte	0x1
 2885 0150 51       		.byte	0x51
 2886 0151 11000000 		.4byte	.LVL14-1
 2887 0155 3C000000 		.4byte	.LFE222
 2888 0159 0100     		.2byte	0x1
 2889 015b 57       		.byte	0x57
 2890 015c 00000000 		.4byte	0
 2891 0160 00000000 		.4byte	0
 2892              	.LLST10:
 2893 0164 00000000 		.4byte	.LVL13
 2894 0168 11000000 		.4byte	.LVL14-1
 2895 016c 0100     		.2byte	0x1
 2896 016e 52       		.byte	0x52
 2897 016f 11000000 		.4byte	.LVL14-1
 2898 0173 3C000000 		.4byte	.LFE222
 2899 0177 0100     		.2byte	0x1
 2900 0179 56       		.byte	0x56
 2901 017a 00000000 		.4byte	0
 2902 017e 00000000 		.4byte	0
 2903              	.LLST11:
 2904 0182 00000000 		.4byte	.LVL13
 2905 0186 11000000 		.4byte	.LVL14-1
 2906 018a 0100     		.2byte	0x1
 2907 018c 53       		.byte	0x53
ARM GAS  /tmp/ccOHRbCf.s 			page 52


 2908 018d 11000000 		.4byte	.LVL14-1
 2909 0191 3C000000 		.4byte	.LFE222
 2910 0195 0100     		.2byte	0x1
 2911 0197 58       		.byte	0x58
 2912 0198 00000000 		.4byte	0
 2913 019c 00000000 		.4byte	0
 2914              	.LLST12:
 2915 01a0 12000000 		.4byte	.LVL14
 2916 01a4 23000000 		.4byte	.LVL15-1
 2917 01a8 0100     		.2byte	0x1
 2918 01aa 50       		.byte	0x50
 2919 01ab 00000000 		.4byte	0
 2920 01af 00000000 		.4byte	0
 2921              	.LLST13:
 2922 01b3 2E000000 		.4byte	.LVL16
 2923 01b7 31000000 		.4byte	.LVL17-1
 2924 01bb 0100     		.2byte	0x1
 2925 01bd 50       		.byte	0x50
 2926 01be 31000000 		.4byte	.LVL17-1
 2927 01c2 36000000 		.4byte	.LVL18
 2928 01c6 0100     		.2byte	0x1
 2929 01c8 54       		.byte	0x54
 2930 01c9 00000000 		.4byte	0
 2931 01cd 00000000 		.4byte	0
 2932              		.section	.debug_aranges,"",%progbits
 2933 0000 34000000 		.4byte	0x34
 2934 0004 0200     		.2byte	0x2
 2935 0006 00000000 		.4byte	.Ldebug_info0
 2936 000a 04       		.byte	0x4
 2937 000b 00       		.byte	0
 2938 000c 0000     		.2byte	0
 2939 000e 0000     		.2byte	0
 2940 0010 00000000 		.4byte	.LFB219
 2941 0014 0C000000 		.4byte	.LFE219-.LFB219
 2942 0018 00000000 		.4byte	.LFB220
 2943 001c 46000000 		.4byte	.LFE220-.LFB220
 2944 0020 00000000 		.4byte	.LFB221
 2945 0024 34000000 		.4byte	.LFE221-.LFB221
 2946 0028 00000000 		.4byte	.LFB222
 2947 002c 3C000000 		.4byte	.LFE222-.LFB222
 2948 0030 00000000 		.4byte	0
 2949 0034 00000000 		.4byte	0
 2950              		.section	.debug_ranges,"",%progbits
 2951              	.Ldebug_ranges0:
 2952 0000 00000000 		.4byte	.LFB219
 2953 0004 0C000000 		.4byte	.LFE219
 2954 0008 00000000 		.4byte	.LFB220
 2955 000c 46000000 		.4byte	.LFE220
 2956 0010 00000000 		.4byte	.LFB221
 2957 0014 34000000 		.4byte	.LFE221
 2958 0018 00000000 		.4byte	.LFB222
 2959 001c 3C000000 		.4byte	.LFE222
 2960 0020 00000000 		.4byte	0
 2961 0024 00000000 		.4byte	0
 2962              		.section	.debug_line,"",%progbits
 2963              	.Ldebug_line0:
 2964 0000 F1020000 		.section	.debug_str,"MS",%progbits,1
ARM GAS  /tmp/ccOHRbCf.s 			page 53


 2964      02002A02 
 2964      00000201 
 2964      FB0E0D00 
 2964      01010101 
 2965              	.LASF104:
 2966 0000 7466756E 		.ascii	"tfunc_t\000"
 2966      635F7400 
 2967              	.LASF54:
 2968 0008 72656164 		.ascii	"ready_list_t\000"
 2968      795F6C69 
 2968      73745F74 
 2968      00
 2969              	.LASF2:
 2970 0015 73697A65 		.ascii	"size_t\000"
 2970      5F7400
 2971              	.LASF89:
 2972 001c 7264796D 		.ascii	"rdymsg\000"
 2972      736700
 2973              	.LASF17:
 2974 0023 75696E74 		.ascii	"uint64_t\000"
 2974      36345F74 
 2974      00
 2975              	.LASF3:
 2976 002c 5F5F7569 		.ascii	"__uint8_t\000"
 2976      6E74385F 
 2976      7400
 2977              	.LASF86:
 2978 0036 706F7274 		.ascii	"port_intctx\000"
 2978      5F696E74 
 2978      63747800 
 2979              	.LASF73:
 2980 0042 73797374 		.ascii	"system_debug_t\000"
 2980      656D5F64 
 2980      65627567 
 2980      5F7400
 2981              	.LASF124:
 2982 0051 706F7274 		.ascii	"port_lock\000"
 2982      5F6C6F63 
 2982      6B00
 2983              	.LASF106:
 2984 005b 6D656D67 		.ascii	"memgetfunc_t\000"
 2984      65746675 
 2984      6E635F74 
 2984      00
 2985              	.LASF13:
 2986 0068 6C6F6E67 		.ascii	"long long unsigned int\000"
 2986      206C6F6E 
 2986      6720756E 
 2986      7369676E 
 2986      65642069 
 2987              	.LASF90:
 2988 007f 65786974 		.ascii	"exitcode\000"
 2988      636F6465 
 2988      00
 2989              	.LASF110:
 2990 0088 685F6672 		.ascii	"h_free\000"
 2990      656500
ARM GAS  /tmp/ccOHRbCf.s 			page 54


 2991              	.LASF70:
 2992 008f 76697274 		.ascii	"virtual_timers_list_t\000"
 2992      75616C5F 
 2992      74696D65 
 2992      72735F6C 
 2992      6973745F 
 2993              	.LASF134:
 2994 00a5 49544D5F 		.ascii	"ITM_RxBuffer\000"
 2994      52784275 
 2994      66666572 
 2994      00
 2995              	.LASF130:
 2996 00b2 68656170 		.ascii	"heapp\000"
 2996      7000
 2997              	.LASF112:
 2998 00b8 6E657874 		.ascii	"next\000"
 2998      00
 2999              	.LASF53:
 3000 00bd 63685F74 		.ascii	"ch_threads_queue\000"
 3000      68726561 
 3000      64735F71 
 3000      75657565 
 3000      00
 3001              	.LASF31:
 3002 00ce 705F7072 		.ascii	"p_prio\000"
 3002      696F00
 3003              	.LASF21:
 3004 00d5 74726566 		.ascii	"trefs_t\000"
 3004      735F7400 
 3005              	.LASF11:
 3006 00dd 6C6F6E67 		.ascii	"long long int\000"
 3006      206C6F6E 
 3006      6720696E 
 3006      7400
 3007              	.LASF1:
 3008 00eb 7369676E 		.ascii	"signed char\000"
 3008      65642063 
 3008      68617200 
 3009              	.LASF111:
 3010 00f7 685F6D74 		.ascii	"h_mtx\000"
 3010      7800
 3011              	.LASF47:
 3012 00fd 705F6D70 		.ascii	"p_mpool\000"
 3012      6F6F6C00 
 3013              	.LASF100:
 3014 0105 6D5F7175 		.ascii	"m_queue\000"
 3014      65756500 
 3015              	.LASF135:
 3016 010d 63684865 		.ascii	"chHeapFree\000"
 3016      61704672 
 3016      656500
 3017              	.LASF79:
 3018 0118 76746C69 		.ascii	"vtlist\000"
 3018      737400
 3019              	.LASF125:
 3020 011f 706F7274 		.ascii	"port_unlock\000"
 3020      5F756E6C 
ARM GAS  /tmp/ccOHRbCf.s 			page 55


 3020      6F636B00 
 3021              	.LASF22:
 3022 012b 74736C69 		.ascii	"tslices_t\000"
 3022      6365735F 
 3022      7400
 3023              	.LASF138:
 3024 0135 63685468 		.ascii	"chThdCreateI\000"
 3024      64437265 
 3024      61746549 
 3024      00
 3025              	.LASF92:
 3026 0142 77747472 		.ascii	"wttrp\000"
 3026      7000
 3027              	.LASF77:
 3028 0148 63685F73 		.ascii	"ch_system\000"
 3028      79737465 
 3028      6D00
 3029              	.LASF8:
 3030 0152 6C6F6E67 		.ascii	"long int\000"
 3030      20696E74 
 3030      00
 3031              	.LASF129:
 3032 015b 63685468 		.ascii	"chThdCreateFromHeap\000"
 3032      64437265 
 3032      61746546 
 3032      726F6D48 
 3032      65617000 
 3033              	.LASF20:
 3034 016f 74737461 		.ascii	"tstate_t\000"
 3034      74655F74 
 3034      00
 3035              	.LASF107:
 3036 0178 6D656D6F 		.ascii	"memory_heap_t\000"
 3036      72795F68 
 3036      6561705F 
 3036      7400
 3037              	.LASF33:
 3038 0186 705F6E65 		.ascii	"p_newer\000"
 3038      77657200 
 3039              	.LASF97:
 3040 018e 735F7175 		.ascii	"s_queue\000"
 3040      65756500 
 3041              	.LASF133:
 3042 0196 63685468 		.ascii	"chThdCreateFromMemoryPool\000"
 3042      64437265 
 3042      61746546 
 3042      726F6D4D 
 3042      656D6F72 
 3043              	.LASF59:
 3044 01b0 725F6E65 		.ascii	"r_newer\000"
 3044      77657200 
 3045              	.LASF120:
 3046 01b8 6D705F70 		.ascii	"mp_provider\000"
 3046      726F7669 
 3046      64657200 
 3047              	.LASF83:
 3048 01c4 72656761 		.ascii	"regarm_t\000"
ARM GAS  /tmp/ccOHRbCf.s 			page 56


 3048      726D5F74 
 3048      00
 3049              	.LASF66:
 3050 01cd 76745F70 		.ascii	"vt_prev\000"
 3050      72657600 
 3051              	.LASF105:
 3052 01d5 6D757465 		.ascii	"mutex_t\000"
 3052      785F7400 
 3053              	.LASF114:
 3054 01dd 616C6967 		.ascii	"align\000"
 3054      6E00
 3055              	.LASF81:
 3056 01e3 69646C65 		.ascii	"idle_thread_wa\000"
 3056      5F746872 
 3056      6561645F 
 3056      776100
 3057              	.LASF26:
 3058 01f2 636E745F 		.ascii	"cnt_t\000"
 3058      7400
 3059              	.LASF0:
 3060 01f8 756E7369 		.ascii	"unsigned int\000"
 3060      676E6564 
 3060      20696E74 
 3060      00
 3061              	.LASF65:
 3062 0205 76745F6E 		.ascii	"vt_next\000"
 3062      65787400 
 3063              	.LASF40:
 3064 020d 705F7469 		.ascii	"p_time\000"
 3064      6D6500
 3065              	.LASF93:
 3066 0214 77747365 		.ascii	"wtsemp\000"
 3066      6D7000
 3067              	.LASF67:
 3068 021b 76745F64 		.ascii	"vt_delta\000"
 3068      656C7461 
 3068      00
 3069              	.LASF42:
 3070 0224 705F6D73 		.ascii	"p_msgqueue\000"
 3070      67717565 
 3070      756500
 3071              	.LASF121:
 3072 022f 6D656D6F 		.ascii	"memory_pool_t\000"
 3072      72795F70 
 3072      6F6F6C5F 
 3072      7400
 3073              	.LASF98:
 3074 023d 735F636E 		.ascii	"s_cnt\000"
 3074      7400
 3075              	.LASF6:
 3076 0243 73686F72 		.ascii	"short unsigned int\000"
 3076      7420756E 
 3076      7369676E 
 3076      65642069 
 3076      6E7400
 3077              	.LASF50:
 3078 0256 63685F74 		.ascii	"ch_thread\000"
ARM GAS  /tmp/ccOHRbCf.s 			page 57


 3078      68726561 
 3078      6400
 3079              	.LASF139:
 3080 0260 63685363 		.ascii	"chSchWakeupS\000"
 3080      6857616B 
 3080      65757053 
 3080      00
 3081              	.LASF80:
 3082 026d 6D61696E 		.ascii	"mainthread\000"
 3082      74687265 
 3082      616400
 3083              	.LASF24:
 3084 0278 6D73675F 		.ascii	"msg_t\000"
 3084      7400
 3085              	.LASF76:
 3086 027e 63685F73 		.ascii	"ch_system_t\000"
 3086      79737465 
 3086      6D5F7400 
 3087              	.LASF19:
 3088 028a 746D6F64 		.ascii	"tmode_t\000"
 3088      655F7400 
 3089              	.LASF55:
 3090 0292 63685F72 		.ascii	"ch_ready_list\000"
 3090      65616479 
 3090      5F6C6973 
 3090      7400
 3091              	.LASF25:
 3092 02a0 6576656E 		.ascii	"eventmask_t\000"
 3092      746D6173 
 3092      6B5F7400 
 3093              	.LASF7:
 3094 02ac 5F5F696E 		.ascii	"__int32_t\000"
 3094      7433325F 
 3094      7400
 3095              	.LASF128:
 3096 02b6 63685468 		.ascii	"chThdAddRef\000"
 3096      64416464 
 3096      52656600 
 3097              	.LASF84:
 3098 02c2 73746B61 		.ascii	"stkalign_t\000"
 3098      6C69676E 
 3098      5F7400
 3099              	.LASF41:
 3100 02cd 705F7761 		.ascii	"p_waiting\000"
 3100      6974696E 
 3100      6700
 3101              	.LASF82:
 3102 02d7 73697A65 		.ascii	"sizetype\000"
 3102      74797065 
 3102      00
 3103              	.LASF48:
 3104 02e0 74687265 		.ascii	"thread_reference_t\000"
 3104      61645F72 
 3104      65666572 
 3104      656E6365 
 3104      5F7400
 3105              	.LASF71:
ARM GAS  /tmp/ccOHRbCf.s 			page 58


 3106 02f3 63685F76 		.ascii	"ch_virtual_timers_list\000"
 3106      69727475 
 3106      616C5F74 
 3106      696D6572 
 3106      735F6C69 
 3107              	.LASF49:
 3108 030a 74687265 		.ascii	"threads_list_t\000"
 3108      6164735F 
 3108      6C697374 
 3108      5F7400
 3109              	.LASF34:
 3110 0319 705F6F6C 		.ascii	"p_older\000"
 3110      64657200 
 3111              	.LASF58:
 3112 0321 725F6374 		.ascii	"r_ctx\000"
 3112      7800
 3113              	.LASF119:
 3114 0327 6D705F6F 		.ascii	"mp_object_size\000"
 3114      626A6563 
 3114      745F7369 
 3114      7A6500
 3115              	.LASF88:
 3116 0336 746D5F63 		.ascii	"tm_calibration_t\000"
 3116      616C6962 
 3116      72617469 
 3116      6F6E5F74 
 3116      00
 3117              	.LASF131:
 3118 0347 7072696F 		.ascii	"prio\000"
 3118      00
 3119              	.LASF60:
 3120 034c 725F6F6C 		.ascii	"r_older\000"
 3120      64657200 
 3121              	.LASF123:
 3122 0354 5F5F656E 		.ascii	"__enable_irq\000"
 3122      61626C65 
 3122      5F697271 
 3122      00
 3123              	.LASF12:
 3124 0361 5F5F7569 		.ascii	"__uint64_t\000"
 3124      6E743634 
 3124      5F7400
 3125              	.LASF117:
 3126 036c 70685F6E 		.ascii	"ph_next\000"
 3126      65787400 
 3127              	.LASF142:
 3128 0374 43686962 		.ascii	"ChibiOS_3.0.2/os/rt/src/chdynamic.c\000"
 3128      694F535F 
 3128      332E302E 
 3128      322F6F73 
 3128      2F72742F 
 3129              	.LASF122:
 3130 0398 5F5F6469 		.ascii	"__disable_irq\000"
 3130      7361626C 
 3130      655F6972 
 3130      7100
 3131              	.LASF132:
ARM GAS  /tmp/ccOHRbCf.s 			page 59


 3132 03a6 72656673 		.ascii	"refs\000"
 3132      00
 3133              	.LASF63:
 3134 03ab 76697274 		.ascii	"virtual_timer_t\000"
 3134      75616C5F 
 3134      74696D65 
 3134      725F7400 
 3135              	.LASF30:
 3136 03bb 705F7072 		.ascii	"p_prev\000"
 3136      657600
 3137              	.LASF23:
 3138 03c2 74707269 		.ascii	"tprio_t\000"
 3138      6F5F7400 
 3139              	.LASF143:
 3140 03ca 2F686F6D 		.ascii	"/home/benjamin/Skrivbord/SP-RCCar/Embedded/Mote/\000"
 3140      652F6265 
 3140      6E6A616D 
 3140      696E2F53 
 3140      6B726976 
 3141              	.LASF74:
 3142 03fb 63685F73 		.ascii	"ch_system_debug\000"
 3142      79737465 
 3142      6D5F6465 
 3142      62756700 
 3143              	.LASF15:
 3144 040b 696E7433 		.ascii	"int32_t\000"
 3144      325F7400 
 3145              	.LASF4:
 3146 0413 756E7369 		.ascii	"unsigned char\000"
 3146      676E6564 
 3146      20636861 
 3146      7200
 3147              	.LASF144:
 3148 0421 68656170 		.ascii	"heap_header\000"
 3148      5F686561 
 3148      64657200 
 3149              	.LASF45:
 3150 042d 705F6D74 		.ascii	"p_mtxlist\000"
 3150      786C6973 
 3150      7400
 3151              	.LASF5:
 3152 0437 73686F72 		.ascii	"short int\000"
 3152      7420696E 
 3152      7400
 3153              	.LASF36:
 3154 0441 705F7374 		.ascii	"p_state\000"
 3154      61746500 
 3155              	.LASF39:
 3156 0449 705F7072 		.ascii	"p_preempt\000"
 3156      65656D70 
 3156      7400
 3157              	.LASF57:
 3158 0453 725F7072 		.ascii	"r_prio\000"
 3158      696F00
 3159              	.LASF95:
 3160 045a 65776D61 		.ascii	"ewmask\000"
 3160      736B00
ARM GAS  /tmp/ccOHRbCf.s 			page 60


 3161              	.LASF29:
 3162 0461 705F6E65 		.ascii	"p_next\000"
 3162      787400
 3163              	.LASF37:
 3164 0468 705F666C 		.ascii	"p_flags\000"
 3164      61677300 
 3165              	.LASF127:
 3166 0470 5F5F6675 		.ascii	"__func__\000"
 3166      6E635F5F 
 3166      00
 3167              	.LASF126:
 3168 0479 63685379 		.ascii	"chSysLock\000"
 3168      734C6F63 
 3168      6B00
 3169              	.LASF146:
 3170 0483 63685468 		.ascii	"chThdRelease\000"
 3170      6452656C 
 3170      65617365 
 3170      00
 3171              	.LASF137:
 3172 0490 63684865 		.ascii	"chHeapAlloc\000"
 3172      6170416C 
 3172      6C6F6300 
 3173              	.LASF96:
 3174 049c 63685F73 		.ascii	"ch_semaphore\000"
 3174      656D6170 
 3174      686F7265 
 3174      00
 3175              	.LASF44:
 3176 04a9 705F6570 		.ascii	"p_epending\000"
 3176      656E6469 
 3176      6E6700
 3177              	.LASF16:
 3178 04b4 75696E74 		.ascii	"uint32_t\000"
 3178      33325F74 
 3178      00
 3179              	.LASF94:
 3180 04bd 77746D74 		.ascii	"wtmtxp\000"
 3180      787000
 3181              	.LASF56:
 3182 04c4 725F7175 		.ascii	"r_queue\000"
 3182      65756500 
 3183              	.LASF51:
 3184 04cc 63685F74 		.ascii	"ch_threads_list\000"
 3184      68726561 
 3184      64735F6C 
 3184      69737400 
 3185              	.LASF113:
 3186 04dc 68656170 		.ascii	"heap\000"
 3186      00
 3187              	.LASF10:
 3188 04e1 6C6F6E67 		.ascii	"long unsigned int\000"
 3188      20756E73 
 3188      69676E65 
 3188      6420696E 
 3188      7400
 3189              	.LASF61:
ARM GAS  /tmp/ccOHRbCf.s 			page 61


 3190 04f3 725F6375 		.ascii	"r_current\000"
 3190      7272656E 
 3190      7400
 3191              	.LASF103:
 3192 04fd 63686172 		.ascii	"char\000"
 3192      00
 3193              	.LASF141:
 3194 0502 474E5520 		.ascii	"GNU C 4.9.3 20150529 (release) [ARM/embedded-4_9-br"
 3194      4320342E 
 3194      392E3320 
 3194      32303135 
 3194      30353239 
 3195 0535 616E6368 		.ascii	"anch revision 227977] -mcpu=cortex-m4 -mfloat-abi=h"
 3195      20726576 
 3195      6973696F 
 3195      6E203232 
 3195      37393737 
 3196 0568 61726420 		.ascii	"ard -mfpu=fpv4-sp-d16 -mno-thumb-interwork -mthumb "
 3196      2D6D6670 
 3196      753D6670 
 3196      76342D73 
 3196      702D6431 
 3197 059b 2D676764 		.ascii	"-ggdb -O2 -std=gnu99 -fomit-frame-pointer -falign-f"
 3197      62202D4F 
 3197      32202D73 
 3197      74643D67 
 3197      6E753939 
 3198 05ce 756E6374 		.ascii	"unctions=16 -ffunction-sections -fdata-sections -fn"
 3198      696F6E73 
 3198      3D313620 
 3198      2D666675 
 3198      6E637469 
 3199 0601 6F2D636F 		.ascii	"o-common -fsingle-precision-constant\000"
 3199      6D6D6F6E 
 3199      202D6673 
 3199      696E676C 
 3199      652D7072 
 3200              	.LASF102:
 3201 0626 6D5F6E65 		.ascii	"m_next\000"
 3201      787400
 3202              	.LASF27:
 3203 062d 73797374 		.ascii	"systime_t\000"
 3203      696D655F 
 3203      7400
 3204              	.LASF46:
 3205 0637 705F7265 		.ascii	"p_realprio\000"
 3205      616C7072 
 3205      696F00
 3206              	.LASF62:
 3207 0642 76746675 		.ascii	"vtfunc_t\000"
 3207      6E635F74 
 3207      00
 3208              	.LASF9:
 3209 064b 5F5F7569 		.ascii	"__uint32_t\000"
 3209      6E743332 
 3209      5F7400
 3210              	.LASF75:
ARM GAS  /tmp/ccOHRbCf.s 			page 62


 3211 0656 70616E69 		.ascii	"panic_msg\000"
 3211      635F6D73 
 3211      6700
 3212              	.LASF87:
 3213 0660 6F666673 		.ascii	"offset\000"
 3213      657400
 3214              	.LASF99:
 3215 0667 63685F6D 		.ascii	"ch_mutex\000"
 3215      75746578 
 3215      00
 3216              	.LASF118:
 3217 0670 6D705F6E 		.ascii	"mp_next\000"
 3217      65787400 
 3218              	.LASF85:
 3219 0678 636F6E74 		.ascii	"context\000"
 3219      65787400 
 3220              	.LASF64:
 3221 0680 63685F76 		.ascii	"ch_virtual_timer\000"
 3221      69727475 
 3221      616C5F74 
 3221      696D6572 
 3221      00
 3222              	.LASF18:
 3223 0691 7274636E 		.ascii	"rtcnt_t\000"
 3223      745F7400 
 3224              	.LASF69:
 3225 0699 76745F70 		.ascii	"vt_par\000"
 3225      617200
 3226              	.LASF52:
 3227 06a0 74687265 		.ascii	"threads_queue_t\000"
 3227      6164735F 
 3227      71756575 
 3227      655F7400 
 3228              	.LASF116:
 3229 06b0 706F6F6C 		.ascii	"pool_header\000"
 3229      5F686561 
 3229      64657200 
 3230              	.LASF38:
 3231 06bc 705F7265 		.ascii	"p_refs\000"
 3231      667300
 3232              	.LASF28:
 3233 06c3 74687265 		.ascii	"thread_t\000"
 3233      61645F74 
 3233      00
 3234              	.LASF78:
 3235 06cc 726C6973 		.ascii	"rlist\000"
 3235      7400
 3236              	.LASF14:
 3237 06d2 75696E74 		.ascii	"uint8_t\000"
 3237      385F7400 
 3238              	.LASF140:
 3239 06da 6368506F 		.ascii	"chPoolAlloc\000"
 3239      6F6C416C 
 3239      6C6F6300 
 3240              	.LASF136:
 3241 06e6 6368506F 		.ascii	"chPoolFree\000"
 3241      6F6C4672 
ARM GAS  /tmp/ccOHRbCf.s 			page 63


 3241      656500
 3242              	.LASF109:
 3243 06f1 685F7072 		.ascii	"h_provider\000"
 3243      6F766964 
 3243      657200
 3244              	.LASF91:
 3245 06fc 77746F62 		.ascii	"wtobjp\000"
 3245      6A7000
 3246              	.LASF35:
 3247 0703 705F6E61 		.ascii	"p_name\000"
 3247      6D6500
 3248              	.LASF115:
 3249 070a 73697A65 		.ascii	"size\000"
 3249      00
 3250              	.LASF72:
 3251 070f 76745F73 		.ascii	"vt_systime\000"
 3251      79737469 
 3251      6D6500
 3252              	.LASF145:
 3253 071a 63685379 		.ascii	"chSysUnlock\000"
 3253      73556E6C 
 3253      6F636B00 
 3254              	.LASF43:
 3255 0726 705F6D73 		.ascii	"p_msg\000"
 3255      6700
 3256              	.LASF101:
 3257 072c 6D5F6F77 		.ascii	"m_owner\000"
 3257      6E657200 
 3258              	.LASF32:
 3259 0734 705F6374 		.ascii	"p_ctx\000"
 3259      7800
 3260              	.LASF68:
 3261 073a 76745F66 		.ascii	"vt_func\000"
 3261      756E6300 
 3262              	.LASF108:
 3263 0742 6D656D6F 		.ascii	"memory_heap\000"
 3263      72795F68 
 3263      65617000 
 3264              		.ident	"GCC: (GNU Tools for ARM Embedded Processors) 4.9.3 20150529 (release) [ARM/embedded-4_9-br
ARM GAS  /tmp/ccOHRbCf.s 			page 64


DEFINED SYMBOLS
                            *ABS*:0000000000000000 chdynamic.c
     /tmp/ccOHRbCf.s:21     .text.chThdAddRef:0000000000000000 $t
     /tmp/ccOHRbCf.s:27     .text.chThdAddRef:0000000000000000 chThdAddRef
     /tmp/ccOHRbCf.s:75     .text.chThdRelease:0000000000000000 $t
     /tmp/ccOHRbCf.s:81     .text.chThdRelease:0000000000000000 chThdRelease
     /tmp/ccOHRbCf.s:171    .text.chThdCreateFromHeap:0000000000000000 $t
     /tmp/ccOHRbCf.s:177    .text.chThdCreateFromHeap:0000000000000000 chThdCreateFromHeap
     /tmp/ccOHRbCf.s:262    .text.chThdCreateFromMemoryPool:0000000000000000 $t
     /tmp/ccOHRbCf.s:268    .text.chThdCreateFromMemoryPool:0000000000000000 chThdCreateFromMemoryPool
                     .debug_frame:0000000000000010 $d

UNDEFINED SYMBOLS
chHeapFree
chPoolFree
chHeapAlloc
chThdCreateI
chSchWakeupS
chPoolAlloc
