ARM GAS  /tmp/cceRg5rP.s 			page 1


   1              		.syntax unified
   2              		.cpu cortex-m4
   3              		.eabi_attribute 27, 1
   4              		.eabi_attribute 28, 1
   5              		.fpu fpv4-sp-d16
   6              		.eabi_attribute 20, 1
   7              		.eabi_attribute 21, 1
   8              		.eabi_attribute 23, 3
   9              		.eabi_attribute 24, 1
  10              		.eabi_attribute 25, 1
  11              		.eabi_attribute 26, 1
  12              		.eabi_attribute 30, 2
  13              		.eabi_attribute 34, 1
  14              		.eabi_attribute 18, 4
  15              		.thumb
  16              		.file	"chmemcore.c"
  17              		.text
  18              	.Ltext0:
  19              		.cfi_sections	.debug_frame
  20              		.section	.text._core_init,"ax",%progbits
  21              		.align	2
  22              		.p2align 4,,15
  23              		.global	_core_init
  24              		.thumb
  25              		.thumb_func
  26              		.type	_core_init, %function
  27              	_core_init:
  28              	.LFB219:
  29              		.file 1 "ChibiOS_3.0.2/os/rt/src/chmemcore.c"
  30              		.loc 1 78 0
  31              		.cfi_startproc
  32              		@ args = 0, pretend = 0, frame = 0
  33              		@ frame_needed = 0, uses_anonymous_args = 0
  34              		@ link register save eliminated.
  35              		.loc 1 84 0
  36 0000 054A     		ldr	r2, .L2
  37              		.loc 1 85 0
  38 0002 064B     		ldr	r3, .L2+4
  39              		.loc 1 84 0
  40 0004 0648     		ldr	r0, .L2+8
  41              		.loc 1 85 0
  42 0006 0749     		ldr	r1, .L2+12
  43              		.loc 1 84 0
  44 0008 22F00702 		bic	r2, r2, #7
  45              		.loc 1 85 0
  46 000c 23F00703 		bic	r3, r3, #7
  47              		.loc 1 84 0
  48 0010 0260     		str	r2, [r0]
  49              		.loc 1 85 0
  50 0012 0B60     		str	r3, [r1]
  51 0014 7047     		bx	lr
  52              	.L3:
  53 0016 00BF     		.align	2
  54              	.L2:
  55 0018 07000000 		.word	__heap_base__+7
  56 001c 00000000 		.word	__heap_end__
  57 0020 00000000 		.word	.LANCHOR0
ARM GAS  /tmp/cceRg5rP.s 			page 2


  58 0024 00000000 		.word	.LANCHOR1
  59              		.cfi_endproc
  60              	.LFE219:
  61              		.size	_core_init, .-_core_init
  62              		.section	.text.chCoreAlloc,"ax",%progbits
  63              		.align	2
  64              		.p2align 4,,15
  65              		.global	chCoreAlloc
  66              		.thumb
  67              		.thumb_func
  68              		.type	chCoreAlloc, %function
  69              	chCoreAlloc:
  70              	.LFB220:
  71              		.loc 1 109 0
  72              		.cfi_startproc
  73              		@ args = 0, pretend = 0, frame = 0
  74              		@ frame_needed = 0, uses_anonymous_args = 0
  75              		@ link register save eliminated.
  76              	.LVL0:
  77 0000 10B4     		push	{r4}
  78              		.cfi_def_cfa_offset 4
  79              		.cfi_offset 4, -4
  80              	.LBB26:
  81              	.LBB27:
  82              	.LBB28:
  83              	.LBB29:
  84              		.file 2 "ChibiOS_3.0.2/os/ext/CMSIS/include/core_cmFunc.h"
  85              		.loc 2 342 0
  86              	@ 342 "ChibiOS_3.0.2/os/ext/CMSIS/include/core_cmFunc.h" 1
  87 0002 72B6     		cpsid i
  88              	@ 0 "" 2
  89              	.LVL1:
  90              		.thumb
  91              	.LBE29:
  92              	.LBE28:
  93              	.LBE27:
  94              	.LBE26:
  95              	.LBB30:
  96              	.LBB31:
  97              		.loc 1 138 0
  98 0004 084C     		ldr	r4, .L8
  99 0006 094B     		ldr	r3, .L8+4
 100 0008 2268     		ldr	r2, [r4]
 101 000a 1968     		ldr	r1, [r3]
 102              		.loc 1 136 0
 103 000c C31D     		adds	r3, r0, #7
 104 000e 23F00703 		bic	r3, r3, #7
 105              	.LVL2:
 106              		.loc 1 138 0
 107 0012 891A     		subs	r1, r1, r2
 108 0014 8B42     		cmp	r3, r1
 109              	.LVL3:
 110              		.loc 1 143 0
 111 0016 9DBF     		ittte	ls
 112 0018 9B18     		addls	r3, r3, r2
 113              	.LVL4:
 114 001a 2360     		strls	r3, [r4]
ARM GAS  /tmp/cceRg5rP.s 			page 3


 115              		.loc 1 145 0
 116 001c 1046     		movls	r0, r2
 117              	.LVL5:
 118              		.loc 1 140 0
 119 001e 0020     		movhi	r0, #0
 120              	.LBE31:
 121              	.LBE30:
 122              	.LBB32:
 123              	.LBB33:
 124              	.LBB34:
 125              	.LBB35:
 126              	.LBB36:
 127              		.loc 2 331 0
 128              	@ 331 "ChibiOS_3.0.2/os/ext/CMSIS/include/core_cmFunc.h" 1
 129 0020 62B6     		cpsie i
 130              	@ 0 "" 2
 131              		.thumb
 132              	.LBE36:
 133              	.LBE35:
 134              	.LBE34:
 135              	.LBE33:
 136              	.LBE32:
 137              		.loc 1 117 0
 138 0022 5DF8044B 		ldr	r4, [sp], #4
 139              		.cfi_restore 4
 140              		.cfi_def_cfa_offset 0
 141 0026 7047     		bx	lr
 142              	.L9:
 143              		.align	2
 144              	.L8:
 145 0028 00000000 		.word	.LANCHOR0
 146 002c 00000000 		.word	.LANCHOR1
 147              		.cfi_endproc
 148              	.LFE220:
 149              		.size	chCoreAlloc, .-chCoreAlloc
 150              		.section	.text.chCoreAllocI,"ax",%progbits
 151              		.align	2
 152              		.p2align 4,,15
 153              		.global	chCoreAllocI
 154              		.thumb
 155              		.thumb_func
 156              		.type	chCoreAllocI, %function
 157              	chCoreAllocI:
 158              	.LFB221:
 159              		.loc 1 131 0
 160              		.cfi_startproc
 161              		@ args = 0, pretend = 0, frame = 0
 162              		@ frame_needed = 0, uses_anonymous_args = 0
 163              		@ link register save eliminated.
 164              	.LVL6:
 165 0000 10B4     		push	{r4}
 166              		.cfi_def_cfa_offset 4
 167              		.cfi_offset 4, -4
 168              		.loc 1 138 0
 169 0002 084B     		ldr	r3, .L14
 170 0004 084C     		ldr	r4, .L14+4
 171 0006 1968     		ldr	r1, [r3]
ARM GAS  /tmp/cceRg5rP.s 			page 4


 172 0008 2268     		ldr	r2, [r4]
 173              		.loc 1 136 0
 174 000a 0730     		adds	r0, r0, #7
 175              	.LVL7:
 176 000c 20F00703 		bic	r3, r0, #7
 177              	.LVL8:
 178              		.loc 1 138 0
 179 0010 891A     		subs	r1, r1, r2
 180 0012 8B42     		cmp	r3, r1
 181              	.LVL9:
 182              		.loc 1 143 0
 183 0014 9DBF     		ittte	ls
 184 0016 9B18     		addls	r3, r3, r2
 185              	.LVL10:
 186 0018 2360     		strls	r3, [r4]
 187              		.loc 1 145 0
 188 001a 1046     		movls	r0, r2
 189              	.LVL11:
 190              		.loc 1 140 0
 191 001c 0020     		movhi	r0, #0
 192              		.loc 1 146 0
 193 001e 5DF8044B 		ldr	r4, [sp], #4
 194              		.cfi_restore 4
 195              		.cfi_def_cfa_offset 0
 196 0022 7047     		bx	lr
 197              	.L15:
 198              		.align	2
 199              	.L14:
 200 0024 00000000 		.word	.LANCHOR1
 201 0028 00000000 		.word	.LANCHOR0
 202              		.cfi_endproc
 203              	.LFE221:
 204              		.size	chCoreAllocI, .-chCoreAllocI
 205              		.section	.text.chCoreGetStatusX,"ax",%progbits
 206              		.align	2
 207              		.p2align 4,,15
 208              		.global	chCoreGetStatusX
 209              		.thumb
 210              		.thumb_func
 211              		.type	chCoreGetStatusX, %function
 212              	chCoreGetStatusX:
 213              	.LFB222:
 214              		.loc 1 155 0
 215              		.cfi_startproc
 216              		@ args = 0, pretend = 0, frame = 0
 217              		@ frame_needed = 0, uses_anonymous_args = 0
 218              		@ link register save eliminated.
 219              		.loc 1 158 0
 220 0000 024A     		ldr	r2, .L17
 221 0002 034B     		ldr	r3, .L17+4
 222 0004 1068     		ldr	r0, [r2]
 223 0006 1B68     		ldr	r3, [r3]
 224              		.loc 1 160 0
 225 0008 C01A     		subs	r0, r0, r3
 226 000a 7047     		bx	lr
 227              	.L18:
 228              		.align	2
ARM GAS  /tmp/cceRg5rP.s 			page 5


 229              	.L17:
 230 000c 00000000 		.word	.LANCHOR1
 231 0010 00000000 		.word	.LANCHOR0
 232              		.cfi_endproc
 233              	.LFE222:
 234              		.size	chCoreGetStatusX, .-chCoreGetStatusX
 235              		.section	.bss.endmem,"aw",%nobits
 236              		.align	2
 237              		.set	.LANCHOR1,. + 0
 238              		.type	endmem, %object
 239              		.size	endmem, 4
 240              	endmem:
 241 0000 00000000 		.space	4
 242              		.section	.bss.nextmem,"aw",%nobits
 243              		.align	2
 244              		.set	.LANCHOR0,. + 0
 245              		.type	nextmem, %object
 246              		.size	nextmem, 4
 247              	nextmem:
 248 0000 00000000 		.space	4
 249              		.text
 250              	.Letext0:
 251              		.file 3 "/usr/lib/gcc/arm-none-eabi/4.9.3/include/stddef.h"
 252              		.file 4 "/usr/arm-none-eabi/include/machine/_default_types.h"
 253              		.file 5 "/usr/arm-none-eabi/include/sys/_stdint.h"
 254              		.file 6 "ChibiOS_3.0.2/os/rt/ports/ARMCMx/compilers/GCC/chtypes.h"
 255              		.file 7 "ChibiOS_3.0.2/os/rt/include/chsystypes.h"
 256              		.file 8 "ChibiOS_3.0.2/os/rt/include/chschd.h"
 257              		.file 9 "ChibiOS_3.0.2/os/rt/ports/ARMCMx/chcore.h"
 258              		.file 10 "ChibiOS_3.0.2/os/rt/ports/ARMCMx/chcore_v7m.h"
 259              		.file 11 "ChibiOS_3.0.2/os/rt/include/chtm.h"
 260              		.file 12 "ChibiOS_3.0.2/os/rt/include/chsem.h"
 261              		.file 13 "ChibiOS_3.0.2/os/rt/include/chmtx.h"
 262              		.file 14 "ChibiOS_3.0.2/os/rt/include/chsys.h"
 263              		.file 15 "ChibiOS_3.0.2/os/ext/CMSIS/include/core_cm4.h"