ARM GAS  /tmp/ccXShCu5.s 			page 1


   1              		.syntax unified
   2              		.cpu cortex-m4
   3              		.eabi_attribute 27, 1
   4              		.eabi_attribute 28, 1
   5              		.fpu fpv4-sp-d16
   6              		.eabi_attribute 20, 1
   7              		.eabi_attribute 21, 1
   8              		.eabi_attribute 23, 3
   9              		.eabi_attribute 24, 1
  10              		.eabi_attribute 25, 1
  11              		.eabi_attribute 26, 1
  12              		.eabi_attribute 30, 2
  13              		.eabi_attribute 34, 1
  14              		.eabi_attribute 18, 4
  15              		.thumb
  16              		.file	"chmempools.c"
  17              		.text
  18              	.Ltext0:
  19              		.cfi_sections	.debug_frame
  20              		.section	.text.chPoolObjectInit,"ax",%progbits
  21              		.align	2
  22              		.p2align 4,,15
  23              		.global	chPoolObjectInit
  24              		.thumb
  25              		.thumb_func
  26              		.type	chPoolObjectInit, %function
  27              	chPoolObjectInit:
  28              	.LFB219:
  29              		.file 1 "ChibiOS_3.0.2/os/rt/src/chmempools.c"
  30              		.loc 1 75 0
  31              		.cfi_startproc
  32              		@ args = 0, pretend = 0, frame = 0
  33              		@ frame_needed = 0, uses_anonymous_args = 0
  34              		@ link register save eliminated.
  35              	.LVL0:
  36              		.loc 1 79 0
  37 0000 0023     		movs	r3, #0
  38              		.loc 1 80 0
  39 0002 4160     		str	r1, [r0, #4]
  40              		.loc 1 81 0
  41 0004 8260     		str	r2, [r0, #8]
  42              		.loc 1 79 0
  43 0006 0360     		str	r3, [r0]
  44 0008 7047     		bx	lr
  45              		.cfi_endproc
  46              	.LFE219:
  47              		.size	chPoolObjectInit, .-chPoolObjectInit
  48 000a 00BF     		.section	.text.chPoolLoadArray,"ax",%progbits
  49              		.align	2
  50              		.p2align 4,,15
  51              		.global	chPoolLoadArray
  52              		.thumb
  53              		.thumb_func
  54              		.type	chPoolLoadArray, %function
  55              	chPoolLoadArray:
  56              	.LFB220:
  57              		.loc 1 97 0
ARM GAS  /tmp/ccXShCu5.s 			page 2


  58              		.cfi_startproc
  59              		@ args = 0, pretend = 0, frame = 0
  60              		@ frame_needed = 0, uses_anonymous_args = 0
  61              		@ link register save eliminated.
  62              	.LVL1:
  63              		.loc 1 101 0
  64 0000 42B1     		cbz	r2, .L2
  65              	.LVL2:
  66              	.L4:
  67              	.LBB77:
  68              	.LBB78:
  69              	.LBB79:
  70              	.LBB80:
  71              	.LBB81:
  72              	.LBB82:
  73              		.file 2 "ChibiOS_3.0.2/os/ext/CMSIS/include/core_cmFunc.h"
  74              		.loc 2 342 0
  75              	@ 342 "ChibiOS_3.0.2/os/ext/CMSIS/include/core_cmFunc.h" 1
  76 0002 72B6     		cpsid i
  77              	@ 0 "" 2
  78              	.LVL3:
  79              		.thumb
  80              	.LBE82:
  81              	.LBE81:
  82              	.LBE80:
  83              	.LBE79:
  84              	.LBB83:
  85              	.LBB84:
  86              		.loc 1 177 0
  87 0004 0368     		ldr	r3, [r0]
  88 0006 0B60     		str	r3, [r1]
  89              		.loc 1 178 0
  90 0008 0160     		str	r1, [r0]
  91              	.LBE84:
  92              	.LBE83:
  93              	.LBB85:
  94              	.LBB86:
  95              	.LBB87:
  96              	.LBB88:
  97              	.LBB89:
  98              		.loc 2 331 0
  99              	@ 331 "ChibiOS_3.0.2/os/ext/CMSIS/include/core_cmFunc.h" 1
 100 000a 62B6     		cpsie i
 101              	@ 0 "" 2
 102              		.thumb
 103              	.LBE89:
 104              	.LBE88:
 105              	.LBE87:
 106              	.LBE86:
 107              	.LBE85:
 108              	.LBE78:
 109              	.LBE77:
 110              		.loc 1 104 0
 111 000c 4368     		ldr	r3, [r0, #4]
 112              		.loc 1 101 0
 113 000e 013A     		subs	r2, r2, #1
 114              	.LVL4:
ARM GAS  /tmp/ccXShCu5.s 			page 3


 115              		.loc 1 104 0
 116 0010 1944     		add	r1, r1, r3
 117              	.LVL5:
 118              		.loc 1 101 0
 119 0012 F6D1     		bne	.L4
 120              	.LVL6:
 121              	.L2:
 122 0014 7047     		bx	lr
 123              		.cfi_endproc
 124              	.LFE220:
 125              		.size	chPoolLoadArray, .-chPoolLoadArray
 126              		.section	.text.chPoolAllocI,"ax",%progbits
 127              		.align	2
 128              		.p2align 4,,15
 129              		.global	chPoolAllocI
 130              		.thumb
 131              		.thumb_func
 132              		.type	chPoolAllocI, %function
 133              	chPoolAllocI:
 134              	.LFB221:
 135              		.loc 1 120 0
 136              		.cfi_startproc
 137              		@ args = 0, pretend = 0, frame = 0
 138              		@ frame_needed = 0, uses_anonymous_args = 0
 139              		@ link register save eliminated.
 140              	.LVL7:
 141              		.loc 1 126 0
 142 0000 0368     		ldr	r3, [r0]
 143              	.LVL8:
 144              		.loc 1 128 0
 145 0002 1BB1     		cbz	r3, .L9
 146              		.loc 1 129 0
 147 0004 1A68     		ldr	r2, [r3]
 148 0006 0260     		str	r2, [r0]
 149              	.L10:
 150              		.loc 1 137 0
 151 0008 1846     		mov	r0, r3
 152              	.LVL9:
 153 000a 7047     		bx	lr
 154              	.LVL10:
 155              	.L9:
 156              		.loc 1 131 0
 157 000c 8268     		ldr	r2, [r0, #8]
 158 000e 002A     		cmp	r2, #0
 159 0010 FAD0     		beq	.L10
 160              		.loc 1 132 0
 161 0012 4068     		ldr	r0, [r0, #4]
 162              	.LVL11:
 163 0014 1047     		bx	r2
 164              	.LVL12:
 165              		.cfi_endproc
 166              	.LFE221:
 167              		.size	chPoolAllocI, .-chPoolAllocI
 168 0016 00BF     		.section	.text.chPoolAlloc,"ax",%progbits
 169              		.align	2
 170              		.p2align 4,,15
 171              		.global	chPoolAlloc
ARM GAS  /tmp/ccXShCu5.s 			page 4


 172              		.thumb
 173              		.thumb_func
 174              		.type	chPoolAlloc, %function
 175              	chPoolAlloc:
 176              	.LFB222:
 177              		.loc 1 149 0
 178              		.cfi_startproc
 179              		@ args = 0, pretend = 0, frame = 0
 180              		@ frame_needed = 0, uses_anonymous_args = 0
 181              	.LVL13:
 182 0000 08B5     		push	{r3, lr}
 183              		.cfi_def_cfa_offset 8
 184              		.cfi_offset 3, -8
 185              		.cfi_offset 14, -4
 186              		.loc 1 149 0
 187 0002 0346     		mov	r3, r0
 188              	.LBB90:
 189              	.LBB91:
 190              	.LBB92:
 191              	.LBB93:
 192              		.loc 2 342 0
 193              	@ 342 "ChibiOS_3.0.2/os/ext/CMSIS/include/core_cmFunc.h" 1
 194 0004 72B6     		cpsid i
 195              	@ 0 "" 2
 196              	.LVL14:
 197              		.thumb
 198              	.LBE93:
 199              	.LBE92:
 200              	.LBE91:
 201              	.LBE90:
 202              	.LBB94:
 203              	.LBB95:
 204              		.loc 1 126 0
 205 0006 0068     		ldr	r0, [r0]
 206              	.LVL15:
 207              		.loc 1 128 0
 208 0008 18B1     		cbz	r0, .L15
 209              		.loc 1 129 0
 210 000a 0268     		ldr	r2, [r0]
 211 000c 1A60     		str	r2, [r3]
 212              	.L16:
 213              	.LBE95:
 214              	.LBE94:
 215              	.LBB97:
 216              	.LBB98:
 217              	.LBB99:
 218              	.LBB100:
 219              	.LBB101:
 220              		.loc 2 331 0
 221              	@ 331 "ChibiOS_3.0.2/os/ext/CMSIS/include/core_cmFunc.h" 1
 222 000e 62B6     		cpsie i
 223              	@ 0 "" 2
 224              		.thumb
 225              	.LBE101:
 226              	.LBE100:
 227              	.LBE99:
 228              	.LBE98:
ARM GAS  /tmp/ccXShCu5.s 			page 5


 229              	.LBE97:
 230              		.loc 1 157 0
 231 0010 08BD     		pop	{r3, pc}
 232              	.LVL16:
 233              	.L15:
 234              	.LBB106:
 235              	.LBB96:
 236              		.loc 1 131 0
 237 0012 9A68     		ldr	r2, [r3, #8]
 238 0014 002A     		cmp	r2, #0
 239 0016 FAD0     		beq	.L16
 240              		.loc 1 132 0
 241 0018 5868     		ldr	r0, [r3, #4]
 242              	.LVL17:
 243 001a 9047     		blx	r2
 244              	.LVL18:
 245              	.LBE96:
 246              	.LBE106:
 247              	.LBB107:
 248              	.LBB105:
 249              	.LBB104:
 250              	.LBB103:
 251              	.LBB102:
 252              		.loc 2 331 0
 253              	@ 331 "ChibiOS_3.0.2/os/ext/CMSIS/include/core_cmFunc.h" 1
 254 001c 62B6     		cpsie i
 255              	@ 0 "" 2
 256              		.thumb
 257              	.LBE102:
 258              	.LBE103:
 259              	.LBE104:
 260              	.LBE105:
 261              	.LBE107:
 262              		.loc 1 157 0
 263 001e 08BD     		pop	{r3, pc}
 264              		.cfi_endproc
 265              	.LFE222:
 266              		.size	chPoolAlloc, .-chPoolAlloc
 267              		.section	.text.chPoolFreeI,"ax",%progbits
 268              		.align	2
 269              		.p2align 4,,15
 270              		.global	chPoolFreeI
 271              		.thumb
 272              		.thumb_func
 273              		.type	chPoolFreeI, %function
 274              	chPoolFreeI:
 275              	.LFB223:
 276              		.loc 1 171 0
 277              		.cfi_startproc
 278              		@ args = 0, pretend = 0, frame = 0
 279              		@ frame_needed = 0, uses_anonymous_args = 0
 280              		@ link register save eliminated.
 281              	.LVL19:
 282              		.loc 1 177 0
 283 0000 0368     		ldr	r3, [r0]
 284 0002 0B60     		str	r3, [r1]
 285              		.loc 1 178 0
ARM GAS  /tmp/ccXShCu5.s 			page 6


 286 0004 0160     		str	r1, [r0]
 287 0006 7047     		bx	lr
 288              		.cfi_endproc
 289              	.LFE223:
 290              		.size	chPoolFreeI, .-chPoolFreeI
 291              		.section	.text.chPoolFree,"ax",%progbits
 292              		.align	2
 293              		.p2align 4,,15
 294              		.global	chPoolFree
 295              		.thumb
 296              		.thumb_func
 297              		.type	chPoolFree, %function
 298              	chPoolFree:
 299              	.LFB224:
 300              		.loc 1 193 0
 301              		.cfi_startproc
 302              		@ args = 0, pretend = 0, frame = 0
 303              		@ frame_needed = 0, uses_anonymous_args = 0
 304              		@ link register save eliminated.
 305              	.LVL20:
 306              	.LBB108:
 307              	.LBB109:
 308              	.LBB110:
 309              	.LBB111:
 310              		.loc 2 342 0
 311              	@ 342 "ChibiOS_3.0.2/os/ext/CMSIS/include/core_cmFunc.h" 1
 312 0000 72B6     		cpsid i
 313              	@ 0 "" 2
 314              	.LVL21:
 315              		.thumb
 316              	.LBE111:
 317              	.LBE110:
 318              	.LBE109:
 319              	.LBE108:
 320              	.LBB112:
 321              	.LBB113:
 322              		.loc 1 177 0
 323 0002 0368     		ldr	r3, [r0]
 324 0004 0B60     		str	r3, [r1]
 325              		.loc 1 178 0
 326 0006 0160     		str	r1, [r0]
 327              	.LBE113:
 328              	.LBE112:
 329              	.LBB114:
 330              	.LBB115:
 331              	.LBB116:
 332              	.LBB117:
 333              	.LBB118:
 334              		.loc 2 331 0
 335              	@ 331 "ChibiOS_3.0.2/os/ext/CMSIS/include/core_cmFunc.h" 1
 336 0008 62B6     		cpsie i
 337              	@ 0 "" 2
 338              		.thumb
 339 000a 7047     		bx	lr
 340              	.LBE118:
 341              	.LBE117:
 342              	.LBE116:
ARM GAS  /tmp/ccXShCu5.s 			page 7


 343              	.LBE115:
 344              	.LBE114:
 345              		.cfi_endproc
 346              	.LFE224:
 347              		.size	chPoolFree, .-chPoolFree
 348              		.text
 349              	.Letext0:
 350              		.file 3 "/usr/lib/gcc/arm-none-eabi/4.9.3/include/stddef.h"
 351              		.file 4 "/usr/arm-none-eabi/include/machine/_default_types.h"
 352              		.file 5 "/usr/arm-none-eabi/include/sys/_stdint.h"
 353              		.file 6 "ChibiOS_3.0.2/os/rt/ports/ARMCMx/compilers/GCC/chtypes.h"
 354              		.file 7 "ChibiOS_3.0.2/os/rt/include/chsystypes.h"
 355              		.file 8 "ChibiOS_3.0.2/os/rt/include/chschd.h"
 356              		.file 9 "ChibiOS_3.0.2/os/rt/ports/ARMCMx/chcore.h"
 357              		.file 10 "ChibiOS_3.0.2/os/rt/ports/ARMCMx/chcore_v7m.h"
 358              		.file 11 "ChibiOS_3.0.2/os/rt/include/chtm.h"
 359              		.file 12 "ChibiOS_3.0.2/os/rt/include/chsem.h"
 360              		.file 13 "ChibiOS_3.0.2/os/rt/include/chmtx.h"
 361              		.file 14 "ChibiOS_3.0.2/os/rt/include/chmemcore.h"
 362              		.file 15 "ChibiOS_3.0.2/os/rt/include/chmempools.h"
 363              		.file 16 "ChibiOS_3.0.2/os/rt/include/chsys.h"
 364              		.file 17 "ChibiOS_3.0.2/os/ext/CMSIS/include/core_cm4.h"