ARM GAS  /tmp/ccCsiqvd.s 			page 1


   1              		.syntax unified
   2              		.cpu cortex-m4
   3              		.eabi_attribute 27, 1
   4              		.eabi_attribute 28, 1
   5              		.fpu fpv4-sp-d16
   6              		.eabi_attribute 20, 1
   7              		.eabi_attribute 21, 1
   8              		.eabi_attribute 23, 3
   9              		.eabi_attribute 24, 1
  10              		.eabi_attribute 25, 1
  11              		.eabi_attribute 26, 1
  12              		.eabi_attribute 30, 2
  13              		.eabi_attribute 34, 1
  14              		.eabi_attribute 18, 4
  15              		.thumb
  16              		.file	"chmsg.c"
  17              		.text
  18              	.Ltext0:
  19              		.cfi_sections	.debug_frame
  20              		.section	.text.chMsgSend,"ax",%progbits
  21              		.align	2
  22              		.p2align 4,,15
  23              		.global	chMsgSend
  24              		.thumb
  25              		.thumb_func
  26              		.type	chMsgSend, %function
  27              	chMsgSend:
  28              	.LFB219:
  29              		.file 1 "ChibiOS_3.0.2/os/rt/src/chmsg.c"
  30              		.loc 1 87 0
  31              		.cfi_startproc
  32              		@ args = 0, pretend = 0, frame = 0
  33              		@ frame_needed = 0, uses_anonymous_args = 0
  34              	.LVL0:
  35              		.loc 1 88 0
  36 0000 0C4B     		ldr	r3, .L6
  37              		.loc 1 87 0
  38 0002 70B5     		push	{r4, r5, r6, lr}
  39              		.cfi_def_cfa_offset 16
  40              		.cfi_offset 4, -16
  41              		.cfi_offset 5, -12
  42              		.cfi_offset 6, -8
  43              		.cfi_offset 14, -4
  44              		.loc 1 88 0
  45 0004 9C69     		ldr	r4, [r3, #24]
  46              	.LVL1:
  47              	.LBB52:
  48              	.LBB53:
  49              	.LBB54:
  50              	.LBB55:
  51              		.file 2 "ChibiOS_3.0.2/os/ext/CMSIS/include/core_cmFunc.h"
  52              		.loc 2 342 0
  53              	@ 342 "ChibiOS_3.0.2/os/ext/CMSIS/include/core_cmFunc.h" 1
  54 0006 72B6     		cpsid i
  55              	@ 0 "" 2
  56              		.thumb
  57              	.LBE55:
ARM GAS  /tmp/ccCsiqvd.s 			page 2


  58              	.LBE54:
  59              	.LBE53:
  60              	.LBE52:
  61              		.loc 1 94 0
  62 0008 00F12C05 		add	r5, r0, #44
  63              		.loc 1 96 0
  64 000c 067F     		ldrb	r6, [r0, #28]	@ zero_extendqisi2
  65              		.loc 1 94 0
  66 000e 6562     		str	r5, [r4, #36]
  67              	.LVL2:
  68              	.LBB56:
  69              	.LBB57:
  70              		.file 3 "ChibiOS_3.0.2/os/rt/include/chschd.h"
  71              		.loc 3 666 0
  72 0010 026B     		ldr	r2, [r0, #48]
  73 0012 6260     		str	r2, [r4, #4]
  74              	.LBE57:
  75              	.LBE56:
  76              		.loc 1 96 0
  77 0014 0E2E     		cmp	r6, #14
  78              		.loc 1 93 0
  79 0016 6163     		str	r1, [r4, #52]
  80              	.LBB59:
  81              	.LBB58:
  82              		.loc 3 665 0
  83 0018 2560     		str	r5, [r4]
  84              		.loc 3 667 0
  85 001a 1460     		str	r4, [r2]
  86              		.loc 3 668 0
  87 001c 0463     		str	r4, [r0, #48]
  88              	.LBE58:
  89              	.LBE59:
  90              		.loc 1 96 0
  91 001e 05D0     		beq	.L5
  92              	.LVL3:
  93              	.L2:
  94              		.loc 1 99 0
  95 0020 0C20     		movs	r0, #12
  96 0022 FFF7FEFF 		bl	chSchGoSleepS
  97              	.LVL4:
  98              		.loc 1 100 0
  99 0026 606A     		ldr	r0, [r4, #36]
 100              	.LVL5:
 101              	.LBB60:
 102              	.LBB61:
 103              	.LBB62:
 104              	.LBB63:
 105              	.LBB64:
 106              		.loc 2 331 0
 107              	@ 331 "ChibiOS_3.0.2/os/ext/CMSIS/include/core_cmFunc.h" 1
 108 0028 62B6     		cpsie i
 109              	@ 0 "" 2
 110              		.thumb
 111              	.LBE64:
 112              	.LBE63:
 113              	.LBE62:
 114              	.LBE61:
ARM GAS  /tmp/ccCsiqvd.s 			page 3


 115              	.LBE60:
 116              		.loc 1 104 0
 117 002a 70BD     		pop	{r4, r5, r6, pc}
 118              	.LVL6:
 119              	.L5:
 120              		.loc 1 97 0
 121 002c FFF7FEFF 		bl	chSchReadyI
 122              	.LVL7:
 123 0030 F6E7     		b	.L2
 124              	.L7:
 125 0032 00BF     		.align	2
 126              	.L6:
 127 0034 00000000 		.word	ch
 128              		.cfi_endproc
 129              	.LFE219:
 130              		.size	chMsgSend, .-chMsgSend
 131              		.section	.text.chMsgWait,"ax",%progbits
 132              		.align	2
 133              		.p2align 4,,15
 134              		.global	chMsgWait
 135              		.thumb
 136              		.thumb_func
 137              		.type	chMsgWait, %function
 138              	chMsgWait:
 139              	.LFB220:
 140              		.loc 1 120 0
 141              		.cfi_startproc
 142              		@ args = 0, pretend = 0, frame = 0
 143              		@ frame_needed = 0, uses_anonymous_args = 0
 144 0000 10B5     		push	{r4, lr}
 145              		.cfi_def_cfa_offset 8
 146              		.cfi_offset 4, -8
 147              		.cfi_offset 14, -4
 148              	.LBB65:
 149              	.LBB66:
 150              	.LBB67:
 151              	.LBB68:
 152              		.loc 2 342 0
 153              	@ 342 "ChibiOS_3.0.2/os/ext/CMSIS/include/core_cmFunc.h" 1
 154 0002 72B6     		cpsid i
 155              	@ 0 "" 2
 156              		.thumb
 157              	.LBE68:
 158              	.LBE67:
 159              	.LBE66:
 160              	.LBE65:
 161              		.loc 1 124 0
 162 0004 0A4C     		ldr	r4, .L12
 163 0006 A269     		ldr	r2, [r4, #24]
 164              	.LVL8:
 165              	.LBB69:
 166              	.LBB70:
 167              		.file 4 "ChibiOS_3.0.2/os/rt/include/chmsg.h"
 168              		.loc 4 83 0
 169 0008 1346     		mov	r3, r2
 170 000a 53F82C0F 		ldr	r0, [r3, #44]!
 171              	.LBE70:
ARM GAS  /tmp/ccCsiqvd.s 			page 4


 172              	.LBE69:
 173              		.loc 1 124 0
 174 000e 9842     		cmp	r0, r3
 175 0010 06D0     		beq	.L11
 176              	.LVL9:
 177              	.L9:
 178              	.LBB71:
 179              	.LBB72:
 180              		.loc 3 674 0
 181 0012 0168     		ldr	r1, [r0]
 182 0014 D162     		str	r1, [r2, #44]
 183              	.LBE72:
 184              	.LBE71:
 185              		.loc 1 128 0
 186 0016 0D22     		movs	r2, #13
 187              	.LBB74:
 188              	.LBB73:
 189              		.loc 3 675 0
 190 0018 4B60     		str	r3, [r1, #4]
 191              	.LBE73:
 192              	.LBE74:
 193              		.loc 1 128 0
 194 001a 0277     		strb	r2, [r0, #28]
 195              	.LBB75:
 196              	.LBB76:
 197              	.LBB77:
 198              	.LBB78:
 199              	.LBB79:
 200              		.loc 2 331 0
 201              	@ 331 "ChibiOS_3.0.2/os/ext/CMSIS/include/core_cmFunc.h" 1
 202 001c 62B6     		cpsie i
 203              	@ 0 "" 2
 204              		.thumb
 205              	.LBE79:
 206              	.LBE78:
 207              	.LBE77:
 208              	.LBE76:
 209              	.LBE75:
 210              		.loc 1 132 0
 211 001e 10BD     		pop	{r4, pc}
 212              	.LVL10:
 213              	.L11:
 214              		.loc 1 125 0
 215 0020 0E20     		movs	r0, #14
 216 0022 FFF7FEFF 		bl	chSchGoSleepS
 217              	.LVL11:
 218 0026 A269     		ldr	r2, [r4, #24]
 219 0028 D06A     		ldr	r0, [r2, #44]
 220 002a 02F12C03 		add	r3, r2, #44
 221 002e F0E7     		b	.L9
 222              	.L13:
 223              		.align	2
 224              	.L12:
 225 0030 00000000 		.word	ch
 226              		.cfi_endproc
 227              	.LFE220:
 228              		.size	chMsgWait, .-chMsgWait
ARM GAS  /tmp/ccCsiqvd.s 			page 5


 229              		.section	.text.chMsgRelease,"ax",%progbits
 230              		.align	2
 231              		.p2align 4,,15
 232              		.global	chMsgRelease
 233              		.thumb
 234              		.thumb_func
 235              		.type	chMsgRelease, %function
 236              	chMsgRelease:
 237              	.LFB221:
 238              		.loc 1 144 0
 239              		.cfi_startproc
 240              		@ args = 0, pretend = 0, frame = 0
 241              		@ frame_needed = 0, uses_anonymous_args = 0
 242              	.LVL12:
 243 0000 08B5     		push	{r3, lr}
 244              		.cfi_def_cfa_offset 8
 245              		.cfi_offset 3, -8
 246              		.cfi_offset 14, -4
 247              	.LBB80:
 248              	.LBB81:
 249              	.LBB82:
 250              	.LBB83:
 251              		.loc 2 342 0
 252              	@ 342 "ChibiOS_3.0.2/os/ext/CMSIS/include/core_cmFunc.h" 1
 253 0002 72B6     		cpsid i
 254              	@ 0 "" 2
 255              	.LVL13:
 256              		.thumb
 257              	.LBE83:
 258              	.LBE82:
 259              	.LBE81:
 260              	.LBE80:
 261              	.LBB84:
 262              	.LBB85:
 263              		.loc 4 115 0
 264 0004 FFF7FEFF 		bl	chSchWakeupS
 265              	.LVL14:
 266              	.LBE85:
 267              	.LBE84:
 268              	.LBB86:
 269              	.LBB87:
 270              	.LBB88:
 271              	.LBB89:
 272              	.LBB90:
 273              		.loc 2 331 0
 274              	@ 331 "ChibiOS_3.0.2/os/ext/CMSIS/include/core_cmFunc.h" 1
 275 0008 62B6     		cpsie i
 276              	@ 0 "" 2
 277              		.thumb
 278 000a 08BD     		pop	{r3, pc}
 279              	.LBE90:
 280              	.LBE89:
 281              	.LBE88:
 282              	.LBE87:
 283              	.LBE86:
 284              		.cfi_endproc
 285              	.LFE221:
ARM GAS  /tmp/ccCsiqvd.s 			page 6


 286              		.size	chMsgRelease, .-chMsgRelease
 287              		.text
 288              	.Letext0:
 289              		.file 5 "/usr/arm-none-eabi/include/machine/_default_types.h"
 290              		.file 6 "/usr/arm-none-eabi/include/sys/_stdint.h"
 291              		.file 7 "ChibiOS_3.0.2/os/rt/ports/ARMCMx/compilers/GCC/chtypes.h"
 292              		.file 8 "ChibiOS_3.0.2/os/rt/include/chsystypes.h"
 293              		.file 9 "ChibiOS_3.0.2/os/rt/ports/ARMCMx/chcore.h"
 294              		.file 10 "ChibiOS_3.0.2/os/rt/ports/ARMCMx/chcore_v7m.h"
 295              		.file 11 "ChibiOS_3.0.2/os/rt/include/chtm.h"
 296              		.file 12 "ChibiOS_3.0.2/os/rt/include/chsem.h"
 297              		.file 13 "ChibiOS_3.0.2/os/rt/include/chmtx.h"
 298              		.file 14 "ChibiOS_3.0.2/os/rt/include/chsys.h"
 299              		.file 15 "ChibiOS_3.0.2/os/ext/CMSIS/include/core_cm4.h"
 300              		.section	.debug_info,"",%progbits
 301              	.Ldebug_info0:
 302 0000 5F0B0000 		.4byte	0xb5f
 303 0004 0400     		.2byte	0x4
 304 0006 00000000 		.4byte	.Ldebug_abbrev0
 305 000a 04       		.byte	0x4
 306 000b 01       		.uleb128 0x1
 307 000c 4B040000 		.4byte	.LASF119
 308 0010 01       		.byte	0x1
 309 0011 AA050000 		.4byte	.LASF120
 310 0015 09030000 		.4byte	.LASF121
 311 0019 30000000 		.4byte	.Ldebug_ranges0+0x30
 312 001d 00000000 		.4byte	0
 313 0021 00000000 		.4byte	.Ldebug_line0
 314 0025 02       		.uleb128 0x2
 315 0026 04       		.byte	0x4
 316 0027 05       		.byte	0x5
 317 0028 696E7400 		.ascii	"int\000"
 318 002c 03       		.uleb128 0x3
 319 002d 04       		.byte	0x4
 320 002e 07       		.byte	0x7
 321 002f 90010000 		.4byte	.LASF0
 322 0033 03       		.uleb128 0x3
 323 0034 01       		.byte	0x1
 324 0035 06       		.byte	0x6
 325 0036 DB000000 		.4byte	.LASF1
 326 003a 04       		.uleb128 0x4
 327 003b 38000000 		.4byte	.LASF5
 328 003f 05       		.byte	0x5
 329 0040 1D       		.byte	0x1d
 330 0041 45000000 		.4byte	0x45
 331 0045 03       		.uleb128 0x3
 332 0046 01       		.byte	0x1
 333 0047 08       		.byte	0x8
 334 0048 58030000 		.4byte	.LASF2
 335 004c 03       		.uleb128 0x3
 336 004d 02       		.byte	0x2
 337 004e 05       		.byte	0x5
 338 004f 70030000 		.4byte	.LASF3
 339 0053 03       		.uleb128 0x3
 340 0054 02       		.byte	0x2
 341 0055 07       		.byte	0x7
 342 0056 CD010000 		.4byte	.LASF4
ARM GAS  /tmp/ccCsiqvd.s 			page 7


 343 005a 04       		.uleb128 0x4
 344 005b 2B020000 		.4byte	.LASF6
 345 005f 05       		.byte	0x5
 346 0060 3F       		.byte	0x3f
 347 0061 65000000 		.4byte	0x65
 348 0065 03       		.uleb128 0x3
 349 0066 04       		.byte	0x4
 350 0067 05       		.byte	0x5
 351 0068 1E010000 		.4byte	.LASF7
 352 006c 04       		.uleb128 0x4
 353 006d 9F050000 		.4byte	.LASF8
 354 0071 05       		.byte	0x5
 355 0072 41       		.byte	0x41
 356 0073 77000000 		.4byte	0x77
 357 0077 03       		.uleb128 0x3
 358 0078 04       		.byte	0x4
 359 0079 07       		.byte	0x7
 360 007a 34040000 		.4byte	.LASF9
 361 007e 03       		.uleb128 0x3
 362 007f 08       		.byte	0x8
 363 0080 05       		.byte	0x5
 364 0081 CD000000 		.4byte	.LASF10
 365 0085 04       		.uleb128 0x4
 366 0086 D1020000 		.4byte	.LASF11
 367 008a 05       		.byte	0x5
 368 008b 5B       		.byte	0x5b
 369 008c 90000000 		.4byte	0x90
 370 0090 03       		.uleb128 0x3
 371 0091 08       		.byte	0x8
 372 0092 07       		.byte	0x7
 373 0093 67000000 		.4byte	.LASF12
 374 0097 04       		.uleb128 0x4
 375 0098 2B060000 		.4byte	.LASF13
 376 009c 06       		.byte	0x6
 377 009d 14       		.byte	0x14
 378 009e 3A000000 		.4byte	0x3a
 379 00a2 04       		.uleb128 0x4
 380 00a3 50030000 		.4byte	.LASF14
 381 00a7 06       		.byte	0x6
 382 00a8 1F       		.byte	0x1f
 383 00a9 5A000000 		.4byte	0x5a
 384 00ad 04       		.uleb128 0x4
 385 00ae 00040000 		.4byte	.LASF15
 386 00b2 06       		.byte	0x6
 387 00b3 20       		.byte	0x20
 388 00b4 6C000000 		.4byte	0x6c
 389 00b8 04       		.uleb128 0x4
 390 00b9 2F000000 		.4byte	.LASF16
 391 00bd 06       		.byte	0x6
 392 00be 26       		.byte	0x26
 393 00bf 85000000 		.4byte	0x85
 394 00c3 05       		.uleb128 0x5
 395 00c4 A2000000 		.4byte	0xa2
 396 00c8 04       		.uleb128 0x4
 397 00c9 E3050000 		.4byte	.LASF17
 398 00cd 07       		.byte	0x7
 399 00ce 45       		.byte	0x45
ARM GAS  /tmp/ccCsiqvd.s 			page 8


 400 00cf AD000000 		.4byte	0xad
 401 00d3 04       		.uleb128 0x4
 402 00d4 09020000 		.4byte	.LASF18
 403 00d8 07       		.byte	0x7
 404 00d9 48       		.byte	0x48
 405 00da 97000000 		.4byte	0x97
 406 00de 04       		.uleb128 0x4
 407 00df 31010000 		.4byte	.LASF19
 408 00e3 07       		.byte	0x7
 409 00e4 49       		.byte	0x49
 410 00e5 97000000 		.4byte	0x97
 411 00e9 04       		.uleb128 0x4
 412 00ea 00000000 		.4byte	.LASF20
 413 00ee 07       		.byte	0x7
 414 00ef 4A       		.byte	0x4a
 415 00f0 97000000 		.4byte	0x97
 416 00f4 04       		.uleb128 0x4
 417 00f5 0A010000 		.4byte	.LASF21
 418 00f9 07       		.byte	0x7
 419 00fa 4B       		.byte	0x4b
 420 00fb 97000000 		.4byte	0x97
 421 00ff 04       		.uleb128 0x4
 422 0100 01030000 		.4byte	.LASF22
 423 0104 07       		.byte	0x7
 424 0105 4C       		.byte	0x4c
 425 0106 AD000000 		.4byte	0xad
 426 010a 04       		.uleb128 0x4
 427 010b F7010000 		.4byte	.LASF23
 428 010f 07       		.byte	0x7
 429 0110 4D       		.byte	0x4d
 430 0111 A2000000 		.4byte	0xa2
 431 0115 04       		.uleb128 0x4
 432 0116 1F020000 		.4byte	.LASF24
 433 011a 07       		.byte	0x7
 434 011b 4F       		.byte	0x4f
 435 011c AD000000 		.4byte	0xad
 436 0120 04       		.uleb128 0x4
 437 0121 8A010000 		.4byte	.LASF25
 438 0125 07       		.byte	0x7
 439 0126 51       		.byte	0x51
 440 0127 A2000000 		.4byte	0xa2
 441 012b 04       		.uleb128 0x4
 442 012c 81050000 		.4byte	.LASF26
 443 0130 08       		.byte	0x8
 444 0131 33       		.byte	0x33
 445 0132 AD000000 		.4byte	0xad
 446 0136 04       		.uleb128 0x4
 447 0137 1C060000 		.4byte	.LASF27
 448 013b 08       		.byte	0x8
 449 013c 3F       		.byte	0x3f
 450 013d 41010000 		.4byte	0x141
 451 0141 06       		.uleb128 0x6
 452 0142 E0010000 		.4byte	.LASF49
 453 0146 48       		.byte	0x48
 454 0147 03       		.byte	0x3
 455 0148 C2       		.byte	0xc2
 456 0149 46020000 		.4byte	0x246
ARM GAS  /tmp/ccCsiqvd.s 			page 9


 457 014d 07       		.uleb128 0x7
 458 014e 9A030000 		.4byte	.LASF28
 459 0152 03       		.byte	0x3
 460 0153 C3       		.byte	0xc3
 461 0154 51020000 		.4byte	0x251
 462 0158 00       		.byte	0
 463 0159 07       		.uleb128 0x7
 464 015a FA020000 		.4byte	.LASF29
 465 015e 03       		.byte	0x3
 466 015f C5       		.byte	0xc5
 467 0160 51020000 		.4byte	0x251
 468 0164 04       		.byte	0x4
 469 0165 07       		.uleb128 0x7
 470 0166 C6000000 		.4byte	.LASF30
 471 016a 03       		.byte	0x3
 472 016b C7       		.byte	0xc7
 473 016c FF000000 		.4byte	0xff
 474 0170 08       		.byte	0x8
 475 0171 07       		.uleb128 0x7
 476 0172 74060000 		.4byte	.LASF31
 477 0176 03       		.byte	0x3
 478 0177 C8       		.byte	0xc8
 479 0178 81040000 		.4byte	0x481
 480 017c 0C       		.byte	0xc
 481 017d 07       		.uleb128 0x7
 482 017e 4A010000 		.4byte	.LASF32
 483 0182 03       		.byte	0x3
 484 0183 CA       		.byte	0xca
 485 0184 51020000 		.4byte	0x251
 486 0188 10       		.byte	0x10
 487 0189 07       		.uleb128 0x7
 488 018a 8C020000 		.4byte	.LASF33
 489 018e 03       		.byte	0x3
 490 018f CB       		.byte	0xcb
 491 0190 51020000 		.4byte	0x251
 492 0194 14       		.byte	0x14
 493 0195 07       		.uleb128 0x7
 494 0196 3A060000 		.4byte	.LASF34
 495 019a 03       		.byte	0x3
 496 019b D2       		.byte	0xd2
 497 019c C6060000 		.4byte	0x6c6
 498 01a0 18       		.byte	0x18
 499 01a1 07       		.uleb128 0x7
 500 01a2 7A030000 		.4byte	.LASF35
 501 01a6 03       		.byte	0x3
 502 01a7 DD       		.byte	0xdd
 503 01a8 DE000000 		.4byte	0xde
 504 01ac 1C       		.byte	0x1c
 505 01ad 07       		.uleb128 0x7
 506 01ae A1030000 		.4byte	.LASF36
 507 01b2 03       		.byte	0x3
 508 01b3 E1       		.byte	0xe1
 509 01b4 D3000000 		.4byte	0xd3
 510 01b8 1D       		.byte	0x1d
 511 01b9 07       		.uleb128 0x7
 512 01ba 15060000 		.4byte	.LASF37
 513 01be 03       		.byte	0x3
ARM GAS  /tmp/ccCsiqvd.s 			page 10


 514 01bf E6       		.byte	0xe6
 515 01c0 E9000000 		.4byte	0xe9
 516 01c4 1E       		.byte	0x1e
 517 01c5 07       		.uleb128 0x7
 518 01c6 82030000 		.4byte	.LASF38
 519 01ca 03       		.byte	0x3
 520 01cb EC       		.byte	0xec
 521 01cc F4000000 		.4byte	0xf4
 522 01d0 1F       		.byte	0x1f
 523 01d1 07       		.uleb128 0x7
 524 01d2 A5010000 		.4byte	.LASF39
 525 01d6 03       		.byte	0x3
 526 01d7 F3       		.byte	0xf3
 527 01d8 D8060000 		.4byte	0x6d8
 528 01dc 20       		.byte	0x20
 529 01dd 08       		.uleb128 0x8
 530 01de 705F7500 		.ascii	"p_u\000"
 531 01e2 03       		.byte	0x3
 532 01e3 3101     		.2byte	0x131
 533 01e5 01060000 		.4byte	0x601
 534 01e9 24       		.byte	0x24
 535 01ea 09       		.uleb128 0x9
 536 01eb 4F020000 		.4byte	.LASF40
 537 01ef 03       		.byte	0x3
 538 01f0 3601     		.2byte	0x136
 539 01f2 57020000 		.4byte	0x257
 540 01f6 28       		.byte	0x28
 541 01f7 09       		.uleb128 0x9
 542 01f8 BC010000 		.4byte	.LASF41
 543 01fc 03       		.byte	0x3
 544 01fd 3C01     		.2byte	0x13c
 545 01ff 7B020000 		.4byte	0x27b
 546 0203 2C       		.byte	0x2c
 547 0204 09       		.uleb128 0x9
 548 0205 58060000 		.4byte	.LASF42
 549 0209 03       		.byte	0x3
 550 020a 4001     		.2byte	0x140
 551 020c 0A010000 		.4byte	0x10a
 552 0210 34       		.byte	0x34
 553 0211 09       		.uleb128 0x9
 554 0212 F5030000 		.4byte	.LASF43
 555 0216 03       		.byte	0x3
 556 0217 4601     		.2byte	0x146
 557 0219 15010000 		.4byte	0x115
 558 021d 38       		.byte	0x38
 559 021e 09       		.uleb128 0x9
 560 021f 66030000 		.4byte	.LASF44
 561 0223 03       		.byte	0x3
 562 0224 4D01     		.2byte	0x14d
 563 0226 C0060000 		.4byte	0x6c0
 564 022a 3C       		.byte	0x3c
 565 022b 09       		.uleb128 0x9
 566 022c 8B050000 		.4byte	.LASF45
 567 0230 03       		.byte	0x3
 568 0231 5101     		.2byte	0x151
 569 0233 FF000000 		.4byte	0xff
 570 0237 40       		.byte	0x40
ARM GAS  /tmp/ccCsiqvd.s 			page 11


 571 0238 09       		.uleb128 0x9
 572 0239 E7000000 		.4byte	.LASF46
 573 023d 03       		.byte	0x3
 574 023e 5801     		.2byte	0x158
 575 0240 2E030000 		.4byte	0x32e
 576 0244 44       		.byte	0x44
 577 0245 00       		.byte	0
 578 0246 04       		.uleb128 0x4
 579 0247 62020000 		.4byte	.LASF47
 580 024b 08       		.byte	0x8
 581 024c 44       		.byte	0x44
 582 024d 51020000 		.4byte	0x251
 583 0251 0A       		.uleb128 0xa
 584 0252 04       		.byte	0x4
 585 0253 36010000 		.4byte	0x136
 586 0257 04       		.uleb128 0x4
 587 0258 40020000 		.4byte	.LASF48
 588 025c 08       		.byte	0x8
 589 025d 49       		.byte	0x49
 590 025e 62020000 		.4byte	0x262
 591 0262 06       		.uleb128 0x6
 592 0263 24040000 		.4byte	.LASF50
 593 0267 04       		.byte	0x4
 594 0268 03       		.byte	0x3
 595 0269 B0       		.byte	0xb0
 596 026a 7B020000 		.4byte	0x27b
 597 026e 07       		.uleb128 0x7
 598 026f 9A030000 		.4byte	.LASF28
 599 0273 03       		.byte	0x3
 600 0274 B1       		.byte	0xb1
 601 0275 51020000 		.4byte	0x251
 602 0279 00       		.byte	0
 603 027a 00       		.byte	0
 604 027b 04       		.uleb128 0x4
 605 027c FC050000 		.4byte	.LASF51
 606 0280 08       		.byte	0x8
 607 0281 50       		.byte	0x50
 608 0282 86020000 		.4byte	0x286
 609 0286 06       		.uleb128 0x6
 610 0287 B5000000 		.4byte	.LASF52
 611 028b 08       		.byte	0x8
 612 028c 03       		.byte	0x3
 613 028d B7       		.byte	0xb7
 614 028e AB020000 		.4byte	0x2ab
 615 0292 07       		.uleb128 0x7
 616 0293 9A030000 		.4byte	.LASF28
 617 0297 03       		.byte	0x3
 618 0298 B8       		.byte	0xb8
 619 0299 51020000 		.4byte	0x251
 620 029d 00       		.byte	0
 621 029e 07       		.uleb128 0x7
 622 029f FA020000 		.4byte	.LASF29
 623 02a3 03       		.byte	0x3
 624 02a4 B9       		.byte	0xb9
 625 02a5 51020000 		.4byte	0x251
 626 02a9 04       		.byte	0x4
 627 02aa 00       		.byte	0
ARM GAS  /tmp/ccCsiqvd.s 			page 12


 628 02ab 04       		.uleb128 0x4
 629 02ac 08000000 		.4byte	.LASF53
 630 02b0 08       		.byte	0x8
 631 02b1 57       		.byte	0x57
 632 02b2 B6020000 		.4byte	0x2b6
 633 02b6 0B       		.uleb128 0xb
 634 02b7 11020000 		.4byte	.LASF54
 635 02bb 1C       		.byte	0x1c
 636 02bc 03       		.byte	0x3
 637 02bd 9001     		.2byte	0x190
 638 02bf 12030000 		.4byte	0x312
 639 02c3 09       		.uleb128 0x9
 640 02c4 10040000 		.4byte	.LASF55
 641 02c8 03       		.byte	0x3
 642 02c9 9101     		.2byte	0x191
 643 02cb 7B020000 		.4byte	0x27b
 644 02cf 00       		.byte	0
 645 02d0 09       		.uleb128 0x9
 646 02d1 8C030000 		.4byte	.LASF56
 647 02d5 03       		.byte	0x3
 648 02d6 9201     		.2byte	0x192
 649 02d8 FF000000 		.4byte	0xff
 650 02dc 08       		.byte	0x8
 651 02dd 09       		.uleb128 0x9
 652 02de 94020000 		.4byte	.LASF57
 653 02e2 03       		.byte	0x3
 654 02e3 9401     		.2byte	0x194
 655 02e5 81040000 		.4byte	0x481
 656 02e9 0C       		.byte	0xc
 657 02ea 09       		.uleb128 0x9
 658 02eb 5A010000 		.4byte	.LASF58
 659 02ef 03       		.byte	0x3
 660 02f0 9701     		.2byte	0x197
 661 02f2 51020000 		.4byte	0x251
 662 02f6 10       		.byte	0x10
 663 02f7 09       		.uleb128 0x9
 664 02f8 BC020000 		.4byte	.LASF59
 665 02fc 03       		.byte	0x3
 666 02fd 9801     		.2byte	0x198
 667 02ff 51020000 		.4byte	0x251
 668 0303 14       		.byte	0x14
 669 0304 09       		.uleb128 0x9
 670 0305 B2020000 		.4byte	.LASF60
 671 0309 03       		.byte	0x3
 672 030a 9B01     		.2byte	0x19b
 673 030c 51020000 		.4byte	0x251
 674 0310 18       		.byte	0x18
 675 0311 00       		.byte	0
 676 0312 04       		.uleb128 0x4
 677 0313 96050000 		.4byte	.LASF61
 678 0317 08       		.byte	0x8
 679 0318 5C       		.byte	0x5c
 680 0319 1D030000 		.4byte	0x31d
 681 031d 0A       		.uleb128 0xa
 682 031e 04       		.byte	0x4
 683 031f 23030000 		.4byte	0x323
 684 0323 0C       		.uleb128 0xc
ARM GAS  /tmp/ccCsiqvd.s 			page 13


 685 0324 2E030000 		.4byte	0x32e
 686 0328 0D       		.uleb128 0xd
 687 0329 2E030000 		.4byte	0x32e
 688 032d 00       		.byte	0
 689 032e 0E       		.uleb128 0xe
 690 032f 04       		.byte	0x4
 691 0330 04       		.uleb128 0x4
 692 0331 EA020000 		.4byte	.LASF62
 693 0335 08       		.byte	0x8
 694 0336 61       		.byte	0x61
 695 0337 3B030000 		.4byte	0x33b
 696 033b 0B       		.uleb128 0xb
 697 033c BC030000 		.4byte	.LASF63
 698 0340 14       		.byte	0x14
 699 0341 03       		.byte	0x3
 700 0342 6B01     		.2byte	0x16b
 701 0344 8A030000 		.4byte	0x38a
 702 0348 09       		.uleb128 0x9
 703 0349 9D010000 		.4byte	.LASF64
 704 034d 03       		.byte	0x3
 705 034e 6C01     		.2byte	0x16c
 706 0350 DD060000 		.4byte	0x6dd
 707 0354 00       		.byte	0
 708 0355 09       		.uleb128 0x9
 709 0356 6B010000 		.4byte	.LASF65
 710 035a 03       		.byte	0x3
 711 035b 6D01     		.2byte	0x16d
 712 035d DD060000 		.4byte	0x6dd
 713 0361 04       		.byte	0x4
 714 0362 09       		.uleb128 0x9
 715 0363 B3010000 		.4byte	.LASF66
 716 0367 03       		.byte	0x3
 717 0368 6E01     		.2byte	0x16e
 718 036a 2B010000 		.4byte	0x12b
 719 036e 08       		.byte	0x8
 720 036f 09       		.uleb128 0x9
 721 0370 7A060000 		.4byte	.LASF67
 722 0374 03       		.byte	0x3
 723 0375 6F01     		.2byte	0x16f
 724 0377 12030000 		.4byte	0x312
 725 037b 0C       		.byte	0xc
 726 037c 09       		.uleb128 0x9
 727 037d EB050000 		.4byte	.LASF68
 728 0381 03       		.byte	0x3
 729 0382 7101     		.2byte	0x171
 730 0384 2E030000 		.4byte	0x32e
 731 0388 10       		.byte	0x10
 732 0389 00       		.byte	0
 733 038a 04       		.uleb128 0x4
 734 038b 92000000 		.4byte	.LASF69
 735 038f 08       		.byte	0x8
 736 0390 66       		.byte	0x66
 737 0391 95030000 		.4byte	0x395
 738 0395 0B       		.uleb128 0xb
 739 0396 75020000 		.4byte	.LASF70
 740 039a 10       		.byte	0x10
 741 039b 03       		.byte	0x3
ARM GAS  /tmp/ccCsiqvd.s 			page 14


 742 039c 7B01     		.2byte	0x17b
 743 039e D7030000 		.4byte	0x3d7
 744 03a2 09       		.uleb128 0x9
 745 03a3 9D010000 		.4byte	.LASF64
 746 03a7 03       		.byte	0x3
 747 03a8 7C01     		.2byte	0x17c
 748 03aa DD060000 		.4byte	0x6dd
 749 03ae 00       		.byte	0
 750 03af 09       		.uleb128 0x9
 751 03b0 6B010000 		.4byte	.LASF65
 752 03b4 03       		.byte	0x3
 753 03b5 7E01     		.2byte	0x17e
 754 03b7 DD060000 		.4byte	0x6dd
 755 03bb 04       		.byte	0x4
 756 03bc 09       		.uleb128 0x9
 757 03bd B3010000 		.4byte	.LASF66
 758 03c1 03       		.byte	0x3
 759 03c2 8001     		.2byte	0x180
 760 03c4 2B010000 		.4byte	0x12b
 761 03c8 08       		.byte	0x8
 762 03c9 09       		.uleb128 0x9
 763 03ca 41060000 		.4byte	.LASF71
 764 03ce 03       		.byte	0x3
 765 03cf 8201     		.2byte	0x182
 766 03d1 D8060000 		.4byte	0x6d8
 767 03d5 0C       		.byte	0xc
 768 03d6 00       		.byte	0
 769 03d7 04       		.uleb128 0x4
 770 03d8 4E000000 		.4byte	.LASF72
 771 03dc 08       		.byte	0x8
 772 03dd 6B       		.byte	0x6b
 773 03de E2030000 		.4byte	0x3e2
 774 03e2 0B       		.uleb128 0xb
 775 03e3 3A030000 		.4byte	.LASF73
 776 03e7 04       		.byte	0x4
 777 03e8 03       		.byte	0x3
 778 03e9 A201     		.2byte	0x1a2
 779 03eb FD030000 		.4byte	0x3fd
 780 03ef 09       		.uleb128 0x9
 781 03f0 CA050000 		.4byte	.LASF74
 782 03f4 03       		.byte	0x3
 783 03f5 AA01     		.2byte	0x1aa
 784 03f7 E3060000 		.4byte	0x6e3
 785 03fb 00       		.byte	0
 786 03fc 00       		.byte	0
 787 03fd 04       		.uleb128 0x4
 788 03fe FD010000 		.4byte	.LASF75
 789 0402 08       		.byte	0x8
 790 0403 70       		.byte	0x70
 791 0404 08040000 		.4byte	0x408
 792 0408 0F       		.uleb128 0xf
 793 0409 14010000 		.4byte	.LASF76
 794 040d 5802     		.2byte	0x258
 795 040f 03       		.byte	0x3
 796 0410 C201     		.2byte	0x1c2
 797 0412 64040000 		.4byte	0x464
 798 0416 09       		.uleb128 0x9
ARM GAS  /tmp/ccCsiqvd.s 			page 15


 799 0417 25060000 		.4byte	.LASF77
 800 041b 03       		.byte	0x3
 801 041c C601     		.2byte	0x1c6
 802 041e AB020000 		.4byte	0x2ab
 803 0422 00       		.byte	0
 804 0423 09       		.uleb128 0x9
 805 0424 F7000000 		.4byte	.LASF78
 806 0428 03       		.byte	0x3
 807 0429 CA01     		.2byte	0x1ca
 808 042b 8A030000 		.4byte	0x38a
 809 042f 1C       		.byte	0x1c
 810 0430 08       		.uleb128 0x8
 811 0431 64626700 		.ascii	"dbg\000"
 812 0435 03       		.byte	0x3
 813 0436 CE01     		.2byte	0x1ce
 814 0438 D7030000 		.4byte	0x3d7
 815 043c 2C       		.byte	0x2c
 816 043d 09       		.uleb128 0x9
 817 043e 87000000 		.4byte	.LASF79
 818 0442 03       		.byte	0x3
 819 0443 D201     		.2byte	0x1d2
 820 0445 36010000 		.4byte	0x136
 821 0449 30       		.byte	0x30
 822 044a 08       		.uleb128 0x8
 823 044b 746D00   		.ascii	"tm\000"
 824 044e 03       		.byte	0x3
 825 044f D701     		.2byte	0x1d7
 826 0451 F6050000 		.4byte	0x5f6
 827 0455 78       		.byte	0x78
 828 0456 09       		.uleb128 0x9
 829 0457 7B010000 		.4byte	.LASF80
 830 045b 03       		.byte	0x3
 831 045c E301     		.2byte	0x1e3
 832 045e E8060000 		.4byte	0x6e8
 833 0462 80       		.byte	0x80
 834 0463 00       		.byte	0
 835 0464 03       		.uleb128 0x3
 836 0465 04       		.byte	0x4
 837 0466 07       		.byte	0x7
 838 0467 59020000 		.4byte	.LASF81
 839 046b 04       		.uleb128 0x4
 840 046c 62010000 		.4byte	.LASF82
 841 0470 09       		.byte	0x9
 842 0471 65       		.byte	0x65
 843 0472 2E030000 		.4byte	0x32e
 844 0476 04       		.uleb128 0x4
 845 0477 35020000 		.4byte	.LASF83
 846 047b 09       		.byte	0x9
 847 047c 6D       		.byte	0x6d
 848 047d B8000000 		.4byte	0xb8
 849 0481 06       		.uleb128 0x6
 850 0482 DB050000 		.4byte	.LASF84
 851 0486 04       		.byte	0x4
 852 0487 09       		.byte	0x9
 853 0488 89       		.byte	0x89
 854 0489 9A040000 		.4byte	0x49a
 855 048d 10       		.uleb128 0x10
ARM GAS  /tmp/ccCsiqvd.s 			page 16


 856 048e 72313300 		.ascii	"r13\000"
 857 0492 09       		.byte	0x9
 858 0493 8A       		.byte	0x8a
 859 0494 DB050000 		.4byte	0x5db
 860 0498 00       		.byte	0
 861 0499 00       		.byte	0
 862 049a 06       		.uleb128 0x6
 863 049b 42000000 		.4byte	.LASF85
 864 049f 64       		.byte	0x64
 865 04a0 0A       		.byte	0xa
 866 04a1 F4       		.byte	0xf4
 867 04a2 DB050000 		.4byte	0x5db
 868 04a6 10       		.uleb128 0x10
 869 04a7 73313600 		.ascii	"s16\000"
 870 04ab 0A       		.byte	0xa
 871 04ac F6       		.byte	0xf6
 872 04ad 6B040000 		.4byte	0x46b
 873 04b1 00       		.byte	0
 874 04b2 10       		.uleb128 0x10
 875 04b3 73313700 		.ascii	"s17\000"
 876 04b7 0A       		.byte	0xa
 877 04b8 F7       		.byte	0xf7
 878 04b9 6B040000 		.4byte	0x46b
 879 04bd 04       		.byte	0x4
 880 04be 10       		.uleb128 0x10
 881 04bf 73313800 		.ascii	"s18\000"
 882 04c3 0A       		.byte	0xa
 883 04c4 F8       		.byte	0xf8
 884 04c5 6B040000 		.4byte	0x46b
 885 04c9 08       		.byte	0x8
 886 04ca 10       		.uleb128 0x10
 887 04cb 73313900 		.ascii	"s19\000"
 888 04cf 0A       		.byte	0xa
 889 04d0 F9       		.byte	0xf9
 890 04d1 6B040000 		.4byte	0x46b
 891 04d5 0C       		.byte	0xc
 892 04d6 10       		.uleb128 0x10
 893 04d7 73323000 		.ascii	"s20\000"
 894 04db 0A       		.byte	0xa
 895 04dc FA       		.byte	0xfa
 896 04dd 6B040000 		.4byte	0x46b
 897 04e1 10       		.byte	0x10
 898 04e2 10       		.uleb128 0x10
 899 04e3 73323100 		.ascii	"s21\000"
 900 04e7 0A       		.byte	0xa
 901 04e8 FB       		.byte	0xfb
 902 04e9 6B040000 		.4byte	0x46b
 903 04ed 14       		.byte	0x14
 904 04ee 10       		.uleb128 0x10
 905 04ef 73323200 		.ascii	"s22\000"
 906 04f3 0A       		.byte	0xa
 907 04f4 FC       		.byte	0xfc
 908 04f5 6B040000 		.4byte	0x46b
 909 04f9 18       		.byte	0x18
 910 04fa 10       		.uleb128 0x10
 911 04fb 73323300 		.ascii	"s23\000"
 912 04ff 0A       		.byte	0xa
ARM GAS  /tmp/ccCsiqvd.s 			page 17


 913 0500 FD       		.byte	0xfd
 914 0501 6B040000 		.4byte	0x46b
 915 0505 1C       		.byte	0x1c
 916 0506 10       		.uleb128 0x10
 917 0507 73323400 		.ascii	"s24\000"
 918 050b 0A       		.byte	0xa
 919 050c FE       		.byte	0xfe
 920 050d 6B040000 		.4byte	0x46b
 921 0511 20       		.byte	0x20
 922 0512 10       		.uleb128 0x10
 923 0513 73323500 		.ascii	"s25\000"
 924 0517 0A       		.byte	0xa
 925 0518 FF       		.byte	0xff
 926 0519 6B040000 		.4byte	0x46b
 927 051d 24       		.byte	0x24
 928 051e 08       		.uleb128 0x8
 929 051f 73323600 		.ascii	"s26\000"
 930 0523 0A       		.byte	0xa
 931 0524 0001     		.2byte	0x100
 932 0526 6B040000 		.4byte	0x46b
 933 052a 28       		.byte	0x28
 934 052b 08       		.uleb128 0x8
 935 052c 73323700 		.ascii	"s27\000"
 936 0530 0A       		.byte	0xa
 937 0531 0101     		.2byte	0x101
 938 0533 6B040000 		.4byte	0x46b
 939 0537 2C       		.byte	0x2c
 940 0538 08       		.uleb128 0x8
 941 0539 73323800 		.ascii	"s28\000"
 942 053d 0A       		.byte	0xa
 943 053e 0201     		.2byte	0x102
 944 0540 6B040000 		.4byte	0x46b
 945 0544 30       		.byte	0x30
 946 0545 08       		.uleb128 0x8
 947 0546 73323900 		.ascii	"s29\000"
 948 054a 0A       		.byte	0xa
 949 054b 0301     		.2byte	0x103
 950 054d 6B040000 		.4byte	0x46b
 951 0551 34       		.byte	0x34
 952 0552 08       		.uleb128 0x8
 953 0553 73333000 		.ascii	"s30\000"
 954 0557 0A       		.byte	0xa
 955 0558 0401     		.2byte	0x104
 956 055a 6B040000 		.4byte	0x46b
 957 055e 38       		.byte	0x38
 958 055f 08       		.uleb128 0x8
 959 0560 73333100 		.ascii	"s31\000"
 960 0564 0A       		.byte	0xa
 961 0565 0501     		.2byte	0x105
 962 0567 6B040000 		.4byte	0x46b
 963 056b 3C       		.byte	0x3c
 964 056c 08       		.uleb128 0x8
 965 056d 723400   		.ascii	"r4\000"
 966 0570 0A       		.byte	0xa
 967 0571 0701     		.2byte	0x107
 968 0573 6B040000 		.4byte	0x46b
 969 0577 40       		.byte	0x40
ARM GAS  /tmp/ccCsiqvd.s 			page 18


 970 0578 08       		.uleb128 0x8
 971 0579 723500   		.ascii	"r5\000"
 972 057c 0A       		.byte	0xa
 973 057d 0801     		.2byte	0x108
 974 057f 6B040000 		.4byte	0x46b
 975 0583 44       		.byte	0x44
 976 0584 08       		.uleb128 0x8
 977 0585 723600   		.ascii	"r6\000"
 978 0588 0A       		.byte	0xa
 979 0589 0901     		.2byte	0x109
 980 058b 6B040000 		.4byte	0x46b
 981 058f 48       		.byte	0x48
 982 0590 08       		.uleb128 0x8
 983 0591 723700   		.ascii	"r7\000"
 984 0594 0A       		.byte	0xa
 985 0595 0A01     		.2byte	0x10a
 986 0597 6B040000 		.4byte	0x46b
 987 059b 4C       		.byte	0x4c
 988 059c 08       		.uleb128 0x8
 989 059d 723800   		.ascii	"r8\000"
 990 05a0 0A       		.byte	0xa
 991 05a1 0B01     		.2byte	0x10b
 992 05a3 6B040000 		.4byte	0x46b
 993 05a7 50       		.byte	0x50
 994 05a8 08       		.uleb128 0x8
 995 05a9 723900   		.ascii	"r9\000"
 996 05ac 0A       		.byte	0xa
 997 05ad 0C01     		.2byte	0x10c
 998 05af 6B040000 		.4byte	0x46b
 999 05b3 54       		.byte	0x54
 1000 05b4 08       		.uleb128 0x8
 1001 05b5 72313000 		.ascii	"r10\000"
 1002 05b9 0A       		.byte	0xa
 1003 05ba 0D01     		.2byte	0x10d
 1004 05bc 6B040000 		.4byte	0x46b
 1005 05c0 58       		.byte	0x58
 1006 05c1 08       		.uleb128 0x8
 1007 05c2 72313100 		.ascii	"r11\000"
 1008 05c6 0A       		.byte	0xa
 1009 05c7 0E01     		.2byte	0x10e
 1010 05c9 6B040000 		.4byte	0x46b
 1011 05cd 5C       		.byte	0x5c
 1012 05ce 08       		.uleb128 0x8
 1013 05cf 6C7200   		.ascii	"lr\000"
 1014 05d2 0A       		.byte	0xa
 1015 05d3 0F01     		.2byte	0x10f
 1016 05d5 6B040000 		.4byte	0x46b
 1017 05d9 60       		.byte	0x60
 1018 05da 00       		.byte	0
 1019 05db 0A       		.uleb128 0xa
 1020 05dc 04       		.byte	0x4
 1021 05dd 9A040000 		.4byte	0x49a
 1022 05e1 11       		.uleb128 0x11
 1023 05e2 04       		.byte	0x4
 1024 05e3 0B       		.byte	0xb
 1025 05e4 38       		.byte	0x38
 1026 05e5 F6050000 		.4byte	0x5f6
ARM GAS  /tmp/ccCsiqvd.s 			page 19


 1027 05e9 07       		.uleb128 0x7
 1028 05ea D4050000 		.4byte	.LASF86
 1029 05ee 0B       		.byte	0xb
 1030 05ef 3C       		.byte	0x3c
 1031 05f0 C8000000 		.4byte	0xc8
 1032 05f4 00       		.byte	0
 1033 05f5 00       		.byte	0
 1034 05f6 04       		.uleb128 0x4
 1035 05f7 9A020000 		.4byte	.LASF87
 1036 05fb 0B       		.byte	0xb
 1037 05fc 3D       		.byte	0x3d
 1038 05fd E1050000 		.4byte	0x5e1
 1039 0601 12       		.uleb128 0x12
 1040 0602 04       		.byte	0x4
 1041 0603 03       		.byte	0x3
 1042 0604 FA       		.byte	0xfa
 1043 0605 5E060000 		.4byte	0x65e
 1044 0609 13       		.uleb128 0x13
 1045 060a 28000000 		.4byte	.LASF88
 1046 060e 03       		.byte	0x3
 1047 060f 0101     		.2byte	0x101
 1048 0611 0A010000 		.4byte	0x10a
 1049 0615 13       		.uleb128 0x13
 1050 0616 7E000000 		.4byte	.LASF89
 1051 061a 03       		.byte	0x3
 1052 061b 0801     		.2byte	0x108
 1053 061d 0A010000 		.4byte	0x10a
 1054 0621 13       		.uleb128 0x13
 1055 0622 33060000 		.4byte	.LASF90
 1056 0626 03       		.byte	0x3
 1057 0627 0F01     		.2byte	0x10f
 1058 0629 2E030000 		.4byte	0x32e
 1059 062d 13       		.uleb128 0x13
 1060 062e 22000000 		.4byte	.LASF91
 1061 0632 03       		.byte	0x3
 1062 0633 1601     		.2byte	0x116
 1063 0635 5E060000 		.4byte	0x65e
 1064 0639 13       		.uleb128 0x13
 1065 063a AC010000 		.4byte	.LASF92
 1066 063e 03       		.byte	0x3
 1067 063f 1E01     		.2byte	0x11e
 1068 0641 89060000 		.4byte	0x689
 1069 0645 13       		.uleb128 0x13
 1070 0646 09040000 		.4byte	.LASF93
 1071 064a 03       		.byte	0x3
 1072 064b 2701     		.2byte	0x127
 1073 064d C0060000 		.4byte	0x6c0
 1074 0651 13       		.uleb128 0x13
 1075 0652 93030000 		.4byte	.LASF94
 1076 0656 03       		.byte	0x3
 1077 0657 2F01     		.2byte	0x12f
 1078 0659 15010000 		.4byte	0x115
 1079 065d 00       		.byte	0
 1080 065e 0A       		.uleb128 0xa
 1081 065f 04       		.byte	0x4
 1082 0660 46020000 		.4byte	0x246
 1083 0664 06       		.uleb128 0x6
ARM GAS  /tmp/ccCsiqvd.s 			page 20


 1084 0665 DA030000 		.4byte	.LASF95
 1085 0669 0C       		.byte	0xc
 1086 066a 0C       		.byte	0xc
 1087 066b 34       		.byte	0x34
 1088 066c 89060000 		.4byte	0x689
 1089 0670 07       		.uleb128 0x7
 1090 0671 52010000 		.4byte	.LASF96
 1091 0675 0C       		.byte	0xc
 1092 0676 35       		.byte	0x35
 1093 0677 7B020000 		.4byte	0x27b
 1094 067b 00       		.byte	0
 1095 067c 07       		.uleb128 0x7
 1096 067d C7010000 		.4byte	.LASF97
 1097 0681 0C       		.byte	0xc
 1098 0682 37       		.byte	0x37
 1099 0683 20010000 		.4byte	0x120
 1100 0687 08       		.byte	0x8
 1101 0688 00       		.byte	0
 1102 0689 0A       		.uleb128 0xa
 1103 068a 04       		.byte	0x4
 1104 068b 64060000 		.4byte	0x664
 1105 068f 06       		.uleb128 0x6
 1106 0690 0C060000 		.4byte	.LASF98
 1107 0694 10       		.byte	0x10
 1108 0695 0D       		.byte	0xd
 1109 0696 39       		.byte	0x39
 1110 0697 C0060000 		.4byte	0x6c0
 1111 069b 07       		.uleb128 0x7
 1112 069c EF000000 		.4byte	.LASF99
 1113 06a0 0D       		.byte	0xd
 1114 06a1 3A       		.byte	0x3a
 1115 06a2 7B020000 		.4byte	0x27b
 1116 06a6 00       		.byte	0
 1117 06a7 07       		.uleb128 0x7
 1118 06a8 6C060000 		.4byte	.LASF100
 1119 06ac 0D       		.byte	0xd
 1120 06ad 3C       		.byte	0x3c
 1121 06ae 51020000 		.4byte	0x251
 1122 06b2 08       		.byte	0x8
 1123 06b3 07       		.uleb128 0x7
 1124 06b4 AB020000 		.4byte	.LASF101
 1125 06b8 0D       		.byte	0xd
 1126 06b9 3E       		.byte	0x3e
 1127 06ba 03070000 		.4byte	0x703
 1128 06be 0C       		.byte	0xc
 1129 06bf 00       		.byte	0
 1130 06c0 0A       		.uleb128 0xa
 1131 06c1 04       		.byte	0x4
 1132 06c2 8F060000 		.4byte	0x68f
 1133 06c6 0A       		.uleb128 0xa
 1134 06c7 04       		.byte	0x4
 1135 06c8 CC060000 		.4byte	0x6cc
 1136 06cc 14       		.uleb128 0x14
 1137 06cd D1060000 		.4byte	0x6d1
 1138 06d1 03       		.uleb128 0x3
 1139 06d2 01       		.byte	0x1
 1140 06d3 08       		.byte	0x8
ARM GAS  /tmp/ccCsiqvd.s 			page 21


 1141 06d4 46040000 		.4byte	.LASF102
 1142 06d8 05       		.uleb128 0x5
 1143 06d9 2B010000 		.4byte	0x12b
 1144 06dd 0A       		.uleb128 0xa
 1145 06de 04       		.byte	0x4
 1146 06df 30030000 		.4byte	0x330
 1147 06e3 05       		.uleb128 0x5
 1148 06e4 C6060000 		.4byte	0x6c6
 1149 06e8 15       		.uleb128 0x15
 1150 06e9 76040000 		.4byte	0x476
 1151 06ed F8060000 		.4byte	0x6f8
 1152 06f1 16       		.uleb128 0x16
 1153 06f2 64040000 		.4byte	0x464
 1154 06f6 3A       		.byte	0x3a
 1155 06f7 00       		.byte	0
 1156 06f8 04       		.uleb128 0x4
 1157 06f9 73010000 		.4byte	.LASF103
 1158 06fd 0D       		.byte	0xd
 1159 06fe 34       		.byte	0x34
 1160 06ff 8F060000 		.4byte	0x68f
 1161 0703 0A       		.uleb128 0xa
 1162 0704 04       		.byte	0x4
 1163 0705 F8060000 		.4byte	0x6f8
 1164 0709 17       		.uleb128 0x17
 1165 070a DC020000 		.4byte	.LASF104
 1166 070e 02       		.byte	0x2
 1167 070f 5401     		.2byte	0x154
 1168 0711 03       		.byte	0x3
 1169 0712 17       		.uleb128 0x17
 1170 0713 C4020000 		.4byte	.LASF105
 1171 0717 02       		.byte	0x2
 1172 0718 4901     		.2byte	0x149
 1173 071a 03       		.byte	0x3
 1174 071b 17       		.uleb128 0x17
 1175 071c 5D000000 		.4byte	.LASF106
 1176 0720 0A       		.byte	0xa
 1177 0721 BC01     		.2byte	0x1bc
 1178 0723 03       		.byte	0x3
 1179 0724 17       		.uleb128 0x17
 1180 0725 FE000000 		.4byte	.LASF107
 1181 0729 0A       		.byte	0xa
 1182 072a CA01     		.2byte	0x1ca
 1183 072c 03       		.byte	0x3
 1184 072d 17       		.uleb128 0x17
 1185 072e B2030000 		.4byte	.LASF108
 1186 0732 0E       		.byte	0xe
 1187 0733 5A01     		.2byte	0x15a
 1188 0735 03       		.byte	0x3
 1189 0736 18       		.uleb128 0x18
 1190 0737 15000000 		.4byte	.LASF109
 1191 073b 03       		.byte	0x3
 1192 073c 9702     		.2byte	0x297
 1193 073e 03       		.byte	0x3
 1194 073f 5B070000 		.4byte	0x75b
 1195 0743 19       		.uleb128 0x19
 1196 0744 747000   		.ascii	"tp\000"
 1197 0747 03       		.byte	0x3
ARM GAS  /tmp/ccCsiqvd.s 			page 22


 1198 0748 9702     		.2byte	0x297
 1199 074a 51020000 		.4byte	0x251
 1200 074e 19       		.uleb128 0x19
 1201 074f 74717000 		.ascii	"tqp\000"
 1202 0753 03       		.byte	0x3
 1203 0754 9702     		.2byte	0x297
 1204 0756 5B070000 		.4byte	0x75b
 1205 075a 00       		.byte	0
 1206 075b 0A       		.uleb128 0xa
 1207 075c 04       		.byte	0x4
 1208 075d 7B020000 		.4byte	0x27b
 1209 0761 18       		.uleb128 0x18
 1210 0762 4C060000 		.4byte	.LASF110
 1211 0766 0E       		.byte	0xe
 1212 0767 6601     		.2byte	0x166
 1213 0769 03       		.byte	0x3
 1214 076a 7C070000 		.4byte	0x77c
 1215 076e 1A       		.uleb128 0x1a
 1216 076f A9030000 		.4byte	.LASF114
 1217 0773 8C070000 		.4byte	0x78c
 1218 0777 4C060000 		.4byte	.LASF110
 1219 077b 00       		.byte	0
 1220 077c 15       		.uleb128 0x15
 1221 077d D1060000 		.4byte	0x6d1
 1222 0781 8C070000 		.4byte	0x78c
 1223 0785 16       		.uleb128 0x16
 1224 0786 64040000 		.4byte	0x464
 1225 078a 0B       		.byte	0xb
 1226 078b 00       		.byte	0
 1227 078c 14       		.uleb128 0x14
 1228 078d 7C070000 		.4byte	0x77c
 1229 0791 1B       		.uleb128 0x1b
 1230 0792 3A010000 		.4byte	.LASF112
 1231 0796 04       		.byte	0x4
 1232 0797 4F       		.byte	0x4f
 1233 0798 AC070000 		.4byte	0x7ac
 1234 079c 03       		.byte	0x3
 1235 079d AC070000 		.4byte	0x7ac
 1236 07a1 1C       		.uleb128 0x1c
 1237 07a2 747000   		.ascii	"tp\000"
 1238 07a5 04       		.byte	0x4
 1239 07a6 4F       		.byte	0x4f
 1240 07a7 51020000 		.4byte	0x251
 1241 07ab 00       		.byte	0
 1242 07ac 03       		.uleb128 0x3
 1243 07ad 01       		.byte	0x1
 1244 07ae 02       		.byte	0x2
 1245 07af 4A030000 		.4byte	.LASF111
 1246 07b3 1D       		.uleb128 0x1d
 1247 07b4 6F050000 		.4byte	.LASF113
 1248 07b8 03       		.byte	0x3
 1249 07b9 9F02     		.2byte	0x29f
 1250 07bb 51020000 		.4byte	0x251
 1251 07bf 03       		.byte	0x3
 1252 07c0 DC070000 		.4byte	0x7dc
 1253 07c4 19       		.uleb128 0x19
 1254 07c5 74717000 		.ascii	"tqp\000"
ARM GAS  /tmp/ccCsiqvd.s 			page 23


 1255 07c9 03       		.byte	0x3
 1256 07ca 9F02     		.2byte	0x29f
 1257 07cc 5B070000 		.4byte	0x75b
 1258 07d0 1E       		.uleb128 0x1e
 1259 07d1 747000   		.ascii	"tp\000"
 1260 07d4 03       		.byte	0x3
 1261 07d5 A002     		.2byte	0x2a0
 1262 07d7 51020000 		.4byte	0x251
 1263 07db 00       		.byte	0
 1264 07dc 1F       		.uleb128 0x1f
 1265 07dd 5E060000 		.4byte	.LASF115
 1266 07e1 04       		.byte	0x4
 1267 07e2 6F       		.byte	0x6f
 1268 07e3 03       		.byte	0x3
 1269 07e4 FE070000 		.4byte	0x7fe
 1270 07e8 1C       		.uleb128 0x1c
 1271 07e9 747000   		.ascii	"tp\000"
 1272 07ec 04       		.byte	0x4
 1273 07ed 6F       		.byte	0x6f
 1274 07ee 51020000 		.4byte	0x251
 1275 07f2 1C       		.uleb128 0x1c
 1276 07f3 6D736700 		.ascii	"msg\000"
 1277 07f7 04       		.byte	0x4
 1278 07f8 6F       		.byte	0x6f
 1279 07f9 0A010000 		.4byte	0x10a
 1280 07fd 00       		.byte	0
 1281 07fe 20       		.uleb128 0x20
 1282 07ff 27010000 		.4byte	.LASF116
 1283 0803 01       		.byte	0x1
 1284 0804 57       		.byte	0x57
 1285 0805 0A010000 		.4byte	0x10a
 1286 0809 00000000 		.4byte	.LFB219
 1287 080d 38000000 		.4byte	.LFE219-.LFB219
 1288 0811 01       		.uleb128 0x1
 1289 0812 9C       		.byte	0x9c
 1290 0813 02090000 		.4byte	0x902
 1291 0817 21       		.uleb128 0x21
 1292 0818 747000   		.ascii	"tp\000"
 1293 081b 01       		.byte	0x1
 1294 081c 57       		.byte	0x57
 1295 081d 51020000 		.4byte	0x251
 1296 0821 00000000 		.4byte	.LLST0
 1297 0825 21       		.uleb128 0x21
 1298 0826 6D736700 		.ascii	"msg\000"
 1299 082a 01       		.byte	0x1
 1300 082b 57       		.byte	0x57
 1301 082c 0A010000 		.4byte	0x10a
 1302 0830 38000000 		.4byte	.LLST1
 1303 0834 22       		.uleb128 0x22
 1304 0835 63747000 		.ascii	"ctp\000"
 1305 0839 01       		.byte	0x1
 1306 083a 58       		.byte	0x58
 1307 083b 51020000 		.4byte	0x251
 1308 083f 01       		.uleb128 0x1
 1309 0840 54       		.byte	0x54
 1310 0841 23       		.uleb128 0x23
 1311 0842 A9030000 		.4byte	.LASF114
ARM GAS  /tmp/ccCsiqvd.s 			page 24


 1312 0846 12090000 		.4byte	0x912
 1313 084a 24       		.uleb128 0x24
 1314 084b 2D070000 		.4byte	0x72d
 1315 084f 06000000 		.4byte	.LBB52
 1316 0853 02000000 		.4byte	.LBE52-.LBB52
 1317 0857 01       		.byte	0x1
 1318 0858 5C       		.byte	0x5c
 1319 0859 7F080000 		.4byte	0x87f
 1320 085d 25       		.uleb128 0x25
 1321 085e 1B070000 		.4byte	0x71b
 1322 0862 06000000 		.4byte	.LBB53
 1323 0866 02000000 		.4byte	.LBE53-.LBB53
 1324 086a 0E       		.byte	0xe
 1325 086b 5C01     		.2byte	0x15c
 1326 086d 26       		.uleb128 0x26
 1327 086e 09070000 		.4byte	0x709
 1328 0872 06000000 		.4byte	.LBB54
 1329 0876 02000000 		.4byte	.LBE54-.LBB54
 1330 087a 0A       		.byte	0xa
 1331 087b C101     		.2byte	0x1c1
 1332 087d 00       		.byte	0
 1333 087e 00       		.byte	0
 1334 087f 27       		.uleb128 0x27
 1335 0880 36070000 		.4byte	0x736
 1336 0884 10000000 		.4byte	.LBB56
 1337 0888 00000000 		.4byte	.Ldebug_ranges0+0
 1338 088c 01       		.byte	0x1
 1339 088d 5F       		.byte	0x5f
 1340 088e A1080000 		.4byte	0x8a1
 1341 0892 28       		.uleb128 0x28
 1342 0893 4E070000 		.4byte	0x74e
 1343 0897 01       		.uleb128 0x1
 1344 0898 55       		.byte	0x55
 1345 0899 28       		.uleb128 0x28
 1346 089a 43070000 		.4byte	0x743
 1347 089e 01       		.uleb128 0x1
 1348 089f 54       		.byte	0x54
 1349 08a0 00       		.byte	0
 1350 08a1 24       		.uleb128 0x24
 1351 08a2 61070000 		.4byte	0x761
 1352 08a6 28000000 		.4byte	.LBB60
 1353 08aa 02000000 		.4byte	.LBE60-.LBB60
 1354 08ae 01       		.byte	0x1
 1355 08af 65       		.byte	0x65
 1356 08b0 E5080000 		.4byte	0x8e5
 1357 08b4 29       		.uleb128 0x29
 1358 08b5 28000000 		.4byte	.LBB61
 1359 08b9 02000000 		.4byte	.LBE61-.LBB61
 1360 08bd 2A       		.uleb128 0x2a
 1361 08be 6E070000 		.4byte	0x76e
 1362 08c2 25       		.uleb128 0x25
 1363 08c3 24070000 		.4byte	0x724
 1364 08c7 28000000 		.4byte	.LBB62
 1365 08cb 02000000 		.4byte	.LBE62-.LBB62
 1366 08cf 0E       		.byte	0xe
 1367 08d0 7301     		.2byte	0x173
 1368 08d2 26       		.uleb128 0x26
ARM GAS  /tmp/ccCsiqvd.s 			page 25


 1369 08d3 12070000 		.4byte	0x712
 1370 08d7 28000000 		.4byte	.LBB63
 1371 08db 02000000 		.4byte	.LBE63-.LBB63
 1372 08df 0A       		.byte	0xa
 1373 08e0 CF01     		.2byte	0x1cf
 1374 08e2 00       		.byte	0
 1375 08e3 00       		.byte	0
 1376 08e4 00       		.byte	0
 1377 08e5 2B       		.uleb128 0x2b
 1378 08e6 26000000 		.4byte	.LVL4
 1379 08ea 270B0000 		.4byte	0xb27
 1380 08ee F8080000 		.4byte	0x8f8
 1381 08f2 2C       		.uleb128 0x2c
 1382 08f3 01       		.uleb128 0x1
 1383 08f4 50       		.byte	0x50
 1384 08f5 01       		.uleb128 0x1
 1385 08f6 3C       		.byte	0x3c
 1386 08f7 00       		.byte	0
 1387 08f8 2D       		.uleb128 0x2d
 1388 08f9 30000000 		.4byte	.LVL7
 1389 08fd 390B0000 		.4byte	0xb39
 1390 0901 00       		.byte	0
 1391 0902 15       		.uleb128 0x15
 1392 0903 D1060000 		.4byte	0x6d1
 1393 0907 12090000 		.4byte	0x912
 1394 090b 16       		.uleb128 0x16
 1395 090c 64040000 		.4byte	0x464
 1396 0910 09       		.byte	0x9
 1397 0911 00       		.byte	0
 1398 0912 14       		.uleb128 0x14
 1399 0913 02090000 		.4byte	0x902
 1400 0917 20       		.uleb128 0x20
 1401 0918 F2050000 		.4byte	.LASF117
 1402 091c 01       		.byte	0x1
 1403 091d 78       		.byte	0x78
 1404 091e 51020000 		.4byte	0x251
 1405 0922 00000000 		.4byte	.LFB220
 1406 0926 34000000 		.4byte	.LFE220-.LFB220
 1407 092a 01       		.uleb128 0x1
 1408 092b 9C       		.byte	0x9c
 1409 092c 0C0A0000 		.4byte	0xa0c
 1410 0930 2E       		.uleb128 0x2e
 1411 0931 747000   		.ascii	"tp\000"
 1412 0934 01       		.byte	0x1
 1413 0935 79       		.byte	0x79
 1414 0936 51020000 		.4byte	0x251
 1415 093a 24       		.uleb128 0x24
 1416 093b 2D070000 		.4byte	0x72d
 1417 093f 02000000 		.4byte	.LBB65
 1418 0943 02000000 		.4byte	.LBE65-.LBB65
 1419 0947 01       		.byte	0x1
 1420 0948 7B       		.byte	0x7b
 1421 0949 6F090000 		.4byte	0x96f
 1422 094d 25       		.uleb128 0x25
 1423 094e 1B070000 		.4byte	0x71b
 1424 0952 02000000 		.4byte	.LBB66
 1425 0956 02000000 		.4byte	.LBE66-.LBB66
ARM GAS  /tmp/ccCsiqvd.s 			page 26


 1426 095a 0E       		.byte	0xe
 1427 095b 5C01     		.2byte	0x15c
 1428 095d 26       		.uleb128 0x26
 1429 095e 09070000 		.4byte	0x709
 1430 0962 02000000 		.4byte	.LBB67
 1431 0966 02000000 		.4byte	.LBE67-.LBB67
 1432 096a 0A       		.byte	0xa
 1433 096b C101     		.2byte	0x1c1
 1434 096d 00       		.byte	0
 1435 096e 00       		.byte	0
 1436 096f 24       		.uleb128 0x24
 1437 0970 91070000 		.4byte	0x791
 1438 0974 08000000 		.4byte	.LBB69
 1439 0978 06000000 		.4byte	.LBE69-.LBB69
 1440 097c 01       		.byte	0x1
 1441 097d 7C       		.byte	0x7c
 1442 097e 8C090000 		.4byte	0x98c
 1443 0982 2F       		.uleb128 0x2f
 1444 0983 A1070000 		.4byte	0x7a1
 1445 0987 7D000000 		.4byte	.LLST2
 1446 098b 00       		.byte	0
 1447 098c 27       		.uleb128 0x27
 1448 098d B3070000 		.4byte	0x7b3
 1449 0991 12000000 		.4byte	.LBB71
 1450 0995 18000000 		.4byte	.Ldebug_ranges0+0x18
 1451 0999 01       		.byte	0x1
 1452 099a 7F       		.byte	0x7f
 1453 099b B8090000 		.4byte	0x9b8
 1454 099f 2F       		.uleb128 0x2f
 1455 09a0 C4070000 		.4byte	0x7c4
 1456 09a4 9B000000 		.4byte	.LLST3
 1457 09a8 30       		.uleb128 0x30
 1458 09a9 18000000 		.4byte	.Ldebug_ranges0+0x18
 1459 09ad 31       		.uleb128 0x31
 1460 09ae D0070000 		.4byte	0x7d0
 1461 09b2 AE000000 		.4byte	.LLST4
 1462 09b6 00       		.byte	0
 1463 09b7 00       		.byte	0
 1464 09b8 24       		.uleb128 0x24
 1465 09b9 61070000 		.4byte	0x761
 1466 09bd 1C000000 		.4byte	.LBB75
 1467 09c1 02000000 		.4byte	.LBE75-.LBB75
 1468 09c5 01       		.byte	0x1
 1469 09c6 81       		.byte	0x81
 1470 09c7 FC090000 		.4byte	0x9fc
 1471 09cb 29       		.uleb128 0x29
 1472 09cc 1C000000 		.4byte	.LBB76
 1473 09d0 02000000 		.4byte	.LBE76-.LBB76
 1474 09d4 2A       		.uleb128 0x2a
 1475 09d5 6E070000 		.4byte	0x76e
 1476 09d9 25       		.uleb128 0x25
 1477 09da 24070000 		.4byte	0x724
 1478 09de 1C000000 		.4byte	.LBB77
 1479 09e2 02000000 		.4byte	.LBE77-.LBB77
 1480 09e6 0E       		.byte	0xe
 1481 09e7 7301     		.2byte	0x173
 1482 09e9 26       		.uleb128 0x26
ARM GAS  /tmp/ccCsiqvd.s 			page 27


 1483 09ea 12070000 		.4byte	0x712
 1484 09ee 1C000000 		.4byte	.LBB78
 1485 09f2 02000000 		.4byte	.LBE78-.LBB78
 1486 09f6 0A       		.byte	0xa
 1487 09f7 CF01     		.2byte	0x1cf
 1488 09f9 00       		.byte	0
 1489 09fa 00       		.byte	0
 1490 09fb 00       		.byte	0
 1491 09fc 32       		.uleb128 0x32
 1492 09fd 26000000 		.4byte	.LVL11
 1493 0a01 270B0000 		.4byte	0xb27
 1494 0a05 2C       		.uleb128 0x2c
 1495 0a06 01       		.uleb128 0x1
 1496 0a07 50       		.byte	0x50
 1497 0a08 01       		.uleb128 0x1
 1498 0a09 3E       		.byte	0x3e
 1499 0a0a 00       		.byte	0
 1500 0a0b 00       		.byte	0
 1501 0a0c 33       		.uleb128 0x33
 1502 0a0d CD030000 		.4byte	.LASF122
 1503 0a11 01       		.byte	0x1
 1504 0a12 90       		.byte	0x90
 1505 0a13 00000000 		.4byte	.LFB221
 1506 0a17 0C000000 		.4byte	.LFE221-.LFB221
 1507 0a1b 01       		.uleb128 0x1
 1508 0a1c 9C       		.byte	0x9c
 1509 0a1d FB0A0000 		.4byte	0xafb
 1510 0a21 21       		.uleb128 0x21
 1511 0a22 747000   		.ascii	"tp\000"
 1512 0a25 01       		.byte	0x1
 1513 0a26 90       		.byte	0x90
 1514 0a27 51020000 		.4byte	0x251
 1515 0a2b C1000000 		.4byte	.LLST5
 1516 0a2f 21       		.uleb128 0x21
 1517 0a30 6D736700 		.ascii	"msg\000"
 1518 0a34 01       		.byte	0x1
 1519 0a35 90       		.byte	0x90
 1520 0a36 0A010000 		.4byte	0x10a
 1521 0a3a E2000000 		.4byte	.LLST6
 1522 0a3e 23       		.uleb128 0x23
 1523 0a3f A9030000 		.4byte	.LASF114
 1524 0a43 0B0B0000 		.4byte	0xb0b
 1525 0a47 24       		.uleb128 0x24
 1526 0a48 2D070000 		.4byte	0x72d
 1527 0a4c 02000000 		.4byte	.LBB80
 1528 0a50 02000000 		.4byte	.LBE80-.LBB80
 1529 0a54 01       		.byte	0x1
 1530 0a55 92       		.byte	0x92
 1531 0a56 7C0A0000 		.4byte	0xa7c
 1532 0a5a 25       		.uleb128 0x25
 1533 0a5b 1B070000 		.4byte	0x71b
 1534 0a5f 02000000 		.4byte	.LBB81
 1535 0a63 02000000 		.4byte	.LBE81-.LBB81
 1536 0a67 0E       		.byte	0xe
 1537 0a68 5C01     		.2byte	0x15c
 1538 0a6a 26       		.uleb128 0x26
 1539 0a6b 09070000 		.4byte	0x709
ARM GAS  /tmp/ccCsiqvd.s 			page 28


 1540 0a6f 02000000 		.4byte	.LBB82
 1541 0a73 02000000 		.4byte	.LBE82-.LBB82
 1542 0a77 0A       		.byte	0xa
 1543 0a78 C101     		.2byte	0x1c1
 1544 0a7a 00       		.byte	0
 1545 0a7b 00       		.byte	0
 1546 0a7c 24       		.uleb128 0x24
 1547 0a7d DC070000 		.4byte	0x7dc
 1548 0a81 04000000 		.4byte	.LBB84
 1549 0a85 04000000 		.4byte	.LBE84-.LBB84
 1550 0a89 01       		.byte	0x1
 1551 0a8a 94       		.byte	0x94
 1552 0a8b BA0A0000 		.4byte	0xaba
 1553 0a8f 2F       		.uleb128 0x2f
 1554 0a90 F2070000 		.4byte	0x7f2
 1555 0a94 03010000 		.4byte	.LLST7
 1556 0a98 2F       		.uleb128 0x2f
 1557 0a99 E8070000 		.4byte	0x7e8
 1558 0a9d 24010000 		.4byte	.LLST8
 1559 0aa1 32       		.uleb128 0x32
 1560 0aa2 08000000 		.4byte	.LVL14
 1561 0aa6 4F0B0000 		.4byte	0xb4f
 1562 0aaa 2C       		.uleb128 0x2c
 1563 0aab 01       		.uleb128 0x1
 1564 0aac 51       		.byte	0x51
 1565 0aad 03       		.uleb128 0x3
 1566 0aae F3       		.byte	0xf3
 1567 0aaf 01       		.uleb128 0x1
 1568 0ab0 51       		.byte	0x51
 1569 0ab1 2C       		.uleb128 0x2c
 1570 0ab2 01       		.uleb128 0x1
 1571 0ab3 50       		.byte	0x50
 1572 0ab4 03       		.uleb128 0x3
 1573 0ab5 F3       		.byte	0xf3
 1574 0ab6 01       		.uleb128 0x1
 1575 0ab7 50       		.byte	0x50
 1576 0ab8 00       		.byte	0
 1577 0ab9 00       		.byte	0
 1578 0aba 34       		.uleb128 0x34
 1579 0abb 61070000 		.4byte	0x761
 1580 0abf 08000000 		.4byte	.LBB86
 1581 0ac3 04000000 		.4byte	.LBE86-.LBB86
 1582 0ac7 01       		.byte	0x1
 1583 0ac8 95       		.byte	0x95
 1584 0ac9 29       		.uleb128 0x29
 1585 0aca 08000000 		.4byte	.LBB87
 1586 0ace 04000000 		.4byte	.LBE87-.LBB87
 1587 0ad2 2A       		.uleb128 0x2a
 1588 0ad3 6E070000 		.4byte	0x76e
 1589 0ad7 25       		.uleb128 0x25
 1590 0ad8 24070000 		.4byte	0x724
 1591 0adc 08000000 		.4byte	.LBB88
 1592 0ae0 04000000 		.4byte	.LBE88-.LBB88
 1593 0ae4 0E       		.byte	0xe
 1594 0ae5 7301     		.2byte	0x173
 1595 0ae7 26       		.uleb128 0x26
 1596 0ae8 12070000 		.4byte	0x712
ARM GAS  /tmp/ccCsiqvd.s 			page 29


 1597 0aec 08000000 		.4byte	.LBB89
 1598 0af0 04000000 		.4byte	.LBE89-.LBB89
 1599 0af4 0A       		.byte	0xa
 1600 0af5 CF01     		.2byte	0x1cf
 1601 0af7 00       		.byte	0
 1602 0af8 00       		.byte	0
 1603 0af9 00       		.byte	0
 1604 0afa 00       		.byte	0
 1605 0afb 15       		.uleb128 0x15
 1606 0afc D1060000 		.4byte	0x6d1
 1607 0b00 0B0B0000 		.4byte	0xb0b
 1608 0b04 16       		.uleb128 0x16
 1609 0b05 64040000 		.4byte	0x464
 1610 0b09 0C       		.byte	0xc
 1611 0b0a 00       		.byte	0
 1612 0b0b 14       		.uleb128 0x14
 1613 0b0c FB0A0000 		.4byte	0xafb
 1614 0b10 35       		.uleb128 0x35
 1615 0b11 A8000000 		.4byte	.LASF118
 1616 0b15 0F       		.byte	0xf
 1617 0b16 A706     		.2byte	0x6a7
 1618 0b18 C3000000 		.4byte	0xc3
 1619 0b1c 36       		.uleb128 0x36
 1620 0b1d 636800   		.ascii	"ch\000"
 1621 0b20 03       		.byte	0x3
 1622 0b21 0902     		.2byte	0x209
 1623 0b23 FD030000 		.4byte	0x3fd
 1624 0b27 37       		.uleb128 0x37
 1625 0b28 E7030000 		.4byte	.LASF123
 1626 0b2c 03       		.byte	0x3
 1627 0b2d 1402     		.2byte	0x214
 1628 0b2f 390B0000 		.4byte	0xb39
 1629 0b33 0D       		.uleb128 0xd
 1630 0b34 DE000000 		.4byte	0xde
 1631 0b38 00       		.byte	0
 1632 0b39 38       		.uleb128 0x38
 1633 0b3a 18040000 		.4byte	.LASF124
 1634 0b3e 03       		.byte	0x3
 1635 0b3f 1302     		.2byte	0x213
 1636 0b41 51020000 		.4byte	0x251
 1637 0b45 4F0B0000 		.4byte	0xb4f
 1638 0b49 0D       		.uleb128 0xd
 1639 0b4a 51020000 		.4byte	0x251
 1640 0b4e 00       		.byte	0
 1641 0b4f 39       		.uleb128 0x39
 1642 0b50 EA010000 		.4byte	.LASF125
 1643 0b54 03       		.byte	0x3
 1644 0b55 1602     		.2byte	0x216
 1645 0b57 0D       		.uleb128 0xd
 1646 0b58 51020000 		.4byte	0x251
 1647 0b5c 0D       		.uleb128 0xd
 1648 0b5d 0A010000 		.4byte	0x10a
 1649 0b61 00       		.byte	0
 1650 0b62 00       		.byte	0
 1651              		.section	.debug_abbrev,"",%progbits
 1652              	.Ldebug_abbrev0:
 1653 0000 01       		.uleb128 0x1
ARM GAS  /tmp/ccCsiqvd.s 			page 30


 1654 0001 11       		.uleb128 0x11
 1655 0002 01       		.byte	0x1
 1656 0003 25       		.uleb128 0x25
 1657 0004 0E       		.uleb128 0xe
 1658 0005 13       		.uleb128 0x13
 1659 0006 0B       		.uleb128 0xb
 1660 0007 03       		.uleb128 0x3
 1661 0008 0E       		.uleb128 0xe
 1662 0009 1B       		.uleb128 0x1b
 1663 000a 0E       		.uleb128 0xe
 1664 000b 55       		.uleb128 0x55
 1665 000c 17       		.uleb128 0x17
 1666 000d 11       		.uleb128 0x11
 1667 000e 01       		.uleb128 0x1
 1668 000f 10       		.uleb128 0x10
 1669 0010 17       		.uleb128 0x17
 1670 0011 00       		.byte	0
 1671 0012 00       		.byte	0
 1672 0013 02       		.uleb128 0x2
 1673 0014 24       		.uleb128 0x24
 1674 0015 00       		.byte	0
 1675 0016 0B       		.uleb128 0xb
 1676 0017 0B       		.uleb128 0xb
 1677 0018 3E       		.uleb128 0x3e
 1678 0019 0B       		.uleb128 0xb
 1679 001a 03       		.uleb128 0x3
 1680 001b 08       		.uleb128 0x8
 1681 001c 00       		.byte	0
 1682 001d 00       		.byte	0
 1683 001e 03       		.uleb128 0x3
 1684 001f 24       		.uleb128 0x24
 1685 0020 00       		.byte	0
 1686 0021 0B       		.uleb128 0xb
 1687 0022 0B       		.uleb128 0xb
 1688 0023 3E       		.uleb128 0x3e
 1689 0024 0B       		.uleb128 0xb
 1690 0025 03       		.uleb128 0x3
 1691 0026 0E       		.uleb128 0xe
 1692 0027 00       		.byte	0
 1693 0028 00       		.byte	0
 1694 0029 04       		.uleb128 0x4
 1695 002a 16       		.uleb128 0x16
 1696 002b 00       		.byte	0
 1697 002c 03       		.uleb128 0x3
 1698 002d 0E       		.uleb128 0xe
 1699 002e 3A       		.uleb128 0x3a
 1700 002f 0B       		.uleb128 0xb
 1701 0030 3B       		.uleb128 0x3b
 1702 0031 0B       		.uleb128 0xb
 1703 0032 49       		.uleb128 0x49
 1704 0033 13       		.uleb128 0x13
 1705 0034 00       		.byte	0
 1706 0035 00       		.byte	0
 1707 0036 05       		.uleb128 0x5
 1708 0037 35       		.uleb128 0x35
 1709 0038 00       		.byte	0
 1710 0039 49       		.uleb128 0x49
ARM GAS  /tmp/ccCsiqvd.s 			page 31


 1711 003a 13       		.uleb128 0x13
 1712 003b 00       		.byte	0
 1713 003c 00       		.byte	0
 1714 003d 06       		.uleb128 0x6
 1715 003e 13       		.uleb128 0x13
 1716 003f 01       		.byte	0x1
 1717 0040 03       		.uleb128 0x3
 1718 0041 0E       		.uleb128 0xe
 1719 0042 0B       		.uleb128 0xb
 1720 0043 0B       		.uleb128 0xb
 1721 0044 3A       		.uleb128 0x3a
 1722 0045 0B       		.uleb128 0xb
 1723 0046 3B       		.uleb128 0x3b
 1724 0047 0B       		.uleb128 0xb
 1725 0048 01       		.uleb128 0x1
 1726 0049 13       		.uleb128 0x13
 1727 004a 00       		.byte	0
 1728 004b 00       		.byte	0
 1729 004c 07       		.uleb128 0x7
 1730 004d 0D       		.uleb128 0xd
 1731 004e 00       		.byte	0
 1732 004f 03       		.uleb128 0x3
 1733 0050 0E       		.uleb128 0xe
 1734 0051 3A       		.uleb128 0x3a
 1735 0052 0B       		.uleb128 0xb
 1736 0053 3B       		.uleb128 0x3b
 1737 0054 0B       		.uleb128 0xb
 1738 0055 49       		.uleb128 0x49
 1739 0056 13       		.uleb128 0x13
 1740 0057 38       		.uleb128 0x38
 1741 0058 0B       		.uleb128 0xb
 1742 0059 00       		.byte	0
 1743 005a 00       		.byte	0
 1744 005b 08       		.uleb128 0x8
 1745 005c 0D       		.uleb128 0xd
 1746 005d 00       		.byte	0
 1747 005e 03       		.uleb128 0x3
 1748 005f 08       		.uleb128 0x8
 1749 0060 3A       		.uleb128 0x3a
 1750 0061 0B       		.uleb128 0xb
 1751 0062 3B       		.uleb128 0x3b
 1752 0063 05       		.uleb128 0x5
 1753 0064 49       		.uleb128 0x49
 1754 0065 13       		.uleb128 0x13
 1755 0066 38       		.uleb128 0x38
 1756 0067 0B       		.uleb128 0xb
 1757 0068 00       		.byte	0
 1758 0069 00       		.byte	0
 1759 006a 09       		.uleb128 0x9
 1760 006b 0D       		.uleb128 0xd
 1761 006c 00       		.byte	0
 1762 006d 03       		.uleb128 0x3
 1763 006e 0E       		.uleb128 0xe
 1764 006f 3A       		.uleb128 0x3a
 1765 0070 0B       		.uleb128 0xb
 1766 0071 3B       		.uleb128 0x3b
 1767 0072 05       		.uleb128 0x5
ARM GAS  /tmp/ccCsiqvd.s 			page 32


 1768 0073 49       		.uleb128 0x49
 1769 0074 13       		.uleb128 0x13
 1770 0075 38       		.uleb128 0x38
 1771 0076 0B       		.uleb128 0xb
 1772 0077 00       		.byte	0
 1773 0078 00       		.byte	0
 1774 0079 0A       		.uleb128 0xa
 1775 007a 0F       		.uleb128 0xf
 1776 007b 00       		.byte	0
 1777 007c 0B       		.uleb128 0xb
 1778 007d 0B       		.uleb128 0xb
 1779 007e 49       		.uleb128 0x49
 1780 007f 13       		.uleb128 0x13
 1781 0080 00       		.byte	0
 1782 0081 00       		.byte	0
 1783 0082 0B       		.uleb128 0xb
 1784 0083 13       		.uleb128 0x13
 1785 0084 01       		.byte	0x1
 1786 0085 03       		.uleb128 0x3
 1787 0086 0E       		.uleb128 0xe
 1788 0087 0B       		.uleb128 0xb
 1789 0088 0B       		.uleb128 0xb
 1790 0089 3A       		.uleb128 0x3a
 1791 008a 0B       		.uleb128 0xb
 1792 008b 3B       		.uleb128 0x3b
 1793 008c 05       		.uleb128 0x5
 1794 008d 01       		.uleb128 0x1
 1795 008e 13       		.uleb128 0x13
 1796 008f 00       		.byte	0
 1797 0090 00       		.byte	0
 1798 0091 0C       		.uleb128 0xc
 1799 0092 15       		.uleb128 0x15
 1800 0093 01       		.byte	0x1
 1801 0094 27       		.uleb128 0x27
 1802 0095 19       		.uleb128 0x19
 1803 0096 01       		.uleb128 0x1
 1804 0097 13       		.uleb128 0x13
 1805 0098 00       		.byte	0
 1806 0099 00       		.byte	0
 1807 009a 0D       		.uleb128 0xd
 1808 009b 05       		.uleb128 0x5
 1809 009c 00       		.byte	0
 1810 009d 49       		.uleb128 0x49
 1811 009e 13       		.uleb128 0x13
 1812 009f 00       		.byte	0
 1813 00a0 00       		.byte	0
 1814 00a1 0E       		.uleb128 0xe
 1815 00a2 0F       		.uleb128 0xf
 1816 00a3 00       		.byte	0
 1817 00a4 0B       		.uleb128 0xb
 1818 00a5 0B       		.uleb128 0xb
 1819 00a6 00       		.byte	0
 1820 00a7 00       		.byte	0
 1821 00a8 0F       		.uleb128 0xf
 1822 00a9 13       		.uleb128 0x13
 1823 00aa 01       		.byte	0x1
 1824 00ab 03       		.uleb128 0x3
ARM GAS  /tmp/ccCsiqvd.s 			page 33


 1825 00ac 0E       		.uleb128 0xe
 1826 00ad 0B       		.uleb128 0xb
 1827 00ae 05       		.uleb128 0x5
 1828 00af 3A       		.uleb128 0x3a
 1829 00b0 0B       		.uleb128 0xb
 1830 00b1 3B       		.uleb128 0x3b
 1831 00b2 05       		.uleb128 0x5
 1832 00b3 01       		.uleb128 0x1
 1833 00b4 13       		.uleb128 0x13
 1834 00b5 00       		.byte	0
 1835 00b6 00       		.byte	0
 1836 00b7 10       		.uleb128 0x10
 1837 00b8 0D       		.uleb128 0xd
 1838 00b9 00       		.byte	0
 1839 00ba 03       		.uleb128 0x3
 1840 00bb 08       		.uleb128 0x8
 1841 00bc 3A       		.uleb128 0x3a
 1842 00bd 0B       		.uleb128 0xb
 1843 00be 3B       		.uleb128 0x3b
 1844 00bf 0B       		.uleb128 0xb
 1845 00c0 49       		.uleb128 0x49
 1846 00c1 13       		.uleb128 0x13
 1847 00c2 38       		.uleb128 0x38
 1848 00c3 0B       		.uleb128 0xb
 1849 00c4 00       		.byte	0
 1850 00c5 00       		.byte	0
 1851 00c6 11       		.uleb128 0x11
 1852 00c7 13       		.uleb128 0x13
 1853 00c8 01       		.byte	0x1
 1854 00c9 0B       		.uleb128 0xb
 1855 00ca 0B       		.uleb128 0xb
 1856 00cb 3A       		.uleb128 0x3a
 1857 00cc 0B       		.uleb128 0xb
 1858 00cd 3B       		.uleb128 0x3b
 1859 00ce 0B       		.uleb128 0xb
 1860 00cf 01       		.uleb128 0x1
 1861 00d0 13       		.uleb128 0x13
 1862 00d1 00       		.byte	0
 1863 00d2 00       		.byte	0
 1864 00d3 12       		.uleb128 0x12
 1865 00d4 17       		.uleb128 0x17
 1866 00d5 01       		.byte	0x1
 1867 00d6 0B       		.uleb128 0xb
 1868 00d7 0B       		.uleb128 0xb
 1869 00d8 3A       		.uleb128 0x3a
 1870 00d9 0B       		.uleb128 0xb
 1871 00da 3B       		.uleb128 0x3b
 1872 00db 0B       		.uleb128 0xb
 1873 00dc 01       		.uleb128 0x1
 1874 00dd 13       		.uleb128 0x13
 1875 00de 00       		.byte	0
 1876 00df 00       		.byte	0
 1877 00e0 13       		.uleb128 0x13
 1878 00e1 0D       		.uleb128 0xd
 1879 00e2 00       		.byte	0
 1880 00e3 03       		.uleb128 0x3
 1881 00e4 0E       		.uleb128 0xe
ARM GAS  /tmp/ccCsiqvd.s 			page 34


 1882 00e5 3A       		.uleb128 0x3a
 1883 00e6 0B       		.uleb128 0xb
 1884 00e7 3B       		.uleb128 0x3b
 1885 00e8 05       		.uleb128 0x5
 1886 00e9 49       		.uleb128 0x49
 1887 00ea 13       		.uleb128 0x13
 1888 00eb 00       		.byte	0
 1889 00ec 00       		.byte	0
 1890 00ed 14       		.uleb128 0x14
 1891 00ee 26       		.uleb128 0x26
 1892 00ef 00       		.byte	0
 1893 00f0 49       		.uleb128 0x49
 1894 00f1 13       		.uleb128 0x13
 1895 00f2 00       		.byte	0
 1896 00f3 00       		.byte	0
 1897 00f4 15       		.uleb128 0x15
 1898 00f5 01       		.uleb128 0x1
 1899 00f6 01       		.byte	0x1
 1900 00f7 49       		.uleb128 0x49
 1901 00f8 13       		.uleb128 0x13
 1902 00f9 01       		.uleb128 0x1
 1903 00fa 13       		.uleb128 0x13
 1904 00fb 00       		.byte	0
 1905 00fc 00       		.byte	0
 1906 00fd 16       		.uleb128 0x16
 1907 00fe 21       		.uleb128 0x21
 1908 00ff 00       		.byte	0
 1909 0100 49       		.uleb128 0x49
 1910 0101 13       		.uleb128 0x13
 1911 0102 2F       		.uleb128 0x2f
 1912 0103 0B       		.uleb128 0xb
 1913 0104 00       		.byte	0
 1914 0105 00       		.byte	0
 1915 0106 17       		.uleb128 0x17
 1916 0107 2E       		.uleb128 0x2e
 1917 0108 00       		.byte	0
 1918 0109 03       		.uleb128 0x3
 1919 010a 0E       		.uleb128 0xe
 1920 010b 3A       		.uleb128 0x3a
 1921 010c 0B       		.uleb128 0xb
 1922 010d 3B       		.uleb128 0x3b
 1923 010e 05       		.uleb128 0x5
 1924 010f 27       		.uleb128 0x27
 1925 0110 19       		.uleb128 0x19
 1926 0111 20       		.uleb128 0x20
 1927 0112 0B       		.uleb128 0xb
 1928 0113 00       		.byte	0
 1929 0114 00       		.byte	0
 1930 0115 18       		.uleb128 0x18
 1931 0116 2E       		.uleb128 0x2e
 1932 0117 01       		.byte	0x1
 1933 0118 03       		.uleb128 0x3
 1934 0119 0E       		.uleb128 0xe
 1935 011a 3A       		.uleb128 0x3a
 1936 011b 0B       		.uleb128 0xb
 1937 011c 3B       		.uleb128 0x3b
 1938 011d 05       		.uleb128 0x5
ARM GAS  /tmp/ccCsiqvd.s 			page 35


 1939 011e 27       		.uleb128 0x27
 1940 011f 19       		.uleb128 0x19
 1941 0120 20       		.uleb128 0x20
 1942 0121 0B       		.uleb128 0xb
 1943 0122 01       		.uleb128 0x1
 1944 0123 13       		.uleb128 0x13
 1945 0124 00       		.byte	0
 1946 0125 00       		.byte	0
 1947 0126 19       		.uleb128 0x19
 1948 0127 05       		.uleb128 0x5
 1949 0128 00       		.byte	0
 1950 0129 03       		.uleb128 0x3
 1951 012a 08       		.uleb128 0x8
 1952 012b 3A       		.uleb128 0x3a
 1953 012c 0B       		.uleb128 0xb
 1954 012d 3B       		.uleb128 0x3b
 1955 012e 05       		.uleb128 0x5
 1956 012f 49       		.uleb128 0x49
 1957 0130 13       		.uleb128 0x13
 1958 0131 00       		.byte	0
 1959 0132 00       		.byte	0
 1960 0133 1A       		.uleb128 0x1a
 1961 0134 34       		.uleb128 0x34
 1962 0135 00       		.byte	0
 1963 0136 03       		.uleb128 0x3
 1964 0137 0E       		.uleb128 0xe
 1965 0138 49       		.uleb128 0x49
 1966 0139 13       		.uleb128 0x13
 1967 013a 34       		.uleb128 0x34
 1968 013b 19       		.uleb128 0x19
 1969 013c 1C       		.uleb128 0x1c
 1970 013d 0E       		.uleb128 0xe
 1971 013e 00       		.byte	0
 1972 013f 00       		.byte	0
 1973 0140 1B       		.uleb128 0x1b
 1974 0141 2E       		.uleb128 0x2e
 1975 0142 01       		.byte	0x1
 1976 0143 03       		.uleb128 0x3
 1977 0144 0E       		.uleb128 0xe
 1978 0145 3A       		.uleb128 0x3a
 1979 0146 0B       		.uleb128 0xb
 1980 0147 3B       		.uleb128 0x3b
 1981 0148 0B       		.uleb128 0xb
 1982 0149 27       		.uleb128 0x27
 1983 014a 19       		.uleb128 0x19
 1984 014b 49       		.uleb128 0x49
 1985 014c 13       		.uleb128 0x13
 1986 014d 20       		.uleb128 0x20
 1987 014e 0B       		.uleb128 0xb
 1988 014f 01       		.uleb128 0x1
 1989 0150 13       		.uleb128 0x13
 1990 0151 00       		.byte	0
 1991 0152 00       		.byte	0
 1992 0153 1C       		.uleb128 0x1c
 1993 0154 05       		.uleb128 0x5
 1994 0155 00       		.byte	0
 1995 0156 03       		.uleb128 0x3
ARM GAS  /tmp/ccCsiqvd.s 			page 36


 1996 0157 08       		.uleb128 0x8
 1997 0158 3A       		.uleb128 0x3a
 1998 0159 0B       		.uleb128 0xb
 1999 015a 3B       		.uleb128 0x3b
 2000 015b 0B       		.uleb128 0xb
 2001 015c 49       		.uleb128 0x49
 2002 015d 13       		.uleb128 0x13
 2003 015e 00       		.byte	0
 2004 015f 00       		.byte	0
 2005 0160 1D       		.uleb128 0x1d
 2006 0161 2E       		.uleb128 0x2e
 2007 0162 01       		.byte	0x1
 2008 0163 03       		.uleb128 0x3
 2009 0164 0E       		.uleb128 0xe
 2010 0165 3A       		.uleb128 0x3a
 2011 0166 0B       		.uleb128 0xb
 2012 0167 3B       		.uleb128 0x3b
 2013 0168 05       		.uleb128 0x5
 2014 0169 27       		.uleb128 0x27
 2015 016a 19       		.uleb128 0x19
 2016 016b 49       		.uleb128 0x49
 2017 016c 13       		.uleb128 0x13
 2018 016d 20       		.uleb128 0x20
 2019 016e 0B       		.uleb128 0xb
 2020 016f 01       		.uleb128 0x1
 2021 0170 13       		.uleb128 0x13
 2022 0171 00       		.byte	0
 2023 0172 00       		.byte	0
 2024 0173 1E       		.uleb128 0x1e
 2025 0174 34       		.uleb128 0x34
 2026 0175 00       		.byte	0
 2027 0176 03       		.uleb128 0x3
 2028 0177 08       		.uleb128 0x8
 2029 0178 3A       		.uleb128 0x3a
 2030 0179 0B       		.uleb128 0xb
 2031 017a 3B       		.uleb128 0x3b
 2032 017b 05       		.uleb128 0x5
 2033 017c 49       		.uleb128 0x49
 2034 017d 13       		.uleb128 0x13
 2035 017e 00       		.byte	0
 2036 017f 00       		.byte	0
 2037 0180 1F       		.uleb128 0x1f
 2038 0181 2E       		.uleb128 0x2e
 2039 0182 01       		.byte	0x1
 2040 0183 03       		.uleb128 0x3
 2041 0184 0E       		.uleb128 0xe
 2042 0185 3A       		.uleb128 0x3a
 2043 0186 0B       		.uleb128 0xb
 2044 0187 3B       		.uleb128 0x3b
 2045 0188 0B       		.uleb128 0xb
 2046 0189 27       		.uleb128 0x27
 2047 018a 19       		.uleb128 0x19
 2048 018b 20       		.uleb128 0x20
 2049 018c 0B       		.uleb128 0xb
 2050 018d 01       		.uleb128 0x1
 2051 018e 13       		.uleb128 0x13
 2052 018f 00       		.byte	0
ARM GAS  /tmp/ccCsiqvd.s 			page 37


 2053 0190 00       		.byte	0
 2054 0191 20       		.uleb128 0x20
 2055 0192 2E       		.uleb128 0x2e
 2056 0193 01       		.byte	0x1
 2057 0194 3F       		.uleb128 0x3f
 2058 0195 19       		.uleb128 0x19
 2059 0196 03       		.uleb128 0x3
 2060 0197 0E       		.uleb128 0xe
 2061 0198 3A       		.uleb128 0x3a
 2062 0199 0B       		.uleb128 0xb
 2063 019a 3B       		.uleb128 0x3b
 2064 019b 0B       		.uleb128 0xb
 2065 019c 27       		.uleb128 0x27
 2066 019d 19       		.uleb128 0x19
 2067 019e 49       		.uleb128 0x49
 2068 019f 13       		.uleb128 0x13
 2069 01a0 11       		.uleb128 0x11
 2070 01a1 01       		.uleb128 0x1
 2071 01a2 12       		.uleb128 0x12
 2072 01a3 06       		.uleb128 0x6
 2073 01a4 40       		.uleb128 0x40
 2074 01a5 18       		.uleb128 0x18
 2075 01a6 9742     		.uleb128 0x2117
 2076 01a8 19       		.uleb128 0x19
 2077 01a9 01       		.uleb128 0x1
 2078 01aa 13       		.uleb128 0x13
 2079 01ab 00       		.byte	0
 2080 01ac 00       		.byte	0
 2081 01ad 21       		.uleb128 0x21
 2082 01ae 05       		.uleb128 0x5
 2083 01af 00       		.byte	0
 2084 01b0 03       		.uleb128 0x3
 2085 01b1 08       		.uleb128 0x8
 2086 01b2 3A       		.uleb128 0x3a
 2087 01b3 0B       		.uleb128 0xb
 2088 01b4 3B       		.uleb128 0x3b
 2089 01b5 0B       		.uleb128 0xb
 2090 01b6 49       		.uleb128 0x49
 2091 01b7 13       		.uleb128 0x13
 2092 01b8 02       		.uleb128 0x2
 2093 01b9 17       		.uleb128 0x17
 2094 01ba 00       		.byte	0
 2095 01bb 00       		.byte	0
 2096 01bc 22       		.uleb128 0x22
 2097 01bd 34       		.uleb128 0x34
 2098 01be 00       		.byte	0
 2099 01bf 03       		.uleb128 0x3
 2100 01c0 08       		.uleb128 0x8
 2101 01c1 3A       		.uleb128 0x3a
 2102 01c2 0B       		.uleb128 0xb
 2103 01c3 3B       		.uleb128 0x3b
 2104 01c4 0B       		.uleb128 0xb
 2105 01c5 49       		.uleb128 0x49
 2106 01c6 13       		.uleb128 0x13
 2107 01c7 02       		.uleb128 0x2
 2108 01c8 18       		.uleb128 0x18
 2109 01c9 00       		.byte	0
ARM GAS  /tmp/ccCsiqvd.s 			page 38


 2110 01ca 00       		.byte	0
 2111 01cb 23       		.uleb128 0x23
 2112 01cc 34       		.uleb128 0x34
 2113 01cd 00       		.byte	0
 2114 01ce 03       		.uleb128 0x3
 2115 01cf 0E       		.uleb128 0xe
 2116 01d0 49       		.uleb128 0x49
 2117 01d1 13       		.uleb128 0x13
 2118 01d2 34       		.uleb128 0x34
 2119 01d3 19       		.uleb128 0x19
 2120 01d4 00       		.byte	0
 2121 01d5 00       		.byte	0
 2122 01d6 24       		.uleb128 0x24
 2123 01d7 1D       		.uleb128 0x1d
 2124 01d8 01       		.byte	0x1
 2125 01d9 31       		.uleb128 0x31
 2126 01da 13       		.uleb128 0x13
 2127 01db 11       		.uleb128 0x11
 2128 01dc 01       		.uleb128 0x1
 2129 01dd 12       		.uleb128 0x12
 2130 01de 06       		.uleb128 0x6
 2131 01df 58       		.uleb128 0x58
 2132 01e0 0B       		.uleb128 0xb
 2133 01e1 59       		.uleb128 0x59
 2134 01e2 0B       		.uleb128 0xb
 2135 01e3 01       		.uleb128 0x1
 2136 01e4 13       		.uleb128 0x13
 2137 01e5 00       		.byte	0
 2138 01e6 00       		.byte	0
 2139 01e7 25       		.uleb128 0x25
 2140 01e8 1D       		.uleb128 0x1d
 2141 01e9 01       		.byte	0x1
 2142 01ea 31       		.uleb128 0x31
 2143 01eb 13       		.uleb128 0x13
 2144 01ec 11       		.uleb128 0x11
 2145 01ed 01       		.uleb128 0x1
 2146 01ee 12       		.uleb128 0x12
 2147 01ef 06       		.uleb128 0x6
 2148 01f0 58       		.uleb128 0x58
 2149 01f1 0B       		.uleb128 0xb
 2150 01f2 59       		.uleb128 0x59
 2151 01f3 05       		.uleb128 0x5
 2152 01f4 00       		.byte	0
 2153 01f5 00       		.byte	0
 2154 01f6 26       		.uleb128 0x26
 2155 01f7 1D       		.uleb128 0x1d
 2156 01f8 00       		.byte	0
 2157 01f9 31       		.uleb128 0x31
 2158 01fa 13       		.uleb128 0x13
 2159 01fb 11       		.uleb128 0x11
 2160 01fc 01       		.uleb128 0x1
 2161 01fd 12       		.uleb128 0x12
 2162 01fe 06       		.uleb128 0x6
 2163 01ff 58       		.uleb128 0x58
 2164 0200 0B       		.uleb128 0xb
 2165 0201 59       		.uleb128 0x59
 2166 0202 05       		.uleb128 0x5
ARM GAS  /tmp/ccCsiqvd.s 			page 39


 2167 0203 00       		.byte	0
 2168 0204 00       		.byte	0
 2169 0205 27       		.uleb128 0x27
 2170 0206 1D       		.uleb128 0x1d
 2171 0207 01       		.byte	0x1
 2172 0208 31       		.uleb128 0x31
 2173 0209 13       		.uleb128 0x13
 2174 020a 52       		.uleb128 0x52
 2175 020b 01       		.uleb128 0x1
 2176 020c 55       		.uleb128 0x55
 2177 020d 17       		.uleb128 0x17
 2178 020e 58       		.uleb128 0x58
 2179 020f 0B       		.uleb128 0xb
 2180 0210 59       		.uleb128 0x59
 2181 0211 0B       		.uleb128 0xb
 2182 0212 01       		.uleb128 0x1
 2183 0213 13       		.uleb128 0x13
 2184 0214 00       		.byte	0
 2185 0215 00       		.byte	0
 2186 0216 28       		.uleb128 0x28
 2187 0217 05       		.uleb128 0x5
 2188 0218 00       		.byte	0
 2189 0219 31       		.uleb128 0x31
 2190 021a 13       		.uleb128 0x13
 2191 021b 02       		.uleb128 0x2
 2192 021c 18       		.uleb128 0x18
 2193 021d 00       		.byte	0
 2194 021e 00       		.byte	0
 2195 021f 29       		.uleb128 0x29
 2196 0220 0B       		.uleb128 0xb
 2197 0221 01       		.byte	0x1
 2198 0222 11       		.uleb128 0x11
 2199 0223 01       		.uleb128 0x1
 2200 0224 12       		.uleb128 0x12
 2201 0225 06       		.uleb128 0x6
 2202 0226 00       		.byte	0
 2203 0227 00       		.byte	0
 2204 0228 2A       		.uleb128 0x2a
 2205 0229 34       		.uleb128 0x34
 2206 022a 00       		.byte	0
 2207 022b 31       		.uleb128 0x31
 2208 022c 13       		.uleb128 0x13
 2209 022d 00       		.byte	0
 2210 022e 00       		.byte	0
 2211 022f 2B       		.uleb128 0x2b
 2212 0230 898201   		.uleb128 0x4109
 2213 0233 01       		.byte	0x1
 2214 0234 11       		.uleb128 0x11
 2215 0235 01       		.uleb128 0x1
 2216 0236 31       		.uleb128 0x31
 2217 0237 13       		.uleb128 0x13
 2218 0238 01       		.uleb128 0x1
 2219 0239 13       		.uleb128 0x13
 2220 023a 00       		.byte	0
 2221 023b 00       		.byte	0
 2222 023c 2C       		.uleb128 0x2c
 2223 023d 8A8201   		.uleb128 0x410a
ARM GAS  /tmp/ccCsiqvd.s 			page 40


 2224 0240 00       		.byte	0
 2225 0241 02       		.uleb128 0x2
 2226 0242 18       		.uleb128 0x18
 2227 0243 9142     		.uleb128 0x2111
 2228 0245 18       		.uleb128 0x18
 2229 0246 00       		.byte	0
 2230 0247 00       		.byte	0
 2231 0248 2D       		.uleb128 0x2d
 2232 0249 898201   		.uleb128 0x4109
 2233 024c 00       		.byte	0
 2234 024d 11       		.uleb128 0x11
 2235 024e 01       		.uleb128 0x1
 2236 024f 31       		.uleb128 0x31
 2237 0250 13       		.uleb128 0x13
 2238 0251 00       		.byte	0
 2239 0252 00       		.byte	0
 2240 0253 2E       		.uleb128 0x2e
 2241 0254 34       		.uleb128 0x34
 2242 0255 00       		.byte	0
 2243 0256 03       		.uleb128 0x3
 2244 0257 08       		.uleb128 0x8
 2245 0258 3A       		.uleb128 0x3a
 2246 0259 0B       		.uleb128 0xb
 2247 025a 3B       		.uleb128 0x3b
 2248 025b 0B       		.uleb128 0xb
 2249 025c 49       		.uleb128 0x49
 2250 025d 13       		.uleb128 0x13
 2251 025e 00       		.byte	0
 2252 025f 00       		.byte	0
 2253 0260 2F       		.uleb128 0x2f
 2254 0261 05       		.uleb128 0x5
 2255 0262 00       		.byte	0
 2256 0263 31       		.uleb128 0x31
 2257 0264 13       		.uleb128 0x13
 2258 0265 02       		.uleb128 0x2
 2259 0266 17       		.uleb128 0x17
 2260 0267 00       		.byte	0
 2261 0268 00       		.byte	0
 2262 0269 30       		.uleb128 0x30
 2263 026a 0B       		.uleb128 0xb
 2264 026b 01       		.byte	0x1
 2265 026c 55       		.uleb128 0x55
 2266 026d 17       		.uleb128 0x17
 2267 026e 00       		.byte	0
 2268 026f 00       		.byte	0
 2269 0270 31       		.uleb128 0x31
 2270 0271 34       		.uleb128 0x34
 2271 0272 00       		.byte	0
 2272 0273 31       		.uleb128 0x31
 2273 0274 13       		.uleb128 0x13
 2274 0275 02       		.uleb128 0x2
 2275 0276 17       		.uleb128 0x17
 2276 0277 00       		.byte	0
 2277 0278 00       		.byte	0
 2278 0279 32       		.uleb128 0x32
 2279 027a 898201   		.uleb128 0x4109
 2280 027d 01       		.byte	0x1
ARM GAS  /tmp/ccCsiqvd.s 			page 41


 2281 027e 11       		.uleb128 0x11
 2282 027f 01       		.uleb128 0x1
 2283 0280 31       		.uleb128 0x31
 2284 0281 13       		.uleb128 0x13
 2285 0282 00       		.byte	0
 2286 0283 00       		.byte	0
 2287 0284 33       		.uleb128 0x33
 2288 0285 2E       		.uleb128 0x2e
 2289 0286 01       		.byte	0x1
 2290 0287 3F       		.uleb128 0x3f
 2291 0288 19       		.uleb128 0x19
 2292 0289 03       		.uleb128 0x3
 2293 028a 0E       		.uleb128 0xe
 2294 028b 3A       		.uleb128 0x3a
 2295 028c 0B       		.uleb128 0xb
 2296 028d 3B       		.uleb128 0x3b
 2297 028e 0B       		.uleb128 0xb
 2298 028f 27       		.uleb128 0x27
 2299 0290 19       		.uleb128 0x19
 2300 0291 11       		.uleb128 0x11
 2301 0292 01       		.uleb128 0x1
 2302 0293 12       		.uleb128 0x12
 2303 0294 06       		.uleb128 0x6
 2304 0295 40       		.uleb128 0x40
 2305 0296 18       		.uleb128 0x18
 2306 0297 9742     		.uleb128 0x2117
 2307 0299 19       		.uleb128 0x19
 2308 029a 01       		.uleb128 0x1
 2309 029b 13       		.uleb128 0x13
 2310 029c 00       		.byte	0
 2311 029d 00       		.byte	0
 2312 029e 34       		.uleb128 0x34
 2313 029f 1D       		.uleb128 0x1d
 2314 02a0 01       		.byte	0x1
 2315 02a1 31       		.uleb128 0x31
 2316 02a2 13       		.uleb128 0x13
 2317 02a3 11       		.uleb128 0x11
 2318 02a4 01       		.uleb128 0x1
 2319 02a5 12       		.uleb128 0x12
 2320 02a6 06       		.uleb128 0x6
 2321 02a7 58       		.uleb128 0x58
 2322 02a8 0B       		.uleb128 0xb
 2323 02a9 59       		.uleb128 0x59
 2324 02aa 0B       		.uleb128 0xb
 2325 02ab 00       		.byte	0
 2326 02ac 00       		.byte	0
 2327 02ad 35       		.uleb128 0x35
 2328 02ae 34       		.uleb128 0x34
 2329 02af 00       		.byte	0
 2330 02b0 03       		.uleb128 0x3
 2331 02b1 0E       		.uleb128 0xe
 2332 02b2 3A       		.uleb128 0x3a
 2333 02b3 0B       		.uleb128 0xb
 2334 02b4 3B       		.uleb128 0x3b
 2335 02b5 05       		.uleb128 0x5
 2336 02b6 49       		.uleb128 0x49
 2337 02b7 13       		.uleb128 0x13
ARM GAS  /tmp/ccCsiqvd.s 			page 42


 2338 02b8 3F       		.uleb128 0x3f
 2339 02b9 19       		.uleb128 0x19
 2340 02ba 3C       		.uleb128 0x3c
 2341 02bb 19       		.uleb128 0x19
 2342 02bc 00       		.byte	0
 2343 02bd 00       		.byte	0
 2344 02be 36       		.uleb128 0x36
 2345 02bf 34       		.uleb128 0x34
 2346 02c0 00       		.byte	0
 2347 02c1 03       		.uleb128 0x3
 2348 02c2 08       		.uleb128 0x8
 2349 02c3 3A       		.uleb128 0x3a
 2350 02c4 0B       		.uleb128 0xb
 2351 02c5 3B       		.uleb128 0x3b
 2352 02c6 05       		.uleb128 0x5
 2353 02c7 49       		.uleb128 0x49
 2354 02c8 13       		.uleb128 0x13
 2355 02c9 3F       		.uleb128 0x3f
 2356 02ca 19       		.uleb128 0x19
 2357 02cb 3C       		.uleb128 0x3c
 2358 02cc 19       		.uleb128 0x19
 2359 02cd 00       		.byte	0
 2360 02ce 00       		.byte	0
 2361 02cf 37       		.uleb128 0x37
 2362 02d0 2E       		.uleb128 0x2e
 2363 02d1 01       		.byte	0x1
 2364 02d2 3F       		.uleb128 0x3f
 2365 02d3 19       		.uleb128 0x19
 2366 02d4 03       		.uleb128 0x3
 2367 02d5 0E       		.uleb128 0xe
 2368 02d6 3A       		.uleb128 0x3a
 2369 02d7 0B       		.uleb128 0xb
 2370 02d8 3B       		.uleb128 0x3b
 2371 02d9 05       		.uleb128 0x5
 2372 02da 27       		.uleb128 0x27
 2373 02db 19       		.uleb128 0x19
 2374 02dc 3C       		.uleb128 0x3c
 2375 02dd 19       		.uleb128 0x19
 2376 02de 01       		.uleb128 0x1
 2377 02df 13       		.uleb128 0x13
 2378 02e0 00       		.byte	0
 2379 02e1 00       		.byte	0
 2380 02e2 38       		.uleb128 0x38
 2381 02e3 2E       		.uleb128 0x2e
 2382 02e4 01       		.byte	0x1
 2383 02e5 3F       		.uleb128 0x3f
 2384 02e6 19       		.uleb128 0x19
 2385 02e7 03       		.uleb128 0x3
 2386 02e8 0E       		.uleb128 0xe
 2387 02e9 3A       		.uleb128 0x3a
 2388 02ea 0B       		.uleb128 0xb
 2389 02eb 3B       		.uleb128 0x3b
 2390 02ec 05       		.uleb128 0x5
 2391 02ed 27       		.uleb128 0x27
 2392 02ee 19       		.uleb128 0x19
 2393 02ef 49       		.uleb128 0x49
 2394 02f0 13       		.uleb128 0x13
ARM GAS  /tmp/ccCsiqvd.s 			page 43


 2395 02f1 3C       		.uleb128 0x3c
 2396 02f2 19       		.uleb128 0x19
 2397 02f3 01       		.uleb128 0x1
 2398 02f4 13       		.uleb128 0x13
 2399 02f5 00       		.byte	0
 2400 02f6 00       		.byte	0
 2401 02f7 39       		.uleb128 0x39
 2402 02f8 2E       		.uleb128 0x2e
 2403 02f9 01       		.byte	0x1
 2404 02fa 3F       		.uleb128 0x3f
 2405 02fb 19       		.uleb128 0x19
 2406 02fc 03       		.uleb128 0x3
 2407 02fd 0E       		.uleb128 0xe
 2408 02fe 3A       		.uleb128 0x3a
 2409 02ff 0B       		.uleb128 0xb
 2410 0300 3B       		.uleb128 0x3b
 2411 0301 05       		.uleb128 0x5
 2412 0302 27       		.uleb128 0x27
 2413 0303 19       		.uleb128 0x19
 2414 0304 3C       		.uleb128 0x3c
 2415 0305 19       		.uleb128 0x19
 2416 0306 00       		.byte	0
 2417 0307 00       		.byte	0
 2418 0308 00       		.byte	0
 2419              		.section	.debug_loc,"",%progbits
 2420              	.Ldebug_loc0:
 2421              	.LLST0:
 2422 0000 00000000 		.4byte	.LVL0
 2423 0004 20000000 		.4byte	.LVL3
 2424 0008 0100     		.2byte	0x1
 2425 000a 50       		.byte	0x50
 2426 000b 20000000 		.4byte	.LVL3
 2427 000f 2C000000 		.4byte	.LVL6
 2428 0013 0300     		.2byte	0x3
 2429 0015 75       		.byte	0x75
 2430 0016 54       		.sleb128 -44
 2431 0017 9F       		.byte	0x9f
 2432 0018 2C000000 		.4byte	.LVL6
 2433 001c 2F000000 		.4byte	.LVL7-1
 2434 0020 0100     		.2byte	0x1
 2435 0022 50       		.byte	0x50
 2436 0023 2F000000 		.4byte	.LVL7-1
 2437 0027 38000000 		.4byte	.LFE219
 2438 002b 0300     		.2byte	0x3
 2439 002d 75       		.byte	0x75
 2440 002e 54       		.sleb128 -44
 2441 002f 9F       		.byte	0x9f
 2442 0030 00000000 		.4byte	0
 2443 0034 00000000 		.4byte	0
 2444              	.LLST1:
 2445 0038 00000000 		.4byte	.LVL0
 2446 003c 20000000 		.4byte	.LVL3
 2447 0040 0100     		.2byte	0x1
 2448 0042 51       		.byte	0x51
 2449 0043 20000000 		.4byte	.LVL3
 2450 0047 28000000 		.4byte	.LVL5
 2451 004b 0400     		.2byte	0x4
ARM GAS  /tmp/ccCsiqvd.s 			page 44


 2452 004d F3       		.byte	0xf3
 2453 004e 01       		.uleb128 0x1
 2454 004f 51       		.byte	0x51
 2455 0050 9F       		.byte	0x9f
 2456 0051 28000000 		.4byte	.LVL5
 2457 0055 2C000000 		.4byte	.LVL6
 2458 0059 0100     		.2byte	0x1
 2459 005b 50       		.byte	0x50
 2460 005c 2C000000 		.4byte	.LVL6
 2461 0060 2F000000 		.4byte	.LVL7-1
 2462 0064 0100     		.2byte	0x1
 2463 0066 51       		.byte	0x51
 2464 0067 2F000000 		.4byte	.LVL7-1
 2465 006b 38000000 		.4byte	.LFE219
 2466 006f 0400     		.2byte	0x4
 2467 0071 F3       		.byte	0xf3
 2468 0072 01       		.uleb128 0x1
 2469 0073 51       		.byte	0x51
 2470 0074 9F       		.byte	0x9f
 2471 0075 00000000 		.4byte	0
 2472 0079 00000000 		.4byte	0
 2473              	.LLST2:
 2474 007d 08000000 		.4byte	.LVL8
 2475 0081 12000000 		.4byte	.LVL9
 2476 0085 0100     		.2byte	0x1
 2477 0087 52       		.byte	0x52
 2478 0088 20000000 		.4byte	.LVL10
 2479 008c 25000000 		.4byte	.LVL11-1
 2480 0090 0100     		.2byte	0x1
 2481 0092 52       		.byte	0x52
 2482 0093 00000000 		.4byte	0
 2483 0097 00000000 		.4byte	0
 2484              	.LLST3:
 2485 009b 12000000 		.4byte	.LVL9
 2486 009f 20000000 		.4byte	.LVL10
 2487 00a3 0100     		.2byte	0x1
 2488 00a5 53       		.byte	0x53
 2489 00a6 00000000 		.4byte	0
 2490 00aa 00000000 		.4byte	0
 2491              	.LLST4:
 2492 00ae 12000000 		.4byte	.LVL9
 2493 00b2 20000000 		.4byte	.LVL10
 2494 00b6 0100     		.2byte	0x1
 2495 00b8 50       		.byte	0x50
 2496 00b9 00000000 		.4byte	0
 2497 00bd 00000000 		.4byte	0
 2498              	.LLST5:
 2499 00c1 00000000 		.4byte	.LVL12
 2500 00c5 07000000 		.4byte	.LVL14-1
 2501 00c9 0100     		.2byte	0x1
 2502 00cb 50       		.byte	0x50
 2503 00cc 07000000 		.4byte	.LVL14-1
 2504 00d0 0C000000 		.4byte	.LFE221
 2505 00d4 0400     		.2byte	0x4
 2506 00d6 F3       		.byte	0xf3
 2507 00d7 01       		.uleb128 0x1
 2508 00d8 50       		.byte	0x50
ARM GAS  /tmp/ccCsiqvd.s 			page 45


 2509 00d9 9F       		.byte	0x9f
 2510 00da 00000000 		.4byte	0
 2511 00de 00000000 		.4byte	0
 2512              	.LLST6:
 2513 00e2 00000000 		.4byte	.LVL12
 2514 00e6 07000000 		.4byte	.LVL14-1
 2515 00ea 0100     		.2byte	0x1
 2516 00ec 51       		.byte	0x51
 2517 00ed 07000000 		.4byte	.LVL14-1
 2518 00f1 0C000000 		.4byte	.LFE221
 2519 00f5 0400     		.2byte	0x4
 2520 00f7 F3       		.byte	0xf3
 2521 00f8 01       		.uleb128 0x1
 2522 00f9 51       		.byte	0x51
 2523 00fa 9F       		.byte	0x9f
 2524 00fb 00000000 		.4byte	0
 2525 00ff 00000000 		.4byte	0
 2526              	.LLST7:
 2527 0103 04000000 		.4byte	.LVL13
 2528 0107 07000000 		.4byte	.LVL14-1
 2529 010b 0100     		.2byte	0x1
 2530 010d 51       		.byte	0x51
 2531 010e 07000000 		.4byte	.LVL14-1
 2532 0112 0C000000 		.4byte	.LFE221
 2533 0116 0400     		.2byte	0x4
 2534 0118 F3       		.byte	0xf3
 2535 0119 01       		.uleb128 0x1
 2536 011a 51       		.byte	0x51
 2537 011b 9F       		.byte	0x9f
 2538 011c 00000000 		.4byte	0
 2539 0120 00000000 		.4byte	0
 2540              	.LLST8:
 2541 0124 04000000 		.4byte	.LVL13
 2542 0128 07000000 		.4byte	.LVL14-1
 2543 012c 0100     		.2byte	0x1
 2544 012e 50       		.byte	0x50
 2545 012f 07000000 		.4byte	.LVL14-1
 2546 0133 0C000000 		.4byte	.LFE221
 2547 0137 0400     		.2byte	0x4
 2548 0139 F3       		.byte	0xf3
 2549 013a 01       		.uleb128 0x1
 2550 013b 50       		.byte	0x50
 2551 013c 9F       		.byte	0x9f
 2552 013d 00000000 		.4byte	0
 2553 0141 00000000 		.4byte	0
 2554              		.section	.debug_aranges,"",%progbits
 2555 0000 2C000000 		.4byte	0x2c
 2556 0004 0200     		.2byte	0x2
 2557 0006 00000000 		.4byte	.Ldebug_info0
 2558 000a 04       		.byte	0x4
 2559 000b 00       		.byte	0
 2560 000c 0000     		.2byte	0
 2561 000e 0000     		.2byte	0
 2562 0010 00000000 		.4byte	.LFB219
 2563 0014 38000000 		.4byte	.LFE219-.LFB219
 2564 0018 00000000 		.4byte	.LFB220
 2565 001c 34000000 		.4byte	.LFE220-.LFB220
ARM GAS  /tmp/ccCsiqvd.s 			page 46


 2566 0020 00000000 		.4byte	.LFB221
 2567 0024 0C000000 		.4byte	.LFE221-.LFB221
 2568 0028 00000000 		.4byte	0
 2569 002c 00000000 		.4byte	0
 2570              		.section	.debug_ranges,"",%progbits
 2571              	.Ldebug_ranges0:
 2572 0000 10000000 		.4byte	.LBB56
 2573 0004 14000000 		.4byte	.LBE56
 2574 0008 18000000 		.4byte	.LBB59
 2575 000c 1E000000 		.4byte	.LBE59
 2576 0010 00000000 		.4byte	0
 2577 0014 00000000 		.4byte	0
 2578 0018 12000000 		.4byte	.LBB71
 2579 001c 16000000 		.4byte	.LBE71
 2580 0020 18000000 		.4byte	.LBB74
 2581 0024 1A000000 		.4byte	.LBE74
 2582 0028 00000000 		.4byte	0
 2583 002c 00000000 		.4byte	0
 2584 0030 00000000 		.4byte	.LFB219
 2585 0034 38000000 		.4byte	.LFE219
 2586 0038 00000000 		.4byte	.LFB220
 2587 003c 34000000 		.4byte	.LFE220
 2588 0040 00000000 		.4byte	.LFB221
 2589 0044 0C000000 		.4byte	.LFE221
 2590 0048 00000000 		.4byte	0
 2591 004c 00000000 		.4byte	0
 2592              		.section	.debug_line,"",%progbits
 2593              	.Ldebug_line0:
 2594 0000 84020000 		.section	.debug_str,"MS",%progbits,1
 2594      0200C201 
 2594      00000201 
 2594      FB0E0D00 
 2594      01010101 
 2595              	.LASF20:
 2596 0000 74726566 		.ascii	"trefs_t\000"
 2596      735F7400 
 2597              	.LASF53:
 2598 0008 72656164 		.ascii	"ready_list_t\000"
 2598      795F6C69 
 2598      73745F74 
 2598      00
 2599              	.LASF109:
 2600 0015 71756575 		.ascii	"queue_insert\000"
 2600      655F696E 
 2600      73657274 
 2600      00
 2601              	.LASF91:
 2602 0022 77747472 		.ascii	"wttrp\000"
 2602      7000
 2603              	.LASF88:
 2604 0028 7264796D 		.ascii	"rdymsg\000"
 2604      736700
 2605              	.LASF16:
 2606 002f 75696E74 		.ascii	"uint64_t\000"
 2606      36345F74 
 2606      00
 2607              	.LASF5:
ARM GAS  /tmp/ccCsiqvd.s 			page 47


 2608 0038 5F5F7569 		.ascii	"__uint8_t\000"
 2608      6E74385F 
 2608      7400
 2609              	.LASF85:
 2610 0042 706F7274 		.ascii	"port_intctx\000"
 2610      5F696E74 
 2610      63747800 
 2611              	.LASF72:
 2612 004e 73797374 		.ascii	"system_debug_t\000"
 2612      656D5F64 
 2612      65627567 
 2612      5F7400
 2613              	.LASF106:
 2614 005d 706F7274 		.ascii	"port_lock\000"
 2614      5F6C6F63 
 2614      6B00
 2615              	.LASF12:
 2616 0067 6C6F6E67 		.ascii	"long long unsigned int\000"
 2616      206C6F6E 
 2616      6720756E 
 2616      7369676E 
 2616      65642069 
 2617              	.LASF89:
 2618 007e 65786974 		.ascii	"exitcode\000"
 2618      636F6465 
 2618      00
 2619              	.LASF79:
 2620 0087 6D61696E 		.ascii	"mainthread\000"
 2620      74687265 
 2620      616400
 2621              	.LASF69:
 2622 0092 76697274 		.ascii	"virtual_timers_list_t\000"
 2622      75616C5F 
 2622      74696D65 
 2622      72735F6C 
 2622      6973745F 
 2623              	.LASF118:
 2624 00a8 49544D5F 		.ascii	"ITM_RxBuffer\000"
 2624      52784275 
 2624      66666572 
 2624      00
 2625              	.LASF52:
 2626 00b5 63685F74 		.ascii	"ch_threads_queue\000"
 2626      68726561 
 2626      64735F71 
 2626      75657565 
 2626      00
 2627              	.LASF30:
 2628 00c6 705F7072 		.ascii	"p_prio\000"
 2628      696F00
 2629              	.LASF10:
 2630 00cd 6C6F6E67 		.ascii	"long long int\000"
 2630      206C6F6E 
 2630      6720696E 
 2630      7400
 2631              	.LASF1:
 2632 00db 7369676E 		.ascii	"signed char\000"
ARM GAS  /tmp/ccCsiqvd.s 			page 48


 2632      65642063 
 2632      68617200 
 2633              	.LASF46:
 2634 00e7 705F6D70 		.ascii	"p_mpool\000"
 2634      6F6F6C00 
 2635              	.LASF99:
 2636 00ef 6D5F7175 		.ascii	"m_queue\000"
 2636      65756500 
 2637              	.LASF78:
 2638 00f7 76746C69 		.ascii	"vtlist\000"
 2638      737400
 2639              	.LASF107:
 2640 00fe 706F7274 		.ascii	"port_unlock\000"
 2640      5F756E6C 
 2640      6F636B00 
 2641              	.LASF21:
 2642 010a 74736C69 		.ascii	"tslices_t\000"
 2642      6365735F 
 2642      7400
 2643              	.LASF76:
 2644 0114 63685F73 		.ascii	"ch_system\000"
 2644      79737465 
 2644      6D00
 2645              	.LASF7:
 2646 011e 6C6F6E67 		.ascii	"long int\000"
 2646      20696E74 
 2646      00
 2647              	.LASF116:
 2648 0127 63684D73 		.ascii	"chMsgSend\000"
 2648      6753656E 
 2648      6400
 2649              	.LASF19:
 2650 0131 74737461 		.ascii	"tstate_t\000"
 2650      74655F74 
 2650      00
 2651              	.LASF112:
 2652 013a 63684D73 		.ascii	"chMsgIsPendingI\000"
 2652      67497350 
 2652      656E6469 
 2652      6E674900 
 2653              	.LASF32:
 2654 014a 705F6E65 		.ascii	"p_newer\000"
 2654      77657200 
 2655              	.LASF96:
 2656 0152 735F7175 		.ascii	"s_queue\000"
 2656      65756500 
 2657              	.LASF58:
 2658 015a 725F6E65 		.ascii	"r_newer\000"
 2658      77657200 
 2659              	.LASF82:
 2660 0162 72656761 		.ascii	"regarm_t\000"
 2660      726D5F74 
 2660      00
 2661              	.LASF65:
 2662 016b 76745F70 		.ascii	"vt_prev\000"
 2662      72657600 
 2663              	.LASF103:
ARM GAS  /tmp/ccCsiqvd.s 			page 49


 2664 0173 6D757465 		.ascii	"mutex_t\000"
 2664      785F7400 
 2665              	.LASF80:
 2666 017b 69646C65 		.ascii	"idle_thread_wa\000"
 2666      5F746872 
 2666      6561645F 
 2666      776100
 2667              	.LASF25:
 2668 018a 636E745F 		.ascii	"cnt_t\000"
 2668      7400
 2669              	.LASF0:
 2670 0190 756E7369 		.ascii	"unsigned int\000"
 2670      676E6564 
 2670      20696E74 
 2670      00
 2671              	.LASF64:
 2672 019d 76745F6E 		.ascii	"vt_next\000"
 2672      65787400 
 2673              	.LASF39:
 2674 01a5 705F7469 		.ascii	"p_time\000"
 2674      6D6500
 2675              	.LASF92:
 2676 01ac 77747365 		.ascii	"wtsemp\000"
 2676      6D7000
 2677              	.LASF66:
 2678 01b3 76745F64 		.ascii	"vt_delta\000"
 2678      656C7461 
 2678      00
 2679              	.LASF41:
 2680 01bc 705F6D73 		.ascii	"p_msgqueue\000"
 2680      67717565 
 2680      756500
 2681              	.LASF97:
 2682 01c7 735F636E 		.ascii	"s_cnt\000"
 2682      7400
 2683              	.LASF4:
 2684 01cd 73686F72 		.ascii	"short unsigned int\000"
 2684      7420756E 
 2684      7369676E 
 2684      65642069 
 2684      6E7400
 2685              	.LASF49:
 2686 01e0 63685F74 		.ascii	"ch_thread\000"
 2686      68726561 
 2686      6400
 2687              	.LASF125:
 2688 01ea 63685363 		.ascii	"chSchWakeupS\000"
 2688      6857616B 
 2688      65757053 
 2688      00
 2689              	.LASF23:
 2690 01f7 6D73675F 		.ascii	"msg_t\000"
 2690      7400
 2691              	.LASF75:
 2692 01fd 63685F73 		.ascii	"ch_system_t\000"
 2692      79737465 
 2692      6D5F7400 
ARM GAS  /tmp/ccCsiqvd.s 			page 50


 2693              	.LASF18:
 2694 0209 746D6F64 		.ascii	"tmode_t\000"
 2694      655F7400 
 2695              	.LASF54:
 2696 0211 63685F72 		.ascii	"ch_ready_list\000"
 2696      65616479 
 2696      5F6C6973 
 2696      7400
 2697              	.LASF24:
 2698 021f 6576656E 		.ascii	"eventmask_t\000"
 2698      746D6173 
 2698      6B5F7400 
 2699              	.LASF6:
 2700 022b 5F5F696E 		.ascii	"__int32_t\000"
 2700      7433325F 
 2700      7400
 2701              	.LASF83:
 2702 0235 73746B61 		.ascii	"stkalign_t\000"
 2702      6C69676E 
 2702      5F7400
 2703              	.LASF48:
 2704 0240 74687265 		.ascii	"threads_list_t\000"
 2704      6164735F 
 2704      6C697374 
 2704      5F7400
 2705              	.LASF40:
 2706 024f 705F7761 		.ascii	"p_waiting\000"
 2706      6974696E 
 2706      6700
 2707              	.LASF81:
 2708 0259 73697A65 		.ascii	"sizetype\000"
 2708      74797065 
 2708      00
 2709              	.LASF47:
 2710 0262 74687265 		.ascii	"thread_reference_t\000"
 2710      61645F72 
 2710      65666572 
 2710      656E6365 
 2710      5F7400
 2711              	.LASF70:
 2712 0275 63685F76 		.ascii	"ch_virtual_timers_list\000"
 2712      69727475 
 2712      616C5F74 
 2712      696D6572 
 2712      735F6C69 
 2713              	.LASF33:
 2714 028c 705F6F6C 		.ascii	"p_older\000"
 2714      64657200 
 2715              	.LASF57:
 2716 0294 725F6374 		.ascii	"r_ctx\000"
 2716      7800
 2717              	.LASF87:
 2718 029a 746D5F63 		.ascii	"tm_calibration_t\000"
 2718      616C6962 
 2718      72617469 
 2718      6F6E5F74 
 2718      00
ARM GAS  /tmp/ccCsiqvd.s 			page 51


 2719              	.LASF101:
 2720 02ab 6D5F6E65 		.ascii	"m_next\000"
 2720      787400
 2721              	.LASF60:
 2722 02b2 725F6375 		.ascii	"r_current\000"
 2722      7272656E 
 2722      7400
 2723              	.LASF59:
 2724 02bc 725F6F6C 		.ascii	"r_older\000"
 2724      64657200 
 2725              	.LASF105:
 2726 02c4 5F5F656E 		.ascii	"__enable_irq\000"
 2726      61626C65 
 2726      5F697271 
 2726      00
 2727              	.LASF11:
 2728 02d1 5F5F7569 		.ascii	"__uint64_t\000"
 2728      6E743634 
 2728      5F7400
 2729              	.LASF104:
 2730 02dc 5F5F6469 		.ascii	"__disable_irq\000"
 2730      7361626C 
 2730      655F6972 
 2730      7100
 2731              	.LASF62:
 2732 02ea 76697274 		.ascii	"virtual_timer_t\000"
 2732      75616C5F 
 2732      74696D65 
 2732      725F7400 
 2733              	.LASF29:
 2734 02fa 705F7072 		.ascii	"p_prev\000"
 2734      657600
 2735              	.LASF22:
 2736 0301 74707269 		.ascii	"tprio_t\000"
 2736      6F5F7400 
 2737              	.LASF121:
 2738 0309 2F686F6D 		.ascii	"/home/benjamin/Skrivbord/SP-RCCar/Embedded/Mote/\000"
 2738      652F6265 
 2738      6E6A616D 
 2738      696E2F53 
 2738      6B726976 
 2739              	.LASF73:
 2740 033a 63685F73 		.ascii	"ch_system_debug\000"
 2740      79737465 
 2740      6D5F6465 
 2740      62756700 
 2741              	.LASF111:
 2742 034a 5F426F6F 		.ascii	"_Bool\000"
 2742      6C00
 2743              	.LASF14:
 2744 0350 696E7433 		.ascii	"int32_t\000"
 2744      325F7400 
 2745              	.LASF2:
 2746 0358 756E7369 		.ascii	"unsigned char\000"
 2746      676E6564 
 2746      20636861 
 2746      7200
ARM GAS  /tmp/ccCsiqvd.s 			page 52


 2747              	.LASF44:
 2748 0366 705F6D74 		.ascii	"p_mtxlist\000"
 2748      786C6973 
 2748      7400
 2749              	.LASF3:
 2750 0370 73686F72 		.ascii	"short int\000"
 2750      7420696E 
 2750      7400
 2751              	.LASF35:
 2752 037a 705F7374 		.ascii	"p_state\000"
 2752      61746500 
 2753              	.LASF38:
 2754 0382 705F7072 		.ascii	"p_preempt\000"
 2754      65656D70 
 2754      7400
 2755              	.LASF56:
 2756 038c 725F7072 		.ascii	"r_prio\000"
 2756      696F00
 2757              	.LASF94:
 2758 0393 65776D61 		.ascii	"ewmask\000"
 2758      736B00
 2759              	.LASF28:
 2760 039a 705F6E65 		.ascii	"p_next\000"
 2760      787400
 2761              	.LASF36:
 2762 03a1 705F666C 		.ascii	"p_flags\000"
 2762      61677300 
 2763              	.LASF114:
 2764 03a9 5F5F6675 		.ascii	"__func__\000"
 2764      6E635F5F 
 2764      00
 2765              	.LASF108:
 2766 03b2 63685379 		.ascii	"chSysLock\000"
 2766      734C6F63 
 2766      6B00
 2767              	.LASF63:
 2768 03bc 63685F76 		.ascii	"ch_virtual_timer\000"
 2768      69727475 
 2768      616C5F74 
 2768      696D6572 
 2768      00
 2769              	.LASF122:
 2770 03cd 63684D73 		.ascii	"chMsgRelease\000"
 2770      6752656C 
 2770      65617365 
 2770      00
 2771              	.LASF95:
 2772 03da 63685F73 		.ascii	"ch_semaphore\000"
 2772      656D6170 
 2772      686F7265 
 2772      00
 2773              	.LASF123:
 2774 03e7 63685363 		.ascii	"chSchGoSleepS\000"
 2774      68476F53 
 2774      6C656570 
 2774      5300
 2775              	.LASF43:
ARM GAS  /tmp/ccCsiqvd.s 			page 53


 2776 03f5 705F6570 		.ascii	"p_epending\000"
 2776      656E6469 
 2776      6E6700
 2777              	.LASF15:
 2778 0400 75696E74 		.ascii	"uint32_t\000"
 2778      33325F74 
 2778      00
 2779              	.LASF93:
 2780 0409 77746D74 		.ascii	"wtmtxp\000"
 2780      787000
 2781              	.LASF55:
 2782 0410 725F7175 		.ascii	"r_queue\000"
 2782      65756500 
 2783              	.LASF124:
 2784 0418 63685363 		.ascii	"chSchReadyI\000"
 2784      68526561 
 2784      64794900 
 2785              	.LASF50:
 2786 0424 63685F74 		.ascii	"ch_threads_list\000"
 2786      68726561 
 2786      64735F6C 
 2786      69737400 
 2787              	.LASF9:
 2788 0434 6C6F6E67 		.ascii	"long unsigned int\000"
 2788      20756E73 
 2788      69676E65 
 2788      6420696E 
 2788      7400
 2789              	.LASF102:
 2790 0446 63686172 		.ascii	"char\000"
 2790      00
 2791              	.LASF119:
 2792 044b 474E5520 		.ascii	"GNU C 4.9.3 20150529 (release) [ARM/embedded-4_9-br"
 2792      4320342E 
 2792      392E3320 
 2792      32303135 
 2792      30353239 
 2793 047e 616E6368 		.ascii	"anch revision 227977] -mcpu=cortex-m4 -mfloat-abi=h"
 2793      20726576 
 2793      6973696F 
 2793      6E203232 
 2793      37393737 
 2794 04b1 61726420 		.ascii	"ard -mfpu=fpv4-sp-d16 -mno-thumb-interwork -mthumb "
 2794      2D6D6670 
 2794      753D6670 
 2794      76342D73 
 2794      702D6431 
 2795 04e4 2D676764 		.ascii	"-ggdb -O2 -std=gnu99 -fomit-frame-pointer -falign-f"
 2795      62202D4F 
 2795      32202D73 
 2795      74643D67 
 2795      6E753939 
 2796 0517 756E6374 		.ascii	"unctions=16 -ffunction-sections -fdata-sections -fn"
 2796      696F6E73 
 2796      3D313620 
 2796      2D666675 
 2796      6E637469 
ARM GAS  /tmp/ccCsiqvd.s 			page 54


 2797 054a 6F2D636F 		.ascii	"o-common -fsingle-precision-constant\000"
 2797      6D6D6F6E 
 2797      202D6673 
 2797      696E676C 
 2797      652D7072 
 2798              	.LASF113:
 2799 056f 71756575 		.ascii	"queue_fifo_remove\000"
 2799      655F6669 
 2799      666F5F72 
 2799      656D6F76 
 2799      6500
 2800              	.LASF26:
 2801 0581 73797374 		.ascii	"systime_t\000"
 2801      696D655F 
 2801      7400
 2802              	.LASF45:
 2803 058b 705F7265 		.ascii	"p_realprio\000"
 2803      616C7072 
 2803      696F00
 2804              	.LASF61:
 2805 0596 76746675 		.ascii	"vtfunc_t\000"
 2805      6E635F74 
 2805      00
 2806              	.LASF8:
 2807 059f 5F5F7569 		.ascii	"__uint32_t\000"
 2807      6E743332 
 2807      5F7400
 2808              	.LASF120:
 2809 05aa 43686962 		.ascii	"ChibiOS_3.0.2/os/rt/src/chmsg.c\000"
 2809      694F535F 
 2809      332E302E 
 2809      322F6F73 
 2809      2F72742F 
 2810              	.LASF74:
 2811 05ca 70616E69 		.ascii	"panic_msg\000"
 2811      635F6D73 
 2811      6700
 2812              	.LASF86:
 2813 05d4 6F666673 		.ascii	"offset\000"
 2813      657400
 2814              	.LASF84:
 2815 05db 636F6E74 		.ascii	"context\000"
 2815      65787400 
 2816              	.LASF17:
 2817 05e3 7274636E 		.ascii	"rtcnt_t\000"
 2817      745F7400 
 2818              	.LASF68:
 2819 05eb 76745F70 		.ascii	"vt_par\000"
 2819      617200
 2820              	.LASF117:
 2821 05f2 63684D73 		.ascii	"chMsgWait\000"
 2821      67576169 
 2821      7400
 2822              	.LASF51:
 2823 05fc 74687265 		.ascii	"threads_queue_t\000"
 2823      6164735F 
 2823      71756575 
ARM GAS  /tmp/ccCsiqvd.s 			page 55


 2823      655F7400 
 2824              	.LASF98:
 2825 060c 63685F6D 		.ascii	"ch_mutex\000"
 2825      75746578 
 2825      00
 2826              	.LASF37:
 2827 0615 705F7265 		.ascii	"p_refs\000"
 2827      667300
 2828              	.LASF27:
 2829 061c 74687265 		.ascii	"thread_t\000"
 2829      61645F74 
 2829      00
 2830              	.LASF77:
 2831 0625 726C6973 		.ascii	"rlist\000"
 2831      7400
 2832              	.LASF13:
 2833 062b 75696E74 		.ascii	"uint8_t\000"
 2833      385F7400 
 2834              	.LASF90:
 2835 0633 77746F62 		.ascii	"wtobjp\000"
 2835      6A7000
 2836              	.LASF34:
 2837 063a 705F6E61 		.ascii	"p_name\000"
 2837      6D6500
 2838              	.LASF71:
 2839 0641 76745F73 		.ascii	"vt_systime\000"
 2839      79737469 
 2839      6D6500
 2840              	.LASF110:
 2841 064c 63685379 		.ascii	"chSysUnlock\000"
 2841      73556E6C 
 2841      6F636B00 
 2842              	.LASF42:
 2843 0658 705F6D73 		.ascii	"p_msg\000"
 2843      6700
 2844              	.LASF115:
 2845 065e 63684D73 		.ascii	"chMsgReleaseS\000"
 2845      6752656C 
 2845      65617365 
 2845      5300
 2846              	.LASF100:
 2847 066c 6D5F6F77 		.ascii	"m_owner\000"
 2847      6E657200 
 2848              	.LASF31:
 2849 0674 705F6374 		.ascii	"p_ctx\000"
 2849      7800
 2850              	.LASF67:
 2851 067a 76745F66 		.ascii	"vt_func\000"
 2851      756E6300 
 2852              		.ident	"GCC: (GNU Tools for ARM Embedded Processors) 4.9.3 20150529 (release) [ARM/embedded-4_9-br
ARM GAS  /tmp/ccCsiqvd.s 			page 56


DEFINED SYMBOLS
                            *ABS*:0000000000000000 chmsg.c
     /tmp/ccCsiqvd.s:21     .text.chMsgSend:0000000000000000 $t
     /tmp/ccCsiqvd.s:27     .text.chMsgSend:0000000000000000 chMsgSend
     /tmp/ccCsiqvd.s:127    .text.chMsgSend:0000000000000034 $d
     /tmp/ccCsiqvd.s:132    .text.chMsgWait:0000000000000000 $t
     /tmp/ccCsiqvd.s:138    .text.chMsgWait:0000000000000000 chMsgWait
     /tmp/ccCsiqvd.s:225    .text.chMsgWait:0000000000000030 $d
     /tmp/ccCsiqvd.s:230    .text.chMsgRelease:0000000000000000 $t
     /tmp/ccCsiqvd.s:236    .text.chMsgRelease:0000000000000000 chMsgRelease
                     .debug_frame:0000000000000010 $d

UNDEFINED SYMBOLS
chSchGoSleepS
chSchReadyI
ch
chSchWakeupS
