ARM GAS  /tmp/ccCsiqvd.s 			page 1


   1              		.syntax unified
   2              		.cpu cortex-m4
   3              		.eabi_attribute 27, 1
   4              		.eabi_attribute 28, 1
   5              		.fpu fpv4-sp-d16
   6              		.eabi_attribute 20, 1
   7              		.eabi_attribute 21, 1
   8              		.eabi_attribute 23, 3
   9              		.eabi_attribute 24, 1
  10              		.eabi_attribute 25, 1
  11              		.eabi_attribute 26, 1
  12              		.eabi_attribute 30, 2
  13              		.eabi_attribute 34, 1
  14              		.eabi_attribute 18, 4
  15              		.thumb
  16              		.file	"chmsg.c"
  17              		.text
  18              	.Ltext0:
  19              		.cfi_sections	.debug_frame
  20              		.section	.text.chMsgSend,"ax",%progbits
  21              		.align	2
  22              		.p2align 4,,15
  23              		.global	chMsgSend
  24              		.thumb
  25              		.thumb_func
  26              		.type	chMsgSend, %function
  27              	chMsgSend:
  28              	.LFB219:
  29              		.file 1 "ChibiOS_3.0.2/os/rt/src/chmsg.c"
  30              		.loc 1 87 0
  31              		.cfi_startproc
  32              		@ args = 0, pretend = 0, frame = 0
  33              		@ frame_needed = 0, uses_anonymous_args = 0
  34              	.LVL0:
  35              		.loc 1 88 0
  36 0000 0C4B     		ldr	r3, .L6
  37              		.loc 1 87 0
  38 0002 70B5     		push	{r4, r5, r6, lr}
  39              		.cfi_def_cfa_offset 16
  40              		.cfi_offset 4, -16
  41              		.cfi_offset 5, -12
  42              		.cfi_offset 6, -8
  43              		.cfi_offset 14, -4
  44              		.loc 1 88 0
  45 0004 9C69     		ldr	r4, [r3, #24]
  46              	.LVL1:
  47              	.LBB52:
  48              	.LBB53:
  49              	.LBB54:
  50              	.LBB55:
  51              		.file 2 "ChibiOS_3.0.2/os/ext/CMSIS/include/core_cmFunc.h"
  52              		.loc 2 342 0
  53              	@ 342 "ChibiOS_3.0.2/os/ext/CMSIS/include/core_cmFunc.h" 1
  54 0006 72B6     		cpsid i
  55              	@ 0 "" 2
  56              		.thumb
  57              	.LBE55:
ARM GAS  /tmp/ccCsiqvd.s 			page 2


  58              	.LBE54:
  59              	.LBE53:
  60              	.LBE52:
  61              		.loc 1 94 0
  62 0008 00F12C05 		add	r5, r0, #44
  63              		.loc 1 96 0
  64 000c 067F     		ldrb	r6, [r0, #28]	@ zero_extendqisi2
  65              		.loc 1 94 0
  66 000e 6562     		str	r5, [r4, #36]
  67              	.LVL2:
  68              	.LBB56:
  69              	.LBB57:
  70              		.file 3 "ChibiOS_3.0.2/os/rt/include/chschd.h"
  71              		.loc 3 666 0
  72 0010 026B     		ldr	r2, [r0, #48]
  73 0012 6260     		str	r2, [r4, #4]
  74              	.LBE57:
  75              	.LBE56:
  76              		.loc 1 96 0
  77 0014 0E2E     		cmp	r6, #14
  78              		.loc 1 93 0
  79 0016 6163     		str	r1, [r4, #52]
  80              	.LBB59:
  81              	.LBB58:
  82              		.loc 3 665 0
  83 0018 2560     		str	r5, [r4]
  84              		.loc 3 667 0
  85 001a 1460     		str	r4, [r2]
  86              		.loc 3 668 0
  87 001c 0463     		str	r4, [r0, #48]
  88              	.LBE58:
  89              	.LBE59:
  90              		.loc 1 96 0
  91 001e 05D0     		beq	.L5
  92              	.LVL3:
  93              	.L2:
  94              		.loc 1 99 0
  95 0020 0C20     		movs	r0, #12
  96 0022 FFF7FEFF 		bl	chSchGoSleepS
  97              	.LVL4:
  98              		.loc 1 100 0
  99 0026 606A     		ldr	r0, [r4, #36]
 100              	.LVL5:
 101              	.LBB60:
 102              	.LBB61:
 103              	.LBB62:
 104              	.LBB63:
 105              	.LBB64:
 106              		.loc 2 331 0
 107              	@ 331 "ChibiOS_3.0.2/os/ext/CMSIS/include/core_cmFunc.h" 1
 108 0028 62B6     		cpsie i
 109              	@ 0 "" 2
 110              		.thumb
 111              	.LBE64:
 112              	.LBE63:
 113              	.LBE62:
 114              	.LBE61:
ARM GAS  /tmp/ccCsiqvd.s 			page 3


 115              	.LBE60:
 116              		.loc 1 104 0
 117 002a 70BD     		pop	{r4, r5, r6, pc}
 118              	.LVL6:
 119              	.L5:
 120              		.loc 1 97 0
 121 002c FFF7FEFF 		bl	chSchReadyI
 122              	.LVL7:
 123 0030 F6E7     		b	.L2
 124              	.L7:
 125 0032 00BF     		.align	2
 126              	.L6:
 127 0034 00000000 		.word	ch
 128              		.cfi_endproc
 129              	.LFE219:
 130              		.size	chMsgSend, .-chMsgSend
 131              		.section	.text.chMsgWait,"ax",%progbits
 132              		.align	2
 133              		.p2align 4,,15
 134              		.global	chMsgWait
 135              		.thumb
 136              		.thumb_func
 137              		.type	chMsgWait, %function
 138              	chMsgWait:
 139              	.LFB220:
 140              		.loc 1 120 0
 141              		.cfi_startproc
 142              		@ args = 0, pretend = 0, frame = 0
 143              		@ frame_needed = 0, uses_anonymous_args = 0
 144 0000 10B5     		push	{r4, lr}
 145              		.cfi_def_cfa_offset 8
 146              		.cfi_offset 4, -8
 147              		.cfi_offset 14, -4
 148              	.LBB65:
 149              	.LBB66:
 150              	.LBB67:
 151              	.LBB68:
 152              		.loc 2 342 0
 153              	@ 342 "ChibiOS_3.0.2/os/ext/CMSIS/include/core_cmFunc.h" 1
 154 0002 72B6     		cpsid i
 155              	@ 0 "" 2
 156              		.thumb
 157              	.LBE68:
 158              	.LBE67:
 159              	.LBE66:
 160              	.LBE65:
 161              		.loc 1 124 0
 162 0004 0A4C     		ldr	r4, .L12
 163 0006 A269     		ldr	r2, [r4, #24]
 164              	.LVL8:
 165              	.LBB69:
 166              	.LBB70:
 167              		.file 4 "ChibiOS_3.0.2/os/rt/include/chmsg.h"
 168              		.loc 4 83 0
 169 0008 1346     		mov	r3, r2
 170 000a 53F82C0F 		ldr	r0, [r3, #44]!
 171              	.LBE70:
ARM GAS  /tmp/ccCsiqvd.s 			page 4


 172              	.LBE69:
 173              		.loc 1 124 0
 174 000e 9842     		cmp	r0, r3
 175 0010 06D0     		beq	.L11
 176              	.LVL9:
 177              	.L9:
 178              	.LBB71:
 179              	.LBB72:
 180              		.loc 3 674 0
 181 0012 0168     		ldr	r1, [r0]
 182 0014 D162     		str	r1, [r2, #44]
 183              	.LBE72:
 184              	.LBE71:
 185              		.loc 1 128 0
 186 0016 0D22     		movs	r2, #13
 187              	.LBB74:
 188              	.LBB73:
 189              		.loc 3 675 0
 190 0018 4B60     		str	r3, [r1, #4]
 191              	.LBE73:
 192              	.LBE74:
 193              		.loc 1 128 0
 194 001a 0277     		strb	r2, [r0, #28]
 195              	.LBB75:
 196              	.LBB76:
 197              	.LBB77:
 198              	.LBB78:
 199              	.LBB79:
 200              		.loc 2 331 0
 201              	@ 331 "ChibiOS_3.0.2/os/ext/CMSIS/include/core_cmFunc.h" 1
 202 001c 62B6     		cpsie i
 203              	@ 0 "" 2
 204              		.thumb
 205              	.LBE79:
 206              	.LBE78:
 207              	.LBE77:
 208              	.LBE76:
 209              	.LBE75:
 210              		.loc 1 132 0
 211 001e 10BD     		pop	{r4, pc}
 212              	.LVL10:
 213              	.L11:
 214              		.loc 1 125 0
 215 0020 0E20     		movs	r0, #14
 216 0022 FFF7FEFF 		bl	chSchGoSleepS
 217              	.LVL11:
 218 0026 A269     		ldr	r2, [r4, #24]
 219 0028 D06A     		ldr	r0, [r2, #44]
 220 002a 02F12C03 		add	r3, r2, #44
 221 002e F0E7     		b	.L9
 222              	.L13:
 223              		.align	2
 224              	.L12:
 225 0030 00000000 		.word	ch
 226              		.cfi_endproc
 227              	.LFE220:
 228              		.size	chMsgWait, .-chMsgWait
ARM GAS  /tmp/ccCsiqvd.s 			page 5


 229              		.section	.text.chMsgRelease,"ax",%progbits
 230              		.align	2
 231              		.p2align 4,,15
 232              		.global	chMsgRelease
 233              		.thumb
 234              		.thumb_func
 235              		.type	chMsgRelease, %function
 236              	chMsgRelease:
 237              	.LFB221:
 238              		.loc 1 144 0
 239              		.cfi_startproc
 240              		@ args = 0, pretend = 0, frame = 0
 241              		@ frame_needed = 0, uses_anonymous_args = 0
 242              	.LVL12:
 243 0000 08B5     		push	{r3, lr}
 244              		.cfi_def_cfa_offset 8
 245              		.cfi_offset 3, -8
 246              		.cfi_offset 14, -4
 247              	.LBB80:
 248              	.LBB81:
 249              	.LBB82:
 250              	.LBB83:
 251              		.loc 2 342 0
 252              	@ 342 "ChibiOS_3.0.2/os/ext/CMSIS/include/core_cmFunc.h" 1
 253 0002 72B6     		cpsid i
 254              	@ 0 "" 2
 255              	.LVL13:
 256              		.thumb
 257              	.LBE83:
 258              	.LBE82:
 259              	.LBE81:
 260              	.LBE80:
 261              	.LBB84:
 262              	.LBB85:
 263              		.loc 4 115 0
 264 0004 FFF7FEFF 		bl	chSchWakeupS
 265              	.LVL14:
 266              	.LBE85:
 267              	.LBE84:
 268              	.LBB86:
 269              	.LBB87:
 270              	.LBB88:
 271              	.LBB89:
 272              	.LBB90:
 273              		.loc 2 331 0
 274              	@ 331 "ChibiOS_3.0.2/os/ext/CMSIS/include/core_cmFunc.h" 1
 275 0008 62B6     		cpsie i
 276              	@ 0 "" 2
 277              		.thumb
 278 000a 08BD     		pop	{r3, pc}
 279              	.LBE90:
 280              	.LBE89:
 281              	.LBE88:
 282              	.LBE87:
 283              	.LBE86:
 284              		.cfi_endproc
 285              	.LFE221:
ARM GAS  /tmp/ccCsiqvd.s 			page 6


 286              		.size	chMsgRelease, .-chMsgRelease
 287              		.text
 288              	.Letext0:
 289              		.file 5 "/usr/arm-none-eabi/include/machine/_default_types.h"
 290              		.file 6 "/usr/arm-none-eabi/include/sys/_stdint.h"
 291              		.file 7 "ChibiOS_3.0.2/os/rt/ports/ARMCMx/compilers/GCC/chtypes.h"
 292              		.file 8 "ChibiOS_3.0.2/os/rt/include/chsystypes.h"
 293              		.file 9 "ChibiOS_3.0.2/os/rt/ports/ARMCMx/chcore.h"
 294              		.file 10 "ChibiOS_3.0.2/os/rt/ports/ARMCMx/chcore_v7m.h"
 295              		.file 11 "ChibiOS_3.0.2/os/rt/include/chtm.h"
 296              		.file 12 "ChibiOS_3.0.2/os/rt/include/chsem.h"
 297              		.file 13 "ChibiOS_3.0.2/os/rt/include/chmtx.h"
 298              		.file 14 "ChibiOS_3.0.2/os/rt/include/chsys.h"
 299              		.file 15 "ChibiOS_3.0.2/os/ext/CMSIS/include/core_cm4.h"