ARM GAS  /tmp/ccRW1Fmz.s 			page 1


   1              		.syntax unified
   2              		.cpu cortex-m4
   3              		.eabi_attribute 27, 1
   4              		.eabi_attribute 28, 1
   5              		.fpu fpv4-sp-d16
   6              		.eabi_attribute 20, 1
   7              		.eabi_attribute 21, 1
   8              		.eabi_attribute 23, 3
   9              		.eabi_attribute 24, 1
  10              		.eabi_attribute 25, 1
  11              		.eabi_attribute 26, 1
  12              		.eabi_attribute 30, 2
  13              		.eabi_attribute 34, 1
  14              		.eabi_attribute 18, 4
  15              		.thumb
  16              		.file	"chqueues.c"
  17              		.text
  18              	.Ltext0:
  19              		.cfi_sections	.debug_frame
  20              		.section	.text.chIQObjectInit,"ax",%progbits
  21              		.align	2
  22              		.p2align 4,,15
  23              		.global	chIQObjectInit
  24              		.thumb
  25              		.thumb_func
  26              		.type	chIQObjectInit, %function
  27              	chIQObjectInit:
  28              	.LFB219:
  29              		.file 1 "ChibiOS_3.0.2/os/rt/src/chqueues.c"
  30              		.loc 1 88 0
  31              		.cfi_startproc
  32              		@ args = 4, pretend = 0, frame = 0
  33              		@ frame_needed = 0, uses_anonymous_args = 0
  34              		@ link register save eliminated.
  35              	.LVL0:
  36 0000 30B4     		push	{r4, r5}
  37              		.cfi_def_cfa_offset 8
  38              		.cfi_offset 4, -8
  39              		.cfi_offset 5, -4
  40              		.loc 1 88 0
  41 0002 029C     		ldr	r4, [sp, #8]
  42              		.loc 1 97 0
  43 0004 0462     		str	r4, [r0, #32]
  44              		.loc 1 91 0
  45 0006 0025     		movs	r5, #0
  46              		.loc 1 95 0
  47 0008 0A44     		add	r2, r2, r1
  48              	.LVL1:
  49              		.loc 1 91 0
  50 000a 8560     		str	r5, [r0, #8]
  51              		.loc 1 95 0
  52 000c 0261     		str	r2, [r0, #16]
  53              	.LBB108:
  54              	.LBB109:
  55              	.LBB110:
  56              		.file 2 "ChibiOS_3.0.2/os/rt/include/chschd.h"
  57              		.loc 2 604 0
ARM GAS  /tmp/ccRW1Fmz.s 			page 2


  58 000e 0060     		str	r0, [r0]
  59              		.loc 2 605 0
  60 0010 4060     		str	r0, [r0, #4]
  61              	.LBE110:
  62              	.LBE109:
  63              	.LBE108:
  64              		.loc 1 92 0
  65 0012 C160     		str	r1, [r0, #12]
  66              		.loc 1 93 0
  67 0014 8161     		str	r1, [r0, #24]
  68              		.loc 1 94 0
  69 0016 4161     		str	r1, [r0, #20]
  70              		.loc 1 96 0
  71 0018 C361     		str	r3, [r0, #28]
  72              		.loc 1 98 0
  73 001a 30BC     		pop	{r4, r5}
  74              		.cfi_restore 5
  75              		.cfi_restore 4
  76              		.cfi_def_cfa_offset 0
  77              	.LVL2:
  78 001c 7047     		bx	lr
  79              		.cfi_endproc
  80              	.LFE219:
  81              		.size	chIQObjectInit, .-chIQObjectInit
  82 001e 00BF     		.section	.text.chIQResetI,"ax",%progbits
  83              		.align	2
  84              		.p2align 4,,15
  85              		.global	chIQResetI
  86              		.thumb
  87              		.thumb_func
  88              		.type	chIQResetI, %function
  89              	chIQResetI:
  90              	.LFB220:
  91              		.loc 1 111 0
  92              		.cfi_startproc
  93              		@ args = 0, pretend = 0, frame = 0
  94              		@ frame_needed = 0, uses_anonymous_args = 0
  95              		@ link register save eliminated.
  96              	.LVL3:
  97              		.loc 1 117 0
  98 0000 0021     		movs	r1, #0
  99              		.loc 1 115 0
 100 0002 C268     		ldr	r2, [r0, #12]
 101              		.loc 1 117 0
 102 0004 8160     		str	r1, [r0, #8]
 103              		.loc 1 115 0
 104 0006 8261     		str	r2, [r0, #24]
 105              		.loc 1 116 0
 106 0008 4261     		str	r2, [r0, #20]
 107              		.loc 1 118 0
 108 000a 6FF00101 		mvn	r1, #1
 109 000e FFF7FEBF 		b	chThdDequeueAllI
 110              	.LVL4:
 111              		.cfi_endproc
 112              	.LFE220:
 113              		.size	chIQResetI, .-chIQResetI
 114 0012 00BF     		.section	.text.chIQPutI,"ax",%progbits
ARM GAS  /tmp/ccRW1Fmz.s 			page 3


 115              		.align	2
 116              		.p2align 4,,15
 117              		.global	chIQPutI
 118              		.thumb
 119              		.thumb_func
 120              		.type	chIQPutI, %function
 121              	chIQPutI:
 122              	.LFB221:
 123              		.loc 1 134 0
 124              		.cfi_startproc
 125              		@ args = 0, pretend = 0, frame = 0
 126              		@ frame_needed = 0, uses_anonymous_args = 0
 127              	.LVL5:
 128              	.LBB111:
 129              	.LBB112:
 130              		.file 3 "ChibiOS_3.0.2/os/rt/include/chqueues.h"
 131              		.loc 3 324 0
 132 0000 4369     		ldr	r3, [r0, #20]
 133 0002 8269     		ldr	r2, [r0, #24]
 134 0004 9342     		cmp	r3, r2
 135              	.LBE112:
 136              	.LBE111:
 137              		.loc 1 134 0
 138 0006 10B5     		push	{r4, lr}
 139              		.cfi_def_cfa_offset 8
 140              		.cfi_offset 4, -8
 141              		.cfi_offset 14, -4
 142              	.LBB115:
 143              	.LBB113:
 144              		.loc 3 324 0
 145 0008 10D0     		beq	.L13
 146              	.L5:
 147              	.LBE113:
 148              	.LBE115:
 149              		.loc 1 142 0
 150 000a 8268     		ldr	r2, [r0, #8]
 151              		.loc 1 143 0
 152 000c 5C1C     		adds	r4, r3, #1
 153              		.loc 1 142 0
 154 000e 0132     		adds	r2, r2, #1
 155 0010 8260     		str	r2, [r0, #8]
 156              		.loc 1 143 0
 157 0012 4461     		str	r4, [r0, #20]
 158 0014 1970     		strb	r1, [r3]
 159              		.loc 1 144 0
 160 0016 4269     		ldr	r2, [r0, #20]
 161 0018 0369     		ldr	r3, [r0, #16]
 162 001a 9A42     		cmp	r2, r3
 163 001c 01D3     		bcc	.L8
 164              		.loc 1 145 0
 165 001e C368     		ldr	r3, [r0, #12]
 166 0020 4361     		str	r3, [r0, #20]
 167              	.L8:
 168              		.loc 1 148 0
 169 0022 0021     		movs	r1, #0
 170              	.LVL6:
 171 0024 FFF7FEFF 		bl	chThdDequeueNextI
ARM GAS  /tmp/ccRW1Fmz.s 			page 4


 172              	.LVL7:
 173              		.loc 1 150 0
 174 0028 0020     		movs	r0, #0
 175 002a 10BD     		pop	{r4, pc}
 176              	.LVL8:
 177              	.L13:
 178              	.LBB116:
 179              	.LBB114:
 180              		.loc 3 324 0
 181 002c 8268     		ldr	r2, [r0, #8]
 182 002e 002A     		cmp	r2, #0
 183 0030 EBD0     		beq	.L5
 184              	.LBE114:
 185              	.LBE116:
 186              		.loc 1 139 0
 187 0032 6FF00300 		mvn	r0, #3
 188              	.LVL9:
 189 0036 10BD     		pop	{r4, pc}
 190              		.cfi_endproc
 191              	.LFE221:
 192              		.size	chIQPutI, .-chIQPutI
 193              		.section	.text.chIQGetTimeout,"ax",%progbits
 194              		.align	2
 195              		.p2align 4,,15
 196              		.global	chIQGetTimeout
 197              		.thumb
 198              		.thumb_func
 199              		.type	chIQGetTimeout, %function
 200              	chIQGetTimeout:
 201              	.LFB222:
 202              		.loc 1 173 0
 203              		.cfi_startproc
 204              		@ args = 0, pretend = 0, frame = 0
 205              		@ frame_needed = 0, uses_anonymous_args = 0
 206              	.LVL10:
 207 0000 38B5     		push	{r3, r4, r5, lr}
 208              		.cfi_def_cfa_offset 16
 209              		.cfi_offset 3, -16
 210              		.cfi_offset 4, -12
 211              		.cfi_offset 5, -8
 212              		.cfi_offset 14, -4
 213              		.loc 1 173 0
 214 0002 0D46     		mov	r5, r1
 215 0004 0446     		mov	r4, r0
 216              	.LBB117:
 217              	.LBB118:
 218              	.LBB119:
 219              	.LBB120:
 220              		.file 4 "ChibiOS_3.0.2/os/ext/CMSIS/include/core_cmFunc.h"
 221              		.loc 4 342 0
 222              	@ 342 "ChibiOS_3.0.2/os/ext/CMSIS/include/core_cmFunc.h" 1
 223 0006 72B6     		cpsid i
 224              	@ 0 "" 2
 225              		.thumb
 226              	.LBE120:
 227              	.LBE119:
 228              	.LBE118:
ARM GAS  /tmp/ccRW1Fmz.s 			page 5


 229              	.LBE117:
 230              		.loc 1 177 0
 231 0008 C369     		ldr	r3, [r0, #28]
 232 000a 2BB1     		cbz	r3, .L16
 233              		.loc 1 178 0
 234 000c 9847     		blx	r3
 235              	.LVL11:
 236 000e 03E0     		b	.L16
 237              	.LVL12:
 238              	.L18:
 239              	.LBB121:
 240              		.loc 1 182 0
 241 0010 FFF7FEFF 		bl	chThdEnqueueTimeoutS
 242              	.LVL13:
 243              		.loc 1 183 0
 244 0014 0028     		cmp	r0, #0
 245 0016 11DB     		blt	.L19
 246              	.LVL14:
 247              	.L16:
 248              	.LBE121:
 249              	.LBB122:
 250              	.LBB123:
 251              		.loc 3 307 0
 252 0018 A368     		ldr	r3, [r4, #8]
 253              	.LBE123:
 254              	.LBE122:
 255              	.LBB124:
 256              		.loc 1 182 0
 257 001a 2046     		mov	r0, r4
 258 001c 2946     		mov	r1, r5
 259              	.LBE124:
 260              		.loc 1 181 0
 261 001e 002B     		cmp	r3, #0
 262 0020 F6D0     		beq	.L18
 263              	.LVL15:
 264              		.loc 1 190 0
 265 0022 A169     		ldr	r1, [r4, #24]
 266              	.LVL16:
 267              		.loc 1 189 0
 268 0024 A368     		ldr	r3, [r4, #8]
 269              		.loc 1 191 0
 270 0026 2569     		ldr	r5, [r4, #16]
 271              	.LVL17:
 272              		.loc 1 190 0
 273 0028 4A1C     		adds	r2, r1, #1
 274              		.loc 1 189 0
 275 002a 013B     		subs	r3, r3, #1
 276              		.loc 1 191 0
 277 002c AA42     		cmp	r2, r5
 278              		.loc 1 189 0
 279 002e A360     		str	r3, [r4, #8]
 280              		.loc 1 190 0
 281 0030 A261     		str	r2, [r4, #24]
 282              		.loc 1 192 0
 283 0032 28BF     		it	cs
 284 0034 E368     		ldrcs	r3, [r4, #12]
 285              		.loc 1 190 0
ARM GAS  /tmp/ccRW1Fmz.s 			page 6


 286 0036 0878     		ldrb	r0, [r1]	@ zero_extendqisi2
 287              	.LVL18:
 288              		.loc 1 192 0
 289 0038 28BF     		it	cs
 290 003a A361     		strcs	r3, [r4, #24]
 291              	.LVL19:
 292              	.L19:
 293              	.LBB125:
 294              	.LBB126:
 295              	.LBB127:
 296              	.LBB128:
 297              	.LBB129:
 298              		.loc 4 331 0
 299              	@ 331 "ChibiOS_3.0.2/os/ext/CMSIS/include/core_cmFunc.h" 1
 300 003c 62B6     		cpsie i
 301              	@ 0 "" 2
 302              		.thumb
 303              	.LBE129:
 304              	.LBE128:
 305              	.LBE127:
 306              	.LBE126:
 307              	.LBE125:
 308              		.loc 1 197 0
 309 003e 38BD     		pop	{r3, r4, r5, pc}
 310              		.cfi_endproc
 311              	.LFE222:
 312              		.size	chIQGetTimeout, .-chIQGetTimeout
 313              		.section	.text.chIQReadTimeout,"ax",%progbits
 314              		.align	2
 315              		.p2align 4,,15
 316              		.global	chIQReadTimeout
 317              		.thumb
 318              		.thumb_func
 319              		.type	chIQReadTimeout, %function
 320              	chIQReadTimeout:
 321              	.LFB223:
 322              		.loc 1 224 0
 323              		.cfi_startproc
 324              		@ args = 0, pretend = 0, frame = 0
 325              		@ frame_needed = 0, uses_anonymous_args = 0
 326              	.LVL20:
 327 0000 2DE9F843 		push	{r3, r4, r5, r6, r7, r8, r9, lr}
 328              		.cfi_def_cfa_offset 32
 329              		.cfi_offset 3, -32
 330              		.cfi_offset 4, -28
 331              		.cfi_offset 5, -24
 332              		.cfi_offset 6, -20
 333              		.cfi_offset 7, -16
 334              		.cfi_offset 8, -12
 335              		.cfi_offset 9, -8
 336              		.cfi_offset 14, -4
 337              		.loc 1 224 0
 338 0004 0446     		mov	r4, r0
 339 0006 8846     		mov	r8, r1
 340 0008 9146     		mov	r9, r2
 341 000a 1D46     		mov	r5, r3
 342              		.loc 1 225 0
ARM GAS  /tmp/ccRW1Fmz.s 			page 7


 343 000c C769     		ldr	r7, [r0, #28]
 344              	.LVL21:
 345              	.LBB130:
 346              	.LBB131:
 347              	.LBB132:
 348              	.LBB133:
 349              		.loc 4 342 0
 350              	@ 342 "ChibiOS_3.0.2/os/ext/CMSIS/include/core_cmFunc.h" 1
 351 000e 72B6     		cpsid i
 352              	@ 0 "" 2
 353              		.thumb
 354              	.LBE133:
 355              	.LBE132:
 356              	.LBE131:
 357              	.LBE130:
 358              		.loc 1 226 0
 359 0010 0026     		movs	r6, #0
 360              	.LVL22:
 361              	.L31:
 362              		.loc 1 232 0
 363 0012 2FB1     		cbz	r7, .L27
 364              		.loc 1 233 0
 365 0014 2046     		mov	r0, r4
 366              	.LVL23:
 367 0016 B847     		blx	r7
 368              	.LVL24:
 369 0018 02E0     		b	.L27
 370              	.LVL25:
 371              	.L29:
 372              		.loc 1 237 0
 373 001a FFF7FEFF 		bl	chThdEnqueueTimeoutS
 374              	.LVL26:
 375 001e C8B9     		cbnz	r0, .L38
 376              	.LVL27:
 377              	.L27:
 378              	.LBB134:
 379              	.LBB135:
 380              		.loc 3 307 0
 381 0020 A368     		ldr	r3, [r4, #8]
 382              	.LBE135:
 383              	.LBE134:
 384              		.loc 1 237 0
 385 0022 2046     		mov	r0, r4
 386 0024 2946     		mov	r1, r5
 387              		.loc 1 236 0
 388 0026 002B     		cmp	r3, #0
 389 0028 F7D0     		beq	.L29
 390              	.LVL28:
 391              		.loc 1 244 0
 392 002a A269     		ldr	r2, [r4, #24]
 393              		.loc 1 243 0
 394 002c A368     		ldr	r3, [r4, #8]
 395              		.loc 1 244 0
 396 002e 511C     		adds	r1, r2, #1
 397              	.LVL29:
 398              		.loc 1 243 0
 399 0030 013B     		subs	r3, r3, #1
ARM GAS  /tmp/ccRW1Fmz.s 			page 8


 400              		.loc 1 244 0
 401 0032 A161     		str	r1, [r4, #24]
 402              		.loc 1 243 0
 403 0034 A360     		str	r3, [r4, #8]
 404              		.loc 1 244 0
 405 0036 1378     		ldrb	r3, [r2]	@ zero_extendqisi2
 406 0038 08F8013B 		strb	r3, [r8], #1
 407              	.LVL30:
 408              		.loc 1 245 0
 409 003c 2369     		ldr	r3, [r4, #16]
 410 003e A269     		ldr	r2, [r4, #24]
 411 0040 9A42     		cmp	r2, r3
 412              		.loc 1 246 0
 413 0042 24BF     		itt	cs
 414 0044 E368     		ldrcs	r3, [r4, #12]
 415 0046 A361     		strcs	r3, [r4, #24]
 416              	.LBB136:
 417              	.LBB137:
 418              	.LBB138:
 419              	.LBB139:
 420              	.LBB140:
 421              		.loc 4 331 0
 422              	@ 331 "ChibiOS_3.0.2/os/ext/CMSIS/include/core_cmFunc.h" 1
 423 0048 62B6     		cpsie i
 424              	@ 0 "" 2
 425              		.thumb
 426              	.LBE140:
 427              	.LBE139:
 428              	.LBE138:
 429              	.LBE137:
 430              	.LBE136:
 431              		.loc 1 250 0
 432 004a 0136     		adds	r6, r6, #1
 433              	.LVL31:
 434              		.loc 1 251 0
 435 004c B145     		cmp	r9, r6
 436 004e 02D0     		beq	.L28
 437              	.LBB141:
 438              	.LBB142:
 439              	.LBB143:
 440              	.LBB144:
 441              		.loc 4 342 0
 442              	@ 342 "ChibiOS_3.0.2/os/ext/CMSIS/include/core_cmFunc.h" 1
 443 0050 72B6     		cpsid i
 444              	@ 0 "" 2
 445              		.thumb
 446 0052 DEE7     		b	.L31
 447              	.LVL32:
 448              	.L38:
 449              	.LBE144:
 450              	.LBE143:
 451              	.LBE142:
 452              	.LBE141:
 453              	.LBB145:
 454              	.LBB146:
 455              	.LBB147:
 456              	.LBB148:
ARM GAS  /tmp/ccRW1Fmz.s 			page 9


 457              	.LBB149:
 458              		.loc 4 331 0
 459              	@ 331 "ChibiOS_3.0.2/os/ext/CMSIS/include/core_cmFunc.h" 1
 460 0054 62B6     		cpsie i
 461              	@ 0 "" 2
 462              	.LVL33:
 463              		.thumb
 464              	.L28:
 465              	.LBE149:
 466              	.LBE148:
 467              	.LBE147:
 468              	.LBE146:
 469              	.LBE145:
 470              		.loc 1 257 0
 471 0056 3046     		mov	r0, r6
 472 0058 BDE8F883 		pop	{r3, r4, r5, r6, r7, r8, r9, pc}
 473              		.cfi_endproc
 474              	.LFE223:
 475              		.size	chIQReadTimeout, .-chIQReadTimeout
 476              		.section	.text.chOQObjectInit,"ax",%progbits
 477              		.align	2
 478              		.p2align 4,,15
 479              		.global	chOQObjectInit
 480              		.thumb
 481              		.thumb_func
 482              		.type	chOQObjectInit, %function
 483              	chOQObjectInit:
 484              	.LFB224:
 485              		.loc 1 276 0
 486              		.cfi_startproc
 487              		@ args = 4, pretend = 0, frame = 0
 488              		@ frame_needed = 0, uses_anonymous_args = 0
 489              		@ link register save eliminated.
 490              	.LVL34:
 491 0000 30B4     		push	{r4, r5}
 492              		.cfi_def_cfa_offset 8
 493              		.cfi_offset 4, -8
 494              		.cfi_offset 5, -4
 495              		.loc 1 276 0
 496 0002 029C     		ldr	r4, [sp, #8]
 497              		.loc 1 285 0
 498 0004 0462     		str	r4, [r0, #32]
 499              		.loc 1 283 0
 500 0006 8D18     		adds	r5, r1, r2
 501 0008 0561     		str	r5, [r0, #16]
 502              	.LBB150:
 503              	.LBB151:
 504              	.LBB152:
 505              		.loc 2 604 0
 506 000a 0060     		str	r0, [r0]
 507              		.loc 2 605 0
 508 000c 4060     		str	r0, [r0, #4]
 509              	.LBE152:
 510              	.LBE151:
 511              	.LBE150:
 512              		.loc 1 279 0
 513 000e 8260     		str	r2, [r0, #8]
ARM GAS  /tmp/ccRW1Fmz.s 			page 10


 514              		.loc 1 280 0
 515 0010 C160     		str	r1, [r0, #12]
 516              		.loc 1 281 0
 517 0012 8161     		str	r1, [r0, #24]
 518              		.loc 1 282 0
 519 0014 4161     		str	r1, [r0, #20]
 520              		.loc 1 284 0
 521 0016 C361     		str	r3, [r0, #28]
 522              		.loc 1 286 0
 523 0018 30BC     		pop	{r4, r5}
 524              		.cfi_restore 5
 525              		.cfi_restore 4
 526              		.cfi_def_cfa_offset 0
 527              	.LVL35:
 528 001a 7047     		bx	lr
 529              		.cfi_endproc
 530              	.LFE224:
 531              		.size	chOQObjectInit, .-chOQObjectInit
 532              		.section	.text.chOQResetI,"ax",%progbits
 533              		.align	2
 534              		.p2align 4,,15
 535              		.global	chOQResetI
 536              		.thumb
 537              		.thumb_func
 538              		.type	chOQResetI, %function
 539              	chOQResetI:
 540              	.LFB225:
 541              		.loc 1 299 0
 542              		.cfi_startproc
 543              		@ args = 0, pretend = 0, frame = 0
 544              		@ frame_needed = 0, uses_anonymous_args = 0
 545              		@ link register save eliminated.
 546              	.LVL36:
 547 0000 10B4     		push	{r4}
 548              		.cfi_def_cfa_offset 4
 549              		.cfi_offset 4, -4
 550              		.loc 1 305 0
 551 0002 0269     		ldr	r2, [r0, #16]
 552              		.loc 1 303 0
 553 0004 C468     		ldr	r4, [r0, #12]
 554 0006 8461     		str	r4, [r0, #24]
 555              		.loc 1 305 0
 556 0008 121B     		subs	r2, r2, r4
 557              		.loc 1 304 0
 558 000a 4461     		str	r4, [r0, #20]
 559              		.loc 1 306 0
 560 000c 6FF00101 		mvn	r1, #1
 561              		.loc 1 305 0
 562 0010 8260     		str	r2, [r0, #8]
 563              		.loc 1 307 0
 564 0012 5DF8044B 		ldr	r4, [sp], #4
 565              		.cfi_restore 4
 566              		.cfi_def_cfa_offset 0
 567              		.loc 1 306 0
 568 0016 FFF7FEBF 		b	chThdDequeueAllI
 569              	.LVL37:
 570              		.cfi_endproc
ARM GAS  /tmp/ccRW1Fmz.s 			page 11


 571              	.LFE225:
 572              		.size	chOQResetI, .-chOQResetI
 573 001a 00BF     		.section	.text.chOQPutTimeout,"ax",%progbits
 574              		.align	2
 575              		.p2align 4,,15
 576              		.global	chOQPutTimeout
 577              		.thumb
 578              		.thumb_func
 579              		.type	chOQPutTimeout, %function
 580              	chOQPutTimeout:
 581              	.LFB226:
 582              		.loc 1 331 0
 583              		.cfi_startproc
 584              		@ args = 0, pretend = 0, frame = 0
 585              		@ frame_needed = 0, uses_anonymous_args = 0
 586              	.LVL38:
 587 0000 70B5     		push	{r4, r5, r6, lr}
 588              		.cfi_def_cfa_offset 16
 589              		.cfi_offset 4, -16
 590              		.cfi_offset 5, -12
 591              		.cfi_offset 6, -8
 592              		.cfi_offset 14, -4
 593              		.loc 1 331 0
 594 0002 0446     		mov	r4, r0
 595 0004 0E46     		mov	r6, r1
 596 0006 1546     		mov	r5, r2
 597              	.LBB153:
 598              	.LBB154:
 599              	.LBB155:
 600              	.LBB156:
 601              		.loc 4 342 0
 602              	@ 342 "ChibiOS_3.0.2/os/ext/CMSIS/include/core_cmFunc.h" 1
 603 0008 72B6     		cpsid i
 604              	@ 0 "" 2
 605              		.thumb
 606 000a 03E0     		b	.L44
 607              	.LVL39:
 608              	.L46:
 609              	.LBE156:
 610              	.LBE155:
 611              	.LBE154:
 612              	.LBE153:
 613              	.LBB157:
 614              		.loc 1 335 0
 615 000c FFF7FEFF 		bl	chThdEnqueueTimeoutS
 616              	.LVL40:
 617              		.loc 1 336 0
 618 0010 0028     		cmp	r0, #0
 619 0012 18DB     		blt	.L54
 620              	.LVL41:
 621              	.L44:
 622              	.LBE157:
 623              	.LBB163:
 624              	.LBB164:
 625              		.loc 3 407 0
 626 0014 A368     		ldr	r3, [r4, #8]
 627              	.LBE164:
ARM GAS  /tmp/ccRW1Fmz.s 			page 12


 628              	.LBE163:
 629              	.LBB165:
 630              		.loc 1 335 0
 631 0016 2046     		mov	r0, r4
 632 0018 2946     		mov	r1, r5
 633              	.LBE165:
 634              		.loc 1 334 0
 635 001a 002B     		cmp	r3, #0
 636 001c F6D0     		beq	.L46
 637              	.LVL42:
 638              		.loc 1 343 0
 639 001e 6269     		ldr	r2, [r4, #20]
 640              		.loc 1 342 0
 641 0020 A368     		ldr	r3, [r4, #8]
 642              		.loc 1 343 0
 643 0022 511C     		adds	r1, r2, #1
 644              	.LVL43:
 645              		.loc 1 342 0
 646 0024 013B     		subs	r3, r3, #1
 647              		.loc 1 343 0
 648 0026 6161     		str	r1, [r4, #20]
 649              		.loc 1 342 0
 650 0028 A360     		str	r3, [r4, #8]
 651              		.loc 1 343 0
 652 002a 1670     		strb	r6, [r2]
 653              		.loc 1 344 0
 654 002c 2369     		ldr	r3, [r4, #16]
 655 002e 6269     		ldr	r2, [r4, #20]
 656 0030 9A42     		cmp	r2, r3
 657              		.loc 1 345 0
 658 0032 24BF     		itt	cs
 659 0034 E368     		ldrcs	r3, [r4, #12]
 660 0036 6361     		strcs	r3, [r4, #20]
 661              		.loc 1 348 0
 662 0038 E369     		ldr	r3, [r4, #28]
 663 003a 0BB1     		cbz	r3, .L48
 664              		.loc 1 349 0
 665 003c 2046     		mov	r0, r4
 666              	.LVL44:
 667 003e 9847     		blx	r3
 668              	.LVL45:
 669              	.L48:
 670              	.LBB166:
 671              	.LBB167:
 672              	.LBB168:
 673              	.LBB169:
 674              	.LBB170:
 675              		.loc 4 331 0
 676              	@ 331 "ChibiOS_3.0.2/os/ext/CMSIS/include/core_cmFunc.h" 1
 677 0040 62B6     		cpsie i
 678              	@ 0 "" 2
 679              		.thumb
 680              	.LBE170:
 681              	.LBE169:
 682              	.LBE168:
 683              	.LBE167:
 684              	.LBE166:
ARM GAS  /tmp/ccRW1Fmz.s 			page 13


 685              		.loc 1 353 0
 686 0042 0020     		movs	r0, #0
 687              		.loc 1 354 0
 688 0044 70BD     		pop	{r4, r5, r6, pc}
 689              	.LVL46:
 690              	.L54:
 691              	.LBB171:
 692              	.LBB158:
 693              	.LBB159:
 694              	.LBB160:
 695              	.LBB161:
 696              	.LBB162:
 697              		.loc 4 331 0
 698              	@ 331 "ChibiOS_3.0.2/os/ext/CMSIS/include/core_cmFunc.h" 1
 699 0046 62B6     		cpsie i
 700              	@ 0 "" 2
 701              		.thumb
 702              	.LBE162:
 703              	.LBE161:
 704              	.LBE160:
 705              	.LBE159:
 706              	.LBE158:
 707              		.loc 1 338 0
 708 0048 70BD     		pop	{r4, r5, r6, pc}
 709              	.LBE171:
 710              		.cfi_endproc
 711              	.LFE226:
 712              		.size	chOQPutTimeout, .-chOQPutTimeout
 713 004a 00BF     		.section	.text.chOQGetI,"ax",%progbits
 714              		.align	2
 715              		.p2align 4,,15
 716              		.global	chOQGetI
 717              		.thumb
 718              		.thumb_func
 719              		.type	chOQGetI, %function
 720              	chOQGetI:
 721              	.LFB227:
 722              		.loc 1 366 0
 723              		.cfi_startproc
 724              		@ args = 0, pretend = 0, frame = 0
 725              		@ frame_needed = 0, uses_anonymous_args = 0
 726              	.LVL47:
 727 0000 38B5     		push	{r3, r4, r5, lr}
 728              		.cfi_def_cfa_offset 16
 729              		.cfi_offset 3, -16
 730              		.cfi_offset 4, -12
 731              		.cfi_offset 5, -8
 732              		.cfi_offset 14, -4
 733              	.LBB172:
 734              	.LBB173:
 735              		.loc 3 390 0
 736 0002 4269     		ldr	r2, [r0, #20]
 737 0004 8369     		ldr	r3, [r0, #24]
 738 0006 9A42     		cmp	r2, r3
 739 0008 0FD0     		beq	.L63
 740              	.L56:
 741              	.LBE173:
ARM GAS  /tmp/ccRW1Fmz.s 			page 14


 742              	.LBE172:
 743              		.loc 1 375 0
 744 000a 8268     		ldr	r2, [r0, #8]
 745              		.loc 1 377 0
 746 000c 0569     		ldr	r5, [r0, #16]
 747              		.loc 1 376 0
 748 000e 591C     		adds	r1, r3, #1
 749              		.loc 1 375 0
 750 0010 0132     		adds	r2, r2, #1
 751 0012 8260     		str	r2, [r0, #8]
 752              		.loc 1 376 0
 753 0014 8161     		str	r1, [r0, #24]
 754              		.loc 1 377 0
 755 0016 A942     		cmp	r1, r5
 756              		.loc 1 376 0
 757 0018 1C78     		ldrb	r4, [r3]	@ zero_extendqisi2
 758              	.LVL48:
 759              		.loc 1 377 0
 760 001a 01D3     		bcc	.L59
 761              		.loc 1 378 0
 762 001c C368     		ldr	r3, [r0, #12]
 763 001e 8361     		str	r3, [r0, #24]
 764              	.L59:
 765              		.loc 1 381 0
 766 0020 0021     		movs	r1, #0
 767 0022 FFF7FEFF 		bl	chThdDequeueNextI
 768              	.LVL49:
 769              		.loc 1 383 0
 770 0026 2046     		mov	r0, r4
 771 0028 38BD     		pop	{r3, r4, r5, pc}
 772              	.LVL50:
 773              	.L63:
 774              	.LBB175:
 775              	.LBB174:
 776              		.loc 3 390 0
 777 002a 8268     		ldr	r2, [r0, #8]
 778 002c 002A     		cmp	r2, #0
 779 002e ECD0     		beq	.L56
 780              	.LBE174:
 781              	.LBE175:
 782              		.loc 1 372 0
 783 0030 6FF00200 		mvn	r0, #2
 784              	.LVL51:
 785 0034 38BD     		pop	{r3, r4, r5, pc}
 786              		.cfi_endproc
 787              	.LFE227:
 788              		.size	chOQGetI, .-chOQGetI
 789 0036 00BF     		.section	.text.chOQWriteTimeout,"ax",%progbits
 790              		.align	2
 791              		.p2align 4,,15
 792              		.global	chOQWriteTimeout
 793              		.thumb
 794              		.thumb_func
 795              		.type	chOQWriteTimeout, %function
 796              	chOQWriteTimeout:
 797              	.LFB228:
 798              		.loc 1 411 0
ARM GAS  /tmp/ccRW1Fmz.s 			page 15


 799              		.cfi_startproc
 800              		@ args = 0, pretend = 0, frame = 0
 801              		@ frame_needed = 0, uses_anonymous_args = 0
 802              	.LVL52:
 803 0000 2DE9F047 		push	{r4, r5, r6, r7, r8, r9, r10, lr}
 804              		.cfi_def_cfa_offset 32
 805              		.cfi_offset 4, -32
 806              		.cfi_offset 5, -28
 807              		.cfi_offset 6, -24
 808              		.cfi_offset 7, -20
 809              		.cfi_offset 8, -16
 810              		.cfi_offset 9, -12
 811              		.cfi_offset 10, -8
 812              		.cfi_offset 14, -4
 813              		.loc 1 411 0
 814 0004 0446     		mov	r4, r0
 815 0006 0D46     		mov	r5, r1
 816 0008 1646     		mov	r6, r2
 817 000a 9946     		mov	r9, r3
 818              		.loc 1 412 0
 819 000c D0F81C80 		ldr	r8, [r0, #28]
 820              	.LVL53:
 821              	.LBB176:
 822              	.LBB177:
 823              	.LBB178:
 824              	.LBB179:
 825              		.loc 4 342 0
 826              	@ 342 "ChibiOS_3.0.2/os/ext/CMSIS/include/core_cmFunc.h" 1
 827 0010 72B6     		cpsid i
 828              	@ 0 "" 2
 829              		.thumb
 830              	.LBE179:
 831              	.LBE178:
 832              	.LBE177:
 833              	.LBE176:
 834              		.loc 1 413 0
 835 0012 0027     		movs	r7, #0
 836              	.LVL54:
 837              	.L65:
 838              	.LBB180:
 839              	.LBB181:
 840              		.loc 3 407 0
 841 0014 A368     		ldr	r3, [r4, #8]
 842              	.LBE181:
 843              	.LBE180:
 844              		.loc 1 427 0
 845 0016 05F1010A 		add	r10, r5, #1
 846              	.LVL55:
 847              		.loc 1 433 0
 848 001a 2046     		mov	r0, r4
 849              		.loc 1 419 0
 850 001c F3B1     		cbz	r3, .L68
 851              	.LVL56:
 852              	.L81:
 853              		.loc 1 427 0
 854 001e 6269     		ldr	r2, [r4, #20]
 855              		.loc 1 426 0
ARM GAS  /tmp/ccRW1Fmz.s 			page 16


 856 0020 A368     		ldr	r3, [r4, #8]
 857              		.loc 1 427 0
 858 0022 511C     		adds	r1, r2, #1
 859              		.loc 1 426 0
 860 0024 013B     		subs	r3, r3, #1
 861              		.loc 1 427 0
 862 0026 6161     		str	r1, [r4, #20]
 863              		.loc 1 426 0
 864 0028 A360     		str	r3, [r4, #8]
 865              		.loc 1 427 0
 866 002a 2B78     		ldrb	r3, [r5]	@ zero_extendqisi2
 867 002c 1370     		strb	r3, [r2]
 868              		.loc 1 428 0
 869 002e 2369     		ldr	r3, [r4, #16]
 870 0030 6269     		ldr	r2, [r4, #20]
 871 0032 9A42     		cmp	r2, r3
 872              		.loc 1 429 0
 873 0034 24BF     		itt	cs
 874 0036 E368     		ldrcs	r3, [r4, #12]
 875 0038 6361     		strcs	r3, [r4, #20]
 876              		.loc 1 432 0
 877 003a B8F1000F 		cmp	r8, #0
 878 003e 00D0     		beq	.L70
 879              		.loc 1 433 0
 880 0040 C047     		blx	r8
 881              	.LVL57:
 882              	.L70:
 883              	.LBB183:
 884              	.LBB184:
 885              	.LBB185:
 886              	.LBB186:
 887              	.LBB187:
 888              		.loc 4 331 0
 889              	@ 331 "ChibiOS_3.0.2/os/ext/CMSIS/include/core_cmFunc.h" 1
 890 0042 62B6     		cpsie i
 891              	@ 0 "" 2
 892              		.thumb
 893              	.LBE187:
 894              	.LBE186:
 895              	.LBE185:
 896              	.LBE184:
 897              	.LBE183:
 898              		.loc 1 438 0
 899 0044 013E     		subs	r6, r6, #1
 900              	.LVL58:
 901              		.loc 1 437 0
 902 0046 07F10107 		add	r7, r7, #1
 903              	.LVL59:
 904              		.loc 1 438 0
 905 004a 0ED0     		beq	.L67
 906              	.LBB188:
 907              	.LBB189:
 908              	.LBB190:
 909              	.LBB191:
 910              		.loc 4 342 0
 911              	@ 342 "ChibiOS_3.0.2/os/ext/CMSIS/include/core_cmFunc.h" 1
 912 004c 72B6     		cpsid i
ARM GAS  /tmp/ccRW1Fmz.s 			page 17


 913              	@ 0 "" 2
 914              		.thumb
 915              	.LBE191:
 916              	.LBE190:
 917              	.LBE189:
 918              	.LBE188:
 919              	.LBB192:
 920              	.LBB182:
 921              		.loc 3 407 0
 922 004e A368     		ldr	r3, [r4, #8]
 923              	.LBE182:
 924              	.LBE192:
 925              		.loc 1 427 0
 926 0050 5546     		mov	r5, r10
 927              	.LVL60:
 928 0052 05F1010A 		add	r10, r5, #1
 929              	.LVL61:
 930              		.loc 1 433 0
 931 0056 2046     		mov	r0, r4
 932              		.loc 1 419 0
 933 0058 002B     		cmp	r3, #0
 934 005a E0D1     		bne	.L81
 935              	.LVL62:
 936              	.L68:
 937              		.loc 1 420 0
 938 005c 2046     		mov	r0, r4
 939              	.LVL63:
 940 005e 4946     		mov	r1, r9
 941 0060 FFF7FEFF 		bl	chThdEnqueueTimeoutS
 942              	.LVL64:
 943 0064 0028     		cmp	r0, #0
 944 0066 D5D0     		beq	.L65
 945              	.LBB193:
 946              	.LBB194:
 947              	.LBB195:
 948              	.LBB196:
 949              	.LBB197:
 950              		.loc 4 331 0
 951              	@ 331 "ChibiOS_3.0.2/os/ext/CMSIS/include/core_cmFunc.h" 1
 952 0068 62B6     		cpsie i
 953              	@ 0 "" 2
 954              	.LVL65:
 955              		.thumb
 956              	.L67:
 957              	.LBE197:
 958              	.LBE196:
 959              	.LBE195:
 960              	.LBE194:
 961              	.LBE193:
 962              		.loc 1 443 0
 963 006a 3846     		mov	r0, r7
 964 006c BDE8F087 		pop	{r4, r5, r6, r7, r8, r9, r10, pc}
 965              		.cfi_endproc
 966              	.LFE228:
 967              		.size	chOQWriteTimeout, .-chOQWriteTimeout
 968              		.text
 969              	.Letext0:
ARM GAS  /tmp/ccRW1Fmz.s 			page 18


 970              		.file 5 "/usr/lib/gcc/arm-none-eabi/4.9.3/include/stddef.h"
 971              		.file 6 "/usr/arm-none-eabi/include/machine/_default_types.h"
 972              		.file 7 "/usr/arm-none-eabi/include/sys/_stdint.h"
 973              		.file 8 "ChibiOS_3.0.2/os/rt/ports/ARMCMx/compilers/GCC/chtypes.h"
 974              		.file 9 "ChibiOS_3.0.2/os/rt/include/chsystypes.h"
 975              		.file 10 "ChibiOS_3.0.2/os/rt/ports/ARMCMx/chcore.h"
 976              		.file 11 "ChibiOS_3.0.2/os/rt/ports/ARMCMx/chcore_v7m.h"
 977              		.file 12 "ChibiOS_3.0.2/os/rt/include/chtm.h"
 978              		.file 13 "ChibiOS_3.0.2/os/rt/include/chsem.h"
 979              		.file 14 "ChibiOS_3.0.2/os/rt/include/chmtx.h"
 980              		.file 15 "ChibiOS_3.0.2/os/rt/include/chthreads.h"
 981              		.file 16 "ChibiOS_3.0.2/os/rt/include/chsys.h"
 982              		.file 17 "ChibiOS_3.0.2/os/ext/CMSIS/include/core_cm4.h"