ARM GAS  /tmp/ccqBOWUw.s 			page 1


   1              		.syntax unified
   2              		.cpu cortex-m4
   3              		.eabi_attribute 27, 1
   4              		.eabi_attribute 28, 1
   5              		.fpu fpv4-sp-d16
   6              		.eabi_attribute 20, 1
   7              		.eabi_attribute 21, 1
   8              		.eabi_attribute 23, 3
   9              		.eabi_attribute 24, 1
  10              		.eabi_attribute 25, 1
  11              		.eabi_attribute 26, 1
  12              		.eabi_attribute 30, 2
  13              		.eabi_attribute 34, 1
  14              		.eabi_attribute 18, 4
  15              		.thumb
  16              		.file	"chsem.c"
  17              		.text
  18              	.Ltext0:
  19              		.cfi_sections	.debug_frame
  20              		.section	.text.chSemObjectInit,"ax",%progbits
  21              		.align	2
  22              		.p2align 4,,15
  23              		.global	chSemObjectInit
  24              		.thumb
  25              		.thumb_func
  26              		.type	chSemObjectInit, %function
  27              	chSemObjectInit:
  28              	.LFB219:
  29              		.file 1 "ChibiOS_3.0.2/os/rt/src/chsem.c"
  30              		.loc 1 97 0
  31              		.cfi_startproc
  32              		@ args = 0, pretend = 0, frame = 0
  33              		@ frame_needed = 0, uses_anonymous_args = 0
  34              		@ link register save eliminated.
  35              	.LVL0:
  36              	.LBB90:
  37              	.LBB91:
  38              		.file 2 "ChibiOS_3.0.2/os/rt/include/chschd.h"
  39              		.loc 2 604 0
  40 0000 0060     		str	r0, [r0]
  41              		.loc 2 605 0
  42 0002 4060     		str	r0, [r0, #4]
  43              	.LBE91:
  44              	.LBE90:
  45              		.loc 1 102 0
  46 0004 8160     		str	r1, [r0, #8]
  47 0006 7047     		bx	lr
  48              		.cfi_endproc
  49              	.LFE219:
  50              		.size	chSemObjectInit, .-chSemObjectInit
  51              		.section	.text.chSemResetI,"ax",%progbits
  52              		.align	2
  53              		.p2align 4,,15
  54              		.global	chSemResetI
  55              		.thumb
  56              		.thumb_func
  57              		.type	chSemResetI, %function
ARM GAS  /tmp/ccqBOWUw.s 			page 2


  58              	chSemResetI:
  59              	.LFB221:
  60              		.loc 1 147 0
  61              		.cfi_startproc
  62              		@ args = 0, pretend = 0, frame = 0
  63              		@ frame_needed = 0, uses_anonymous_args = 0
  64              	.LVL1:
  65 0000 70B5     		push	{r4, r5, r6, lr}
  66              		.cfi_def_cfa_offset 16
  67              		.cfi_offset 4, -16
  68              		.cfi_offset 5, -12
  69              		.cfi_offset 6, -8
  70              		.cfi_offset 14, -4
  71              		.loc 1 156 0
  72 0002 8568     		ldr	r5, [r0, #8]
  73              	.LVL2:
  74              		.loc 1 157 0
  75 0004 8160     		str	r1, [r0, #8]
  76              		.loc 1 158 0
  77 0006 0135     		adds	r5, r5, #1
  78              	.LVL3:
  79 0008 002D     		cmp	r5, #0
  80 000a 0CDC     		bgt	.L2
  81 000c 0446     		mov	r4, r0
  82              		.loc 1 159 0
  83 000e 6FF00106 		mvn	r6, #1
  84              	.LVL4:
  85              	.L4:
  86              	.LBB92:
  87              	.LBB93:
  88              		.loc 2 681 0
  89 0012 6068     		ldr	r0, [r4, #4]
  90              	.LVL5:
  91              		.loc 2 683 0
  92 0014 4368     		ldr	r3, [r0, #4]
  93 0016 6360     		str	r3, [r4, #4]
  94              		.loc 2 684 0
  95 0018 1C60     		str	r4, [r3]
  96              	.LBE93:
  97              	.LBE92:
  98              		.loc 1 159 0
  99 001a FFF7FEFF 		bl	chSchReadyI
 100              	.LVL6:
 101              		.loc 1 158 0
 102 001e 0135     		adds	r5, r5, #1
 103              	.LVL7:
 104 0020 012D     		cmp	r5, #1
 105              		.loc 1 159 0
 106 0022 4662     		str	r6, [r0, #36]
 107              	.LVL8:
 108              		.loc 1 158 0
 109 0024 F5D1     		bne	.L4
 110              	.LVL9:
 111              	.L2:
 112 0026 70BD     		pop	{r4, r5, r6, pc}
 113              		.cfi_endproc
 114              	.LFE221:
ARM GAS  /tmp/ccqBOWUw.s 			page 3


 115              		.size	chSemResetI, .-chSemResetI
 116              		.section	.text.chSemReset,"ax",%progbits
 117              		.align	2
 118              		.p2align 4,,15
 119              		.global	chSemReset
 120              		.thumb
 121              		.thumb_func
 122              		.type	chSemReset, %function
 123              	chSemReset:
 124              	.LFB220:
 125              		.loc 1 120 0
 126              		.cfi_startproc
 127              		@ args = 0, pretend = 0, frame = 0
 128              		@ frame_needed = 0, uses_anonymous_args = 0
 129              	.LVL10:
 130 0000 08B5     		push	{r3, lr}
 131              		.cfi_def_cfa_offset 8
 132              		.cfi_offset 3, -8
 133              		.cfi_offset 14, -4
 134              	.LBB94:
 135              	.LBB95:
 136              	.LBB96:
 137              	.LBB97:
 138              		.file 3 "ChibiOS_3.0.2/os/ext/CMSIS/include/core_cmFunc.h"
 139              		.loc 3 342 0
 140              	@ 342 "ChibiOS_3.0.2/os/ext/CMSIS/include/core_cmFunc.h" 1
 141 0002 72B6     		cpsid i
 142              	@ 0 "" 2
 143              		.thumb
 144              	.LBE97:
 145              	.LBE96:
 146              	.LBE95:
 147              	.LBE94:
 148              		.loc 1 123 0
 149 0004 FFF7FEFF 		bl	chSemResetI
 150              	.LVL11:
 151              		.loc 1 124 0
 152 0008 FFF7FEFF 		bl	chSchRescheduleS
 153              	.LVL12:
 154              	.LBB98:
 155              	.LBB99:
 156              	.LBB100:
 157              	.LBB101:
 158              	.LBB102:
 159              		.loc 3 331 0
 160              	@ 331 "ChibiOS_3.0.2/os/ext/CMSIS/include/core_cmFunc.h" 1
 161 000c 62B6     		cpsie i
 162              	@ 0 "" 2
 163              		.thumb
 164 000e 08BD     		pop	{r3, pc}
 165              	.LBE102:
 166              	.LBE101:
 167              	.LBE100:
 168              	.LBE99:
 169              	.LBE98:
 170              		.cfi_endproc
 171              	.LFE220:
ARM GAS  /tmp/ccqBOWUw.s 			page 4


 172              		.size	chSemReset, .-chSemReset
 173              		.section	.text.chSemWait,"ax",%progbits
 174              		.align	2
 175              		.p2align 4,,15
 176              		.global	chSemWait
 177              		.thumb
 178              		.thumb_func
 179              		.type	chSemWait, %function
 180              	chSemWait:
 181              	.LFB222:
 182              		.loc 1 175 0
 183              		.cfi_startproc
 184              		@ args = 0, pretend = 0, frame = 0
 185              		@ frame_needed = 0, uses_anonymous_args = 0
 186              	.LVL13:
 187              	.LBB118:
 188              	.LBB119:
 189              	.LBB120:
 190              	.LBB121:
 191              		.loc 3 342 0
 192              	@ 342 "ChibiOS_3.0.2/os/ext/CMSIS/include/core_cmFunc.h" 1
 193 0000 72B6     		cpsid i
 194              	@ 0 "" 2
 195              	.LVL14:
 196              		.thumb
 197              	.LBE121:
 198              	.LBE120:
 199              	.LBE119:
 200              	.LBE118:
 201              	.LBB122:
 202              	.LBB123:
 203              		.loc 1 205 0
 204 0002 8368     		ldr	r3, [r0, #8]
 205 0004 013B     		subs	r3, r3, #1
 206 0006 002B     		cmp	r3, #0
 207 0008 8360     		str	r3, [r0, #8]
 208 000a 02DB     		blt	.L16
 209              		.loc 1 213 0
 210 000c 0020     		movs	r0, #0
 211              	.LVL15:
 212              	.LBE123:
 213              	.LBE122:
 214              	.LBB131:
 215              	.LBB132:
 216              	.LBB133:
 217              	.LBB134:
 218              	.LBB135:
 219              		.loc 3 331 0
 220              	@ 331 "ChibiOS_3.0.2/os/ext/CMSIS/include/core_cmFunc.h" 1
 221 000e 62B6     		cpsie i
 222              	@ 0 "" 2
 223              		.thumb
 224              	.LBE135:
 225              	.LBE134:
 226              	.LBE133:
 227              	.LBE132:
 228              	.LBE131:
ARM GAS  /tmp/ccqBOWUw.s 			page 5


 229              		.loc 1 183 0
 230 0010 7047     		bx	lr
 231              	.LVL16:
 232              	.L16:
 233              		.loc 1 175 0
 234 0012 10B5     		push	{r4, lr}
 235              		.cfi_def_cfa_offset 8
 236              		.cfi_offset 4, -8
 237              		.cfi_offset 14, -4
 238              	.LBB140:
 239              	.LBB130:
 240              	.LBB124:
 241              	.LBB125:
 242              		.loc 1 206 0
 243 0014 074C     		ldr	r4, .L17
 244 0016 A269     		ldr	r2, [r4, #24]
 245 0018 5062     		str	r0, [r2, #36]
 246              	.LBB126:
 247              	.LBB127:
 248              		.loc 2 666 0
 249 001a 4168     		ldr	r1, [r0, #4]
 250 001c 5160     		str	r1, [r2, #4]
 251 001e 0346     		mov	r3, r0
 252              	.LVL17:
 253              		.loc 2 665 0
 254 0020 1060     		str	r0, [r2]
 255              		.loc 2 667 0
 256 0022 0A60     		str	r2, [r1]
 257              	.LBE127:
 258              	.LBE126:
 259              		.loc 1 208 0
 260 0024 0520     		movs	r0, #5
 261              	.LVL18:
 262              	.LBB129:
 263              	.LBB128:
 264              		.loc 2 668 0
 265 0026 5A60     		str	r2, [r3, #4]
 266              	.LBE128:
 267              	.LBE129:
 268              		.loc 1 208 0
 269 0028 FFF7FEFF 		bl	chSchGoSleepS
 270              	.LVL19:
 271              		.loc 1 210 0
 272 002c A369     		ldr	r3, [r4, #24]
 273 002e 586A     		ldr	r0, [r3, #36]
 274              	.LBE125:
 275              	.LBE124:
 276              	.LBE130:
 277              	.LBE140:
 278              	.LBB141:
 279              	.LBB139:
 280              	.LBB138:
 281              	.LBB137:
 282              	.LBB136:
 283              		.loc 3 331 0
 284              	@ 331 "ChibiOS_3.0.2/os/ext/CMSIS/include/core_cmFunc.h" 1
 285 0030 62B6     		cpsie i
ARM GAS  /tmp/ccqBOWUw.s 			page 6


 286              	@ 0 "" 2
 287              		.thumb
 288              	.LBE136:
 289              	.LBE137:
 290              	.LBE138:
 291              	.LBE139:
 292              	.LBE141:
 293              		.loc 1 183 0
 294 0032 10BD     		pop	{r4, pc}
 295              	.L18:
 296              		.align	2
 297              	.L17:
 298 0034 00000000 		.word	ch
 299              		.cfi_endproc
 300              	.LFE222:
 301              		.size	chSemWait, .-chSemWait
 302              		.section	.text.chSemWaitS,"ax",%progbits
 303              		.align	2
 304              		.p2align 4,,15
 305              		.global	chSemWaitS
 306              		.thumb
 307              		.thumb_func
 308              		.type	chSemWaitS, %function
 309              	chSemWaitS:
 310              	.LFB223:
 311              		.loc 1 197 0
 312              		.cfi_startproc
 313              		@ args = 0, pretend = 0, frame = 0
 314              		@ frame_needed = 0, uses_anonymous_args = 0
 315              	.LVL20:
 316              		.loc 1 205 0
 317 0000 8368     		ldr	r3, [r0, #8]
 318 0002 013B     		subs	r3, r3, #1
 319 0004 002B     		cmp	r3, #0
 320 0006 8360     		str	r3, [r0, #8]
 321 0008 01DB     		blt	.L24
 322              		.loc 1 213 0
 323 000a 0020     		movs	r0, #0
 324              	.LVL21:
 325 000c 7047     		bx	lr
 326              	.LVL22:
 327              	.L24:
 328              		.loc 1 197 0
 329 000e 10B5     		push	{r4, lr}
 330              		.cfi_def_cfa_offset 8
 331              		.cfi_offset 4, -8
 332              		.cfi_offset 14, -4
 333              	.LBB146:
 334              	.LBB147:
 335              		.loc 1 206 0
 336 0010 074C     		ldr	r4, .L25
 337 0012 A269     		ldr	r2, [r4, #24]
 338 0014 5062     		str	r0, [r2, #36]
 339              	.LBB148:
 340              	.LBB149:
 341              		.loc 2 666 0
 342 0016 4168     		ldr	r1, [r0, #4]
ARM GAS  /tmp/ccqBOWUw.s 			page 7


 343 0018 5160     		str	r1, [r2, #4]
 344 001a 0346     		mov	r3, r0
 345              	.LVL23:
 346              		.loc 2 665 0
 347 001c 1060     		str	r0, [r2]
 348              		.loc 2 667 0
 349 001e 0A60     		str	r2, [r1]
 350              	.LBE149:
 351              	.LBE148:
 352              		.loc 1 208 0
 353 0020 0520     		movs	r0, #5
 354              	.LVL24:
 355              	.LBB151:
 356              	.LBB150:
 357              		.loc 2 668 0
 358 0022 5A60     		str	r2, [r3, #4]
 359              	.LBE150:
 360              	.LBE151:
 361              		.loc 1 208 0
 362 0024 FFF7FEFF 		bl	chSchGoSleepS
 363              	.LVL25:
 364              		.loc 1 210 0
 365 0028 A369     		ldr	r3, [r4, #24]
 366 002a 586A     		ldr	r0, [r3, #36]
 367 002c 10BD     		pop	{r4, pc}
 368              	.L26:
 369 002e 00BF     		.align	2
 370              	.L25:
 371 0030 00000000 		.word	ch
 372              	.LBE147:
 373              	.LBE146:
 374              		.cfi_endproc
 375              	.LFE223:
 376              		.size	chSemWaitS, .-chSemWaitS
 377              		.section	.text.chSemWaitTimeoutS,"ax",%progbits
 378              		.align	2
 379              		.p2align 4,,15
 380              		.global	chSemWaitTimeoutS
 381              		.thumb
 382              		.thumb_func
 383              		.type	chSemWaitTimeoutS, %function
 384              	chSemWaitTimeoutS:
 385              	.LFB225:
 386              		.loc 1 264 0
 387              		.cfi_startproc
 388              		@ args = 0, pretend = 0, frame = 0
 389              		@ frame_needed = 0, uses_anonymous_args = 0
 390              		@ link register save eliminated.
 391              	.LVL26:
 392 0000 0346     		mov	r3, r0
 393              		.loc 1 272 0
 394 0002 8068     		ldr	r0, [r0, #8]
 395              	.LVL27:
 396 0004 421E     		subs	r2, r0, #1
 397 0006 002A     		cmp	r2, #0
 398 0008 9A60     		str	r2, [r3, #8]
 399 000a 01DB     		blt	.L33
ARM GAS  /tmp/ccqBOWUw.s 			page 8


 400              		.loc 1 284 0
 401 000c 0020     		movs	r0, #0
 402 000e 7047     		bx	lr
 403              	.L33:
 404              		.loc 1 264 0
 405 0010 10B4     		push	{r4}
 406              		.cfi_def_cfa_offset 4
 407              		.cfi_offset 4, -4
 408              		.loc 1 273 0
 409 0012 61B1     		cbz	r1, .L34
 410              	.LVL28:
 411              	.LBB156:
 412              	.LBB157:
 413              		.loc 1 278 0
 414 0014 094A     		ldr	r2, .L35
 415 0016 9269     		ldr	r2, [r2, #24]
 416 0018 5362     		str	r3, [r2, #36]
 417              	.LVL29:
 418              	.LBB158:
 419              	.LBB159:
 420              		.loc 2 666 0
 421 001a 5C68     		ldr	r4, [r3, #4]
 422              	.LBE159:
 423              	.LBE158:
 424              		.loc 1 281 0
 425 001c 0520     		movs	r0, #5
 426              	.LBB161:
 427              	.LBB160:
 428              		.loc 2 666 0
 429 001e 82E81800 		stmia	r2, {r3, r4}
 430              		.loc 2 667 0
 431 0022 2260     		str	r2, [r4]
 432              		.loc 2 668 0
 433 0024 5A60     		str	r2, [r3, #4]
 434              	.LBE160:
 435              	.LBE161:
 436              	.LBE157:
 437              	.LBE156:
 438              		.loc 1 285 0
 439 0026 5DF8044B 		ldr	r4, [sp], #4
 440              		.cfi_remember_state
 441              		.cfi_restore 4
 442              		.cfi_def_cfa_offset 0
 443              	.LBB163:
 444              	.LBB162:
 445              		.loc 1 281 0
 446 002a FFF7FEBF 		b	chSchGoSleepTimeoutS
 447              	.LVL30:
 448              	.L34:
 449              		.cfi_restore_state
 450              	.LBE162:
 451              	.LBE163:
 452              		.loc 1 274 0
 453 002e 9860     		str	r0, [r3, #8]
 454              		.loc 1 285 0
 455 0030 5DF8044B 		ldr	r4, [sp], #4
 456              		.cfi_restore 4
ARM GAS  /tmp/ccqBOWUw.s 			page 9


 457              		.cfi_def_cfa_offset 0
 458              		.loc 1 276 0
 459 0034 4FF0FF30 		mov	r0, #-1
 460              		.loc 1 285 0
 461 0038 7047     		bx	lr
 462              	.L36:
 463 003a 00BF     		.align	2
 464              	.L35:
 465 003c 00000000 		.word	ch
 466              		.cfi_endproc
 467              	.LFE225:
 468              		.size	chSemWaitTimeoutS, .-chSemWaitTimeoutS
 469              		.section	.text.chSemWaitTimeout,"ax",%progbits
 470              		.align	2
 471              		.p2align 4,,15
 472              		.global	chSemWaitTimeout
 473              		.thumb
 474              		.thumb_func
 475              		.type	chSemWaitTimeout, %function
 476              	chSemWaitTimeout:
 477              	.LFB224:
 478              		.loc 1 235 0
 479              		.cfi_startproc
 480              		@ args = 0, pretend = 0, frame = 0
 481              		@ frame_needed = 0, uses_anonymous_args = 0
 482              	.LVL31:
 483 0000 08B5     		push	{r3, lr}
 484              		.cfi_def_cfa_offset 8
 485              		.cfi_offset 3, -8
 486              		.cfi_offset 14, -4
 487              	.LBB164:
 488              	.LBB165:
 489              	.LBB166:
 490              	.LBB167:
 491              		.loc 3 342 0
 492              	@ 342 "ChibiOS_3.0.2/os/ext/CMSIS/include/core_cmFunc.h" 1
 493 0002 72B6     		cpsid i
 494              	@ 0 "" 2
 495              		.thumb
 496              	.LBE167:
 497              	.LBE166:
 498              	.LBE165:
 499              	.LBE164:
 500              		.loc 1 239 0
 501 0004 FFF7FEFF 		bl	chSemWaitTimeoutS
 502              	.LVL32:
 503              	.LBB168:
 504              	.LBB169:
 505              	.LBB170:
 506              	.LBB171:
 507              	.LBB172:
 508              		.loc 3 331 0
 509              	@ 331 "ChibiOS_3.0.2/os/ext/CMSIS/include/core_cmFunc.h" 1
 510 0008 62B6     		cpsie i
 511              	@ 0 "" 2
 512              		.thumb
 513              	.LBE172:
ARM GAS  /tmp/ccqBOWUw.s 			page 10


 514              	.LBE171:
 515              	.LBE170:
 516              	.LBE169:
 517              	.LBE168:
 518              		.loc 1 243 0
 519 000a 08BD     		pop	{r3, pc}
 520              		.cfi_endproc
 521              	.LFE224:
 522              		.size	chSemWaitTimeout, .-chSemWaitTimeout
 523              		.section	.text.chSemSignal,"ax",%progbits
 524              		.align	2
 525              		.p2align 4,,15
 526              		.global	chSemSignal
 527              		.thumb
 528              		.thumb_func
 529              		.type	chSemSignal, %function
 530              	chSemSignal:
 531              	.LFB226:
 532              		.loc 1 294 0
 533              		.cfi_startproc
 534              		@ args = 0, pretend = 0, frame = 0
 535              		@ frame_needed = 0, uses_anonymous_args = 0
 536              	.LVL33:
 537 0000 08B5     		push	{r3, lr}
 538              		.cfi_def_cfa_offset 8
 539              		.cfi_offset 3, -8
 540              		.cfi_offset 14, -4
 541              	.LBB173:
 542              	.LBB174:
 543              	.LBB175:
 544              	.LBB176:
 545              		.loc 3 342 0
 546              	@ 342 "ChibiOS_3.0.2/os/ext/CMSIS/include/core_cmFunc.h" 1
 547 0002 72B6     		cpsid i
 548              	@ 0 "" 2
 549              		.thumb
 550              	.LBE176:
 551              	.LBE175:
 552              	.LBE174:
 553              	.LBE173:
 554              		.loc 1 302 0
 555 0004 8368     		ldr	r3, [r0, #8]
 556 0006 0133     		adds	r3, r3, #1
 557 0008 002B     		cmp	r3, #0
 558 000a 8360     		str	r3, [r0, #8]
 559 000c 01DD     		ble	.L42
 560              	.LBB177:
 561              	.LBB178:
 562              	.LBB179:
 563              	.LBB180:
 564              	.LBB181:
 565              		.loc 3 331 0
 566              	@ 331 "ChibiOS_3.0.2/os/ext/CMSIS/include/core_cmFunc.h" 1
 567 000e 62B6     		cpsie i
 568              	@ 0 "" 2
 569              		.thumb
 570 0010 08BD     		pop	{r3, pc}
ARM GAS  /tmp/ccqBOWUw.s 			page 11


 571              	.L42:
 572 0012 0346     		mov	r3, r0
 573              	.LVL34:
 574              	.LBE181:
 575              	.LBE180:
 576              	.LBE179:
 577              	.LBE178:
 578              	.LBE177:
 579              	.LBB186:
 580              	.LBB187:
 581              		.loc 2 672 0
 582 0014 0068     		ldr	r0, [r0]
 583              	.LVL35:
 584              		.loc 2 674 0
 585 0016 0268     		ldr	r2, [r0]
 586 0018 1A60     		str	r2, [r3]
 587              	.LBE187:
 588              	.LBE186:
 589              		.loc 1 303 0
 590 001a 0021     		movs	r1, #0
 591              	.LBB189:
 592              	.LBB188:
 593              		.loc 2 675 0
 594 001c 5360     		str	r3, [r2, #4]
 595              	.LBE188:
 596              	.LBE189:
 597              		.loc 1 303 0
 598 001e FFF7FEFF 		bl	chSchWakeupS
 599              	.LVL36:
 600              	.LBB190:
 601              	.LBB185:
 602              	.LBB184:
 603              	.LBB183:
 604              	.LBB182:
 605              		.loc 3 331 0
 606              	@ 331 "ChibiOS_3.0.2/os/ext/CMSIS/include/core_cmFunc.h" 1
 607 0022 62B6     		cpsie i
 608              	@ 0 "" 2
 609              		.thumb
 610 0024 08BD     		pop	{r3, pc}
 611              	.LBE182:
 612              	.LBE183:
 613              	.LBE184:
 614              	.LBE185:
 615              	.LBE190:
 616              		.cfi_endproc
 617              	.LFE226:
 618              		.size	chSemSignal, .-chSemSignal
 619 0026 00BF     		.section	.text.chSemSignalI,"ax",%progbits
 620              		.align	2
 621              		.p2align 4,,15
 622              		.global	chSemSignalI
 623              		.thumb
 624              		.thumb_func
 625              		.type	chSemSignalI, %function
 626              	chSemSignalI:
 627              	.LFB227:
ARM GAS  /tmp/ccqBOWUw.s 			page 12


 628              		.loc 1 319 0
 629              		.cfi_startproc
 630              		@ args = 0, pretend = 0, frame = 0
 631              		@ frame_needed = 0, uses_anonymous_args = 0
 632              		@ link register save eliminated.
 633              	.LVL37:
 634              		.loc 1 327 0
 635 0000 8368     		ldr	r3, [r0, #8]
 636 0002 0133     		adds	r3, r3, #1
 637 0004 002B     		cmp	r3, #0
 638 0006 8360     		str	r3, [r0, #8]
 639 0008 00DD     		ble	.L45
 640 000a 7047     		bx	lr
 641              	.L45:
 642              	.LVL38:
 643              	.LBB191:
 644              	.LBB192:
 645              	.LBB193:
 646              		.loc 2 672 0
 647 000c 0368     		ldr	r3, [r0]
 648              	.LVL39:
 649              		.loc 2 674 0
 650 000e 1A68     		ldr	r2, [r3]
 651 0010 0260     		str	r2, [r0]
 652              	.LBE193:
 653              	.LBE192:
 654              		.loc 1 331 0
 655 0012 0021     		movs	r1, #0
 656              	.LBB195:
 657              	.LBB194:
 658              		.loc 2 675 0
 659 0014 5060     		str	r0, [r2, #4]
 660              	.LBE194:
 661              	.LBE195:
 662              		.loc 1 332 0
 663 0016 1846     		mov	r0, r3
 664              	.LVL40:
 665              		.loc 1 331 0
 666 0018 5962     		str	r1, [r3, #36]
 667              		.loc 1 332 0
 668 001a FFF7FEBF 		b	chSchReadyI
 669              	.LVL41:
 670              	.LBE191:
 671              		.cfi_endproc
 672              	.LFE227:
 673              		.size	chSemSignalI, .-chSemSignalI
 674 001e 00BF     		.section	.text.chSemAddCounterI,"ax",%progbits
 675              		.align	2
 676              		.p2align 4,,15
 677              		.global	chSemAddCounterI
 678              		.thumb
 679              		.thumb_func
 680              		.type	chSemAddCounterI, %function
 681              	chSemAddCounterI:
 682              	.LFB228:
 683              		.loc 1 349 0
 684              		.cfi_startproc
ARM GAS  /tmp/ccqBOWUw.s 			page 13


 685              		@ args = 0, pretend = 0, frame = 0
 686              		@ frame_needed = 0, uses_anonymous_args = 0
 687              	.LVL42:
 688 0000 70B5     		push	{r4, r5, r6, lr}
 689              		.cfi_def_cfa_offset 16
 690              		.cfi_offset 4, -16
 691              		.cfi_offset 5, -12
 692              		.cfi_offset 6, -8
 693              		.cfi_offset 14, -4
 694              		.loc 1 357 0
 695 0002 0C1E     		subs	r4, r1, #0
 696 0004 12DD     		ble	.L46
 697 0006 0546     		mov	r5, r0
 698              		.loc 1 359 0
 699 0008 0026     		movs	r6, #0
 700 000a 01E0     		b	.L49
 701              	.LVL43:
 702              	.L48:
 703              		.loc 1 357 0
 704 000c 013C     		subs	r4, r4, #1
 705              	.LVL44:
 706 000e 0DD0     		beq	.L46
 707              	.LVL45:
 708              	.L49:
 709              		.loc 1 358 0
 710 0010 AB68     		ldr	r3, [r5, #8]
 711 0012 0133     		adds	r3, r3, #1
 712 0014 002B     		cmp	r3, #0
 713 0016 AB60     		str	r3, [r5, #8]
 714 0018 F8DC     		bgt	.L48
 715              	.LVL46:
 716              	.LBB196:
 717              	.LBB197:
 718              		.loc 2 672 0
 719 001a 2868     		ldr	r0, [r5]
 720              	.LVL47:
 721              		.loc 2 674 0
 722 001c 0368     		ldr	r3, [r0]
 723 001e 2B60     		str	r3, [r5]
 724              		.loc 2 675 0
 725 0020 5D60     		str	r5, [r3, #4]
 726              	.LBE197:
 727              	.LBE196:
 728              		.loc 1 359 0
 729 0022 FFF7FEFF 		bl	chSchReadyI
 730              	.LVL48:
 731              		.loc 1 357 0
 732 0026 013C     		subs	r4, r4, #1
 733              	.LVL49:
 734              		.loc 1 359 0
 735 0028 4662     		str	r6, [r0, #36]
 736              	.LVL50:
 737              		.loc 1 357 0
 738 002a F1D1     		bne	.L49
 739              	.LVL51:
 740              	.L46:
 741 002c 70BD     		pop	{r4, r5, r6, pc}
ARM GAS  /tmp/ccqBOWUw.s 			page 14


 742              		.cfi_endproc
 743              	.LFE228:
 744              		.size	chSemAddCounterI, .-chSemAddCounterI
 745 002e 00BF     		.section	.text.chSemSignalWait,"ax",%progbits
 746              		.align	2
 747              		.p2align 4,,15
 748              		.global	chSemSignalWait
 749              		.thumb
 750              		.thumb_func
 751              		.type	chSemSignalWait, %function
 752              	chSemSignalWait:
 753              	.LFB229:
 754              		.loc 1 378 0
 755              		.cfi_startproc
 756              		@ args = 0, pretend = 0, frame = 8
 757              		@ frame_needed = 0, uses_anonymous_args = 0
 758              	.LVL52:
 759 0000 10B5     		push	{r4, lr}
 760              		.cfi_def_cfa_offset 8
 761              		.cfi_offset 4, -8
 762              		.cfi_offset 14, -4
 763 0002 0246     		mov	r2, r0
 764 0004 82B0     		sub	sp, sp, #8
 765              		.cfi_def_cfa_offset 16
 766              	.LBB198:
 767              	.LBB199:
 768              	.LBB200:
 769              	.LBB201:
 770              		.loc 3 342 0
 771              	@ 342 "ChibiOS_3.0.2/os/ext/CMSIS/include/core_cmFunc.h" 1
 772 0006 72B6     		cpsid i
 773              	@ 0 "" 2
 774              		.thumb
 775              	.LBE201:
 776              	.LBE200:
 777              	.LBE199:
 778              	.LBE198:
 779              		.loc 1 390 0
 780 0008 8368     		ldr	r3, [r0, #8]
 781 000a 0133     		adds	r3, r3, #1
 782 000c 002B     		cmp	r3, #0
 783 000e 8360     		str	r3, [r0, #8]
 784 0010 19DD     		ble	.L58
 785              	.LVL53:
 786              	.L54:
 787              		.loc 1 393 0
 788 0012 8B68     		ldr	r3, [r1, #8]
 789 0014 013B     		subs	r3, r3, #1
 790 0016 002B     		cmp	r3, #0
 791 0018 8B60     		str	r3, [r1, #8]
 792 001a 05DB     		blt	.L59
 793              		.loc 1 401 0
 794 001c FFF7FEFF 		bl	chSchRescheduleS
 795              	.LVL54:
 796              		.loc 1 402 0
 797 0020 0020     		movs	r0, #0
 798              	.LVL55:
ARM GAS  /tmp/ccqBOWUw.s 			page 15


 799              	.LBB202:
 800              	.LBB203:
 801              	.LBB204:
 802              	.LBB205:
 803              	.LBB206:
 804              		.loc 3 331 0
 805              	@ 331 "ChibiOS_3.0.2/os/ext/CMSIS/include/core_cmFunc.h" 1
 806 0022 62B6     		cpsie i
 807              	@ 0 "" 2
 808              		.thumb
 809              	.LBE206:
 810              	.LBE205:
 811              	.LBE204:
 812              	.LBE203:
 813              	.LBE202:
 814              		.loc 1 407 0
 815 0024 02B0     		add	sp, sp, #8
 816              		.cfi_remember_state
 817              		.cfi_def_cfa_offset 8
 818              		@ sp needed
 819 0026 10BD     		pop	{r4, pc}
 820              	.LVL56:
 821              	.L59:
 822              		.cfi_restore_state
 823              	.LBB211:
 824              		.loc 1 394 0
 825 0028 0C4A     		ldr	r2, .L60
 826              	.LBB212:
 827              	.LBB213:
 828              		.loc 2 666 0
 829 002a 4B68     		ldr	r3, [r1, #4]
 830              	.LBE213:
 831              	.LBE212:
 832              		.loc 1 394 0
 833 002c 9469     		ldr	r4, [r2, #24]
 834              	.LVL57:
 835              		.loc 1 397 0
 836 002e 0520     		movs	r0, #5
 837              	.LBB215:
 838              	.LBB214:
 839              		.loc 2 666 0
 840 0030 84E80A00 		stmia	r4, {r1, r3}
 841              		.loc 2 667 0
 842 0034 1C60     		str	r4, [r3]
 843              		.loc 2 668 0
 844 0036 4C60     		str	r4, [r1, #4]
 845              	.LBE214:
 846              	.LBE215:
 847              		.loc 1 396 0
 848 0038 6162     		str	r1, [r4, #36]
 849              		.loc 1 397 0
 850 003a FFF7FEFF 		bl	chSchGoSleepS
 851              	.LVL58:
 852              		.loc 1 398 0
 853 003e 606A     		ldr	r0, [r4, #36]
 854              	.LVL59:
 855              	.LBE211:
ARM GAS  /tmp/ccqBOWUw.s 			page 16


 856              	.LBB216:
 857              	.LBB210:
 858              	.LBB209:
 859              	.LBB208:
 860              	.LBB207:
 861              		.loc 3 331 0
 862              	@ 331 "ChibiOS_3.0.2/os/ext/CMSIS/include/core_cmFunc.h" 1
 863 0040 62B6     		cpsie i
 864              	@ 0 "" 2
 865              		.thumb
 866              	.LBE207:
 867              	.LBE208:
 868              	.LBE209:
 869              	.LBE210:
 870              	.LBE216:
 871              		.loc 1 407 0
 872 0042 02B0     		add	sp, sp, #8
 873              		.cfi_remember_state
 874              		.cfi_def_cfa_offset 8
 875              		@ sp needed
 876 0044 10BD     		pop	{r4, pc}
 877              	.LVL60:
 878              	.L58:
 879              		.cfi_restore_state
 880              	.LBB217:
 881              	.LBB218:
 882              		.loc 2 672 0
 883 0046 0068     		ldr	r0, [r0]
 884              	.LVL61:
 885 0048 0191     		str	r1, [sp, #4]
 886              	.LVL62:
 887              		.loc 2 674 0
 888 004a 0368     		ldr	r3, [r0]
 889 004c 1360     		str	r3, [r2]
 890              		.loc 2 675 0
 891 004e 5A60     		str	r2, [r3, #4]
 892              	.LBE218:
 893              	.LBE217:
 894              		.loc 1 391 0
 895 0050 FFF7FEFF 		bl	chSchReadyI
 896              	.LVL63:
 897 0054 0023     		movs	r3, #0
 898 0056 4362     		str	r3, [r0, #36]
 899 0058 0199     		ldr	r1, [sp, #4]
 900 005a DAE7     		b	.L54
 901              	.L61:
 902              		.align	2
 903              	.L60:
 904 005c 00000000 		.word	ch
 905              		.cfi_endproc
 906              	.LFE229:
 907              		.size	chSemSignalWait, .-chSemSignalWait
 908              		.text
 909              	.Letext0:
 910              		.file 4 "/usr/arm-none-eabi/include/machine/_default_types.h"
 911              		.file 5 "/usr/arm-none-eabi/include/sys/_stdint.h"
 912              		.file 6 "ChibiOS_3.0.2/os/rt/ports/ARMCMx/compilers/GCC/chtypes.h"
ARM GAS  /tmp/ccqBOWUw.s 			page 17


 913              		.file 7 "ChibiOS_3.0.2/os/rt/include/chsystypes.h"
 914              		.file 8 "ChibiOS_3.0.2/os/rt/ports/ARMCMx/chcore.h"
 915              		.file 9 "ChibiOS_3.0.2/os/rt/ports/ARMCMx/chcore_v7m.h"
 916              		.file 10 "ChibiOS_3.0.2/os/rt/include/chtm.h"
 917              		.file 11 "ChibiOS_3.0.2/os/rt/include/chsem.h"
 918              		.file 12 "ChibiOS_3.0.2/os/rt/include/chmtx.h"
 919              		.file 13 "ChibiOS_3.0.2/os/rt/include/chsys.h"
 920              		.file 14 "ChibiOS_3.0.2/os/ext/CMSIS/include/core_cm4.h"