ARM GAS  /tmp/ccIsSBaK.s 			page 1


   1              		.syntax unified
   2              		.cpu cortex-m4
   3              		.eabi_attribute 27, 1
   4              		.eabi_attribute 28, 1
   5              		.fpu fpv4-sp-d16
   6              		.eabi_attribute 20, 1
   7              		.eabi_attribute 21, 1
   8              		.eabi_attribute 23, 3
   9              		.eabi_attribute 24, 1
  10              		.eabi_attribute 25, 1
  11              		.eabi_attribute 26, 1
  12              		.eabi_attribute 30, 2
  13              		.eabi_attribute 34, 1
  14              		.eabi_attribute 18, 4
  15              		.thumb
  16              		.file	"comm_usb.c"
  17              		.text
  18              	.Ltext0:
  19              		.cfi_sections	.debug_frame
  20              		.section	.text.send_packet,"ax",%progbits
  21              		.align	2
  22              		.p2align 4,,15
  23              		.thumb
  24              		.thumb_func
  25              		.type	send_packet, %function
  26              	send_packet:
  27              	.LFB261:
  28              		.file 1 "comm_usb.c"
  29              		.loc 1 122 0
  30              		.cfi_startproc
  31              		@ args = 0, pretend = 0, frame = 0
  32              		@ frame_needed = 0, uses_anonymous_args = 0
  33              		@ link register save eliminated.
  34              	.LVL0:
  35              		.loc 1 123 0
  36 0000 054B     		ldr	r3, .L3
  37              		.loc 1 122 0
  38 0002 10B4     		push	{r4}
  39              		.cfi_def_cfa_offset 4
  40              		.cfi_offset 4, -4
  41              		.loc 1 123 0
  42 0004 1C68     		ldr	r4, [r3]
  43 0006 2468     		ldr	r4, [r4]
  44              		.loc 1 122 0
  45 0008 0A46     		mov	r2, r1
  46              		.loc 1 123 0
  47 000a 0146     		mov	r1, r0
  48              	.LVL1:
  49 000c 1846     		mov	r0, r3
  50              	.LVL2:
  51 000e 2346     		mov	r3, r4
  52              		.loc 1 124 0
  53 0010 5DF8044B 		ldr	r4, [sp], #4
  54              		.cfi_restore 4
  55              		.cfi_def_cfa_offset 0
  56              		.loc 1 123 0
  57 0014 1847     		bx	r3
ARM GAS  /tmp/ccIsSBaK.s 			page 2


  58              	.LVL3:
  59              	.L4:
  60 0016 00BF     		.align	2
  61              	.L3:
  62 0018 00000000 		.word	SDU1
  63              		.cfi_endproc
  64              	.LFE261:
  65              		.size	send_packet, .-send_packet
  66              		.section	.text.serial_process_thread,"ax",%progbits
  67              		.align	2
  68              		.p2align 4,,15
  69              		.thumb
  70              		.thumb_func
  71              		.type	serial_process_thread, %function
  72              	serial_process_thread:
  73              	.LFB259:
  74              		.loc 1 98 0
  75              		.cfi_startproc
  76              		@ Volatile: function does not return.
  77              		@ args = 0, pretend = 0, frame = 0
  78              		@ frame_needed = 0, uses_anonymous_args = 0
  79              	.LVL4:
  80              	.LBB8:
  81              	.LBB9:
  82              		.file 2 "ChibiOS_3.0.2/os/rt/include/chregistry.h"
  83              		.loc 2 135 0
  84 0000 114B     		ldr	r3, .L13
  85              	.LBE9:
  86              	.LBE8:
  87              		.loc 1 103 0
  88 0002 124A     		ldr	r2, .L13+4
  89              	.LBB12:
  90              	.LBB10:
  91              		.loc 2 135 0
  92 0004 9B69     		ldr	r3, [r3, #24]
  93 0006 124C     		ldr	r4, .L13+8
  94 0008 1249     		ldr	r1, .L13+12
  95 000a 134E     		ldr	r6, .L13+16
  96              	.LBE10:
  97              	.LBE12:
  98              		.loc 1 98 0
  99 000c 80B5     		push	{r7, lr}
 100              		.cfi_def_cfa_offset 8
 101              		.cfi_offset 7, -8
 102              		.cfi_offset 14, -4
 103 000e 134F     		ldr	r7, .L13+20
 104              	.LBB13:
 105              	.LBB11:
 106              		.loc 2 135 0
 107 0010 9961     		str	r1, [r3, #24]
 108              	.LBE11:
 109              	.LBE13:
 110              		.loc 1 103 0
 111 0012 1360     		str	r3, [r2]
 112              		.loc 1 109 0
 113 0014 A146     		mov	r9, r4
 114              	.LVL5:
ARM GAS  /tmp/ccIsSBaK.s 			page 3


 115              	.L9:
 116              		.loc 1 106 0
 117 0016 0120     		movs	r0, #1
 118 0018 FFF7FEFF 		bl	chEvtWaitAny
 119              	.LVL6:
 120              		.loc 1 109 0
 121 001c 4FF00008 		mov	r8, #0
 122              	.L6:
 123 0020 2368     		ldr	r3, [r4]
 124              	.L7:
 125              		.loc 1 108 0
 126 0022 3268     		ldr	r2, [r6]
 127 0024 9A42     		cmp	r2, r3
 128              		.loc 1 109 0
 129 0026 03F10105 		add	r5, r3, #1
 130 002a 4FF00001 		mov	r1, #0
 131              		.loc 1 108 0
 132 002e F2D0     		beq	.L9
 133              		.loc 1 109 0
 134 0030 F85C     		ldrb	r0, [r7, r3]	@ zero_extendqisi2
 135 0032 2560     		str	r5, [r4]
 136 0034 FFF7FEFF 		bl	packet_process_byte
 137              	.LVL7:
 138              		.loc 1 111 0
 139 0038 2368     		ldr	r3, [r4]
 140 003a B3F5006F 		cmp	r3, #2048
 141 003e F0D1     		bne	.L7
 142              		.loc 1 112 0
 143 0040 C9F80080 		str	r8, [r9]
 144 0044 ECE7     		b	.L6
 145              	.L14:
 146 0046 00BF     		.align	2
 147              	.L13:
 148 0048 00000000 		.word	ch
 149 004c 00000000 		.word	.LANCHOR0
 150 0050 00000000 		.word	.LANCHOR1
 151 0054 00000000 		.word	.LC0
 152 0058 00000000 		.word	.LANCHOR3
 153 005c 00000000 		.word	.LANCHOR2
 154              		.cfi_endproc
 155              	.LFE259:
 156              		.size	serial_process_thread, .-serial_process_thread
 157              		.section	.text.serial_read_thread,"ax",%progbits
 158              		.align	2
 159              		.p2align 4,,15
 160              		.thumb
 161              		.thumb_func
 162              		.type	serial_read_thread, %function
 163              	serial_read_thread:
 164              	.LFB258:
 165              		.loc 1 68 0
 166              		.cfi_startproc
 167              		@ args = 0, pretend = 0, frame = 128
 168              		@ frame_needed = 0, uses_anonymous_args = 0
 169              	.LVL8:
 170 0000 2DE9F043 		push	{r4, r5, r6, r7, r8, r9, lr}
 171              		.cfi_def_cfa_offset 28
ARM GAS  /tmp/ccIsSBaK.s 			page 4


 172              		.cfi_offset 4, -28
 173              		.cfi_offset 5, -24
 174              		.cfi_offset 6, -20
 175              		.cfi_offset 7, -16
 176              		.cfi_offset 8, -12
 177              		.cfi_offset 9, -8
 178              		.cfi_offset 14, -4
 179              	.LBB14:
 180              	.LBB15:
 181              		.loc 2 135 0
 182 0004 154B     		ldr	r3, .L24
 183 0006 164A     		ldr	r2, .L24+4
 184 0008 9B69     		ldr	r3, [r3, #24]
 185 000a 164F     		ldr	r7, .L24+8
 186 000c 164E     		ldr	r6, .L24+12
 187 000e DFF85C90 		ldr	r9, .L24+16
 188 0012 DFF85C80 		ldr	r8, .L24+20
 189 0016 9A61     		str	r2, [r3, #24]
 190              	.LVL9:
 191              	.LBE15:
 192              	.LBE14:
 193              		.loc 1 68 0
 194 0018 A1B0     		sub	sp, sp, #132
 195              		.cfi_def_cfa_offset 160
 196              	.LVL10:
 197              	.L16:
 198              		.loc 1 79 0
 199 001a 3B68     		ldr	r3, [r7]
 200 001c 1148     		ldr	r0, .L24+8
 201 001e 5B68     		ldr	r3, [r3, #4]
 202 0020 6946     		mov	r1, sp
 203 0022 0122     		movs	r2, #1
 204 0024 9847     		blx	r3
 205              	.LVL11:
 206              		.loc 1 81 0
 207 0026 0028     		cmp	r0, #0
 208 0028 F7DD     		ble	.L16
 209 002a 3368     		ldr	r3, [r6]
 210 002c 0DF1FF34 		add	r4, sp, #-1
 211 0030 0022     		movs	r2, #0
 212              	.LVL12:
 213              	.L18:
 214              		.loc 1 82 0
 215 0032 591C     		adds	r1, r3, #1
 216              		.loc 1 85 0
 217 0034 B1F5006F 		cmp	r1, #2048
 218              		.loc 1 81 0
 219 0038 02F10102 		add	r2, r2, #1
 220              	.LVL13:
 221              		.loc 1 82 0
 222 003c 14F8015F 		ldrb	r5, [r4, #1]!	@ zero_extendqisi2
 223 0040 09F80350 		strb	r5, [r9, r3]
 224              		.loc 1 85 0
 225 0044 14BF     		ite	ne
 226 0046 0B46     		movne	r3, r1
 227 0048 0023     		moveq	r3, #0
 228              	.LVL14:
ARM GAS  /tmp/ccIsSBaK.s 			page 5


 229              		.loc 1 81 0
 230 004a 8242     		cmp	r2, r0
 231 004c F1DB     		blt	.L18
 232              		.loc 1 92 0
 233 004e D8F80000 		ldr	r0, [r8]
 234              	.LVL15:
 235 0052 3360     		str	r3, [r6]
 236 0054 0121     		movs	r1, #1
 237 0056 FFF7FEFF 		bl	chEvtSignal
 238              	.LVL16:
 239 005a DEE7     		b	.L16
 240              	.L25:
 241              		.align	2
 242              	.L24:
 243 005c 00000000 		.word	ch
 244 0060 14000000 		.word	.LC1
 245 0064 00000000 		.word	SDU1
 246 0068 00000000 		.word	.LANCHOR3
 247 006c 00000000 		.word	.LANCHOR2
 248 0070 00000000 		.word	.LANCHOR0
 249              		.cfi_endproc
 250              	.LFE258:
 251              		.size	serial_read_thread, .-serial_read_thread
 252              		.section	.text.process_packet,"ax",%progbits
 253              		.align	2
 254              		.p2align 4,,15
 255              		.thumb
 256              		.thumb_func
 257              		.type	process_packet, %function
 258              	process_packet:
 259              	.LFB260:
 260              		.loc 1 118 0
 261              		.cfi_startproc
 262              		@ args = 0, pretend = 0, frame = 0
 263              		@ frame_needed = 0, uses_anonymous_args = 0
 264              		@ link register save eliminated.
 265              	.LVL17:
 266              		.loc 1 119 0
 267 0000 FFF7FEBF 		b	comm_cc2520_send_buffer
 268              	.LVL18:
 269              		.cfi_endproc
 270              	.LFE260:
 271              		.size	process_packet, .-process_packet
 272              		.section	.text.comm_usb_init,"ax",%progbits
 273              		.align	2
 274              		.p2align 4,,15
 275              		.global	comm_usb_init
 276              		.thumb
 277              		.thumb_func
 278              		.type	comm_usb_init, %function
 279              	comm_usb_init:
 280              	.LFB256:
 281              		.loc 1 51 0
 282              		.cfi_startproc
 283              		@ args = 0, pretend = 0, frame = 0
 284              		@ frame_needed = 0, uses_anonymous_args = 0
 285 0000 10B5     		push	{r4, lr}
ARM GAS  /tmp/ccIsSBaK.s 			page 6


 286              		.cfi_def_cfa_offset 8
 287              		.cfi_offset 4, -8
 288              		.cfi_offset 14, -4
 289 0002 82B0     		sub	sp, sp, #8
 290              		.cfi_def_cfa_offset 16
 291              		.loc 1 52 0
 292 0004 FFF7FEFF 		bl	comm_usb_serial_init
 293              	.LVL19:
 294              		.loc 1 53 0
 295 0008 0D49     		ldr	r1, .L29
 296 000a 0E48     		ldr	r0, .L29+4
 297 000c 0022     		movs	r2, #0
 298 000e FFF7FEFF 		bl	packet_init
 299              	.LVL20:
 300              		.loc 1 58 0
 301 0012 0024     		movs	r4, #0
 302              		.loc 1 55 0
 303 0014 0C48     		ldr	r0, .L29+8
 304 0016 FFF7FEFF 		bl	chMtxObjectInit
 305              	.LVL21:
 306              		.loc 1 58 0
 307 001a 0094     		str	r4, [sp]
 308 001c 0B4B     		ldr	r3, .L29+12
 309 001e 0C48     		ldr	r0, .L29+16
 310 0020 4FF46671 		mov	r1, #920
 311 0024 4022     		movs	r2, #64
 312 0026 FFF7FEFF 		bl	chThdCreateStatic
 313              	.LVL22:
 314              		.loc 1 59 0
 315 002a 0094     		str	r4, [sp]
 316 002c 094B     		ldr	r3, .L29+20
 317 002e 0A48     		ldr	r0, .L29+24
 318 0030 41F29811 		movw	r1, #4504
 319 0034 4022     		movs	r2, #64
 320 0036 FFF7FEFF 		bl	chThdCreateStatic
 321              	.LVL23:
 322              		.loc 1 60 0
 323 003a 02B0     		add	sp, sp, #8
 324              		.cfi_def_cfa_offset 8
 325              		@ sp needed
 326 003c 10BD     		pop	{r4, pc}
 327              	.L30:
 328 003e 00BF     		.align	2
 329              	.L29:
 330 0040 00000000 		.word	process_packet
 331 0044 00000000 		.word	send_packet
 332 0048 00000000 		.word	.LANCHOR4
 333 004c 00000000 		.word	serial_read_thread
 334 0050 00000000 		.word	.LANCHOR5
 335 0054 00000000 		.word	serial_process_thread
 336 0058 00000000 		.word	.LANCHOR6
 337              		.cfi_endproc
 338              	.LFE256:
 339              		.size	comm_usb_init, .-comm_usb_init
 340              		.section	.text.comm_usb_send_packet,"ax",%progbits
 341              		.align	2
 342              		.p2align 4,,15
ARM GAS  /tmp/ccIsSBaK.s 			page 7


 343              		.global	comm_usb_send_packet
 344              		.thumb
 345              		.thumb_func
 346              		.type	comm_usb_send_packet, %function
 347              	comm_usb_send_packet:
 348              	.LFB257:
 349              		.loc 1 62 0
 350              		.cfi_startproc
 351              		@ args = 0, pretend = 0, frame = 0
 352              		@ frame_needed = 0, uses_anonymous_args = 0
 353              	.LVL24:
 354 0000 70B5     		push	{r4, r5, r6, lr}
 355              		.cfi_def_cfa_offset 16
 356              		.cfi_offset 4, -16
 357              		.cfi_offset 5, -12
 358              		.cfi_offset 6, -8
 359              		.cfi_offset 14, -4
 360              		.loc 1 63 0
 361 0002 084C     		ldr	r4, .L33
 362              		.loc 1 62 0
 363 0004 0646     		mov	r6, r0
 364 0006 0D46     		mov	r5, r1
 365              		.loc 1 63 0
 366 0008 2046     		mov	r0, r4
 367              	.LVL25:
 368 000a FFF7FEFF 		bl	chMtxLock
 369              	.LVL26:
 370              		.loc 1 64 0
 371 000e 3046     		mov	r0, r6
 372 0010 2946     		mov	r1, r5
 373 0012 0022     		movs	r2, #0
 374 0014 FFF7FEFF 		bl	packet_send_packet
 375              	.LVL27:
 376              		.loc 1 65 0
 377 0018 2046     		mov	r0, r4
 378              		.loc 1 66 0
 379 001a BDE87040 		pop	{r4, r5, r6, lr}
 380              		.cfi_restore 14
 381              		.cfi_restore 6
 382              		.cfi_restore 5
 383              		.cfi_restore 4
 384              		.cfi_def_cfa_offset 0
 385              	.LVL28:
 386              		.loc 1 65 0
 387 001e FFF7FEBF 		b	chMtxUnlock
 388              	.LVL29:
 389              	.L34:
 390 0022 00BF     		.align	2
 391              	.L33:
 392 0024 00000000 		.word	.LANCHOR4
 393              		.cfi_endproc
 394              	.LFE257:
 395              		.size	comm_usb_send_packet, .-comm_usb_send_packet
 396              		.section	.bss.serial_rx_write_pos,"aw",%nobits
 397              		.align	2
 398              		.set	.LANCHOR3,. + 0
 399              		.type	serial_rx_write_pos, %object
ARM GAS  /tmp/ccIsSBaK.s 			page 8


 400              		.size	serial_rx_write_pos, 4
 401              	serial_rx_write_pos:
 402 0000 00000000 		.space	4
 403              		.section	.bss.send_mutex,"aw",%nobits
 404              		.align	2
 405              		.set	.LANCHOR4,. + 0
 406              		.type	send_mutex, %object
 407              		.size	send_mutex, 16
 408              	send_mutex:
 409 0000 00000000 		.space	16
 409      00000000 
 409      00000000 
 409      00000000 
 410              		.section	.bss.serial_process_thread_wa,"aw",%nobits
 411              		.align	3
 412              		.set	.LANCHOR6,. + 0
 413              		.type	serial_process_thread_wa, %object
 414              		.size	serial_process_thread_wa, 4504
 415              	serial_process_thread_wa:
 416 0000 00000000 		.space	4504
 416      00000000 
 416      00000000 
 416      00000000 
 416      00000000 
 417              		.section	.bss.serial_rx_buffer,"aw",%nobits
 418              		.align	2
 419              		.set	.LANCHOR2,. + 0
 420              		.type	serial_rx_buffer, %object
 421              		.size	serial_rx_buffer, 2048
 422              	serial_rx_buffer:
 423 0000 00000000 		.space	2048
 423      00000000 
 423      00000000 
 423      00000000 
 423      00000000 
 424              		.section	.rodata.str1.4,"aMS",%progbits,1
 425              		.align	2
 426              	.LC0:
 427 0000 5553422D 		.ascii	"USB-Serial process\000"
 427      53657269 
 427      616C2070 
 427      726F6365 
 427      737300
 428 0013 00       		.space	1
 429              	.LC1:
 430 0014 5553422D 		.ascii	"USB-Serial read\000"
 430      53657269 
 430      616C2072 
 430      65616400 
 431              		.section	.bss.serial_read_thread_wa,"aw",%nobits
 432              		.align	3
 433              		.set	.LANCHOR5,. + 0
 434              		.type	serial_read_thread_wa, %object
 435              		.size	serial_read_thread_wa, 920
 436              	serial_read_thread_wa:
 437 0000 00000000 		.space	920
 437      00000000 
ARM GAS  /tmp/ccIsSBaK.s 			page 9


 437      00000000 
 437      00000000 
 437      00000000 
 438              		.section	.bss.serial_rx_read_pos,"aw",%nobits
 439              		.align	2
 440              		.set	.LANCHOR1,. + 0
 441              		.type	serial_rx_read_pos, %object
 442              		.size	serial_rx_read_pos, 4
 443              	serial_rx_read_pos:
 444 0000 00000000 		.space	4
 445              		.section	.bss.process_tp,"aw",%nobits
 446              		.align	2
 447              		.set	.LANCHOR0,. + 0
 448              		.type	process_tp, %object
 449              		.size	process_tp, 4
 450              	process_tp:
 451 0000 00000000 		.space	4
 452              		.text
 453              	.Letext0:
 454              		.file 3 "/usr/arm-none-eabi/include/machine/_default_types.h"
 455              		.file 4 "/usr/arm-none-eabi/include/sys/_stdint.h"
 456              		.file 5 "/usr/lib/gcc/arm-none-eabi/4.9.3/include/stddef.h"
 457              		.file 6 "ChibiOS_3.0.2/os/rt/ports/ARMCMx/compilers/GCC/chtypes.h"
 458              		.file 7 "ChibiOS_3.0.2/os/rt/include/chsystypes.h"
 459              		.file 8 "ChibiOS_3.0.2/os/rt/include/chschd.h"
 460              		.file 9 "ChibiOS_3.0.2/os/rt/ports/ARMCMx/chcore.h"
 461              		.file 10 "ChibiOS_3.0.2/os/rt/ports/ARMCMx/chcore_v7m.h"
 462              		.file 11 "ChibiOS_3.0.2/os/rt/include/chtm.h"
 463              		.file 12 "ChibiOS_3.0.2/os/rt/include/chsem.h"
 464              		.file 13 "ChibiOS_3.0.2/os/rt/include/chmtx.h"
 465              		.file 14 "ChibiOS_3.0.2/os/rt/include/chthreads.h"
 466              		.file 15 "ChibiOS_3.0.2/os/rt/include/chevents.h"
 467              		.file 16 "ChibiOS_3.0.2/os/rt/include/chqueues.h"
 468              		.file 17 "ChibiOS_3.0.2/os/hal/include/usb.h"
 469              		.file 18 "ChibiOS_3.0.2/os/hal/ports/STM32/LLD/OTGv1/usb_lld.h"
 470              		.file 19 "ChibiOS_3.0.2/os/hal/ports/STM32/LLD/OTGv1/stm32_otg.h"
 471              		.file 20 "ChibiOS_3.0.2/os/hal/include/serial_usb.h"
 472              		.file 21 "ChibiOS_3.0.2/os/ext/CMSIS/include/core_cm4.h"
 473              		.file 22 "comm_usb_serial.h"
 474              		.file 23 "packet.h"
 475              		.file 24 "comm_cc2520.h"