ARM GAS  /tmp/ccju6RJA.s 			page 1


   1              		.syntax unified
   2              		.cpu cortex-m4
   3              		.eabi_attribute 27, 1
   4              		.eabi_attribute 28, 1
   5              		.fpu fpv4-sp-d16
   6              		.eabi_attribute 20, 1
   7              		.eabi_attribute 21, 1
   8              		.eabi_attribute 23, 3
   9              		.eabi_attribute 24, 1
  10              		.eabi_attribute 25, 1
  11              		.eabi_attribute 26, 1
  12              		.eabi_attribute 30, 2
  13              		.eabi_attribute 34, 1
  14              		.eabi_attribute 18, 4
  15              		.thumb
  16              		.file	"ext_lld.c"
  17              		.text
  18              	.Ltext0:
  19              		.cfi_sections	.debug_frame
  20              		.section	.text.ext_lld_init,"ax",%progbits
  21              		.align	2
  22              		.p2align 4,,15
  23              		.global	ext_lld_init
  24              		.thumb
  25              		.thumb_func
  26              		.type	ext_lld_init, %function
  27              	ext_lld_init:
  28              	.LFB256:
  29              		.file 1 "ChibiOS_3.0.2/os/hal/ports/STM32/LLD/ext_lld.c"
  30              		.loc 1 65 0
  31              		.cfi_startproc
  32              		@ args = 0, pretend = 0, frame = 0
  33              		@ frame_needed = 0, uses_anonymous_args = 0
  34              		@ link register save eliminated.
  35              		.loc 1 68 0
  36 0000 0148     		ldr	r0, .L2
  37 0002 FFF7FEBF 		b	extObjectInit
  38              	.LVL0:
  39              	.L3:
  40 0006 00BF     		.align	2
  41              	.L2:
  42 0008 00000000 		.word	.LANCHOR0
  43              		.cfi_endproc
  44              	.LFE256:
  45              		.size	ext_lld_init, .-ext_lld_init
  46              		.section	.text.ext_lld_stop,"ax",%progbits
  47              		.align	2
  48              		.p2align 4,,15
  49              		.global	ext_lld_stop
  50              		.thumb
  51              		.thumb_func
  52              		.type	ext_lld_stop, %function
  53              	ext_lld_stop:
  54              	.LFB258:
  55              		.loc 1 99 0
  56              		.cfi_startproc
  57              		@ args = 0, pretend = 0, frame = 0
ARM GAS  /tmp/ccju6RJA.s 			page 2


  58              		@ frame_needed = 0, uses_anonymous_args = 0
  59              	.LVL1:
  60 0000 08B5     		push	{r3, lr}
  61              		.cfi_def_cfa_offset 8
  62              		.cfi_offset 3, -8
  63              		.cfi_offset 14, -4
  64              		.loc 1 101 0
  65 0002 0378     		ldrb	r3, [r0]	@ zero_extendqisi2
  66 0004 022B     		cmp	r3, #2
  67 0006 07D0     		beq	.L8
  68              	.LVL2:
  69              	.L5:
  70              		.loc 1 104 0
  71 0008 054B     		ldr	r3, .L9
  72 000a 0022     		movs	r2, #0
  73              		.loc 1 106 0
  74 000c 4FF0FF31 		mov	r1, #-1
  75              		.loc 1 104 0
  76 0010 5A60     		str	r2, [r3, #4]
  77              		.loc 1 105 0
  78 0012 1A60     		str	r2, [r3]
  79              		.loc 1 106 0
  80 0014 5961     		str	r1, [r3, #20]
  81 0016 08BD     		pop	{r3, pc}
  82              	.LVL3:
  83              	.L8:
  84              		.loc 1 102 0
  85 0018 FFF7FEFF 		bl	ext_lld_exti_irq_disable
  86              	.LVL4:
  87 001c F4E7     		b	.L5
  88              	.L10:
  89 001e 00BF     		.align	2
  90              	.L9:
  91 0020 003C0140 		.word	1073822720
  92              		.cfi_endproc
  93              	.LFE258:
  94              		.size	ext_lld_stop, .-ext_lld_stop
  95              		.section	.text.ext_lld_channel_enable,"ax",%progbits
  96              		.align	2
  97              		.p2align 4,,15
  98              		.global	ext_lld_channel_enable
  99              		.thumb
 100              		.thumb_func
 101              		.type	ext_lld_channel_enable, %function
 102              	ext_lld_channel_enable:
 103              	.LFB259:
 104              		.loc 1 120 0
 105              		.cfi_startproc
 106              		@ args = 0, pretend = 0, frame = 0
 107              		@ frame_needed = 0, uses_anonymous_args = 0
 108              		@ link register save eliminated.
 109              	.LVL5:
 110              		.loc 1 123 0
 111 0000 0F29     		cmp	r1, #15
 112              		.loc 1 120 0
 113 0002 F0B4     		push	{r4, r5, r6, r7}
 114              		.cfi_def_cfa_offset 16
ARM GAS  /tmp/ccju6RJA.s 			page 3


 115              		.cfi_offset 4, -16
 116              		.cfi_offset 5, -12
 117              		.cfi_offset 6, -8
 118              		.cfi_offset 7, -4
 119              		.loc 1 123 0
 120 0004 20D9     		bls	.L12
 121 0006 4268     		ldr	r2, [r0, #4]
 122 0008 52F83100 		ldr	r0, [r2, r1, lsl #3]
 123              	.LVL6:
 124              		.loc 1 141 0
 125 000c C307     		lsls	r3, r0, #31
 126 000e 34D5     		bpl	.L14
 127              	.L21:
 128              		.loc 1 142 0
 129 0010 224D     		ldr	r5, .L22
 130 0012 0123     		movs	r3, #1
 131 0014 AC68     		ldr	r4, [r5, #8]
 132 0016 8B40     		lsls	r3, r3, r1
 133 0018 1C43     		orrs	r4, r4, r3
 134 001a AC60     		str	r4, [r5, #8]
 135 001c DC43     		mvns	r4, r3
 136              	.L15:
 137              		.loc 1 146 0
 138 001e 1F4D     		ldr	r5, .L22
 139              		.loc 1 151 0
 140 0020 02EBC101 		add	r1, r2, r1, lsl #3
 141              	.LVL7:
 142              		.loc 1 145 0
 143 0024 10F0020F 		tst	r0, #2
 144              		.loc 1 146 0
 145 0028 E868     		ldr	r0, [r5, #12]
 146              		.loc 1 151 0
 147 002a 4A68     		ldr	r2, [r1, #4]
 148              		.loc 1 146 0
 149 002c 14BF     		ite	ne
 150 002e 1843     		orrne	r0, r0, r3
 151              		.loc 1 148 0
 152 0030 2040     		andeq	r0, r0, r4
 153 0032 E860     		str	r0, [r5, #12]
 154              		.loc 1 151 0
 155 0034 4AB3     		cbz	r2, .L18
 156              		.loc 1 152 0
 157 0036 194A     		ldr	r2, .L22
 158 0038 1168     		ldr	r1, [r2]
 159 003a 0B43     		orrs	r3, r3, r1
 160 003c 1360     		str	r3, [r2]
 161              		.loc 1 153 0
 162 003e 5368     		ldr	r3, [r2, #4]
 163 0040 2340     		ands	r3, r3, r4
 164 0042 5360     		str	r3, [r2, #4]
 165              		.loc 1 183 0
 166 0044 F0BC     		pop	{r4, r5, r6, r7}
 167              		.cfi_remember_state
 168              		.cfi_restore 7
 169              		.cfi_restore 6
 170              		.cfi_restore 5
 171              		.cfi_restore 4
ARM GAS  /tmp/ccju6RJA.s 			page 4


 172              		.cfi_def_cfa_offset 0
 173 0046 7047     		bx	lr
 174              	.LVL8:
 175              	.L12:
 176              		.cfi_restore_state
 177 0048 21F00303 		bic	r3, r1, #3
 178              	.LBB2:
 179              		.loc 1 126 0
 180 004c 4268     		ldr	r2, [r0, #4]
 181 004e 03F18043 		add	r3, r3, #1073741824
 182 0052 03F59C33 		add	r3, r3, #79872
 183 0056 52F83100 		ldr	r0, [r2, r1, lsl #3]
 184              	.LVL9:
 185              		.loc 1 133 0
 186 005a 9F68     		ldr	r7, [r3, #8]
 187              		.loc 1 125 0
 188 005c 01F00304 		and	r4, r1, #3
 189 0060 A400     		lsls	r4, r4, #2
 190              	.LVL10:
 191 0062 0F26     		movs	r6, #15
 192 0064 A640     		lsls	r6, r6, r4
 193              		.loc 1 127 0
 194 0066 C0F30315 		ubfx	r5, r0, #4, #4
 195              		.loc 1 133 0
 196 006a 27EA0606 		bic	r6, r7, r6
 197              		.loc 1 126 0
 198 006e 05FA04F4 		lsl	r4, r5, r4
 199              	.LVL11:
 200              		.loc 1 133 0
 201 0072 3443     		orrs	r4, r4, r6
 202 0074 9C60     		str	r4, [r3, #8]
 203              	.LBE2:
 204              		.loc 1 141 0
 205 0076 C307     		lsls	r3, r0, #31
 206 0078 CAD4     		bmi	.L21
 207              	.LVL12:
 208              	.L14:
 209              		.loc 1 144 0
 210 007a 084E     		ldr	r6, .L22
 211 007c 0123     		movs	r3, #1
 212 007e B568     		ldr	r5, [r6, #8]
 213 0080 8B40     		lsls	r3, r3, r1
 214 0082 DC43     		mvns	r4, r3
 215 0084 2540     		ands	r5, r5, r4
 216 0086 B560     		str	r5, [r6, #8]
 217 0088 C9E7     		b	.L15
 218              	.LVL13:
 219              	.L18:
 220              		.loc 1 156 0
 221 008a 044A     		ldr	r2, .L22
 222 008c 5168     		ldr	r1, [r2, #4]
 223 008e 0B43     		orrs	r3, r3, r1
 224 0090 5360     		str	r3, [r2, #4]
 225              		.loc 1 157 0
 226 0092 1368     		ldr	r3, [r2]
 227 0094 2340     		ands	r3, r3, r4
 228 0096 1360     		str	r3, [r2]
ARM GAS  /tmp/ccju6RJA.s 			page 5


 229              		.loc 1 183 0
 230 0098 F0BC     		pop	{r4, r5, r6, r7}
 231              		.cfi_restore 4
 232              		.cfi_restore 5
 233              		.cfi_restore 6
 234              		.cfi_restore 7
 235              		.cfi_def_cfa_offset 0
 236 009a 7047     		bx	lr
 237              	.L23:
 238              		.align	2
 239              	.L22:
 240 009c 003C0140 		.word	1073822720
 241              		.cfi_endproc
 242              	.LFE259:
 243              		.size	ext_lld_channel_enable, .-ext_lld_channel_enable
 244              		.section	.text.ext_lld_channel_disable,"ax",%progbits
 245              		.align	2
 246              		.p2align 4,,15
 247              		.global	ext_lld_channel_disable
 248              		.thumb
 249              		.thumb_func
 250              		.type	ext_lld_channel_disable, %function
 251              	ext_lld_channel_disable:
 252              	.LFB260:
 253              		.loc 1 193 0
 254              		.cfi_startproc
 255              		@ args = 0, pretend = 0, frame = 0
 256              		@ frame_needed = 0, uses_anonymous_args = 0
 257              		@ link register save eliminated.
 258              	.LVL14:
 259              		.loc 1 200 0
 260 0000 084B     		ldr	r3, .L25
 261 0002 0122     		movs	r2, #1
 262 0004 1868     		ldr	r0, [r3]
 263              	.LVL15:
 264 0006 8A40     		lsls	r2, r2, r1
 265 0008 D143     		mvns	r1, r2
 266              	.LVL16:
 267 000a 0840     		ands	r0, r0, r1
 268 000c 1860     		str	r0, [r3]
 269              		.loc 1 201 0
 270 000e 5868     		ldr	r0, [r3, #4]
 271 0010 0840     		ands	r0, r0, r1
 272 0012 5860     		str	r0, [r3, #4]
 273              		.loc 1 202 0
 274 0014 9868     		ldr	r0, [r3, #8]
 275 0016 0840     		ands	r0, r0, r1
 276 0018 9860     		str	r0, [r3, #8]
 277              		.loc 1 203 0
 278 001a D868     		ldr	r0, [r3, #12]
 279 001c 0140     		ands	r1, r1, r0
 280 001e D960     		str	r1, [r3, #12]
 281              		.loc 1 204 0
 282 0020 5A61     		str	r2, [r3, #20]
 283 0022 7047     		bx	lr
 284              	.L26:
 285              		.align	2
ARM GAS  /tmp/ccju6RJA.s 			page 6


 286              	.L25:
 287 0024 003C0140 		.word	1073822720
 288              		.cfi_endproc
 289              	.LFE260:
 290              		.size	ext_lld_channel_disable, .-ext_lld_channel_disable
 291              		.section	.text.ext_lld_start,"ax",%progbits
 292              		.align	2
 293              		.p2align 4,,15
 294              		.global	ext_lld_start
 295              		.thumb
 296              		.thumb_func
 297              		.type	ext_lld_start, %function
 298              	ext_lld_start:
 299              	.LFB257:
 300              		.loc 1 78 0
 301              		.cfi_startproc
 302              		@ args = 0, pretend = 0, frame = 0
 303              		@ frame_needed = 0, uses_anonymous_args = 0
 304              	.LVL17:
 305 0000 38B5     		push	{r3, r4, r5, lr}
 306              		.cfi_def_cfa_offset 16
 307              		.cfi_offset 3, -16
 308              		.cfi_offset 4, -12
 309              		.cfi_offset 5, -8
 310              		.cfi_offset 14, -4
 311              		.loc 1 81 0
 312 0002 0378     		ldrb	r3, [r0]	@ zero_extendqisi2
 313 0004 012B     		cmp	r3, #1
 314              		.loc 1 78 0
 315 0006 0546     		mov	r5, r0
 316              		.loc 1 81 0
 317 0008 16D0     		beq	.L34
 318              	.LVL18:
 319              	.L28:
 320              		.loc 1 78 0 discriminator 1
 321 000a 0024     		movs	r4, #0
 322 000c 04E0     		b	.L31
 323              	.LVL19:
 324              	.L36:
 325              		.loc 1 85 0
 326 000e 0134     		adds	r4, r4, #1
 327              		.loc 1 87 0
 328 0010 FFF7FEFF 		bl	ext_lld_channel_enable
 329              	.LVL20:
 330              		.loc 1 85 0
 331 0014 172C     		cmp	r4, #23
 332 0016 0ED0     		beq	.L35
 333              	.LVL21:
 334              	.L31:
 335              		.loc 1 86 0
 336 0018 6B68     		ldr	r3, [r5, #4]
 337 001a 53F83430 		ldr	r3, [r3, r4, lsl #3]
 338 001e 13F0040F 		tst	r3, #4
 339              		.loc 1 87 0
 340 0022 2846     		mov	r0, r5
 341 0024 2146     		mov	r1, r4
 342              		.loc 1 86 0
ARM GAS  /tmp/ccju6RJA.s 			page 7


 343 0026 F2D1     		bne	.L36
 344              	.LVL22:
 345              		.loc 1 89 0
 346 0028 2146     		mov	r1, r4
 347 002a 2846     		mov	r0, r5
 348              	.LVL23:
 349              		.loc 1 85 0
 350 002c 0134     		adds	r4, r4, #1
 351              	.LVL24:
 352              		.loc 1 89 0
 353 002e FFF7FEFF 		bl	ext_lld_channel_disable
 354              	.LVL25:
 355              		.loc 1 85 0
 356 0032 172C     		cmp	r4, #23
 357 0034 F0D1     		bne	.L31
 358              	.L35:
 359              		.loc 1 90 0
 360 0036 38BD     		pop	{r3, r4, r5, pc}
 361              	.LVL26:
 362              	.L34:
 363              		.loc 1 82 0
 364 0038 FFF7FEFF 		bl	ext_lld_exti_irq_enable
 365              	.LVL27:
 366 003c E5E7     		b	.L28
 367              		.cfi_endproc
 368              	.LFE257:
 369              		.size	ext_lld_start, .-ext_lld_start
 370              		.global	EXTD1
 371 003e 00BF     		.section	.bss.EXTD1,"aw",%nobits
 372              		.align	2
 373              		.set	.LANCHOR0,. + 0
 374              		.type	EXTD1, %object
 375              		.size	EXTD1, 8
 376              	EXTD1:
 377 0000 00000000 		.space	8
 377      00000000 
 378              		.text
 379              	.Letext0:
 380              		.file 2 "/usr/lib/gcc/arm-none-eabi/4.9.3/include/stddef.h"
 381              		.file 3 "/usr/arm-none-eabi/include/machine/_default_types.h"
 382              		.file 4 "/usr/arm-none-eabi/include/sys/_stdint.h"
 383              		.file 5 "ChibiOS_3.0.2/os/rt/ports/ARMCMx/compilers/GCC/chtypes.h"
 384              		.file 6 "ChibiOS_3.0.2/os/rt/include/chsystypes.h"
 385              		.file 7 "ChibiOS_3.0.2/os/rt/include/chschd.h"
 386              		.file 8 "ChibiOS_3.0.2/os/ext/CMSIS/ST/stm32f407xx.h"
 387              		.file 9 "ChibiOS_3.0.2/os/rt/ports/ARMCMx/chcore.h"
 388              		.file 10 "ChibiOS_3.0.2/os/rt/ports/ARMCMx/chcore_v7m.h"
 389              		.file 11 "ChibiOS_3.0.2/os/rt/include/chtm.h"
 390              		.file 12 "ChibiOS_3.0.2/os/rt/include/chsem.h"
 391              		.file 13 "ChibiOS_3.0.2/os/rt/include/chmtx.h"
 392              		.file 14 "ChibiOS_3.0.2/os/hal/include/ext.h"
 393              		.file 15 "ChibiOS_3.0.2/os/hal/ports/STM32/LLD/ext_lld.h"
 394              		.file 16 "ChibiOS_3.0.2/os/ext/CMSIS/include/core_cm4.h"
 395              		.file 17 "ChibiOS_3.0.2/os/hal/ports/STM32/STM32F4xx/ext_lld_isr.h"
 396              		.section	.debug_info,"",%progbits
 397              	.Ldebug_info0:
 398 0000 830A0000 		.4byte	0xa83
ARM GAS  /tmp/ccju6RJA.s 			page 8


 399 0004 0400     		.2byte	0x4
 400 0006 00000000 		.4byte	.Ldebug_abbrev0
 401 000a 04       		.byte	0x4
 402 000b 01       		.uleb128 0x1
 403 000c 40050000 		.4byte	.LASF141
 404 0010 01       		.byte	0x1
 405 0011 5D020000 		.4byte	.LASF142
 406 0015 EE030000 		.4byte	.LASF143
 407 0019 00000000 		.4byte	.Ldebug_ranges0+0
 408 001d 00000000 		.4byte	0
 409 0021 00000000 		.4byte	.Ldebug_line0
 410 0025 02       		.uleb128 0x2
 411 0026 04       		.byte	0x4
 412 0027 05       		.byte	0x5
 413 0028 696E7400 		.ascii	"int\000"
 414 002c 03       		.uleb128 0x3
 415 002d 1C000000 		.4byte	.LASF2
 416 0031 02       		.byte	0x2
 417 0032 D4       		.byte	0xd4
 418 0033 37000000 		.4byte	0x37
 419 0037 04       		.uleb128 0x4
 420 0038 04       		.byte	0x4
 421 0039 07       		.byte	0x7
 422 003a D9010000 		.4byte	.LASF0
 423 003e 04       		.uleb128 0x4
 424 003f 01       		.byte	0x1
 425 0040 06       		.byte	0x6
 426 0041 2C000000 		.4byte	.LASF1
 427 0045 03       		.uleb128 0x3
 428 0046 38000000 		.4byte	.LASF3
 429 004a 03       		.byte	0x3
 430 004b 1D       		.byte	0x1d
 431 004c 50000000 		.4byte	0x50
 432 0050 04       		.uleb128 0x4
 433 0051 01       		.byte	0x1
 434 0052 08       		.byte	0x8
 435 0053 3D040000 		.4byte	.LASF4
 436 0057 04       		.uleb128 0x4
 437 0058 02       		.byte	0x2
 438 0059 05       		.byte	0x5
 439 005a 5A040000 		.4byte	.LASF5
 440 005e 04       		.uleb128 0x4
 441 005f 02       		.byte	0x2
 442 0060 07       		.byte	0x7
 443 0061 32020000 		.4byte	.LASF6
 444 0065 03       		.uleb128 0x3
 445 0066 E1020000 		.4byte	.LASF7
 446 006a 03       		.byte	0x3
 447 006b 3F       		.byte	0x3f
 448 006c 70000000 		.4byte	0x70
 449 0070 04       		.uleb128 0x4
 450 0071 04       		.byte	0x4
 451 0072 05       		.byte	0x5
 452 0073 53010000 		.4byte	.LASF8
 453 0077 03       		.uleb128 0x3
 454 0078 89060000 		.4byte	.LASF9
 455 007c 03       		.byte	0x3
ARM GAS  /tmp/ccju6RJA.s 			page 9


 456 007d 41       		.byte	0x41
 457 007e 82000000 		.4byte	0x82
 458 0082 04       		.uleb128 0x4
 459 0083 04       		.byte	0x4
 460 0084 07       		.byte	0x7
 461 0085 06050000 		.4byte	.LASF10
 462 0089 04       		.uleb128 0x4
 463 008a 08       		.byte	0x8
 464 008b 05       		.byte	0x5
 465 008c F5000000 		.4byte	.LASF11
 466 0090 03       		.uleb128 0x3
 467 0091 A8030000 		.4byte	.LASF12
 468 0095 03       		.byte	0x3
 469 0096 5B       		.byte	0x5b
 470 0097 9B000000 		.4byte	0x9b
 471 009b 04       		.uleb128 0x4
 472 009c 08       		.byte	0x8
 473 009d 07       		.byte	0x7
 474 009e 77000000 		.4byte	.LASF13
 475 00a2 03       		.uleb128 0x3
 476 00a3 ED060000 		.4byte	.LASF14
 477 00a7 04       		.byte	0x4
 478 00a8 14       		.byte	0x14
 479 00a9 45000000 		.4byte	0x45
 480 00ad 03       		.uleb128 0x3
 481 00ae 35040000 		.4byte	.LASF15
 482 00b2 04       		.byte	0x4
 483 00b3 1F       		.byte	0x1f
 484 00b4 65000000 		.4byte	0x65
 485 00b8 03       		.uleb128 0x3
 486 00b9 DE040000 		.4byte	.LASF16
 487 00bd 04       		.byte	0x4
 488 00be 20       		.byte	0x20
 489 00bf 77000000 		.4byte	0x77
 490 00c3 03       		.uleb128 0x3
 491 00c4 23000000 		.4byte	.LASF17
 492 00c8 04       		.byte	0x4
 493 00c9 26       		.byte	0x26
 494 00ca 90000000 		.4byte	0x90
 495 00ce 05       		.uleb128 0x5
 496 00cf AD000000 		.4byte	0xad
 497 00d3 05       		.uleb128 0x5
 498 00d4 B8000000 		.4byte	0xb8
 499 00d8 03       		.uleb128 0x3
 500 00d9 A5060000 		.4byte	.LASF18
 501 00dd 05       		.byte	0x5
 502 00de 45       		.byte	0x45
 503 00df B8000000 		.4byte	0xb8
 504 00e3 03       		.uleb128 0x3
 505 00e4 BF020000 		.4byte	.LASF19
 506 00e8 05       		.byte	0x5
 507 00e9 48       		.byte	0x48
 508 00ea A2000000 		.4byte	0xa2
 509 00ee 03       		.uleb128 0x3
 510 00ef 5C010000 		.4byte	.LASF20
 511 00f3 05       		.byte	0x5
 512 00f4 49       		.byte	0x49
ARM GAS  /tmp/ccju6RJA.s 			page 10


 513 00f5 A2000000 		.4byte	0xa2
 514 00f9 03       		.uleb128 0x3
 515 00fa C7030000 		.4byte	.LASF21
 516 00fe 05       		.byte	0x5
 517 00ff 4A       		.byte	0x4a
 518 0100 A2000000 		.4byte	0xa2
 519 0104 03       		.uleb128 0x3
 520 0105 2D010000 		.4byte	.LASF22
 521 0109 05       		.byte	0x5
 522 010a 4B       		.byte	0x4b
 523 010b A2000000 		.4byte	0xa2
 524 010f 03       		.uleb128 0x3
 525 0110 E6030000 		.4byte	.LASF23
 526 0114 05       		.byte	0x5
 527 0115 4C       		.byte	0x4c
 528 0116 B8000000 		.4byte	0xb8
 529 011a 03       		.uleb128 0x3
 530 011b A0020000 		.4byte	.LASF24
 531 011f 05       		.byte	0x5
 532 0120 4D       		.byte	0x4d
 533 0121 AD000000 		.4byte	0xad
 534 0125 03       		.uleb128 0x3
 535 0126 D5020000 		.4byte	.LASF25
 536 012a 05       		.byte	0x5
 537 012b 4F       		.byte	0x4f
 538 012c B8000000 		.4byte	0xb8
 539 0130 03       		.uleb128 0x3
 540 0131 4F030000 		.4byte	.LASF26
 541 0135 05       		.byte	0x5
 542 0136 51       		.byte	0x51
 543 0137 AD000000 		.4byte	0xad
 544 013b 03       		.uleb128 0x3
 545 013c 6B060000 		.4byte	.LASF27
 546 0140 06       		.byte	0x6
 547 0141 33       		.byte	0x33
 548 0142 B8000000 		.4byte	0xb8
 549 0146 03       		.uleb128 0x3
 550 0147 DE060000 		.4byte	.LASF28
 551 014b 06       		.byte	0x6
 552 014c 3F       		.byte	0x3f
 553 014d 51010000 		.4byte	0x151
 554 0151 06       		.uleb128 0x6
 555 0152 8C020000 		.4byte	.LASF50
 556 0156 48       		.byte	0x48
 557 0157 07       		.byte	0x7
 558 0158 C2       		.byte	0xc2
 559 0159 56020000 		.4byte	0x256
 560 015d 07       		.uleb128 0x7
 561 015e 8D040000 		.4byte	.LASF29
 562 0162 07       		.byte	0x7
 563 0163 C3       		.byte	0xc3
 564 0164 61020000 		.4byte	0x261
 565 0168 00       		.byte	0
 566 0169 07       		.uleb128 0x7
 567 016a DF030000 		.4byte	.LASF30
 568 016e 07       		.byte	0x7
 569 016f C5       		.byte	0xc5
ARM GAS  /tmp/ccju6RJA.s 			page 11


 570 0170 61020000 		.4byte	0x261
 571 0174 04       		.byte	0x4
 572 0175 07       		.uleb128 0x7
 573 0176 EE000000 		.4byte	.LASF31
 574 017a 07       		.byte	0x7
 575 017b C7       		.byte	0xc7
 576 017c 0F010000 		.4byte	0x10f
 577 0180 08       		.byte	0x8
 578 0181 07       		.uleb128 0x7
 579 0182 2F070000 		.4byte	.LASF32
 580 0186 07       		.byte	0x7
 581 0187 C8       		.byte	0xc8
 582 0188 70050000 		.4byte	0x570
 583 018c 0C       		.byte	0xc
 584 018d 07       		.uleb128 0x7
 585 018e 65010000 		.4byte	.LASF33
 586 0192 07       		.byte	0x7
 587 0193 CA       		.byte	0xca
 588 0194 61020000 		.4byte	0x261
 589 0198 10       		.byte	0x10
 590 0199 07       		.uleb128 0x7
 591 019a 55030000 		.4byte	.LASF34
 592 019e 07       		.byte	0x7
 593 019f CB       		.byte	0xcb
 594 01a0 61020000 		.4byte	0x261
 595 01a4 14       		.byte	0x14
 596 01a5 07       		.uleb128 0x7
 597 01a6 FC060000 		.4byte	.LASF35
 598 01aa 07       		.byte	0x7
 599 01ab D2       		.byte	0xd2
 600 01ac B5070000 		.4byte	0x7b5
 601 01b0 18       		.byte	0x18
 602 01b1 07       		.uleb128 0x7
 603 01b2 64040000 		.4byte	.LASF36
 604 01b6 07       		.byte	0x7
 605 01b7 DD       		.byte	0xdd
 606 01b8 EE000000 		.4byte	0xee
 607 01bc 1C       		.byte	0x1c
 608 01bd 07       		.uleb128 0x7
 609 01be 94040000 		.4byte	.LASF37
 610 01c2 07       		.byte	0x7
 611 01c3 E1       		.byte	0xe1
 612 01c4 E3000000 		.4byte	0xe3
 613 01c8 1D       		.byte	0x1d
 614 01c9 07       		.uleb128 0x7
 615 01ca D7060000 		.4byte	.LASF38
 616 01ce 07       		.byte	0x7
 617 01cf E6       		.byte	0xe6
 618 01d0 F9000000 		.4byte	0xf9
 619 01d4 1E       		.byte	0x1e
 620 01d5 07       		.uleb128 0x7
 621 01d6 6C040000 		.4byte	.LASF39
 622 01da 07       		.byte	0x7
 623 01db EC       		.byte	0xec
 624 01dc 04010000 		.4byte	0x104
 625 01e0 1F       		.byte	0x1f
 626 01e1 07       		.uleb128 0x7
ARM GAS  /tmp/ccju6RJA.s 			page 12


 627 01e2 EE010000 		.4byte	.LASF40
 628 01e6 07       		.byte	0x7
 629 01e7 F3       		.byte	0xf3
 630 01e8 C7070000 		.4byte	0x7c7
 631 01ec 20       		.byte	0x20
 632 01ed 08       		.uleb128 0x8
 633 01ee 705F7500 		.ascii	"p_u\000"
 634 01f2 07       		.byte	0x7
 635 01f3 3101     		.2byte	0x131
 636 01f5 F0060000 		.4byte	0x6f0
 637 01f9 24       		.byte	0x24
 638 01fa 09       		.uleb128 0x9
 639 01fb 01030000 		.4byte	.LASF41
 640 01ff 07       		.byte	0x7
 641 0200 3601     		.2byte	0x136
 642 0202 67020000 		.4byte	0x267
 643 0206 28       		.byte	0x28
 644 0207 09       		.uleb128 0x9
 645 0208 05020000 		.4byte	.LASF42
 646 020c 07       		.byte	0x7
 647 020d 3C01     		.2byte	0x13c
 648 020f 8B020000 		.4byte	0x28b
 649 0213 2C       		.byte	0x2c
 650 0214 09       		.uleb128 0x9
 651 0215 0E070000 		.4byte	.LASF43
 652 0219 07       		.byte	0x7
 653 021a 4001     		.2byte	0x140
 654 021c 1A010000 		.4byte	0x11a
 655 0220 34       		.byte	0x34
 656 0221 09       		.uleb128 0x9
 657 0222 D3040000 		.4byte	.LASF44
 658 0226 07       		.byte	0x7
 659 0227 4601     		.2byte	0x146
 660 0229 25010000 		.4byte	0x125
 661 022d 38       		.byte	0x38
 662 022e 09       		.uleb128 0x9
 663 022f 50040000 		.4byte	.LASF45
 664 0233 07       		.byte	0x7
 665 0234 4D01     		.2byte	0x14d
 666 0236 AF070000 		.4byte	0x7af
 667 023a 3C       		.byte	0x3c
 668 023b 09       		.uleb128 0x9
 669 023c 75060000 		.4byte	.LASF46
 670 0240 07       		.byte	0x7
 671 0241 5101     		.2byte	0x151
 672 0243 0F010000 		.4byte	0x10f
 673 0247 40       		.byte	0x40
 674 0248 09       		.uleb128 0x9
 675 0249 16010000 		.4byte	.LASF47
 676 024d 07       		.byte	0x7
 677 024e 5801     		.2byte	0x158
 678 0250 3E030000 		.4byte	0x33e
 679 0254 44       		.byte	0x44
 680 0255 00       		.byte	0
 681 0256 03       		.uleb128 0x3
 682 0257 14030000 		.4byte	.LASF48
 683 025b 06       		.byte	0x6
ARM GAS  /tmp/ccju6RJA.s 			page 13


 684 025c 44       		.byte	0x44
 685 025d 61020000 		.4byte	0x261
 686 0261 0A       		.uleb128 0xa
 687 0262 04       		.byte	0x4
 688 0263 46010000 		.4byte	0x146
 689 0267 03       		.uleb128 0x3
 690 0268 00000000 		.4byte	.LASF49
 691 026c 06       		.byte	0x6
 692 026d 49       		.byte	0x49
 693 026e 72020000 		.4byte	0x272
 694 0272 06       		.uleb128 0x6
 695 0273 F6040000 		.4byte	.LASF51
 696 0277 04       		.byte	0x4
 697 0278 07       		.byte	0x7
 698 0279 B0       		.byte	0xb0
 699 027a 8B020000 		.4byte	0x28b
 700 027e 07       		.uleb128 0x7
 701 027f 8D040000 		.4byte	.LASF29
 702 0283 07       		.byte	0x7
 703 0284 B1       		.byte	0xb1
 704 0285 61020000 		.4byte	0x261
 705 0289 00       		.byte	0
 706 028a 00       		.byte	0
 707 028b 03       		.uleb128 0x3
 708 028c BE060000 		.4byte	.LASF52
 709 0290 06       		.byte	0x6
 710 0291 50       		.byte	0x50
 711 0292 96020000 		.4byte	0x296
 712 0296 06       		.uleb128 0x6
 713 0297 C5000000 		.4byte	.LASF53
 714 029b 08       		.byte	0x8
 715 029c 07       		.byte	0x7
 716 029d B7       		.byte	0xb7
 717 029e BB020000 		.4byte	0x2bb
 718 02a2 07       		.uleb128 0x7
 719 02a3 8D040000 		.4byte	.LASF29
 720 02a7 07       		.byte	0x7
 721 02a8 B8       		.byte	0xb8
 722 02a9 61020000 		.4byte	0x261
 723 02ad 00       		.byte	0
 724 02ae 07       		.uleb128 0x7
 725 02af DF030000 		.4byte	.LASF30
 726 02b3 07       		.byte	0x7
 727 02b4 B9       		.byte	0xb9
 728 02b5 61020000 		.4byte	0x261
 729 02b9 04       		.byte	0x4
 730 02ba 00       		.byte	0
 731 02bb 03       		.uleb128 0x3
 732 02bc 0F000000 		.4byte	.LASF54
 733 02c0 06       		.byte	0x6
 734 02c1 57       		.byte	0x57
 735 02c2 C6020000 		.4byte	0x2c6
 736 02c6 0B       		.uleb128 0xb
 737 02c7 C7020000 		.4byte	.LASF55
 738 02cb 1C       		.byte	0x1c
 739 02cc 07       		.byte	0x7
 740 02cd 9001     		.2byte	0x190
ARM GAS  /tmp/ccju6RJA.s 			page 14


 741 02cf 22030000 		.4byte	0x322
 742 02d3 09       		.uleb128 0x9
 743 02d4 EE040000 		.4byte	.LASF56
 744 02d8 07       		.byte	0x7
 745 02d9 9101     		.2byte	0x191
 746 02db 8B020000 		.4byte	0x28b
 747 02df 00       		.byte	0
 748 02e0 09       		.uleb128 0x9
 749 02e1 76040000 		.4byte	.LASF57
 750 02e5 07       		.byte	0x7
 751 02e6 9201     		.2byte	0x192
 752 02e8 0F010000 		.4byte	0x10f
 753 02ec 08       		.byte	0x8
 754 02ed 09       		.uleb128 0x9
 755 02ee 5D030000 		.4byte	.LASF58
 756 02f2 07       		.byte	0x7
 757 02f3 9401     		.2byte	0x194
 758 02f5 70050000 		.4byte	0x570
 759 02f9 0C       		.byte	0xc
 760 02fa 09       		.uleb128 0x9
 761 02fb 86010000 		.4byte	.LASF59
 762 02ff 07       		.byte	0x7
 763 0300 9701     		.2byte	0x197
 764 0302 61020000 		.4byte	0x261
 765 0306 10       		.byte	0x10
 766 0307 09       		.uleb128 0x9
 767 0308 A0030000 		.4byte	.LASF60
 768 030c 07       		.byte	0x7
 769 030d 9801     		.2byte	0x198
 770 030f 61020000 		.4byte	0x261
 771 0313 14       		.byte	0x14
 772 0314 09       		.uleb128 0x9
 773 0315 96030000 		.4byte	.LASF61
 774 0319 07       		.byte	0x7
 775 031a 9B01     		.2byte	0x19b
 776 031c 61020000 		.4byte	0x261
 777 0320 18       		.byte	0x18
 778 0321 00       		.byte	0
 779 0322 03       		.uleb128 0x3
 780 0323 80060000 		.4byte	.LASF62
 781 0327 06       		.byte	0x6
 782 0328 5C       		.byte	0x5c
 783 0329 2D030000 		.4byte	0x32d
 784 032d 0A       		.uleb128 0xa
 785 032e 04       		.byte	0x4
 786 032f 33030000 		.4byte	0x333
 787 0333 0C       		.uleb128 0xc
 788 0334 3E030000 		.4byte	0x33e
 789 0338 0D       		.uleb128 0xd
 790 0339 3E030000 		.4byte	0x33e
 791 033d 00       		.byte	0
 792 033e 0E       		.uleb128 0xe
 793 033f 04       		.byte	0x4
 794 0340 03       		.uleb128 0x3
 795 0341 CF030000 		.4byte	.LASF63
 796 0345 06       		.byte	0x6
 797 0346 61       		.byte	0x61
ARM GAS  /tmp/ccju6RJA.s 			page 15


 798 0347 4B030000 		.4byte	0x34b
 799 034b 0B       		.uleb128 0xb
 800 034c B5040000 		.4byte	.LASF64
 801 0350 14       		.byte	0x14
 802 0351 07       		.byte	0x7
 803 0352 6B01     		.2byte	0x16b
 804 0354 9A030000 		.4byte	0x39a
 805 0358 09       		.uleb128 0x9
 806 0359 E6010000 		.4byte	.LASF65
 807 035d 07       		.byte	0x7
 808 035e 6C01     		.2byte	0x16c
 809 0360 CC070000 		.4byte	0x7cc
 810 0364 00       		.byte	0
 811 0365 09       		.uleb128 0x9
 812 0366 9C010000 		.4byte	.LASF66
 813 036a 07       		.byte	0x7
 814 036b 6D01     		.2byte	0x16d
 815 036d CC070000 		.4byte	0x7cc
 816 0371 04       		.byte	0x4
 817 0372 09       		.uleb128 0x9
 818 0373 FC010000 		.4byte	.LASF67
 819 0377 07       		.byte	0x7
 820 0378 6E01     		.2byte	0x16e
 821 037a 3B010000 		.4byte	0x13b
 822 037e 08       		.byte	0x8
 823 037f 09       		.uleb128 0x9
 824 0380 35070000 		.4byte	.LASF68
 825 0384 07       		.byte	0x7
 826 0385 6F01     		.2byte	0x16f
 827 0387 22030000 		.4byte	0x322
 828 038b 0C       		.byte	0xc
 829 038c 09       		.uleb128 0x9
 830 038d AD060000 		.4byte	.LASF69
 831 0391 07       		.byte	0x7
 832 0392 7101     		.2byte	0x171
 833 0394 3E030000 		.4byte	0x33e
 834 0398 10       		.byte	0x10
 835 0399 00       		.byte	0
 836 039a 03       		.uleb128 0x3
 837 039b A2000000 		.4byte	.LASF70
 838 039f 06       		.byte	0x6
 839 03a0 66       		.byte	0x66
 840 03a1 A5030000 		.4byte	0x3a5
 841 03a5 0B       		.uleb128 0xb
 842 03a6 32030000 		.4byte	.LASF71
 843 03aa 10       		.byte	0x10
 844 03ab 07       		.byte	0x7
 845 03ac 7B01     		.2byte	0x17b
 846 03ae E7030000 		.4byte	0x3e7
 847 03b2 09       		.uleb128 0x9
 848 03b3 E6010000 		.4byte	.LASF65
 849 03b7 07       		.byte	0x7
 850 03b8 7C01     		.2byte	0x17c
 851 03ba CC070000 		.4byte	0x7cc
 852 03be 00       		.byte	0
 853 03bf 09       		.uleb128 0x9
 854 03c0 9C010000 		.4byte	.LASF66
ARM GAS  /tmp/ccju6RJA.s 			page 16


 855 03c4 07       		.byte	0x7
 856 03c5 7E01     		.2byte	0x17e
 857 03c7 CC070000 		.4byte	0x7cc
 858 03cb 04       		.byte	0x4
 859 03cc 09       		.uleb128 0x9
 860 03cd FC010000 		.4byte	.LASF67
 861 03d1 07       		.byte	0x7
 862 03d2 8001     		.2byte	0x180
 863 03d4 3B010000 		.4byte	0x13b
 864 03d8 08       		.byte	0x8
 865 03d9 09       		.uleb128 0x9
 866 03da 03070000 		.4byte	.LASF72
 867 03de 07       		.byte	0x7
 868 03df 8201     		.2byte	0x182
 869 03e1 C7070000 		.4byte	0x7c7
 870 03e5 0C       		.byte	0xc
 871 03e6 00       		.byte	0
 872 03e7 03       		.uleb128 0x3
 873 03e8 5B000000 		.4byte	.LASF73
 874 03ec 06       		.byte	0x6
 875 03ed 6B       		.byte	0x6b
 876 03ee F2030000 		.4byte	0x3f2
 877 03f2 0B       		.uleb128 0xb
 878 03f3 1F040000 		.4byte	.LASF74
 879 03f7 04       		.byte	0x4
 880 03f8 07       		.byte	0x7
 881 03f9 A201     		.2byte	0x1a2
 882 03fb 0D040000 		.4byte	0x40d
 883 03ff 09       		.uleb128 0x9
 884 0400 94060000 		.4byte	.LASF75
 885 0404 07       		.byte	0x7
 886 0405 AA01     		.2byte	0x1aa
 887 0407 D2070000 		.4byte	0x7d2
 888 040b 00       		.byte	0
 889 040c 00       		.byte	0
 890 040d 03       		.uleb128 0x3
 891 040e B3020000 		.4byte	.LASF76
 892 0412 06       		.byte	0x6
 893 0413 70       		.byte	0x70
 894 0414 18040000 		.4byte	0x418
 895 0418 0F       		.uleb128 0xf
 896 0419 9C040000 		.4byte	.LASF77
 897 041d 5802     		.2byte	0x258
 898 041f 07       		.byte	0x7
 899 0420 C201     		.2byte	0x1c2
 900 0422 74040000 		.4byte	0x474
 901 0426 09       		.uleb128 0x9
 902 0427 E7060000 		.4byte	.LASF78
 903 042b 07       		.byte	0x7
 904 042c C601     		.2byte	0x1c6
 905 042e BB020000 		.4byte	0x2bb
 906 0432 00       		.byte	0
 907 0433 09       		.uleb128 0x9
 908 0434 26010000 		.4byte	.LASF79
 909 0438 07       		.byte	0x7
 910 0439 CA01     		.2byte	0x1ca
 911 043b 9A030000 		.4byte	0x39a
ARM GAS  /tmp/ccju6RJA.s 			page 17


 912 043f 1C       		.byte	0x1c
 913 0440 08       		.uleb128 0x8
 914 0441 64626700 		.ascii	"dbg\000"
 915 0445 07       		.byte	0x7
 916 0446 CE01     		.2byte	0x1ce
 917 0448 E7030000 		.4byte	0x3e7
 918 044c 2C       		.byte	0x2c
 919 044d 09       		.uleb128 0x9
 920 044e 97000000 		.4byte	.LASF80
 921 0452 07       		.byte	0x7
 922 0453 D201     		.2byte	0x1d2
 923 0455 46010000 		.4byte	0x146
 924 0459 30       		.byte	0x30
 925 045a 08       		.uleb128 0x8
 926 045b 746D00   		.ascii	"tm\000"
 927 045e 07       		.byte	0x7
 928 045f D701     		.2byte	0x1d7
 929 0461 E5060000 		.4byte	0x6e5
 930 0465 78       		.byte	0x78
 931 0466 09       		.uleb128 0x9
 932 0467 B1010000 		.4byte	.LASF81
 933 046b 07       		.byte	0x7
 934 046c E301     		.2byte	0x1e3
 935 046e D7070000 		.4byte	0x7d7
 936 0472 80       		.byte	0x80
 937 0473 00       		.byte	0
 938 0474 04       		.uleb128 0x4
 939 0475 04       		.byte	0x4
 940 0476 07       		.byte	0x7
 941 0477 0B030000 		.4byte	.LASF82
 942 047b 10       		.uleb128 0x10
 943 047c B8000000 		.4byte	0xb8
 944 0480 8B040000 		.4byte	0x48b
 945 0484 11       		.uleb128 0x11
 946 0485 74040000 		.4byte	0x474
 947 0489 01       		.byte	0x1
 948 048a 00       		.byte	0
 949 048b 10       		.uleb128 0x10
 950 048c B8000000 		.4byte	0xb8
 951 0490 9B040000 		.4byte	0x49b
 952 0494 11       		.uleb128 0x11
 953 0495 74040000 		.4byte	0x474
 954 0499 03       		.byte	0x3
 955 049a 00       		.byte	0
 956 049b 12       		.uleb128 0x12
 957 049c 18       		.byte	0x18
 958 049d 08       		.byte	0x8
 959 049e CC01     		.2byte	0x1cc
 960 04a0 F2040000 		.4byte	0x4f2
 961 04a4 08       		.uleb128 0x8
 962 04a5 494D5200 		.ascii	"IMR\000"
 963 04a9 08       		.byte	0x8
 964 04aa CE01     		.2byte	0x1ce
 965 04ac D3000000 		.4byte	0xd3
 966 04b0 00       		.byte	0
 967 04b1 08       		.uleb128 0x8
 968 04b2 454D5200 		.ascii	"EMR\000"
ARM GAS  /tmp/ccju6RJA.s 			page 18


 969 04b6 08       		.byte	0x8
 970 04b7 CF01     		.2byte	0x1cf
 971 04b9 D3000000 		.4byte	0xd3
 972 04bd 04       		.byte	0x4
 973 04be 09       		.uleb128 0x9
 974 04bf B3030000 		.4byte	.LASF83
 975 04c3 08       		.byte	0x8
 976 04c4 D001     		.2byte	0x1d0
 977 04c6 D3000000 		.4byte	0xd3
 978 04ca 08       		.byte	0x8
 979 04cb 09       		.uleb128 0x9
 980 04cc 4B040000 		.4byte	.LASF84
 981 04d0 08       		.byte	0x8
 982 04d1 D101     		.2byte	0x1d1
 983 04d3 D3000000 		.4byte	0xd3
 984 04d7 0C       		.byte	0xc
 985 04d8 09       		.uleb128 0x9
 986 04d9 6A000000 		.4byte	.LASF85
 987 04dd 08       		.byte	0x8
 988 04de D201     		.2byte	0x1d2
 989 04e0 D3000000 		.4byte	0xd3
 990 04e4 10       		.byte	0x10
 991 04e5 08       		.uleb128 0x8
 992 04e6 505200   		.ascii	"PR\000"
 993 04e9 08       		.byte	0x8
 994 04ea D301     		.2byte	0x1d3
 995 04ec D3000000 		.4byte	0xd3
 996 04f0 14       		.byte	0x14
 997 04f1 00       		.byte	0
 998 04f2 13       		.uleb128 0x13
 999 04f3 14070000 		.4byte	.LASF86
 1000 04f7 08       		.byte	0x8
 1001 04f8 D401     		.2byte	0x1d4
 1002 04fa 9B040000 		.4byte	0x49b
 1003 04fe 12       		.uleb128 0x12
 1004 04ff 24       		.byte	0x24
 1005 0500 08       		.byte	0x8
 1006 0501 3202     		.2byte	0x232
 1007 0503 49050000 		.4byte	0x549
 1008 0507 09       		.uleb128 0x9
 1009 0508 70000000 		.4byte	.LASF87
 1010 050c 08       		.byte	0x8
 1011 050d 3402     		.2byte	0x234
 1012 050f D3000000 		.4byte	0xd3
 1013 0513 00       		.byte	0
 1014 0514 08       		.uleb128 0x8
 1015 0515 504D4300 		.ascii	"PMC\000"
 1016 0519 08       		.byte	0x8
 1017 051a 3502     		.2byte	0x235
 1018 051c D3000000 		.4byte	0xd3
 1019 0520 04       		.byte	0x4
 1020 0521 09       		.uleb128 0x9
 1021 0522 3D070000 		.4byte	.LASF88
 1022 0526 08       		.byte	0x8
 1023 0527 3602     		.2byte	0x236
 1024 0529 49050000 		.4byte	0x549
 1025 052d 08       		.byte	0x8
ARM GAS  /tmp/ccju6RJA.s 			page 19


 1026 052e 09       		.uleb128 0x9
 1027 052f 7D040000 		.4byte	.LASF89
 1028 0533 08       		.byte	0x8
 1029 0534 3702     		.2byte	0x237
 1030 0536 7B040000 		.4byte	0x47b
 1031 053a 18       		.byte	0x18
 1032 053b 09       		.uleb128 0x9
 1033 053c 10020000 		.4byte	.LASF90
 1034 0540 08       		.byte	0x8
 1035 0541 3802     		.2byte	0x238
 1036 0543 D3000000 		.4byte	0xd3
 1037 0547 20       		.byte	0x20
 1038 0548 00       		.byte	0
 1039 0549 05       		.uleb128 0x5
 1040 054a 8B040000 		.4byte	0x48b
 1041 054e 13       		.uleb128 0x13
 1042 054f B8030000 		.4byte	.LASF91
 1043 0553 08       		.byte	0x8
 1044 0554 3902     		.2byte	0x239
 1045 0556 FE040000 		.4byte	0x4fe
 1046 055a 03       		.uleb128 0x3
 1047 055b 93010000 		.4byte	.LASF92
 1048 055f 09       		.byte	0x9
 1049 0560 65       		.byte	0x65
 1050 0561 3E030000 		.4byte	0x33e
 1051 0565 03       		.uleb128 0x3
 1052 0566 EB020000 		.4byte	.LASF93
 1053 056a 09       		.byte	0x9
 1054 056b 6D       		.byte	0x6d
 1055 056c C3000000 		.4byte	0xc3
 1056 0570 06       		.uleb128 0x6
 1057 0571 2A020000 		.4byte	.LASF94
 1058 0575 04       		.byte	0x4
 1059 0576 09       		.byte	0x9
 1060 0577 89       		.byte	0x89
 1061 0578 89050000 		.4byte	0x589
 1062 057c 14       		.uleb128 0x14
 1063 057d 72313300 		.ascii	"r13\000"
 1064 0581 09       		.byte	0x9
 1065 0582 8A       		.byte	0x8a
 1066 0583 CA060000 		.4byte	0x6ca
 1067 0587 00       		.byte	0
 1068 0588 00       		.byte	0
 1069 0589 06       		.uleb128 0x6
 1070 058a 4F000000 		.4byte	.LASF95
 1071 058e 64       		.byte	0x64
 1072 058f 0A       		.byte	0xa
 1073 0590 F4       		.byte	0xf4
 1074 0591 CA060000 		.4byte	0x6ca
 1075 0595 14       		.uleb128 0x14
 1076 0596 73313600 		.ascii	"s16\000"
 1077 059a 0A       		.byte	0xa
 1078 059b F6       		.byte	0xf6
 1079 059c 5A050000 		.4byte	0x55a
 1080 05a0 00       		.byte	0
 1081 05a1 14       		.uleb128 0x14
 1082 05a2 73313700 		.ascii	"s17\000"
ARM GAS  /tmp/ccju6RJA.s 			page 20


 1083 05a6 0A       		.byte	0xa
 1084 05a7 F7       		.byte	0xf7
 1085 05a8 5A050000 		.4byte	0x55a
 1086 05ac 04       		.byte	0x4
 1087 05ad 14       		.uleb128 0x14
 1088 05ae 73313800 		.ascii	"s18\000"
 1089 05b2 0A       		.byte	0xa
 1090 05b3 F8       		.byte	0xf8
 1091 05b4 5A050000 		.4byte	0x55a
 1092 05b8 08       		.byte	0x8
 1093 05b9 14       		.uleb128 0x14
 1094 05ba 73313900 		.ascii	"s19\000"
 1095 05be 0A       		.byte	0xa
 1096 05bf F9       		.byte	0xf9
 1097 05c0 5A050000 		.4byte	0x55a
 1098 05c4 0C       		.byte	0xc
 1099 05c5 14       		.uleb128 0x14
 1100 05c6 73323000 		.ascii	"s20\000"
 1101 05ca 0A       		.byte	0xa
 1102 05cb FA       		.byte	0xfa
 1103 05cc 5A050000 		.4byte	0x55a
 1104 05d0 10       		.byte	0x10
 1105 05d1 14       		.uleb128 0x14
 1106 05d2 73323100 		.ascii	"s21\000"
 1107 05d6 0A       		.byte	0xa
 1108 05d7 FB       		.byte	0xfb
 1109 05d8 5A050000 		.4byte	0x55a
 1110 05dc 14       		.byte	0x14
 1111 05dd 14       		.uleb128 0x14
 1112 05de 73323200 		.ascii	"s22\000"
 1113 05e2 0A       		.byte	0xa
 1114 05e3 FC       		.byte	0xfc
 1115 05e4 5A050000 		.4byte	0x55a
 1116 05e8 18       		.byte	0x18
 1117 05e9 14       		.uleb128 0x14
 1118 05ea 73323300 		.ascii	"s23\000"
 1119 05ee 0A       		.byte	0xa
 1120 05ef FD       		.byte	0xfd
 1121 05f0 5A050000 		.4byte	0x55a
 1122 05f4 1C       		.byte	0x1c
 1123 05f5 14       		.uleb128 0x14
 1124 05f6 73323400 		.ascii	"s24\000"
 1125 05fa 0A       		.byte	0xa
 1126 05fb FE       		.byte	0xfe
 1127 05fc 5A050000 		.4byte	0x55a
 1128 0600 20       		.byte	0x20
 1129 0601 14       		.uleb128 0x14
 1130 0602 73323500 		.ascii	"s25\000"
 1131 0606 0A       		.byte	0xa
 1132 0607 FF       		.byte	0xff
 1133 0608 5A050000 		.4byte	0x55a
 1134 060c 24       		.byte	0x24
 1135 060d 08       		.uleb128 0x8
 1136 060e 73323600 		.ascii	"s26\000"
 1137 0612 0A       		.byte	0xa
 1138 0613 0001     		.2byte	0x100
 1139 0615 5A050000 		.4byte	0x55a
ARM GAS  /tmp/ccju6RJA.s 			page 21


 1140 0619 28       		.byte	0x28
 1141 061a 08       		.uleb128 0x8
 1142 061b 73323700 		.ascii	"s27\000"
 1143 061f 0A       		.byte	0xa
 1144 0620 0101     		.2byte	0x101
 1145 0622 5A050000 		.4byte	0x55a
 1146 0626 2C       		.byte	0x2c
 1147 0627 08       		.uleb128 0x8
 1148 0628 73323800 		.ascii	"s28\000"
 1149 062c 0A       		.byte	0xa
 1150 062d 0201     		.2byte	0x102
 1151 062f 5A050000 		.4byte	0x55a
 1152 0633 30       		.byte	0x30
 1153 0634 08       		.uleb128 0x8
 1154 0635 73323900 		.ascii	"s29\000"
 1155 0639 0A       		.byte	0xa
 1156 063a 0301     		.2byte	0x103
 1157 063c 5A050000 		.4byte	0x55a
 1158 0640 34       		.byte	0x34
 1159 0641 08       		.uleb128 0x8
 1160 0642 73333000 		.ascii	"s30\000"
 1161 0646 0A       		.byte	0xa
 1162 0647 0401     		.2byte	0x104
 1163 0649 5A050000 		.4byte	0x55a
 1164 064d 38       		.byte	0x38
 1165 064e 08       		.uleb128 0x8
 1166 064f 73333100 		.ascii	"s31\000"
 1167 0653 0A       		.byte	0xa
 1168 0654 0501     		.2byte	0x105
 1169 0656 5A050000 		.4byte	0x55a
 1170 065a 3C       		.byte	0x3c
 1171 065b 08       		.uleb128 0x8
 1172 065c 723400   		.ascii	"r4\000"
 1173 065f 0A       		.byte	0xa
 1174 0660 0701     		.2byte	0x107
 1175 0662 5A050000 		.4byte	0x55a
 1176 0666 40       		.byte	0x40
 1177 0667 08       		.uleb128 0x8
 1178 0668 723500   		.ascii	"r5\000"
 1179 066b 0A       		.byte	0xa
 1180 066c 0801     		.2byte	0x108
 1181 066e 5A050000 		.4byte	0x55a
 1182 0672 44       		.byte	0x44
 1183 0673 08       		.uleb128 0x8
 1184 0674 723600   		.ascii	"r6\000"
 1185 0677 0A       		.byte	0xa
 1186 0678 0901     		.2byte	0x109
 1187 067a 5A050000 		.4byte	0x55a
 1188 067e 48       		.byte	0x48
 1189 067f 08       		.uleb128 0x8
 1190 0680 723700   		.ascii	"r7\000"
 1191 0683 0A       		.byte	0xa
 1192 0684 0A01     		.2byte	0x10a
 1193 0686 5A050000 		.4byte	0x55a
 1194 068a 4C       		.byte	0x4c
 1195 068b 08       		.uleb128 0x8
 1196 068c 723800   		.ascii	"r8\000"
ARM GAS  /tmp/ccju6RJA.s 			page 22


 1197 068f 0A       		.byte	0xa
 1198 0690 0B01     		.2byte	0x10b
 1199 0692 5A050000 		.4byte	0x55a
 1200 0696 50       		.byte	0x50
 1201 0697 08       		.uleb128 0x8
 1202 0698 723900   		.ascii	"r9\000"
 1203 069b 0A       		.byte	0xa
 1204 069c 0C01     		.2byte	0x10c
 1205 069e 5A050000 		.4byte	0x55a
 1206 06a2 54       		.byte	0x54
 1207 06a3 08       		.uleb128 0x8
 1208 06a4 72313000 		.ascii	"r10\000"
 1209 06a8 0A       		.byte	0xa
 1210 06a9 0D01     		.2byte	0x10d
 1211 06ab 5A050000 		.4byte	0x55a
 1212 06af 58       		.byte	0x58
 1213 06b0 08       		.uleb128 0x8
 1214 06b1 72313100 		.ascii	"r11\000"
 1215 06b5 0A       		.byte	0xa
 1216 06b6 0E01     		.2byte	0x10e
 1217 06b8 5A050000 		.4byte	0x55a
 1218 06bc 5C       		.byte	0x5c
 1219 06bd 08       		.uleb128 0x8
 1220 06be 6C7200   		.ascii	"lr\000"
 1221 06c1 0A       		.byte	0xa
 1222 06c2 0F01     		.2byte	0x10f
 1223 06c4 5A050000 		.4byte	0x55a
 1224 06c8 60       		.byte	0x60
 1225 06c9 00       		.byte	0
 1226 06ca 0A       		.uleb128 0xa
 1227 06cb 04       		.byte	0x4
 1228 06cc 89050000 		.4byte	0x589
 1229 06d0 15       		.uleb128 0x15
 1230 06d1 04       		.byte	0x4
 1231 06d2 0B       		.byte	0xb
 1232 06d3 38       		.byte	0x38
 1233 06d4 E5060000 		.4byte	0x6e5
 1234 06d8 07       		.uleb128 0x7
 1235 06d9 9E060000 		.4byte	.LASF96
 1236 06dd 0B       		.byte	0xb
 1237 06de 3C       		.byte	0x3c
 1238 06df D8000000 		.4byte	0xd8
 1239 06e3 00       		.byte	0
 1240 06e4 00       		.byte	0
 1241 06e5 03       		.uleb128 0x3
 1242 06e6 7A030000 		.4byte	.LASF97
 1243 06ea 0B       		.byte	0xb
 1244 06eb 3D       		.byte	0x3d
 1245 06ec D0060000 		.4byte	0x6d0
 1246 06f0 16       		.uleb128 0x16
 1247 06f1 04       		.byte	0x4
 1248 06f2 07       		.byte	0x7
 1249 06f3 FA       		.byte	0xfa
 1250 06f4 4D070000 		.4byte	0x74d
 1251 06f8 17       		.uleb128 0x17
 1252 06f9 A6040000 		.4byte	.LASF98
 1253 06fd 07       		.byte	0x7
ARM GAS  /tmp/ccju6RJA.s 			page 23


 1254 06fe 0101     		.2byte	0x101
 1255 0700 1A010000 		.4byte	0x11a
 1256 0704 17       		.uleb128 0x17
 1257 0705 8E000000 		.4byte	.LASF99
 1258 0709 07       		.byte	0x7
 1259 070a 0801     		.2byte	0x108
 1260 070c 1A010000 		.4byte	0x11a
 1261 0710 17       		.uleb128 0x17
 1262 0711 F5060000 		.4byte	.LASF100
 1263 0715 07       		.byte	0x7
 1264 0716 0F01     		.2byte	0x10f
 1265 0718 3E030000 		.4byte	0x33e
 1266 071c 17       		.uleb128 0x17
 1267 071d 49030000 		.4byte	.LASF101
 1268 0721 07       		.byte	0x7
 1269 0722 1601     		.2byte	0x116
 1270 0724 4D070000 		.4byte	0x74d
 1271 0728 17       		.uleb128 0x17
 1272 0729 F5010000 		.4byte	.LASF102
 1273 072d 07       		.byte	0x7
 1274 072e 1E01     		.2byte	0x11e
 1275 0730 78070000 		.4byte	0x778
 1276 0734 17       		.uleb128 0x17
 1277 0735 E7040000 		.4byte	.LASF103
 1278 0739 07       		.byte	0x7
 1279 073a 2701     		.2byte	0x127
 1280 073c AF070000 		.4byte	0x7af
 1281 0740 17       		.uleb128 0x17
 1282 0741 86040000 		.4byte	.LASF104
 1283 0745 07       		.byte	0x7
 1284 0746 2F01     		.2byte	0x12f
 1285 0748 25010000 		.4byte	0x125
 1286 074c 00       		.byte	0
 1287 074d 0A       		.uleb128 0xa
 1288 074e 04       		.byte	0x4
 1289 074f 56020000 		.4byte	0x256
 1290 0753 06       		.uleb128 0x6
 1291 0754 C6040000 		.4byte	.LASF105
 1292 0758 0C       		.byte	0xc
 1293 0759 0C       		.byte	0xc
 1294 075a 34       		.byte	0x34
 1295 075b 78070000 		.4byte	0x778
 1296 075f 07       		.uleb128 0x7
 1297 0760 6D010000 		.4byte	.LASF106
 1298 0764 0C       		.byte	0xc
 1299 0765 35       		.byte	0x35
 1300 0766 8B020000 		.4byte	0x28b
 1301 076a 00       		.byte	0
 1302 076b 07       		.uleb128 0x7
 1303 076c 24020000 		.4byte	.LASF107
 1304 0770 0C       		.byte	0xc
 1305 0771 37       		.byte	0x37
 1306 0772 30010000 		.4byte	0x130
 1307 0776 08       		.byte	0x8
 1308 0777 00       		.byte	0
 1309 0778 0A       		.uleb128 0xa
 1310 0779 04       		.byte	0x4
ARM GAS  /tmp/ccju6RJA.s 			page 24


 1311 077a 53070000 		.4byte	0x753
 1312 077e 06       		.uleb128 0x6
 1313 077f CE060000 		.4byte	.LASF108
 1314 0783 10       		.byte	0x10
 1315 0784 0D       		.byte	0xd
 1316 0785 39       		.byte	0x39
 1317 0786 AF070000 		.4byte	0x7af
 1318 078a 07       		.uleb128 0x7
 1319 078b 1E010000 		.4byte	.LASF109
 1320 078f 0D       		.byte	0xd
 1321 0790 3A       		.byte	0x3a
 1322 0791 8B020000 		.4byte	0x28b
 1323 0795 00       		.byte	0
 1324 0796 07       		.uleb128 0x7
 1325 0797 27070000 		.4byte	.LASF110
 1326 079b 0D       		.byte	0xd
 1327 079c 3C       		.byte	0x3c
 1328 079d 61020000 		.4byte	0x261
 1329 07a1 08       		.byte	0x8
 1330 07a2 07       		.uleb128 0x7
 1331 07a3 64060000 		.4byte	.LASF111
 1332 07a7 0D       		.byte	0xd
 1333 07a8 3E       		.byte	0x3e
 1334 07a9 F2070000 		.4byte	0x7f2
 1335 07ad 0C       		.byte	0xc
 1336 07ae 00       		.byte	0
 1337 07af 0A       		.uleb128 0xa
 1338 07b0 04       		.byte	0x4
 1339 07b1 7E070000 		.4byte	0x77e
 1340 07b5 0A       		.uleb128 0xa
 1341 07b6 04       		.byte	0x4
 1342 07b7 BB070000 		.4byte	0x7bb
 1343 07bb 18       		.uleb128 0x18
 1344 07bc C0070000 		.4byte	0x7c0
 1345 07c0 04       		.uleb128 0x4
 1346 07c1 01       		.byte	0x1
 1347 07c2 08       		.byte	0x8
 1348 07c3 21050000 		.4byte	.LASF112
 1349 07c7 05       		.uleb128 0x5
 1350 07c8 3B010000 		.4byte	0x13b
 1351 07cc 0A       		.uleb128 0xa
 1352 07cd 04       		.byte	0x4
 1353 07ce 40030000 		.4byte	0x340
 1354 07d2 05       		.uleb128 0x5
 1355 07d3 B5070000 		.4byte	0x7b5
 1356 07d7 10       		.uleb128 0x10
 1357 07d8 65050000 		.4byte	0x565
 1358 07dc E7070000 		.4byte	0x7e7
 1359 07e0 11       		.uleb128 0x11
 1360 07e1 74040000 		.4byte	0x474
 1361 07e5 3A       		.byte	0x3a
 1362 07e6 00       		.byte	0
 1363 07e7 03       		.uleb128 0x3
 1364 07e8 A9010000 		.4byte	.LASF113
 1365 07ec 0D       		.byte	0xd
 1366 07ed 34       		.byte	0x34
 1367 07ee 7E070000 		.4byte	0x77e
ARM GAS  /tmp/ccju6RJA.s 			page 25


 1368 07f2 0A       		.uleb128 0xa
 1369 07f3 04       		.byte	0x4
 1370 07f4 E7070000 		.4byte	0x7e7
 1371 07f8 04       		.uleb128 0x4
 1372 07f9 01       		.byte	0x1
 1373 07fa 02       		.byte	0x2
 1374 07fb 2F040000 		.4byte	.LASF114
 1375 07ff 19       		.uleb128 0x19
 1376 0800 01       		.byte	0x1
 1377 0801 0E       		.byte	0xe
 1378 0802 3F       		.byte	0x3f
 1379 0803 1A080000 		.4byte	0x81a
 1380 0807 1A       		.uleb128 0x1a
 1381 0808 8B030000 		.4byte	.LASF115
 1382 080c 00       		.sleb128 0
 1383 080d 1A       		.uleb128 0x1a
 1384 080e 18050000 		.4byte	.LASF116
 1385 0812 01       		.sleb128 1
 1386 0813 1A       		.uleb128 0x1a
 1387 0814 F6020000 		.4byte	.LASF117
 1388 0818 02       		.sleb128 2
 1389 0819 00       		.byte	0
 1390 081a 03       		.uleb128 0x3
 1391 081b 27030000 		.4byte	.LASF118
 1392 081f 0E       		.byte	0xe
 1393 0820 43       		.byte	0x43
 1394 0821 FF070000 		.4byte	0x7ff
 1395 0825 03       		.uleb128 0x3
 1396 0826 B4060000 		.4byte	.LASF119
 1397 082a 0E       		.byte	0xe
 1398 082b 48       		.byte	0x48
 1399 082c 30080000 		.4byte	0x830
 1400 0830 06       		.uleb128 0x6
 1401 0831 B4060000 		.4byte	.LASF119
 1402 0835 08       		.byte	0x8
 1403 0836 0F       		.byte	0xf
 1404 0837 71       		.byte	0x71
 1405 0838 55080000 		.4byte	0x855
 1406 083c 07       		.uleb128 0x7
 1407 083d 44010000 		.4byte	.LASF120
 1408 0841 0F       		.byte	0xf
 1409 0842 75       		.byte	0x75
 1410 0843 1A080000 		.4byte	0x81a
 1411 0847 00       		.byte	0
 1412 0848 07       		.uleb128 0x7
 1413 0849 2B050000 		.4byte	.LASF121
 1414 084d 0F       		.byte	0xf
 1415 084e 79       		.byte	0x79
 1416 084f E2080000 		.4byte	0x8e2
 1417 0853 04       		.byte	0x4
 1418 0854 00       		.byte	0
 1419 0855 03       		.uleb128 0x3
 1420 0856 42000000 		.4byte	.LASF122
 1421 085a 0F       		.byte	0xf
 1422 085b 47       		.byte	0x47
 1423 085c B8000000 		.4byte	0xb8
 1424 0860 03       		.uleb128 0x3
ARM GAS  /tmp/ccju6RJA.s 			page 26


 1425 0861 32050000 		.4byte	.LASF123
 1426 0865 0F       		.byte	0xf
 1427 0866 4F       		.byte	0x4f
 1428 0867 6B080000 		.4byte	0x86b
 1429 086b 0A       		.uleb128 0xa
 1430 086c 04       		.byte	0x4
 1431 086d 71080000 		.4byte	0x871
 1432 0871 0C       		.uleb128 0xc
 1433 0872 81080000 		.4byte	0x881
 1434 0876 0D       		.uleb128 0xd
 1435 0877 81080000 		.4byte	0x881
 1436 087b 0D       		.uleb128 0xd
 1437 087c 55080000 		.4byte	0x855
 1438 0880 00       		.byte	0
 1439 0881 0A       		.uleb128 0xa
 1440 0882 04       		.byte	0x4
 1441 0883 25080000 		.4byte	0x825
 1442 0887 15       		.uleb128 0x15
 1443 0888 08       		.byte	0x8
 1444 0889 0F       		.byte	0xf
 1445 088a 54       		.byte	0x54
 1446 088b A7080000 		.4byte	0x8a7
 1447 088f 07       		.uleb128 0x7
 1448 0890 26050000 		.4byte	.LASF124
 1449 0894 0F       		.byte	0xf
 1450 0895 58       		.byte	0x58
 1451 0896 B8000000 		.4byte	0xb8
 1452 089a 00       		.byte	0
 1453 089b 14       		.uleb128 0x14
 1454 089c 636200   		.ascii	"cb\000"
 1455 089f 0F       		.byte	0xf
 1456 08a0 5F       		.byte	0x5f
 1457 08a1 60080000 		.4byte	0x860
 1458 08a5 04       		.byte	0x4
 1459 08a6 00       		.byte	0
 1460 08a7 03       		.uleb128 0x3
 1461 08a8 75010000 		.4byte	.LASF125
 1462 08ac 0F       		.byte	0xf
 1463 08ad 60       		.byte	0x60
 1464 08ae 87080000 		.4byte	0x887
 1465 08b2 15       		.uleb128 0x15
 1466 08b3 B8       		.byte	0xb8
 1467 08b4 0F       		.byte	0xf
 1468 08b5 66       		.byte	0x66
 1469 08b6 C7080000 		.4byte	0x8c7
 1470 08ba 07       		.uleb128 0x7
 1471 08bb 4A010000 		.4byte	.LASF126
 1472 08bf 0F       		.byte	0xf
 1473 08c0 6A       		.byte	0x6a
 1474 08c1 C7080000 		.4byte	0x8c7
 1475 08c5 00       		.byte	0
 1476 08c6 00       		.byte	0
 1477 08c7 10       		.uleb128 0x10
 1478 08c8 A7080000 		.4byte	0x8a7
 1479 08cc D7080000 		.4byte	0x8d7
 1480 08d0 11       		.uleb128 0x11
 1481 08d1 74040000 		.4byte	0x474
ARM GAS  /tmp/ccju6RJA.s 			page 27


 1482 08d5 16       		.byte	0x16
 1483 08d6 00       		.byte	0
 1484 08d7 03       		.uleb128 0x3
 1485 08d8 96020000 		.4byte	.LASF127
 1486 08dc 0F       		.byte	0xf
 1487 08dd 6C       		.byte	0x6c
 1488 08de B2080000 		.4byte	0x8b2
 1489 08e2 0A       		.uleb128 0xa
 1490 08e3 04       		.byte	0x4
 1491 08e4 E8080000 		.4byte	0x8e8
 1492 08e8 18       		.uleb128 0x18
 1493 08e9 D7080000 		.4byte	0x8d7
 1494 08ed 1B       		.uleb128 0x1b
 1495 08ee 37010000 		.4byte	.LASF128
 1496 08f2 01       		.byte	0x1
 1497 08f3 41       		.byte	0x41
 1498 08f4 00000000 		.4byte	.LFB256
 1499 08f8 0C000000 		.4byte	.LFE256-.LFB256
 1500 08fc 01       		.uleb128 0x1
 1501 08fd 9C       		.byte	0x9c
 1502 08fe 16090000 		.4byte	0x916
 1503 0902 1C       		.uleb128 0x1c
 1504 0903 06000000 		.4byte	.LVL0
 1505 0907 670A0000 		.4byte	0xa67
 1506 090b 1D       		.uleb128 0x1d
 1507 090c 01       		.uleb128 0x1
 1508 090d 50       		.byte	0x50
 1509 090e 05       		.uleb128 0x5
 1510 090f 03       		.byte	0x3
 1511 0910 00000000 		.4byte	.LANCHOR0
 1512 0914 00       		.byte	0
 1513 0915 00       		.byte	0
 1514 0916 1B       		.uleb128 0x1b
 1515 0917 A6020000 		.4byte	.LASF129
 1516 091b 01       		.byte	0x1
 1517 091c 63       		.byte	0x63
 1518 091d 00000000 		.4byte	.LFB258
 1519 0921 24000000 		.4byte	.LFE258-.LFB258
 1520 0925 01       		.uleb128 0x1
 1521 0926 9C       		.byte	0x9c
 1522 0927 44090000 		.4byte	0x944
 1523 092b 1E       		.uleb128 0x1e
 1524 092c 03010000 		.4byte	.LASF131
 1525 0930 01       		.byte	0x1
 1526 0931 63       		.byte	0x63
 1527 0932 81080000 		.4byte	0x881
 1528 0936 00000000 		.4byte	.LLST0
 1529 093a 1F       		.uleb128 0x1f
 1530 093b 1C000000 		.4byte	.LVL4
 1531 093f 780A0000 		.4byte	0xa78
 1532 0943 00       		.byte	0
 1533 0944 1B       		.uleb128 0x1b
 1534 0945 63030000 		.4byte	.LASF130
 1535 0949 01       		.byte	0x1
 1536 094a 78       		.byte	0x78
 1537 094b 00000000 		.4byte	.LFB259
 1538 094f A0000000 		.4byte	.LFE259-.LFB259
ARM GAS  /tmp/ccju6RJA.s 			page 28


 1539 0953 01       		.uleb128 0x1
 1540 0954 9C       		.byte	0x9c
 1541 0955 AD090000 		.4byte	0x9ad
 1542 0959 1E       		.uleb128 0x1e
 1543 095a 03010000 		.4byte	.LASF131
 1544 095e 01       		.byte	0x1
 1545 095f 78       		.byte	0x78
 1546 0960 81080000 		.4byte	0x881
 1547 0964 3A000000 		.4byte	.LLST1
 1548 0968 1E       		.uleb128 0x1e
 1549 0969 AD040000 		.4byte	.LASF132
 1550 096d 01       		.byte	0x1
 1551 096e 78       		.byte	0x78
 1552 096f 55080000 		.4byte	0x855
 1553 0973 74000000 		.4byte	.LLST2
 1554 0977 20       		.uleb128 0x20
 1555 0978 4C000000 		.4byte	.LBB2
 1556 097c 2A000000 		.4byte	.LBE2-.LBB2
 1557 0980 21       		.uleb128 0x21
 1558 0981 6E00     		.ascii	"n\000"
 1559 0983 01       		.byte	0x1
 1560 0984 7C       		.byte	0x7c
 1561 0985 B8000000 		.4byte	0xb8
 1562 0989 AE000000 		.4byte	.LLST3
 1563 098d 22       		.uleb128 0x22
 1564 098e 8E010000 		.4byte	.LASF133
 1565 0992 01       		.byte	0x1
 1566 0993 7D       		.byte	0x7d
 1567 0994 B8000000 		.4byte	0xb8
 1568 0998 C5000000 		.4byte	.LLST4
 1569 099c 22       		.uleb128 0x22
 1570 099d A4010000 		.4byte	.LASF134
 1571 09a1 01       		.byte	0x1
 1572 09a2 7E       		.byte	0x7e
 1573 09a3 B8000000 		.4byte	0xb8
 1574 09a7 F1000000 		.4byte	.LLST5
 1575 09ab 00       		.byte	0
 1576 09ac 00       		.byte	0
 1577 09ad 1B       		.uleb128 0x1b
 1578 09ae D6000000 		.4byte	.LASF135
 1579 09b2 01       		.byte	0x1
 1580 09b3 C1       		.byte	0xc1
 1581 09b4 00000000 		.4byte	.LFB260
 1582 09b8 28000000 		.4byte	.LFE260-.LFB260
 1583 09bc 01       		.uleb128 0x1
 1584 09bd 9C       		.byte	0x9c
 1585 09be E1090000 		.4byte	0x9e1
 1586 09c2 1E       		.uleb128 0x1e
 1587 09c3 03010000 		.4byte	.LASF131
 1588 09c7 01       		.byte	0x1
 1589 09c8 C1       		.byte	0xc1
 1590 09c9 81080000 		.4byte	0x881
 1591 09cd 27010000 		.4byte	.LLST6
 1592 09d1 1E       		.uleb128 0x1e
 1593 09d2 AD040000 		.4byte	.LASF132
 1594 09d6 01       		.byte	0x1
 1595 09d7 C1       		.byte	0xc1
ARM GAS  /tmp/ccju6RJA.s 			page 29


 1596 09d8 55080000 		.4byte	0x855
 1597 09dc 48010000 		.4byte	.LLST7
 1598 09e0 00       		.byte	0
 1599 09e1 1B       		.uleb128 0x1b
 1600 09e2 16020000 		.4byte	.LASF136
 1601 09e6 01       		.byte	0x1
 1602 09e7 4E       		.byte	0x4e
 1603 09e8 00000000 		.4byte	.LFB257
 1604 09ec 3E000000 		.4byte	.LFE257-.LFB257
 1605 09f0 01       		.uleb128 0x1
 1606 09f1 9C       		.byte	0x9c
 1607 09f2 3F0A0000 		.4byte	0xa3f
 1608 09f6 1E       		.uleb128 0x1e
 1609 09f7 03010000 		.4byte	.LASF131
 1610 09fb 01       		.byte	0x1
 1611 09fc 4E       		.byte	0x4e
 1612 09fd 81080000 		.4byte	0x881
 1613 0a01 69010000 		.4byte	.LLST8
 1614 0a05 21       		.uleb128 0x21
 1615 0a06 6900     		.ascii	"i\000"
 1616 0a08 01       		.byte	0x1
 1617 0a09 4F       		.byte	0x4f
 1618 0a0a 37000000 		.4byte	0x37
 1619 0a0e C9010000 		.4byte	.LLST9
 1620 0a12 1F       		.uleb128 0x1f
 1621 0a13 14000000 		.4byte	.LVL20
 1622 0a17 44090000 		.4byte	0x944
 1623 0a1b 23       		.uleb128 0x23
 1624 0a1c 32000000 		.4byte	.LVL25
 1625 0a20 AD090000 		.4byte	0x9ad
 1626 0a24 350A0000 		.4byte	0xa35
 1627 0a28 1D       		.uleb128 0x1d
 1628 0a29 01       		.uleb128 0x1
 1629 0a2a 51       		.byte	0x51
 1630 0a2b 02       		.uleb128 0x2
 1631 0a2c 74       		.byte	0x74
 1632 0a2d 7F       		.sleb128 -1
 1633 0a2e 1D       		.uleb128 0x1d
 1634 0a2f 01       		.uleb128 0x1
 1635 0a30 50       		.byte	0x50
 1636 0a31 02       		.uleb128 0x2
 1637 0a32 75       		.byte	0x75
 1638 0a33 00       		.sleb128 0
 1639 0a34 00       		.byte	0
 1640 0a35 1F       		.uleb128 0x1f
 1641 0a36 3C000000 		.4byte	.LVL27
 1642 0a3a 7F0A0000 		.4byte	0xa7f
 1643 0a3e 00       		.byte	0
 1644 0a3f 24       		.uleb128 0x24
 1645 0a40 B8000000 		.4byte	.LASF137
 1646 0a44 10       		.byte	0x10
 1647 0a45 A706     		.2byte	0x6a7
 1648 0a47 CE000000 		.4byte	0xce
 1649 0a4b 25       		.uleb128 0x25
 1650 0a4c 636800   		.ascii	"ch\000"
 1651 0a4f 07       		.byte	0x7
 1652 0a50 0902     		.2byte	0x209
ARM GAS  /tmp/ccju6RJA.s 			page 30


 1653 0a52 0D040000 		.4byte	0x40d
 1654 0a56 26       		.uleb128 0x26
 1655 0a57 21070000 		.4byte	.LASF138
 1656 0a5b 01       		.byte	0x1
 1657 0a5c 2A       		.byte	0x2a
 1658 0a5d 25080000 		.4byte	0x825
 1659 0a61 05       		.uleb128 0x5
 1660 0a62 03       		.byte	0x3
 1661 0a63 00000000 		.4byte	EXTD1
 1662 0a67 27       		.uleb128 0x27
 1663 0a68 08010000 		.4byte	.LASF144
 1664 0a6c 0E       		.byte	0xe
 1665 0a6d 86       		.byte	0x86
 1666 0a6e 780A0000 		.4byte	0xa78
 1667 0a72 0D       		.uleb128 0xd
 1668 0a73 81080000 		.4byte	0x881
 1669 0a77 00       		.byte	0
 1670 0a78 28       		.uleb128 0x28
 1671 0a79 C0010000 		.4byte	.LASF139
 1672 0a7d 11       		.byte	0x11
 1673 0a7e A1       		.byte	0xa1
 1674 0a7f 28       		.uleb128 0x28
 1675 0a80 45020000 		.4byte	.LASF140
 1676 0a84 11       		.byte	0x11
 1677 0a85 A0       		.byte	0xa0
 1678 0a86 00       		.byte	0
 1679              		.section	.debug_abbrev,"",%progbits
 1680              	.Ldebug_abbrev0:
 1681 0000 01       		.uleb128 0x1
 1682 0001 11       		.uleb128 0x11
 1683 0002 01       		.byte	0x1
 1684 0003 25       		.uleb128 0x25
 1685 0004 0E       		.uleb128 0xe
 1686 0005 13       		.uleb128 0x13
 1687 0006 0B       		.uleb128 0xb
 1688 0007 03       		.uleb128 0x3
 1689 0008 0E       		.uleb128 0xe
 1690 0009 1B       		.uleb128 0x1b
 1691 000a 0E       		.uleb128 0xe
 1692 000b 55       		.uleb128 0x55
 1693 000c 17       		.uleb128 0x17
 1694 000d 11       		.uleb128 0x11
 1695 000e 01       		.uleb128 0x1
 1696 000f 10       		.uleb128 0x10
 1697 0010 17       		.uleb128 0x17
 1698 0011 00       		.byte	0
 1699 0012 00       		.byte	0
 1700 0013 02       		.uleb128 0x2
 1701 0014 24       		.uleb128 0x24
 1702 0015 00       		.byte	0
 1703 0016 0B       		.uleb128 0xb
 1704 0017 0B       		.uleb128 0xb
 1705 0018 3E       		.uleb128 0x3e
 1706 0019 0B       		.uleb128 0xb
 1707 001a 03       		.uleb128 0x3
 1708 001b 08       		.uleb128 0x8
 1709 001c 00       		.byte	0
ARM GAS  /tmp/ccju6RJA.s 			page 31


 1710 001d 00       		.byte	0
 1711 001e 03       		.uleb128 0x3
 1712 001f 16       		.uleb128 0x16
 1713 0020 00       		.byte	0
 1714 0021 03       		.uleb128 0x3
 1715 0022 0E       		.uleb128 0xe
 1716 0023 3A       		.uleb128 0x3a
 1717 0024 0B       		.uleb128 0xb
 1718 0025 3B       		.uleb128 0x3b
 1719 0026 0B       		.uleb128 0xb
 1720 0027 49       		.uleb128 0x49
 1721 0028 13       		.uleb128 0x13
 1722 0029 00       		.byte	0
 1723 002a 00       		.byte	0
 1724 002b 04       		.uleb128 0x4
 1725 002c 24       		.uleb128 0x24
 1726 002d 00       		.byte	0
 1727 002e 0B       		.uleb128 0xb
 1728 002f 0B       		.uleb128 0xb
 1729 0030 3E       		.uleb128 0x3e
 1730 0031 0B       		.uleb128 0xb
 1731 0032 03       		.uleb128 0x3
 1732 0033 0E       		.uleb128 0xe
 1733 0034 00       		.byte	0
 1734 0035 00       		.byte	0
 1735 0036 05       		.uleb128 0x5
 1736 0037 35       		.uleb128 0x35
 1737 0038 00       		.byte	0
 1738 0039 49       		.uleb128 0x49
 1739 003a 13       		.uleb128 0x13
 1740 003b 00       		.byte	0
 1741 003c 00       		.byte	0
 1742 003d 06       		.uleb128 0x6
 1743 003e 13       		.uleb128 0x13
 1744 003f 01       		.byte	0x1
 1745 0040 03       		.uleb128 0x3
 1746 0041 0E       		.uleb128 0xe
 1747 0042 0B       		.uleb128 0xb
 1748 0043 0B       		.uleb128 0xb
 1749 0044 3A       		.uleb128 0x3a
 1750 0045 0B       		.uleb128 0xb
 1751 0046 3B       		.uleb128 0x3b
 1752 0047 0B       		.uleb128 0xb
 1753 0048 01       		.uleb128 0x1
 1754 0049 13       		.uleb128 0x13
 1755 004a 00       		.byte	0
 1756 004b 00       		.byte	0
 1757 004c 07       		.uleb128 0x7
 1758 004d 0D       		.uleb128 0xd
 1759 004e 00       		.byte	0
 1760 004f 03       		.uleb128 0x3
 1761 0050 0E       		.uleb128 0xe
 1762 0051 3A       		.uleb128 0x3a
 1763 0052 0B       		.uleb128 0xb
 1764 0053 3B       		.uleb128 0x3b
 1765 0054 0B       		.uleb128 0xb
 1766 0055 49       		.uleb128 0x49
ARM GAS  /tmp/ccju6RJA.s 			page 32


 1767 0056 13       		.uleb128 0x13
 1768 0057 38       		.uleb128 0x38
 1769 0058 0B       		.uleb128 0xb
 1770 0059 00       		.byte	0
 1771 005a 00       		.byte	0
 1772 005b 08       		.uleb128 0x8
 1773 005c 0D       		.uleb128 0xd
 1774 005d 00       		.byte	0
 1775 005e 03       		.uleb128 0x3
 1776 005f 08       		.uleb128 0x8
 1777 0060 3A       		.uleb128 0x3a
 1778 0061 0B       		.uleb128 0xb
 1779 0062 3B       		.uleb128 0x3b
 1780 0063 05       		.uleb128 0x5
 1781 0064 49       		.uleb128 0x49
 1782 0065 13       		.uleb128 0x13
 1783 0066 38       		.uleb128 0x38
 1784 0067 0B       		.uleb128 0xb
 1785 0068 00       		.byte	0
 1786 0069 00       		.byte	0
 1787 006a 09       		.uleb128 0x9
 1788 006b 0D       		.uleb128 0xd
 1789 006c 00       		.byte	0
 1790 006d 03       		.uleb128 0x3
 1791 006e 0E       		.uleb128 0xe
 1792 006f 3A       		.uleb128 0x3a
 1793 0070 0B       		.uleb128 0xb
 1794 0071 3B       		.uleb128 0x3b
 1795 0072 05       		.uleb128 0x5
 1796 0073 49       		.uleb128 0x49
 1797 0074 13       		.uleb128 0x13
 1798 0075 38       		.uleb128 0x38
 1799 0076 0B       		.uleb128 0xb
 1800 0077 00       		.byte	0
 1801 0078 00       		.byte	0
 1802 0079 0A       		.uleb128 0xa
 1803 007a 0F       		.uleb128 0xf
 1804 007b 00       		.byte	0
 1805 007c 0B       		.uleb128 0xb
 1806 007d 0B       		.uleb128 0xb
 1807 007e 49       		.uleb128 0x49
 1808 007f 13       		.uleb128 0x13
 1809 0080 00       		.byte	0
 1810 0081 00       		.byte	0
 1811 0082 0B       		.uleb128 0xb
 1812 0083 13       		.uleb128 0x13
 1813 0084 01       		.byte	0x1
 1814 0085 03       		.uleb128 0x3
 1815 0086 0E       		.uleb128 0xe
 1816 0087 0B       		.uleb128 0xb
 1817 0088 0B       		.uleb128 0xb
 1818 0089 3A       		.uleb128 0x3a
 1819 008a 0B       		.uleb128 0xb
 1820 008b 3B       		.uleb128 0x3b
 1821 008c 05       		.uleb128 0x5
 1822 008d 01       		.uleb128 0x1
 1823 008e 13       		.uleb128 0x13
ARM GAS  /tmp/ccju6RJA.s 			page 33


 1824 008f 00       		.byte	0
 1825 0090 00       		.byte	0
 1826 0091 0C       		.uleb128 0xc
 1827 0092 15       		.uleb128 0x15
 1828 0093 01       		.byte	0x1
 1829 0094 27       		.uleb128 0x27
 1830 0095 19       		.uleb128 0x19
 1831 0096 01       		.uleb128 0x1
 1832 0097 13       		.uleb128 0x13
 1833 0098 00       		.byte	0
 1834 0099 00       		.byte	0
 1835 009a 0D       		.uleb128 0xd
 1836 009b 05       		.uleb128 0x5
 1837 009c 00       		.byte	0
 1838 009d 49       		.uleb128 0x49
 1839 009e 13       		.uleb128 0x13
 1840 009f 00       		.byte	0
 1841 00a0 00       		.byte	0
 1842 00a1 0E       		.uleb128 0xe
 1843 00a2 0F       		.uleb128 0xf
 1844 00a3 00       		.byte	0
 1845 00a4 0B       		.uleb128 0xb
 1846 00a5 0B       		.uleb128 0xb
 1847 00a6 00       		.byte	0
 1848 00a7 00       		.byte	0
 1849 00a8 0F       		.uleb128 0xf
 1850 00a9 13       		.uleb128 0x13
 1851 00aa 01       		.byte	0x1
 1852 00ab 03       		.uleb128 0x3
 1853 00ac 0E       		.uleb128 0xe
 1854 00ad 0B       		.uleb128 0xb
 1855 00ae 05       		.uleb128 0x5
 1856 00af 3A       		.uleb128 0x3a
 1857 00b0 0B       		.uleb128 0xb
 1858 00b1 3B       		.uleb128 0x3b
 1859 00b2 05       		.uleb128 0x5
 1860 00b3 01       		.uleb128 0x1
 1861 00b4 13       		.uleb128 0x13
 1862 00b5 00       		.byte	0
 1863 00b6 00       		.byte	0
 1864 00b7 10       		.uleb128 0x10
 1865 00b8 01       		.uleb128 0x1
 1866 00b9 01       		.byte	0x1
 1867 00ba 49       		.uleb128 0x49
 1868 00bb 13       		.uleb128 0x13
 1869 00bc 01       		.uleb128 0x1
 1870 00bd 13       		.uleb128 0x13
 1871 00be 00       		.byte	0
 1872 00bf 00       		.byte	0
 1873 00c0 11       		.uleb128 0x11
 1874 00c1 21       		.uleb128 0x21
 1875 00c2 00       		.byte	0
 1876 00c3 49       		.uleb128 0x49
 1877 00c4 13       		.uleb128 0x13
 1878 00c5 2F       		.uleb128 0x2f
 1879 00c6 0B       		.uleb128 0xb
 1880 00c7 00       		.byte	0
ARM GAS  /tmp/ccju6RJA.s 			page 34


 1881 00c8 00       		.byte	0
 1882 00c9 12       		.uleb128 0x12
 1883 00ca 13       		.uleb128 0x13
 1884 00cb 01       		.byte	0x1
 1885 00cc 0B       		.uleb128 0xb
 1886 00cd 0B       		.uleb128 0xb
 1887 00ce 3A       		.uleb128 0x3a
 1888 00cf 0B       		.uleb128 0xb
 1889 00d0 3B       		.uleb128 0x3b
 1890 00d1 05       		.uleb128 0x5
 1891 00d2 01       		.uleb128 0x1
 1892 00d3 13       		.uleb128 0x13
 1893 00d4 00       		.byte	0
 1894 00d5 00       		.byte	0
 1895 00d6 13       		.uleb128 0x13
 1896 00d7 16       		.uleb128 0x16
 1897 00d8 00       		.byte	0
 1898 00d9 03       		.uleb128 0x3
 1899 00da 0E       		.uleb128 0xe
 1900 00db 3A       		.uleb128 0x3a
 1901 00dc 0B       		.uleb128 0xb
 1902 00dd 3B       		.uleb128 0x3b
 1903 00de 05       		.uleb128 0x5
 1904 00df 49       		.uleb128 0x49
 1905 00e0 13       		.uleb128 0x13
 1906 00e1 00       		.byte	0
 1907 00e2 00       		.byte	0
 1908 00e3 14       		.uleb128 0x14
 1909 00e4 0D       		.uleb128 0xd
 1910 00e5 00       		.byte	0
 1911 00e6 03       		.uleb128 0x3
 1912 00e7 08       		.uleb128 0x8
 1913 00e8 3A       		.uleb128 0x3a
 1914 00e9 0B       		.uleb128 0xb
 1915 00ea 3B       		.uleb128 0x3b
 1916 00eb 0B       		.uleb128 0xb
 1917 00ec 49       		.uleb128 0x49
 1918 00ed 13       		.uleb128 0x13
 1919 00ee 38       		.uleb128 0x38
 1920 00ef 0B       		.uleb128 0xb
 1921 00f0 00       		.byte	0
 1922 00f1 00       		.byte	0
 1923 00f2 15       		.uleb128 0x15
 1924 00f3 13       		.uleb128 0x13
 1925 00f4 01       		.byte	0x1
 1926 00f5 0B       		.uleb128 0xb
 1927 00f6 0B       		.uleb128 0xb
 1928 00f7 3A       		.uleb128 0x3a
 1929 00f8 0B       		.uleb128 0xb
 1930 00f9 3B       		.uleb128 0x3b
 1931 00fa 0B       		.uleb128 0xb
 1932 00fb 01       		.uleb128 0x1
 1933 00fc 13       		.uleb128 0x13
 1934 00fd 00       		.byte	0
 1935 00fe 00       		.byte	0
 1936 00ff 16       		.uleb128 0x16
 1937 0100 17       		.uleb128 0x17
ARM GAS  /tmp/ccju6RJA.s 			page 35


 1938 0101 01       		.byte	0x1
 1939 0102 0B       		.uleb128 0xb
 1940 0103 0B       		.uleb128 0xb
 1941 0104 3A       		.uleb128 0x3a
 1942 0105 0B       		.uleb128 0xb
 1943 0106 3B       		.uleb128 0x3b
 1944 0107 0B       		.uleb128 0xb
 1945 0108 01       		.uleb128 0x1
 1946 0109 13       		.uleb128 0x13
 1947 010a 00       		.byte	0
 1948 010b 00       		.byte	0
 1949 010c 17       		.uleb128 0x17
 1950 010d 0D       		.uleb128 0xd
 1951 010e 00       		.byte	0
 1952 010f 03       		.uleb128 0x3
 1953 0110 0E       		.uleb128 0xe
 1954 0111 3A       		.uleb128 0x3a
 1955 0112 0B       		.uleb128 0xb
 1956 0113 3B       		.uleb128 0x3b
 1957 0114 05       		.uleb128 0x5
 1958 0115 49       		.uleb128 0x49
 1959 0116 13       		.uleb128 0x13
 1960 0117 00       		.byte	0
 1961 0118 00       		.byte	0
 1962 0119 18       		.uleb128 0x18
 1963 011a 26       		.uleb128 0x26
 1964 011b 00       		.byte	0
 1965 011c 49       		.uleb128 0x49
 1966 011d 13       		.uleb128 0x13
 1967 011e 00       		.byte	0
 1968 011f 00       		.byte	0
 1969 0120 19       		.uleb128 0x19
 1970 0121 04       		.uleb128 0x4
 1971 0122 01       		.byte	0x1
 1972 0123 0B       		.uleb128 0xb
 1973 0124 0B       		.uleb128 0xb
 1974 0125 3A       		.uleb128 0x3a
 1975 0126 0B       		.uleb128 0xb
 1976 0127 3B       		.uleb128 0x3b
 1977 0128 0B       		.uleb128 0xb
 1978 0129 01       		.uleb128 0x1
 1979 012a 13       		.uleb128 0x13
 1980 012b 00       		.byte	0
 1981 012c 00       		.byte	0
 1982 012d 1A       		.uleb128 0x1a
 1983 012e 28       		.uleb128 0x28
 1984 012f 00       		.byte	0
 1985 0130 03       		.uleb128 0x3
 1986 0131 0E       		.uleb128 0xe
 1987 0132 1C       		.uleb128 0x1c
 1988 0133 0D       		.uleb128 0xd
 1989 0134 00       		.byte	0
 1990 0135 00       		.byte	0
 1991 0136 1B       		.uleb128 0x1b
 1992 0137 2E       		.uleb128 0x2e
 1993 0138 01       		.byte	0x1
 1994 0139 3F       		.uleb128 0x3f
ARM GAS  /tmp/ccju6RJA.s 			page 36


 1995 013a 19       		.uleb128 0x19
 1996 013b 03       		.uleb128 0x3
 1997 013c 0E       		.uleb128 0xe
 1998 013d 3A       		.uleb128 0x3a
 1999 013e 0B       		.uleb128 0xb
 2000 013f 3B       		.uleb128 0x3b
 2001 0140 0B       		.uleb128 0xb
 2002 0141 27       		.uleb128 0x27
 2003 0142 19       		.uleb128 0x19
 2004 0143 11       		.uleb128 0x11
 2005 0144 01       		.uleb128 0x1
 2006 0145 12       		.uleb128 0x12
 2007 0146 06       		.uleb128 0x6
 2008 0147 40       		.uleb128 0x40
 2009 0148 18       		.uleb128 0x18
 2010 0149 9742     		.uleb128 0x2117
 2011 014b 19       		.uleb128 0x19
 2012 014c 01       		.uleb128 0x1
 2013 014d 13       		.uleb128 0x13
 2014 014e 00       		.byte	0
 2015 014f 00       		.byte	0
 2016 0150 1C       		.uleb128 0x1c
 2017 0151 898201   		.uleb128 0x4109
 2018 0154 01       		.byte	0x1
 2019 0155 11       		.uleb128 0x11
 2020 0156 01       		.uleb128 0x1
 2021 0157 9542     		.uleb128 0x2115
 2022 0159 19       		.uleb128 0x19
 2023 015a 31       		.uleb128 0x31
 2024 015b 13       		.uleb128 0x13
 2025 015c 00       		.byte	0
 2026 015d 00       		.byte	0
 2027 015e 1D       		.uleb128 0x1d
 2028 015f 8A8201   		.uleb128 0x410a
 2029 0162 00       		.byte	0
 2030 0163 02       		.uleb128 0x2
 2031 0164 18       		.uleb128 0x18
 2032 0165 9142     		.uleb128 0x2111
 2033 0167 18       		.uleb128 0x18
 2034 0168 00       		.byte	0
 2035 0169 00       		.byte	0
 2036 016a 1E       		.uleb128 0x1e
 2037 016b 05       		.uleb128 0x5
 2038 016c 00       		.byte	0
 2039 016d 03       		.uleb128 0x3
 2040 016e 0E       		.uleb128 0xe
 2041 016f 3A       		.uleb128 0x3a
 2042 0170 0B       		.uleb128 0xb
 2043 0171 3B       		.uleb128 0x3b
 2044 0172 0B       		.uleb128 0xb
 2045 0173 49       		.uleb128 0x49
 2046 0174 13       		.uleb128 0x13
 2047 0175 02       		.uleb128 0x2
 2048 0176 17       		.uleb128 0x17
 2049 0177 00       		.byte	0
 2050 0178 00       		.byte	0
 2051 0179 1F       		.uleb128 0x1f
ARM GAS  /tmp/ccju6RJA.s 			page 37


 2052 017a 898201   		.uleb128 0x4109
 2053 017d 00       		.byte	0
 2054 017e 11       		.uleb128 0x11
 2055 017f 01       		.uleb128 0x1
 2056 0180 31       		.uleb128 0x31
 2057 0181 13       		.uleb128 0x13
 2058 0182 00       		.byte	0
 2059 0183 00       		.byte	0
 2060 0184 20       		.uleb128 0x20
 2061 0185 0B       		.uleb128 0xb
 2062 0186 01       		.byte	0x1
 2063 0187 11       		.uleb128 0x11
 2064 0188 01       		.uleb128 0x1
 2065 0189 12       		.uleb128 0x12
 2066 018a 06       		.uleb128 0x6
 2067 018b 00       		.byte	0
 2068 018c 00       		.byte	0
 2069 018d 21       		.uleb128 0x21
 2070 018e 34       		.uleb128 0x34
 2071 018f 00       		.byte	0
 2072 0190 03       		.uleb128 0x3
 2073 0191 08       		.uleb128 0x8
 2074 0192 3A       		.uleb128 0x3a
 2075 0193 0B       		.uleb128 0xb
 2076 0194 3B       		.uleb128 0x3b
 2077 0195 0B       		.uleb128 0xb
 2078 0196 49       		.uleb128 0x49
 2079 0197 13       		.uleb128 0x13
 2080 0198 02       		.uleb128 0x2
 2081 0199 17       		.uleb128 0x17
 2082 019a 00       		.byte	0
 2083 019b 00       		.byte	0
 2084 019c 22       		.uleb128 0x22
 2085 019d 34       		.uleb128 0x34
 2086 019e 00       		.byte	0
 2087 019f 03       		.uleb128 0x3
 2088 01a0 0E       		.uleb128 0xe
 2089 01a1 3A       		.uleb128 0x3a
 2090 01a2 0B       		.uleb128 0xb
 2091 01a3 3B       		.uleb128 0x3b
 2092 01a4 0B       		.uleb128 0xb
 2093 01a5 49       		.uleb128 0x49
 2094 01a6 13       		.uleb128 0x13
 2095 01a7 02       		.uleb128 0x2
 2096 01a8 17       		.uleb128 0x17
 2097 01a9 00       		.byte	0
 2098 01aa 00       		.byte	0
 2099 01ab 23       		.uleb128 0x23
 2100 01ac 898201   		.uleb128 0x4109
 2101 01af 01       		.byte	0x1
 2102 01b0 11       		.uleb128 0x11
 2103 01b1 01       		.uleb128 0x1
 2104 01b2 31       		.uleb128 0x31
 2105 01b3 13       		.uleb128 0x13
 2106 01b4 01       		.uleb128 0x1
 2107 01b5 13       		.uleb128 0x13
 2108 01b6 00       		.byte	0
ARM GAS  /tmp/ccju6RJA.s 			page 38


 2109 01b7 00       		.byte	0
 2110 01b8 24       		.uleb128 0x24
 2111 01b9 34       		.uleb128 0x34
 2112 01ba 00       		.byte	0
 2113 01bb 03       		.uleb128 0x3
 2114 01bc 0E       		.uleb128 0xe
 2115 01bd 3A       		.uleb128 0x3a
 2116 01be 0B       		.uleb128 0xb
 2117 01bf 3B       		.uleb128 0x3b
 2118 01c0 05       		.uleb128 0x5
 2119 01c1 49       		.uleb128 0x49
 2120 01c2 13       		.uleb128 0x13
 2121 01c3 3F       		.uleb128 0x3f
 2122 01c4 19       		.uleb128 0x19
 2123 01c5 3C       		.uleb128 0x3c
 2124 01c6 19       		.uleb128 0x19
 2125 01c7 00       		.byte	0
 2126 01c8 00       		.byte	0
 2127 01c9 25       		.uleb128 0x25
 2128 01ca 34       		.uleb128 0x34
 2129 01cb 00       		.byte	0
 2130 01cc 03       		.uleb128 0x3
 2131 01cd 08       		.uleb128 0x8
 2132 01ce 3A       		.uleb128 0x3a
 2133 01cf 0B       		.uleb128 0xb
 2134 01d0 3B       		.uleb128 0x3b
 2135 01d1 05       		.uleb128 0x5
 2136 01d2 49       		.uleb128 0x49
 2137 01d3 13       		.uleb128 0x13
 2138 01d4 3F       		.uleb128 0x3f
 2139 01d5 19       		.uleb128 0x19
 2140 01d6 3C       		.uleb128 0x3c
 2141 01d7 19       		.uleb128 0x19
 2142 01d8 00       		.byte	0
 2143 01d9 00       		.byte	0
 2144 01da 26       		.uleb128 0x26
 2145 01db 34       		.uleb128 0x34
 2146 01dc 00       		.byte	0
 2147 01dd 03       		.uleb128 0x3
 2148 01de 0E       		.uleb128 0xe
 2149 01df 3A       		.uleb128 0x3a
 2150 01e0 0B       		.uleb128 0xb
 2151 01e1 3B       		.uleb128 0x3b
 2152 01e2 0B       		.uleb128 0xb
 2153 01e3 49       		.uleb128 0x49
 2154 01e4 13       		.uleb128 0x13
 2155 01e5 3F       		.uleb128 0x3f
 2156 01e6 19       		.uleb128 0x19
 2157 01e7 02       		.uleb128 0x2
 2158 01e8 18       		.uleb128 0x18
 2159 01e9 00       		.byte	0
 2160 01ea 00       		.byte	0
 2161 01eb 27       		.uleb128 0x27
 2162 01ec 2E       		.uleb128 0x2e
 2163 01ed 01       		.byte	0x1
 2164 01ee 3F       		.uleb128 0x3f
 2165 01ef 19       		.uleb128 0x19
ARM GAS  /tmp/ccju6RJA.s 			page 39


 2166 01f0 03       		.uleb128 0x3
 2167 01f1 0E       		.uleb128 0xe
 2168 01f2 3A       		.uleb128 0x3a
 2169 01f3 0B       		.uleb128 0xb
 2170 01f4 3B       		.uleb128 0x3b
 2171 01f5 0B       		.uleb128 0xb
 2172 01f6 27       		.uleb128 0x27
 2173 01f7 19       		.uleb128 0x19
 2174 01f8 3C       		.uleb128 0x3c
 2175 01f9 19       		.uleb128 0x19
 2176 01fa 01       		.uleb128 0x1
 2177 01fb 13       		.uleb128 0x13
 2178 01fc 00       		.byte	0
 2179 01fd 00       		.byte	0
 2180 01fe 28       		.uleb128 0x28
 2181 01ff 2E       		.uleb128 0x2e
 2182 0200 00       		.byte	0
 2183 0201 3F       		.uleb128 0x3f
 2184 0202 19       		.uleb128 0x19
 2185 0203 03       		.uleb128 0x3
 2186 0204 0E       		.uleb128 0xe
 2187 0205 3A       		.uleb128 0x3a
 2188 0206 0B       		.uleb128 0xb
 2189 0207 3B       		.uleb128 0x3b
 2190 0208 0B       		.uleb128 0xb
 2191 0209 27       		.uleb128 0x27
 2192 020a 19       		.uleb128 0x19
 2193 020b 3C       		.uleb128 0x3c
 2194 020c 19       		.uleb128 0x19
 2195 020d 00       		.byte	0
 2196 020e 00       		.byte	0
 2197 020f 00       		.byte	0
 2198              		.section	.debug_loc,"",%progbits
 2199              	.Ldebug_loc0:
 2200              	.LLST0:
 2201 0000 00000000 		.4byte	.LVL1
 2202 0004 08000000 		.4byte	.LVL2
 2203 0008 0100     		.2byte	0x1
 2204 000a 50       		.byte	0x50
 2205 000b 08000000 		.4byte	.LVL2
 2206 000f 18000000 		.4byte	.LVL3
 2207 0013 0400     		.2byte	0x4
 2208 0015 F3       		.byte	0xf3
 2209 0016 01       		.uleb128 0x1
 2210 0017 50       		.byte	0x50
 2211 0018 9F       		.byte	0x9f
 2212 0019 18000000 		.4byte	.LVL3
 2213 001d 1B000000 		.4byte	.LVL4-1
 2214 0021 0100     		.2byte	0x1
 2215 0023 50       		.byte	0x50
 2216 0024 1B000000 		.4byte	.LVL4-1
 2217 0028 24000000 		.4byte	.LFE258
 2218 002c 0400     		.2byte	0x4
 2219 002e F3       		.byte	0xf3
 2220 002f 01       		.uleb128 0x1
 2221 0030 50       		.byte	0x50
 2222 0031 9F       		.byte	0x9f
ARM GAS  /tmp/ccju6RJA.s 			page 40


 2223 0032 00000000 		.4byte	0
 2224 0036 00000000 		.4byte	0
 2225              	.LLST1:
 2226 003a 00000000 		.4byte	.LVL5
 2227 003e 0C000000 		.4byte	.LVL6
 2228 0042 0100     		.2byte	0x1
 2229 0044 50       		.byte	0x50
 2230 0045 0C000000 		.4byte	.LVL6
 2231 0049 48000000 		.4byte	.LVL8
 2232 004d 0400     		.2byte	0x4
 2233 004f F3       		.byte	0xf3
 2234 0050 01       		.uleb128 0x1
 2235 0051 50       		.byte	0x50
 2236 0052 9F       		.byte	0x9f
 2237 0053 48000000 		.4byte	.LVL8
 2238 0057 5A000000 		.4byte	.LVL9
 2239 005b 0100     		.2byte	0x1
 2240 005d 50       		.byte	0x50
 2241 005e 5A000000 		.4byte	.LVL9
 2242 0062 A0000000 		.4byte	.LFE259
 2243 0066 0400     		.2byte	0x4
 2244 0068 F3       		.byte	0xf3
 2245 0069 01       		.uleb128 0x1
 2246 006a 50       		.byte	0x50
 2247 006b 9F       		.byte	0x9f
 2248 006c 00000000 		.4byte	0
 2249 0070 00000000 		.4byte	0
 2250              	.LLST2:
 2251 0074 00000000 		.4byte	.LVL5
 2252 0078 24000000 		.4byte	.LVL7
 2253 007c 0100     		.2byte	0x1
 2254 007e 51       		.byte	0x51
 2255 007f 24000000 		.4byte	.LVL7
 2256 0083 48000000 		.4byte	.LVL8
 2257 0087 0400     		.2byte	0x4
 2258 0089 F3       		.byte	0xf3
 2259 008a 01       		.uleb128 0x1
 2260 008b 51       		.byte	0x51
 2261 008c 9F       		.byte	0x9f
 2262 008d 48000000 		.4byte	.LVL8
 2263 0091 8A000000 		.4byte	.LVL13
 2264 0095 0100     		.2byte	0x1
 2265 0097 51       		.byte	0x51
 2266 0098 8A000000 		.4byte	.LVL13
 2267 009c A0000000 		.4byte	.LFE259
 2268 00a0 0400     		.2byte	0x4
 2269 00a2 F3       		.byte	0xf3
 2270 00a3 01       		.uleb128 0x1
 2271 00a4 51       		.byte	0x51
 2272 00a5 9F       		.byte	0x9f
 2273 00a6 00000000 		.4byte	0
 2274 00aa 00000000 		.4byte	0
 2275              	.LLST3:
 2276 00ae 48000000 		.4byte	.LVL8
 2277 00b2 7A000000 		.4byte	.LVL12
 2278 00b6 0500     		.2byte	0x5
 2279 00b8 71       		.byte	0x71
ARM GAS  /tmp/ccju6RJA.s 			page 41


 2280 00b9 00       		.sleb128 0
 2281 00ba 32       		.byte	0x32
 2282 00bb 25       		.byte	0x25
 2283 00bc 9F       		.byte	0x9f
 2284 00bd 00000000 		.4byte	0
 2285 00c1 00000000 		.4byte	0
 2286              	.LLST4:
 2287 00c5 62000000 		.4byte	.LVL10
 2288 00c9 72000000 		.4byte	.LVL11
 2289 00cd 0600     		.2byte	0x6
 2290 00cf 3F       		.byte	0x3f
 2291 00d0 74       		.byte	0x74
 2292 00d1 00       		.sleb128 0
 2293 00d2 24       		.byte	0x24
 2294 00d3 20       		.byte	0x20
 2295 00d4 9F       		.byte	0x9f
 2296 00d5 72000000 		.4byte	.LVL11
 2297 00d9 7A000000 		.4byte	.LVL12
 2298 00dd 0A00     		.2byte	0xa
 2299 00df 3F       		.byte	0x3f
 2300 00e0 71       		.byte	0x71
 2301 00e1 00       		.sleb128 0
 2302 00e2 33       		.byte	0x33
 2303 00e3 1A       		.byte	0x1a
 2304 00e4 32       		.byte	0x32
 2305 00e5 24       		.byte	0x24
 2306 00e6 24       		.byte	0x24
 2307 00e7 20       		.byte	0x20
 2308 00e8 9F       		.byte	0x9f
 2309 00e9 00000000 		.4byte	0
 2310 00ed 00000000 		.4byte	0
 2311              	.LLST5:
 2312 00f1 62000000 		.4byte	.LVL10
 2313 00f5 72000000 		.4byte	.LVL11
 2314 00f9 0B00     		.2byte	0xb
 2315 00fb 70       		.byte	0x70
 2316 00fc 00       		.sleb128 0
 2317 00fd 08       		.byte	0x8
 2318 00fe F0       		.byte	0xf0
 2319 00ff 1A       		.byte	0x1a
 2320 0100 34       		.byte	0x34
 2321 0101 25       		.byte	0x25
 2322 0102 74       		.byte	0x74
 2323 0103 00       		.sleb128 0
 2324 0104 24       		.byte	0x24
 2325 0105 9F       		.byte	0x9f
 2326 0106 72000000 		.4byte	.LVL11
 2327 010a 7A000000 		.4byte	.LVL12
 2328 010e 0F00     		.2byte	0xf
 2329 0110 70       		.byte	0x70
 2330 0111 00       		.sleb128 0
 2331 0112 08       		.byte	0x8
 2332 0113 F0       		.byte	0xf0
 2333 0114 1A       		.byte	0x1a
 2334 0115 34       		.byte	0x34
 2335 0116 25       		.byte	0x25
 2336 0117 71       		.byte	0x71
ARM GAS  /tmp/ccju6RJA.s 			page 42


 2337 0118 00       		.sleb128 0
 2338 0119 33       		.byte	0x33
 2339 011a 1A       		.byte	0x1a
 2340 011b 32       		.byte	0x32
 2341 011c 24       		.byte	0x24
 2342 011d 24       		.byte	0x24
 2343 011e 9F       		.byte	0x9f
 2344 011f 00000000 		.4byte	0
 2345 0123 00000000 		.4byte	0
 2346              	.LLST6:
 2347 0127 00000000 		.4byte	.LVL14
 2348 012b 06000000 		.4byte	.LVL15
 2349 012f 0100     		.2byte	0x1
 2350 0131 50       		.byte	0x50
 2351 0132 06000000 		.4byte	.LVL15
 2352 0136 28000000 		.4byte	.LFE260
 2353 013a 0400     		.2byte	0x4
 2354 013c F3       		.byte	0xf3
 2355 013d 01       		.uleb128 0x1
 2356 013e 50       		.byte	0x50
 2357 013f 9F       		.byte	0x9f
 2358 0140 00000000 		.4byte	0
 2359 0144 00000000 		.4byte	0
 2360              	.LLST7:
 2361 0148 00000000 		.4byte	.LVL14
 2362 014c 0A000000 		.4byte	.LVL16
 2363 0150 0100     		.2byte	0x1
 2364 0152 51       		.byte	0x51
 2365 0153 0A000000 		.4byte	.LVL16
 2366 0157 28000000 		.4byte	.LFE260
 2367 015b 0400     		.2byte	0x4
 2368 015d F3       		.byte	0xf3
 2369 015e 01       		.uleb128 0x1
 2370 015f 51       		.byte	0x51
 2371 0160 9F       		.byte	0x9f
 2372 0161 00000000 		.4byte	0
 2373 0165 00000000 		.4byte	0
 2374              	.LLST8:
 2375 0169 00000000 		.4byte	.LVL17
 2376 016d 0A000000 		.4byte	.LVL18
 2377 0171 0100     		.2byte	0x1
 2378 0173 50       		.byte	0x50
 2379 0174 0A000000 		.4byte	.LVL18
 2380 0178 0E000000 		.4byte	.LVL19
 2381 017c 0100     		.2byte	0x1
 2382 017e 55       		.byte	0x55
 2383 017f 0E000000 		.4byte	.LVL19
 2384 0183 13000000 		.4byte	.LVL20-1
 2385 0187 0100     		.2byte	0x1
 2386 0189 50       		.byte	0x50
 2387 018a 13000000 		.4byte	.LVL20-1
 2388 018e 28000000 		.4byte	.LVL22
 2389 0192 0100     		.2byte	0x1
 2390 0194 55       		.byte	0x55
 2391 0195 28000000 		.4byte	.LVL22
 2392 0199 2C000000 		.4byte	.LVL23
 2393 019d 0100     		.2byte	0x1
ARM GAS  /tmp/ccju6RJA.s 			page 43


 2394 019f 50       		.byte	0x50
 2395 01a0 2C000000 		.4byte	.LVL23
 2396 01a4 38000000 		.4byte	.LVL26
 2397 01a8 0100     		.2byte	0x1
 2398 01aa 55       		.byte	0x55
 2399 01ab 38000000 		.4byte	.LVL26
 2400 01af 3B000000 		.4byte	.LVL27-1
 2401 01b3 0100     		.2byte	0x1
 2402 01b5 50       		.byte	0x50
 2403 01b6 3B000000 		.4byte	.LVL27-1
 2404 01ba 3E000000 		.4byte	.LFE257
 2405 01be 0100     		.2byte	0x1
 2406 01c0 55       		.byte	0x55
 2407 01c1 00000000 		.4byte	0
 2408 01c5 00000000 		.4byte	0
 2409              	.LLST9:
 2410 01c9 0A000000 		.4byte	.LVL18
 2411 01cd 0E000000 		.4byte	.LVL19
 2412 01d1 0200     		.2byte	0x2
 2413 01d3 30       		.byte	0x30
 2414 01d4 9F       		.byte	0x9f
 2415 01d5 0E000000 		.4byte	.LVL19
 2416 01d9 13000000 		.4byte	.LVL20-1
 2417 01dd 0100     		.2byte	0x1
 2418 01df 51       		.byte	0x51
 2419 01e0 13000000 		.4byte	.LVL20-1
 2420 01e4 14000000 		.4byte	.LVL20
 2421 01e8 0300     		.2byte	0x3
 2422 01ea 74       		.byte	0x74
 2423 01eb 7F       		.sleb128 -1
 2424 01ec 9F       		.byte	0x9f
 2425 01ed 14000000 		.4byte	.LVL20
 2426 01f1 2E000000 		.4byte	.LVL24
 2427 01f5 0100     		.2byte	0x1
 2428 01f7 54       		.byte	0x54
 2429 01f8 2E000000 		.4byte	.LVL24
 2430 01fc 31000000 		.4byte	.LVL25-1
 2431 0200 0100     		.2byte	0x1
 2432 0202 51       		.byte	0x51
 2433 0203 31000000 		.4byte	.LVL25-1
 2434 0207 32000000 		.4byte	.LVL25
 2435 020b 0300     		.2byte	0x3
 2436 020d 74       		.byte	0x74
 2437 020e 7F       		.sleb128 -1
 2438 020f 9F       		.byte	0x9f
 2439 0210 32000000 		.4byte	.LVL25
 2440 0214 38000000 		.4byte	.LVL26
 2441 0218 0100     		.2byte	0x1
 2442 021a 54       		.byte	0x54
 2443 021b 00000000 		.4byte	0
 2444 021f 00000000 		.4byte	0
 2445              		.section	.debug_aranges,"",%progbits
 2446 0000 3C000000 		.4byte	0x3c
 2447 0004 0200     		.2byte	0x2
 2448 0006 00000000 		.4byte	.Ldebug_info0
 2449 000a 04       		.byte	0x4
 2450 000b 00       		.byte	0
ARM GAS  /tmp/ccju6RJA.s 			page 44


 2451 000c 0000     		.2byte	0
 2452 000e 0000     		.2byte	0
 2453 0010 00000000 		.4byte	.LFB256
 2454 0014 0C000000 		.4byte	.LFE256-.LFB256
 2455 0018 00000000 		.4byte	.LFB258
 2456 001c 24000000 		.4byte	.LFE258-.LFB258
 2457 0020 00000000 		.4byte	.LFB259
 2458 0024 A0000000 		.4byte	.LFE259-.LFB259
 2459 0028 00000000 		.4byte	.LFB260
 2460 002c 28000000 		.4byte	.LFE260-.LFB260
 2461 0030 00000000 		.4byte	.LFB257
 2462 0034 3E000000 		.4byte	.LFE257-.LFB257
 2463 0038 00000000 		.4byte	0
 2464 003c 00000000 		.4byte	0
 2465              		.section	.debug_ranges,"",%progbits
 2466              	.Ldebug_ranges0:
 2467 0000 00000000 		.4byte	.LFB256
 2468 0004 0C000000 		.4byte	.LFE256
 2469 0008 00000000 		.4byte	.LFB258
 2470 000c 24000000 		.4byte	.LFE258
 2471 0010 00000000 		.4byte	.LFB259
 2472 0014 A0000000 		.4byte	.LFE259
 2473 0018 00000000 		.4byte	.LFB260
 2474 001c 28000000 		.4byte	.LFE260
 2475 0020 00000000 		.4byte	.LFB257
 2476 0024 3E000000 		.4byte	.LFE257
 2477 0028 00000000 		.4byte	0
 2478 002c 00000000 		.4byte	0
 2479              		.section	.debug_line,"",%progbits
 2480              	.Ldebug_line0:
 2481 0000 22030000 		.section	.debug_str,"MS",%progbits,1
 2481      02007D02 
 2481      00000201 
 2481      FB0E0D00 
 2481      01010101 
 2482              	.LASF49:
 2483 0000 74687265 		.ascii	"threads_list_t\000"
 2483      6164735F 
 2483      6C697374 
 2483      5F7400
 2484              	.LASF54:
 2485 000f 72656164 		.ascii	"ready_list_t\000"
 2485      795F6C69 
 2485      73745F74 
 2485      00
 2486              	.LASF2:
 2487 001c 73697A65 		.ascii	"size_t\000"
 2487      5F7400
 2488              	.LASF17:
 2489 0023 75696E74 		.ascii	"uint64_t\000"
 2489      36345F74 
 2489      00
 2490              	.LASF1:
 2491 002c 7369676E 		.ascii	"signed char\000"
 2491      65642063 
 2491      68617200 
 2492              	.LASF3:
ARM GAS  /tmp/ccju6RJA.s 			page 45


 2493 0038 5F5F7569 		.ascii	"__uint8_t\000"
 2493      6E74385F 
 2493      7400
 2494              	.LASF122:
 2495 0042 65787063 		.ascii	"expchannel_t\000"
 2495      68616E6E 
 2495      656C5F74 
 2495      00
 2496              	.LASF95:
 2497 004f 706F7274 		.ascii	"port_intctx\000"
 2497      5F696E74 
 2497      63747800 
 2498              	.LASF73:
 2499 005b 73797374 		.ascii	"system_debug_t\000"
 2499      656D5F64 
 2499      65627567 
 2499      5F7400
 2500              	.LASF85:
 2501 006a 53574945 		.ascii	"SWIER\000"
 2501      5200
 2502              	.LASF87:
 2503 0070 4D454D52 		.ascii	"MEMRMP\000"
 2503      4D5000
 2504              	.LASF13:
 2505 0077 6C6F6E67 		.ascii	"long long unsigned int\000"
 2505      206C6F6E 
 2505      6720756E 
 2505      7369676E 
 2505      65642069 
 2506              	.LASF99:
 2507 008e 65786974 		.ascii	"exitcode\000"
 2507      636F6465 
 2507      00
 2508              	.LASF80:
 2509 0097 6D61696E 		.ascii	"mainthread\000"
 2509      74687265 
 2509      616400
 2510              	.LASF70:
 2511 00a2 76697274 		.ascii	"virtual_timers_list_t\000"
 2511      75616C5F 
 2511      74696D65 
 2511      72735F6C 
 2511      6973745F 
 2512              	.LASF137:
 2513 00b8 49544D5F 		.ascii	"ITM_RxBuffer\000"
 2513      52784275 
 2513      66666572 
 2513      00
 2514              	.LASF53:
 2515 00c5 63685F74 		.ascii	"ch_threads_queue\000"
 2515      68726561 
 2515      64735F71 
 2515      75657565 
 2515      00
 2516              	.LASF135:
 2517 00d6 6578745F 		.ascii	"ext_lld_channel_disable\000"
 2517      6C6C645F 
ARM GAS  /tmp/ccju6RJA.s 			page 46


 2517      6368616E 
 2517      6E656C5F 
 2517      64697361 
 2518              	.LASF31:
 2519 00ee 705F7072 		.ascii	"p_prio\000"
 2519      696F00
 2520              	.LASF11:
 2521 00f5 6C6F6E67 		.ascii	"long long int\000"
 2521      206C6F6E 
 2521      6720696E 
 2521      7400
 2522              	.LASF131:
 2523 0103 65787470 		.ascii	"extp\000"
 2523      00
 2524              	.LASF144:
 2525 0108 6578744F 		.ascii	"extObjectInit\000"
 2525      626A6563 
 2525      74496E69 
 2525      7400
 2526              	.LASF47:
 2527 0116 705F6D70 		.ascii	"p_mpool\000"
 2527      6F6F6C00 
 2528              	.LASF109:
 2529 011e 6D5F7175 		.ascii	"m_queue\000"
 2529      65756500 
 2530              	.LASF79:
 2531 0126 76746C69 		.ascii	"vtlist\000"
 2531      737400
 2532              	.LASF22:
 2533 012d 74736C69 		.ascii	"tslices_t\000"
 2533      6365735F 
 2533      7400
 2534              	.LASF128:
 2535 0137 6578745F 		.ascii	"ext_lld_init\000"
 2535      6C6C645F 
 2535      696E6974 
 2535      00
 2536              	.LASF120:
 2537 0144 73746174 		.ascii	"state\000"
 2537      6500
 2538              	.LASF126:
 2539 014a 6368616E 		.ascii	"channels\000"
 2539      6E656C73 
 2539      00
 2540              	.LASF8:
 2541 0153 6C6F6E67 		.ascii	"long int\000"
 2541      20696E74 
 2541      00
 2542              	.LASF20:
 2543 015c 74737461 		.ascii	"tstate_t\000"
 2543      74655F74 
 2543      00
 2544              	.LASF33:
 2545 0165 705F6E65 		.ascii	"p_newer\000"
 2545      77657200 
 2546              	.LASF106:
 2547 016d 735F7175 		.ascii	"s_queue\000"
ARM GAS  /tmp/ccju6RJA.s 			page 47


 2547      65756500 
 2548              	.LASF125:
 2549 0175 45585443 		.ascii	"EXTChannelConfig\000"
 2549      68616E6E 
 2549      656C436F 
 2549      6E666967 
 2549      00
 2550              	.LASF59:
 2551 0186 725F6E65 		.ascii	"r_newer\000"
 2551      77657200 
 2552              	.LASF133:
 2553 018e 6D61736B 		.ascii	"mask\000"
 2553      00
 2554              	.LASF92:
 2555 0193 72656761 		.ascii	"regarm_t\000"
 2555      726D5F74 
 2555      00
 2556              	.LASF66:
 2557 019c 76745F70 		.ascii	"vt_prev\000"
 2557      72657600 
 2558              	.LASF134:
 2559 01a4 706F7274 		.ascii	"port\000"
 2559      00
 2560              	.LASF113:
 2561 01a9 6D757465 		.ascii	"mutex_t\000"
 2561      785F7400 
 2562              	.LASF81:
 2563 01b1 69646C65 		.ascii	"idle_thread_wa\000"
 2563      5F746872 
 2563      6561645F 
 2563      776100
 2564              	.LASF139:
 2565 01c0 6578745F 		.ascii	"ext_lld_exti_irq_disable\000"
 2565      6C6C645F 
 2565      65787469 
 2565      5F697271 
 2565      5F646973 
 2566              	.LASF0:
 2567 01d9 756E7369 		.ascii	"unsigned int\000"
 2567      676E6564 
 2567      20696E74 
 2567      00
 2568              	.LASF65:
 2569 01e6 76745F6E 		.ascii	"vt_next\000"
 2569      65787400 
 2570              	.LASF40:
 2571 01ee 705F7469 		.ascii	"p_time\000"
 2571      6D6500
 2572              	.LASF102:
 2573 01f5 77747365 		.ascii	"wtsemp\000"
 2573      6D7000
 2574              	.LASF67:
 2575 01fc 76745F64 		.ascii	"vt_delta\000"
 2575      656C7461 
 2575      00
 2576              	.LASF42:
 2577 0205 705F6D73 		.ascii	"p_msgqueue\000"
ARM GAS  /tmp/ccju6RJA.s 			page 48


 2577      67717565 
 2577      756500
 2578              	.LASF90:
 2579 0210 434D5043 		.ascii	"CMPCR\000"
 2579      5200
 2580              	.LASF136:
 2581 0216 6578745F 		.ascii	"ext_lld_start\000"
 2581      6C6C645F 
 2581      73746172 
 2581      7400
 2582              	.LASF107:
 2583 0224 735F636E 		.ascii	"s_cnt\000"
 2583      7400
 2584              	.LASF94:
 2585 022a 636F6E74 		.ascii	"context\000"
 2585      65787400 
 2586              	.LASF6:
 2587 0232 73686F72 		.ascii	"short unsigned int\000"
 2587      7420756E 
 2587      7369676E 
 2587      65642069 
 2587      6E7400
 2588              	.LASF140:
 2589 0245 6578745F 		.ascii	"ext_lld_exti_irq_enable\000"
 2589      6C6C645F 
 2589      65787469 
 2589      5F697271 
 2589      5F656E61 
 2590              	.LASF142:
 2591 025d 43686962 		.ascii	"ChibiOS_3.0.2/os/hal/ports/STM32/LLD/ext_lld.c\000"
 2591      694F535F 
 2591      332E302E 
 2591      322F6F73 
 2591      2F68616C 
 2592              	.LASF50:
 2593 028c 63685F74 		.ascii	"ch_thread\000"
 2593      68726561 
 2593      6400
 2594              	.LASF127:
 2595 0296 45585443 		.ascii	"EXTConfig\000"
 2595      6F6E6669 
 2595      6700
 2596              	.LASF24:
 2597 02a0 6D73675F 		.ascii	"msg_t\000"
 2597      7400
 2598              	.LASF129:
 2599 02a6 6578745F 		.ascii	"ext_lld_stop\000"
 2599      6C6C645F 
 2599      73746F70 
 2599      00
 2600              	.LASF76:
 2601 02b3 63685F73 		.ascii	"ch_system_t\000"
 2601      79737465 
 2601      6D5F7400 
 2602              	.LASF19:
 2603 02bf 746D6F64 		.ascii	"tmode_t\000"
 2603      655F7400 
ARM GAS  /tmp/ccju6RJA.s 			page 49


 2604              	.LASF55:
 2605 02c7 63685F72 		.ascii	"ch_ready_list\000"
 2605      65616479 
 2605      5F6C6973 
 2605      7400
 2606              	.LASF25:
 2607 02d5 6576656E 		.ascii	"eventmask_t\000"
 2607      746D6173 
 2607      6B5F7400 
 2608              	.LASF7:
 2609 02e1 5F5F696E 		.ascii	"__int32_t\000"
 2609      7433325F 
 2609      7400
 2610              	.LASF93:
 2611 02eb 73746B61 		.ascii	"stkalign_t\000"
 2611      6C69676E 
 2611      5F7400
 2612              	.LASF117:
 2613 02f6 4558545F 		.ascii	"EXT_ACTIVE\000"
 2613      41435449 
 2613      564500
 2614              	.LASF41:
 2615 0301 705F7761 		.ascii	"p_waiting\000"
 2615      6974696E 
 2615      6700
 2616              	.LASF82:
 2617 030b 73697A65 		.ascii	"sizetype\000"
 2617      74797065 
 2617      00
 2618              	.LASF48:
 2619 0314 74687265 		.ascii	"thread_reference_t\000"
 2619      61645F72 
 2619      65666572 
 2619      656E6365 
 2619      5F7400
 2620              	.LASF118:
 2621 0327 65787473 		.ascii	"extstate_t\000"
 2621      74617465 
 2621      5F7400
 2622              	.LASF71:
 2623 0332 63685F76 		.ascii	"ch_virtual_timers_list\000"
 2623      69727475 
 2623      616C5F74 
 2623      696D6572 
 2623      735F6C69 
 2624              	.LASF101:
 2625 0349 77747472 		.ascii	"wttrp\000"
 2625      7000
 2626              	.LASF26:
 2627 034f 636E745F 		.ascii	"cnt_t\000"
 2627      7400
 2628              	.LASF34:
 2629 0355 705F6F6C 		.ascii	"p_older\000"
 2629      64657200 
 2630              	.LASF58:
 2631 035d 725F6374 		.ascii	"r_ctx\000"
 2631      7800
ARM GAS  /tmp/ccju6RJA.s 			page 50


 2632              	.LASF130:
 2633 0363 6578745F 		.ascii	"ext_lld_channel_enable\000"
 2633      6C6C645F 
 2633      6368616E 
 2633      6E656C5F 
 2633      656E6162 
 2634              	.LASF97:
 2635 037a 746D5F63 		.ascii	"tm_calibration_t\000"
 2635      616C6962 
 2635      72617469 
 2635      6F6E5F74 
 2635      00
 2636              	.LASF115:
 2637 038b 4558545F 		.ascii	"EXT_UNINIT\000"
 2637      554E494E 
 2637      495400
 2638              	.LASF61:
 2639 0396 725F6375 		.ascii	"r_current\000"
 2639      7272656E 
 2639      7400
 2640              	.LASF60:
 2641 03a0 725F6F6C 		.ascii	"r_older\000"
 2641      64657200 
 2642              	.LASF12:
 2643 03a8 5F5F7569 		.ascii	"__uint64_t\000"
 2643      6E743634 
 2643      5F7400
 2644              	.LASF83:
 2645 03b3 52545352 		.ascii	"RTSR\000"
 2645      00
 2646              	.LASF91:
 2647 03b8 53595343 		.ascii	"SYSCFG_TypeDef\000"
 2647      46475F54 
 2647      79706544 
 2647      656600
 2648              	.LASF21:
 2649 03c7 74726566 		.ascii	"trefs_t\000"
 2649      735F7400 
 2650              	.LASF63:
 2651 03cf 76697274 		.ascii	"virtual_timer_t\000"
 2651      75616C5F 
 2651      74696D65 
 2651      725F7400 
 2652              	.LASF30:
 2653 03df 705F7072 		.ascii	"p_prev\000"
 2653      657600
 2654              	.LASF23:
 2655 03e6 74707269 		.ascii	"tprio_t\000"
 2655      6F5F7400 
 2656              	.LASF143:
 2657 03ee 2F686F6D 		.ascii	"/home/benjamin/Skrivbord/SP-RCCar/Embedded/Mote/\000"
 2657      652F6265 
 2657      6E6A616D 
 2657      696E2F53 
 2657      6B726976 
 2658              	.LASF74:
 2659 041f 63685F73 		.ascii	"ch_system_debug\000"
ARM GAS  /tmp/ccju6RJA.s 			page 51


 2659      79737465 
 2659      6D5F6465 
 2659      62756700 
 2660              	.LASF114:
 2661 042f 5F426F6F 		.ascii	"_Bool\000"
 2661      6C00
 2662              	.LASF15:
 2663 0435 696E7433 		.ascii	"int32_t\000"
 2663      325F7400 
 2664              	.LASF4:
 2665 043d 756E7369 		.ascii	"unsigned char\000"
 2665      676E6564 
 2665      20636861 
 2665      7200
 2666              	.LASF84:
 2667 044b 46545352 		.ascii	"FTSR\000"
 2667      00
 2668              	.LASF45:
 2669 0450 705F6D74 		.ascii	"p_mtxlist\000"
 2669      786C6973 
 2669      7400
 2670              	.LASF5:
 2671 045a 73686F72 		.ascii	"short int\000"
 2671      7420696E 
 2671      7400
 2672              	.LASF36:
 2673 0464 705F7374 		.ascii	"p_state\000"
 2673      61746500 
 2674              	.LASF39:
 2675 046c 705F7072 		.ascii	"p_preempt\000"
 2675      65656D70 
 2675      7400
 2676              	.LASF57:
 2677 0476 725F7072 		.ascii	"r_prio\000"
 2677      696F00
 2678              	.LASF89:
 2679 047d 52455345 		.ascii	"RESERVED\000"
 2679      52564544 
 2679      00
 2680              	.LASF104:
 2681 0486 65776D61 		.ascii	"ewmask\000"
 2681      736B00
 2682              	.LASF29:
 2683 048d 705F6E65 		.ascii	"p_next\000"
 2683      787400
 2684              	.LASF37:
 2685 0494 705F666C 		.ascii	"p_flags\000"
 2685      61677300 
 2686              	.LASF77:
 2687 049c 63685F73 		.ascii	"ch_system\000"
 2687      79737465 
 2687      6D00
 2688              	.LASF98:
 2689 04a6 7264796D 		.ascii	"rdymsg\000"
 2689      736700
 2690              	.LASF132:
 2691 04ad 6368616E 		.ascii	"channel\000"
ARM GAS  /tmp/ccju6RJA.s 			page 52


 2691      6E656C00 
 2692              	.LASF64:
 2693 04b5 63685F76 		.ascii	"ch_virtual_timer\000"
 2693      69727475 
 2693      616C5F74 
 2693      696D6572 
 2693      00
 2694              	.LASF105:
 2695 04c6 63685F73 		.ascii	"ch_semaphore\000"
 2695      656D6170 
 2695      686F7265 
 2695      00
 2696              	.LASF44:
 2697 04d3 705F6570 		.ascii	"p_epending\000"
 2697      656E6469 
 2697      6E6700
 2698              	.LASF16:
 2699 04de 75696E74 		.ascii	"uint32_t\000"
 2699      33325F74 
 2699      00
 2700              	.LASF103:
 2701 04e7 77746D74 		.ascii	"wtmtxp\000"
 2701      787000
 2702              	.LASF56:
 2703 04ee 725F7175 		.ascii	"r_queue\000"
 2703      65756500 
 2704              	.LASF51:
 2705 04f6 63685F74 		.ascii	"ch_threads_list\000"
 2705      68726561 
 2705      64735F6C 
 2705      69737400 
 2706              	.LASF10:
 2707 0506 6C6F6E67 		.ascii	"long unsigned int\000"
 2707      20756E73 
 2707      69676E65 
 2707      6420696E 
 2707      7400
 2708              	.LASF116:
 2709 0518 4558545F 		.ascii	"EXT_STOP\000"
 2709      53544F50 
 2709      00
 2710              	.LASF112:
 2711 0521 63686172 		.ascii	"char\000"
 2711      00
 2712              	.LASF124:
 2713 0526 6D6F6465 		.ascii	"mode\000"
 2713      00
 2714              	.LASF121:
 2715 052b 636F6E66 		.ascii	"config\000"
 2715      696700
 2716              	.LASF123:
 2717 0532 65787463 		.ascii	"extcallback_t\000"
 2717      616C6C62 
 2717      61636B5F 
 2717      7400
 2718              	.LASF141:
 2719 0540 474E5520 		.ascii	"GNU C 4.9.3 20150529 (release) [ARM/embedded-4_9-br"
ARM GAS  /tmp/ccju6RJA.s 			page 53


 2719      4320342E 
 2719      392E3320 
 2719      32303135 
 2719      30353239 
 2720 0573 616E6368 		.ascii	"anch revision 227977] -mcpu=cortex-m4 -mfloat-abi=h"
 2720      20726576 
 2720      6973696F 
 2720      6E203232 
 2720      37393737 
 2721 05a6 61726420 		.ascii	"ard -mfpu=fpv4-sp-d16 -mno-thumb-interwork -mthumb "
 2721      2D6D6670 
 2721      753D6670 
 2721      76342D73 
 2721      702D6431 
 2722 05d9 2D676764 		.ascii	"-ggdb -O2 -std=gnu99 -fomit-frame-pointer -falign-f"
 2722      62202D4F 
 2722      32202D73 
 2722      74643D67 
 2722      6E753939 
 2723 060c 756E6374 		.ascii	"unctions=16 -ffunction-sections -fdata-sections -fn"
 2723      696F6E73 
 2723      3D313620 
 2723      2D666675 
 2723      6E637469 
 2724 063f 6F2D636F 		.ascii	"o-common -fsingle-precision-constant\000"
 2724      6D6D6F6E 
 2724      202D6673 
 2724      696E676C 
 2724      652D7072 
 2725              	.LASF111:
 2726 0664 6D5F6E65 		.ascii	"m_next\000"
 2726      787400
 2727              	.LASF27:
 2728 066b 73797374 		.ascii	"systime_t\000"
 2728      696D655F 
 2728      7400
 2729              	.LASF46:
 2730 0675 705F7265 		.ascii	"p_realprio\000"
 2730      616C7072 
 2730      696F00
 2731              	.LASF62:
 2732 0680 76746675 		.ascii	"vtfunc_t\000"
 2732      6E635F74 
 2732      00
 2733              	.LASF9:
 2734 0689 5F5F7569 		.ascii	"__uint32_t\000"
 2734      6E743332 
 2734      5F7400
 2735              	.LASF75:
 2736 0694 70616E69 		.ascii	"panic_msg\000"
 2736      635F6D73 
 2736      6700
 2737              	.LASF96:
 2738 069e 6F666673 		.ascii	"offset\000"
 2738      657400
 2739              	.LASF18:
 2740 06a5 7274636E 		.ascii	"rtcnt_t\000"
ARM GAS  /tmp/ccju6RJA.s 			page 54


 2740      745F7400 
 2741              	.LASF69:
 2742 06ad 76745F70 		.ascii	"vt_par\000"
 2742      617200
 2743              	.LASF119:
 2744 06b4 45585444 		.ascii	"EXTDriver\000"
 2744      72697665 
 2744      7200
 2745              	.LASF52:
 2746 06be 74687265 		.ascii	"threads_queue_t\000"
 2746      6164735F 
 2746      71756575 
 2746      655F7400 
 2747              	.LASF108:
 2748 06ce 63685F6D 		.ascii	"ch_mutex\000"
 2748      75746578 
 2748      00
 2749              	.LASF38:
 2750 06d7 705F7265 		.ascii	"p_refs\000"
 2750      667300
 2751              	.LASF28:
 2752 06de 74687265 		.ascii	"thread_t\000"
 2752      61645F74 
 2752      00
 2753              	.LASF78:
 2754 06e7 726C6973 		.ascii	"rlist\000"
 2754      7400
 2755              	.LASF14:
 2756 06ed 75696E74 		.ascii	"uint8_t\000"
 2756      385F7400 
 2757              	.LASF100:
 2758 06f5 77746F62 		.ascii	"wtobjp\000"
 2758      6A7000
 2759              	.LASF35:
 2760 06fc 705F6E61 		.ascii	"p_name\000"
 2760      6D6500
 2761              	.LASF72:
 2762 0703 76745F73 		.ascii	"vt_systime\000"
 2762      79737469 
 2762      6D6500
 2763              	.LASF43:
 2764 070e 705F6D73 		.ascii	"p_msg\000"
 2764      6700
 2765              	.LASF86:
 2766 0714 45585449 		.ascii	"EXTI_TypeDef\000"
 2766      5F547970 
 2766      65446566 
 2766      00
 2767              	.LASF138:
 2768 0721 45585444 		.ascii	"EXTD1\000"
 2768      3100
 2769              	.LASF110:
 2770 0727 6D5F6F77 		.ascii	"m_owner\000"
 2770      6E657200 
 2771              	.LASF32:
 2772 072f 705F6374 		.ascii	"p_ctx\000"
 2772      7800
ARM GAS  /tmp/ccju6RJA.s 			page 55


 2773              	.LASF68:
 2774 0735 76745F66 		.ascii	"vt_func\000"
 2774      756E6300 
 2775              	.LASF88:
 2776 073d 45585449 		.ascii	"EXTICR\000"
 2776      435200
 2777              		.ident	"GCC: (GNU Tools for ARM Embedded Processors) 4.9.3 20150529 (release) [ARM/embedded-4_9-br
ARM GAS  /tmp/ccju6RJA.s 			page 56


DEFINED SYMBOLS
                            *ABS*:0000000000000000 ext_lld.c
     /tmp/ccju6RJA.s:21     .text.ext_lld_init:0000000000000000 $t
     /tmp/ccju6RJA.s:27     .text.ext_lld_init:0000000000000000 ext_lld_init
     /tmp/ccju6RJA.s:42     .text.ext_lld_init:0000000000000008 $d
     /tmp/ccju6RJA.s:47     .text.ext_lld_stop:0000000000000000 $t
     /tmp/ccju6RJA.s:53     .text.ext_lld_stop:0000000000000000 ext_lld_stop
     /tmp/ccju6RJA.s:91     .text.ext_lld_stop:0000000000000020 $d
     /tmp/ccju6RJA.s:96     .text.ext_lld_channel_enable:0000000000000000 $t
     /tmp/ccju6RJA.s:102    .text.ext_lld_channel_enable:0000000000000000 ext_lld_channel_enable
     /tmp/ccju6RJA.s:240    .text.ext_lld_channel_enable:000000000000009c $d
     /tmp/ccju6RJA.s:245    .text.ext_lld_channel_disable:0000000000000000 $t
     /tmp/ccju6RJA.s:251    .text.ext_lld_channel_disable:0000000000000000 ext_lld_channel_disable
     /tmp/ccju6RJA.s:287    .text.ext_lld_channel_disable:0000000000000024 $d
     /tmp/ccju6RJA.s:292    .text.ext_lld_start:0000000000000000 $t
     /tmp/ccju6RJA.s:298    .text.ext_lld_start:0000000000000000 ext_lld_start
     /tmp/ccju6RJA.s:376    .bss.EXTD1:0000000000000000 EXTD1
     /tmp/ccju6RJA.s:372    .bss.EXTD1:0000000000000000 $d
                     .debug_frame:0000000000000010 $d

UNDEFINED SYMBOLS
extObjectInit
ext_lld_exti_irq_disable
ext_lld_exti_irq_enable
