ARM GAS  /tmp/ccju6RJA.s 			page 1


   1              		.syntax unified
   2              		.cpu cortex-m4
   3              		.eabi_attribute 27, 1
   4              		.eabi_attribute 28, 1
   5              		.fpu fpv4-sp-d16
   6              		.eabi_attribute 20, 1
   7              		.eabi_attribute 21, 1
   8              		.eabi_attribute 23, 3
   9              		.eabi_attribute 24, 1
  10              		.eabi_attribute 25, 1
  11              		.eabi_attribute 26, 1
  12              		.eabi_attribute 30, 2
  13              		.eabi_attribute 34, 1
  14              		.eabi_attribute 18, 4
  15              		.thumb
  16              		.file	"ext_lld.c"
  17              		.text
  18              	.Ltext0:
  19              		.cfi_sections	.debug_frame
  20              		.section	.text.ext_lld_init,"ax",%progbits
  21              		.align	2
  22              		.p2align 4,,15
  23              		.global	ext_lld_init
  24              		.thumb
  25              		.thumb_func
  26              		.type	ext_lld_init, %function
  27              	ext_lld_init:
  28              	.LFB256:
  29              		.file 1 "ChibiOS_3.0.2/os/hal/ports/STM32/LLD/ext_lld.c"
  30              		.loc 1 65 0
  31              		.cfi_startproc
  32              		@ args = 0, pretend = 0, frame = 0
  33              		@ frame_needed = 0, uses_anonymous_args = 0
  34              		@ link register save eliminated.
  35              		.loc 1 68 0
  36 0000 0148     		ldr	r0, .L2
  37 0002 FFF7FEBF 		b	extObjectInit
  38              	.LVL0:
  39              	.L3:
  40 0006 00BF     		.align	2
  41              	.L2:
  42 0008 00000000 		.word	.LANCHOR0
  43              		.cfi_endproc
  44              	.LFE256:
  45              		.size	ext_lld_init, .-ext_lld_init
  46              		.section	.text.ext_lld_stop,"ax",%progbits
  47              		.align	2
  48              		.p2align 4,,15
  49              		.global	ext_lld_stop
  50              		.thumb
  51              		.thumb_func
  52              		.type	ext_lld_stop, %function
  53              	ext_lld_stop:
  54              	.LFB258:
  55              		.loc 1 99 0
  56              		.cfi_startproc
  57              		@ args = 0, pretend = 0, frame = 0
ARM GAS  /tmp/ccju6RJA.s 			page 2


  58              		@ frame_needed = 0, uses_anonymous_args = 0
  59              	.LVL1:
  60 0000 08B5     		push	{r3, lr}
  61              		.cfi_def_cfa_offset 8
  62              		.cfi_offset 3, -8
  63              		.cfi_offset 14, -4
  64              		.loc 1 101 0
  65 0002 0378     		ldrb	r3, [r0]	@ zero_extendqisi2
  66 0004 022B     		cmp	r3, #2
  67 0006 07D0     		beq	.L8
  68              	.LVL2:
  69              	.L5:
  70              		.loc 1 104 0
  71 0008 054B     		ldr	r3, .L9
  72 000a 0022     		movs	r2, #0
  73              		.loc 1 106 0
  74 000c 4FF0FF31 		mov	r1, #-1
  75              		.loc 1 104 0
  76 0010 5A60     		str	r2, [r3, #4]
  77              		.loc 1 105 0
  78 0012 1A60     		str	r2, [r3]
  79              		.loc 1 106 0
  80 0014 5961     		str	r1, [r3, #20]
  81 0016 08BD     		pop	{r3, pc}
  82              	.LVL3:
  83              	.L8:
  84              		.loc 1 102 0
  85 0018 FFF7FEFF 		bl	ext_lld_exti_irq_disable
  86              	.LVL4:
  87 001c F4E7     		b	.L5
  88              	.L10:
  89 001e 00BF     		.align	2
  90              	.L9:
  91 0020 003C0140 		.word	1073822720
  92              		.cfi_endproc
  93              	.LFE258:
  94              		.size	ext_lld_stop, .-ext_lld_stop
  95              		.section	.text.ext_lld_channel_enable,"ax",%progbits
  96              		.align	2
  97              		.p2align 4,,15
  98              		.global	ext_lld_channel_enable
  99              		.thumb
 100              		.thumb_func
 101              		.type	ext_lld_channel_enable, %function
 102              	ext_lld_channel_enable:
 103              	.LFB259:
 104              		.loc 1 120 0
 105              		.cfi_startproc
 106              		@ args = 0, pretend = 0, frame = 0
 107              		@ frame_needed = 0, uses_anonymous_args = 0
 108              		@ link register save eliminated.
 109              	.LVL5:
 110              		.loc 1 123 0
 111 0000 0F29     		cmp	r1, #15
 112              		.loc 1 120 0
 113 0002 F0B4     		push	{r4, r5, r6, r7}
 114              		.cfi_def_cfa_offset 16
ARM GAS  /tmp/ccju6RJA.s 			page 3


 115              		.cfi_offset 4, -16
 116              		.cfi_offset 5, -12
 117              		.cfi_offset 6, -8
 118              		.cfi_offset 7, -4
 119              		.loc 1 123 0
 120 0004 20D9     		bls	.L12
 121 0006 4268     		ldr	r2, [r0, #4]
 122 0008 52F83100 		ldr	r0, [r2, r1, lsl #3]
 123              	.LVL6:
 124              		.loc 1 141 0
 125 000c C307     		lsls	r3, r0, #31
 126 000e 34D5     		bpl	.L14
 127              	.L21:
 128              		.loc 1 142 0
 129 0010 224D     		ldr	r5, .L22
 130 0012 0123     		movs	r3, #1
 131 0014 AC68     		ldr	r4, [r5, #8]
 132 0016 8B40     		lsls	r3, r3, r1
 133 0018 1C43     		orrs	r4, r4, r3
 134 001a AC60     		str	r4, [r5, #8]
 135 001c DC43     		mvns	r4, r3
 136              	.L15:
 137              		.loc 1 146 0
 138 001e 1F4D     		ldr	r5, .L22
 139              		.loc 1 151 0
 140 0020 02EBC101 		add	r1, r2, r1, lsl #3
 141              	.LVL7:
 142              		.loc 1 145 0
 143 0024 10F0020F 		tst	r0, #2
 144              		.loc 1 146 0
 145 0028 E868     		ldr	r0, [r5, #12]
 146              		.loc 1 151 0
 147 002a 4A68     		ldr	r2, [r1, #4]
 148              		.loc 1 146 0
 149 002c 14BF     		ite	ne
 150 002e 1843     		orrne	r0, r0, r3
 151              		.loc 1 148 0
 152 0030 2040     		andeq	r0, r0, r4
 153 0032 E860     		str	r0, [r5, #12]
 154              		.loc 1 151 0
 155 0034 4AB3     		cbz	r2, .L18
 156              		.loc 1 152 0
 157 0036 194A     		ldr	r2, .L22
 158 0038 1168     		ldr	r1, [r2]
 159 003a 0B43     		orrs	r3, r3, r1
 160 003c 1360     		str	r3, [r2]
 161              		.loc 1 153 0
 162 003e 5368     		ldr	r3, [r2, #4]
 163 0040 2340     		ands	r3, r3, r4
 164 0042 5360     		str	r3, [r2, #4]
 165              		.loc 1 183 0
 166 0044 F0BC     		pop	{r4, r5, r6, r7}
 167              		.cfi_remember_state
 168              		.cfi_restore 7
 169              		.cfi_restore 6
 170              		.cfi_restore 5
 171              		.cfi_restore 4
ARM GAS  /tmp/ccju6RJA.s 			page 4


 172              		.cfi_def_cfa_offset 0
 173 0046 7047     		bx	lr
 174              	.LVL8:
 175              	.L12:
 176              		.cfi_restore_state
 177 0048 21F00303 		bic	r3, r1, #3
 178              	.LBB2:
 179              		.loc 1 126 0
 180 004c 4268     		ldr	r2, [r0, #4]
 181 004e 03F18043 		add	r3, r3, #1073741824
 182 0052 03F59C33 		add	r3, r3, #79872
 183 0056 52F83100 		ldr	r0, [r2, r1, lsl #3]
 184              	.LVL9:
 185              		.loc 1 133 0
 186 005a 9F68     		ldr	r7, [r3, #8]
 187              		.loc 1 125 0
 188 005c 01F00304 		and	r4, r1, #3
 189 0060 A400     		lsls	r4, r4, #2
 190              	.LVL10:
 191 0062 0F26     		movs	r6, #15
 192 0064 A640     		lsls	r6, r6, r4
 193              		.loc 1 127 0
 194 0066 C0F30315 		ubfx	r5, r0, #4, #4
 195              		.loc 1 133 0
 196 006a 27EA0606 		bic	r6, r7, r6
 197              		.loc 1 126 0
 198 006e 05FA04F4 		lsl	r4, r5, r4
 199              	.LVL11:
 200              		.loc 1 133 0
 201 0072 3443     		orrs	r4, r4, r6
 202 0074 9C60     		str	r4, [r3, #8]
 203              	.LBE2:
 204              		.loc 1 141 0
 205 0076 C307     		lsls	r3, r0, #31
 206 0078 CAD4     		bmi	.L21
 207              	.LVL12:
 208              	.L14:
 209              		.loc 1 144 0
 210 007a 084E     		ldr	r6, .L22
 211 007c 0123     		movs	r3, #1
 212 007e B568     		ldr	r5, [r6, #8]
 213 0080 8B40     		lsls	r3, r3, r1
 214 0082 DC43     		mvns	r4, r3
 215 0084 2540     		ands	r5, r5, r4
 216 0086 B560     		str	r5, [r6, #8]
 217 0088 C9E7     		b	.L15
 218              	.LVL13:
 219              	.L18:
 220              		.loc 1 156 0
 221 008a 044A     		ldr	r2, .L22
 222 008c 5168     		ldr	r1, [r2, #4]
 223 008e 0B43     		orrs	r3, r3, r1
 224 0090 5360     		str	r3, [r2, #4]
 225              		.loc 1 157 0
 226 0092 1368     		ldr	r3, [r2]
 227 0094 2340     		ands	r3, r3, r4
 228 0096 1360     		str	r3, [r2]
ARM GAS  /tmp/ccju6RJA.s 			page 5


 229              		.loc 1 183 0
 230 0098 F0BC     		pop	{r4, r5, r6, r7}
 231              		.cfi_restore 4
 232              		.cfi_restore 5
 233              		.cfi_restore 6
 234              		.cfi_restore 7
 235              		.cfi_def_cfa_offset 0
 236 009a 7047     		bx	lr
 237              	.L23:
 238              		.align	2
 239              	.L22:
 240 009c 003C0140 		.word	1073822720
 241              		.cfi_endproc
 242              	.LFE259:
 243              		.size	ext_lld_channel_enable, .-ext_lld_channel_enable
 244              		.section	.text.ext_lld_channel_disable,"ax",%progbits
 245              		.align	2
 246              		.p2align 4,,15
 247              		.global	ext_lld_channel_disable
 248              		.thumb
 249              		.thumb_func
 250              		.type	ext_lld_channel_disable, %function
 251              	ext_lld_channel_disable:
 252              	.LFB260:
 253              		.loc 1 193 0
 254              		.cfi_startproc
 255              		@ args = 0, pretend = 0, frame = 0
 256              		@ frame_needed = 0, uses_anonymous_args = 0
 257              		@ link register save eliminated.
 258              	.LVL14:
 259              		.loc 1 200 0
 260 0000 084B     		ldr	r3, .L25
 261 0002 0122     		movs	r2, #1
 262 0004 1868     		ldr	r0, [r3]
 263              	.LVL15:
 264 0006 8A40     		lsls	r2, r2, r1
 265 0008 D143     		mvns	r1, r2
 266              	.LVL16:
 267 000a 0840     		ands	r0, r0, r1
 268 000c 1860     		str	r0, [r3]
 269              		.loc 1 201 0
 270 000e 5868     		ldr	r0, [r3, #4]
 271 0010 0840     		ands	r0, r0, r1
 272 0012 5860     		str	r0, [r3, #4]
 273              		.loc 1 202 0
 274 0014 9868     		ldr	r0, [r3, #8]
 275 0016 0840     		ands	r0, r0, r1
 276 0018 9860     		str	r0, [r3, #8]
 277              		.loc 1 203 0
 278 001a D868     		ldr	r0, [r3, #12]
 279 001c 0140     		ands	r1, r1, r0
 280 001e D960     		str	r1, [r3, #12]
 281              		.loc 1 204 0
 282 0020 5A61     		str	r2, [r3, #20]
 283 0022 7047     		bx	lr
 284              	.L26:
 285              		.align	2
ARM GAS  /tmp/ccju6RJA.s 			page 6


 286              	.L25:
 287 0024 003C0140 		.word	1073822720
 288              		.cfi_endproc
 289              	.LFE260:
 290              		.size	ext_lld_channel_disable, .-ext_lld_channel_disable
 291              		.section	.text.ext_lld_start,"ax",%progbits
 292              		.align	2
 293              		.p2align 4,,15
 294              		.global	ext_lld_start
 295              		.thumb
 296              		.thumb_func
 297              		.type	ext_lld_start, %function
 298              	ext_lld_start:
 299              	.LFB257:
 300              		.loc 1 78 0
 301              		.cfi_startproc
 302              		@ args = 0, pretend = 0, frame = 0
 303              		@ frame_needed = 0, uses_anonymous_args = 0
 304              	.LVL17:
 305 0000 38B5     		push	{r3, r4, r5, lr}
 306              		.cfi_def_cfa_offset 16
 307              		.cfi_offset 3, -16
 308              		.cfi_offset 4, -12
 309              		.cfi_offset 5, -8
 310              		.cfi_offset 14, -4
 311              		.loc 1 81 0
 312 0002 0378     		ldrb	r3, [r0]	@ zero_extendqisi2
 313 0004 012B     		cmp	r3, #1
 314              		.loc 1 78 0
 315 0006 0546     		mov	r5, r0
 316              		.loc 1 81 0
 317 0008 16D0     		beq	.L34
 318              	.LVL18:
 319              	.L28:
 320              		.loc 1 78 0 discriminator 1
 321 000a 0024     		movs	r4, #0
 322 000c 04E0     		b	.L31
 323              	.LVL19:
 324              	.L36:
 325              		.loc 1 85 0
 326 000e 0134     		adds	r4, r4, #1
 327              		.loc 1 87 0
 328 0010 FFF7FEFF 		bl	ext_lld_channel_enable
 329              	.LVL20:
 330              		.loc 1 85 0
 331 0014 172C     		cmp	r4, #23
 332 0016 0ED0     		beq	.L35
 333              	.LVL21:
 334              	.L31:
 335              		.loc 1 86 0
 336 0018 6B68     		ldr	r3, [r5, #4]
 337 001a 53F83430 		ldr	r3, [r3, r4, lsl #3]
 338 001e 13F0040F 		tst	r3, #4
 339              		.loc 1 87 0
 340 0022 2846     		mov	r0, r5
 341 0024 2146     		mov	r1, r4
 342              		.loc 1 86 0
ARM GAS  /tmp/ccju6RJA.s 			page 7


 343 0026 F2D1     		bne	.L36
 344              	.LVL22:
 345              		.loc 1 89 0
 346 0028 2146     		mov	r1, r4
 347 002a 2846     		mov	r0, r5
 348              	.LVL23:
 349              		.loc 1 85 0
 350 002c 0134     		adds	r4, r4, #1
 351              	.LVL24:
 352              		.loc 1 89 0
 353 002e FFF7FEFF 		bl	ext_lld_channel_disable
 354              	.LVL25:
 355              		.loc 1 85 0
 356 0032 172C     		cmp	r4, #23
 357 0034 F0D1     		bne	.L31
 358              	.L35:
 359              		.loc 1 90 0
 360 0036 38BD     		pop	{r3, r4, r5, pc}
 361              	.LVL26:
 362              	.L34:
 363              		.loc 1 82 0
 364 0038 FFF7FEFF 		bl	ext_lld_exti_irq_enable
 365              	.LVL27:
 366 003c E5E7     		b	.L28
 367              		.cfi_endproc
 368              	.LFE257:
 369              		.size	ext_lld_start, .-ext_lld_start
 370              		.global	EXTD1
 371 003e 00BF     		.section	.bss.EXTD1,"aw",%nobits
 372              		.align	2
 373              		.set	.LANCHOR0,. + 0
 374              		.type	EXTD1, %object
 375              		.size	EXTD1, 8
 376              	EXTD1:
 377 0000 00000000 		.space	8
 377      00000000 
 378              		.text
 379              	.Letext0:
 380              		.file 2 "/usr/lib/gcc/arm-none-eabi/4.9.3/include/stddef.h"
 381              		.file 3 "/usr/arm-none-eabi/include/machine/_default_types.h"
 382              		.file 4 "/usr/arm-none-eabi/include/sys/_stdint.h"
 383              		.file 5 "ChibiOS_3.0.2/os/rt/ports/ARMCMx/compilers/GCC/chtypes.h"
 384              		.file 6 "ChibiOS_3.0.2/os/rt/include/chsystypes.h"
 385              		.file 7 "ChibiOS_3.0.2/os/rt/include/chschd.h"
 386              		.file 8 "ChibiOS_3.0.2/os/ext/CMSIS/ST/stm32f407xx.h"
 387              		.file 9 "ChibiOS_3.0.2/os/rt/ports/ARMCMx/chcore.h"
 388              		.file 10 "ChibiOS_3.0.2/os/rt/ports/ARMCMx/chcore_v7m.h"
 389              		.file 11 "ChibiOS_3.0.2/os/rt/include/chtm.h"
 390              		.file 12 "ChibiOS_3.0.2/os/rt/include/chsem.h"
 391              		.file 13 "ChibiOS_3.0.2/os/rt/include/chmtx.h"
 392              		.file 14 "ChibiOS_3.0.2/os/hal/include/ext.h"
 393              		.file 15 "ChibiOS_3.0.2/os/hal/ports/STM32/LLD/ext_lld.h"
 394              		.file 16 "ChibiOS_3.0.2/os/ext/CMSIS/include/core_cm4.h"
 395              		.file 17 "ChibiOS_3.0.2/os/hal/ports/STM32/STM32F4xx/ext_lld_isr.h"