ARM GAS  /tmp/ccOJ9AF7.s 			page 1


   1              		.syntax unified
   2              		.cpu cortex-m4
   3              		.eabi_attribute 27, 1
   4              		.eabi_attribute 28, 1
   5              		.fpu fpv4-sp-d16
   6              		.eabi_attribute 20, 1
   7              		.eabi_attribute 21, 1
   8              		.eabi_attribute 23, 3
   9              		.eabi_attribute 24, 1
  10              		.eabi_attribute 25, 1
  11              		.eabi_attribute 26, 1
  12              		.eabi_attribute 30, 2
  13              		.eabi_attribute 34, 1
  14              		.eabi_attribute 18, 4
  15              		.thumb
  16              		.file	"hal_rf_security.c"
  17              		.text
  18              	.Ltext0:
  19              		.cfi_sections	.debug_frame
  20              		.section	.text.halRfSecurityInit,"ax",%progbits
  21              		.align	2
  22              		.p2align 4,,15
  23              		.global	halRfSecurityInit
  24              		.thumb
  25              		.thumb_func
  26              		.type	halRfSecurityInit, %function
  27              	halRfSecurityInit:
  28              	.LFB256:
  29              		.file 1 "cc2520/driver/hal_rf_security.c"
  30              		.loc 1 43 0
  31              		.cfi_startproc
  32              		@ args = 0, pretend = 0, frame = 0
  33              		@ frame_needed = 0, uses_anonymous_args = 0
  34              	.LVL0:
  35 0000 0346     		mov	r3, r0
  36 0002 70B5     		push	{r4, r5, r6, lr}
  37              		.cfi_def_cfa_offset 16
  38              		.cfi_offset 4, -16
  39              		.cfi_offset 5, -12
  40              		.cfi_offset 6, -8
  41              		.cfi_offset 14, -4
  42              		.loc 1 45 0
  43 0004 4FF44070 		mov	r0, #768
  44              	.LVL1:
  45              		.loc 1 43 0
  46 0008 0D46     		mov	r5, r1
  47 000a 1446     		mov	r4, r2
  48              		.loc 1 45 0
  49 000c 1021     		movs	r1, #16
  50              	.LVL2:
  51 000e 1A46     		mov	r2, r3
  52              	.LVL3:
  53 0010 FFF7FEFF 		bl	CC2520_MEMWR
  54              	.LVL4:
  55              		.loc 1 48 0
  56 0014 2A46     		mov	r2, r5
  57 0016 1021     		movs	r1, #16
ARM GAS  /tmp/ccOJ9AF7.s 			page 2


  58 0018 4FF44470 		mov	r0, #784
  59 001c FFF7FEFF 		bl	CC2520_MEMWR
  60              	.LVL5:
  61              		.loc 1 51 0
  62 0020 2246     		mov	r2, r4
  63 0022 1021     		movs	r1, #16
  64 0024 4FF44870 		mov	r0, #800
  65 0028 FFF7FEFF 		bl	CC2520_MEMWR
  66              	.LVL6:
  67              		.loc 1 54 0
  68 002c 4FF44072 		mov	r2, #768
  69 0030 1346     		mov	r3, r2
  70 0032 1021     		movs	r1, #16
  71 0034 0120     		movs	r0, #1
  72 0036 FFF7FEFF 		bl	CC2520_MEMCPR
  73              	.LVL7:
  74              		.loc 1 57 0
  75 003a 4FF44472 		mov	r2, #784
  76 003e 1346     		mov	r3, r2
  77 0040 1021     		movs	r1, #16
  78 0042 0120     		movs	r0, #1
  79 0044 FFF7FEFF 		bl	CC2520_MEMCPR
  80              	.LVL8:
  81              		.loc 1 58 0
  82 0048 4FF44872 		mov	r2, #800
  83 004c 1346     		mov	r3, r2
  84 004e 0120     		movs	r0, #1
  85 0050 1021     		movs	r1, #16
  86              		.loc 1 59 0
  87 0052 BDE87040 		pop	{r4, r5, r6, lr}
  88              		.cfi_restore 14
  89              		.cfi_restore 6
  90              		.cfi_restore 5
  91              		.cfi_restore 4
  92              		.cfi_def_cfa_offset 0
  93              	.LVL9:
  94              		.loc 1 58 0
  95 0056 FFF7FEBF 		b	CC2520_MEMCPR
  96              	.LVL10:
  97              		.cfi_endproc
  98              	.LFE256:
  99              		.size	halRfSecurityInit, .-halRfSecurityInit
 100 005a 00BF     		.section	.text.halRfReadRxBufSecure,"ax",%progbits
 101              		.align	2
 102              		.p2align 4,,15
 103              		.global	halRfReadRxBufSecure
 104              		.thumb
 105              		.thumb_func
 106              		.type	halRfReadRxBufSecure, %function
 107              	halRfReadRxBufSecure:
 108              	.LFB257:
 109              		.loc 1 79 0
 110              		.cfi_startproc
 111              		@ args = 4, pretend = 0, frame = 0
 112              		@ frame_needed = 0, uses_anonymous_args = 0
 113              	.LVL11:
 114 0000 2DE9F043 		push	{r4, r5, r6, r7, r8, r9, lr}
ARM GAS  /tmp/ccOJ9AF7.s 			page 3


 115              		.cfi_def_cfa_offset 28
 116              		.cfi_offset 4, -28
 117              		.cfi_offset 5, -24
 118              		.cfi_offset 6, -20
 119              		.cfi_offset 7, -16
 120              		.cfi_offset 8, -12
 121              		.cfi_offset 9, -8
 122              		.cfi_offset 14, -4
 123 0004 85B0     		sub	sp, sp, #20
 124              		.cfi_def_cfa_offset 48
 125              		.loc 1 79 0
 126 0006 1C46     		mov	r4, r3
 127 0008 0D46     		mov	r5, r1
 128 000a 0746     		mov	r7, r0
 129 000c 9046     		mov	r8, r2
 130              		.loc 1 82 0
 131 000e 0023     		movs	r3, #0
 132              	.LVL12:
 133 0010 0A46     		mov	r2, r1
 134              	.LVL13:
 135 0012 0120     		movs	r0, #1
 136              	.LVL14:
 137 0014 4FF40071 		mov	r1, #512
 138              	.LVL15:
 139              		.loc 1 79 0
 140 0018 9DF83090 		ldrb	r9, [sp, #48]	@ zero_extendqisi2
 141              		.loc 1 82 0
 142 001c FFF7FEFF 		bl	CC2520_RXBUFMOV
 143              	.LVL16:
 144              		.loc 1 83 0
 145 0020 FFF7FEFF 		bl	WAIT_DPU_DONE_H
 146              	.LVL17:
 147              		.loc 1 88 0
 148 0024 0421     		movs	r1, #4
 149 0026 40F20A22 		movw	r2, #522
 150 002a 40F21333 		movw	r3, #787
 151 002e 0120     		movs	r0, #1
 152 0030 FFF7FEFF 		bl	CC2520_MEMCP
 153              	.LVL18:
 154              		.loc 1 96 0
 155 0034 4FF40076 		mov	r6, #512
 156              		.loc 1 89 0
 157 0038 FFF7FEFF 		bl	WAIT_DPU_DONE_H
 158              	.LVL19:
 159              		.loc 1 92 0
 160 003c 0221     		movs	r1, #2
 161 003e 40F20722 		movw	r2, #519
 162 0042 40F21733 		movw	r3, #791
 163 0046 0120     		movs	r0, #1
 164 0048 FFF7FEFF 		bl	CC2520_MEMCP
 165              	.LVL20:
 166              		.loc 1 93 0
 167 004c FFF7FEFF 		bl	WAIT_DPU_DONE_H
 168              	.LVL21:
 169              		.loc 1 96 0
 170 0050 A319     		adds	r3, r4, r6
 171 0052 4246     		mov	r2, r8
ARM GAS  /tmp/ccOJ9AF7.s 			page 4


 172 0054 3021     		movs	r1, #48
 173 0056 0294     		str	r4, [sp, #8]
 174 0058 0193     		str	r3, [sp, #4]
 175 005a CDF80C90 		str	r9, [sp, #12]
 176 005e 3123     		movs	r3, #49
 177 0060 0096     		str	r6, [sp]
 178 0062 0120     		movs	r0, #1
 179 0064 FFF7FEFF 		bl	CC2520_UCCM
 180              	.LVL22:
 181              		.loc 1 97 0
 182 0068 FFF7FEFF 		bl	WAIT_DPU_DONE_H
 183              	.LVL23:
 184              		.loc 1 100 0
 185 006c 2C20     		movs	r0, #44
 186 006e FFF7FEFF 		bl	CC2520_REGRD8
 187              	.LVL24:
 188              		.loc 1 103 0
 189 0072 2946     		mov	r1, r5
 190              		.loc 1 100 0
 191 0074 0446     		mov	r4, r0
 192              	.LVL25:
 193              		.loc 1 103 0
 194 0076 3A46     		mov	r2, r7
 195 0078 3046     		mov	r0, r6
 196 007a FFF7FEFF 		bl	CC2520_MEMRD
 197              	.LVL26:
 198              		.loc 1 105 0
 199 007e 84F00800 		eor	r0, r4, #8
 200              		.loc 1 111 0
 201 0082 C0F3C000 		ubfx	r0, r0, #3, #1
 202 0086 05B0     		add	sp, sp, #20
 203              		.cfi_def_cfa_offset 28
 204              		@ sp needed
 205 0088 BDE8F083 		pop	{r4, r5, r6, r7, r8, r9, pc}
 206              		.cfi_endproc
 207              	.LFE257:
 208              		.size	halRfReadRxBufSecure, .-halRfReadRxBufSecure
 209              		.section	.text.halRfWriteTxBufSecure,"ax",%progbits
 210              		.align	2
 211              		.p2align 4,,15
 212              		.global	halRfWriteTxBufSecure
 213              		.thumb
 214              		.thumb_func
 215              		.type	halRfWriteTxBufSecure, %function
 216              	halRfWriteTxBufSecure:
 217              	.LFB258:
 218              		.loc 1 129 0
 219              		.cfi_startproc
 220              		@ args = 4, pretend = 0, frame = 0
 221              		@ frame_needed = 0, uses_anonymous_args = 0
 222              	.LVL27:
 223 0000 2DE9F043 		push	{r4, r5, r6, r7, r8, r9, lr}
 224              		.cfi_def_cfa_offset 28
 225              		.cfi_offset 4, -28
 226              		.cfi_offset 5, -24
 227              		.cfi_offset 6, -20
 228              		.cfi_offset 7, -16
ARM GAS  /tmp/ccOJ9AF7.s 			page 5


 229              		.cfi_offset 8, -12
 230              		.cfi_offset 9, -8
 231              		.cfi_offset 14, -4
 232 0004 85B0     		sub	sp, sp, #20
 233              		.cfi_def_cfa_offset 48
 234              		.loc 1 129 0
 235 0006 0C46     		mov	r4, r1
 236 0008 9DF83050 		ldrb	r5, [sp, #48]	@ zero_extendqisi2
 237 000c 9046     		mov	r8, r2
 238 000e 9946     		mov	r9, r3
 239              		.loc 1 135 0
 240 0010 1DBB     		cbnz	r5, .L10
 241              		.loc 1 139 0
 242 0012 2E46     		mov	r6, r5
 243              	.LVL28:
 244              	.L6:
 245              		.loc 1 143 0
 246 0014 0246     		mov	r2, r0
 247 0016 2146     		mov	r1, r4
 248              	.LVL29:
 249 0018 4FF42070 		mov	r0, #640
 250              	.LVL30:
 251 001c FFF7FEFF 		bl	CC2520_MEMWR
 252              	.LVL31:
 253              		.loc 1 147 0
 254 0020 0027     		movs	r7, #0
 255 0022 40F28121 		movw	r1, #641
 256 0026 4246     		mov	r2, r8
 257 0028 8DE88200 		stmia	sp, {r1, r7}
 258 002c 3223     		movs	r3, #50
 259 002e 3021     		movs	r1, #48
 260 0030 CDF80890 		str	r9, [sp, #8]
 261 0034 0395     		str	r5, [sp, #12]
 262 0036 0120     		movs	r0, #1
 263 0038 FFF7FEFF 		bl	CC2520_CCM
 264              	.LVL32:
 265              		.loc 1 148 0
 266 003c FFF7FEFF 		bl	WAIT_DPU_DONE_H
 267              	.LVL33:
 268              		.loc 1 151 0
 269 0040 3219     		adds	r2, r6, r4
 270 0042 3B46     		mov	r3, r7
 271 0044 D2B2     		uxtb	r2, r2
 272 0046 4FF42071 		mov	r1, #640
 273 004a 0120     		movs	r0, #1
 274 004c FFF7FEFF 		bl	CC2520_TXBUFCP
 275              	.LVL34:
 276              		.loc 1 154 0
 277 0050 05B0     		add	sp, sp, #20
 278              		.cfi_remember_state
 279              		.cfi_def_cfa_offset 28
 280              		@ sp needed
 281 0052 BDE8F043 		pop	{r4, r5, r6, r7, r8, r9, lr}
 282              		.cfi_restore 14
 283              		.cfi_restore 9
 284              		.cfi_restore 8
 285              		.cfi_restore 7
ARM GAS  /tmp/ccOJ9AF7.s 			page 6


 286              		.cfi_restore 6
 287              		.cfi_restore 5
 288              		.cfi_restore 4
 289              		.cfi_def_cfa_offset 0
 290              	.LVL35:
 291              		.loc 1 152 0
 292 0056 FFF7FEBF 		b	WAIT_DPU_DONE_H
 293              	.LVL36:
 294              	.L10:
 295              		.cfi_restore_state
 296              		.loc 1 136 0
 297 005a 0222     		movs	r2, #2
 298              	.LVL37:
 299 005c AA40     		lsls	r2, r2, r5
 300 005e D6B2     		uxtb	r6, r2
 301              	.LVL38:
 302 0060 D8E7     		b	.L6
 303              		.cfi_endproc
 304              	.LFE258:
 305              		.size	halRfWriteTxBufSecure, .-halRfWriteTxBufSecure
 306 0062 00BF     		.section	.text.halRfIncNonceTx,"ax",%progbits
 307              		.align	2
 308              		.p2align 4,,15
 309              		.global	halRfIncNonceTx
 310              		.thumb
 311              		.thumb_func
 312              		.type	halRfIncNonceTx, %function
 313              	halRfIncNonceTx:
 314              	.LFB259:
 315              		.loc 1 167 0
 316              		.cfi_startproc
 317              		@ args = 0, pretend = 0, frame = 0
 318              		@ frame_needed = 0, uses_anonymous_args = 0
 319 0000 08B5     		push	{r3, lr}
 320              		.cfi_def_cfa_offset 8
 321              		.cfi_offset 3, -8
 322              		.cfi_offset 14, -4
 323              		.loc 1 172 0
 324 0002 0120     		movs	r0, #1
 325 0004 0221     		movs	r1, #2
 326 0006 40F22332 		movw	r2, #803
 327 000a FFF7FEFF 		bl	CC2520_INC
 328              	.LVL39:
 329              		.loc 1 174 0
 330 000e BDE80840 		pop	{r3, lr}
 331              		.cfi_restore 14
 332              		.cfi_restore 3
 333              		.cfi_def_cfa_offset 0
 334              		.loc 1 173 0
 335 0012 FFF7FEBF 		b	WAIT_DPU_DONE_H
 336              	.LVL40:
 337              		.cfi_endproc
 338              	.LFE259:
 339              		.size	halRfIncNonceTx, .-halRfIncNonceTx
 340 0016 00BF     		.text
 341              	.Letext0:
 342              		.file 2 "/usr/arm-none-eabi/include/machine/_default_types.h"
ARM GAS  /tmp/ccOJ9AF7.s 			page 7


 343              		.file 3 "/usr/arm-none-eabi/include/sys/_stdint.h"
 344              		.file 4 "ChibiOS_3.0.2/os/rt/ports/ARMCMx/compilers/GCC/chtypes.h"
 345              		.file 5 "ChibiOS_3.0.2/os/rt/include/chsystypes.h"
 346              		.file 6 "ChibiOS_3.0.2/os/rt/include/chschd.h"
 347              		.file 7 "ChibiOS_3.0.2/os/rt/ports/ARMCMx/chcore.h"
 348              		.file 8 "ChibiOS_3.0.2/os/rt/ports/ARMCMx/chcore_v7m.h"
 349              		.file 9 "ChibiOS_3.0.2/os/rt/include/chtm.h"
 350              		.file 10 "ChibiOS_3.0.2/os/rt/include/chsem.h"
 351              		.file 11 "ChibiOS_3.0.2/os/rt/include/chmtx.h"
 352              		.file 12 "cc2520/driver/hal_types.h"
 353              		.file 13 "cc2520/driver/hal_cc2520.h"
 354              		.file 14 "ChibiOS_3.0.2/os/ext/CMSIS/include/core_cm4.h"