ARM GAS  /tmp/ccHp95GJ.s 			page 1


   1              		.syntax unified
   2              		.cpu cortex-m4
   3              		.eabi_attribute 27, 1
   4              		.eabi_attribute 28, 1
   5              		.fpu fpv4-sp-d16
   6              		.eabi_attribute 20, 1
   7              		.eabi_attribute 21, 1
   8              		.eabi_attribute 23, 3
   9              		.eabi_attribute 24, 1
  10              		.eabi_attribute 25, 1
  11              		.eabi_attribute 26, 1
  12              		.eabi_attribute 30, 2
  13              		.eabi_attribute 34, 1
  14              		.eabi_attribute 18, 4
  15              		.thumb
  16              		.file	"hal_cc2520.c"
  17              		.text
  18              	.Ltext0:
  19              		.cfi_sections	.debug_frame
  20              		.section	.text.CC2520_INS_MEMCP_COMMON,"ax",%progbits
  21              		.align	2
  22              		.p2align 4,,15
  23              		.thumb
  24              		.thumb_func
  25              		.type	CC2520_INS_MEMCP_COMMON, %function
  26              	CC2520_INS_MEMCP_COMMON:
  27              	.LFB256:
  28              		.file 1 "cc2520/driver/hal_cc2520.c"
  29              		.loc 1 127 0
  30              		.cfi_startproc
  31              		@ args = 4, pretend = 0, frame = 0
  32              		@ frame_needed = 0, uses_anonymous_args = 0
  33              	.LVL0:
  34 0000 2DE9F041 		push	{r4, r5, r6, r7, r8, lr}
  35              		.cfi_def_cfa_offset 24
  36              		.cfi_offset 4, -24
  37              		.cfi_offset 5, -20
  38              		.cfi_offset 6, -16
  39              		.cfi_offset 7, -12
  40              		.cfi_offset 8, -8
  41              		.cfi_offset 14, -4
  42              		.loc 1 127 0
  43 0004 0E46     		mov	r6, r1
  44 0006 8046     		mov	r8, r0
  45 0008 1746     		mov	r7, r2
  46 000a 1D46     		mov	r5, r3
  47 000c BDF81840 		ldrh	r4, [sp, #24]
  48              		.loc 1 129 0
  49 0010 FFF7FEFF 		bl	spi_sw_begin
  50              	.LVL1:
  51              		.loc 1 130 0
  52 0014 48EA0600 		orr	r0, r8, r6
  53 0018 FFF7FEFF 		bl	halSpiExc
  54              	.LVL2:
  55 001c 0646     		mov	r6, r0
  56              	.LVL3:
  57              		.loc 1 131 0
ARM GAS  /tmp/ccHp95GJ.s 			page 2


  58 001e F8B2     		uxtb	r0, r7
  59 0020 FFF7FEFF 		bl	halSpiExc
  60              	.LVL4:
  61              		.loc 1 132 0
  62 0024 230A     		lsrs	r3, r4, #8
  63 0026 280A     		lsrs	r0, r5, #8
  64 0028 43EA0010 		orr	r0, r3, r0, lsl #4
  65 002c C0B2     		uxtb	r0, r0
  66 002e FFF7FEFF 		bl	halSpiExc
  67              	.LVL5:
  68              		.loc 1 133 0
  69 0032 E8B2     		uxtb	r0, r5
  70 0034 FFF7FEFF 		bl	halSpiExc
  71              	.LVL6:
  72              		.loc 1 134 0
  73 0038 E0B2     		uxtb	r0, r4
  74 003a FFF7FEFF 		bl	halSpiExc
  75              	.LVL7:
  76              		.loc 1 135 0
  77 003e FFF7FEFF 		bl	spi_sw_end
  78              	.LVL8:
  79              		.loc 1 137 0
  80 0042 3046     		mov	r0, r6
  81 0044 BDE8F081 		pop	{r4, r5, r6, r7, r8, pc}
  82              		.cfi_endproc
  83              	.LFE256:
  84              		.size	CC2520_INS_MEMCP_COMMON, .-CC2520_INS_MEMCP_COMMON
  85              		.section	.text.WAIT_DPU_DONE_H,"ax",%progbits
  86              		.align	2
  87              		.p2align 4,,15
  88              		.global	WAIT_DPU_DONE_H
  89              		.thumb
  90              		.thumb_func
  91              		.type	WAIT_DPU_DONE_H, %function
  92              	WAIT_DPU_DONE_H:
  93              	.LFB257:
  94              		.loc 1 139 0
  95              		.cfi_startproc
  96              		@ args = 0, pretend = 0, frame = 0
  97              		@ frame_needed = 0, uses_anonymous_args = 0
  98              	.LVL9:
  99 0000 38B5     		push	{r3, r4, r5, lr}
 100              		.cfi_def_cfa_offset 16
 101              		.cfi_offset 3, -16
 102              		.cfi_offset 4, -12
 103              		.cfi_offset 5, -8
 104              		.cfi_offset 14, -4
 105              		.loc 1 142 0
 106 0002 42F21174 		movw	r4, #10001
 107 0006 01E0     		b	.L4
 108              	.LVL10:
 109              	.L6:
 110              		.loc 1 144 0
 111 0008 013C     		subs	r4, r4, #1
 112              	.LVL11:
 113 000a 0BD0     		beq	.L7
 114              	.LVL12:
ARM GAS  /tmp/ccHp95GJ.s 			page 3


 115              	.L4:
 116              	.LBB38:
 117              	.LBB39:
 118              		.loc 1 164 0
 119 000c FFF7FEFF 		bl	spi_sw_begin
 120              	.LVL13:
 121              		.loc 1 165 0
 122 0010 0020     		movs	r0, #0
 123 0012 FFF7FEFF 		bl	halSpiExc
 124              	.LVL14:
 125 0016 0546     		mov	r5, r0
 126              	.LVL15:
 127              		.loc 1 166 0
 128 0018 FFF7FEFF 		bl	spi_sw_end
 129              	.LVL16:
 130              	.LBE39:
 131              	.LBE38:
 132              		.loc 1 142 0
 133 001c 2B07     		lsls	r3, r5, #28
 134 001e F3D4     		bmi	.L6
 135              		.loc 1 149 0
 136 0020 0120     		movs	r0, #1
 137 0022 38BD     		pop	{r3, r4, r5, pc}
 138              	.LVL17:
 139              	.L7:
 140              		.loc 1 145 0
 141 0024 2046     		mov	r0, r4
 142              		.loc 1 150 0
 143 0026 38BD     		pop	{r3, r4, r5, pc}
 144              		.cfi_endproc
 145              	.LFE257:
 146              		.size	WAIT_DPU_DONE_H, .-WAIT_DPU_DONE_H
 147              		.section	.text.CC2520_INS_STROBE,"ax",%progbits
 148              		.align	2
 149              		.p2align 4,,15
 150              		.global	CC2520_INS_STROBE
 151              		.thumb
 152              		.thumb_func
 153              		.type	CC2520_INS_STROBE, %function
 154              	CC2520_INS_STROBE:
 155              	.LFB258:
 156              		.loc 1 162 0
 157              		.cfi_startproc
 158              		@ args = 0, pretend = 0, frame = 0
 159              		@ frame_needed = 0, uses_anonymous_args = 0
 160              	.LVL18:
 161 0000 10B5     		push	{r4, lr}
 162              		.cfi_def_cfa_offset 8
 163              		.cfi_offset 4, -8
 164              		.cfi_offset 14, -4
 165              		.loc 1 162 0
 166 0002 0446     		mov	r4, r0
 167              		.loc 1 164 0
 168 0004 FFF7FEFF 		bl	spi_sw_begin
 169              	.LVL19:
 170              		.loc 1 165 0
 171 0008 2046     		mov	r0, r4
ARM GAS  /tmp/ccHp95GJ.s 			page 4


 172 000a FFF7FEFF 		bl	halSpiExc
 173              	.LVL20:
 174 000e 0446     		mov	r4, r0
 175              	.LVL21:
 176              		.loc 1 166 0
 177 0010 FFF7FEFF 		bl	spi_sw_end
 178              	.LVL22:
 179              		.loc 1 168 0
 180 0014 2046     		mov	r0, r4
 181 0016 10BD     		pop	{r4, pc}
 182              		.cfi_endproc
 183              	.LFE258:
 184              		.size	CC2520_INS_STROBE, .-CC2520_INS_STROBE
 185              		.section	.text.CC2520_SNOP,"ax",%progbits
 186              		.align	2
 187              		.p2align 4,,15
 188              		.global	CC2520_SNOP
 189              		.thumb
 190              		.thumb_func
 191              		.type	CC2520_SNOP, %function
 192              	CC2520_SNOP:
 193              	.LFB259:
 194              		.loc 1 181 0
 195              		.cfi_startproc
 196              		@ args = 0, pretend = 0, frame = 0
 197              		@ frame_needed = 0, uses_anonymous_args = 0
 198              	.LVL23:
 199 0000 10B5     		push	{r4, lr}
 200              		.cfi_def_cfa_offset 8
 201              		.cfi_offset 4, -8
 202              		.cfi_offset 14, -4
 203              	.LBB40:
 204              	.LBB41:
 205              		.loc 1 164 0
 206 0002 FFF7FEFF 		bl	spi_sw_begin
 207              	.LVL24:
 208              		.loc 1 165 0
 209 0006 0020     		movs	r0, #0
 210 0008 FFF7FEFF 		bl	halSpiExc
 211              	.LVL25:
 212 000c 0446     		mov	r4, r0
 213              	.LVL26:
 214              		.loc 1 166 0
 215 000e FFF7FEFF 		bl	spi_sw_end
 216              	.LVL27:
 217              	.LBE41:
 218              	.LBE40:
 219              		.loc 1 183 0
 220 0012 2046     		mov	r0, r4
 221 0014 10BD     		pop	{r4, pc}
 222              		.cfi_endproc
 223              	.LFE259:
 224              		.size	CC2520_SNOP, .-CC2520_SNOP
 225 0016 00BF     		.section	.text.CC2520_SIBUFEX,"ax",%progbits
 226              		.align	2
 227              		.p2align 4,,15
 228              		.global	CC2520_SIBUFEX
ARM GAS  /tmp/ccHp95GJ.s 			page 5


 229              		.thumb
 230              		.thumb_func
 231              		.type	CC2520_SIBUFEX, %function
 232              	CC2520_SIBUFEX:
 233              	.LFB260:
 234              		.loc 1 196 0
 235              		.cfi_startproc
 236              		@ args = 0, pretend = 0, frame = 0
 237              		@ frame_needed = 0, uses_anonymous_args = 0
 238              	.LVL28:
 239 0000 10B5     		push	{r4, lr}
 240              		.cfi_def_cfa_offset 8
 241              		.cfi_offset 4, -8
 242              		.cfi_offset 14, -4
 243              	.LBB42:
 244              	.LBB43:
 245              		.loc 1 164 0
 246 0002 FFF7FEFF 		bl	spi_sw_begin
 247              	.LVL29:
 248              		.loc 1 165 0
 249 0006 0320     		movs	r0, #3
 250 0008 FFF7FEFF 		bl	halSpiExc
 251              	.LVL30:
 252 000c 0446     		mov	r4, r0
 253              	.LVL31:
 254              		.loc 1 166 0
 255 000e FFF7FEFF 		bl	spi_sw_end
 256              	.LVL32:
 257              	.LBE43:
 258              	.LBE42:
 259              		.loc 1 198 0
 260 0012 2046     		mov	r0, r4
 261 0014 10BD     		pop	{r4, pc}
 262              		.cfi_endproc
 263              	.LFE260:
 264              		.size	CC2520_SIBUFEX, .-CC2520_SIBUFEX
 265 0016 00BF     		.section	.text.CC2520_SSAMPLECCA,"ax",%progbits
 266              		.align	2
 267              		.p2align 4,,15
 268              		.global	CC2520_SSAMPLECCA
 269              		.thumb
 270              		.thumb_func
 271              		.type	CC2520_SSAMPLECCA, %function
 272              	CC2520_SSAMPLECCA:
 273              	.LFB261:
 274              		.loc 1 211 0
 275              		.cfi_startproc
 276              		@ args = 0, pretend = 0, frame = 0
 277              		@ frame_needed = 0, uses_anonymous_args = 0
 278              	.LVL33:
 279 0000 10B5     		push	{r4, lr}
 280              		.cfi_def_cfa_offset 8
 281              		.cfi_offset 4, -8
 282              		.cfi_offset 14, -4
 283              	.LBB44:
 284              	.LBB45:
 285              		.loc 1 164 0
ARM GAS  /tmp/ccHp95GJ.s 			page 6


 286 0002 FFF7FEFF 		bl	spi_sw_begin
 287              	.LVL34:
 288              		.loc 1 165 0
 289 0006 0420     		movs	r0, #4
 290 0008 FFF7FEFF 		bl	halSpiExc
 291              	.LVL35:
 292 000c 0446     		mov	r4, r0
 293              	.LVL36:
 294              		.loc 1 166 0
 295 000e FFF7FEFF 		bl	spi_sw_end
 296              	.LVL37:
 297              	.LBE45:
 298              	.LBE44:
 299              		.loc 1 213 0
 300 0012 2046     		mov	r0, r4
 301 0014 10BD     		pop	{r4, pc}
 302              		.cfi_endproc
 303              	.LFE261:
 304              		.size	CC2520_SSAMPLECCA, .-CC2520_SSAMPLECCA
 305 0016 00BF     		.section	.text.CC2520_SXOSCON,"ax",%progbits
 306              		.align	2
 307              		.p2align 4,,15
 308              		.global	CC2520_SXOSCON
 309              		.thumb
 310              		.thumb_func
 311              		.type	CC2520_SXOSCON, %function
 312              	CC2520_SXOSCON:
 313              	.LFB262:
 314              		.loc 1 226 0
 315              		.cfi_startproc
 316              		@ args = 0, pretend = 0, frame = 0
 317              		@ frame_needed = 0, uses_anonymous_args = 0
 318              	.LVL38:
 319 0000 10B5     		push	{r4, lr}
 320              		.cfi_def_cfa_offset 8
 321              		.cfi_offset 4, -8
 322              		.cfi_offset 14, -4
 323              	.LBB46:
 324              	.LBB47:
 325              		.loc 1 164 0
 326 0002 FFF7FEFF 		bl	spi_sw_begin
 327              	.LVL39:
 328              		.loc 1 165 0
 329 0006 4020     		movs	r0, #64
 330 0008 FFF7FEFF 		bl	halSpiExc
 331              	.LVL40:
 332 000c 0446     		mov	r4, r0
 333              	.LVL41:
 334              		.loc 1 166 0
 335 000e FFF7FEFF 		bl	spi_sw_end
 336              	.LVL42:
 337              	.LBE47:
 338              	.LBE46:
 339              		.loc 1 228 0
 340 0012 2046     		mov	r0, r4
 341 0014 10BD     		pop	{r4, pc}
 342              		.cfi_endproc
ARM GAS  /tmp/ccHp95GJ.s 			page 7


 343              	.LFE262:
 344              		.size	CC2520_SXOSCON, .-CC2520_SXOSCON
 345 0016 00BF     		.section	.text.CC2520_STXCAL,"ax",%progbits
 346              		.align	2
 347              		.p2align 4,,15
 348              		.global	CC2520_STXCAL
 349              		.thumb
 350              		.thumb_func
 351              		.type	CC2520_STXCAL, %function
 352              	CC2520_STXCAL:
 353              	.LFB263:
 354              		.loc 1 241 0
 355              		.cfi_startproc
 356              		@ args = 0, pretend = 0, frame = 0
 357              		@ frame_needed = 0, uses_anonymous_args = 0
 358              	.LVL43:
 359 0000 10B5     		push	{r4, lr}
 360              		.cfi_def_cfa_offset 8
 361              		.cfi_offset 4, -8
 362              		.cfi_offset 14, -4
 363              	.LBB48:
 364              	.LBB49:
 365              		.loc 1 164 0
 366 0002 FFF7FEFF 		bl	spi_sw_begin
 367              	.LVL44:
 368              		.loc 1 165 0
 369 0006 4120     		movs	r0, #65
 370 0008 FFF7FEFF 		bl	halSpiExc
 371              	.LVL45:
 372 000c 0446     		mov	r4, r0
 373              	.LVL46:
 374              		.loc 1 166 0
 375 000e FFF7FEFF 		bl	spi_sw_end
 376              	.LVL47:
 377              	.LBE49:
 378              	.LBE48:
 379              		.loc 1 243 0
 380 0012 2046     		mov	r0, r4
 381 0014 10BD     		pop	{r4, pc}
 382              		.cfi_endproc
 383              	.LFE263:
 384              		.size	CC2520_STXCAL, .-CC2520_STXCAL
 385 0016 00BF     		.section	.text.CC2520_SRXON,"ax",%progbits
 386              		.align	2
 387              		.p2align 4,,15
 388              		.global	CC2520_SRXON
 389              		.thumb
 390              		.thumb_func
 391              		.type	CC2520_SRXON, %function
 392              	CC2520_SRXON:
 393              	.LFB264:
 394              		.loc 1 256 0
 395              		.cfi_startproc
 396              		@ args = 0, pretend = 0, frame = 0
 397              		@ frame_needed = 0, uses_anonymous_args = 0
 398              	.LVL48:
 399 0000 10B5     		push	{r4, lr}
ARM GAS  /tmp/ccHp95GJ.s 			page 8


 400              		.cfi_def_cfa_offset 8
 401              		.cfi_offset 4, -8
 402              		.cfi_offset 14, -4
 403              	.LBB50:
 404              	.LBB51:
 405              		.loc 1 164 0
 406 0002 FFF7FEFF 		bl	spi_sw_begin
 407              	.LVL49:
 408              		.loc 1 165 0
 409 0006 4220     		movs	r0, #66
 410 0008 FFF7FEFF 		bl	halSpiExc
 411              	.LVL50:
 412 000c 0446     		mov	r4, r0
 413              	.LVL51:
 414              		.loc 1 166 0
 415 000e FFF7FEFF 		bl	spi_sw_end
 416              	.LVL52:
 417              	.LBE51:
 418              	.LBE50:
 419              		.loc 1 258 0
 420 0012 2046     		mov	r0, r4
 421 0014 10BD     		pop	{r4, pc}
 422              		.cfi_endproc
 423              	.LFE264:
 424              		.size	CC2520_SRXON, .-CC2520_SRXON
 425 0016 00BF     		.section	.text.CC2520_STXON,"ax",%progbits
 426              		.align	2
 427              		.p2align 4,,15
 428              		.global	CC2520_STXON
 429              		.thumb
 430              		.thumb_func
 431              		.type	CC2520_STXON, %function
 432              	CC2520_STXON:
 433              	.LFB265:
 434              		.loc 1 271 0
 435              		.cfi_startproc
 436              		@ args = 0, pretend = 0, frame = 0
 437              		@ frame_needed = 0, uses_anonymous_args = 0
 438              	.LVL53:
 439 0000 10B5     		push	{r4, lr}
 440              		.cfi_def_cfa_offset 8
 441              		.cfi_offset 4, -8
 442              		.cfi_offset 14, -4
 443              	.LBB52:
 444              	.LBB53:
 445              		.loc 1 164 0
 446 0002 FFF7FEFF 		bl	spi_sw_begin
 447              	.LVL54:
 448              		.loc 1 165 0
 449 0006 4320     		movs	r0, #67
 450 0008 FFF7FEFF 		bl	halSpiExc
 451              	.LVL55:
 452 000c 0446     		mov	r4, r0
 453              	.LVL56:
 454              		.loc 1 166 0
 455 000e FFF7FEFF 		bl	spi_sw_end
 456              	.LVL57:
ARM GAS  /tmp/ccHp95GJ.s 			page 9


 457              	.LBE53:
 458              	.LBE52:
 459              		.loc 1 273 0
 460 0012 2046     		mov	r0, r4
 461 0014 10BD     		pop	{r4, pc}
 462              		.cfi_endproc
 463              	.LFE265:
 464              		.size	CC2520_STXON, .-CC2520_STXON
 465 0016 00BF     		.section	.text.CC2520_STXONCCA,"ax",%progbits
 466              		.align	2
 467              		.p2align 4,,15
 468              		.global	CC2520_STXONCCA
 469              		.thumb
 470              		.thumb_func
 471              		.type	CC2520_STXONCCA, %function
 472              	CC2520_STXONCCA:
 473              	.LFB266:
 474              		.loc 1 286 0
 475              		.cfi_startproc
 476              		@ args = 0, pretend = 0, frame = 0
 477              		@ frame_needed = 0, uses_anonymous_args = 0
 478              	.LVL58:
 479 0000 10B5     		push	{r4, lr}
 480              		.cfi_def_cfa_offset 8
 481              		.cfi_offset 4, -8
 482              		.cfi_offset 14, -4
 483              	.LBB54:
 484              	.LBB55:
 485              		.loc 1 164 0
 486 0002 FFF7FEFF 		bl	spi_sw_begin
 487              	.LVL59:
 488              		.loc 1 165 0
 489 0006 4420     		movs	r0, #68
 490 0008 FFF7FEFF 		bl	halSpiExc
 491              	.LVL60:
 492 000c 0446     		mov	r4, r0
 493              	.LVL61:
 494              		.loc 1 166 0
 495 000e FFF7FEFF 		bl	spi_sw_end
 496              	.LVL62:
 497              	.LBE55:
 498              	.LBE54:
 499              		.loc 1 288 0
 500 0012 2046     		mov	r0, r4
 501 0014 10BD     		pop	{r4, pc}
 502              		.cfi_endproc
 503              	.LFE266:
 504              		.size	CC2520_STXONCCA, .-CC2520_STXONCCA
 505 0016 00BF     		.section	.text.CC2520_SRFOFF,"ax",%progbits
 506              		.align	2
 507              		.p2align 4,,15
 508              		.global	CC2520_SRFOFF
 509              		.thumb
 510              		.thumb_func
 511              		.type	CC2520_SRFOFF, %function
 512              	CC2520_SRFOFF:
 513              	.LFB267:
ARM GAS  /tmp/ccHp95GJ.s 			page 10


 514              		.loc 1 301 0
 515              		.cfi_startproc
 516              		@ args = 0, pretend = 0, frame = 0
 517              		@ frame_needed = 0, uses_anonymous_args = 0
 518              	.LVL63:
 519 0000 10B5     		push	{r4, lr}
 520              		.cfi_def_cfa_offset 8
 521              		.cfi_offset 4, -8
 522              		.cfi_offset 14, -4
 523              	.LBB56:
 524              	.LBB57:
 525              		.loc 1 164 0
 526 0002 FFF7FEFF 		bl	spi_sw_begin
 527              	.LVL64:
 528              		.loc 1 165 0
 529 0006 4520     		movs	r0, #69
 530 0008 FFF7FEFF 		bl	halSpiExc
 531              	.LVL65:
 532 000c 0446     		mov	r4, r0
 533              	.LVL66:
 534              		.loc 1 166 0
 535 000e FFF7FEFF 		bl	spi_sw_end
 536              	.LVL67:
 537              	.LBE57:
 538              	.LBE56:
 539              		.loc 1 303 0
 540 0012 2046     		mov	r0, r4
 541 0014 10BD     		pop	{r4, pc}
 542              		.cfi_endproc
 543              	.LFE267:
 544              		.size	CC2520_SRFOFF, .-CC2520_SRFOFF
 545 0016 00BF     		.section	.text.CC2520_SXOSCOFF,"ax",%progbits
 546              		.align	2
 547              		.p2align 4,,15
 548              		.global	CC2520_SXOSCOFF
 549              		.thumb
 550              		.thumb_func
 551              		.type	CC2520_SXOSCOFF, %function
 552              	CC2520_SXOSCOFF:
 553              	.LFB268:
 554              		.loc 1 316 0
 555              		.cfi_startproc
 556              		@ args = 0, pretend = 0, frame = 0
 557              		@ frame_needed = 0, uses_anonymous_args = 0
 558              	.LVL68:
 559 0000 10B5     		push	{r4, lr}
 560              		.cfi_def_cfa_offset 8
 561              		.cfi_offset 4, -8
 562              		.cfi_offset 14, -4
 563              	.LBB58:
 564              	.LBB59:
 565              		.loc 1 164 0
 566 0002 FFF7FEFF 		bl	spi_sw_begin
 567              	.LVL69:
 568              		.loc 1 165 0
 569 0006 4620     		movs	r0, #70
 570 0008 FFF7FEFF 		bl	halSpiExc
ARM GAS  /tmp/ccHp95GJ.s 			page 11


 571              	.LVL70:
 572 000c 0446     		mov	r4, r0
 573              	.LVL71:
 574              		.loc 1 166 0
 575 000e FFF7FEFF 		bl	spi_sw_end
 576              	.LVL72:
 577              	.LBE59:
 578              	.LBE58:
 579              		.loc 1 318 0
 580 0012 2046     		mov	r0, r4
 581 0014 10BD     		pop	{r4, pc}
 582              		.cfi_endproc
 583              	.LFE268:
 584              		.size	CC2520_SXOSCOFF, .-CC2520_SXOSCOFF
 585 0016 00BF     		.section	.text.CC2520_SFLUSHRX,"ax",%progbits
 586              		.align	2
 587              		.p2align 4,,15
 588              		.global	CC2520_SFLUSHRX
 589              		.thumb
 590              		.thumb_func
 591              		.type	CC2520_SFLUSHRX, %function
 592              	CC2520_SFLUSHRX:
 593              	.LFB269:
 594              		.loc 1 331 0
 595              		.cfi_startproc
 596              		@ args = 0, pretend = 0, frame = 0
 597              		@ frame_needed = 0, uses_anonymous_args = 0
 598              	.LVL73:
 599 0000 10B5     		push	{r4, lr}
 600              		.cfi_def_cfa_offset 8
 601              		.cfi_offset 4, -8
 602              		.cfi_offset 14, -4
 603              	.LBB60:
 604              	.LBB61:
 605              		.loc 1 164 0
 606 0002 FFF7FEFF 		bl	spi_sw_begin
 607              	.LVL74:
 608              		.loc 1 165 0
 609 0006 4720     		movs	r0, #71
 610 0008 FFF7FEFF 		bl	halSpiExc
 611              	.LVL75:
 612 000c 0446     		mov	r4, r0
 613              	.LVL76:
 614              		.loc 1 166 0
 615 000e FFF7FEFF 		bl	spi_sw_end
 616              	.LVL77:
 617              	.LBE61:
 618              	.LBE60:
 619              		.loc 1 333 0
 620 0012 2046     		mov	r0, r4
 621 0014 10BD     		pop	{r4, pc}
 622              		.cfi_endproc
 623              	.LFE269:
 624              		.size	CC2520_SFLUSHRX, .-CC2520_SFLUSHRX
 625 0016 00BF     		.section	.text.CC2520_SFLUSHTX,"ax",%progbits
 626              		.align	2
 627              		.p2align 4,,15
ARM GAS  /tmp/ccHp95GJ.s 			page 12


 628              		.global	CC2520_SFLUSHTX
 629              		.thumb
 630              		.thumb_func
 631              		.type	CC2520_SFLUSHTX, %function
 632              	CC2520_SFLUSHTX:
 633              	.LFB270:
 634              		.loc 1 346 0
 635              		.cfi_startproc
 636              		@ args = 0, pretend = 0, frame = 0
 637              		@ frame_needed = 0, uses_anonymous_args = 0
 638              	.LVL78:
 639 0000 10B5     		push	{r4, lr}
 640              		.cfi_def_cfa_offset 8
 641              		.cfi_offset 4, -8
 642              		.cfi_offset 14, -4
 643              	.LBB62:
 644              	.LBB63:
 645              		.loc 1 164 0
 646 0002 FFF7FEFF 		bl	spi_sw_begin
 647              	.LVL79:
 648              		.loc 1 165 0
 649 0006 4820     		movs	r0, #72
 650 0008 FFF7FEFF 		bl	halSpiExc
 651              	.LVL80:
 652 000c 0446     		mov	r4, r0
 653              	.LVL81:
 654              		.loc 1 166 0
 655 000e FFF7FEFF 		bl	spi_sw_end
 656              	.LVL82:
 657              	.LBE63:
 658              	.LBE62:
 659              		.loc 1 348 0
 660 0012 2046     		mov	r0, r4
 661 0014 10BD     		pop	{r4, pc}
 662              		.cfi_endproc
 663              	.LFE270:
 664              		.size	CC2520_SFLUSHTX, .-CC2520_SFLUSHTX
 665 0016 00BF     		.section	.text.CC2520_SACK,"ax",%progbits
 666              		.align	2
 667              		.p2align 4,,15
 668              		.global	CC2520_SACK
 669              		.thumb
 670              		.thumb_func
 671              		.type	CC2520_SACK, %function
 672              	CC2520_SACK:
 673              	.LFB271:
 674              		.loc 1 361 0
 675              		.cfi_startproc
 676              		@ args = 0, pretend = 0, frame = 0
 677              		@ frame_needed = 0, uses_anonymous_args = 0
 678              	.LVL83:
 679 0000 10B5     		push	{r4, lr}
 680              		.cfi_def_cfa_offset 8
 681              		.cfi_offset 4, -8
 682              		.cfi_offset 14, -4
 683              	.LBB64:
 684              	.LBB65:
ARM GAS  /tmp/ccHp95GJ.s 			page 13


 685              		.loc 1 164 0
 686 0002 FFF7FEFF 		bl	spi_sw_begin
 687              	.LVL84:
 688              		.loc 1 165 0
 689 0006 4920     		movs	r0, #73
 690 0008 FFF7FEFF 		bl	halSpiExc
 691              	.LVL85:
 692 000c 0446     		mov	r4, r0
 693              	.LVL86:
 694              		.loc 1 166 0
 695 000e FFF7FEFF 		bl	spi_sw_end
 696              	.LVL87:
 697              	.LBE65:
 698              	.LBE64:
 699              		.loc 1 363 0
 700 0012 2046     		mov	r0, r4
 701 0014 10BD     		pop	{r4, pc}
 702              		.cfi_endproc
 703              	.LFE271:
 704              		.size	CC2520_SACK, .-CC2520_SACK
 705 0016 00BF     		.section	.text.CC2520_SACKPEND,"ax",%progbits
 706              		.align	2
 707              		.p2align 4,,15
 708              		.global	CC2520_SACKPEND
 709              		.thumb
 710              		.thumb_func
 711              		.type	CC2520_SACKPEND, %function
 712              	CC2520_SACKPEND:
 713              	.LFB272:
 714              		.loc 1 376 0
 715              		.cfi_startproc
 716              		@ args = 0, pretend = 0, frame = 0
 717              		@ frame_needed = 0, uses_anonymous_args = 0
 718              	.LVL88:
 719 0000 10B5     		push	{r4, lr}
 720              		.cfi_def_cfa_offset 8
 721              		.cfi_offset 4, -8
 722              		.cfi_offset 14, -4
 723              	.LBB66:
 724              	.LBB67:
 725              		.loc 1 164 0
 726 0002 FFF7FEFF 		bl	spi_sw_begin
 727              	.LVL89:
 728              		.loc 1 165 0
 729 0006 4A20     		movs	r0, #74
 730 0008 FFF7FEFF 		bl	halSpiExc
 731              	.LVL90:
 732 000c 0446     		mov	r4, r0
 733              	.LVL91:
 734              		.loc 1 166 0
 735 000e FFF7FEFF 		bl	spi_sw_end
 736              	.LVL92:
 737              	.LBE67:
 738              	.LBE66:
 739              		.loc 1 378 0
 740 0012 2046     		mov	r0, r4
 741 0014 10BD     		pop	{r4, pc}
ARM GAS  /tmp/ccHp95GJ.s 			page 14


 742              		.cfi_endproc
 743              	.LFE272:
 744              		.size	CC2520_SACKPEND, .-CC2520_SACKPEND
 745 0016 00BF     		.section	.text.CC2520_SNACK,"ax",%progbits
 746              		.align	2
 747              		.p2align 4,,15
 748              		.global	CC2520_SNACK
 749              		.thumb
 750              		.thumb_func
 751              		.type	CC2520_SNACK, %function
 752              	CC2520_SNACK:
 753              	.LFB273:
 754              		.loc 1 391 0
 755              		.cfi_startproc
 756              		@ args = 0, pretend = 0, frame = 0
 757              		@ frame_needed = 0, uses_anonymous_args = 0
 758              	.LVL93:
 759 0000 10B5     		push	{r4, lr}
 760              		.cfi_def_cfa_offset 8
 761              		.cfi_offset 4, -8
 762              		.cfi_offset 14, -4
 763              	.LBB68:
 764              	.LBB69:
 765              		.loc 1 164 0
 766 0002 FFF7FEFF 		bl	spi_sw_begin
 767              	.LVL94:
 768              		.loc 1 165 0
 769 0006 4B20     		movs	r0, #75
 770 0008 FFF7FEFF 		bl	halSpiExc
 771              	.LVL95:
 772 000c 0446     		mov	r4, r0
 773              	.LVL96:
 774              		.loc 1 166 0
 775 000e FFF7FEFF 		bl	spi_sw_end
 776              	.LVL97:
 777              	.LBE69:
 778              	.LBE68:
 779              		.loc 1 393 0
 780 0012 2046     		mov	r0, r4
 781 0014 10BD     		pop	{r4, pc}
 782              		.cfi_endproc
 783              	.LFE273:
 784              		.size	CC2520_SNACK, .-CC2520_SNACK
 785 0016 00BF     		.section	.text.CC2520_SRXMASKBITSET,"ax",%progbits
 786              		.align	2
 787              		.p2align 4,,15
 788              		.global	CC2520_SRXMASKBITSET
 789              		.thumb
 790              		.thumb_func
 791              		.type	CC2520_SRXMASKBITSET, %function
 792              	CC2520_SRXMASKBITSET:
 793              	.LFB274:
 794              		.loc 1 406 0
 795              		.cfi_startproc
 796              		@ args = 0, pretend = 0, frame = 0
 797              		@ frame_needed = 0, uses_anonymous_args = 0
 798              	.LVL98:
ARM GAS  /tmp/ccHp95GJ.s 			page 15


 799 0000 10B5     		push	{r4, lr}
 800              		.cfi_def_cfa_offset 8
 801              		.cfi_offset 4, -8
 802              		.cfi_offset 14, -4
 803              	.LBB70:
 804              	.LBB71:
 805              		.loc 1 164 0
 806 0002 FFF7FEFF 		bl	spi_sw_begin
 807              	.LVL99:
 808              		.loc 1 165 0
 809 0006 4C20     		movs	r0, #76
 810 0008 FFF7FEFF 		bl	halSpiExc
 811              	.LVL100:
 812 000c 0446     		mov	r4, r0
 813              	.LVL101:
 814              		.loc 1 166 0
 815 000e FFF7FEFF 		bl	spi_sw_end
 816              	.LVL102:
 817              	.LBE71:
 818              	.LBE70:
 819              		.loc 1 408 0
 820 0012 2046     		mov	r0, r4
 821 0014 10BD     		pop	{r4, pc}
 822              		.cfi_endproc
 823              	.LFE274:
 824              		.size	CC2520_SRXMASKBITSET, .-CC2520_SRXMASKBITSET
 825 0016 00BF     		.section	.text.CC2520_SRXMASKBITCLR,"ax",%progbits
 826              		.align	2
 827              		.p2align 4,,15
 828              		.global	CC2520_SRXMASKBITCLR
 829              		.thumb
 830              		.thumb_func
 831              		.type	CC2520_SRXMASKBITCLR, %function
 832              	CC2520_SRXMASKBITCLR:
 833              	.LFB275:
 834              		.loc 1 421 0
 835              		.cfi_startproc
 836              		@ args = 0, pretend = 0, frame = 0
 837              		@ frame_needed = 0, uses_anonymous_args = 0
 838              	.LVL103:
 839 0000 10B5     		push	{r4, lr}
 840              		.cfi_def_cfa_offset 8
 841              		.cfi_offset 4, -8
 842              		.cfi_offset 14, -4
 843              	.LBB72:
 844              	.LBB73:
 845              		.loc 1 164 0
 846 0002 FFF7FEFF 		bl	spi_sw_begin
 847              	.LVL104:
 848              		.loc 1 165 0
 849 0006 4D20     		movs	r0, #77
 850 0008 FFF7FEFF 		bl	halSpiExc
 851              	.LVL105:
 852 000c 0446     		mov	r4, r0
 853              	.LVL106:
 854              		.loc 1 166 0
 855 000e FFF7FEFF 		bl	spi_sw_end
ARM GAS  /tmp/ccHp95GJ.s 			page 16


 856              	.LVL107:
 857              	.LBE73:
 858              	.LBE72:
 859              		.loc 1 423 0
 860 0012 2046     		mov	r0, r4
 861 0014 10BD     		pop	{r4, pc}
 862              		.cfi_endproc
 863              	.LFE275:
 864              		.size	CC2520_SRXMASKBITCLR, .-CC2520_SRXMASKBITCLR
 865 0016 00BF     		.section	.text.CC2520_IBUFLD,"ax",%progbits
 866              		.align	2
 867              		.p2align 4,,15
 868              		.global	CC2520_IBUFLD
 869              		.thumb
 870              		.thumb_func
 871              		.type	CC2520_IBUFLD, %function
 872              	CC2520_IBUFLD:
 873              	.LFB276:
 874              		.loc 1 436 0
 875              		.cfi_startproc
 876              		@ args = 0, pretend = 0, frame = 0
 877              		@ frame_needed = 0, uses_anonymous_args = 0
 878              	.LVL108:
 879 0000 38B5     		push	{r3, r4, r5, lr}
 880              		.cfi_def_cfa_offset 16
 881              		.cfi_offset 3, -16
 882              		.cfi_offset 4, -12
 883              		.cfi_offset 5, -8
 884              		.cfi_offset 14, -4
 885              		.loc 1 436 0
 886 0002 0546     		mov	r5, r0
 887              		.loc 1 438 0
 888 0004 FFF7FEFF 		bl	spi_sw_begin
 889              	.LVL109:
 890              		.loc 1 439 0
 891 0008 0220     		movs	r0, #2
 892 000a FFF7FEFF 		bl	halSpiExc
 893              	.LVL110:
 894 000e 0446     		mov	r4, r0
 895              	.LVL111:
 896              		.loc 1 440 0
 897 0010 2846     		mov	r0, r5
 898 0012 FFF7FEFF 		bl	halSpiExc
 899              	.LVL112:
 900              		.loc 1 441 0
 901 0016 FFF7FEFF 		bl	spi_sw_end
 902              	.LVL113:
 903              		.loc 1 443 0
 904 001a 2046     		mov	r0, r4
 905 001c 38BD     		pop	{r3, r4, r5, pc}
 906              		.cfi_endproc
 907              	.LFE276:
 908              		.size	CC2520_IBUFLD, .-CC2520_IBUFLD
 909 001e 00BF     		.section	.text.CC2520_SRES,"ax",%progbits
 910              		.align	2
 911              		.p2align 4,,15
 912              		.global	CC2520_SRES
ARM GAS  /tmp/ccHp95GJ.s 			page 17


 913              		.thumb
 914              		.thumb_func
 915              		.type	CC2520_SRES, %function
 916              	CC2520_SRES:
 917              	.LFB277:
 918              		.loc 1 456 0
 919              		.cfi_startproc
 920              		@ args = 0, pretend = 0, frame = 0
 921              		@ frame_needed = 0, uses_anonymous_args = 0
 922 0000 10B5     		push	{r4, lr}
 923              		.cfi_def_cfa_offset 8
 924              		.cfi_offset 4, -8
 925              		.cfi_offset 14, -4
 926              		.loc 1 458 0
 927 0002 FFF7FEFF 		bl	spi_sw_begin
 928              	.LVL114:
 929              		.loc 1 459 0
 930 0006 0F20     		movs	r0, #15
 931 0008 FFF7FEFF 		bl	halSpiExc
 932              	.LVL115:
 933 000c 0446     		mov	r4, r0
 934              	.LVL116:
 935              		.loc 1 460 0
 936 000e 0020     		movs	r0, #0
 937 0010 FFF7FEFF 		bl	halSpiExc
 938              	.LVL117:
 939              		.loc 1 461 0
 940 0014 FFF7FEFF 		bl	spi_sw_end
 941              	.LVL118:
 942              		.loc 1 463 0
 943 0018 2046     		mov	r0, r4
 944 001a 10BD     		pop	{r4, pc}
 945              		.cfi_endproc
 946              	.LFE277:
 947              		.size	CC2520_SRES, .-CC2520_SRES
 948              		.section	.text.CC2520_MEMRD,"ax",%progbits
 949              		.align	2
 950              		.p2align 4,,15
 951              		.global	CC2520_MEMRD
 952              		.thumb
 953              		.thumb_func
 954              		.type	CC2520_MEMRD, %function
 955              	CC2520_MEMRD:
 956              	.LFB278:
 957              		.loc 1 478 0
 958              		.cfi_startproc
 959              		@ args = 0, pretend = 0, frame = 0
 960              		@ frame_needed = 0, uses_anonymous_args = 0
 961              	.LVL119:
 962 0000 F8B5     		push	{r3, r4, r5, r6, r7, lr}
 963              		.cfi_def_cfa_offset 24
 964              		.cfi_offset 3, -24
 965              		.cfi_offset 4, -20
 966              		.cfi_offset 5, -16
 967              		.cfi_offset 6, -12
 968              		.cfi_offset 7, -8
 969              		.cfi_offset 14, -4
ARM GAS  /tmp/ccHp95GJ.s 			page 18


 970              		.loc 1 478 0
 971 0002 0446     		mov	r4, r0
 972 0004 0E46     		mov	r6, r1
 973 0006 1746     		mov	r7, r2
 974              		.loc 1 480 0
 975 0008 FFF7FEFF 		bl	spi_sw_begin
 976              	.LVL120:
 977              		.loc 1 481 0
 978 000c 200A     		lsrs	r0, r4, #8
 979 000e 40F01000 		orr	r0, r0, #16
 980 0012 FFF7FEFF 		bl	halSpiExc
 981              	.LVL121:
 982 0016 0546     		mov	r5, r0
 983              	.LVL122:
 984              		.loc 1 482 0
 985 0018 E0B2     		uxtb	r0, r4
 986 001a FFF7FEFF 		bl	halSpiExc
 987              	.LVL123:
 988              		.loc 1 483 0
 989 001e 3846     		mov	r0, r7
 990 0020 3246     		mov	r2, r6
 991 0022 0021     		movs	r1, #0
 992 0024 FFF7FEFF 		bl	spi_sw_transfer
 993              	.LVL124:
 994              		.loc 1 484 0
 995 0028 FFF7FEFF 		bl	spi_sw_end
 996              	.LVL125:
 997              		.loc 1 486 0
 998 002c 2846     		mov	r0, r5
 999 002e F8BD     		pop	{r3, r4, r5, r6, r7, pc}
 1000              		.cfi_endproc
 1001              	.LFE278:
 1002              		.size	CC2520_MEMRD, .-CC2520_MEMRD
 1003              		.section	.text.CC2520_MEMRD8,"ax",%progbits
 1004              		.align	2
 1005              		.p2align 4,,15
 1006              		.global	CC2520_MEMRD8
 1007              		.thumb
 1008              		.thumb_func
 1009              		.type	CC2520_MEMRD8, %function
 1010              	CC2520_MEMRD8:
 1011              	.LFB279:
 1012              		.loc 1 499 0
 1013              		.cfi_startproc
 1014              		@ args = 0, pretend = 0, frame = 0
 1015              		@ frame_needed = 0, uses_anonymous_args = 0
 1016              	.LVL126:
 1017 0000 10B5     		push	{r4, lr}
 1018              		.cfi_def_cfa_offset 8
 1019              		.cfi_offset 4, -8
 1020              		.cfi_offset 14, -4
 1021              		.loc 1 499 0
 1022 0002 0446     		mov	r4, r0
 1023              		.loc 1 501 0
 1024 0004 FFF7FEFF 		bl	spi_sw_begin
 1025              	.LVL127:
 1026              		.loc 1 502 0
ARM GAS  /tmp/ccHp95GJ.s 			page 19


 1027 0008 200A     		lsrs	r0, r4, #8
 1028 000a 40F01000 		orr	r0, r0, #16
 1029 000e FFF7FEFF 		bl	halSpiExc
 1030              	.LVL128:
 1031              		.loc 1 503 0
 1032 0012 E0B2     		uxtb	r0, r4
 1033 0014 FFF7FEFF 		bl	halSpiExc
 1034              	.LVL129:
 1035              		.loc 1 504 0
 1036 0018 0020     		movs	r0, #0
 1037 001a FFF7FEFF 		bl	halSpiExc
 1038              	.LVL130:
 1039 001e 0446     		mov	r4, r0
 1040              	.LVL131:
 1041              		.loc 1 505 0
 1042 0020 FFF7FEFF 		bl	spi_sw_end
 1043              	.LVL132:
 1044              		.loc 1 507 0
 1045 0024 2046     		mov	r0, r4
 1046 0026 10BD     		pop	{r4, pc}
 1047              		.cfi_endproc
 1048              	.LFE279:
 1049              		.size	CC2520_MEMRD8, .-CC2520_MEMRD8
 1050              		.section	.text.CC2520_MEMRD16,"ax",%progbits
 1051              		.align	2
 1052              		.p2align 4,,15
 1053              		.global	CC2520_MEMRD16
 1054              		.thumb
 1055              		.thumb_func
 1056              		.type	CC2520_MEMRD16, %function
 1057              	CC2520_MEMRD16:
 1058              	.LFB280:
 1059              		.loc 1 520 0
 1060              		.cfi_startproc
 1061              		@ args = 0, pretend = 0, frame = 0
 1062              		@ frame_needed = 0, uses_anonymous_args = 0
 1063              	.LVL133:
 1064 0000 10B5     		push	{r4, lr}
 1065              		.cfi_def_cfa_offset 8
 1066              		.cfi_offset 4, -8
 1067              		.cfi_offset 14, -4
 1068              		.loc 1 520 0
 1069 0002 0446     		mov	r4, r0
 1070              		.loc 1 522 0
 1071 0004 FFF7FEFF 		bl	spi_sw_begin
 1072              	.LVL134:
 1073              		.loc 1 523 0
 1074 0008 200A     		lsrs	r0, r4, #8
 1075 000a 40F01000 		orr	r0, r0, #16
 1076 000e FFF7FEFF 		bl	halSpiExc
 1077              	.LVL135:
 1078              		.loc 1 524 0
 1079 0012 E0B2     		uxtb	r0, r4
 1080 0014 FFF7FEFF 		bl	halSpiExc
 1081              	.LVL136:
 1082              		.loc 1 525 0
 1083 0018 0020     		movs	r0, #0
ARM GAS  /tmp/ccHp95GJ.s 			page 20


 1084 001a FFF7FEFF 		bl	halSpiExc
 1085              	.LVL137:
 1086 001e 4FF00004 		mov	r4, #0	@ movhi
 1087              	.LVL138:
 1088 0022 60F30704 		bfi	r4, r0, #0, #8
 1089              	.LVL139:
 1090              		.loc 1 526 0
 1091 0026 0020     		movs	r0, #0
 1092 0028 FFF7FEFF 		bl	halSpiExc
 1093              	.LVL140:
 1094 002c 60F30F24 		bfi	r4, r0, #8, #8
 1095              		.loc 1 527 0
 1096 0030 FFF7FEFF 		bl	spi_sw_end
 1097              	.LVL141:
 1098              		.loc 1 529 0
 1099 0034 A0B2     		uxth	r0, r4
 1100 0036 10BD     		pop	{r4, pc}
 1101              		.cfi_endproc
 1102              	.LFE280:
 1103              		.size	CC2520_MEMRD16, .-CC2520_MEMRD16
 1104              		.section	.text.CC2520_MEMRD24,"ax",%progbits
 1105              		.align	2
 1106              		.p2align 4,,15
 1107              		.global	CC2520_MEMRD24
 1108              		.thumb
 1109              		.thumb_func
 1110              		.type	CC2520_MEMRD24, %function
 1111              	CC2520_MEMRD24:
 1112              	.LFB281:
 1113              		.loc 1 542 0
 1114              		.cfi_startproc
 1115              		@ args = 0, pretend = 0, frame = 0
 1116              		@ frame_needed = 0, uses_anonymous_args = 0
 1117              	.LVL142:
 1118 0000 10B5     		push	{r4, lr}
 1119              		.cfi_def_cfa_offset 8
 1120              		.cfi_offset 4, -8
 1121              		.cfi_offset 14, -4
 1122              		.loc 1 542 0
 1123 0002 0446     		mov	r4, r0
 1124              		.loc 1 544 0
 1125 0004 FFF7FEFF 		bl	spi_sw_begin
 1126              	.LVL143:
 1127              		.loc 1 545 0
 1128 0008 200A     		lsrs	r0, r4, #8
 1129 000a 40F01000 		orr	r0, r0, #16
 1130 000e FFF7FEFF 		bl	halSpiExc
 1131              	.LVL144:
 1132              		.loc 1 546 0
 1133 0012 E0B2     		uxtb	r0, r4
 1134 0014 FFF7FEFF 		bl	halSpiExc
 1135              	.LVL145:
 1136              		.loc 1 547 0
 1137 0018 0020     		movs	r0, #0
 1138 001a FFF7FEFF 		bl	halSpiExc
 1139              	.LVL146:
 1140 001e 0024     		movs	r4, #0
ARM GAS  /tmp/ccHp95GJ.s 			page 21


 1141              	.LVL147:
 1142 0020 60F30704 		bfi	r4, r0, #0, #8
 1143              	.LVL148:
 1144              		.loc 1 548 0
 1145 0024 0020     		movs	r0, #0
 1146 0026 FFF7FEFF 		bl	halSpiExc
 1147              	.LVL149:
 1148 002a 60F30F24 		bfi	r4, r0, #8, #8
 1149              		.loc 1 549 0
 1150 002e 0020     		movs	r0, #0
 1151 0030 FFF7FEFF 		bl	halSpiExc
 1152              	.LVL150:
 1153 0034 60F31744 		bfi	r4, r0, #16, #8
 1154              		.loc 1 550 0
 1155 0038 6FF31F64 		bfc	r4, #24, #8
 1156              		.loc 1 551 0
 1157 003c FFF7FEFF 		bl	spi_sw_end
 1158              	.LVL151:
 1159              		.loc 1 553 0
 1160 0040 2046     		mov	r0, r4
 1161 0042 10BD     		pop	{r4, pc}
 1162              		.cfi_endproc
 1163              	.LFE281:
 1164              		.size	CC2520_MEMRD24, .-CC2520_MEMRD24
 1165              		.section	.text.CC2520_MEMWR,"ax",%progbits
 1166              		.align	2
 1167              		.p2align 4,,15
 1168              		.global	CC2520_MEMWR
 1169              		.thumb
 1170              		.thumb_func
 1171              		.type	CC2520_MEMWR, %function
 1172              	CC2520_MEMWR:
 1173              	.LFB282:
 1174              		.loc 1 568 0
 1175              		.cfi_startproc
 1176              		@ args = 0, pretend = 0, frame = 0
 1177              		@ frame_needed = 0, uses_anonymous_args = 0
 1178              	.LVL152:
 1179 0000 F8B5     		push	{r3, r4, r5, r6, r7, lr}
 1180              		.cfi_def_cfa_offset 24
 1181              		.cfi_offset 3, -24
 1182              		.cfi_offset 4, -20
 1183              		.cfi_offset 5, -16
 1184              		.cfi_offset 6, -12
 1185              		.cfi_offset 7, -8
 1186              		.cfi_offset 14, -4
 1187              		.loc 1 568 0
 1188 0002 0446     		mov	r4, r0
 1189 0004 0E46     		mov	r6, r1
 1190 0006 1746     		mov	r7, r2
 1191              		.loc 1 570 0
 1192 0008 FFF7FEFF 		bl	spi_sw_begin
 1193              	.LVL153:
 1194              		.loc 1 571 0
 1195 000c 200A     		lsrs	r0, r4, #8
 1196 000e 40F02000 		orr	r0, r0, #32
 1197 0012 FFF7FEFF 		bl	halSpiExc
ARM GAS  /tmp/ccHp95GJ.s 			page 22


 1198              	.LVL154:
 1199 0016 0546     		mov	r5, r0
 1200              	.LVL155:
 1201              		.loc 1 572 0
 1202 0018 E0B2     		uxtb	r0, r4
 1203 001a FFF7FEFF 		bl	halSpiExc
 1204              	.LVL156:
 1205              		.loc 1 573 0
 1206 001e 3946     		mov	r1, r7
 1207 0020 3246     		mov	r2, r6
 1208 0022 0020     		movs	r0, #0
 1209 0024 FFF7FEFF 		bl	spi_sw_transfer
 1210              	.LVL157:
 1211              		.loc 1 574 0
 1212 0028 FFF7FEFF 		bl	spi_sw_end
 1213              	.LVL158:
 1214              		.loc 1 576 0
 1215 002c 2846     		mov	r0, r5
 1216 002e F8BD     		pop	{r3, r4, r5, r6, r7, pc}
 1217              		.cfi_endproc
 1218              	.LFE282:
 1219              		.size	CC2520_MEMWR, .-CC2520_MEMWR
 1220              		.section	.text.CC2520_MEMWR8,"ax",%progbits
 1221              		.align	2
 1222              		.p2align 4,,15
 1223              		.global	CC2520_MEMWR8
 1224              		.thumb
 1225              		.thumb_func
 1226              		.type	CC2520_MEMWR8, %function
 1227              	CC2520_MEMWR8:
 1228              	.LFB283:
 1229              		.loc 1 590 0
 1230              		.cfi_startproc
 1231              		@ args = 0, pretend = 0, frame = 0
 1232              		@ frame_needed = 0, uses_anonymous_args = 0
 1233              	.LVL159:
 1234 0000 70B5     		push	{r4, r5, r6, lr}
 1235              		.cfi_def_cfa_offset 16
 1236              		.cfi_offset 4, -16
 1237              		.cfi_offset 5, -12
 1238              		.cfi_offset 6, -8
 1239              		.cfi_offset 14, -4
 1240              		.loc 1 590 0
 1241 0002 0446     		mov	r4, r0
 1242 0004 0E46     		mov	r6, r1
 1243              		.loc 1 592 0
 1244 0006 FFF7FEFF 		bl	spi_sw_begin
 1245              	.LVL160:
 1246              		.loc 1 593 0
 1247 000a 200A     		lsrs	r0, r4, #8
 1248 000c 40F02000 		orr	r0, r0, #32
 1249 0010 FFF7FEFF 		bl	halSpiExc
 1250              	.LVL161:
 1251 0014 0546     		mov	r5, r0
 1252              	.LVL162:
 1253              		.loc 1 594 0
 1254 0016 E0B2     		uxtb	r0, r4
ARM GAS  /tmp/ccHp95GJ.s 			page 23


 1255 0018 FFF7FEFF 		bl	halSpiExc
 1256              	.LVL163:
 1257              		.loc 1 595 0
 1258 001c 3046     		mov	r0, r6
 1259 001e FFF7FEFF 		bl	halSpiExc
 1260              	.LVL164:
 1261              		.loc 1 596 0
 1262 0022 FFF7FEFF 		bl	spi_sw_end
 1263              	.LVL165:
 1264              		.loc 1 598 0
 1265 0026 2846     		mov	r0, r5
 1266 0028 70BD     		pop	{r4, r5, r6, pc}
 1267              		.cfi_endproc
 1268              	.LFE283:
 1269              		.size	CC2520_MEMWR8, .-CC2520_MEMWR8
 1270 002a 00BF     		.section	.text.CC2520_MEMWR16,"ax",%progbits
 1271              		.align	2
 1272              		.p2align 4,,15
 1273              		.global	CC2520_MEMWR16
 1274              		.thumb
 1275              		.thumb_func
 1276              		.type	CC2520_MEMWR16, %function
 1277              	CC2520_MEMWR16:
 1278              	.LFB284:
 1279              		.loc 1 612 0
 1280              		.cfi_startproc
 1281              		@ args = 0, pretend = 0, frame = 0
 1282              		@ frame_needed = 0, uses_anonymous_args = 0
 1283              	.LVL166:
 1284 0000 70B5     		push	{r4, r5, r6, lr}
 1285              		.cfi_def_cfa_offset 16
 1286              		.cfi_offset 4, -16
 1287              		.cfi_offset 5, -12
 1288              		.cfi_offset 6, -8
 1289              		.cfi_offset 14, -4
 1290              		.loc 1 612 0
 1291 0002 0546     		mov	r5, r0
 1292 0004 0C46     		mov	r4, r1
 1293              		.loc 1 614 0
 1294 0006 FFF7FEFF 		bl	spi_sw_begin
 1295              	.LVL167:
 1296              		.loc 1 615 0
 1297 000a 280A     		lsrs	r0, r5, #8
 1298 000c 40F02000 		orr	r0, r0, #32
 1299 0010 FFF7FEFF 		bl	halSpiExc
 1300              	.LVL168:
 1301 0014 0646     		mov	r6, r0
 1302              	.LVL169:
 1303              		.loc 1 616 0
 1304 0016 E8B2     		uxtb	r0, r5
 1305 0018 FFF7FEFF 		bl	halSpiExc
 1306              	.LVL170:
 1307              		.loc 1 617 0
 1308 001c E0B2     		uxtb	r0, r4
 1309 001e FFF7FEFF 		bl	halSpiExc
 1310              	.LVL171:
 1311              		.loc 1 618 0
ARM GAS  /tmp/ccHp95GJ.s 			page 24


 1312 0022 200A     		lsrs	r0, r4, #8
 1313 0024 FFF7FEFF 		bl	halSpiExc
 1314              	.LVL172:
 1315              		.loc 1 619 0
 1316 0028 FFF7FEFF 		bl	spi_sw_end
 1317              	.LVL173:
 1318              		.loc 1 621 0
 1319 002c 3046     		mov	r0, r6
 1320 002e 70BD     		pop	{r4, r5, r6, pc}
 1321              		.cfi_endproc
 1322              	.LFE284:
 1323              		.size	CC2520_MEMWR16, .-CC2520_MEMWR16
 1324              		.section	.text.CC2520_MEMWR24,"ax",%progbits
 1325              		.align	2
 1326              		.p2align 4,,15
 1327              		.global	CC2520_MEMWR24
 1328              		.thumb
 1329              		.thumb_func
 1330              		.type	CC2520_MEMWR24, %function
 1331              	CC2520_MEMWR24:
 1332              	.LFB285:
 1333              		.loc 1 635 0
 1334              		.cfi_startproc
 1335              		@ args = 0, pretend = 0, frame = 0
 1336              		@ frame_needed = 0, uses_anonymous_args = 0
 1337              	.LVL174:
 1338 0000 70B5     		push	{r4, r5, r6, lr}
 1339              		.cfi_def_cfa_offset 16
 1340              		.cfi_offset 4, -16
 1341              		.cfi_offset 5, -12
 1342              		.cfi_offset 6, -8
 1343              		.cfi_offset 14, -4
 1344              		.loc 1 635 0
 1345 0002 0546     		mov	r5, r0
 1346 0004 0C46     		mov	r4, r1
 1347              		.loc 1 637 0
 1348 0006 FFF7FEFF 		bl	spi_sw_begin
 1349              	.LVL175:
 1350              		.loc 1 638 0
 1351 000a 280A     		lsrs	r0, r5, #8
 1352 000c 40F02000 		orr	r0, r0, #32
 1353 0010 FFF7FEFF 		bl	halSpiExc
 1354              	.LVL176:
 1355 0014 0646     		mov	r6, r0
 1356              	.LVL177:
 1357              		.loc 1 639 0
 1358 0016 E8B2     		uxtb	r0, r5
 1359 0018 FFF7FEFF 		bl	halSpiExc
 1360              	.LVL178:
 1361              		.loc 1 640 0
 1362 001c E0B2     		uxtb	r0, r4
 1363 001e FFF7FEFF 		bl	halSpiExc
 1364              	.LVL179:
 1365              		.loc 1 641 0
 1366 0022 C4F30720 		ubfx	r0, r4, #8, #8
 1367 0026 FFF7FEFF 		bl	halSpiExc
 1368              	.LVL180:
ARM GAS  /tmp/ccHp95GJ.s 			page 25


 1369              		.loc 1 642 0
 1370 002a C4F30740 		ubfx	r0, r4, #16, #8
 1371 002e FFF7FEFF 		bl	halSpiExc
 1372              	.LVL181:
 1373              		.loc 1 643 0
 1374 0032 FFF7FEFF 		bl	spi_sw_end
 1375              	.LVL182:
 1376              		.loc 1 645 0
 1377 0036 3046     		mov	r0, r6
 1378 0038 70BD     		pop	{r4, r5, r6, pc}
 1379              		.cfi_endproc
 1380              	.LFE285:
 1381              		.size	CC2520_MEMWR24, .-CC2520_MEMWR24
 1382 003a 00BF     		.section	.text.CC2520_RXBUF,"ax",%progbits
 1383              		.align	2
 1384              		.p2align 4,,15
 1385              		.global	CC2520_RXBUF
 1386              		.thumb
 1387              		.thumb_func
 1388              		.type	CC2520_RXBUF, %function
 1389              	CC2520_RXBUF:
 1390              	.LFB286:
 1391              		.loc 1 659 0
 1392              		.cfi_startproc
 1393              		@ args = 0, pretend = 0, frame = 0
 1394              		@ frame_needed = 0, uses_anonymous_args = 0
 1395              	.LVL183:
 1396 0000 70B5     		push	{r4, r5, r6, lr}
 1397              		.cfi_def_cfa_offset 16
 1398              		.cfi_offset 4, -16
 1399              		.cfi_offset 5, -12
 1400              		.cfi_offset 6, -8
 1401              		.cfi_offset 14, -4
 1402              		.loc 1 659 0
 1403 0002 0E46     		mov	r6, r1
 1404 0004 0546     		mov	r5, r0
 1405              		.loc 1 661 0
 1406 0006 FFF7FEFF 		bl	spi_sw_begin
 1407              	.LVL184:
 1408              		.loc 1 662 0
 1409 000a 3020     		movs	r0, #48
 1410 000c FFF7FEFF 		bl	halSpiExc
 1411              	.LVL185:
 1412              		.loc 1 663 0
 1413 0010 2A46     		mov	r2, r5
 1414              		.loc 1 662 0
 1415 0012 0446     		mov	r4, r0
 1416              	.LVL186:
 1417              		.loc 1 663 0
 1418 0014 0021     		movs	r1, #0
 1419 0016 3046     		mov	r0, r6
 1420 0018 FFF7FEFF 		bl	spi_sw_transfer
 1421              	.LVL187:
 1422              		.loc 1 664 0
 1423 001c FFF7FEFF 		bl	spi_sw_end
 1424              	.LVL188:
 1425              		.loc 1 666 0
ARM GAS  /tmp/ccHp95GJ.s 			page 26


 1426 0020 2046     		mov	r0, r4
 1427 0022 70BD     		pop	{r4, r5, r6, pc}
 1428              		.cfi_endproc
 1429              	.LFE286:
 1430              		.size	CC2520_RXBUF, .-CC2520_RXBUF
 1431              		.section	.text.CC2520_RXBUF8,"ax",%progbits
 1432              		.align	2
 1433              		.p2align 4,,15
 1434              		.global	CC2520_RXBUF8
 1435              		.thumb
 1436              		.thumb_func
 1437              		.type	CC2520_RXBUF8, %function
 1438              	CC2520_RXBUF8:
 1439              	.LFB287:
 1440              		.loc 1 679 0
 1441              		.cfi_startproc
 1442              		@ args = 0, pretend = 0, frame = 0
 1443              		@ frame_needed = 0, uses_anonymous_args = 0
 1444 0000 10B5     		push	{r4, lr}
 1445              		.cfi_def_cfa_offset 8
 1446              		.cfi_offset 4, -8
 1447              		.cfi_offset 14, -4
 1448              		.loc 1 681 0
 1449 0002 FFF7FEFF 		bl	spi_sw_begin
 1450              	.LVL189:
 1451              		.loc 1 682 0
 1452 0006 3020     		movs	r0, #48
 1453 0008 FFF7FEFF 		bl	halSpiExc
 1454              	.LVL190:
 1455              		.loc 1 683 0
 1456 000c 0020     		movs	r0, #0
 1457 000e FFF7FEFF 		bl	halSpiExc
 1458              	.LVL191:
 1459 0012 0446     		mov	r4, r0
 1460              	.LVL192:
 1461              		.loc 1 684 0
 1462 0014 FFF7FEFF 		bl	spi_sw_end
 1463              	.LVL193:
 1464              		.loc 1 686 0
 1465 0018 2046     		mov	r0, r4
 1466 001a 10BD     		pop	{r4, pc}
 1467              		.cfi_endproc
 1468              	.LFE287:
 1469              		.size	CC2520_RXBUF8, .-CC2520_RXBUF8
 1470              		.section	.text.CC2520_RXBUF16,"ax",%progbits
 1471              		.align	2
 1472              		.p2align 4,,15
 1473              		.global	CC2520_RXBUF16
 1474              		.thumb
 1475              		.thumb_func
 1476              		.type	CC2520_RXBUF16, %function
 1477              	CC2520_RXBUF16:
 1478              	.LFB288:
 1479              		.loc 1 699 0
 1480              		.cfi_startproc
 1481              		@ args = 0, pretend = 0, frame = 0
 1482              		@ frame_needed = 0, uses_anonymous_args = 0
ARM GAS  /tmp/ccHp95GJ.s 			page 27


 1483 0000 10B5     		push	{r4, lr}
 1484              		.cfi_def_cfa_offset 8
 1485              		.cfi_offset 4, -8
 1486              		.cfi_offset 14, -4
 1487              		.loc 1 701 0
 1488 0002 FFF7FEFF 		bl	spi_sw_begin
 1489              	.LVL194:
 1490              		.loc 1 702 0
 1491 0006 3020     		movs	r0, #48
 1492 0008 FFF7FEFF 		bl	halSpiExc
 1493              	.LVL195:
 1494              		.loc 1 703 0
 1495 000c 0020     		movs	r0, #0
 1496 000e FFF7FEFF 		bl	halSpiExc
 1497              	.LVL196:
 1498 0012 4FF00004 		mov	r4, #0	@ movhi
 1499              	.LVL197:
 1500 0016 60F30704 		bfi	r4, r0, #0, #8
 1501              	.LVL198:
 1502              		.loc 1 704 0
 1503 001a 0020     		movs	r0, #0
 1504 001c FFF7FEFF 		bl	halSpiExc
 1505              	.LVL199:
 1506 0020 60F30F24 		bfi	r4, r0, #8, #8
 1507              		.loc 1 705 0
 1508 0024 FFF7FEFF 		bl	spi_sw_end
 1509              	.LVL200:
 1510              		.loc 1 707 0
 1511 0028 A0B2     		uxth	r0, r4
 1512 002a 10BD     		pop	{r4, pc}
 1513              		.cfi_endproc
 1514              	.LFE288:
 1515              		.size	CC2520_RXBUF16, .-CC2520_RXBUF16
 1516              		.section	.text.CC2520_RXBUFCP_BEGIN,"ax",%progbits
 1517              		.align	2
 1518              		.p2align 4,,15
 1519              		.global	CC2520_RXBUFCP_BEGIN
 1520              		.thumb
 1521              		.thumb_func
 1522              		.type	CC2520_RXBUFCP_BEGIN, %function
 1523              	CC2520_RXBUFCP_BEGIN:
 1524              	.LFB289:
 1525              		.loc 1 721 0
 1526              		.cfi_startproc
 1527              		@ args = 0, pretend = 0, frame = 0
 1528              		@ frame_needed = 0, uses_anonymous_args = 0
 1529              	.LVL201:
 1530 0000 70B5     		push	{r4, r5, r6, lr}
 1531              		.cfi_def_cfa_offset 16
 1532              		.cfi_offset 4, -16
 1533              		.cfi_offset 5, -12
 1534              		.cfi_offset 6, -8
 1535              		.cfi_offset 14, -4
 1536              		.loc 1 721 0
 1537 0002 0646     		mov	r6, r0
 1538 0004 0C46     		mov	r4, r1
 1539              		.loc 1 723 0
ARM GAS  /tmp/ccHp95GJ.s 			page 28


 1540 0006 FFF7FEFF 		bl	spi_sw_begin
 1541              	.LVL202:
 1542              		.loc 1 724 0
 1543 000a 3820     		movs	r0, #56
 1544 000c FFF7FEFF 		bl	halSpiExc
 1545              	.LVL203:
 1546 0010 0546     		mov	r5, r0
 1547              	.LVL204:
 1548              		.loc 1 726 0
 1549 0012 300A     		lsrs	r0, r6, #8
 1550              		.loc 1 725 0
 1551 0014 24B1     		cbz	r4, .L73
 1552              		.loc 1 726 0
 1553 0016 FFF7FEFF 		bl	halSpiExc
 1554              	.LVL205:
 1555 001a 2070     		strb	r0, [r4]
 1556              		.loc 1 731 0
 1557 001c 2846     		mov	r0, r5
 1558 001e 70BD     		pop	{r4, r5, r6, pc}
 1559              	.LVL206:
 1560              	.L73:
 1561              		.loc 1 728 0
 1562 0020 FFF7FEFF 		bl	halSpiExc
 1563              	.LVL207:
 1564              		.loc 1 731 0
 1565 0024 2846     		mov	r0, r5
 1566 0026 70BD     		pop	{r4, r5, r6, pc}
 1567              		.cfi_endproc
 1568              	.LFE289:
 1569              		.size	CC2520_RXBUFCP_BEGIN, .-CC2520_RXBUFCP_BEGIN
 1570              		.section	.text.CC2520_RXBUFCP_END,"ax",%progbits
 1571              		.align	2
 1572              		.p2align 4,,15
 1573              		.global	CC2520_RXBUFCP_END
 1574              		.thumb
 1575              		.thumb_func
 1576              		.type	CC2520_RXBUFCP_END, %function
 1577              	CC2520_RXBUFCP_END:
 1578              	.LFB290:
 1579              		.loc 1 747 0
 1580              		.cfi_startproc
 1581              		@ args = 0, pretend = 0, frame = 0
 1582              		@ frame_needed = 0, uses_anonymous_args = 0
 1583              	.LVL208:
 1584 0000 70B5     		push	{r4, r5, r6, lr}
 1585              		.cfi_def_cfa_offset 16
 1586              		.cfi_offset 4, -16
 1587              		.cfi_offset 5, -12
 1588              		.cfi_offset 6, -8
 1589              		.cfi_offset 14, -4
 1590              		.loc 1 749 0
 1591 0002 C0B2     		uxtb	r0, r0
 1592              	.LVL209:
 1593              		.loc 1 747 0
 1594 0004 0D46     		mov	r5, r1
 1595 0006 1646     		mov	r6, r2
 1596              		.loc 1 749 0
ARM GAS  /tmp/ccHp95GJ.s 			page 29


 1597 0008 FFF7FEFF 		bl	halSpiExc
 1598              	.LVL210:
 1599              		.loc 1 750 0
 1600 000c 2A46     		mov	r2, r5
 1601              		.loc 1 749 0
 1602 000e 0446     		mov	r4, r0
 1603              	.LVL211:
 1604              		.loc 1 750 0
 1605 0010 0021     		movs	r1, #0
 1606 0012 3046     		mov	r0, r6
 1607 0014 FFF7FEFF 		bl	spi_sw_transfer
 1608              	.LVL212:
 1609              		.loc 1 751 0
 1610 0018 FFF7FEFF 		bl	spi_sw_end
 1611              	.LVL213:
 1612              		.loc 1 753 0
 1613 001c 2046     		mov	r0, r4
 1614 001e 70BD     		pop	{r4, r5, r6, pc}
 1615              		.cfi_endproc
 1616              	.LFE290:
 1617              		.size	CC2520_RXBUFCP_END, .-CC2520_RXBUFCP_END
 1618              		.section	.text.CC2520_RXBUFMOV,"ax",%progbits
 1619              		.align	2
 1620              		.p2align 4,,15
 1621              		.global	CC2520_RXBUFMOV
 1622              		.thumb
 1623              		.thumb_func
 1624              		.type	CC2520_RXBUFMOV, %function
 1625              	CC2520_RXBUFMOV:
 1626              	.LFB291:
 1627              		.loc 1 770 0
 1628              		.cfi_startproc
 1629              		@ args = 0, pretend = 0, frame = 0
 1630              		@ frame_needed = 0, uses_anonymous_args = 0
 1631              	.LVL214:
 1632 0000 F8B5     		push	{r3, r4, r5, r6, r7, lr}
 1633              		.cfi_def_cfa_offset 24
 1634              		.cfi_offset 3, -24
 1635              		.cfi_offset 4, -20
 1636              		.cfi_offset 5, -16
 1637              		.cfi_offset 6, -12
 1638              		.cfi_offset 7, -8
 1639              		.cfi_offset 14, -4
 1640              		.loc 1 770 0
 1641 0002 0646     		mov	r6, r0
 1642 0004 1746     		mov	r7, r2
 1643 0006 0C46     		mov	r4, r1
 1644 0008 1D46     		mov	r5, r3
 1645              		.loc 1 772 0
 1646 000a FFF7FEFF 		bl	spi_sw_begin
 1647              	.LVL215:
 1648              		.loc 1 773 0
 1649 000e 46F03200 		orr	r0, r6, #50
 1650 0012 FFF7FEFF 		bl	halSpiExc
 1651              	.LVL216:
 1652 0016 0646     		mov	r6, r0
 1653              	.LVL217:
ARM GAS  /tmp/ccHp95GJ.s 			page 30


 1654              		.loc 1 775 0
 1655 0018 3846     		mov	r0, r7
 1656              		.loc 1 774 0
 1657 001a 65B1     		cbz	r5, .L79
 1658              		.loc 1 775 0
 1659 001c FFF7FEFF 		bl	halSpiExc
 1660              	.LVL218:
 1661 0020 2870     		strb	r0, [r5]
 1662              	.L80:
 1663              		.loc 1 779 0
 1664 0022 200A     		lsrs	r0, r4, #8
 1665 0024 FFF7FEFF 		bl	halSpiExc
 1666              	.LVL219:
 1667              		.loc 1 780 0
 1668 0028 E0B2     		uxtb	r0, r4
 1669 002a FFF7FEFF 		bl	halSpiExc
 1670              	.LVL220:
 1671              		.loc 1 781 0
 1672 002e FFF7FEFF 		bl	spi_sw_end
 1673              	.LVL221:
 1674              		.loc 1 783 0
 1675 0032 3046     		mov	r0, r6
 1676 0034 F8BD     		pop	{r3, r4, r5, r6, r7, pc}
 1677              	.LVL222:
 1678              	.L79:
 1679              		.loc 1 777 0
 1680 0036 FFF7FEFF 		bl	halSpiExc
 1681              	.LVL223:
 1682 003a F2E7     		b	.L80
 1683              		.cfi_endproc
 1684              	.LFE291:
 1685              		.size	CC2520_RXBUFMOV, .-CC2520_RXBUFMOV
 1686              		.section	.text.CC2520_TXBUF,"ax",%progbits
 1687              		.align	2
 1688              		.p2align 4,,15
 1689              		.global	CC2520_TXBUF
 1690              		.thumb
 1691              		.thumb_func
 1692              		.type	CC2520_TXBUF, %function
 1693              	CC2520_TXBUF:
 1694              	.LFB292:
 1695              		.loc 1 797 0
 1696              		.cfi_startproc
 1697              		@ args = 0, pretend = 0, frame = 0
 1698              		@ frame_needed = 0, uses_anonymous_args = 0
 1699              	.LVL224:
 1700 0000 70B5     		push	{r4, r5, r6, lr}
 1701              		.cfi_def_cfa_offset 16
 1702              		.cfi_offset 4, -16
 1703              		.cfi_offset 5, -12
 1704              		.cfi_offset 6, -8
 1705              		.cfi_offset 14, -4
 1706              		.loc 1 797 0
 1707 0002 0546     		mov	r5, r0
 1708 0004 0E46     		mov	r6, r1
 1709              		.loc 1 799 0
 1710 0006 FFF7FEFF 		bl	spi_sw_begin
ARM GAS  /tmp/ccHp95GJ.s 			page 31


 1711              	.LVL225:
 1712              		.loc 1 800 0
 1713 000a 3A20     		movs	r0, #58
 1714 000c FFF7FEFF 		bl	halSpiExc
 1715              	.LVL226:
 1716              		.loc 1 801 0
 1717 0010 3146     		mov	r1, r6
 1718              		.loc 1 800 0
 1719 0012 0446     		mov	r4, r0
 1720              	.LVL227:
 1721              		.loc 1 801 0
 1722 0014 2A46     		mov	r2, r5
 1723 0016 0020     		movs	r0, #0
 1724 0018 FFF7FEFF 		bl	spi_sw_transfer
 1725              	.LVL228:
 1726              		.loc 1 802 0
 1727 001c FFF7FEFF 		bl	spi_sw_end
 1728              	.LVL229:
 1729              		.loc 1 804 0
 1730 0020 2046     		mov	r0, r4
 1731 0022 70BD     		pop	{r4, r5, r6, pc}
 1732              		.cfi_endproc
 1733              	.LFE292:
 1734              		.size	CC2520_TXBUF, .-CC2520_TXBUF
 1735              		.section	.text.CC2520_TXBUF8,"ax",%progbits
 1736              		.align	2
 1737              		.p2align 4,,15
 1738              		.global	CC2520_TXBUF8
 1739              		.thumb
 1740              		.thumb_func
 1741              		.type	CC2520_TXBUF8, %function
 1742              	CC2520_TXBUF8:
 1743              	.LFB293:
 1744              		.loc 1 817 0
 1745              		.cfi_startproc
 1746              		@ args = 0, pretend = 0, frame = 0
 1747              		@ frame_needed = 0, uses_anonymous_args = 0
 1748              	.LVL230:
 1749 0000 10B5     		push	{r4, lr}
 1750              		.cfi_def_cfa_offset 8
 1751              		.cfi_offset 4, -8
 1752              		.cfi_offset 14, -4
 1753              		.loc 1 817 0
 1754 0002 0446     		mov	r4, r0
 1755              		.loc 1 818 0
 1756 0004 FFF7FEFF 		bl	spi_sw_begin
 1757              	.LVL231:
 1758              		.loc 1 819 0
 1759 0008 3A20     		movs	r0, #58
 1760 000a FFF7FEFF 		bl	halSpiExc
 1761              	.LVL232:
 1762              		.loc 1 820 0
 1763 000e 2046     		mov	r0, r4
 1764 0010 FFF7FEFF 		bl	halSpiExc
 1765              	.LVL233:
 1766              		.loc 1 822 0
 1767 0014 BDE81040 		pop	{r4, lr}
ARM GAS  /tmp/ccHp95GJ.s 			page 32


 1768              		.cfi_restore 14
 1769              		.cfi_restore 4
 1770              		.cfi_def_cfa_offset 0
 1771              		.loc 1 821 0
 1772 0018 FFF7FEBF 		b	spi_sw_end
 1773              	.LVL234:
 1774              		.cfi_endproc
 1775              	.LFE293:
 1776              		.size	CC2520_TXBUF8, .-CC2520_TXBUF8
 1777              		.section	.text.CC2520_TXBUF16,"ax",%progbits
 1778              		.align	2
 1779              		.p2align 4,,15
 1780              		.global	CC2520_TXBUF16
 1781              		.thumb
 1782              		.thumb_func
 1783              		.type	CC2520_TXBUF16, %function
 1784              	CC2520_TXBUF16:
 1785              	.LFB294:
 1786              		.loc 1 835 0
 1787              		.cfi_startproc
 1788              		@ args = 0, pretend = 0, frame = 0
 1789              		@ frame_needed = 0, uses_anonymous_args = 0
 1790              	.LVL235:
 1791 0000 10B5     		push	{r4, lr}
 1792              		.cfi_def_cfa_offset 8
 1793              		.cfi_offset 4, -8
 1794              		.cfi_offset 14, -4
 1795              		.loc 1 835 0
 1796 0002 0446     		mov	r4, r0
 1797              		.loc 1 836 0
 1798 0004 FFF7FEFF 		bl	spi_sw_begin
 1799              	.LVL236:
 1800              		.loc 1 837 0
 1801 0008 3A20     		movs	r0, #58
 1802 000a FFF7FEFF 		bl	halSpiExc
 1803              	.LVL237:
 1804              		.loc 1 838 0
 1805 000e E0B2     		uxtb	r0, r4
 1806 0010 FFF7FEFF 		bl	halSpiExc
 1807              	.LVL238:
 1808              		.loc 1 839 0
 1809 0014 200A     		lsrs	r0, r4, #8
 1810 0016 FFF7FEFF 		bl	halSpiExc
 1811              	.LVL239:
 1812              		.loc 1 841 0
 1813 001a BDE81040 		pop	{r4, lr}
 1814              		.cfi_restore 14
 1815              		.cfi_restore 4
 1816              		.cfi_def_cfa_offset 0
 1817              		.loc 1 840 0
 1818 001e FFF7FEBF 		b	spi_sw_end
 1819              	.LVL240:
 1820              		.cfi_endproc
 1821              	.LFE294:
 1822              		.size	CC2520_TXBUF16, .-CC2520_TXBUF16
 1823 0022 00BF     		.section	.text.CC2520_TXBUFCP,"ax",%progbits
 1824              		.align	2
ARM GAS  /tmp/ccHp95GJ.s 			page 33


 1825              		.p2align 4,,15
 1826              		.global	CC2520_TXBUFCP
 1827              		.thumb
 1828              		.thumb_func
 1829              		.type	CC2520_TXBUFCP, %function
 1830              	CC2520_TXBUFCP:
 1831              	.LFB295:
 1832              		.loc 1 857 0
 1833              		.cfi_startproc
 1834              		@ args = 0, pretend = 0, frame = 0
 1835              		@ frame_needed = 0, uses_anonymous_args = 0
 1836              	.LVL241:
 1837 0000 F8B5     		push	{r3, r4, r5, r6, r7, lr}
 1838              		.cfi_def_cfa_offset 24
 1839              		.cfi_offset 3, -24
 1840              		.cfi_offset 4, -20
 1841              		.cfi_offset 5, -16
 1842              		.cfi_offset 6, -12
 1843              		.cfi_offset 7, -8
 1844              		.cfi_offset 14, -4
 1845              		.loc 1 857 0
 1846 0002 0646     		mov	r6, r0
 1847 0004 1746     		mov	r7, r2
 1848 0006 0C46     		mov	r4, r1
 1849 0008 1D46     		mov	r5, r3
 1850              		.loc 1 859 0
 1851 000a FFF7FEFF 		bl	spi_sw_begin
 1852              	.LVL242:
 1853              		.loc 1 860 0
 1854 000e 46F03E00 		orr	r0, r6, #62
 1855 0012 FFF7FEFF 		bl	halSpiExc
 1856              	.LVL243:
 1857 0016 0646     		mov	r6, r0
 1858              	.LVL244:
 1859              		.loc 1 862 0
 1860 0018 3846     		mov	r0, r7
 1861              		.loc 1 861 0
 1862 001a 65B1     		cbz	r5, .L89
 1863              		.loc 1 862 0
 1864 001c FFF7FEFF 		bl	halSpiExc
 1865              	.LVL245:
 1866 0020 2870     		strb	r0, [r5]
 1867              	.L90:
 1868              		.loc 1 866 0
 1869 0022 200A     		lsrs	r0, r4, #8
 1870 0024 FFF7FEFF 		bl	halSpiExc
 1871              	.LVL246:
 1872              		.loc 1 867 0
 1873 0028 E0B2     		uxtb	r0, r4
 1874 002a FFF7FEFF 		bl	halSpiExc
 1875              	.LVL247:
 1876              		.loc 1 868 0
 1877 002e FFF7FEFF 		bl	spi_sw_end
 1878              	.LVL248:
 1879              		.loc 1 870 0
 1880 0032 3046     		mov	r0, r6
 1881 0034 F8BD     		pop	{r3, r4, r5, r6, r7, pc}
ARM GAS  /tmp/ccHp95GJ.s 			page 34


 1882              	.LVL249:
 1883              	.L89:
 1884              		.loc 1 864 0
 1885 0036 FFF7FEFF 		bl	halSpiExc
 1886              	.LVL250:
 1887 003a F2E7     		b	.L90
 1888              		.cfi_endproc
 1889              	.LFE295:
 1890              		.size	CC2520_TXBUFCP, .-CC2520_TXBUFCP
 1891              		.section	.text.CC2520_RANDOM,"ax",%progbits
 1892              		.align	2
 1893              		.p2align 4,,15
 1894              		.global	CC2520_RANDOM
 1895              		.thumb
 1896              		.thumb_func
 1897              		.type	CC2520_RANDOM, %function
 1898              	CC2520_RANDOM:
 1899              	.LFB296:
 1900              		.loc 1 884 0
 1901              		.cfi_startproc
 1902              		@ args = 0, pretend = 0, frame = 0
 1903              		@ frame_needed = 0, uses_anonymous_args = 0
 1904              	.LVL251:
 1905 0000 70B5     		push	{r4, r5, r6, lr}
 1906              		.cfi_def_cfa_offset 16
 1907              		.cfi_offset 4, -16
 1908              		.cfi_offset 5, -12
 1909              		.cfi_offset 6, -8
 1910              		.cfi_offset 14, -4
 1911              		.loc 1 884 0
 1912 0002 0E46     		mov	r6, r1
 1913 0004 0546     		mov	r5, r0
 1914              		.loc 1 886 0
 1915 0006 FFF7FEFF 		bl	spi_sw_begin
 1916              	.LVL252:
 1917              		.loc 1 887 0
 1918 000a 3C20     		movs	r0, #60
 1919 000c FFF7FEFF 		bl	halSpiExc
 1920              	.LVL253:
 1921 0010 0446     		mov	r4, r0
 1922              	.LVL254:
 1923              		.loc 1 888 0
 1924 0012 0020     		movs	r0, #0
 1925 0014 FFF7FEFF 		bl	halSpiExc
 1926              	.LVL255:
 1927              		.loc 1 889 0
 1928 0018 3046     		mov	r0, r6
 1929 001a 2A46     		mov	r2, r5
 1930 001c 0021     		movs	r1, #0
 1931 001e FFF7FEFF 		bl	spi_sw_transfer
 1932              	.LVL256:
 1933              		.loc 1 890 0
 1934 0022 FFF7FEFF 		bl	spi_sw_end
 1935              	.LVL257:
 1936              		.loc 1 892 0
 1937 0026 2046     		mov	r0, r4
 1938 0028 70BD     		pop	{r4, r5, r6, pc}
ARM GAS  /tmp/ccHp95GJ.s 			page 35


 1939              		.cfi_endproc
 1940              	.LFE296:
 1941              		.size	CC2520_RANDOM, .-CC2520_RANDOM
 1942 002a 00BF     		.section	.text.CC2520_RANDOM8,"ax",%progbits
 1943              		.align	2
 1944              		.p2align 4,,15
 1945              		.global	CC2520_RANDOM8
 1946              		.thumb
 1947              		.thumb_func
 1948              		.type	CC2520_RANDOM8, %function
 1949              	CC2520_RANDOM8:
 1950              	.LFB297:
 1951              		.loc 1 905 0
 1952              		.cfi_startproc
 1953              		@ args = 0, pretend = 0, frame = 0
 1954              		@ frame_needed = 0, uses_anonymous_args = 0
 1955 0000 10B5     		push	{r4, lr}
 1956              		.cfi_def_cfa_offset 8
 1957              		.cfi_offset 4, -8
 1958              		.cfi_offset 14, -4
 1959              		.loc 1 907 0
 1960 0002 FFF7FEFF 		bl	spi_sw_begin
 1961              	.LVL258:
 1962              		.loc 1 908 0
 1963 0006 3C20     		movs	r0, #60
 1964 0008 FFF7FEFF 		bl	halSpiExc
 1965              	.LVL259:
 1966              		.loc 1 909 0
 1967 000c 0020     		movs	r0, #0
 1968 000e FFF7FEFF 		bl	halSpiExc
 1969              	.LVL260:
 1970              		.loc 1 910 0
 1971 0012 0020     		movs	r0, #0
 1972 0014 FFF7FEFF 		bl	halSpiExc
 1973              	.LVL261:
 1974 0018 0446     		mov	r4, r0
 1975              	.LVL262:
 1976              		.loc 1 911 0
 1977 001a FFF7FEFF 		bl	spi_sw_end
 1978              	.LVL263:
 1979              		.loc 1 913 0
 1980 001e 2046     		mov	r0, r4
 1981 0020 10BD     		pop	{r4, pc}
 1982              		.cfi_endproc
 1983              	.LFE297:
 1984              		.size	CC2520_RANDOM8, .-CC2520_RANDOM8
 1985 0022 00BF     		.section	.text.CC2520_RANDOM16,"ax",%progbits
 1986              		.align	2
 1987              		.p2align 4,,15
 1988              		.global	CC2520_RANDOM16
 1989              		.thumb
 1990              		.thumb_func
 1991              		.type	CC2520_RANDOM16, %function
 1992              	CC2520_RANDOM16:
 1993              	.LFB298:
 1994              		.loc 1 926 0
 1995              		.cfi_startproc
ARM GAS  /tmp/ccHp95GJ.s 			page 36


 1996              		@ args = 0, pretend = 0, frame = 0
 1997              		@ frame_needed = 0, uses_anonymous_args = 0
 1998 0000 10B5     		push	{r4, lr}
 1999              		.cfi_def_cfa_offset 8
 2000              		.cfi_offset 4, -8
 2001              		.cfi_offset 14, -4
 2002              		.loc 1 928 0
 2003 0002 FFF7FEFF 		bl	spi_sw_begin
 2004              	.LVL264:
 2005              		.loc 1 929 0
 2006 0006 3C20     		movs	r0, #60
 2007 0008 FFF7FEFF 		bl	halSpiExc
 2008              	.LVL265:
 2009              		.loc 1 930 0
 2010 000c 0020     		movs	r0, #0
 2011 000e FFF7FEFF 		bl	halSpiExc
 2012              	.LVL266:
 2013              		.loc 1 931 0
 2014 0012 0020     		movs	r0, #0
 2015 0014 FFF7FEFF 		bl	halSpiExc
 2016              	.LVL267:
 2017 0018 4FF00004 		mov	r4, #0	@ movhi
 2018              	.LVL268:
 2019 001c 60F30704 		bfi	r4, r0, #0, #8
 2020              	.LVL269:
 2021              		.loc 1 932 0
 2022 0020 0020     		movs	r0, #0
 2023 0022 FFF7FEFF 		bl	halSpiExc
 2024              	.LVL270:
 2025 0026 60F30F24 		bfi	r4, r0, #8, #8
 2026              		.loc 1 933 0
 2027 002a FFF7FEFF 		bl	spi_sw_end
 2028              	.LVL271:
 2029              		.loc 1 935 0
 2030 002e A0B2     		uxth	r0, r4
 2031 0030 10BD     		pop	{r4, pc}
 2032              		.cfi_endproc
 2033              	.LFE298:
 2034              		.size	CC2520_RANDOM16, .-CC2520_RANDOM16
 2035              		.section	.text.CC2520_RXMASKOR,"ax",%progbits
 2036              		.align	2
 2037              		.p2align 4,,15
 2038              		.global	CC2520_RXMASKOR
 2039              		.thumb
 2040              		.thumb_func
 2041              		.type	CC2520_RXMASKOR, %function
 2042              	CC2520_RXMASKOR:
 2043              	.LFB299:
 2044              		.loc 1 948 0
 2045              		.cfi_startproc
 2046              		@ args = 0, pretend = 0, frame = 0
 2047              		@ frame_needed = 0, uses_anonymous_args = 0
 2048              	.LVL272:
 2049 0000 38B5     		push	{r3, r4, r5, lr}
 2050              		.cfi_def_cfa_offset 16
 2051              		.cfi_offset 3, -16
 2052              		.cfi_offset 4, -12
ARM GAS  /tmp/ccHp95GJ.s 			page 37


 2053              		.cfi_offset 5, -8
 2054              		.cfi_offset 14, -4
 2055              		.loc 1 948 0
 2056 0002 0446     		mov	r4, r0
 2057              		.loc 1 950 0
 2058 0004 FFF7FEFF 		bl	spi_sw_begin
 2059              	.LVL273:
 2060              		.loc 1 951 0
 2061 0008 4F20     		movs	r0, #79
 2062 000a FFF7FEFF 		bl	halSpiExc
 2063              	.LVL274:
 2064 000e 0546     		mov	r5, r0
 2065              	.LVL275:
 2066              		.loc 1 952 0
 2067 0010 200A     		lsrs	r0, r4, #8
 2068 0012 FFF7FEFF 		bl	halSpiExc
 2069              	.LVL276:
 2070              		.loc 1 953 0
 2071 0016 E0B2     		uxtb	r0, r4
 2072 0018 FFF7FEFF 		bl	halSpiExc
 2073              	.LVL277:
 2074              		.loc 1 954 0
 2075 001c FFF7FEFF 		bl	spi_sw_end
 2076              	.LVL278:
 2077              		.loc 1 956 0
 2078 0020 2846     		mov	r0, r5
 2079 0022 38BD     		pop	{r3, r4, r5, pc}
 2080              		.cfi_endproc
 2081              	.LFE299:
 2082              		.size	CC2520_RXMASKOR, .-CC2520_RXMASKOR
 2083              		.section	.text.CC2520_RXMASKAND,"ax",%progbits
 2084              		.align	2
 2085              		.p2align 4,,15
 2086              		.global	CC2520_RXMASKAND
 2087              		.thumb
 2088              		.thumb_func
 2089              		.type	CC2520_RXMASKAND, %function
 2090              	CC2520_RXMASKAND:
 2091              	.LFB300:
 2092              		.loc 1 969 0
 2093              		.cfi_startproc
 2094              		@ args = 0, pretend = 0, frame = 0
 2095              		@ frame_needed = 0, uses_anonymous_args = 0
 2096              	.LVL279:
 2097 0000 38B5     		push	{r3, r4, r5, lr}
 2098              		.cfi_def_cfa_offset 16
 2099              		.cfi_offset 3, -16
 2100              		.cfi_offset 4, -12
 2101              		.cfi_offset 5, -8
 2102              		.cfi_offset 14, -4
 2103              		.loc 1 969 0
 2104 0002 0446     		mov	r4, r0
 2105              		.loc 1 971 0
 2106 0004 FFF7FEFF 		bl	spi_sw_begin
 2107              	.LVL280:
 2108              		.loc 1 972 0
 2109 0008 4E20     		movs	r0, #78
ARM GAS  /tmp/ccHp95GJ.s 			page 38


 2110 000a FFF7FEFF 		bl	halSpiExc
 2111              	.LVL281:
 2112 000e 0546     		mov	r5, r0
 2113              	.LVL282:
 2114              		.loc 1 973 0
 2115 0010 200A     		lsrs	r0, r4, #8
 2116 0012 FFF7FEFF 		bl	halSpiExc
 2117              	.LVL283:
 2118              		.loc 1 974 0
 2119 0016 E0B2     		uxtb	r0, r4
 2120 0018 FFF7FEFF 		bl	halSpiExc
 2121              	.LVL284:
 2122              		.loc 1 975 0
 2123 001c FFF7FEFF 		bl	spi_sw_end
 2124              	.LVL285:
 2125              		.loc 1 977 0
 2126 0020 2846     		mov	r0, r5
 2127 0022 38BD     		pop	{r3, r4, r5, pc}
 2128              		.cfi_endproc
 2129              	.LFE300:
 2130              		.size	CC2520_RXMASKAND, .-CC2520_RXMASKAND
 2131              		.section	.text.CC2520_MEMCP,"ax",%progbits
 2132              		.align	2
 2133              		.p2align 4,,15
 2134              		.global	CC2520_MEMCP
 2135              		.thumb
 2136              		.thumb_func
 2137              		.type	CC2520_MEMCP, %function
 2138              	CC2520_MEMCP:
 2139              	.LFB301:
 2140              		.loc 1 993 0
 2141              		.cfi_startproc
 2142              		@ args = 0, pretend = 0, frame = 0
 2143              		@ frame_needed = 0, uses_anonymous_args = 0
 2144              	.LVL286:
 2145 0000 30B5     		push	{r4, r5, lr}
 2146              		.cfi_def_cfa_offset 12
 2147              		.cfi_offset 4, -12
 2148              		.cfi_offset 5, -8
 2149              		.cfi_offset 14, -4
 2150 0002 83B0     		sub	sp, sp, #12
 2151              		.cfi_def_cfa_offset 24
 2152              		.loc 1 993 0
 2153 0004 0D46     		mov	r5, r1
 2154 0006 1446     		mov	r4, r2
 2155              		.loc 1 994 0
 2156 0008 0146     		mov	r1, r0
 2157              	.LVL287:
 2158 000a 0093     		str	r3, [sp]
 2159 000c 2A46     		mov	r2, r5
 2160              	.LVL288:
 2161 000e 2346     		mov	r3, r4
 2162              	.LVL289:
 2163 0010 5020     		movs	r0, #80
 2164              	.LVL290:
 2165 0012 FFF7FEFF 		bl	CC2520_INS_MEMCP_COMMON
 2166              	.LVL291:
ARM GAS  /tmp/ccHp95GJ.s 			page 39


 2167              		.loc 1 995 0
 2168 0016 03B0     		add	sp, sp, #12
 2169              		.cfi_def_cfa_offset 12
 2170              		@ sp needed
 2171 0018 30BD     		pop	{r4, r5, pc}
 2172              		.cfi_endproc
 2173              	.LFE301:
 2174              		.size	CC2520_MEMCP, .-CC2520_MEMCP
 2175 001a 00BF     		.section	.text.CC2520_MEMCPR,"ax",%progbits
 2176              		.align	2
 2177              		.p2align 4,,15
 2178              		.global	CC2520_MEMCPR
 2179              		.thumb
 2180              		.thumb_func
 2181              		.type	CC2520_MEMCPR, %function
 2182              	CC2520_MEMCPR:
 2183              	.LFB302:
 2184              		.loc 1 1011 0
 2185              		.cfi_startproc
 2186              		@ args = 0, pretend = 0, frame = 0
 2187              		@ frame_needed = 0, uses_anonymous_args = 0
 2188              	.LVL292:
 2189 0000 30B5     		push	{r4, r5, lr}
 2190              		.cfi_def_cfa_offset 12
 2191              		.cfi_offset 4, -12
 2192              		.cfi_offset 5, -8
 2193              		.cfi_offset 14, -4
 2194 0002 83B0     		sub	sp, sp, #12
 2195              		.cfi_def_cfa_offset 24
 2196              		.loc 1 1011 0
 2197 0004 0D46     		mov	r5, r1
 2198 0006 1446     		mov	r4, r2
 2199              		.loc 1 1012 0
 2200 0008 0146     		mov	r1, r0
 2201              	.LVL293:
 2202 000a 0093     		str	r3, [sp]
 2203 000c 2A46     		mov	r2, r5
 2204              	.LVL294:
 2205 000e 2346     		mov	r3, r4
 2206              	.LVL295:
 2207 0010 5220     		movs	r0, #82
 2208              	.LVL296:
 2209 0012 FFF7FEFF 		bl	CC2520_INS_MEMCP_COMMON
 2210              	.LVL297:
 2211              		.loc 1 1013 0
 2212 0016 03B0     		add	sp, sp, #12
 2213              		.cfi_def_cfa_offset 12
 2214              		@ sp needed
 2215 0018 30BD     		pop	{r4, r5, pc}
 2216              		.cfi_endproc
 2217              	.LFE302:
 2218              		.size	CC2520_MEMCPR, .-CC2520_MEMCPR
 2219 001a 00BF     		.section	.text.CC2520_MEMXCP,"ax",%progbits
 2220              		.align	2
 2221              		.p2align 4,,15
 2222              		.global	CC2520_MEMXCP
 2223              		.thumb
ARM GAS  /tmp/ccHp95GJ.s 			page 40


 2224              		.thumb_func
 2225              		.type	CC2520_MEMXCP, %function
 2226              	CC2520_MEMXCP:
 2227              	.LFB303:
 2228              		.loc 1 1029 0
 2229              		.cfi_startproc
 2230              		@ args = 0, pretend = 0, frame = 0
 2231              		@ frame_needed = 0, uses_anonymous_args = 0
 2232              	.LVL298:
 2233 0000 30B5     		push	{r4, r5, lr}
 2234              		.cfi_def_cfa_offset 12
 2235              		.cfi_offset 4, -12
 2236              		.cfi_offset 5, -8
 2237              		.cfi_offset 14, -4
 2238 0002 83B0     		sub	sp, sp, #12
 2239              		.cfi_def_cfa_offset 24
 2240              		.loc 1 1029 0
 2241 0004 0D46     		mov	r5, r1
 2242 0006 1446     		mov	r4, r2
 2243              		.loc 1 1030 0
 2244 0008 0146     		mov	r1, r0
 2245              	.LVL299:
 2246 000a 0093     		str	r3, [sp]
 2247 000c 2A46     		mov	r2, r5
 2248              	.LVL300:
 2249 000e 2346     		mov	r3, r4
 2250              	.LVL301:
 2251 0010 5420     		movs	r0, #84
 2252              	.LVL302:
 2253 0012 FFF7FEFF 		bl	CC2520_INS_MEMCP_COMMON
 2254              	.LVL303:
 2255              		.loc 1 1031 0
 2256 0016 03B0     		add	sp, sp, #12
 2257              		.cfi_def_cfa_offset 12
 2258              		@ sp needed
 2259 0018 30BD     		pop	{r4, r5, pc}
 2260              		.cfi_endproc
 2261              	.LFE303:
 2262              		.size	CC2520_MEMXCP, .-CC2520_MEMXCP
 2263 001a 00BF     		.section	.text.CC2520_MEMXWR,"ax",%progbits
 2264              		.align	2
 2265              		.p2align 4,,15
 2266              		.global	CC2520_MEMXWR
 2267              		.thumb
 2268              		.thumb_func
 2269              		.type	CC2520_MEMXWR, %function
 2270              	CC2520_MEMXWR:
 2271              	.LFB304:
 2272              		.loc 1 1046 0
 2273              		.cfi_startproc
 2274              		@ args = 0, pretend = 0, frame = 0
 2275              		@ frame_needed = 0, uses_anonymous_args = 0
 2276              	.LVL304:
 2277 0000 F8B5     		push	{r3, r4, r5, r6, r7, lr}
 2278              		.cfi_def_cfa_offset 24
 2279              		.cfi_offset 3, -24
 2280              		.cfi_offset 4, -20
ARM GAS  /tmp/ccHp95GJ.s 			page 41


 2281              		.cfi_offset 5, -16
 2282              		.cfi_offset 6, -12
 2283              		.cfi_offset 7, -8
 2284              		.cfi_offset 14, -4
 2285              		.loc 1 1046 0
 2286 0002 0E46     		mov	r6, r1
 2287 0004 1746     		mov	r7, r2
 2288 0006 0446     		mov	r4, r0
 2289              		.loc 1 1048 0
 2290 0008 FFF7FEFF 		bl	spi_sw_begin
 2291              	.LVL305:
 2292              		.loc 1 1049 0
 2293 000c 5620     		movs	r0, #86
 2294 000e FFF7FEFF 		bl	halSpiExc
 2295              	.LVL306:
 2296 0012 0546     		mov	r5, r0
 2297              	.LVL307:
 2298              		.loc 1 1050 0
 2299 0014 200A     		lsrs	r0, r4, #8
 2300 0016 FFF7FEFF 		bl	halSpiExc
 2301              	.LVL308:
 2302              		.loc 1 1051 0
 2303 001a E0B2     		uxtb	r0, r4
 2304 001c FFF7FEFF 		bl	halSpiExc
 2305              	.LVL309:
 2306              		.loc 1 1052 0
 2307 0020 3946     		mov	r1, r7
 2308 0022 3246     		mov	r2, r6
 2309 0024 0020     		movs	r0, #0
 2310 0026 FFF7FEFF 		bl	spi_sw_transfer
 2311              	.LVL310:
 2312              		.loc 1 1053 0
 2313 002a FFF7FEFF 		bl	spi_sw_end
 2314              	.LVL311:
 2315              		.loc 1 1055 0
 2316 002e 2846     		mov	r0, r5
 2317 0030 F8BD     		pop	{r3, r4, r5, r6, r7, pc}
 2318              		.cfi_endproc
 2319              	.LFE304:
 2320              		.size	CC2520_MEMXWR, .-CC2520_MEMXWR
 2321 0032 00BF     		.section	.text.CC2520_BSET,"ax",%progbits
 2322              		.align	2
 2323              		.p2align 4,,15
 2324              		.global	CC2520_BSET
 2325              		.thumb
 2326              		.thumb_func
 2327              		.type	CC2520_BSET, %function
 2328              	CC2520_BSET:
 2329              	.LFB305:
 2330              		.loc 1 1068 0
 2331              		.cfi_startproc
 2332              		@ args = 0, pretend = 0, frame = 0
 2333              		@ frame_needed = 0, uses_anonymous_args = 0
 2334              	.LVL312:
 2335 0000 38B5     		push	{r3, r4, r5, lr}
 2336              		.cfi_def_cfa_offset 16
 2337              		.cfi_offset 3, -16
ARM GAS  /tmp/ccHp95GJ.s 			page 42


 2338              		.cfi_offset 4, -12
 2339              		.cfi_offset 5, -8
 2340              		.cfi_offset 14, -4
 2341              		.loc 1 1068 0
 2342 0002 0546     		mov	r5, r0
 2343              		.loc 1 1070 0
 2344 0004 FFF7FEFF 		bl	spi_sw_begin
 2345              	.LVL313:
 2346              		.loc 1 1071 0
 2347 0008 5920     		movs	r0, #89
 2348 000a FFF7FEFF 		bl	halSpiExc
 2349              	.LVL314:
 2350 000e 0446     		mov	r4, r0
 2351              	.LVL315:
 2352              		.loc 1 1072 0
 2353 0010 2846     		mov	r0, r5
 2354 0012 FFF7FEFF 		bl	halSpiExc
 2355              	.LVL316:
 2356              		.loc 1 1073 0
 2357 0016 FFF7FEFF 		bl	spi_sw_end
 2358              	.LVL317:
 2359              		.loc 1 1075 0
 2360 001a 2046     		mov	r0, r4
 2361 001c 38BD     		pop	{r3, r4, r5, pc}
 2362              		.cfi_endproc
 2363              	.LFE305:
 2364              		.size	CC2520_BSET, .-CC2520_BSET
 2365 001e 00BF     		.section	.text.CC2520_BCLR,"ax",%progbits
 2366              		.align	2
 2367              		.p2align 4,,15
 2368              		.global	CC2520_BCLR
 2369              		.thumb
 2370              		.thumb_func
 2371              		.type	CC2520_BCLR, %function
 2372              	CC2520_BCLR:
 2373              	.LFB306:
 2374              		.loc 1 1088 0
 2375              		.cfi_startproc
 2376              		@ args = 0, pretend = 0, frame = 0
 2377              		@ frame_needed = 0, uses_anonymous_args = 0
 2378              	.LVL318:
 2379 0000 38B5     		push	{r3, r4, r5, lr}
 2380              		.cfi_def_cfa_offset 16
 2381              		.cfi_offset 3, -16
 2382              		.cfi_offset 4, -12
 2383              		.cfi_offset 5, -8
 2384              		.cfi_offset 14, -4
 2385              		.loc 1 1088 0
 2386 0002 0546     		mov	r5, r0
 2387              		.loc 1 1090 0
 2388 0004 FFF7FEFF 		bl	spi_sw_begin
 2389              	.LVL319:
 2390              		.loc 1 1091 0
 2391 0008 5820     		movs	r0, #88
 2392 000a FFF7FEFF 		bl	halSpiExc
 2393              	.LVL320:
 2394 000e 0446     		mov	r4, r0
ARM GAS  /tmp/ccHp95GJ.s 			page 43


 2395              	.LVL321:
 2396              		.loc 1 1092 0
 2397 0010 2846     		mov	r0, r5
 2398 0012 FFF7FEFF 		bl	halSpiExc
 2399              	.LVL322:
 2400              		.loc 1 1093 0
 2401 0016 FFF7FEFF 		bl	spi_sw_end
 2402              	.LVL323:
 2403              		.loc 1 1095 0
 2404 001a 2046     		mov	r0, r4
 2405 001c 38BD     		pop	{r3, r4, r5, pc}
 2406              		.cfi_endproc
 2407              	.LFE306:
 2408              		.size	CC2520_BCLR, .-CC2520_BCLR
 2409 001e 00BF     		.section	.text.CC2520_CTR,"ax",%progbits
 2410              		.align	2
 2411              		.p2align 4,,15
 2412              		.global	CC2520_CTR
 2413              		.thumb
 2414              		.thumb_func
 2415              		.type	CC2520_CTR, %function
 2416              	CC2520_CTR:
 2417              	.LFB307:
 2418              		.loc 1 1114 0
 2419              		.cfi_startproc
 2420              		@ args = 8, pretend = 0, frame = 0
 2421              		@ frame_needed = 0, uses_anonymous_args = 0
 2422              	.LVL324:
 2423 0000 2DE9F843 		push	{r3, r4, r5, r6, r7, r8, r9, lr}
 2424              		.cfi_def_cfa_offset 32
 2425              		.cfi_offset 3, -32
 2426              		.cfi_offset 4, -28
 2427              		.cfi_offset 5, -24
 2428              		.cfi_offset 6, -20
 2429              		.cfi_offset 7, -16
 2430              		.cfi_offset 8, -12
 2431              		.cfi_offset 9, -8
 2432              		.cfi_offset 14, -4
 2433              		.loc 1 1114 0
 2434 0004 0646     		mov	r6, r0
 2435 0006 8946     		mov	r9, r1
 2436 0008 9046     		mov	r8, r2
 2437 000a 1F46     		mov	r7, r3
 2438 000c BDF82050 		ldrh	r5, [sp, #32]
 2439 0010 BDF82440 		ldrh	r4, [sp, #36]
 2440              		.loc 1 1116 0
 2441 0014 FFF7FEFF 		bl	spi_sw_begin
 2442              	.LVL325:
 2443              		.loc 1 1117 0
 2444 0018 46F06000 		orr	r0, r6, #96
 2445 001c FFF7FEFF 		bl	halSpiExc
 2446              	.LVL326:
 2447 0020 0646     		mov	r6, r0
 2448              	.LVL327:
 2449              		.loc 1 1118 0
 2450 0022 4846     		mov	r0, r9
 2451 0024 FFF7FEFF 		bl	halSpiExc
ARM GAS  /tmp/ccHp95GJ.s 			page 44


 2452              	.LVL328:
 2453              		.loc 1 1119 0
 2454 0028 4046     		mov	r0, r8
 2455 002a FFF7FEFF 		bl	halSpiExc
 2456              	.LVL329:
 2457              		.loc 1 1120 0
 2458 002e 3846     		mov	r0, r7
 2459 0030 FFF7FEFF 		bl	halSpiExc
 2460              	.LVL330:
 2461              		.loc 1 1121 0
 2462 0034 230A     		lsrs	r3, r4, #8
 2463 0036 280A     		lsrs	r0, r5, #8
 2464 0038 43EA0010 		orr	r0, r3, r0, lsl #4
 2465 003c C0B2     		uxtb	r0, r0
 2466 003e FFF7FEFF 		bl	halSpiExc
 2467              	.LVL331:
 2468              		.loc 1 1122 0
 2469 0042 E8B2     		uxtb	r0, r5
 2470 0044 FFF7FEFF 		bl	halSpiExc
 2471              	.LVL332:
 2472              		.loc 1 1123 0
 2473 0048 E0B2     		uxtb	r0, r4
 2474 004a FFF7FEFF 		bl	halSpiExc
 2475              	.LVL333:
 2476              		.loc 1 1124 0
 2477 004e FFF7FEFF 		bl	spi_sw_end
 2478              	.LVL334:
 2479              		.loc 1 1126 0
 2480 0052 3046     		mov	r0, r6
 2481 0054 BDE8F883 		pop	{r3, r4, r5, r6, r7, r8, r9, pc}
 2482              		.cfi_endproc
 2483              	.LFE307:
 2484              		.size	CC2520_CTR, .-CC2520_CTR
 2485              		.section	.text.CC2520_UCTR,"ax",%progbits
 2486              		.align	2
 2487              		.p2align 4,,15
 2488              		.global	CC2520_UCTR
 2489              		.thumb
 2490              		.thumb_func
 2491              		.type	CC2520_UCTR, %function
 2492              	CC2520_UCTR:
 2493              	.LFB308:
 2494              		.loc 1 1144 0
 2495              		.cfi_startproc
 2496              		@ args = 8, pretend = 0, frame = 0
 2497              		@ frame_needed = 0, uses_anonymous_args = 0
 2498              		@ link register save eliminated.
 2499              	.LVL335:
 2500 0000 30B4     		push	{r4, r5}
 2501              		.cfi_def_cfa_offset 8
 2502              		.cfi_offset 4, -8
 2503              		.cfi_offset 5, -4
 2504              		.loc 1 1144 0
 2505 0002 BDF80850 		ldrh	r5, [sp, #8]
 2506 0006 BDF80C40 		ldrh	r4, [sp, #12]
 2507              		.loc 1 1145 0
 2508 000a 0295     		str	r5, [sp, #8]
ARM GAS  /tmp/ccHp95GJ.s 			page 45


 2509              	.LVL336:
 2510 000c 0394     		str	r4, [sp, #12]
 2511              	.LVL337:
 2512              		.loc 1 1146 0
 2513 000e 30BC     		pop	{r4, r5}
 2514              		.cfi_restore 5
 2515              		.cfi_restore 4
 2516              		.cfi_def_cfa_offset 0
 2517              		.loc 1 1145 0
 2518 0010 FFF7FEBF 		b	CC2520_CTR
 2519              	.LVL338:
 2520              		.cfi_endproc
 2521              	.LFE308:
 2522              		.size	CC2520_UCTR, .-CC2520_UCTR
 2523              		.section	.text.CC2520_CBCMAC,"ax",%progbits
 2524              		.align	2
 2525              		.p2align 4,,15
 2526              		.global	CC2520_CBCMAC
 2527              		.thumb
 2528              		.thumb_func
 2529              		.type	CC2520_CBCMAC, %function
 2530              	CC2520_CBCMAC:
 2531              	.LFB309:
 2532              		.loc 1 1165 0
 2533              		.cfi_startproc
 2534              		@ args = 8, pretend = 0, frame = 0
 2535              		@ frame_needed = 0, uses_anonymous_args = 0
 2536              	.LVL339:
 2537 0000 2DE9F843 		push	{r3, r4, r5, r6, r7, r8, r9, lr}
 2538              		.cfi_def_cfa_offset 32
 2539              		.cfi_offset 3, -32
 2540              		.cfi_offset 4, -28
 2541              		.cfi_offset 5, -24
 2542              		.cfi_offset 6, -20
 2543              		.cfi_offset 7, -16
 2544              		.cfi_offset 8, -12
 2545              		.cfi_offset 9, -8
 2546              		.cfi_offset 14, -4
 2547              		.loc 1 1165 0
 2548 0004 0646     		mov	r6, r0
 2549 0006 8946     		mov	r9, r1
 2550 0008 9046     		mov	r8, r2
 2551 000a 1D46     		mov	r5, r3
 2552 000c BDF82040 		ldrh	r4, [sp, #32]
 2553 0010 9DF82470 		ldrb	r7, [sp, #36]	@ zero_extendqisi2
 2554              		.loc 1 1167 0
 2555 0014 FFF7FEFF 		bl	spi_sw_begin
 2556              	.LVL340:
 2557              		.loc 1 1168 0
 2558 0018 46F06400 		orr	r0, r6, #100
 2559 001c FFF7FEFF 		bl	halSpiExc
 2560              	.LVL341:
 2561 0020 0646     		mov	r6, r0
 2562              	.LVL342:
 2563              		.loc 1 1169 0
 2564 0022 4846     		mov	r0, r9
 2565 0024 FFF7FEFF 		bl	halSpiExc
ARM GAS  /tmp/ccHp95GJ.s 			page 46


 2566              	.LVL343:
 2567              		.loc 1 1170 0
 2568 0028 4046     		mov	r0, r8
 2569 002a FFF7FEFF 		bl	halSpiExc
 2570              	.LVL344:
 2571              		.loc 1 1171 0
 2572 002e 230A     		lsrs	r3, r4, #8
 2573 0030 280A     		lsrs	r0, r5, #8
 2574 0032 43EA0010 		orr	r0, r3, r0, lsl #4
 2575 0036 C0B2     		uxtb	r0, r0
 2576 0038 FFF7FEFF 		bl	halSpiExc
 2577              	.LVL345:
 2578              		.loc 1 1172 0
 2579 003c E8B2     		uxtb	r0, r5
 2580 003e FFF7FEFF 		bl	halSpiExc
 2581              	.LVL346:
 2582              		.loc 1 1173 0
 2583 0042 E0B2     		uxtb	r0, r4
 2584 0044 FFF7FEFF 		bl	halSpiExc
 2585              	.LVL347:
 2586              		.loc 1 1174 0
 2587 0048 3846     		mov	r0, r7
 2588 004a FFF7FEFF 		bl	halSpiExc
 2589              	.LVL348:
 2590              		.loc 1 1175 0
 2591 004e FFF7FEFF 		bl	spi_sw_end
 2592              	.LVL349:
 2593              		.loc 1 1177 0
 2594 0052 3046     		mov	r0, r6
 2595 0054 BDE8F883 		pop	{r3, r4, r5, r6, r7, r8, r9, pc}
 2596              		.cfi_endproc
 2597              	.LFE309:
 2598              		.size	CC2520_CBCMAC, .-CC2520_CBCMAC
 2599              		.section	.text.CC2520_UCBCMAC,"ax",%progbits
 2600              		.align	2
 2601              		.p2align 4,,15
 2602              		.global	CC2520_UCBCMAC
 2603              		.thumb
 2604              		.thumb_func
 2605              		.type	CC2520_UCBCMAC, %function
 2606              	CC2520_UCBCMAC:
 2607              	.LFB310:
 2608              		.loc 1 1195 0
 2609              		.cfi_startproc
 2610              		@ args = 4, pretend = 0, frame = 0
 2611              		@ frame_needed = 0, uses_anonymous_args = 0
 2612              	.LVL350:
 2613 0000 2DE9F041 		push	{r4, r5, r6, r7, r8, lr}
 2614              		.cfi_def_cfa_offset 24
 2615              		.cfi_offset 4, -24
 2616              		.cfi_offset 5, -20
 2617              		.cfi_offset 6, -16
 2618              		.cfi_offset 7, -12
 2619              		.cfi_offset 8, -8
 2620              		.cfi_offset 14, -4
 2621              		.loc 1 1195 0
 2622 0004 0546     		mov	r5, r0
ARM GAS  /tmp/ccHp95GJ.s 			page 47


 2623 0006 1C46     		mov	r4, r3
 2624 0008 8846     		mov	r8, r1
 2625 000a 1746     		mov	r7, r2
 2626 000c 9DF81860 		ldrb	r6, [sp, #24]	@ zero_extendqisi2
 2627              		.loc 1 1197 0
 2628 0010 FFF7FEFF 		bl	spi_sw_begin
 2629              	.LVL351:
 2630              		.loc 1 1198 0
 2631 0014 45F06600 		orr	r0, r5, #102
 2632 0018 FFF7FEFF 		bl	halSpiExc
 2633              	.LVL352:
 2634 001c 0546     		mov	r5, r0
 2635              	.LVL353:
 2636              		.loc 1 1199 0
 2637 001e 4046     		mov	r0, r8
 2638 0020 FFF7FEFF 		bl	halSpiExc
 2639              	.LVL354:
 2640              		.loc 1 1200 0
 2641 0024 3846     		mov	r0, r7
 2642 0026 FFF7FEFF 		bl	halSpiExc
 2643              	.LVL355:
 2644              		.loc 1 1201 0
 2645 002a 200A     		lsrs	r0, r4, #8
 2646 002c FFF7FEFF 		bl	halSpiExc
 2647              	.LVL356:
 2648              		.loc 1 1202 0
 2649 0030 E0B2     		uxtb	r0, r4
 2650 0032 FFF7FEFF 		bl	halSpiExc
 2651              	.LVL357:
 2652              		.loc 1 1203 0
 2653 0036 3046     		mov	r0, r6
 2654 0038 FFF7FEFF 		bl	halSpiExc
 2655              	.LVL358:
 2656              		.loc 1 1204 0
 2657 003c FFF7FEFF 		bl	spi_sw_end
 2658              	.LVL359:
 2659              		.loc 1 1206 0
 2660 0040 2846     		mov	r0, r5
 2661 0042 BDE8F081 		pop	{r4, r5, r6, r7, r8, pc}
 2662              		.cfi_endproc
 2663              	.LFE310:
 2664              		.size	CC2520_UCBCMAC, .-CC2520_UCBCMAC
 2665 0046 00BF     		.section	.text.CC2520_CCM,"ax",%progbits
 2666              		.align	2
 2667              		.p2align 4,,15
 2668              		.global	CC2520_CCM
 2669              		.thumb
 2670              		.thumb_func
 2671              		.type	CC2520_CCM, %function
 2672              	CC2520_CCM:
 2673              	.LFB311:
 2674              		.loc 1 1228 0
 2675              		.cfi_startproc
 2676              		@ args = 16, pretend = 0, frame = 0
 2677              		@ frame_needed = 0, uses_anonymous_args = 0
 2678              	.LVL360:
 2679 0000 2DE9F84F 		push	{r3, r4, r5, r6, r7, r8, r9, r10, fp, lr}
ARM GAS  /tmp/ccHp95GJ.s 			page 48


 2680              		.cfi_def_cfa_offset 40
 2681              		.cfi_offset 3, -40
 2682              		.cfi_offset 4, -36
 2683              		.cfi_offset 5, -32
 2684              		.cfi_offset 6, -28
 2685              		.cfi_offset 7, -24
 2686              		.cfi_offset 8, -20
 2687              		.cfi_offset 9, -16
 2688              		.cfi_offset 10, -12
 2689              		.cfi_offset 11, -8
 2690              		.cfi_offset 14, -4
 2691              		.loc 1 1228 0
 2692 0004 0646     		mov	r6, r0
 2693 0006 8B46     		mov	fp, r1
 2694 0008 9246     		mov	r10, r2
 2695 000a 9946     		mov	r9, r3
 2696 000c BDF82850 		ldrh	r5, [sp, #40]
 2697 0010 BDF82C40 		ldrh	r4, [sp, #44]
 2698 0014 9DF83080 		ldrb	r8, [sp, #48]	@ zero_extendqisi2
 2699 0018 9DF83470 		ldrb	r7, [sp, #52]	@ zero_extendqisi2
 2700              		.loc 1 1230 0
 2701 001c FFF7FEFF 		bl	spi_sw_begin
 2702              	.LVL361:
 2703              		.loc 1 1231 0
 2704 0020 46F06800 		orr	r0, r6, #104
 2705 0024 FFF7FEFF 		bl	halSpiExc
 2706              	.LVL362:
 2707 0028 0646     		mov	r6, r0
 2708              	.LVL363:
 2709              		.loc 1 1232 0
 2710 002a 5846     		mov	r0, fp
 2711 002c FFF7FEFF 		bl	halSpiExc
 2712              	.LVL364:
 2713              		.loc 1 1233 0
 2714 0030 5046     		mov	r0, r10
 2715 0032 FFF7FEFF 		bl	halSpiExc
 2716              	.LVL365:
 2717              		.loc 1 1234 0
 2718 0036 4846     		mov	r0, r9
 2719 0038 FFF7FEFF 		bl	halSpiExc
 2720              	.LVL366:
 2721              		.loc 1 1235 0
 2722 003c 230A     		lsrs	r3, r4, #8
 2723 003e 280A     		lsrs	r0, r5, #8
 2724 0040 43EA0010 		orr	r0, r3, r0, lsl #4
 2725 0044 C0B2     		uxtb	r0, r0
 2726 0046 FFF7FEFF 		bl	halSpiExc
 2727              	.LVL367:
 2728              		.loc 1 1236 0
 2729 004a E8B2     		uxtb	r0, r5
 2730 004c FFF7FEFF 		bl	halSpiExc
 2731              	.LVL368:
 2732              		.loc 1 1237 0
 2733 0050 E0B2     		uxtb	r0, r4
 2734 0052 FFF7FEFF 		bl	halSpiExc
 2735              	.LVL369:
 2736              		.loc 1 1238 0
ARM GAS  /tmp/ccHp95GJ.s 			page 49


 2737 0056 4046     		mov	r0, r8
 2738 0058 FFF7FEFF 		bl	halSpiExc
 2739              	.LVL370:
 2740              		.loc 1 1239 0
 2741 005c 3846     		mov	r0, r7
 2742 005e FFF7FEFF 		bl	halSpiExc
 2743              	.LVL371:
 2744              		.loc 1 1240 0
 2745 0062 FFF7FEFF 		bl	spi_sw_end
 2746              	.LVL372:
 2747              		.loc 1 1242 0
 2748 0066 3046     		mov	r0, r6
 2749 0068 BDE8F88F 		pop	{r3, r4, r5, r6, r7, r8, r9, r10, fp, pc}
 2750              		.cfi_endproc
 2751              	.LFE311:
 2752              		.size	CC2520_CCM, .-CC2520_CCM
 2753              		.section	.text.CC2520_UCCM,"ax",%progbits
 2754              		.align	2
 2755              		.p2align 4,,15
 2756              		.global	CC2520_UCCM
 2757              		.thumb
 2758              		.thumb_func
 2759              		.type	CC2520_UCCM, %function
 2760              	CC2520_UCCM:
 2761              	.LFB312:
 2762              		.loc 1 1264 0
 2763              		.cfi_startproc
 2764              		@ args = 16, pretend = 0, frame = 0
 2765              		@ frame_needed = 0, uses_anonymous_args = 0
 2766              	.LVL373:
 2767 0000 2DE9F84F 		push	{r3, r4, r5, r6, r7, r8, r9, r10, fp, lr}
 2768              		.cfi_def_cfa_offset 40
 2769              		.cfi_offset 3, -40
 2770              		.cfi_offset 4, -36
 2771              		.cfi_offset 5, -32
 2772              		.cfi_offset 6, -28
 2773              		.cfi_offset 7, -24
 2774              		.cfi_offset 8, -20
 2775              		.cfi_offset 9, -16
 2776              		.cfi_offset 10, -12
 2777              		.cfi_offset 11, -8
 2778              		.cfi_offset 14, -4
 2779              		.loc 1 1264 0
 2780 0004 0646     		mov	r6, r0
 2781 0006 8B46     		mov	fp, r1
 2782 0008 9246     		mov	r10, r2
 2783 000a 9946     		mov	r9, r3
 2784 000c BDF82850 		ldrh	r5, [sp, #40]
 2785 0010 BDF82C40 		ldrh	r4, [sp, #44]
 2786 0014 9DF83080 		ldrb	r8, [sp, #48]	@ zero_extendqisi2
 2787 0018 9DF83470 		ldrb	r7, [sp, #52]	@ zero_extendqisi2
 2788              		.loc 1 1266 0
 2789 001c FFF7FEFF 		bl	spi_sw_begin
 2790              	.LVL374:
 2791              		.loc 1 1267 0
 2792 0020 46F06A00 		orr	r0, r6, #106
 2793 0024 FFF7FEFF 		bl	halSpiExc
ARM GAS  /tmp/ccHp95GJ.s 			page 50


 2794              	.LVL375:
 2795 0028 0646     		mov	r6, r0
 2796              	.LVL376:
 2797              		.loc 1 1268 0
 2798 002a 5846     		mov	r0, fp
 2799 002c FFF7FEFF 		bl	halSpiExc
 2800              	.LVL377:
 2801              		.loc 1 1269 0
 2802 0030 5046     		mov	r0, r10
 2803 0032 FFF7FEFF 		bl	halSpiExc
 2804              	.LVL378:
 2805              		.loc 1 1270 0
 2806 0036 4846     		mov	r0, r9
 2807 0038 FFF7FEFF 		bl	halSpiExc
 2808              	.LVL379:
 2809              		.loc 1 1271 0
 2810 003c 230A     		lsrs	r3, r4, #8
 2811 003e 280A     		lsrs	r0, r5, #8
 2812 0040 43EA0010 		orr	r0, r3, r0, lsl #4
 2813 0044 C0B2     		uxtb	r0, r0
 2814 0046 FFF7FEFF 		bl	halSpiExc
 2815              	.LVL380:
 2816              		.loc 1 1272 0
 2817 004a E8B2     		uxtb	r0, r5
 2818 004c FFF7FEFF 		bl	halSpiExc
 2819              	.LVL381:
 2820              		.loc 1 1273 0
 2821 0050 E0B2     		uxtb	r0, r4
 2822 0052 FFF7FEFF 		bl	halSpiExc
 2823              	.LVL382:
 2824              		.loc 1 1274 0
 2825 0056 4046     		mov	r0, r8
 2826 0058 FFF7FEFF 		bl	halSpiExc
 2827              	.LVL383:
 2828              		.loc 1 1275 0
 2829 005c 3846     		mov	r0, r7
 2830 005e FFF7FEFF 		bl	halSpiExc
 2831              	.LVL384:
 2832              		.loc 1 1276 0
 2833 0062 FFF7FEFF 		bl	spi_sw_end
 2834              	.LVL385:
 2835              		.loc 1 1278 0
 2836 0066 3046     		mov	r0, r6
 2837 0068 BDE8F88F 		pop	{r3, r4, r5, r6, r7, r8, r9, r10, fp, pc}
 2838              		.cfi_endproc
 2839              	.LFE312:
 2840              		.size	CC2520_UCCM, .-CC2520_UCCM
 2841              		.section	.text.CC2520_ECB,"ax",%progbits
 2842              		.align	2
 2843              		.p2align 4,,15
 2844              		.global	CC2520_ECB
 2845              		.thumb
 2846              		.thumb_func
 2847              		.type	CC2520_ECB, %function
 2848              	CC2520_ECB:
 2849              	.LFB313:
 2850              		.loc 1 1295 0
ARM GAS  /tmp/ccHp95GJ.s 			page 51


 2851              		.cfi_startproc
 2852              		@ args = 4, pretend = 0, frame = 0
 2853              		@ frame_needed = 0, uses_anonymous_args = 0
 2854              	.LVL386:
 2855 0000 2DE9F041 		push	{r4, r5, r6, r7, r8, lr}
 2856              		.cfi_def_cfa_offset 24
 2857              		.cfi_offset 4, -24
 2858              		.cfi_offset 5, -20
 2859              		.cfi_offset 6, -16
 2860              		.cfi_offset 7, -12
 2861              		.cfi_offset 8, -8
 2862              		.cfi_offset 14, -4
 2863              		.loc 1 1295 0
 2864 0004 0646     		mov	r6, r0
 2865 0006 1D46     		mov	r5, r3
 2866 0008 8846     		mov	r8, r1
 2867 000a 1746     		mov	r7, r2
 2868 000c BDF81840 		ldrh	r4, [sp, #24]
 2869              		.loc 1 1297 0
 2870 0010 FFF7FEFF 		bl	spi_sw_begin
 2871              	.LVL387:
 2872              		.loc 1 1298 0
 2873 0014 46F07000 		orr	r0, r6, #112
 2874 0018 FFF7FEFF 		bl	halSpiExc
 2875              	.LVL388:
 2876 001c 0646     		mov	r6, r0
 2877              	.LVL389:
 2878              		.loc 1 1299 0
 2879 001e 4046     		mov	r0, r8
 2880 0020 FFF7FEFF 		bl	halSpiExc
 2881              	.LVL390:
 2882              		.loc 1 1300 0
 2883 0024 280A     		lsrs	r0, r5, #8
 2884 0026 40EA0710 		orr	r0, r0, r7, lsl #4
 2885 002a C0B2     		uxtb	r0, r0
 2886 002c FFF7FEFF 		bl	halSpiExc
 2887              	.LVL391:
 2888              		.loc 1 1301 0
 2889 0030 E8B2     		uxtb	r0, r5
 2890 0032 FFF7FEFF 		bl	halSpiExc
 2891              	.LVL392:
 2892              		.loc 1 1302 0
 2893 0036 200A     		lsrs	r0, r4, #8
 2894 0038 FFF7FEFF 		bl	halSpiExc
 2895              	.LVL393:
 2896              		.loc 1 1303 0
 2897 003c E0B2     		uxtb	r0, r4
 2898 003e FFF7FEFF 		bl	halSpiExc
 2899              	.LVL394:
 2900              		.loc 1 1304 0
 2901 0042 FFF7FEFF 		bl	spi_sw_end
 2902              	.LVL395:
 2903              		.loc 1 1306 0
 2904 0046 3046     		mov	r0, r6
 2905 0048 BDE8F081 		pop	{r4, r5, r6, r7, r8, pc}
 2906              		.cfi_endproc
 2907              	.LFE313:
ARM GAS  /tmp/ccHp95GJ.s 			page 52


 2908              		.size	CC2520_ECB, .-CC2520_ECB
 2909              		.section	.text.CC2520_ECBO,"ax",%progbits
 2910              		.align	2
 2911              		.p2align 4,,15
 2912              		.global	CC2520_ECBO
 2913              		.thumb
 2914              		.thumb_func
 2915              		.type	CC2520_ECBO, %function
 2916              	CC2520_ECBO:
 2917              	.LFB314:
 2918              		.loc 1 1322 0
 2919              		.cfi_startproc
 2920              		@ args = 0, pretend = 0, frame = 0
 2921              		@ frame_needed = 0, uses_anonymous_args = 0
 2922              	.LVL396:
 2923 0000 F8B5     		push	{r3, r4, r5, r6, r7, lr}
 2924              		.cfi_def_cfa_offset 24
 2925              		.cfi_offset 3, -24
 2926              		.cfi_offset 4, -20
 2927              		.cfi_offset 5, -16
 2928              		.cfi_offset 6, -12
 2929              		.cfi_offset 7, -8
 2930              		.cfi_offset 14, -4
 2931              		.loc 1 1322 0
 2932 0002 0546     		mov	r5, r0
 2933 0004 1C46     		mov	r4, r3
 2934 0006 0F46     		mov	r7, r1
 2935 0008 1646     		mov	r6, r2
 2936              		.loc 1 1324 0
 2937 000a FFF7FEFF 		bl	spi_sw_begin
 2938              	.LVL397:
 2939              		.loc 1 1325 0
 2940 000e 45F07200 		orr	r0, r5, #114
 2941 0012 FFF7FEFF 		bl	halSpiExc
 2942              	.LVL398:
 2943 0016 0546     		mov	r5, r0
 2944              	.LVL399:
 2945              		.loc 1 1326 0
 2946 0018 3846     		mov	r0, r7
 2947 001a FFF7FEFF 		bl	halSpiExc
 2948              	.LVL400:
 2949              		.loc 1 1327 0
 2950 001e 200A     		lsrs	r0, r4, #8
 2951 0020 40EA0610 		orr	r0, r0, r6, lsl #4
 2952 0024 C0B2     		uxtb	r0, r0
 2953 0026 FFF7FEFF 		bl	halSpiExc
 2954              	.LVL401:
 2955              		.loc 1 1328 0
 2956 002a E0B2     		uxtb	r0, r4
 2957 002c FFF7FEFF 		bl	halSpiExc
 2958              	.LVL402:
 2959              		.loc 1 1329 0
 2960 0030 FFF7FEFF 		bl	spi_sw_end
 2961              	.LVL403:
 2962              		.loc 1 1331 0
 2963 0034 2846     		mov	r0, r5
 2964 0036 F8BD     		pop	{r3, r4, r5, r6, r7, pc}
ARM GAS  /tmp/ccHp95GJ.s 			page 53


 2965              		.cfi_endproc
 2966              	.LFE314:
 2967              		.size	CC2520_ECBO, .-CC2520_ECBO
 2968              		.section	.text.CC2520_ECBX,"ax",%progbits
 2969              		.align	2
 2970              		.p2align 4,,15
 2971              		.global	CC2520_ECBX
 2972              		.thumb
 2973              		.thumb_func
 2974              		.type	CC2520_ECBX, %function
 2975              	CC2520_ECBX:
 2976              	.LFB315:
 2977              		.loc 1 1348 0
 2978              		.cfi_startproc
 2979              		@ args = 4, pretend = 0, frame = 0
 2980              		@ frame_needed = 0, uses_anonymous_args = 0
 2981              	.LVL404:
 2982 0000 2DE9F041 		push	{r4, r5, r6, r7, r8, lr}
 2983              		.cfi_def_cfa_offset 24
 2984              		.cfi_offset 4, -24
 2985              		.cfi_offset 5, -20
 2986              		.cfi_offset 6, -16
 2987              		.cfi_offset 7, -12
 2988              		.cfi_offset 8, -8
 2989              		.cfi_offset 14, -4
 2990              		.loc 1 1348 0
 2991 0004 0646     		mov	r6, r0
 2992 0006 1D46     		mov	r5, r3
 2993 0008 8846     		mov	r8, r1
 2994 000a 1746     		mov	r7, r2
 2995 000c BDF81840 		ldrh	r4, [sp, #24]
 2996              		.loc 1 1350 0
 2997 0010 FFF7FEFF 		bl	spi_sw_begin
 2998              	.LVL405:
 2999              		.loc 1 1351 0
 3000 0014 46F07400 		orr	r0, r6, #116
 3001 0018 FFF7FEFF 		bl	halSpiExc
 3002              	.LVL406:
 3003 001c 0646     		mov	r6, r0
 3004              	.LVL407:
 3005              		.loc 1 1352 0
 3006 001e 4046     		mov	r0, r8
 3007 0020 FFF7FEFF 		bl	halSpiExc
 3008              	.LVL408:
 3009              		.loc 1 1353 0
 3010 0024 280A     		lsrs	r0, r5, #8
 3011 0026 40EA0710 		orr	r0, r0, r7, lsl #4
 3012 002a C0B2     		uxtb	r0, r0
 3013 002c FFF7FEFF 		bl	halSpiExc
 3014              	.LVL409:
 3015              		.loc 1 1354 0
 3016 0030 E8B2     		uxtb	r0, r5
 3017 0032 FFF7FEFF 		bl	halSpiExc
 3018              	.LVL410:
 3019              		.loc 1 1355 0
 3020 0036 200A     		lsrs	r0, r4, #8
 3021 0038 FFF7FEFF 		bl	halSpiExc
ARM GAS  /tmp/ccHp95GJ.s 			page 54


 3022              	.LVL411:
 3023              		.loc 1 1356 0
 3024 003c E0B2     		uxtb	r0, r4
 3025 003e FFF7FEFF 		bl	halSpiExc
 3026              	.LVL412:
 3027              		.loc 1 1357 0
 3028 0042 FFF7FEFF 		bl	spi_sw_end
 3029              	.LVL413:
 3030              		.loc 1 1359 0
 3031 0046 3046     		mov	r0, r6
 3032 0048 BDE8F081 		pop	{r4, r5, r6, r7, r8, pc}
 3033              		.cfi_endproc
 3034              	.LFE315:
 3035              		.size	CC2520_ECBX, .-CC2520_ECBX
 3036              		.section	.text.CC2520_ECBXO,"ax",%progbits
 3037              		.align	2
 3038              		.p2align 4,,15
 3039              		.global	CC2520_ECBXO
 3040              		.thumb
 3041              		.thumb_func
 3042              		.type	CC2520_ECBXO, %function
 3043              	CC2520_ECBXO:
 3044              	.LFB316:
 3045              		.loc 1 1375 0
 3046              		.cfi_startproc
 3047              		@ args = 0, pretend = 0, frame = 0
 3048              		@ frame_needed = 0, uses_anonymous_args = 0
 3049              	.LVL414:
 3050 0000 F8B5     		push	{r3, r4, r5, r6, r7, lr}
 3051              		.cfi_def_cfa_offset 24
 3052              		.cfi_offset 3, -24
 3053              		.cfi_offset 4, -20
 3054              		.cfi_offset 5, -16
 3055              		.cfi_offset 6, -12
 3056              		.cfi_offset 7, -8
 3057              		.cfi_offset 14, -4
 3058              		.loc 1 1375 0
 3059 0002 0546     		mov	r5, r0
 3060 0004 1C46     		mov	r4, r3
 3061 0006 0F46     		mov	r7, r1
 3062 0008 1646     		mov	r6, r2
 3063              		.loc 1 1377 0
 3064 000a FFF7FEFF 		bl	spi_sw_begin
 3065              	.LVL415:
 3066              		.loc 1 1378 0
 3067 000e 45F07600 		orr	r0, r5, #118
 3068 0012 FFF7FEFF 		bl	halSpiExc
 3069              	.LVL416:
 3070 0016 0546     		mov	r5, r0
 3071              	.LVL417:
 3072              		.loc 1 1379 0
 3073 0018 3846     		mov	r0, r7
 3074 001a FFF7FEFF 		bl	halSpiExc
 3075              	.LVL418:
 3076              		.loc 1 1380 0
 3077 001e 200A     		lsrs	r0, r4, #8
 3078 0020 40EA0610 		orr	r0, r0, r6, lsl #4
ARM GAS  /tmp/ccHp95GJ.s 			page 55


 3079 0024 C0B2     		uxtb	r0, r0
 3080 0026 FFF7FEFF 		bl	halSpiExc
 3081              	.LVL419:
 3082              		.loc 1 1381 0
 3083 002a E0B2     		uxtb	r0, r4
 3084 002c FFF7FEFF 		bl	halSpiExc
 3085              	.LVL420:
 3086              		.loc 1 1382 0
 3087 0030 FFF7FEFF 		bl	spi_sw_end
 3088              	.LVL421:
 3089              		.loc 1 1384 0
 3090 0034 2846     		mov	r0, r5
 3091 0036 F8BD     		pop	{r3, r4, r5, r6, r7, pc}
 3092              		.cfi_endproc
 3093              	.LFE316:
 3094              		.size	CC2520_ECBXO, .-CC2520_ECBXO
 3095              		.section	.text.CC2520_INC,"ax",%progbits
 3096              		.align	2
 3097              		.p2align 4,,15
 3098              		.global	CC2520_INC
 3099              		.thumb
 3100              		.thumb_func
 3101              		.type	CC2520_INC, %function
 3102              	CC2520_INC:
 3103              	.LFB317:
 3104              		.loc 1 1400 0
 3105              		.cfi_startproc
 3106              		@ args = 0, pretend = 0, frame = 0
 3107              		@ frame_needed = 0, uses_anonymous_args = 0
 3108              	.LVL422:
 3109 0000 70B5     		push	{r4, r5, r6, lr}
 3110              		.cfi_def_cfa_offset 16
 3111              		.cfi_offset 4, -16
 3112              		.cfi_offset 5, -12
 3113              		.cfi_offset 6, -8
 3114              		.cfi_offset 14, -4
 3115              		.loc 1 1400 0
 3116 0002 0546     		mov	r5, r0
 3117 0004 1446     		mov	r4, r2
 3118 0006 0E46     		mov	r6, r1
 3119              		.loc 1 1402 0
 3120 0008 FFF7FEFF 		bl	spi_sw_begin
 3121              	.LVL423:
 3122              		.loc 1 1403 0
 3123 000c 45F07800 		orr	r0, r5, #120
 3124 0010 FFF7FEFF 		bl	halSpiExc
 3125              	.LVL424:
 3126 0014 0546     		mov	r5, r0
 3127              	.LVL425:
 3128              		.loc 1 1404 0
 3129 0016 200A     		lsrs	r0, r4, #8
 3130 0018 40EA0610 		orr	r0, r0, r6, lsl #4
 3131 001c C0B2     		uxtb	r0, r0
 3132 001e FFF7FEFF 		bl	halSpiExc
 3133              	.LVL426:
 3134              		.loc 1 1405 0
 3135 0022 E0B2     		uxtb	r0, r4
ARM GAS  /tmp/ccHp95GJ.s 			page 56


 3136 0024 FFF7FEFF 		bl	halSpiExc
 3137              	.LVL427:
 3138              		.loc 1 1406 0
 3139 0028 FFF7FEFF 		bl	spi_sw_end
 3140              	.LVL428:
 3141              		.loc 1 1408 0
 3142 002c 2846     		mov	r0, r5
 3143 002e 70BD     		pop	{r4, r5, r6, pc}
 3144              		.cfi_endproc
 3145              	.LFE317:
 3146              		.size	CC2520_INC, .-CC2520_INC
 3147              		.section	.text.CC2520_ABORT,"ax",%progbits
 3148              		.align	2
 3149              		.p2align 4,,15
 3150              		.global	CC2520_ABORT
 3151              		.thumb
 3152              		.thumb_func
 3153              		.type	CC2520_ABORT, %function
 3154              	CC2520_ABORT:
 3155              	.LFB318:
 3156              		.loc 1 1421 0
 3157              		.cfi_startproc
 3158              		@ args = 0, pretend = 0, frame = 0
 3159              		@ frame_needed = 0, uses_anonymous_args = 0
 3160              	.LVL429:
 3161 0000 38B5     		push	{r3, r4, r5, lr}
 3162              		.cfi_def_cfa_offset 16
 3163              		.cfi_offset 3, -16
 3164              		.cfi_offset 4, -12
 3165              		.cfi_offset 5, -8
 3166              		.cfi_offset 14, -4
 3167              		.loc 1 1421 0
 3168 0002 0546     		mov	r5, r0
 3169              		.loc 1 1423 0
 3170 0004 FFF7FEFF 		bl	spi_sw_begin
 3171              	.LVL430:
 3172              		.loc 1 1424 0
 3173 0008 7F20     		movs	r0, #127
 3174 000a FFF7FEFF 		bl	halSpiExc
 3175              	.LVL431:
 3176 000e 0446     		mov	r4, r0
 3177              	.LVL432:
 3178              		.loc 1 1425 0
 3179 0010 2846     		mov	r0, r5
 3180 0012 FFF7FEFF 		bl	halSpiExc
 3181              	.LVL433:
 3182              		.loc 1 1426 0
 3183 0016 FFF7FEFF 		bl	spi_sw_end
 3184              	.LVL434:
 3185              		.loc 1 1428 0
 3186 001a 2046     		mov	r0, r4
 3187 001c 38BD     		pop	{r3, r4, r5, pc}
 3188              		.cfi_endproc
 3189              	.LFE318:
 3190              		.size	CC2520_ABORT, .-CC2520_ABORT
 3191 001e 00BF     		.section	.text.CC2520_REGRD,"ax",%progbits
 3192              		.align	2
ARM GAS  /tmp/ccHp95GJ.s 			page 57


 3193              		.p2align 4,,15
 3194              		.global	CC2520_REGRD
 3195              		.thumb
 3196              		.thumb_func
 3197              		.type	CC2520_REGRD, %function
 3198              	CC2520_REGRD:
 3199              	.LFB319:
 3200              		.loc 1 1443 0
 3201              		.cfi_startproc
 3202              		@ args = 0, pretend = 0, frame = 0
 3203              		@ frame_needed = 0, uses_anonymous_args = 0
 3204              	.LVL435:
 3205 0000 70B5     		push	{r4, r5, r6, lr}
 3206              		.cfi_def_cfa_offset 16
 3207              		.cfi_offset 4, -16
 3208              		.cfi_offset 5, -12
 3209              		.cfi_offset 6, -8
 3210              		.cfi_offset 14, -4
 3211              		.loc 1 1443 0
 3212 0002 0446     		mov	r4, r0
 3213 0004 0D46     		mov	r5, r1
 3214 0006 1646     		mov	r6, r2
 3215              		.loc 1 1445 0
 3216 0008 FFF7FEFF 		bl	spi_sw_begin
 3217              	.LVL436:
 3218              		.loc 1 1446 0
 3219 000c 44F08000 		orr	r0, r4, #128
 3220 0010 FFF7FEFF 		bl	halSpiExc
 3221              	.LVL437:
 3222              		.loc 1 1447 0
 3223 0014 2A46     		mov	r2, r5
 3224              		.loc 1 1446 0
 3225 0016 0446     		mov	r4, r0
 3226              	.LVL438:
 3227              		.loc 1 1447 0
 3228 0018 0021     		movs	r1, #0
 3229 001a 3046     		mov	r0, r6
 3230 001c FFF7FEFF 		bl	spi_sw_transfer
 3231              	.LVL439:
 3232              		.loc 1 1448 0
 3233 0020 FFF7FEFF 		bl	spi_sw_end
 3234              	.LVL440:
 3235              		.loc 1 1450 0
 3236 0024 2046     		mov	r0, r4
 3237 0026 70BD     		pop	{r4, r5, r6, pc}
 3238              		.cfi_endproc
 3239              	.LFE319:
 3240              		.size	CC2520_REGRD, .-CC2520_REGRD
 3241              		.section	.text.CC2520_REGRD8,"ax",%progbits
 3242              		.align	2
 3243              		.p2align 4,,15
 3244              		.global	CC2520_REGRD8
 3245              		.thumb
 3246              		.thumb_func
 3247              		.type	CC2520_REGRD8, %function
 3248              	CC2520_REGRD8:
 3249              	.LFB320:
ARM GAS  /tmp/ccHp95GJ.s 			page 58


 3250              		.loc 1 1463 0
 3251              		.cfi_startproc
 3252              		@ args = 0, pretend = 0, frame = 0
 3253              		@ frame_needed = 0, uses_anonymous_args = 0
 3254              	.LVL441:
 3255 0000 10B5     		push	{r4, lr}
 3256              		.cfi_def_cfa_offset 8
 3257              		.cfi_offset 4, -8
 3258              		.cfi_offset 14, -4
 3259              		.loc 1 1463 0
 3260 0002 0446     		mov	r4, r0
 3261              		.loc 1 1465 0
 3262 0004 FFF7FEFF 		bl	spi_sw_begin
 3263              	.LVL442:
 3264              		.loc 1 1466 0
 3265 0008 44F08000 		orr	r0, r4, #128
 3266 000c FFF7FEFF 		bl	halSpiExc
 3267              	.LVL443:
 3268              		.loc 1 1467 0
 3269 0010 0020     		movs	r0, #0
 3270 0012 FFF7FEFF 		bl	halSpiExc
 3271              	.LVL444:
 3272 0016 0446     		mov	r4, r0
 3273              	.LVL445:
 3274              		.loc 1 1468 0
 3275 0018 FFF7FEFF 		bl	spi_sw_end
 3276              	.LVL446:
 3277              		.loc 1 1470 0
 3278 001c 2046     		mov	r0, r4
 3279 001e 10BD     		pop	{r4, pc}
 3280              		.cfi_endproc
 3281              	.LFE320:
 3282              		.size	CC2520_REGRD8, .-CC2520_REGRD8
 3283              		.section	.text.CC2520_REGRD16,"ax",%progbits
 3284              		.align	2
 3285              		.p2align 4,,15
 3286              		.global	CC2520_REGRD16
 3287              		.thumb
 3288              		.thumb_func
 3289              		.type	CC2520_REGRD16, %function
 3290              	CC2520_REGRD16:
 3291              	.LFB321:
 3292              		.loc 1 1483 0
 3293              		.cfi_startproc
 3294              		@ args = 0, pretend = 0, frame = 0
 3295              		@ frame_needed = 0, uses_anonymous_args = 0
 3296              	.LVL447:
 3297 0000 10B5     		push	{r4, lr}
 3298              		.cfi_def_cfa_offset 8
 3299              		.cfi_offset 4, -8
 3300              		.cfi_offset 14, -4
 3301              		.loc 1 1483 0
 3302 0002 0446     		mov	r4, r0
 3303              		.loc 1 1485 0
 3304 0004 FFF7FEFF 		bl	spi_sw_begin
 3305              	.LVL448:
 3306              		.loc 1 1486 0
ARM GAS  /tmp/ccHp95GJ.s 			page 59


 3307 0008 44F08000 		orr	r0, r4, #128
 3308 000c FFF7FEFF 		bl	halSpiExc
 3309              	.LVL449:
 3310              		.loc 1 1487 0
 3311 0010 0020     		movs	r0, #0
 3312 0012 FFF7FEFF 		bl	halSpiExc
 3313              	.LVL450:
 3314 0016 4FF00004 		mov	r4, #0	@ movhi
 3315              	.LVL451:
 3316 001a 60F30704 		bfi	r4, r0, #0, #8
 3317              	.LVL452:
 3318              		.loc 1 1488 0
 3319 001e 0020     		movs	r0, #0
 3320 0020 FFF7FEFF 		bl	halSpiExc
 3321              	.LVL453:
 3322 0024 60F30F24 		bfi	r4, r0, #8, #8
 3323              		.loc 1 1489 0
 3324 0028 FFF7FEFF 		bl	spi_sw_end
 3325              	.LVL454:
 3326              		.loc 1 1491 0
 3327 002c A0B2     		uxth	r0, r4
 3328 002e 10BD     		pop	{r4, pc}
 3329              		.cfi_endproc
 3330              	.LFE321:
 3331              		.size	CC2520_REGRD16, .-CC2520_REGRD16
 3332              		.section	.text.CC2520_REGRD24,"ax",%progbits
 3333              		.align	2
 3334              		.p2align 4,,15
 3335              		.global	CC2520_REGRD24
 3336              		.thumb
 3337              		.thumb_func
 3338              		.type	CC2520_REGRD24, %function
 3339              	CC2520_REGRD24:
 3340              	.LFB322:
 3341              		.loc 1 1504 0
 3342              		.cfi_startproc
 3343              		@ args = 0, pretend = 0, frame = 0
 3344              		@ frame_needed = 0, uses_anonymous_args = 0
 3345              	.LVL455:
 3346 0000 10B5     		push	{r4, lr}
 3347              		.cfi_def_cfa_offset 8
 3348              		.cfi_offset 4, -8
 3349              		.cfi_offset 14, -4
 3350              		.loc 1 1504 0
 3351 0002 0446     		mov	r4, r0
 3352              		.loc 1 1506 0
 3353 0004 FFF7FEFF 		bl	spi_sw_begin
 3354              	.LVL456:
 3355              		.loc 1 1507 0
 3356 0008 44F08000 		orr	r0, r4, #128
 3357 000c FFF7FEFF 		bl	halSpiExc
 3358              	.LVL457:
 3359              		.loc 1 1508 0
 3360 0010 0020     		movs	r0, #0
 3361 0012 FFF7FEFF 		bl	halSpiExc
 3362              	.LVL458:
 3363 0016 0024     		movs	r4, #0
ARM GAS  /tmp/ccHp95GJ.s 			page 60


 3364              	.LVL459:
 3365 0018 60F30704 		bfi	r4, r0, #0, #8
 3366              	.LVL460:
 3367              		.loc 1 1509 0
 3368 001c 0020     		movs	r0, #0
 3369 001e FFF7FEFF 		bl	halSpiExc
 3370              	.LVL461:
 3371 0022 60F30F24 		bfi	r4, r0, #8, #8
 3372              		.loc 1 1510 0
 3373 0026 0020     		movs	r0, #0
 3374 0028 FFF7FEFF 		bl	halSpiExc
 3375              	.LVL462:
 3376 002c 60F31744 		bfi	r4, r0, #16, #8
 3377              		.loc 1 1511 0
 3378 0030 6FF31F64 		bfc	r4, #24, #8
 3379              		.loc 1 1512 0
 3380 0034 FFF7FEFF 		bl	spi_sw_end
 3381              	.LVL463:
 3382              		.loc 1 1514 0
 3383 0038 2046     		mov	r0, r4
 3384 003a 10BD     		pop	{r4, pc}
 3385              		.cfi_endproc
 3386              	.LFE322:
 3387              		.size	CC2520_REGRD24, .-CC2520_REGRD24
 3388              		.section	.text.CC2520_REGWR,"ax",%progbits
 3389              		.align	2
 3390              		.p2align 4,,15
 3391              		.global	CC2520_REGWR
 3392              		.thumb
 3393              		.thumb_func
 3394              		.type	CC2520_REGWR, %function
 3395              	CC2520_REGWR:
 3396              	.LFB323:
 3397              		.loc 1 1529 0
 3398              		.cfi_startproc
 3399              		@ args = 0, pretend = 0, frame = 0
 3400              		@ frame_needed = 0, uses_anonymous_args = 0
 3401              	.LVL464:
 3402 0000 70B5     		push	{r4, r5, r6, lr}
 3403              		.cfi_def_cfa_offset 16
 3404              		.cfi_offset 4, -16
 3405              		.cfi_offset 5, -12
 3406              		.cfi_offset 6, -8
 3407              		.cfi_offset 14, -4
 3408              		.loc 1 1529 0
 3409 0002 0446     		mov	r4, r0
 3410 0004 0D46     		mov	r5, r1
 3411 0006 1646     		mov	r6, r2
 3412              		.loc 1 1531 0
 3413 0008 FFF7FEFF 		bl	spi_sw_begin
 3414              	.LVL465:
 3415              		.loc 1 1532 0
 3416 000c 44F0C000 		orr	r0, r4, #192
 3417 0010 FFF7FEFF 		bl	halSpiExc
 3418              	.LVL466:
 3419              		.loc 1 1533 0
 3420 0014 3146     		mov	r1, r6
ARM GAS  /tmp/ccHp95GJ.s 			page 61


 3421              		.loc 1 1532 0
 3422 0016 0446     		mov	r4, r0
 3423              	.LVL467:
 3424              		.loc 1 1533 0
 3425 0018 2A46     		mov	r2, r5
 3426 001a 0020     		movs	r0, #0
 3427 001c FFF7FEFF 		bl	spi_sw_transfer
 3428              	.LVL468:
 3429              		.loc 1 1534 0
 3430 0020 FFF7FEFF 		bl	spi_sw_end
 3431              	.LVL469:
 3432              		.loc 1 1536 0
 3433 0024 2046     		mov	r0, r4
 3434 0026 70BD     		pop	{r4, r5, r6, pc}
 3435              		.cfi_endproc
 3436              	.LFE323:
 3437              		.size	CC2520_REGWR, .-CC2520_REGWR
 3438              		.section	.text.CC2520_REGWR8,"ax",%progbits
 3439              		.align	2
 3440              		.p2align 4,,15
 3441              		.global	CC2520_REGWR8
 3442              		.thumb
 3443              		.thumb_func
 3444              		.type	CC2520_REGWR8, %function
 3445              	CC2520_REGWR8:
 3446              	.LFB324:
 3447              		.loc 1 1550 0
 3448              		.cfi_startproc
 3449              		@ args = 0, pretend = 0, frame = 0
 3450              		@ frame_needed = 0, uses_anonymous_args = 0
 3451              	.LVL470:
 3452 0000 38B5     		push	{r3, r4, r5, lr}
 3453              		.cfi_def_cfa_offset 16
 3454              		.cfi_offset 3, -16
 3455              		.cfi_offset 4, -12
 3456              		.cfi_offset 5, -8
 3457              		.cfi_offset 14, -4
 3458              		.loc 1 1550 0
 3459 0002 0546     		mov	r5, r0
 3460 0004 0C46     		mov	r4, r1
 3461              		.loc 1 1551 0
 3462 0006 FFF7FEFF 		bl	spi_sw_begin
 3463              	.LVL471:
 3464              		.loc 1 1552 0
 3465 000a 45F0C000 		orr	r0, r5, #192
 3466 000e FFF7FEFF 		bl	halSpiExc
 3467              	.LVL472:
 3468              		.loc 1 1553 0
 3469 0012 2046     		mov	r0, r4
 3470 0014 FFF7FEFF 		bl	halSpiExc
 3471              	.LVL473:
 3472              		.loc 1 1556 0
 3473 0018 BDE83840 		pop	{r3, r4, r5, lr}
 3474              		.cfi_restore 14
 3475              		.cfi_restore 5
 3476              		.cfi_restore 4
 3477              		.cfi_restore 3
ARM GAS  /tmp/ccHp95GJ.s 			page 62


 3478              		.cfi_def_cfa_offset 0
 3479              		.loc 1 1554 0
 3480 001c FFF7FEBF 		b	spi_sw_end
 3481              	.LVL474:
 3482              		.cfi_endproc
 3483              	.LFE324:
 3484              		.size	CC2520_REGWR8, .-CC2520_REGWR8
 3485              		.section	.text.CC2520_REGWR16,"ax",%progbits
 3486              		.align	2
 3487              		.p2align 4,,15
 3488              		.global	CC2520_REGWR16
 3489              		.thumb
 3490              		.thumb_func
 3491              		.type	CC2520_REGWR16, %function
 3492              	CC2520_REGWR16:
 3493              	.LFB325:
 3494              		.loc 1 1570 0
 3495              		.cfi_startproc
 3496              		@ args = 0, pretend = 0, frame = 0
 3497              		@ frame_needed = 0, uses_anonymous_args = 0
 3498              	.LVL475:
 3499 0000 38B5     		push	{r3, r4, r5, lr}
 3500              		.cfi_def_cfa_offset 16
 3501              		.cfi_offset 3, -16
 3502              		.cfi_offset 4, -12
 3503              		.cfi_offset 5, -8
 3504              		.cfi_offset 14, -4
 3505              		.loc 1 1570 0
 3506 0002 0546     		mov	r5, r0
 3507 0004 0C46     		mov	r4, r1
 3508              		.loc 1 1571 0
 3509 0006 FFF7FEFF 		bl	spi_sw_begin
 3510              	.LVL476:
 3511              		.loc 1 1572 0
 3512 000a 45F0C000 		orr	r0, r5, #192
 3513 000e FFF7FEFF 		bl	halSpiExc
 3514              	.LVL477:
 3515              		.loc 1 1573 0
 3516 0012 E0B2     		uxtb	r0, r4
 3517 0014 FFF7FEFF 		bl	halSpiExc
 3518              	.LVL478:
 3519              		.loc 1 1574 0
 3520 0018 200A     		lsrs	r0, r4, #8
 3521 001a FFF7FEFF 		bl	halSpiExc
 3522              	.LVL479:
 3523              		.loc 1 1576 0
 3524 001e BDE83840 		pop	{r3, r4, r5, lr}
 3525              		.cfi_restore 14
 3526              		.cfi_restore 5
 3527              		.cfi_restore 4
 3528              		.cfi_restore 3
 3529              		.cfi_def_cfa_offset 0
 3530              		.loc 1 1575 0
 3531 0022 FFF7FEBF 		b	spi_sw_end
 3532              	.LVL480:
 3533              		.cfi_endproc
 3534              	.LFE325:
ARM GAS  /tmp/ccHp95GJ.s 			page 63


 3535              		.size	CC2520_REGWR16, .-CC2520_REGWR16
 3536 0026 00BF     		.section	.text.CC2520_REGWR24,"ax",%progbits
 3537              		.align	2
 3538              		.p2align 4,,15
 3539              		.global	CC2520_REGWR24
 3540              		.thumb
 3541              		.thumb_func
 3542              		.type	CC2520_REGWR24, %function
 3543              	CC2520_REGWR24:
 3544              	.LFB326:
 3545              		.loc 1 1590 0
 3546              		.cfi_startproc
 3547              		@ args = 0, pretend = 0, frame = 0
 3548              		@ frame_needed = 0, uses_anonymous_args = 0
 3549              	.LVL481:
 3550 0000 38B5     		push	{r3, r4, r5, lr}
 3551              		.cfi_def_cfa_offset 16
 3552              		.cfi_offset 3, -16
 3553              		.cfi_offset 4, -12
 3554              		.cfi_offset 5, -8
 3555              		.cfi_offset 14, -4
 3556              		.loc 1 1590 0
 3557 0002 0546     		mov	r5, r0
 3558 0004 0C46     		mov	r4, r1
 3559              		.loc 1 1591 0
 3560 0006 FFF7FEFF 		bl	spi_sw_begin
 3561              	.LVL482:
 3562              		.loc 1 1592 0
 3563 000a 45F0C000 		orr	r0, r5, #192
 3564 000e FFF7FEFF 		bl	halSpiExc
 3565              	.LVL483:
 3566              		.loc 1 1593 0
 3567 0012 E0B2     		uxtb	r0, r4
 3568 0014 FFF7FEFF 		bl	halSpiExc
 3569              	.LVL484:
 3570              		.loc 1 1594 0
 3571 0018 C4F30720 		ubfx	r0, r4, #8, #8
 3572 001c FFF7FEFF 		bl	halSpiExc
 3573              	.LVL485:
 3574              		.loc 1 1595 0
 3575 0020 C4F30740 		ubfx	r0, r4, #16, #8
 3576 0024 FFF7FEFF 		bl	halSpiExc
 3577              	.LVL486:
 3578              		.loc 1 1597 0
 3579 0028 BDE83840 		pop	{r3, r4, r5, lr}
 3580              		.cfi_restore 14
 3581              		.cfi_restore 5
 3582              		.cfi_restore 4
 3583              		.cfi_restore 3
 3584              		.cfi_def_cfa_offset 0
 3585              	.LVL487:
 3586              		.loc 1 1596 0
 3587 002c FFF7FEBF 		b	spi_sw_end
 3588              	.LVL488:
 3589              		.cfi_endproc
 3590              	.LFE326:
 3591              		.size	CC2520_REGWR24, .-CC2520_REGWR24
ARM GAS  /tmp/ccHp95GJ.s 			page 64


 3592              		.text
 3593              	.Letext0:
 3594              		.file 2 "/usr/arm-none-eabi/include/machine/_default_types.h"
 3595              		.file 3 "/usr/arm-none-eabi/include/sys/_stdint.h"
 3596              		.file 4 "ChibiOS_3.0.2/os/rt/ports/ARMCMx/compilers/GCC/chtypes.h"
 3597              		.file 5 "ChibiOS_3.0.2/os/rt/include/chsystypes.h"
 3598              		.file 6 "ChibiOS_3.0.2/os/rt/include/chschd.h"
 3599              		.file 7 "ChibiOS_3.0.2/os/rt/ports/ARMCMx/chcore.h"
 3600              		.file 8 "ChibiOS_3.0.2/os/rt/ports/ARMCMx/chcore_v7m.h"
 3601              		.file 9 "ChibiOS_3.0.2/os/rt/include/chtm.h"
 3602              		.file 10 "ChibiOS_3.0.2/os/rt/include/chsem.h"
 3603              		.file 11 "ChibiOS_3.0.2/os/rt/include/chmtx.h"
 3604              		.file 12 "cc2520/driver/hal_types.h"
 3605              		.file 13 "cc2520/driver/stm32_hw.h"
 3606              		.file 14 "cc2520/driver/spi_sw.h"
 3607              		.file 15 "ChibiOS_3.0.2/os/ext/CMSIS/include/core_cm4.h"