ARM GAS  /tmp/ccOJ9AF7.s 			page 1


   1              		.syntax unified
   2              		.cpu cortex-m4
   3              		.eabi_attribute 27, 1
   4              		.eabi_attribute 28, 1
   5              		.fpu fpv4-sp-d16
   6              		.eabi_attribute 20, 1
   7              		.eabi_attribute 21, 1
   8              		.eabi_attribute 23, 3
   9              		.eabi_attribute 24, 1
  10              		.eabi_attribute 25, 1
  11              		.eabi_attribute 26, 1
  12              		.eabi_attribute 30, 2
  13              		.eabi_attribute 34, 1
  14              		.eabi_attribute 18, 4
  15              		.thumb
  16              		.file	"hal_rf_security.c"
  17              		.text
  18              	.Ltext0:
  19              		.cfi_sections	.debug_frame
  20              		.section	.text.halRfSecurityInit,"ax",%progbits
  21              		.align	2
  22              		.p2align 4,,15
  23              		.global	halRfSecurityInit
  24              		.thumb
  25              		.thumb_func
  26              		.type	halRfSecurityInit, %function
  27              	halRfSecurityInit:
  28              	.LFB256:
  29              		.file 1 "cc2520/driver/hal_rf_security.c"
  30              		.loc 1 43 0
  31              		.cfi_startproc
  32              		@ args = 0, pretend = 0, frame = 0
  33              		@ frame_needed = 0, uses_anonymous_args = 0
  34              	.LVL0:
  35 0000 0346     		mov	r3, r0
  36 0002 70B5     		push	{r4, r5, r6, lr}
  37              		.cfi_def_cfa_offset 16
  38              		.cfi_offset 4, -16
  39              		.cfi_offset 5, -12
  40              		.cfi_offset 6, -8
  41              		.cfi_offset 14, -4
  42              		.loc 1 45 0
  43 0004 4FF44070 		mov	r0, #768
  44              	.LVL1:
  45              		.loc 1 43 0
  46 0008 0D46     		mov	r5, r1
  47 000a 1446     		mov	r4, r2
  48              		.loc 1 45 0
  49 000c 1021     		movs	r1, #16
  50              	.LVL2:
  51 000e 1A46     		mov	r2, r3
  52              	.LVL3:
  53 0010 FFF7FEFF 		bl	CC2520_MEMWR
  54              	.LVL4:
  55              		.loc 1 48 0
  56 0014 2A46     		mov	r2, r5
  57 0016 1021     		movs	r1, #16
ARM GAS  /tmp/ccOJ9AF7.s 			page 2


  58 0018 4FF44470 		mov	r0, #784
  59 001c FFF7FEFF 		bl	CC2520_MEMWR
  60              	.LVL5:
  61              		.loc 1 51 0
  62 0020 2246     		mov	r2, r4
  63 0022 1021     		movs	r1, #16
  64 0024 4FF44870 		mov	r0, #800
  65 0028 FFF7FEFF 		bl	CC2520_MEMWR
  66              	.LVL6:
  67              		.loc 1 54 0
  68 002c 4FF44072 		mov	r2, #768
  69 0030 1346     		mov	r3, r2
  70 0032 1021     		movs	r1, #16
  71 0034 0120     		movs	r0, #1
  72 0036 FFF7FEFF 		bl	CC2520_MEMCPR
  73              	.LVL7:
  74              		.loc 1 57 0
  75 003a 4FF44472 		mov	r2, #784
  76 003e 1346     		mov	r3, r2
  77 0040 1021     		movs	r1, #16
  78 0042 0120     		movs	r0, #1
  79 0044 FFF7FEFF 		bl	CC2520_MEMCPR
  80              	.LVL8:
  81              		.loc 1 58 0
  82 0048 4FF44872 		mov	r2, #800
  83 004c 1346     		mov	r3, r2
  84 004e 0120     		movs	r0, #1
  85 0050 1021     		movs	r1, #16
  86              		.loc 1 59 0
  87 0052 BDE87040 		pop	{r4, r5, r6, lr}
  88              		.cfi_restore 14
  89              		.cfi_restore 6
  90              		.cfi_restore 5
  91              		.cfi_restore 4
  92              		.cfi_def_cfa_offset 0
  93              	.LVL9:
  94              		.loc 1 58 0
  95 0056 FFF7FEBF 		b	CC2520_MEMCPR
  96              	.LVL10:
  97              		.cfi_endproc
  98              	.LFE256:
  99              		.size	halRfSecurityInit, .-halRfSecurityInit
 100 005a 00BF     		.section	.text.halRfReadRxBufSecure,"ax",%progbits
 101              		.align	2
 102              		.p2align 4,,15
 103              		.global	halRfReadRxBufSecure
 104              		.thumb
 105              		.thumb_func
 106              		.type	halRfReadRxBufSecure, %function
 107              	halRfReadRxBufSecure:
 108              	.LFB257:
 109              		.loc 1 79 0
 110              		.cfi_startproc
 111              		@ args = 4, pretend = 0, frame = 0
 112              		@ frame_needed = 0, uses_anonymous_args = 0
 113              	.LVL11:
 114 0000 2DE9F043 		push	{r4, r5, r6, r7, r8, r9, lr}
ARM GAS  /tmp/ccOJ9AF7.s 			page 3


 115              		.cfi_def_cfa_offset 28
 116              		.cfi_offset 4, -28
 117              		.cfi_offset 5, -24
 118              		.cfi_offset 6, -20
 119              		.cfi_offset 7, -16
 120              		.cfi_offset 8, -12
 121              		.cfi_offset 9, -8
 122              		.cfi_offset 14, -4
 123 0004 85B0     		sub	sp, sp, #20
 124              		.cfi_def_cfa_offset 48
 125              		.loc 1 79 0
 126 0006 1C46     		mov	r4, r3
 127 0008 0D46     		mov	r5, r1
 128 000a 0746     		mov	r7, r0
 129 000c 9046     		mov	r8, r2
 130              		.loc 1 82 0
 131 000e 0023     		movs	r3, #0
 132              	.LVL12:
 133 0010 0A46     		mov	r2, r1
 134              	.LVL13:
 135 0012 0120     		movs	r0, #1
 136              	.LVL14:
 137 0014 4FF40071 		mov	r1, #512
 138              	.LVL15:
 139              		.loc 1 79 0
 140 0018 9DF83090 		ldrb	r9, [sp, #48]	@ zero_extendqisi2
 141              		.loc 1 82 0
 142 001c FFF7FEFF 		bl	CC2520_RXBUFMOV
 143              	.LVL16:
 144              		.loc 1 83 0
 145 0020 FFF7FEFF 		bl	WAIT_DPU_DONE_H
 146              	.LVL17:
 147              		.loc 1 88 0
 148 0024 0421     		movs	r1, #4
 149 0026 40F20A22 		movw	r2, #522
 150 002a 40F21333 		movw	r3, #787
 151 002e 0120     		movs	r0, #1
 152 0030 FFF7FEFF 		bl	CC2520_MEMCP
 153              	.LVL18:
 154              		.loc 1 96 0
 155 0034 4FF40076 		mov	r6, #512
 156              		.loc 1 89 0
 157 0038 FFF7FEFF 		bl	WAIT_DPU_DONE_H
 158              	.LVL19:
 159              		.loc 1 92 0
 160 003c 0221     		movs	r1, #2
 161 003e 40F20722 		movw	r2, #519
 162 0042 40F21733 		movw	r3, #791
 163 0046 0120     		movs	r0, #1
 164 0048 FFF7FEFF 		bl	CC2520_MEMCP
 165              	.LVL20:
 166              		.loc 1 93 0
 167 004c FFF7FEFF 		bl	WAIT_DPU_DONE_H
 168              	.LVL21:
 169              		.loc 1 96 0
 170 0050 A319     		adds	r3, r4, r6
 171 0052 4246     		mov	r2, r8
ARM GAS  /tmp/ccOJ9AF7.s 			page 4


 172 0054 3021     		movs	r1, #48
 173 0056 0294     		str	r4, [sp, #8]
 174 0058 0193     		str	r3, [sp, #4]
 175 005a CDF80C90 		str	r9, [sp, #12]
 176 005e 3123     		movs	r3, #49
 177 0060 0096     		str	r6, [sp]
 178 0062 0120     		movs	r0, #1
 179 0064 FFF7FEFF 		bl	CC2520_UCCM
 180              	.LVL22:
 181              		.loc 1 97 0
 182 0068 FFF7FEFF 		bl	WAIT_DPU_DONE_H
 183              	.LVL23:
 184              		.loc 1 100 0
 185 006c 2C20     		movs	r0, #44
 186 006e FFF7FEFF 		bl	CC2520_REGRD8
 187              	.LVL24:
 188              		.loc 1 103 0
 189 0072 2946     		mov	r1, r5
 190              		.loc 1 100 0
 191 0074 0446     		mov	r4, r0
 192              	.LVL25:
 193              		.loc 1 103 0
 194 0076 3A46     		mov	r2, r7
 195 0078 3046     		mov	r0, r6
 196 007a FFF7FEFF 		bl	CC2520_MEMRD
 197              	.LVL26:
 198              		.loc 1 105 0
 199 007e 84F00800 		eor	r0, r4, #8
 200              		.loc 1 111 0
 201 0082 C0F3C000 		ubfx	r0, r0, #3, #1
 202 0086 05B0     		add	sp, sp, #20
 203              		.cfi_def_cfa_offset 28
 204              		@ sp needed
 205 0088 BDE8F083 		pop	{r4, r5, r6, r7, r8, r9, pc}
 206              		.cfi_endproc
 207              	.LFE257:
 208              		.size	halRfReadRxBufSecure, .-halRfReadRxBufSecure
 209              		.section	.text.halRfWriteTxBufSecure,"ax",%progbits
 210              		.align	2
 211              		.p2align 4,,15
 212              		.global	halRfWriteTxBufSecure
 213              		.thumb
 214              		.thumb_func
 215              		.type	halRfWriteTxBufSecure, %function
 216              	halRfWriteTxBufSecure:
 217              	.LFB258:
 218              		.loc 1 129 0
 219              		.cfi_startproc
 220              		@ args = 4, pretend = 0, frame = 0
 221              		@ frame_needed = 0, uses_anonymous_args = 0
 222              	.LVL27:
 223 0000 2DE9F043 		push	{r4, r5, r6, r7, r8, r9, lr}
 224              		.cfi_def_cfa_offset 28
 225              		.cfi_offset 4, -28
 226              		.cfi_offset 5, -24
 227              		.cfi_offset 6, -20
 228              		.cfi_offset 7, -16
ARM GAS  /tmp/ccOJ9AF7.s 			page 5


 229              		.cfi_offset 8, -12
 230              		.cfi_offset 9, -8
 231              		.cfi_offset 14, -4
 232 0004 85B0     		sub	sp, sp, #20
 233              		.cfi_def_cfa_offset 48
 234              		.loc 1 129 0
 235 0006 0C46     		mov	r4, r1
 236 0008 9DF83050 		ldrb	r5, [sp, #48]	@ zero_extendqisi2
 237 000c 9046     		mov	r8, r2
 238 000e 9946     		mov	r9, r3
 239              		.loc 1 135 0
 240 0010 1DBB     		cbnz	r5, .L10
 241              		.loc 1 139 0
 242 0012 2E46     		mov	r6, r5
 243              	.LVL28:
 244              	.L6:
 245              		.loc 1 143 0
 246 0014 0246     		mov	r2, r0
 247 0016 2146     		mov	r1, r4
 248              	.LVL29:
 249 0018 4FF42070 		mov	r0, #640
 250              	.LVL30:
 251 001c FFF7FEFF 		bl	CC2520_MEMWR
 252              	.LVL31:
 253              		.loc 1 147 0
 254 0020 0027     		movs	r7, #0
 255 0022 40F28121 		movw	r1, #641
 256 0026 4246     		mov	r2, r8
 257 0028 8DE88200 		stmia	sp, {r1, r7}
 258 002c 3223     		movs	r3, #50
 259 002e 3021     		movs	r1, #48
 260 0030 CDF80890 		str	r9, [sp, #8]
 261 0034 0395     		str	r5, [sp, #12]
 262 0036 0120     		movs	r0, #1
 263 0038 FFF7FEFF 		bl	CC2520_CCM
 264              	.LVL32:
 265              		.loc 1 148 0
 266 003c FFF7FEFF 		bl	WAIT_DPU_DONE_H
 267              	.LVL33:
 268              		.loc 1 151 0
 269 0040 3219     		adds	r2, r6, r4
 270 0042 3B46     		mov	r3, r7
 271 0044 D2B2     		uxtb	r2, r2
 272 0046 4FF42071 		mov	r1, #640
 273 004a 0120     		movs	r0, #1
 274 004c FFF7FEFF 		bl	CC2520_TXBUFCP
 275              	.LVL34:
 276              		.loc 1 154 0
 277 0050 05B0     		add	sp, sp, #20
 278              		.cfi_remember_state
 279              		.cfi_def_cfa_offset 28
 280              		@ sp needed
 281 0052 BDE8F043 		pop	{r4, r5, r6, r7, r8, r9, lr}
 282              		.cfi_restore 14
 283              		.cfi_restore 9
 284              		.cfi_restore 8
 285              		.cfi_restore 7
ARM GAS  /tmp/ccOJ9AF7.s 			page 6


 286              		.cfi_restore 6
 287              		.cfi_restore 5
 288              		.cfi_restore 4
 289              		.cfi_def_cfa_offset 0
 290              	.LVL35:
 291              		.loc 1 152 0
 292 0056 FFF7FEBF 		b	WAIT_DPU_DONE_H
 293              	.LVL36:
 294              	.L10:
 295              		.cfi_restore_state
 296              		.loc 1 136 0
 297 005a 0222     		movs	r2, #2
 298              	.LVL37:
 299 005c AA40     		lsls	r2, r2, r5
 300 005e D6B2     		uxtb	r6, r2
 301              	.LVL38:
 302 0060 D8E7     		b	.L6
 303              		.cfi_endproc
 304              	.LFE258:
 305              		.size	halRfWriteTxBufSecure, .-halRfWriteTxBufSecure
 306 0062 00BF     		.section	.text.halRfIncNonceTx,"ax",%progbits
 307              		.align	2
 308              		.p2align 4,,15
 309              		.global	halRfIncNonceTx
 310              		.thumb
 311              		.thumb_func
 312              		.type	halRfIncNonceTx, %function
 313              	halRfIncNonceTx:
 314              	.LFB259:
 315              		.loc 1 167 0
 316              		.cfi_startproc
 317              		@ args = 0, pretend = 0, frame = 0
 318              		@ frame_needed = 0, uses_anonymous_args = 0
 319 0000 08B5     		push	{r3, lr}
 320              		.cfi_def_cfa_offset 8
 321              		.cfi_offset 3, -8
 322              		.cfi_offset 14, -4
 323              		.loc 1 172 0
 324 0002 0120     		movs	r0, #1
 325 0004 0221     		movs	r1, #2
 326 0006 40F22332 		movw	r2, #803
 327 000a FFF7FEFF 		bl	CC2520_INC
 328              	.LVL39:
 329              		.loc 1 174 0
 330 000e BDE80840 		pop	{r3, lr}
 331              		.cfi_restore 14
 332              		.cfi_restore 3
 333              		.cfi_def_cfa_offset 0
 334              		.loc 1 173 0
 335 0012 FFF7FEBF 		b	WAIT_DPU_DONE_H
 336              	.LVL40:
 337              		.cfi_endproc
 338              	.LFE259:
 339              		.size	halRfIncNonceTx, .-halRfIncNonceTx
 340 0016 00BF     		.text
 341              	.Letext0:
 342              		.file 2 "/usr/arm-none-eabi/include/machine/_default_types.h"
ARM GAS  /tmp/ccOJ9AF7.s 			page 7


 343              		.file 3 "/usr/arm-none-eabi/include/sys/_stdint.h"
 344              		.file 4 "ChibiOS_3.0.2/os/rt/ports/ARMCMx/compilers/GCC/chtypes.h"
 345              		.file 5 "ChibiOS_3.0.2/os/rt/include/chsystypes.h"
 346              		.file 6 "ChibiOS_3.0.2/os/rt/include/chschd.h"
 347              		.file 7 "ChibiOS_3.0.2/os/rt/ports/ARMCMx/chcore.h"
 348              		.file 8 "ChibiOS_3.0.2/os/rt/ports/ARMCMx/chcore_v7m.h"
 349              		.file 9 "ChibiOS_3.0.2/os/rt/include/chtm.h"
 350              		.file 10 "ChibiOS_3.0.2/os/rt/include/chsem.h"
 351              		.file 11 "ChibiOS_3.0.2/os/rt/include/chmtx.h"
 352              		.file 12 "cc2520/driver/hal_types.h"
 353              		.file 13 "cc2520/driver/hal_cc2520.h"
 354              		.file 14 "ChibiOS_3.0.2/os/ext/CMSIS/include/core_cm4.h"
 355              		.section	.debug_info,"",%progbits
 356              	.Ldebug_info0:
 357 0000 990C0000 		.4byte	0xc99
 358 0004 0400     		.2byte	0x4
 359 0006 00000000 		.4byte	.Ldebug_abbrev0
 360 000a 04       		.byte	0x4
 361 000b 01       		.uleb128 0x1
 362 000c AC040000 		.4byte	.LASF128
 363 0010 01       		.byte	0x1
 364 0011 E5010000 		.4byte	.LASF129
 365 0015 86030000 		.4byte	.LASF130
 366 0019 00000000 		.4byte	.Ldebug_ranges0+0
 367 001d 00000000 		.4byte	0
 368 0021 00000000 		.4byte	.Ldebug_line0
 369 0025 02       		.uleb128 0x2
 370 0026 01       		.byte	0x1
 371 0027 06       		.byte	0x6
 372 0028 ED000000 		.4byte	.LASF0
 373 002c 03       		.uleb128 0x3
 374 002d 39000000 		.4byte	.LASF4
 375 0031 02       		.byte	0x2
 376 0032 1D       		.byte	0x1d
 377 0033 37000000 		.4byte	0x37
 378 0037 02       		.uleb128 0x2
 379 0038 01       		.byte	0x1
 380 0039 08       		.byte	0x8
 381 003a E0030000 		.4byte	.LASF1
 382 003e 02       		.uleb128 0x2
 383 003f 02       		.byte	0x2
 384 0040 05       		.byte	0x5
 385 0041 8D020000 		.4byte	.LASF2
 386 0045 02       		.uleb128 0x2
 387 0046 02       		.byte	0x2
 388 0047 07       		.byte	0x7
 389 0048 10020000 		.4byte	.LASF3
 390 004c 03       		.uleb128 0x3
 391 004d 97020000 		.4byte	.LASF5
 392 0051 02       		.byte	0x2
 393 0052 3F       		.byte	0x3f
 394 0053 57000000 		.4byte	0x57
 395 0057 02       		.uleb128 0x2
 396 0058 04       		.byte	0x4
 397 0059 05       		.byte	0x5
 398 005a 39010000 		.4byte	.LASF6
 399 005e 03       		.uleb128 0x3
ARM GAS  /tmp/ccOJ9AF7.s 			page 8


 400 005f 00060000 		.4byte	.LASF7
 401 0063 02       		.byte	0x2
 402 0064 41       		.byte	0x41
 403 0065 69000000 		.4byte	0x69
 404 0069 02       		.uleb128 0x2
 405 006a 04       		.byte	0x4
 406 006b 07       		.byte	0x7
 407 006c F9000000 		.4byte	.LASF8
 408 0070 02       		.uleb128 0x2
 409 0071 08       		.byte	0x8
 410 0072 05       		.byte	0x5
 411 0073 DF000000 		.4byte	.LASF9
 412 0077 03       		.uleb128 0x3
 413 0078 54030000 		.4byte	.LASF10
 414 007c 02       		.byte	0x2
 415 007d 5B       		.byte	0x5b
 416 007e 82000000 		.4byte	0x82
 417 0082 02       		.uleb128 0x2
 418 0083 08       		.byte	0x8
 419 0084 07       		.byte	0x7
 420 0085 6E000000 		.4byte	.LASF11
 421 0089 04       		.uleb128 0x4
 422 008a 04       		.byte	0x4
 423 008b 05       		.byte	0x5
 424 008c 696E7400 		.ascii	"int\000"
 425 0090 02       		.uleb128 0x2
 426 0091 04       		.byte	0x4
 427 0092 07       		.byte	0x7
 428 0093 9C010000 		.4byte	.LASF12
 429 0097 03       		.uleb128 0x3
 430 0098 9A060000 		.4byte	.LASF13
 431 009c 03       		.byte	0x3
 432 009d 14       		.byte	0x14
 433 009e 2C000000 		.4byte	0x2c
 434 00a2 03       		.uleb128 0x3
 435 00a3 D8030000 		.4byte	.LASF14
 436 00a7 03       		.byte	0x3
 437 00a8 1F       		.byte	0x1f
 438 00a9 4C000000 		.4byte	0x4c
 439 00ad 03       		.uleb128 0x3
 440 00ae 70040000 		.4byte	.LASF15
 441 00b2 03       		.byte	0x3
 442 00b3 20       		.byte	0x20
 443 00b4 5E000000 		.4byte	0x5e
 444 00b8 03       		.uleb128 0x3
 445 00b9 30000000 		.4byte	.LASF16
 446 00bd 03       		.byte	0x3
 447 00be 26       		.byte	0x26
 448 00bf 77000000 		.4byte	0x77
 449 00c3 05       		.uleb128 0x5
 450 00c4 A2000000 		.4byte	0xa2
 451 00c8 03       		.uleb128 0x3
 452 00c9 39060000 		.4byte	.LASF17
 453 00cd 04       		.byte	0x4
 454 00ce 45       		.byte	0x45
 455 00cf AD000000 		.4byte	0xad
 456 00d3 03       		.uleb128 0x3
ARM GAS  /tmp/ccOJ9AF7.s 			page 9


 457 00d4 6B020000 		.4byte	.LASF18
 458 00d8 04       		.byte	0x4
 459 00d9 48       		.byte	0x48
 460 00da 97000000 		.4byte	0x97
 461 00de 03       		.uleb128 0x3
 462 00df 42010000 		.4byte	.LASF19
 463 00e3 04       		.byte	0x4
 464 00e4 49       		.byte	0x49
 465 00e5 97000000 		.4byte	0x97
 466 00e9 03       		.uleb128 0x3
 467 00ea 5F030000 		.4byte	.LASF20
 468 00ee 04       		.byte	0x4
 469 00ef 4A       		.byte	0x4a
 470 00f0 97000000 		.4byte	0x97
 471 00f4 03       		.uleb128 0x3
 472 00f5 22010000 		.4byte	.LASF21
 473 00f9 04       		.byte	0x4
 474 00fa 4B       		.byte	0x4b
 475 00fb 97000000 		.4byte	0x97
 476 00ff 03       		.uleb128 0x3
 477 0100 7E030000 		.4byte	.LASF22
 478 0104 04       		.byte	0x4
 479 0105 4C       		.byte	0x4c
 480 0106 AD000000 		.4byte	0xad
 481 010a 03       		.uleb128 0x3
 482 010b 4A020000 		.4byte	.LASF23
 483 010f 04       		.byte	0x4
 484 0110 4D       		.byte	0x4d
 485 0111 A2000000 		.4byte	0xa2
 486 0115 03       		.uleb128 0x3
 487 0116 81020000 		.4byte	.LASF24
 488 011a 04       		.byte	0x4
 489 011b 4F       		.byte	0x4f
 490 011c AD000000 		.4byte	0xad
 491 0120 03       		.uleb128 0x3
 492 0121 96010000 		.4byte	.LASF25
 493 0125 04       		.byte	0x4
 494 0126 51       		.byte	0x51
 495 0127 A2000000 		.4byte	0xa2
 496 012b 03       		.uleb128 0x3
 497 012c E2050000 		.4byte	.LASF26
 498 0130 05       		.byte	0x5
 499 0131 33       		.byte	0x33
 500 0132 AD000000 		.4byte	0xad
 501 0136 03       		.uleb128 0x3
 502 0137 8B060000 		.4byte	.LASF27
 503 013b 05       		.byte	0x5
 504 013c 3F       		.byte	0x3f
 505 013d 41010000 		.4byte	0x141
 506 0141 06       		.uleb128 0x6
 507 0142 33020000 		.4byte	.LASF49
 508 0146 48       		.byte	0x48
 509 0147 06       		.byte	0x6
 510 0148 C2       		.byte	0xc2
 511 0149 46020000 		.4byte	0x246
 512 014d 07       		.uleb128 0x7
 513 014e 20040000 		.4byte	.LASF28
ARM GAS  /tmp/ccOJ9AF7.s 			page 10


 514 0152 06       		.byte	0x6
 515 0153 C3       		.byte	0xc3
 516 0154 51020000 		.4byte	0x251
 517 0158 00       		.byte	0
 518 0159 07       		.uleb128 0x7
 519 015a 77030000 		.4byte	.LASF29
 520 015e 06       		.byte	0x6
 521 015f C5       		.byte	0xc5
 522 0160 51020000 		.4byte	0x251
 523 0164 04       		.byte	0x4
 524 0165 07       		.uleb128 0x7
 525 0166 D8000000 		.4byte	.LASF30
 526 016a 06       		.byte	0x6
 527 016b C7       		.byte	0xc7
 528 016c FF000000 		.4byte	0xff
 529 0170 08       		.byte	0x8
 530 0171 07       		.uleb128 0x7
 531 0172 D1060000 		.4byte	.LASF31
 532 0176 06       		.byte	0x6
 533 0177 C8       		.byte	0xc8
 534 0178 81040000 		.4byte	0x481
 535 017c 0C       		.byte	0xc
 536 017d 07       		.uleb128 0x7
 537 017e 4B010000 		.4byte	.LASF32
 538 0182 06       		.byte	0x6
 539 0183 CA       		.byte	0xca
 540 0184 51020000 		.4byte	0x251
 541 0188 10       		.byte	0x10
 542 0189 07       		.uleb128 0x7
 543 018a 13030000 		.4byte	.LASF33
 544 018e 06       		.byte	0x6
 545 018f CB       		.byte	0xcb
 546 0190 51020000 		.4byte	0x251
 547 0194 14       		.byte	0x14
 548 0195 07       		.uleb128 0x7
 549 0196 B1060000 		.4byte	.LASF34
 550 019a 06       		.byte	0x6
 551 019b D2       		.byte	0xd2
 552 019c C6060000 		.4byte	0x6c6
 553 01a0 18       		.byte	0x18
 554 01a1 07       		.uleb128 0x7
 555 01a2 00040000 		.4byte	.LASF35
 556 01a6 06       		.byte	0x6
 557 01a7 DD       		.byte	0xdd
 558 01a8 DE000000 		.4byte	0xde
 559 01ac 1C       		.byte	0x1c
 560 01ad 07       		.uleb128 0x7
 561 01ae 35040000 		.4byte	.LASF36
 562 01b2 06       		.byte	0x6
 563 01b3 E1       		.byte	0xe1
 564 01b4 D3000000 		.4byte	0xd3
 565 01b8 1D       		.byte	0x1d
 566 01b9 07       		.uleb128 0x7
 567 01ba 77060000 		.4byte	.LASF37
 568 01be 06       		.byte	0x6
 569 01bf E6       		.byte	0xe6
 570 01c0 E9000000 		.4byte	0xe9
ARM GAS  /tmp/ccOJ9AF7.s 			page 11


 571 01c4 1E       		.byte	0x1e
 572 01c5 07       		.uleb128 0x7
 573 01c6 08040000 		.4byte	.LASF38
 574 01ca 06       		.byte	0x6
 575 01cb EC       		.byte	0xec
 576 01cc F4000000 		.4byte	0xf4
 577 01d0 1F       		.byte	0x1f
 578 01d1 07       		.uleb128 0x7
 579 01d2 B1010000 		.4byte	.LASF39
 580 01d6 06       		.byte	0x6
 581 01d7 F3       		.byte	0xf3
 582 01d8 D8060000 		.4byte	0x6d8
 583 01dc 20       		.byte	0x20
 584 01dd 08       		.uleb128 0x8
 585 01de 705F7500 		.ascii	"p_u\000"
 586 01e2 06       		.byte	0x6
 587 01e3 3101     		.2byte	0x131
 588 01e5 01060000 		.4byte	0x601
 589 01e9 24       		.byte	0x24
 590 01ea 09       		.uleb128 0x9
 591 01eb BA020000 		.4byte	.LASF40
 592 01ef 06       		.byte	0x6
 593 01f0 3601     		.2byte	0x136
 594 01f2 57020000 		.4byte	0x257
 595 01f6 28       		.byte	0x28
 596 01f7 09       		.uleb128 0x9
 597 01f8 DA010000 		.4byte	.LASF41
 598 01fc 06       		.byte	0x6
 599 01fd 3C01     		.2byte	0x13c
 600 01ff 7B020000 		.4byte	0x27b
 601 0203 2C       		.byte	0x2c
 602 0204 09       		.uleb128 0x9
 603 0205 C3060000 		.4byte	.LASF42
 604 0209 06       		.byte	0x6
 605 020a 4001     		.2byte	0x140
 606 020c 0A010000 		.4byte	0x10a
 607 0210 34       		.byte	0x34
 608 0211 09       		.uleb128 0x9
 609 0212 65040000 		.4byte	.LASF43
 610 0216 06       		.byte	0x6
 611 0217 4601     		.2byte	0x146
 612 0219 15010000 		.4byte	0x115
 613 021d 38       		.byte	0x38
 614 021e 09       		.uleb128 0x9
 615 021f EE030000 		.4byte	.LASF44
 616 0223 06       		.byte	0x6
 617 0224 4D01     		.2byte	0x14d
 618 0226 C0060000 		.4byte	0x6c0
 619 022a 3C       		.byte	0x3c
 620 022b 09       		.uleb128 0x9
 621 022c EC050000 		.4byte	.LASF45
 622 0230 06       		.byte	0x6
 623 0231 5101     		.2byte	0x151
 624 0233 FF000000 		.4byte	0xff
 625 0237 40       		.byte	0x40
 626 0238 09       		.uleb128 0x9
 627 0239 0B010000 		.4byte	.LASF46
ARM GAS  /tmp/ccOJ9AF7.s 			page 12


 628 023d 06       		.byte	0x6
 629 023e 5801     		.2byte	0x158
 630 0240 2E030000 		.4byte	0x32e
 631 0244 44       		.byte	0x44
 632 0245 00       		.byte	0
 633 0246 03       		.uleb128 0x3
 634 0247 CD020000 		.4byte	.LASF47
 635 024b 05       		.byte	0x5
 636 024c 44       		.byte	0x44
 637 024d 51020000 		.4byte	0x251
 638 0251 0A       		.uleb128 0xa
 639 0252 04       		.byte	0x4
 640 0253 36010000 		.4byte	0x136
 641 0257 03       		.uleb128 0x3
 642 0258 00000000 		.4byte	.LASF48
 643 025c 05       		.byte	0x5
 644 025d 49       		.byte	0x49
 645 025e 62020000 		.4byte	0x262
 646 0262 06       		.uleb128 0x6
 647 0263 88040000 		.4byte	.LASF50
 648 0267 04       		.byte	0x4
 649 0268 06       		.byte	0x6
 650 0269 B0       		.byte	0xb0
 651 026a 7B020000 		.4byte	0x27b
 652 026e 07       		.uleb128 0x7
 653 026f 20040000 		.4byte	.LASF28
 654 0273 06       		.byte	0x6
 655 0274 B1       		.byte	0xb1
 656 0275 51020000 		.4byte	0x251
 657 0279 00       		.byte	0
 658 027a 00       		.byte	0
 659 027b 03       		.uleb128 0x3
 660 027c 5E060000 		.4byte	.LASF51
 661 0280 05       		.byte	0x5
 662 0281 50       		.byte	0x50
 663 0282 86020000 		.4byte	0x286
 664 0286 06       		.uleb128 0x6
 665 0287 BC000000 		.4byte	.LASF52
 666 028b 08       		.byte	0x8
 667 028c 06       		.byte	0x6
 668 028d B7       		.byte	0xb7
 669 028e AB020000 		.4byte	0x2ab
 670 0292 07       		.uleb128 0x7
 671 0293 20040000 		.4byte	.LASF28
 672 0297 06       		.byte	0x6
 673 0298 B8       		.byte	0xb8
 674 0299 51020000 		.4byte	0x251
 675 029d 00       		.byte	0
 676 029e 07       		.uleb128 0x7
 677 029f 77030000 		.4byte	.LASF29
 678 02a3 06       		.byte	0x6
 679 02a4 B9       		.byte	0xb9
 680 02a5 51020000 		.4byte	0x251
 681 02a9 04       		.byte	0x4
 682 02aa 00       		.byte	0
 683 02ab 03       		.uleb128 0x3
 684 02ac 16000000 		.4byte	.LASF53
ARM GAS  /tmp/ccOJ9AF7.s 			page 13


 685 02b0 05       		.byte	0x5
 686 02b1 57       		.byte	0x57
 687 02b2 B6020000 		.4byte	0x2b6
 688 02b6 0B       		.uleb128 0xb
 689 02b7 73020000 		.4byte	.LASF54
 690 02bb 1C       		.byte	0x1c
 691 02bc 06       		.byte	0x6
 692 02bd 9001     		.2byte	0x190
 693 02bf 12030000 		.4byte	0x312
 694 02c3 09       		.uleb128 0x9
 695 02c4 80040000 		.4byte	.LASF55
 696 02c8 06       		.byte	0x6
 697 02c9 9101     		.2byte	0x191
 698 02cb 7B020000 		.4byte	0x27b
 699 02cf 00       		.byte	0
 700 02d0 09       		.uleb128 0x9
 701 02d1 12040000 		.4byte	.LASF56
 702 02d5 06       		.byte	0x6
 703 02d6 9201     		.2byte	0x192
 704 02d8 FF000000 		.4byte	0xff
 705 02dc 08       		.byte	0x8
 706 02dd 09       		.uleb128 0x9
 707 02de 1B030000 		.4byte	.LASF57
 708 02e2 06       		.byte	0x6
 709 02e3 9401     		.2byte	0x194
 710 02e5 81040000 		.4byte	0x481
 711 02e9 0C       		.byte	0xc
 712 02ea 09       		.uleb128 0x9
 713 02eb 5B010000 		.4byte	.LASF58
 714 02ef 06       		.byte	0x6
 715 02f0 9701     		.2byte	0x197
 716 02f2 51020000 		.4byte	0x251
 717 02f6 10       		.byte	0x10
 718 02f7 09       		.uleb128 0x9
 719 02f8 3C030000 		.4byte	.LASF59
 720 02fc 06       		.byte	0x6
 721 02fd 9801     		.2byte	0x198
 722 02ff 51020000 		.4byte	0x251
 723 0303 14       		.byte	0x14
 724 0304 09       		.uleb128 0x9
 725 0305 32030000 		.4byte	.LASF60
 726 0309 06       		.byte	0x6
 727 030a 9B01     		.2byte	0x19b
 728 030c 51020000 		.4byte	0x251
 729 0310 18       		.byte	0x18
 730 0311 00       		.byte	0
 731 0312 03       		.uleb128 0x3
 732 0313 F7050000 		.4byte	.LASF61
 733 0317 05       		.byte	0x5
 734 0318 5C       		.byte	0x5c
 735 0319 1D030000 		.4byte	0x31d
 736 031d 0A       		.uleb128 0xa
 737 031e 04       		.byte	0x4
 738 031f 23030000 		.4byte	0x323
 739 0323 0C       		.uleb128 0xc
 740 0324 2E030000 		.4byte	0x32e
 741 0328 0D       		.uleb128 0xd
ARM GAS  /tmp/ccOJ9AF7.s 			page 14


 742 0329 2E030000 		.4byte	0x32e
 743 032d 00       		.byte	0
 744 032e 0E       		.uleb128 0xe
 745 032f 04       		.byte	0x4
 746 0330 03       		.uleb128 0x3
 747 0331 67030000 		.4byte	.LASF62
 748 0335 05       		.byte	0x5
 749 0336 61       		.byte	0x61
 750 0337 3B030000 		.4byte	0x33b
 751 033b 0B       		.uleb128 0xb
 752 033c 47040000 		.4byte	.LASF63
 753 0340 14       		.byte	0x14
 754 0341 06       		.byte	0x6
 755 0342 6B01     		.2byte	0x16b
 756 0344 8A030000 		.4byte	0x38a
 757 0348 09       		.uleb128 0x9
 758 0349 A9010000 		.4byte	.LASF64
 759 034d 06       		.byte	0x6
 760 034e 6C01     		.2byte	0x16c
 761 0350 DD060000 		.4byte	0x6dd
 762 0354 00       		.byte	0
 763 0355 09       		.uleb128 0x9
 764 0356 6C010000 		.4byte	.LASF65
 765 035a 06       		.byte	0x6
 766 035b 6D01     		.2byte	0x16d
 767 035d DD060000 		.4byte	0x6dd
 768 0361 04       		.byte	0x4
 769 0362 09       		.uleb128 0x9
 770 0363 D1010000 		.4byte	.LASF66
 771 0367 06       		.byte	0x6
 772 0368 6E01     		.2byte	0x16e
 773 036a 2B010000 		.4byte	0x12b
 774 036e 08       		.byte	0x8
 775 036f 09       		.uleb128 0x9
 776 0370 D7060000 		.4byte	.LASF67
 777 0374 06       		.byte	0x6
 778 0375 6F01     		.2byte	0x16f
 779 0377 12030000 		.4byte	0x312
 780 037b 0C       		.byte	0xc
 781 037c 09       		.uleb128 0x9
 782 037d 4B060000 		.4byte	.LASF68
 783 0381 06       		.byte	0x6
 784 0382 7101     		.2byte	0x171
 785 0384 2E030000 		.4byte	0x32e
 786 0388 10       		.byte	0x10
 787 0389 00       		.byte	0
 788 038a 03       		.uleb128 0x3
 789 038b 99000000 		.4byte	.LASF69
 790 038f 05       		.byte	0x5
 791 0390 66       		.byte	0x66
 792 0391 95030000 		.4byte	0x395
 793 0395 0B       		.uleb128 0xb
 794 0396 E0020000 		.4byte	.LASF70
 795 039a 10       		.byte	0x10
 796 039b 06       		.byte	0x6
 797 039c 7B01     		.2byte	0x17b
 798 039e D7030000 		.4byte	0x3d7
ARM GAS  /tmp/ccOJ9AF7.s 			page 15


 799 03a2 09       		.uleb128 0x9
 800 03a3 A9010000 		.4byte	.LASF64
 801 03a7 06       		.byte	0x6
 802 03a8 7C01     		.2byte	0x17c
 803 03aa DD060000 		.4byte	0x6dd
 804 03ae 00       		.byte	0
 805 03af 09       		.uleb128 0x9
 806 03b0 6C010000 		.4byte	.LASF65
 807 03b4 06       		.byte	0x6
 808 03b5 7E01     		.2byte	0x17e
 809 03b7 DD060000 		.4byte	0x6dd
 810 03bb 04       		.byte	0x4
 811 03bc 09       		.uleb128 0x9
 812 03bd D1010000 		.4byte	.LASF66
 813 03c1 06       		.byte	0x6
 814 03c2 8001     		.2byte	0x180
 815 03c4 2B010000 		.4byte	0x12b
 816 03c8 08       		.byte	0x8
 817 03c9 09       		.uleb128 0x9
 818 03ca B8060000 		.4byte	.LASF71
 819 03ce 06       		.byte	0x6
 820 03cf 8201     		.2byte	0x182
 821 03d1 D8060000 		.4byte	0x6d8
 822 03d5 0C       		.byte	0xc
 823 03d6 00       		.byte	0
 824 03d7 03       		.uleb128 0x3
 825 03d8 5F000000 		.4byte	.LASF72
 826 03dc 05       		.byte	0x5
 827 03dd 6B       		.byte	0x6b
 828 03de E2030000 		.4byte	0x3e2
 829 03e2 0B       		.uleb128 0xb
 830 03e3 C2030000 		.4byte	.LASF73
 831 03e7 04       		.byte	0x4
 832 03e8 06       		.byte	0x6
 833 03e9 A201     		.2byte	0x1a2
 834 03eb FD030000 		.4byte	0x3fd
 835 03ef 09       		.uleb128 0x9
 836 03f0 0B060000 		.4byte	.LASF74
 837 03f4 06       		.byte	0x6
 838 03f5 AA01     		.2byte	0x1aa
 839 03f7 E3060000 		.4byte	0x6e3
 840 03fb 00       		.byte	0
 841 03fc 00       		.byte	0
 842 03fd 03       		.uleb128 0x3
 843 03fe 5F020000 		.4byte	.LASF75
 844 0402 05       		.byte	0x5
 845 0403 70       		.byte	0x70
 846 0404 08040000 		.4byte	0x408
 847 0408 0F       		.uleb128 0xf
 848 0409 3D040000 		.4byte	.LASF76
 849 040d 5802     		.2byte	0x258
 850 040f 06       		.byte	0x6
 851 0410 C201     		.2byte	0x1c2
 852 0412 64040000 		.4byte	0x464
 853 0416 09       		.uleb128 0x9
 854 0417 94060000 		.4byte	.LASF77
 855 041b 06       		.byte	0x6
ARM GAS  /tmp/ccOJ9AF7.s 			page 16


 856 041c C601     		.2byte	0x1c6
 857 041e AB020000 		.4byte	0x2ab
 858 0422 00       		.byte	0
 859 0423 09       		.uleb128 0x9
 860 0424 1B010000 		.4byte	.LASF78
 861 0428 06       		.byte	0x6
 862 0429 CA01     		.2byte	0x1ca
 863 042b 8A030000 		.4byte	0x38a
 864 042f 1C       		.byte	0x1c
 865 0430 08       		.uleb128 0x8
 866 0431 64626700 		.ascii	"dbg\000"
 867 0435 06       		.byte	0x6
 868 0436 CE01     		.2byte	0x1ce
 869 0438 D7030000 		.4byte	0x3d7
 870 043c 2C       		.byte	0x2c
 871 043d 09       		.uleb128 0x9
 872 043e 8E000000 		.4byte	.LASF79
 873 0442 06       		.byte	0x6
 874 0443 D201     		.2byte	0x1d2
 875 0445 36010000 		.4byte	0x136
 876 0449 30       		.byte	0x30
 877 044a 08       		.uleb128 0x8
 878 044b 746D00   		.ascii	"tm\000"
 879 044e 06       		.byte	0x6
 880 044f D701     		.2byte	0x1d7
 881 0451 F6050000 		.4byte	0x5f6
 882 0455 78       		.byte	0x78
 883 0456 09       		.uleb128 0x9
 884 0457 87010000 		.4byte	.LASF80
 885 045b 06       		.byte	0x6
 886 045c E301     		.2byte	0x1e3
 887 045e E8060000 		.4byte	0x6e8
 888 0462 80       		.byte	0x80
 889 0463 00       		.byte	0
 890 0464 02       		.uleb128 0x2
 891 0465 04       		.byte	0x4
 892 0466 07       		.byte	0x7
 893 0467 C4020000 		.4byte	.LASF81
 894 046b 03       		.uleb128 0x3
 895 046c 63010000 		.4byte	.LASF82
 896 0470 07       		.byte	0x7
 897 0471 65       		.byte	0x65
 898 0472 2E030000 		.4byte	0x32e
 899 0476 03       		.uleb128 0x3
 900 0477 AF020000 		.4byte	.LASF83
 901 047b 07       		.byte	0x7
 902 047c 6D       		.byte	0x6d
 903 047d B8000000 		.4byte	0xb8
 904 0481 06       		.uleb128 0x6
 905 0482 31060000 		.4byte	.LASF84
 906 0486 04       		.byte	0x4
 907 0487 07       		.byte	0x7
 908 0488 89       		.byte	0x89
 909 0489 9A040000 		.4byte	0x49a
 910 048d 10       		.uleb128 0x10
 911 048e 72313300 		.ascii	"r13\000"
 912 0492 07       		.byte	0x7
ARM GAS  /tmp/ccOJ9AF7.s 			page 17


 913 0493 8A       		.byte	0x8a
 914 0494 DB050000 		.4byte	0x5db
 915 0498 00       		.byte	0
 916 0499 00       		.byte	0
 917 049a 06       		.uleb128 0x6
 918 049b 53000000 		.4byte	.LASF85
 919 049f 64       		.byte	0x64
 920 04a0 08       		.byte	0x8
 921 04a1 F4       		.byte	0xf4
 922 04a2 DB050000 		.4byte	0x5db
 923 04a6 10       		.uleb128 0x10
 924 04a7 73313600 		.ascii	"s16\000"
 925 04ab 08       		.byte	0x8
 926 04ac F6       		.byte	0xf6
 927 04ad 6B040000 		.4byte	0x46b
 928 04b1 00       		.byte	0
 929 04b2 10       		.uleb128 0x10
 930 04b3 73313700 		.ascii	"s17\000"
 931 04b7 08       		.byte	0x8
 932 04b8 F7       		.byte	0xf7
 933 04b9 6B040000 		.4byte	0x46b
 934 04bd 04       		.byte	0x4
 935 04be 10       		.uleb128 0x10
 936 04bf 73313800 		.ascii	"s18\000"
 937 04c3 08       		.byte	0x8
 938 04c4 F8       		.byte	0xf8
 939 04c5 6B040000 		.4byte	0x46b
 940 04c9 08       		.byte	0x8
 941 04ca 10       		.uleb128 0x10
 942 04cb 73313900 		.ascii	"s19\000"
 943 04cf 08       		.byte	0x8
 944 04d0 F9       		.byte	0xf9
 945 04d1 6B040000 		.4byte	0x46b
 946 04d5 0C       		.byte	0xc
 947 04d6 10       		.uleb128 0x10
 948 04d7 73323000 		.ascii	"s20\000"
 949 04db 08       		.byte	0x8
 950 04dc FA       		.byte	0xfa
 951 04dd 6B040000 		.4byte	0x46b
 952 04e1 10       		.byte	0x10
 953 04e2 10       		.uleb128 0x10
 954 04e3 73323100 		.ascii	"s21\000"
 955 04e7 08       		.byte	0x8
 956 04e8 FB       		.byte	0xfb
 957 04e9 6B040000 		.4byte	0x46b
 958 04ed 14       		.byte	0x14
 959 04ee 10       		.uleb128 0x10
 960 04ef 73323200 		.ascii	"s22\000"
 961 04f3 08       		.byte	0x8
 962 04f4 FC       		.byte	0xfc
 963 04f5 6B040000 		.4byte	0x46b
 964 04f9 18       		.byte	0x18
 965 04fa 10       		.uleb128 0x10
 966 04fb 73323300 		.ascii	"s23\000"
 967 04ff 08       		.byte	0x8
 968 0500 FD       		.byte	0xfd
 969 0501 6B040000 		.4byte	0x46b
ARM GAS  /tmp/ccOJ9AF7.s 			page 18


 970 0505 1C       		.byte	0x1c
 971 0506 10       		.uleb128 0x10
 972 0507 73323400 		.ascii	"s24\000"
 973 050b 08       		.byte	0x8
 974 050c FE       		.byte	0xfe
 975 050d 6B040000 		.4byte	0x46b
 976 0511 20       		.byte	0x20
 977 0512 10       		.uleb128 0x10
 978 0513 73323500 		.ascii	"s25\000"
 979 0517 08       		.byte	0x8
 980 0518 FF       		.byte	0xff
 981 0519 6B040000 		.4byte	0x46b
 982 051d 24       		.byte	0x24
 983 051e 08       		.uleb128 0x8
 984 051f 73323600 		.ascii	"s26\000"
 985 0523 08       		.byte	0x8
 986 0524 0001     		.2byte	0x100
 987 0526 6B040000 		.4byte	0x46b
 988 052a 28       		.byte	0x28
 989 052b 08       		.uleb128 0x8
 990 052c 73323700 		.ascii	"s27\000"
 991 0530 08       		.byte	0x8
 992 0531 0101     		.2byte	0x101
 993 0533 6B040000 		.4byte	0x46b
 994 0537 2C       		.byte	0x2c
 995 0538 08       		.uleb128 0x8
 996 0539 73323800 		.ascii	"s28\000"
 997 053d 08       		.byte	0x8
 998 053e 0201     		.2byte	0x102
 999 0540 6B040000 		.4byte	0x46b
 1000 0544 30       		.byte	0x30
 1001 0545 08       		.uleb128 0x8
 1002 0546 73323900 		.ascii	"s29\000"
 1003 054a 08       		.byte	0x8
 1004 054b 0301     		.2byte	0x103
 1005 054d 6B040000 		.4byte	0x46b
 1006 0551 34       		.byte	0x34
 1007 0552 08       		.uleb128 0x8
 1008 0553 73333000 		.ascii	"s30\000"
 1009 0557 08       		.byte	0x8
 1010 0558 0401     		.2byte	0x104
 1011 055a 6B040000 		.4byte	0x46b
 1012 055e 38       		.byte	0x38
 1013 055f 08       		.uleb128 0x8
 1014 0560 73333100 		.ascii	"s31\000"
 1015 0564 08       		.byte	0x8
 1016 0565 0501     		.2byte	0x105
 1017 0567 6B040000 		.4byte	0x46b
 1018 056b 3C       		.byte	0x3c
 1019 056c 08       		.uleb128 0x8
 1020 056d 723400   		.ascii	"r4\000"
 1021 0570 08       		.byte	0x8
 1022 0571 0701     		.2byte	0x107
 1023 0573 6B040000 		.4byte	0x46b
 1024 0577 40       		.byte	0x40
 1025 0578 08       		.uleb128 0x8
 1026 0579 723500   		.ascii	"r5\000"
ARM GAS  /tmp/ccOJ9AF7.s 			page 19


 1027 057c 08       		.byte	0x8
 1028 057d 0801     		.2byte	0x108
 1029 057f 6B040000 		.4byte	0x46b
 1030 0583 44       		.byte	0x44
 1031 0584 08       		.uleb128 0x8
 1032 0585 723600   		.ascii	"r6\000"
 1033 0588 08       		.byte	0x8
 1034 0589 0901     		.2byte	0x109
 1035 058b 6B040000 		.4byte	0x46b
 1036 058f 48       		.byte	0x48
 1037 0590 08       		.uleb128 0x8
 1038 0591 723700   		.ascii	"r7\000"
 1039 0594 08       		.byte	0x8
 1040 0595 0A01     		.2byte	0x10a
 1041 0597 6B040000 		.4byte	0x46b
 1042 059b 4C       		.byte	0x4c
 1043 059c 08       		.uleb128 0x8
 1044 059d 723800   		.ascii	"r8\000"
 1045 05a0 08       		.byte	0x8
 1046 05a1 0B01     		.2byte	0x10b
 1047 05a3 6B040000 		.4byte	0x46b
 1048 05a7 50       		.byte	0x50
 1049 05a8 08       		.uleb128 0x8
 1050 05a9 723900   		.ascii	"r9\000"
 1051 05ac 08       		.byte	0x8
 1052 05ad 0C01     		.2byte	0x10c
 1053 05af 6B040000 		.4byte	0x46b
 1054 05b3 54       		.byte	0x54
 1055 05b4 08       		.uleb128 0x8
 1056 05b5 72313000 		.ascii	"r10\000"
 1057 05b9 08       		.byte	0x8
 1058 05ba 0D01     		.2byte	0x10d
 1059 05bc 6B040000 		.4byte	0x46b
 1060 05c0 58       		.byte	0x58
 1061 05c1 08       		.uleb128 0x8
 1062 05c2 72313100 		.ascii	"r11\000"
 1063 05c6 08       		.byte	0x8
 1064 05c7 0E01     		.2byte	0x10e
 1065 05c9 6B040000 		.4byte	0x46b
 1066 05cd 5C       		.byte	0x5c
 1067 05ce 08       		.uleb128 0x8
 1068 05cf 6C7200   		.ascii	"lr\000"
 1069 05d2 08       		.byte	0x8
 1070 05d3 0F01     		.2byte	0x10f
 1071 05d5 6B040000 		.4byte	0x46b
 1072 05d9 60       		.byte	0x60
 1073 05da 00       		.byte	0
 1074 05db 0A       		.uleb128 0xa
 1075 05dc 04       		.byte	0x4
 1076 05dd 9A040000 		.4byte	0x49a
 1077 05e1 11       		.uleb128 0x11
 1078 05e2 04       		.byte	0x4
 1079 05e3 09       		.byte	0x9
 1080 05e4 38       		.byte	0x38
 1081 05e5 F6050000 		.4byte	0x5f6
 1082 05e9 07       		.uleb128 0x7
 1083 05ea 2A060000 		.4byte	.LASF86
ARM GAS  /tmp/ccOJ9AF7.s 			page 20


 1084 05ee 09       		.byte	0x9
 1085 05ef 3C       		.byte	0x3c
 1086 05f0 C8000000 		.4byte	0xc8
 1087 05f4 00       		.byte	0
 1088 05f5 00       		.byte	0
 1089 05f6 03       		.uleb128 0x3
 1090 05f7 21030000 		.4byte	.LASF87
 1091 05fb 09       		.byte	0x9
 1092 05fc 3D       		.byte	0x3d
 1093 05fd E1050000 		.4byte	0x5e1
 1094 0601 12       		.uleb128 0x12
 1095 0602 04       		.byte	0x4
 1096 0603 06       		.byte	0x6
 1097 0604 FA       		.byte	0xfa
 1098 0605 5E060000 		.4byte	0x65e
 1099 0609 13       		.uleb128 0x13
 1100 060a 29000000 		.4byte	.LASF88
 1101 060e 06       		.byte	0x6
 1102 060f 0101     		.2byte	0x101
 1103 0611 0A010000 		.4byte	0x10a
 1104 0615 13       		.uleb128 0x13
 1105 0616 85000000 		.4byte	.LASF89
 1106 061a 06       		.byte	0x6
 1107 061b 0801     		.2byte	0x108
 1108 061d 0A010000 		.4byte	0x10a
 1109 0621 13       		.uleb128 0x13
 1110 0622 A2060000 		.4byte	.LASF90
 1111 0626 06       		.byte	0x6
 1112 0627 0F01     		.2byte	0x10f
 1113 0629 2E030000 		.4byte	0x32e
 1114 062d 13       		.uleb128 0x13
 1115 062e 23000000 		.4byte	.LASF91
 1116 0632 06       		.byte	0x6
 1117 0633 1601     		.2byte	0x116
 1118 0635 5E060000 		.4byte	0x65e
 1119 0639 13       		.uleb128 0x13
 1120 063a CA010000 		.4byte	.LASF92
 1121 063e 06       		.byte	0x6
 1122 063f 1E01     		.2byte	0x11e
 1123 0641 89060000 		.4byte	0x689
 1124 0645 13       		.uleb128 0x13
 1125 0646 79040000 		.4byte	.LASF93
 1126 064a 06       		.byte	0x6
 1127 064b 2701     		.2byte	0x127
 1128 064d C0060000 		.4byte	0x6c0
 1129 0651 13       		.uleb128 0x13
 1130 0652 19040000 		.4byte	.LASF94
 1131 0656 06       		.byte	0x6
 1132 0657 2F01     		.2byte	0x12f
 1133 0659 15010000 		.4byte	0x115
 1134 065d 00       		.byte	0
 1135 065e 0A       		.uleb128 0xa
 1136 065f 04       		.byte	0x4
 1137 0660 46020000 		.4byte	0x246
 1138 0664 06       		.uleb128 0x6
 1139 0665 58040000 		.4byte	.LASF95
 1140 0669 0C       		.byte	0xc
ARM GAS  /tmp/ccOJ9AF7.s 			page 21


 1141 066a 0A       		.byte	0xa
 1142 066b 34       		.byte	0x34
 1143 066c 89060000 		.4byte	0x689
 1144 0670 07       		.uleb128 0x7
 1145 0671 53010000 		.4byte	.LASF96
 1146 0675 0A       		.byte	0xa
 1147 0676 35       		.byte	0x35
 1148 0677 7B020000 		.4byte	0x27b
 1149 067b 00       		.byte	0
 1150 067c 07       		.uleb128 0x7
 1151 067d 05020000 		.4byte	.LASF97
 1152 0681 0A       		.byte	0xa
 1153 0682 37       		.byte	0x37
 1154 0683 20010000 		.4byte	0x120
 1155 0687 08       		.byte	0x8
 1156 0688 00       		.byte	0
 1157 0689 0A       		.uleb128 0xa
 1158 068a 04       		.byte	0x4
 1159 068b 64060000 		.4byte	0x664
 1160 068f 06       		.uleb128 0x6
 1161 0690 6E060000 		.4byte	.LASF98
 1162 0694 10       		.byte	0x10
 1163 0695 0B       		.byte	0xb
 1164 0696 39       		.byte	0x39
 1165 0697 C0060000 		.4byte	0x6c0
 1166 069b 07       		.uleb128 0x7
 1167 069c 13010000 		.4byte	.LASF99
 1168 06a0 0B       		.byte	0xb
 1169 06a1 3A       		.byte	0x3a
 1170 06a2 7B020000 		.4byte	0x27b
 1171 06a6 00       		.byte	0
 1172 06a7 07       		.uleb128 0x7
 1173 06a8 C9060000 		.4byte	.LASF100
 1174 06ac 0B       		.byte	0xb
 1175 06ad 3C       		.byte	0x3c
 1176 06ae 51020000 		.4byte	0x251
 1177 06b2 08       		.byte	0x8
 1178 06b3 07       		.uleb128 0x7
 1179 06b4 DB050000 		.4byte	.LASF101
 1180 06b8 0B       		.byte	0xb
 1181 06b9 3E       		.byte	0x3e
 1182 06ba 03070000 		.4byte	0x703
 1183 06be 0C       		.byte	0xc
 1184 06bf 00       		.byte	0
 1185 06c0 0A       		.uleb128 0xa
 1186 06c1 04       		.byte	0x4
 1187 06c2 8F060000 		.4byte	0x68f
 1188 06c6 0A       		.uleb128 0xa
 1189 06c7 04       		.byte	0x4
 1190 06c8 CC060000 		.4byte	0x6cc
 1191 06cc 14       		.uleb128 0x14
 1192 06cd D1060000 		.4byte	0x6d1
 1193 06d1 02       		.uleb128 0x2
 1194 06d2 01       		.byte	0x1
 1195 06d3 08       		.byte	0x8
 1196 06d4 A7040000 		.4byte	.LASF102
 1197 06d8 05       		.uleb128 0x5
ARM GAS  /tmp/ccOJ9AF7.s 			page 22


 1198 06d9 2B010000 		.4byte	0x12b
 1199 06dd 0A       		.uleb128 0xa
 1200 06de 04       		.byte	0x4
 1201 06df 30030000 		.4byte	0x330
 1202 06e3 05       		.uleb128 0x5
 1203 06e4 C6060000 		.4byte	0x6c6
 1204 06e8 15       		.uleb128 0x15
 1205 06e9 76040000 		.4byte	0x476
 1206 06ed F8060000 		.4byte	0x6f8
 1207 06f1 16       		.uleb128 0x16
 1208 06f2 64040000 		.4byte	0x464
 1209 06f6 3A       		.byte	0x3a
 1210 06f7 00       		.byte	0
 1211 06f8 03       		.uleb128 0x3
 1212 06f9 7F010000 		.4byte	.LASF103
 1213 06fd 0B       		.byte	0xb
 1214 06fe 34       		.byte	0x34
 1215 06ff 8F060000 		.4byte	0x68f
 1216 0703 0A       		.uleb128 0xa
 1217 0704 04       		.byte	0x4
 1218 0705 F8060000 		.4byte	0x6f8
 1219 0709 02       		.uleb128 0x2
 1220 070a 01       		.byte	0x1
 1221 070b 02       		.byte	0x2
 1222 070c D2030000 		.4byte	.LASF104
 1223 0710 03       		.uleb128 0x3
 1224 0711 0D030000 		.4byte	.LASF105
 1225 0715 0C       		.byte	0xc
 1226 0716 16       		.byte	0x16
 1227 0717 37000000 		.4byte	0x37
 1228 071b 03       		.uleb128 0x3
 1229 071c 0F000000 		.4byte	.LASF106
 1230 0720 0C       		.byte	0xc
 1231 0721 19       		.byte	0x19
 1232 0722 45000000 		.4byte	0x45
 1233 0726 17       		.uleb128 0x17
 1234 0727 B8010000 		.4byte	.LASF113
 1235 072b 01       		.byte	0x1
 1236 072c 2A       		.byte	0x2a
 1237 072d 00000000 		.4byte	.LFB256
 1238 0731 5A000000 		.4byte	.LFE256-.LFB256
 1239 0735 01       		.uleb128 0x1
 1240 0736 9C       		.byte	0x9c
 1241 0737 38080000 		.4byte	0x838
 1242 073b 18       		.uleb128 0x18
 1243 073c 6B657900 		.ascii	"key\000"
 1244 0740 01       		.byte	0x1
 1245 0741 2A       		.byte	0x2a
 1246 0742 38080000 		.4byte	0x838
 1247 0746 00000000 		.4byte	.LLST0
 1248 074a 19       		.uleb128 0x19
 1249 074b F8030000 		.4byte	.LASF107
 1250 074f 01       		.byte	0x1
 1251 0750 2A       		.byte	0x2a
 1252 0751 38080000 		.4byte	0x838
 1253 0755 2C000000 		.4byte	.LLST1
 1254 0759 19       		.uleb128 0x19
ARM GAS  /tmp/ccOJ9AF7.s 			page 23


 1255 075a A9060000 		.4byte	.LASF108
 1256 075e 01       		.byte	0x1
 1257 075f 2A       		.byte	0x2a
 1258 0760 38080000 		.4byte	0x838
 1259 0764 58000000 		.4byte	.LLST2
 1260 0768 1A       		.uleb128 0x1a
 1261 0769 14000000 		.4byte	.LVL4
 1262 076d 180B0000 		.4byte	0xb18
 1263 0771 89070000 		.4byte	0x789
 1264 0775 1B       		.uleb128 0x1b
 1265 0776 01       		.uleb128 0x1
 1266 0777 52       		.byte	0x52
 1267 0778 03       		.uleb128 0x3
 1268 0779 F3       		.byte	0xf3
 1269 077a 01       		.uleb128 0x1
 1270 077b 50       		.byte	0x50
 1271 077c 1B       		.uleb128 0x1b
 1272 077d 01       		.uleb128 0x1
 1273 077e 51       		.byte	0x51
 1274 077f 01       		.uleb128 0x1
 1275 0780 40       		.byte	0x40
 1276 0781 1B       		.uleb128 0x1b
 1277 0782 01       		.uleb128 0x1
 1278 0783 50       		.byte	0x50
 1279 0784 03       		.uleb128 0x3
 1280 0785 0A       		.byte	0xa
 1281 0786 0003     		.2byte	0x300
 1282 0788 00       		.byte	0
 1283 0789 1A       		.uleb128 0x1a
 1284 078a 20000000 		.4byte	.LVL5
 1285 078e 180B0000 		.4byte	0xb18
 1286 0792 A9070000 		.4byte	0x7a9
 1287 0796 1B       		.uleb128 0x1b
 1288 0797 01       		.uleb128 0x1
 1289 0798 52       		.byte	0x52
 1290 0799 02       		.uleb128 0x2
 1291 079a 75       		.byte	0x75
 1292 079b 00       		.sleb128 0
 1293 079c 1B       		.uleb128 0x1b
 1294 079d 01       		.uleb128 0x1
 1295 079e 51       		.byte	0x51
 1296 079f 01       		.uleb128 0x1
 1297 07a0 40       		.byte	0x40
 1298 07a1 1B       		.uleb128 0x1b
 1299 07a2 01       		.uleb128 0x1
 1300 07a3 50       		.byte	0x50
 1301 07a4 03       		.uleb128 0x3
 1302 07a5 0A       		.byte	0xa
 1303 07a6 1003     		.2byte	0x310
 1304 07a8 00       		.byte	0
 1305 07a9 1A       		.uleb128 0x1a
 1306 07aa 2C000000 		.4byte	.LVL6
 1307 07ae 180B0000 		.4byte	0xb18
 1308 07b2 C9070000 		.4byte	0x7c9
 1309 07b6 1B       		.uleb128 0x1b
 1310 07b7 01       		.uleb128 0x1
 1311 07b8 52       		.byte	0x52
ARM GAS  /tmp/ccOJ9AF7.s 			page 24


 1312 07b9 02       		.uleb128 0x2
 1313 07ba 74       		.byte	0x74
 1314 07bb 00       		.sleb128 0
 1315 07bc 1B       		.uleb128 0x1b
 1316 07bd 01       		.uleb128 0x1
 1317 07be 51       		.byte	0x51
 1318 07bf 01       		.uleb128 0x1
 1319 07c0 40       		.byte	0x40
 1320 07c1 1B       		.uleb128 0x1b
 1321 07c2 01       		.uleb128 0x1
 1322 07c3 50       		.byte	0x50
 1323 07c4 03       		.uleb128 0x3
 1324 07c5 0A       		.byte	0xa
 1325 07c6 2003     		.2byte	0x320
 1326 07c8 00       		.byte	0
 1327 07c9 1A       		.uleb128 0x1a
 1328 07ca 3A000000 		.4byte	.LVL7
 1329 07ce 380B0000 		.4byte	0xb38
 1330 07d2 EF070000 		.4byte	0x7ef
 1331 07d6 1B       		.uleb128 0x1b
 1332 07d7 01       		.uleb128 0x1
 1333 07d8 53       		.byte	0x53
 1334 07d9 03       		.uleb128 0x3
 1335 07da 0A       		.byte	0xa
 1336 07db 0003     		.2byte	0x300
 1337 07dd 1B       		.uleb128 0x1b
 1338 07de 01       		.uleb128 0x1
 1339 07df 52       		.byte	0x52
 1340 07e0 03       		.uleb128 0x3
 1341 07e1 0A       		.byte	0xa
 1342 07e2 0003     		.2byte	0x300
 1343 07e4 1B       		.uleb128 0x1b
 1344 07e5 01       		.uleb128 0x1
 1345 07e6 51       		.byte	0x51
 1346 07e7 01       		.uleb128 0x1
 1347 07e8 40       		.byte	0x40
 1348 07e9 1B       		.uleb128 0x1b
 1349 07ea 01       		.uleb128 0x1
 1350 07eb 50       		.byte	0x50
 1351 07ec 01       		.uleb128 0x1
 1352 07ed 31       		.byte	0x31
 1353 07ee 00       		.byte	0
 1354 07ef 1A       		.uleb128 0x1a
 1355 07f0 48000000 		.4byte	.LVL8
 1356 07f4 380B0000 		.4byte	0xb38
 1357 07f8 15080000 		.4byte	0x815
 1358 07fc 1B       		.uleb128 0x1b
 1359 07fd 01       		.uleb128 0x1
 1360 07fe 53       		.byte	0x53
 1361 07ff 03       		.uleb128 0x3
 1362 0800 0A       		.byte	0xa
 1363 0801 1003     		.2byte	0x310
 1364 0803 1B       		.uleb128 0x1b
 1365 0804 01       		.uleb128 0x1
 1366 0805 52       		.byte	0x52
 1367 0806 03       		.uleb128 0x3
 1368 0807 0A       		.byte	0xa
ARM GAS  /tmp/ccOJ9AF7.s 			page 25


 1369 0808 1003     		.2byte	0x310
 1370 080a 1B       		.uleb128 0x1b
 1371 080b 01       		.uleb128 0x1
 1372 080c 51       		.byte	0x51
 1373 080d 01       		.uleb128 0x1
 1374 080e 40       		.byte	0x40
 1375 080f 1B       		.uleb128 0x1b
 1376 0810 01       		.uleb128 0x1
 1377 0811 50       		.byte	0x50
 1378 0812 01       		.uleb128 0x1
 1379 0813 31       		.byte	0x31
 1380 0814 00       		.byte	0
 1381 0815 1C       		.uleb128 0x1c
 1382 0816 5A000000 		.4byte	.LVL10
 1383 081a 380B0000 		.4byte	0xb38
 1384 081e 1B       		.uleb128 0x1b
 1385 081f 01       		.uleb128 0x1
 1386 0820 53       		.byte	0x53
 1387 0821 03       		.uleb128 0x3
 1388 0822 0A       		.byte	0xa
 1389 0823 2003     		.2byte	0x320
 1390 0825 1B       		.uleb128 0x1b
 1391 0826 01       		.uleb128 0x1
 1392 0827 52       		.byte	0x52
 1393 0828 03       		.uleb128 0x3
 1394 0829 0A       		.byte	0xa
 1395 082a 2003     		.2byte	0x320
 1396 082c 1B       		.uleb128 0x1b
 1397 082d 01       		.uleb128 0x1
 1398 082e 51       		.byte	0x51
 1399 082f 01       		.uleb128 0x1
 1400 0830 40       		.byte	0x40
 1401 0831 1B       		.uleb128 0x1b
 1402 0832 01       		.uleb128 0x1
 1403 0833 50       		.byte	0x50
 1404 0834 01       		.uleb128 0x1
 1405 0835 31       		.byte	0x31
 1406 0836 00       		.byte	0
 1407 0837 00       		.byte	0
 1408 0838 0A       		.uleb128 0xa
 1409 0839 04       		.byte	0x4
 1410 083a 10070000 		.4byte	0x710
 1411 083e 1D       		.uleb128 0x1d
 1412 083f 15060000 		.4byte	.LASF131
 1413 0843 01       		.byte	0x1
 1414 0844 4D       		.byte	0x4d
 1415 0845 10070000 		.4byte	0x710
 1416 0849 00000000 		.4byte	.LFB257
 1417 084d 8C000000 		.4byte	.LFE257-.LFB257
 1418 0851 01       		.uleb128 0x1
 1419 0852 9C       		.byte	0x9c
 1420 0853 B6090000 		.4byte	0x9b6
 1421 0857 19       		.uleb128 0x19
 1422 0858 0B020000 		.4byte	.LASF109
 1423 085c 01       		.byte	0x1
 1424 085d 4D       		.byte	0x4d
 1425 085e 38080000 		.4byte	0x838
ARM GAS  /tmp/ccOJ9AF7.s 			page 26


 1426 0862 84000000 		.4byte	.LLST3
 1427 0866 19       		.uleb128 0x19
 1428 0867 A0040000 		.4byte	.LASF110
 1429 086b 01       		.byte	0x1
 1430 086c 4D       		.byte	0x4d
 1431 086d 10070000 		.4byte	0x710
 1432 0871 A2000000 		.4byte	.LLST4
 1433 0875 19       		.uleb128 0x19
 1434 0876 D0050000 		.4byte	.LASF111
 1435 087a 01       		.byte	0x1
 1436 087b 4D       		.byte	0x4d
 1437 087c 10070000 		.4byte	0x710
 1438 0880 C3000000 		.4byte	.LLST5
 1439 0884 19       		.uleb128 0x19
 1440 0885 CD000000 		.4byte	.LASF112
 1441 0889 01       		.byte	0x1
 1442 088a 4E       		.byte	0x4e
 1443 088b 10070000 		.4byte	0x710
 1444 088f E4000000 		.4byte	.LLST6
 1445 0893 1E       		.uleb128 0x1e
 1446 0894 6D00     		.ascii	"m\000"
 1447 0896 01       		.byte	0x1
 1448 0897 4E       		.byte	0x4e
 1449 0898 10070000 		.4byte	0x710
 1450 089c 02       		.uleb128 0x2
 1451 089d 91       		.byte	0x91
 1452 089e 00       		.sleb128 0
 1453 089f 1F       		.uleb128 0x1f
 1454 08a0 98040000 		.4byte	.LASF115
 1455 08a4 01       		.byte	0x1
 1456 08a5 50       		.byte	0x50
 1457 08a6 10070000 		.4byte	0x710
 1458 08aa 01       		.uleb128 0x1
 1459 08ab 54       		.byte	0x54
 1460 08ac 1A       		.uleb128 0x1a
 1461 08ad 20000000 		.4byte	.LVL16
 1462 08b1 5D0B0000 		.4byte	0xb5d
 1463 08b5 D1080000 		.4byte	0x8d1
 1464 08b9 1B       		.uleb128 0x1b
 1465 08ba 01       		.uleb128 0x1
 1466 08bb 53       		.byte	0x53
 1467 08bc 01       		.uleb128 0x1
 1468 08bd 30       		.byte	0x30
 1469 08be 1B       		.uleb128 0x1b
 1470 08bf 01       		.uleb128 0x1
 1471 08c0 52       		.byte	0x52
 1472 08c1 02       		.uleb128 0x2
 1473 08c2 75       		.byte	0x75
 1474 08c3 00       		.sleb128 0
 1475 08c4 1B       		.uleb128 0x1b
 1476 08c5 01       		.uleb128 0x1
 1477 08c6 51       		.byte	0x51
 1478 08c7 03       		.uleb128 0x3
 1479 08c8 0A       		.byte	0xa
 1480 08c9 0002     		.2byte	0x200
 1481 08cb 1B       		.uleb128 0x1b
 1482 08cc 01       		.uleb128 0x1
ARM GAS  /tmp/ccOJ9AF7.s 			page 27


 1483 08cd 50       		.byte	0x50
 1484 08ce 01       		.uleb128 0x1
 1485 08cf 31       		.byte	0x31
 1486 08d0 00       		.byte	0
 1487 08d1 20       		.uleb128 0x20
 1488 08d2 24000000 		.4byte	.LVL17
 1489 08d6 820B0000 		.4byte	0xb82
 1490 08da 1A       		.uleb128 0x1a
 1491 08db 34000000 		.4byte	.LVL18
 1492 08df 8E0B0000 		.4byte	0xb8e
 1493 08e3 00090000 		.4byte	0x900
 1494 08e7 1B       		.uleb128 0x1b
 1495 08e8 01       		.uleb128 0x1
 1496 08e9 53       		.byte	0x53
 1497 08ea 03       		.uleb128 0x3
 1498 08eb 0A       		.byte	0xa
 1499 08ec 1303     		.2byte	0x313
 1500 08ee 1B       		.uleb128 0x1b
 1501 08ef 01       		.uleb128 0x1
 1502 08f0 52       		.byte	0x52
 1503 08f1 03       		.uleb128 0x3
 1504 08f2 0A       		.byte	0xa
 1505 08f3 0A02     		.2byte	0x20a
 1506 08f5 1B       		.uleb128 0x1b
 1507 08f6 01       		.uleb128 0x1
 1508 08f7 51       		.byte	0x51
 1509 08f8 01       		.uleb128 0x1
 1510 08f9 34       		.byte	0x34
 1511 08fa 1B       		.uleb128 0x1b
 1512 08fb 01       		.uleb128 0x1
 1513 08fc 50       		.byte	0x50
 1514 08fd 01       		.uleb128 0x1
 1515 08fe 31       		.byte	0x31
 1516 08ff 00       		.byte	0
 1517 0900 20       		.uleb128 0x20
 1518 0901 3C000000 		.4byte	.LVL19
 1519 0905 820B0000 		.4byte	0xb82
 1520 0909 1A       		.uleb128 0x1a
 1521 090a 4C000000 		.4byte	.LVL20
 1522 090e 8E0B0000 		.4byte	0xb8e
 1523 0912 2F090000 		.4byte	0x92f
 1524 0916 1B       		.uleb128 0x1b
 1525 0917 01       		.uleb128 0x1
 1526 0918 53       		.byte	0x53
 1527 0919 03       		.uleb128 0x3
 1528 091a 0A       		.byte	0xa
 1529 091b 1703     		.2byte	0x317
 1530 091d 1B       		.uleb128 0x1b
 1531 091e 01       		.uleb128 0x1
 1532 091f 52       		.byte	0x52
 1533 0920 03       		.uleb128 0x3
 1534 0921 0A       		.byte	0xa
 1535 0922 0702     		.2byte	0x207
 1536 0924 1B       		.uleb128 0x1b
 1537 0925 01       		.uleb128 0x1
 1538 0926 51       		.byte	0x51
 1539 0927 01       		.uleb128 0x1
ARM GAS  /tmp/ccOJ9AF7.s 			page 28


 1540 0928 32       		.byte	0x32
 1541 0929 1B       		.uleb128 0x1b
 1542 092a 01       		.uleb128 0x1
 1543 092b 50       		.byte	0x50
 1544 092c 01       		.uleb128 0x1
 1545 092d 31       		.byte	0x31
 1546 092e 00       		.byte	0
 1547 092f 20       		.uleb128 0x20
 1548 0930 50000000 		.4byte	.LVL21
 1549 0934 820B0000 		.4byte	0xb82
 1550 0938 1A       		.uleb128 0x1a
 1551 0939 68000000 		.4byte	.LVL22
 1552 093d B30B0000 		.4byte	0xbb3
 1553 0941 7C090000 		.4byte	0x97c
 1554 0945 1B       		.uleb128 0x1b
 1555 0946 01       		.uleb128 0x1
 1556 0947 53       		.byte	0x53
 1557 0948 02       		.uleb128 0x2
 1558 0949 08       		.byte	0x8
 1559 094a 31       		.byte	0x31
 1560 094b 1B       		.uleb128 0x1b
 1561 094c 01       		.uleb128 0x1
 1562 094d 52       		.byte	0x52
 1563 094e 02       		.uleb128 0x2
 1564 094f 78       		.byte	0x78
 1565 0950 00       		.sleb128 0
 1566 0951 1B       		.uleb128 0x1b
 1567 0952 01       		.uleb128 0x1
 1568 0953 51       		.byte	0x51
 1569 0954 02       		.uleb128 0x2
 1570 0955 08       		.byte	0x8
 1571 0956 30       		.byte	0x30
 1572 0957 1B       		.uleb128 0x1b
 1573 0958 01       		.uleb128 0x1
 1574 0959 50       		.byte	0x50
 1575 095a 01       		.uleb128 0x1
 1576 095b 31       		.byte	0x31
 1577 095c 1B       		.uleb128 0x1b
 1578 095d 02       		.uleb128 0x2
 1579 095e 7D       		.byte	0x7d
 1580 095f 0C       		.sleb128 12
 1581 0960 02       		.uleb128 0x2
 1582 0961 79       		.byte	0x79
 1583 0962 00       		.sleb128 0
 1584 0963 1B       		.uleb128 0x1b
 1585 0964 02       		.uleb128 0x2
 1586 0965 7D       		.byte	0x7d
 1587 0966 08       		.sleb128 8
 1588 0967 02       		.uleb128 0x2
 1589 0968 74       		.byte	0x74
 1590 0969 00       		.sleb128 0
 1591 096a 1B       		.uleb128 0x1b
 1592 096b 02       		.uleb128 0x2
 1593 096c 7D       		.byte	0x7d
 1594 096d 04       		.sleb128 4
 1595 096e 05       		.uleb128 0x5
 1596 096f 74       		.byte	0x74
ARM GAS  /tmp/ccOJ9AF7.s 			page 29


 1597 0970 00       		.sleb128 0
 1598 0971 76       		.byte	0x76
 1599 0972 00       		.sleb128 0
 1600 0973 22       		.byte	0x22
 1601 0974 1B       		.uleb128 0x1b
 1602 0975 02       		.uleb128 0x2
 1603 0976 7D       		.byte	0x7d
 1604 0977 00       		.sleb128 0
 1605 0978 02       		.uleb128 0x2
 1606 0979 76       		.byte	0x76
 1607 097a 00       		.sleb128 0
 1608 097b 00       		.byte	0
 1609 097c 20       		.uleb128 0x20
 1610 097d 6C000000 		.4byte	.LVL23
 1611 0981 820B0000 		.4byte	0xb82
 1612 0985 1A       		.uleb128 0x1a
 1613 0986 72000000 		.4byte	.LVL24
 1614 098a EC0B0000 		.4byte	0xbec
 1615 098e 99090000 		.4byte	0x999
 1616 0992 1B       		.uleb128 0x1b
 1617 0993 01       		.uleb128 0x1
 1618 0994 50       		.byte	0x50
 1619 0995 02       		.uleb128 0x2
 1620 0996 08       		.byte	0x8
 1621 0997 2C       		.byte	0x2c
 1622 0998 00       		.byte	0
 1623 0999 21       		.uleb128 0x21
 1624 099a 7E000000 		.4byte	.LVL26
 1625 099e 020C0000 		.4byte	0xc02
 1626 09a2 1B       		.uleb128 0x1b
 1627 09a3 01       		.uleb128 0x1
 1628 09a4 52       		.byte	0x52
 1629 09a5 02       		.uleb128 0x2
 1630 09a6 77       		.byte	0x77
 1631 09a7 00       		.sleb128 0
 1632 09a8 1B       		.uleb128 0x1b
 1633 09a9 01       		.uleb128 0x1
 1634 09aa 51       		.byte	0x51
 1635 09ab 02       		.uleb128 0x2
 1636 09ac 75       		.byte	0x75
 1637 09ad 00       		.sleb128 0
 1638 09ae 1B       		.uleb128 0x1b
 1639 09af 01       		.uleb128 0x1
 1640 09b0 50       		.byte	0x50
 1641 09b1 02       		.uleb128 0x2
 1642 09b2 76       		.byte	0x76
 1643 09b3 00       		.sleb128 0
 1644 09b4 00       		.byte	0
 1645 09b5 00       		.byte	0
 1646 09b6 17       		.uleb128 0x17
 1647 09b7 F7020000 		.4byte	.LASF114
 1648 09bb 01       		.byte	0x1
 1649 09bc 80       		.byte	0x80
 1650 09bd 00000000 		.4byte	.LFB258
 1651 09c1 62000000 		.4byte	.LFE258-.LFB258
 1652 09c5 01       		.uleb128 0x1
 1653 09c6 9C       		.byte	0x9c
ARM GAS  /tmp/ccOJ9AF7.s 			page 30


 1654 09c7 C30A0000 		.4byte	0xac3
 1655 09cb 19       		.uleb128 0x19
 1656 09cc 0B020000 		.4byte	.LASF109
 1657 09d0 01       		.byte	0x1
 1658 09d1 80       		.byte	0x80
 1659 09d2 38080000 		.4byte	0x838
 1660 09d6 05010000 		.4byte	.LLST7
 1661 09da 19       		.uleb128 0x19
 1662 09db A0040000 		.4byte	.LASF110
 1663 09df 01       		.byte	0x1
 1664 09e0 80       		.byte	0x80
 1665 09e1 10070000 		.4byte	0x710
 1666 09e5 3C010000 		.4byte	.LLST8
 1667 09e9 19       		.uleb128 0x19
 1668 09ea D0050000 		.4byte	.LASF111
 1669 09ee 01       		.byte	0x1
 1670 09ef 80       		.byte	0x80
 1671 09f0 10070000 		.4byte	0x710
 1672 09f4 68010000 		.4byte	.LLST9
 1673 09f8 19       		.uleb128 0x19
 1674 09f9 CD000000 		.4byte	.LASF112
 1675 09fd 01       		.byte	0x1
 1676 09fe 80       		.byte	0x80
 1677 09ff 10070000 		.4byte	0x710
 1678 0a03 A2010000 		.4byte	.LLST10
 1679 0a07 18       		.uleb128 0x18
 1680 0a08 6D00     		.ascii	"m\000"
 1681 0a0a 01       		.byte	0x1
 1682 0a0b 80       		.byte	0x80
 1683 0a0c 10070000 		.4byte	0x710
 1684 0a10 CE010000 		.4byte	.LLST11
 1685 0a14 22       		.uleb128 0x22
 1686 0a15 41060000 		.4byte	.LASF116
 1687 0a19 01       		.byte	0x1
 1688 0a1a 82       		.byte	0x82
 1689 0a1b 10070000 		.4byte	0x710
 1690 0a1f FA010000 		.4byte	.LLST12
 1691 0a23 1A       		.uleb128 0x1a
 1692 0a24 20000000 		.4byte	.LVL31
 1693 0a28 180B0000 		.4byte	0xb18
 1694 0a2c 450A0000 		.4byte	0xa45
 1695 0a30 1B       		.uleb128 0x1b
 1696 0a31 01       		.uleb128 0x1
 1697 0a32 52       		.byte	0x52
 1698 0a33 03       		.uleb128 0x3
 1699 0a34 F3       		.byte	0xf3
 1700 0a35 01       		.uleb128 0x1
 1701 0a36 50       		.byte	0x50
 1702 0a37 1B       		.uleb128 0x1b
 1703 0a38 01       		.uleb128 0x1
 1704 0a39 51       		.byte	0x51
 1705 0a3a 02       		.uleb128 0x2
 1706 0a3b 74       		.byte	0x74
 1707 0a3c 00       		.sleb128 0
 1708 0a3d 1B       		.uleb128 0x1b
 1709 0a3e 01       		.uleb128 0x1
 1710 0a3f 50       		.byte	0x50
ARM GAS  /tmp/ccOJ9AF7.s 			page 31


 1711 0a40 03       		.uleb128 0x3
 1712 0a41 0A       		.byte	0xa
 1713 0a42 8002     		.2byte	0x280
 1714 0a44 00       		.byte	0
 1715 0a45 1A       		.uleb128 0x1a
 1716 0a46 3C000000 		.4byte	.LVL32
 1717 0a4a 220C0000 		.4byte	0xc22
 1718 0a4e 870A0000 		.4byte	0xa87
 1719 0a52 1B       		.uleb128 0x1b
 1720 0a53 01       		.uleb128 0x1
 1721 0a54 53       		.byte	0x53
 1722 0a55 02       		.uleb128 0x2
 1723 0a56 08       		.byte	0x8
 1724 0a57 32       		.byte	0x32
 1725 0a58 1B       		.uleb128 0x1b
 1726 0a59 01       		.uleb128 0x1
 1727 0a5a 52       		.byte	0x52
 1728 0a5b 02       		.uleb128 0x2
 1729 0a5c 78       		.byte	0x78
 1730 0a5d 00       		.sleb128 0
 1731 0a5e 1B       		.uleb128 0x1b
 1732 0a5f 01       		.uleb128 0x1
 1733 0a60 51       		.byte	0x51
 1734 0a61 02       		.uleb128 0x2
 1735 0a62 08       		.byte	0x8
 1736 0a63 30       		.byte	0x30
 1737 0a64 1B       		.uleb128 0x1b
 1738 0a65 01       		.uleb128 0x1
 1739 0a66 50       		.byte	0x50
 1740 0a67 01       		.uleb128 0x1
 1741 0a68 31       		.byte	0x31
 1742 0a69 1B       		.uleb128 0x1b
 1743 0a6a 02       		.uleb128 0x2
 1744 0a6b 7D       		.byte	0x7d
 1745 0a6c 0C       		.sleb128 12
 1746 0a6d 02       		.uleb128 0x2
 1747 0a6e 75       		.byte	0x75
 1748 0a6f 00       		.sleb128 0
 1749 0a70 1B       		.uleb128 0x1b
 1750 0a71 02       		.uleb128 0x2
 1751 0a72 7D       		.byte	0x7d
 1752 0a73 08       		.sleb128 8
 1753 0a74 02       		.uleb128 0x2
 1754 0a75 79       		.byte	0x79
 1755 0a76 00       		.sleb128 0
 1756 0a77 1B       		.uleb128 0x1b
 1757 0a78 02       		.uleb128 0x2
 1758 0a79 7D       		.byte	0x7d
 1759 0a7a 04       		.sleb128 4
 1760 0a7b 02       		.uleb128 0x2
 1761 0a7c 77       		.byte	0x77
 1762 0a7d 00       		.sleb128 0
 1763 0a7e 1B       		.uleb128 0x1b
 1764 0a7f 02       		.uleb128 0x2
 1765 0a80 7D       		.byte	0x7d
 1766 0a81 00       		.sleb128 0
 1767 0a82 03       		.uleb128 0x3
ARM GAS  /tmp/ccOJ9AF7.s 			page 32


 1768 0a83 0A       		.byte	0xa
 1769 0a84 8102     		.2byte	0x281
 1770 0a86 00       		.byte	0
 1771 0a87 20       		.uleb128 0x20
 1772 0a88 40000000 		.4byte	.LVL33
 1773 0a8c 820B0000 		.4byte	0xb82
 1774 0a90 1A       		.uleb128 0x1a
 1775 0a91 50000000 		.4byte	.LVL34
 1776 0a95 5B0C0000 		.4byte	0xc5b
 1777 0a99 B90A0000 		.4byte	0xab9
 1778 0a9d 1B       		.uleb128 0x1b
 1779 0a9e 01       		.uleb128 0x1
 1780 0a9f 53       		.byte	0x53
 1781 0aa0 02       		.uleb128 0x2
 1782 0aa1 77       		.byte	0x77
 1783 0aa2 00       		.sleb128 0
 1784 0aa3 1B       		.uleb128 0x1b
 1785 0aa4 01       		.uleb128 0x1
 1786 0aa5 52       		.byte	0x52
 1787 0aa6 05       		.uleb128 0x5
 1788 0aa7 76       		.byte	0x76
 1789 0aa8 00       		.sleb128 0
 1790 0aa9 74       		.byte	0x74
 1791 0aaa 00       		.sleb128 0
 1792 0aab 22       		.byte	0x22
 1793 0aac 1B       		.uleb128 0x1b
 1794 0aad 01       		.uleb128 0x1
 1795 0aae 51       		.byte	0x51
 1796 0aaf 03       		.uleb128 0x3
 1797 0ab0 0A       		.byte	0xa
 1798 0ab1 8002     		.2byte	0x280
 1799 0ab3 1B       		.uleb128 0x1b
 1800 0ab4 01       		.uleb128 0x1
 1801 0ab5 50       		.byte	0x50
 1802 0ab6 01       		.uleb128 0x1
 1803 0ab7 31       		.byte	0x31
 1804 0ab8 00       		.byte	0
 1805 0ab9 23       		.uleb128 0x23
 1806 0aba 5A000000 		.4byte	.LVL36
 1807 0abe 820B0000 		.4byte	0xb82
 1808 0ac2 00       		.byte	0
 1809 0ac3 17       		.uleb128 0x17
 1810 0ac4 44030000 		.4byte	.LASF117
 1811 0ac8 01       		.byte	0x1
 1812 0ac9 A6       		.byte	0xa6
 1813 0aca 00000000 		.4byte	.LFB259
 1814 0ace 16000000 		.4byte	.LFE259-.LFB259
 1815 0ad2 01       		.uleb128 0x1
 1816 0ad3 9C       		.byte	0x9c
 1817 0ad4 010B0000 		.4byte	0xb01
 1818 0ad8 1A       		.uleb128 0x1a
 1819 0ad9 0E000000 		.4byte	.LVL39
 1820 0add 800C0000 		.4byte	0xc80
 1821 0ae1 F70A0000 		.4byte	0xaf7
 1822 0ae5 1B       		.uleb128 0x1b
 1823 0ae6 01       		.uleb128 0x1
 1824 0ae7 52       		.byte	0x52
ARM GAS  /tmp/ccOJ9AF7.s 			page 33


 1825 0ae8 03       		.uleb128 0x3
 1826 0ae9 0A       		.byte	0xa
 1827 0aea 2303     		.2byte	0x323
 1828 0aec 1B       		.uleb128 0x1b
 1829 0aed 01       		.uleb128 0x1
 1830 0aee 51       		.byte	0x51
 1831 0aef 01       		.uleb128 0x1
 1832 0af0 32       		.byte	0x32
 1833 0af1 1B       		.uleb128 0x1b
 1834 0af2 01       		.uleb128 0x1
 1835 0af3 50       		.byte	0x50
 1836 0af4 01       		.uleb128 0x1
 1837 0af5 31       		.byte	0x31
 1838 0af6 00       		.byte	0
 1839 0af7 23       		.uleb128 0x23
 1840 0af8 16000000 		.4byte	.LVL40
 1841 0afc 820B0000 		.4byte	0xb82
 1842 0b00 00       		.byte	0
 1843 0b01 24       		.uleb128 0x24
 1844 0b02 AF000000 		.4byte	.LASF118
 1845 0b06 0E       		.byte	0xe
 1846 0b07 A706     		.2byte	0x6a7
 1847 0b09 C3000000 		.4byte	0xc3
 1848 0b0d 25       		.uleb128 0x25
 1849 0b0e 636800   		.ascii	"ch\000"
 1850 0b11 06       		.byte	0x6
 1851 0b12 0902     		.2byte	0x209
 1852 0b14 FD030000 		.4byte	0x3fd
 1853 0b18 26       		.uleb128 0x26
 1854 0b19 7E060000 		.4byte	.LASF119
 1855 0b1d 0D       		.byte	0xd
 1856 0b1e B101     		.2byte	0x1b1
 1857 0b20 10070000 		.4byte	0x710
 1858 0b24 380B0000 		.4byte	0xb38
 1859 0b28 0D       		.uleb128 0xd
 1860 0b29 1B070000 		.4byte	0x71b
 1861 0b2d 0D       		.uleb128 0xd
 1862 0b2e 1B070000 		.4byte	0x71b
 1863 0b32 0D       		.uleb128 0xd
 1864 0b33 38080000 		.4byte	0x838
 1865 0b37 00       		.byte	0
 1866 0b38 26       		.uleb128 0x26
 1867 0b39 A1020000 		.4byte	.LASF120
 1868 0b3d 0D       		.byte	0xd
 1869 0b3e C501     		.2byte	0x1c5
 1870 0b40 10070000 		.4byte	0x710
 1871 0b44 5D0B0000 		.4byte	0xb5d
 1872 0b48 0D       		.uleb128 0xd
 1873 0b49 10070000 		.4byte	0x710
 1874 0b4d 0D       		.uleb128 0xd
 1875 0b4e 1B070000 		.4byte	0x71b
 1876 0b52 0D       		.uleb128 0xd
 1877 0b53 1B070000 		.4byte	0x71b
 1878 0b57 0D       		.uleb128 0xd
 1879 0b58 1B070000 		.4byte	0x71b
 1880 0b5c 00       		.byte	0
 1881 0b5d 26       		.uleb128 0x26
ARM GAS  /tmp/ccOJ9AF7.s 			page 34


 1882 0b5e 43000000 		.4byte	.LASF121
 1883 0b62 0D       		.byte	0xd
 1884 0b63 BA01     		.2byte	0x1ba
 1885 0b65 10070000 		.4byte	0x710
 1886 0b69 820B0000 		.4byte	0xb82
 1887 0b6d 0D       		.uleb128 0xd
 1888 0b6e 10070000 		.4byte	0x710
 1889 0b72 0D       		.uleb128 0xd
 1890 0b73 1B070000 		.4byte	0x71b
 1891 0b77 0D       		.uleb128 0xd
 1892 0b78 10070000 		.4byte	0x710
 1893 0b7c 0D       		.uleb128 0xd
 1894 0b7d 38080000 		.4byte	0x838
 1895 0b81 00       		.byte	0
 1896 0b82 27       		.uleb128 0x27
 1897 0b83 23020000 		.4byte	.LASF132
 1898 0b87 0D       		.byte	0xd
 1899 0b88 9901     		.2byte	0x199
 1900 0b8a 10070000 		.4byte	0x710
 1901 0b8e 26       		.uleb128 0x26
 1902 0b8f 3D020000 		.4byte	.LASF122
 1903 0b93 0D       		.byte	0xd
 1904 0b94 C401     		.2byte	0x1c4
 1905 0b96 10070000 		.4byte	0x710
 1906 0b9a B30B0000 		.4byte	0xbb3
 1907 0b9e 0D       		.uleb128 0xd
 1908 0b9f 10070000 		.4byte	0x710
 1909 0ba3 0D       		.uleb128 0xd
 1910 0ba4 1B070000 		.4byte	0x71b
 1911 0ba8 0D       		.uleb128 0xd
 1912 0ba9 1B070000 		.4byte	0x71b
 1913 0bad 0D       		.uleb128 0xd
 1914 0bae 1B070000 		.4byte	0x71b
 1915 0bb2 00       		.byte	0
 1916 0bb3 26       		.uleb128 0x26
 1917 0bb4 52060000 		.4byte	.LASF123
 1918 0bb8 0D       		.byte	0xd
 1919 0bb9 D001     		.2byte	0x1d0
 1920 0bbb 10070000 		.4byte	0x710
 1921 0bbf EC0B0000 		.4byte	0xbec
 1922 0bc3 0D       		.uleb128 0xd
 1923 0bc4 10070000 		.4byte	0x710
 1924 0bc8 0D       		.uleb128 0xd
 1925 0bc9 10070000 		.4byte	0x710
 1926 0bcd 0D       		.uleb128 0xd
 1927 0bce 10070000 		.4byte	0x710
 1928 0bd2 0D       		.uleb128 0xd
 1929 0bd3 10070000 		.4byte	0x710
 1930 0bd7 0D       		.uleb128 0xd
 1931 0bd8 1B070000 		.4byte	0x71b
 1932 0bdc 0D       		.uleb128 0xd
 1933 0bdd 1B070000 		.4byte	0x71b
 1934 0be1 0D       		.uleb128 0xd
 1935 0be2 10070000 		.4byte	0x710
 1936 0be6 0D       		.uleb128 0xd
 1937 0be7 10070000 		.4byte	0x710
 1938 0beb 00       		.byte	0
ARM GAS  /tmp/ccOJ9AF7.s 			page 35


 1939 0bec 26       		.uleb128 0x26
 1940 0bed 27040000 		.4byte	.LASF124
 1941 0bf1 0D       		.byte	0xd
 1942 0bf2 D901     		.2byte	0x1d9
 1943 0bf4 10070000 		.4byte	0x710
 1944 0bf8 020C0000 		.4byte	0xc02
 1945 0bfc 0D       		.uleb128 0xd
 1946 0bfd 10070000 		.4byte	0x710
 1947 0c01 00       		.byte	0
 1948 0c02 26       		.uleb128 0x26
 1949 0c03 2C010000 		.4byte	.LASF125
 1950 0c07 0D       		.byte	0xd
 1951 0c08 AD01     		.2byte	0x1ad
 1952 0c0a 10070000 		.4byte	0x710
 1953 0c0e 220C0000 		.4byte	0xc22
 1954 0c12 0D       		.uleb128 0xd
 1955 0c13 1B070000 		.4byte	0x71b
 1956 0c17 0D       		.uleb128 0xd
 1957 0c18 1B070000 		.4byte	0x71b
 1958 0c1c 0D       		.uleb128 0xd
 1959 0c1d 38080000 		.4byte	0x838
 1960 0c21 00       		.byte	0
 1961 0c22 26       		.uleb128 0x26
 1962 0c23 74010000 		.4byte	.LASF126
 1963 0c27 0D       		.byte	0xd
 1964 0c28 CE01     		.2byte	0x1ce
 1965 0c2a 10070000 		.4byte	0x710
 1966 0c2e 5B0C0000 		.4byte	0xc5b
 1967 0c32 0D       		.uleb128 0xd
 1968 0c33 10070000 		.4byte	0x710
 1969 0c37 0D       		.uleb128 0xd
 1970 0c38 10070000 		.4byte	0x710
 1971 0c3c 0D       		.uleb128 0xd
 1972 0c3d 10070000 		.4byte	0x710
 1973 0c41 0D       		.uleb128 0xd
 1974 0c42 10070000 		.4byte	0x710
 1975 0c46 0D       		.uleb128 0xd
 1976 0c47 1B070000 		.4byte	0x71b
 1977 0c4b 0D       		.uleb128 0xd
 1978 0c4c 1B070000 		.4byte	0x71b
 1979 0c50 0D       		.uleb128 0xd
 1980 0c51 10070000 		.4byte	0x710
 1981 0c55 0D       		.uleb128 0xd
 1982 0c56 10070000 		.4byte	0x710
 1983 0c5a 00       		.byte	0
 1984 0c5b 26       		.uleb128 0x26
 1985 0c5c 50020000 		.4byte	.LASF127
 1986 0c60 0D       		.byte	0xd
 1987 0c61 BE01     		.2byte	0x1be
 1988 0c63 10070000 		.4byte	0x710
 1989 0c67 800C0000 		.4byte	0xc80
 1990 0c6b 0D       		.uleb128 0xd
 1991 0c6c 10070000 		.4byte	0x710
 1992 0c70 0D       		.uleb128 0xd
 1993 0c71 1B070000 		.4byte	0x71b
 1994 0c75 0D       		.uleb128 0xd
 1995 0c76 10070000 		.4byte	0x710
ARM GAS  /tmp/ccOJ9AF7.s 			page 36


 1996 0c7a 0D       		.uleb128 0xd
 1997 0c7b 38080000 		.4byte	0x838
 1998 0c7f 00       		.byte	0
 1999 0c80 28       		.uleb128 0x28
 2000 0c81 B7030000 		.4byte	.LASF133
 2001 0c85 0D       		.byte	0xd
 2002 0c86 D601     		.2byte	0x1d6
 2003 0c88 10070000 		.4byte	0x710
 2004 0c8c 0D       		.uleb128 0xd
 2005 0c8d 10070000 		.4byte	0x710
 2006 0c91 0D       		.uleb128 0xd
 2007 0c92 10070000 		.4byte	0x710
 2008 0c96 0D       		.uleb128 0xd
 2009 0c97 1B070000 		.4byte	0x71b
 2010 0c9b 00       		.byte	0
 2011 0c9c 00       		.byte	0
 2012              		.section	.debug_abbrev,"",%progbits
 2013              	.Ldebug_abbrev0:
 2014 0000 01       		.uleb128 0x1
 2015 0001 11       		.uleb128 0x11
 2016 0002 01       		.byte	0x1
 2017 0003 25       		.uleb128 0x25
 2018 0004 0E       		.uleb128 0xe
 2019 0005 13       		.uleb128 0x13
 2020 0006 0B       		.uleb128 0xb
 2021 0007 03       		.uleb128 0x3
 2022 0008 0E       		.uleb128 0xe
 2023 0009 1B       		.uleb128 0x1b
 2024 000a 0E       		.uleb128 0xe
 2025 000b 55       		.uleb128 0x55
 2026 000c 17       		.uleb128 0x17
 2027 000d 11       		.uleb128 0x11
 2028 000e 01       		.uleb128 0x1
 2029 000f 10       		.uleb128 0x10
 2030 0010 17       		.uleb128 0x17
 2031 0011 00       		.byte	0
 2032 0012 00       		.byte	0
 2033 0013 02       		.uleb128 0x2
 2034 0014 24       		.uleb128 0x24
 2035 0015 00       		.byte	0
 2036 0016 0B       		.uleb128 0xb
 2037 0017 0B       		.uleb128 0xb
 2038 0018 3E       		.uleb128 0x3e
 2039 0019 0B       		.uleb128 0xb
 2040 001a 03       		.uleb128 0x3
 2041 001b 0E       		.uleb128 0xe
 2042 001c 00       		.byte	0
 2043 001d 00       		.byte	0
 2044 001e 03       		.uleb128 0x3
 2045 001f 16       		.uleb128 0x16
 2046 0020 00       		.byte	0
 2047 0021 03       		.uleb128 0x3
 2048 0022 0E       		.uleb128 0xe
 2049 0023 3A       		.uleb128 0x3a
 2050 0024 0B       		.uleb128 0xb
 2051 0025 3B       		.uleb128 0x3b
 2052 0026 0B       		.uleb128 0xb
ARM GAS  /tmp/ccOJ9AF7.s 			page 37


 2053 0027 49       		.uleb128 0x49
 2054 0028 13       		.uleb128 0x13
 2055 0029 00       		.byte	0
 2056 002a 00       		.byte	0
 2057 002b 04       		.uleb128 0x4
 2058 002c 24       		.uleb128 0x24
 2059 002d 00       		.byte	0
 2060 002e 0B       		.uleb128 0xb
 2061 002f 0B       		.uleb128 0xb
 2062 0030 3E       		.uleb128 0x3e
 2063 0031 0B       		.uleb128 0xb
 2064 0032 03       		.uleb128 0x3
 2065 0033 08       		.uleb128 0x8
 2066 0034 00       		.byte	0
 2067 0035 00       		.byte	0
 2068 0036 05       		.uleb128 0x5
 2069 0037 35       		.uleb128 0x35
 2070 0038 00       		.byte	0
 2071 0039 49       		.uleb128 0x49
 2072 003a 13       		.uleb128 0x13
 2073 003b 00       		.byte	0
 2074 003c 00       		.byte	0
 2075 003d 06       		.uleb128 0x6
 2076 003e 13       		.uleb128 0x13
 2077 003f 01       		.byte	0x1
 2078 0040 03       		.uleb128 0x3
 2079 0041 0E       		.uleb128 0xe
 2080 0042 0B       		.uleb128 0xb
 2081 0043 0B       		.uleb128 0xb
 2082 0044 3A       		.uleb128 0x3a
 2083 0045 0B       		.uleb128 0xb
 2084 0046 3B       		.uleb128 0x3b
 2085 0047 0B       		.uleb128 0xb
 2086 0048 01       		.uleb128 0x1
 2087 0049 13       		.uleb128 0x13
 2088 004a 00       		.byte	0
 2089 004b 00       		.byte	0
 2090 004c 07       		.uleb128 0x7
 2091 004d 0D       		.uleb128 0xd
 2092 004e 00       		.byte	0
 2093 004f 03       		.uleb128 0x3
 2094 0050 0E       		.uleb128 0xe
 2095 0051 3A       		.uleb128 0x3a
 2096 0052 0B       		.uleb128 0xb
 2097 0053 3B       		.uleb128 0x3b
 2098 0054 0B       		.uleb128 0xb
 2099 0055 49       		.uleb128 0x49
 2100 0056 13       		.uleb128 0x13
 2101 0057 38       		.uleb128 0x38
 2102 0058 0B       		.uleb128 0xb
 2103 0059 00       		.byte	0
 2104 005a 00       		.byte	0
 2105 005b 08       		.uleb128 0x8
 2106 005c 0D       		.uleb128 0xd
 2107 005d 00       		.byte	0
 2108 005e 03       		.uleb128 0x3
 2109 005f 08       		.uleb128 0x8
ARM GAS  /tmp/ccOJ9AF7.s 			page 38


 2110 0060 3A       		.uleb128 0x3a
 2111 0061 0B       		.uleb128 0xb
 2112 0062 3B       		.uleb128 0x3b
 2113 0063 05       		.uleb128 0x5
 2114 0064 49       		.uleb128 0x49
 2115 0065 13       		.uleb128 0x13
 2116 0066 38       		.uleb128 0x38
 2117 0067 0B       		.uleb128 0xb
 2118 0068 00       		.byte	0
 2119 0069 00       		.byte	0
 2120 006a 09       		.uleb128 0x9
 2121 006b 0D       		.uleb128 0xd
 2122 006c 00       		.byte	0
 2123 006d 03       		.uleb128 0x3
 2124 006e 0E       		.uleb128 0xe
 2125 006f 3A       		.uleb128 0x3a
 2126 0070 0B       		.uleb128 0xb
 2127 0071 3B       		.uleb128 0x3b
 2128 0072 05       		.uleb128 0x5
 2129 0073 49       		.uleb128 0x49
 2130 0074 13       		.uleb128 0x13
 2131 0075 38       		.uleb128 0x38
 2132 0076 0B       		.uleb128 0xb
 2133 0077 00       		.byte	0
 2134 0078 00       		.byte	0
 2135 0079 0A       		.uleb128 0xa
 2136 007a 0F       		.uleb128 0xf
 2137 007b 00       		.byte	0
 2138 007c 0B       		.uleb128 0xb
 2139 007d 0B       		.uleb128 0xb
 2140 007e 49       		.uleb128 0x49
 2141 007f 13       		.uleb128 0x13
 2142 0080 00       		.byte	0
 2143 0081 00       		.byte	0
 2144 0082 0B       		.uleb128 0xb
 2145 0083 13       		.uleb128 0x13
 2146 0084 01       		.byte	0x1
 2147 0085 03       		.uleb128 0x3
 2148 0086 0E       		.uleb128 0xe
 2149 0087 0B       		.uleb128 0xb
 2150 0088 0B       		.uleb128 0xb
 2151 0089 3A       		.uleb128 0x3a
 2152 008a 0B       		.uleb128 0xb
 2153 008b 3B       		.uleb128 0x3b
 2154 008c 05       		.uleb128 0x5
 2155 008d 01       		.uleb128 0x1
 2156 008e 13       		.uleb128 0x13
 2157 008f 00       		.byte	0
 2158 0090 00       		.byte	0
 2159 0091 0C       		.uleb128 0xc
 2160 0092 15       		.uleb128 0x15
 2161 0093 01       		.byte	0x1
 2162 0094 27       		.uleb128 0x27
 2163 0095 19       		.uleb128 0x19
 2164 0096 01       		.uleb128 0x1
 2165 0097 13       		.uleb128 0x13
 2166 0098 00       		.byte	0
ARM GAS  /tmp/ccOJ9AF7.s 			page 39


 2167 0099 00       		.byte	0
 2168 009a 0D       		.uleb128 0xd
 2169 009b 05       		.uleb128 0x5
 2170 009c 00       		.byte	0
 2171 009d 49       		.uleb128 0x49
 2172 009e 13       		.uleb128 0x13
 2173 009f 00       		.byte	0
 2174 00a0 00       		.byte	0
 2175 00a1 0E       		.uleb128 0xe
 2176 00a2 0F       		.uleb128 0xf
 2177 00a3 00       		.byte	0
 2178 00a4 0B       		.uleb128 0xb
 2179 00a5 0B       		.uleb128 0xb
 2180 00a6 00       		.byte	0
 2181 00a7 00       		.byte	0
 2182 00a8 0F       		.uleb128 0xf
 2183 00a9 13       		.uleb128 0x13
 2184 00aa 01       		.byte	0x1
 2185 00ab 03       		.uleb128 0x3
 2186 00ac 0E       		.uleb128 0xe
 2187 00ad 0B       		.uleb128 0xb
 2188 00ae 05       		.uleb128 0x5
 2189 00af 3A       		.uleb128 0x3a
 2190 00b0 0B       		.uleb128 0xb
 2191 00b1 3B       		.uleb128 0x3b
 2192 00b2 05       		.uleb128 0x5
 2193 00b3 01       		.uleb128 0x1
 2194 00b4 13       		.uleb128 0x13
 2195 00b5 00       		.byte	0
 2196 00b6 00       		.byte	0
 2197 00b7 10       		.uleb128 0x10
 2198 00b8 0D       		.uleb128 0xd
 2199 00b9 00       		.byte	0
 2200 00ba 03       		.uleb128 0x3
 2201 00bb 08       		.uleb128 0x8
 2202 00bc 3A       		.uleb128 0x3a
 2203 00bd 0B       		.uleb128 0xb
 2204 00be 3B       		.uleb128 0x3b
 2205 00bf 0B       		.uleb128 0xb
 2206 00c0 49       		.uleb128 0x49
 2207 00c1 13       		.uleb128 0x13
 2208 00c2 38       		.uleb128 0x38
 2209 00c3 0B       		.uleb128 0xb
 2210 00c4 00       		.byte	0
 2211 00c5 00       		.byte	0
 2212 00c6 11       		.uleb128 0x11
 2213 00c7 13       		.uleb128 0x13
 2214 00c8 01       		.byte	0x1
 2215 00c9 0B       		.uleb128 0xb
 2216 00ca 0B       		.uleb128 0xb
 2217 00cb 3A       		.uleb128 0x3a
 2218 00cc 0B       		.uleb128 0xb
 2219 00cd 3B       		.uleb128 0x3b
 2220 00ce 0B       		.uleb128 0xb
 2221 00cf 01       		.uleb128 0x1
 2222 00d0 13       		.uleb128 0x13
 2223 00d1 00       		.byte	0
ARM GAS  /tmp/ccOJ9AF7.s 			page 40


 2224 00d2 00       		.byte	0
 2225 00d3 12       		.uleb128 0x12
 2226 00d4 17       		.uleb128 0x17
 2227 00d5 01       		.byte	0x1
 2228 00d6 0B       		.uleb128 0xb
 2229 00d7 0B       		.uleb128 0xb
 2230 00d8 3A       		.uleb128 0x3a
 2231 00d9 0B       		.uleb128 0xb
 2232 00da 3B       		.uleb128 0x3b
 2233 00db 0B       		.uleb128 0xb
 2234 00dc 01       		.uleb128 0x1
 2235 00dd 13       		.uleb128 0x13
 2236 00de 00       		.byte	0
 2237 00df 00       		.byte	0
 2238 00e0 13       		.uleb128 0x13
 2239 00e1 0D       		.uleb128 0xd
 2240 00e2 00       		.byte	0
 2241 00e3 03       		.uleb128 0x3
 2242 00e4 0E       		.uleb128 0xe
 2243 00e5 3A       		.uleb128 0x3a
 2244 00e6 0B       		.uleb128 0xb
 2245 00e7 3B       		.uleb128 0x3b
 2246 00e8 05       		.uleb128 0x5
 2247 00e9 49       		.uleb128 0x49
 2248 00ea 13       		.uleb128 0x13
 2249 00eb 00       		.byte	0
 2250 00ec 00       		.byte	0
 2251 00ed 14       		.uleb128 0x14
 2252 00ee 26       		.uleb128 0x26
 2253 00ef 00       		.byte	0
 2254 00f0 49       		.uleb128 0x49
 2255 00f1 13       		.uleb128 0x13
 2256 00f2 00       		.byte	0
 2257 00f3 00       		.byte	0
 2258 00f4 15       		.uleb128 0x15
 2259 00f5 01       		.uleb128 0x1
 2260 00f6 01       		.byte	0x1
 2261 00f7 49       		.uleb128 0x49
 2262 00f8 13       		.uleb128 0x13
 2263 00f9 01       		.uleb128 0x1
 2264 00fa 13       		.uleb128 0x13
 2265 00fb 00       		.byte	0
 2266 00fc 00       		.byte	0
 2267 00fd 16       		.uleb128 0x16
 2268 00fe 21       		.uleb128 0x21
 2269 00ff 00       		.byte	0
 2270 0100 49       		.uleb128 0x49
 2271 0101 13       		.uleb128 0x13
 2272 0102 2F       		.uleb128 0x2f
 2273 0103 0B       		.uleb128 0xb
 2274 0104 00       		.byte	0
 2275 0105 00       		.byte	0
 2276 0106 17       		.uleb128 0x17
 2277 0107 2E       		.uleb128 0x2e
 2278 0108 01       		.byte	0x1
 2279 0109 3F       		.uleb128 0x3f
 2280 010a 19       		.uleb128 0x19
ARM GAS  /tmp/ccOJ9AF7.s 			page 41


 2281 010b 03       		.uleb128 0x3
 2282 010c 0E       		.uleb128 0xe
 2283 010d 3A       		.uleb128 0x3a
 2284 010e 0B       		.uleb128 0xb
 2285 010f 3B       		.uleb128 0x3b
 2286 0110 0B       		.uleb128 0xb
 2287 0111 27       		.uleb128 0x27
 2288 0112 19       		.uleb128 0x19
 2289 0113 11       		.uleb128 0x11
 2290 0114 01       		.uleb128 0x1
 2291 0115 12       		.uleb128 0x12
 2292 0116 06       		.uleb128 0x6
 2293 0117 40       		.uleb128 0x40
 2294 0118 18       		.uleb128 0x18
 2295 0119 9742     		.uleb128 0x2117
 2296 011b 19       		.uleb128 0x19
 2297 011c 01       		.uleb128 0x1
 2298 011d 13       		.uleb128 0x13
 2299 011e 00       		.byte	0
 2300 011f 00       		.byte	0
 2301 0120 18       		.uleb128 0x18
 2302 0121 05       		.uleb128 0x5
 2303 0122 00       		.byte	0
 2304 0123 03       		.uleb128 0x3
 2305 0124 08       		.uleb128 0x8
 2306 0125 3A       		.uleb128 0x3a
 2307 0126 0B       		.uleb128 0xb
 2308 0127 3B       		.uleb128 0x3b
 2309 0128 0B       		.uleb128 0xb
 2310 0129 49       		.uleb128 0x49
 2311 012a 13       		.uleb128 0x13
 2312 012b 02       		.uleb128 0x2
 2313 012c 17       		.uleb128 0x17
 2314 012d 00       		.byte	0
 2315 012e 00       		.byte	0
 2316 012f 19       		.uleb128 0x19
 2317 0130 05       		.uleb128 0x5
 2318 0131 00       		.byte	0
 2319 0132 03       		.uleb128 0x3
 2320 0133 0E       		.uleb128 0xe
 2321 0134 3A       		.uleb128 0x3a
 2322 0135 0B       		.uleb128 0xb
 2323 0136 3B       		.uleb128 0x3b
 2324 0137 0B       		.uleb128 0xb
 2325 0138 49       		.uleb128 0x49
 2326 0139 13       		.uleb128 0x13
 2327 013a 02       		.uleb128 0x2
 2328 013b 17       		.uleb128 0x17
 2329 013c 00       		.byte	0
 2330 013d 00       		.byte	0
 2331 013e 1A       		.uleb128 0x1a
 2332 013f 898201   		.uleb128 0x4109
 2333 0142 01       		.byte	0x1
 2334 0143 11       		.uleb128 0x11
 2335 0144 01       		.uleb128 0x1
 2336 0145 31       		.uleb128 0x31
 2337 0146 13       		.uleb128 0x13
ARM GAS  /tmp/ccOJ9AF7.s 			page 42


 2338 0147 01       		.uleb128 0x1
 2339 0148 13       		.uleb128 0x13
 2340 0149 00       		.byte	0
 2341 014a 00       		.byte	0
 2342 014b 1B       		.uleb128 0x1b
 2343 014c 8A8201   		.uleb128 0x410a
 2344 014f 00       		.byte	0
 2345 0150 02       		.uleb128 0x2
 2346 0151 18       		.uleb128 0x18
 2347 0152 9142     		.uleb128 0x2111
 2348 0154 18       		.uleb128 0x18
 2349 0155 00       		.byte	0
 2350 0156 00       		.byte	0
 2351 0157 1C       		.uleb128 0x1c
 2352 0158 898201   		.uleb128 0x4109
 2353 015b 01       		.byte	0x1
 2354 015c 11       		.uleb128 0x11
 2355 015d 01       		.uleb128 0x1
 2356 015e 9542     		.uleb128 0x2115
 2357 0160 19       		.uleb128 0x19
 2358 0161 31       		.uleb128 0x31
 2359 0162 13       		.uleb128 0x13
 2360 0163 00       		.byte	0
 2361 0164 00       		.byte	0
 2362 0165 1D       		.uleb128 0x1d
 2363 0166 2E       		.uleb128 0x2e
 2364 0167 01       		.byte	0x1
 2365 0168 3F       		.uleb128 0x3f
 2366 0169 19       		.uleb128 0x19
 2367 016a 03       		.uleb128 0x3
 2368 016b 0E       		.uleb128 0xe
 2369 016c 3A       		.uleb128 0x3a
 2370 016d 0B       		.uleb128 0xb
 2371 016e 3B       		.uleb128 0x3b
 2372 016f 0B       		.uleb128 0xb
 2373 0170 27       		.uleb128 0x27
 2374 0171 19       		.uleb128 0x19
 2375 0172 49       		.uleb128 0x49
 2376 0173 13       		.uleb128 0x13
 2377 0174 11       		.uleb128 0x11
 2378 0175 01       		.uleb128 0x1
 2379 0176 12       		.uleb128 0x12
 2380 0177 06       		.uleb128 0x6
 2381 0178 40       		.uleb128 0x40
 2382 0179 18       		.uleb128 0x18
 2383 017a 9742     		.uleb128 0x2117
 2384 017c 19       		.uleb128 0x19
 2385 017d 01       		.uleb128 0x1
 2386 017e 13       		.uleb128 0x13
 2387 017f 00       		.byte	0
 2388 0180 00       		.byte	0
 2389 0181 1E       		.uleb128 0x1e
 2390 0182 05       		.uleb128 0x5
 2391 0183 00       		.byte	0
 2392 0184 03       		.uleb128 0x3
 2393 0185 08       		.uleb128 0x8
 2394 0186 3A       		.uleb128 0x3a
ARM GAS  /tmp/ccOJ9AF7.s 			page 43


 2395 0187 0B       		.uleb128 0xb
 2396 0188 3B       		.uleb128 0x3b
 2397 0189 0B       		.uleb128 0xb
 2398 018a 49       		.uleb128 0x49
 2399 018b 13       		.uleb128 0x13
 2400 018c 02       		.uleb128 0x2
 2401 018d 18       		.uleb128 0x18
 2402 018e 00       		.byte	0
 2403 018f 00       		.byte	0
 2404 0190 1F       		.uleb128 0x1f
 2405 0191 34       		.uleb128 0x34
 2406 0192 00       		.byte	0
 2407 0193 03       		.uleb128 0x3
 2408 0194 0E       		.uleb128 0xe
 2409 0195 3A       		.uleb128 0x3a
 2410 0196 0B       		.uleb128 0xb
 2411 0197 3B       		.uleb128 0x3b
 2412 0198 0B       		.uleb128 0xb
 2413 0199 49       		.uleb128 0x49
 2414 019a 13       		.uleb128 0x13
 2415 019b 02       		.uleb128 0x2
 2416 019c 18       		.uleb128 0x18
 2417 019d 00       		.byte	0
 2418 019e 00       		.byte	0
 2419 019f 20       		.uleb128 0x20
 2420 01a0 898201   		.uleb128 0x4109
 2421 01a3 00       		.byte	0
 2422 01a4 11       		.uleb128 0x11
 2423 01a5 01       		.uleb128 0x1
 2424 01a6 31       		.uleb128 0x31
 2425 01a7 13       		.uleb128 0x13
 2426 01a8 00       		.byte	0
 2427 01a9 00       		.byte	0
 2428 01aa 21       		.uleb128 0x21
 2429 01ab 898201   		.uleb128 0x4109
 2430 01ae 01       		.byte	0x1
 2431 01af 11       		.uleb128 0x11
 2432 01b0 01       		.uleb128 0x1
 2433 01b1 31       		.uleb128 0x31
 2434 01b2 13       		.uleb128 0x13
 2435 01b3 00       		.byte	0
 2436 01b4 00       		.byte	0
 2437 01b5 22       		.uleb128 0x22
 2438 01b6 34       		.uleb128 0x34
 2439 01b7 00       		.byte	0
 2440 01b8 03       		.uleb128 0x3
 2441 01b9 0E       		.uleb128 0xe
 2442 01ba 3A       		.uleb128 0x3a
 2443 01bb 0B       		.uleb128 0xb
 2444 01bc 3B       		.uleb128 0x3b
 2445 01bd 0B       		.uleb128 0xb
 2446 01be 49       		.uleb128 0x49
 2447 01bf 13       		.uleb128 0x13
 2448 01c0 02       		.uleb128 0x2
 2449 01c1 17       		.uleb128 0x17
 2450 01c2 00       		.byte	0
 2451 01c3 00       		.byte	0
ARM GAS  /tmp/ccOJ9AF7.s 			page 44


 2452 01c4 23       		.uleb128 0x23
 2453 01c5 898201   		.uleb128 0x4109
 2454 01c8 00       		.byte	0
 2455 01c9 11       		.uleb128 0x11
 2456 01ca 01       		.uleb128 0x1
 2457 01cb 9542     		.uleb128 0x2115
 2458 01cd 19       		.uleb128 0x19
 2459 01ce 31       		.uleb128 0x31
 2460 01cf 13       		.uleb128 0x13
 2461 01d0 00       		.byte	0
 2462 01d1 00       		.byte	0
 2463 01d2 24       		.uleb128 0x24
 2464 01d3 34       		.uleb128 0x34
 2465 01d4 00       		.byte	0
 2466 01d5 03       		.uleb128 0x3
 2467 01d6 0E       		.uleb128 0xe
 2468 01d7 3A       		.uleb128 0x3a
 2469 01d8 0B       		.uleb128 0xb
 2470 01d9 3B       		.uleb128 0x3b
 2471 01da 05       		.uleb128 0x5
 2472 01db 49       		.uleb128 0x49
 2473 01dc 13       		.uleb128 0x13
 2474 01dd 3F       		.uleb128 0x3f
 2475 01de 19       		.uleb128 0x19
 2476 01df 3C       		.uleb128 0x3c
 2477 01e0 19       		.uleb128 0x19
 2478 01e1 00       		.byte	0
 2479 01e2 00       		.byte	0
 2480 01e3 25       		.uleb128 0x25
 2481 01e4 34       		.uleb128 0x34
 2482 01e5 00       		.byte	0
 2483 01e6 03       		.uleb128 0x3
 2484 01e7 08       		.uleb128 0x8
 2485 01e8 3A       		.uleb128 0x3a
 2486 01e9 0B       		.uleb128 0xb
 2487 01ea 3B       		.uleb128 0x3b
 2488 01eb 05       		.uleb128 0x5
 2489 01ec 49       		.uleb128 0x49
 2490 01ed 13       		.uleb128 0x13
 2491 01ee 3F       		.uleb128 0x3f
 2492 01ef 19       		.uleb128 0x19
 2493 01f0 3C       		.uleb128 0x3c
 2494 01f1 19       		.uleb128 0x19
 2495 01f2 00       		.byte	0
 2496 01f3 00       		.byte	0
 2497 01f4 26       		.uleb128 0x26
 2498 01f5 2E       		.uleb128 0x2e
 2499 01f6 01       		.byte	0x1
 2500 01f7 3F       		.uleb128 0x3f
 2501 01f8 19       		.uleb128 0x19
 2502 01f9 03       		.uleb128 0x3
 2503 01fa 0E       		.uleb128 0xe
 2504 01fb 3A       		.uleb128 0x3a
 2505 01fc 0B       		.uleb128 0xb
 2506 01fd 3B       		.uleb128 0x3b
 2507 01fe 05       		.uleb128 0x5
 2508 01ff 27       		.uleb128 0x27
ARM GAS  /tmp/ccOJ9AF7.s 			page 45


 2509 0200 19       		.uleb128 0x19
 2510 0201 49       		.uleb128 0x49
 2511 0202 13       		.uleb128 0x13
 2512 0203 3C       		.uleb128 0x3c
 2513 0204 19       		.uleb128 0x19
 2514 0205 01       		.uleb128 0x1
 2515 0206 13       		.uleb128 0x13
 2516 0207 00       		.byte	0
 2517 0208 00       		.byte	0
 2518 0209 27       		.uleb128 0x27
 2519 020a 2E       		.uleb128 0x2e
 2520 020b 00       		.byte	0
 2521 020c 3F       		.uleb128 0x3f
 2522 020d 19       		.uleb128 0x19
 2523 020e 03       		.uleb128 0x3
 2524 020f 0E       		.uleb128 0xe
 2525 0210 3A       		.uleb128 0x3a
 2526 0211 0B       		.uleb128 0xb
 2527 0212 3B       		.uleb128 0x3b
 2528 0213 05       		.uleb128 0x5
 2529 0214 27       		.uleb128 0x27
 2530 0215 19       		.uleb128 0x19
 2531 0216 49       		.uleb128 0x49
 2532 0217 13       		.uleb128 0x13
 2533 0218 3C       		.uleb128 0x3c
 2534 0219 19       		.uleb128 0x19
 2535 021a 00       		.byte	0
 2536 021b 00       		.byte	0
 2537 021c 28       		.uleb128 0x28
 2538 021d 2E       		.uleb128 0x2e
 2539 021e 01       		.byte	0x1
 2540 021f 3F       		.uleb128 0x3f
 2541 0220 19       		.uleb128 0x19
 2542 0221 03       		.uleb128 0x3
 2543 0222 0E       		.uleb128 0xe
 2544 0223 3A       		.uleb128 0x3a
 2545 0224 0B       		.uleb128 0xb
 2546 0225 3B       		.uleb128 0x3b
 2547 0226 05       		.uleb128 0x5
 2548 0227 27       		.uleb128 0x27
 2549 0228 19       		.uleb128 0x19
 2550 0229 49       		.uleb128 0x49
 2551 022a 13       		.uleb128 0x13
 2552 022b 3C       		.uleb128 0x3c
 2553 022c 19       		.uleb128 0x19
 2554 022d 00       		.byte	0
 2555 022e 00       		.byte	0
 2556 022f 00       		.byte	0
 2557              		.section	.debug_loc,"",%progbits
 2558              	.Ldebug_loc0:
 2559              	.LLST0:
 2560 0000 00000000 		.4byte	.LVL0
 2561 0004 08000000 		.4byte	.LVL1
 2562 0008 0100     		.2byte	0x1
 2563 000a 50       		.byte	0x50
 2564 000b 08000000 		.4byte	.LVL1
 2565 000f 13000000 		.4byte	.LVL4-1
ARM GAS  /tmp/ccOJ9AF7.s 			page 46


 2566 0013 0100     		.2byte	0x1
 2567 0015 53       		.byte	0x53
 2568 0016 13000000 		.4byte	.LVL4-1
 2569 001a 5A000000 		.4byte	.LFE256
 2570 001e 0400     		.2byte	0x4
 2571 0020 F3       		.byte	0xf3
 2572 0021 01       		.uleb128 0x1
 2573 0022 50       		.byte	0x50
 2574 0023 9F       		.byte	0x9f
 2575 0024 00000000 		.4byte	0
 2576 0028 00000000 		.4byte	0
 2577              	.LLST1:
 2578 002c 00000000 		.4byte	.LVL0
 2579 0030 0E000000 		.4byte	.LVL2
 2580 0034 0100     		.2byte	0x1
 2581 0036 51       		.byte	0x51
 2582 0037 0E000000 		.4byte	.LVL2
 2583 003b 56000000 		.4byte	.LVL9
 2584 003f 0100     		.2byte	0x1
 2585 0041 55       		.byte	0x55
 2586 0042 56000000 		.4byte	.LVL9
 2587 0046 5A000000 		.4byte	.LFE256
 2588 004a 0400     		.2byte	0x4
 2589 004c F3       		.byte	0xf3
 2590 004d 01       		.uleb128 0x1
 2591 004e 51       		.byte	0x51
 2592 004f 9F       		.byte	0x9f
 2593 0050 00000000 		.4byte	0
 2594 0054 00000000 		.4byte	0
 2595              	.LLST2:
 2596 0058 00000000 		.4byte	.LVL0
 2597 005c 10000000 		.4byte	.LVL3
 2598 0060 0100     		.2byte	0x1
 2599 0062 52       		.byte	0x52
 2600 0063 10000000 		.4byte	.LVL3
 2601 0067 56000000 		.4byte	.LVL9
 2602 006b 0100     		.2byte	0x1
 2603 006d 54       		.byte	0x54
 2604 006e 56000000 		.4byte	.LVL9
 2605 0072 5A000000 		.4byte	.LFE256
 2606 0076 0400     		.2byte	0x4
 2607 0078 F3       		.byte	0xf3
 2608 0079 01       		.uleb128 0x1
 2609 007a 52       		.byte	0x52
 2610 007b 9F       		.byte	0x9f
 2611 007c 00000000 		.4byte	0
 2612 0080 00000000 		.4byte	0
 2613              	.LLST3:
 2614 0084 00000000 		.4byte	.LVL11
 2615 0088 14000000 		.4byte	.LVL14
 2616 008c 0100     		.2byte	0x1
 2617 008e 50       		.byte	0x50
 2618 008f 14000000 		.4byte	.LVL14
 2619 0093 8C000000 		.4byte	.LFE257
 2620 0097 0100     		.2byte	0x1
 2621 0099 57       		.byte	0x57
 2622 009a 00000000 		.4byte	0
ARM GAS  /tmp/ccOJ9AF7.s 			page 47


 2623 009e 00000000 		.4byte	0
 2624              	.LLST4:
 2625 00a2 00000000 		.4byte	.LVL11
 2626 00a6 18000000 		.4byte	.LVL15
 2627 00aa 0100     		.2byte	0x1
 2628 00ac 51       		.byte	0x51
 2629 00ad 18000000 		.4byte	.LVL15
 2630 00b1 8C000000 		.4byte	.LFE257
 2631 00b5 0400     		.2byte	0x4
 2632 00b7 F3       		.byte	0xf3
 2633 00b8 01       		.uleb128 0x1
 2634 00b9 51       		.byte	0x51
 2635 00ba 9F       		.byte	0x9f
 2636 00bb 00000000 		.4byte	0
 2637 00bf 00000000 		.4byte	0
 2638              	.LLST5:
 2639 00c3 00000000 		.4byte	.LVL11
 2640 00c7 12000000 		.4byte	.LVL13
 2641 00cb 0100     		.2byte	0x1
 2642 00cd 52       		.byte	0x52
 2643 00ce 12000000 		.4byte	.LVL13
 2644 00d2 8C000000 		.4byte	.LFE257
 2645 00d6 0400     		.2byte	0x4
 2646 00d8 F3       		.byte	0xf3
 2647 00d9 01       		.uleb128 0x1
 2648 00da 52       		.byte	0x52
 2649 00db 9F       		.byte	0x9f
 2650 00dc 00000000 		.4byte	0
 2651 00e0 00000000 		.4byte	0
 2652              	.LLST6:
 2653 00e4 00000000 		.4byte	.LVL11
 2654 00e8 10000000 		.4byte	.LVL12
 2655 00ec 0100     		.2byte	0x1
 2656 00ee 53       		.byte	0x53
 2657 00ef 10000000 		.4byte	.LVL12
 2658 00f3 8C000000 		.4byte	.LFE257
 2659 00f7 0400     		.2byte	0x4
 2660 00f9 F3       		.byte	0xf3
 2661 00fa 01       		.uleb128 0x1
 2662 00fb 53       		.byte	0x53
 2663 00fc 9F       		.byte	0x9f
 2664 00fd 00000000 		.4byte	0
 2665 0101 00000000 		.4byte	0
 2666              	.LLST7:
 2667 0105 00000000 		.4byte	.LVL27
 2668 0109 1C000000 		.4byte	.LVL30
 2669 010d 0100     		.2byte	0x1
 2670 010f 50       		.byte	0x50
 2671 0110 1C000000 		.4byte	.LVL30
 2672 0114 1F000000 		.4byte	.LVL31-1
 2673 0118 0100     		.2byte	0x1
 2674 011a 52       		.byte	0x52
 2675 011b 1F000000 		.4byte	.LVL31-1
 2676 011f 5A000000 		.4byte	.LVL36
 2677 0123 0400     		.2byte	0x4
 2678 0125 F3       		.byte	0xf3
 2679 0126 01       		.uleb128 0x1
ARM GAS  /tmp/ccOJ9AF7.s 			page 48


 2680 0127 50       		.byte	0x50
 2681 0128 9F       		.byte	0x9f
 2682 0129 5A000000 		.4byte	.LVL36
 2683 012d 62000000 		.4byte	.LFE258
 2684 0131 0100     		.2byte	0x1
 2685 0133 50       		.byte	0x50
 2686 0134 00000000 		.4byte	0
 2687 0138 00000000 		.4byte	0
 2688              	.LLST8:
 2689 013c 00000000 		.4byte	.LVL27
 2690 0140 18000000 		.4byte	.LVL29
 2691 0144 0100     		.2byte	0x1
 2692 0146 51       		.byte	0x51
 2693 0147 18000000 		.4byte	.LVL29
 2694 014b 5A000000 		.4byte	.LVL36
 2695 014f 0400     		.2byte	0x4
 2696 0151 F3       		.byte	0xf3
 2697 0152 01       		.uleb128 0x1
 2698 0153 51       		.byte	0x51
 2699 0154 9F       		.byte	0x9f
 2700 0155 5A000000 		.4byte	.LVL36
 2701 0159 62000000 		.4byte	.LFE258
 2702 015d 0100     		.2byte	0x1
 2703 015f 51       		.byte	0x51
 2704 0160 00000000 		.4byte	0
 2705 0164 00000000 		.4byte	0
 2706              	.LLST9:
 2707 0168 00000000 		.4byte	.LVL27
 2708 016c 14000000 		.4byte	.LVL28
 2709 0170 0100     		.2byte	0x1
 2710 0172 52       		.byte	0x52
 2711 0173 14000000 		.4byte	.LVL28
 2712 0177 5A000000 		.4byte	.LVL36
 2713 017b 0400     		.2byte	0x4
 2714 017d F3       		.byte	0xf3
 2715 017e 01       		.uleb128 0x1
 2716 017f 52       		.byte	0x52
 2717 0180 9F       		.byte	0x9f
 2718 0181 5A000000 		.4byte	.LVL36
 2719 0185 5C000000 		.4byte	.LVL37
 2720 0189 0100     		.2byte	0x1
 2721 018b 52       		.byte	0x52
 2722 018c 5C000000 		.4byte	.LVL37
 2723 0190 62000000 		.4byte	.LFE258
 2724 0194 0400     		.2byte	0x4
 2725 0196 F3       		.byte	0xf3
 2726 0197 01       		.uleb128 0x1
 2727 0198 52       		.byte	0x52
 2728 0199 9F       		.byte	0x9f
 2729 019a 00000000 		.4byte	0
 2730 019e 00000000 		.4byte	0
 2731              	.LLST10:
 2732 01a2 00000000 		.4byte	.LVL27
 2733 01a6 1F000000 		.4byte	.LVL31-1
 2734 01aa 0100     		.2byte	0x1
 2735 01ac 53       		.byte	0x53
 2736 01ad 1F000000 		.4byte	.LVL31-1
ARM GAS  /tmp/ccOJ9AF7.s 			page 49


 2737 01b1 5A000000 		.4byte	.LVL36
 2738 01b5 0400     		.2byte	0x4
 2739 01b7 F3       		.byte	0xf3
 2740 01b8 01       		.uleb128 0x1
 2741 01b9 53       		.byte	0x53
 2742 01ba 9F       		.byte	0x9f
 2743 01bb 5A000000 		.4byte	.LVL36
 2744 01bf 62000000 		.4byte	.LFE258
 2745 01c3 0100     		.2byte	0x1
 2746 01c5 53       		.byte	0x53
 2747 01c6 00000000 		.4byte	0
 2748 01ca 00000000 		.4byte	0
 2749              	.LLST11:
 2750 01ce 00000000 		.4byte	.LVL27
 2751 01d2 56000000 		.4byte	.LVL35
 2752 01d6 0200     		.2byte	0x2
 2753 01d8 91       		.byte	0x91
 2754 01d9 00       		.sleb128 0
 2755 01da 56000000 		.4byte	.LVL35
 2756 01de 5A000000 		.4byte	.LVL36
 2757 01e2 0200     		.2byte	0x2
 2758 01e4 7D       		.byte	0x7d
 2759 01e5 00       		.sleb128 0
 2760 01e6 5A000000 		.4byte	.LVL36
 2761 01ea 62000000 		.4byte	.LFE258
 2762 01ee 0200     		.2byte	0x2
 2763 01f0 91       		.byte	0x91
 2764 01f1 00       		.sleb128 0
 2765 01f2 00000000 		.4byte	0
 2766 01f6 00000000 		.4byte	0
 2767              	.LLST12:
 2768 01fa 14000000 		.4byte	.LVL28
 2769 01fe 56000000 		.4byte	.LVL35
 2770 0202 0100     		.2byte	0x1
 2771 0204 56       		.byte	0x56
 2772 0205 60000000 		.4byte	.LVL38
 2773 0209 62000000 		.4byte	.LFE258
 2774 020d 0100     		.2byte	0x1
 2775 020f 56       		.byte	0x56
 2776 0210 00000000 		.4byte	0
 2777 0214 00000000 		.4byte	0
 2778              		.section	.debug_aranges,"",%progbits
 2779 0000 34000000 		.4byte	0x34
 2780 0004 0200     		.2byte	0x2
 2781 0006 00000000 		.4byte	.Ldebug_info0
 2782 000a 04       		.byte	0x4
 2783 000b 00       		.byte	0
 2784 000c 0000     		.2byte	0
 2785 000e 0000     		.2byte	0
 2786 0010 00000000 		.4byte	.LFB256
 2787 0014 5A000000 		.4byte	.LFE256-.LFB256
 2788 0018 00000000 		.4byte	.LFB257
 2789 001c 8C000000 		.4byte	.LFE257-.LFB257
 2790 0020 00000000 		.4byte	.LFB258
 2791 0024 62000000 		.4byte	.LFE258-.LFB258
 2792 0028 00000000 		.4byte	.LFB259
 2793 002c 16000000 		.4byte	.LFE259-.LFB259
ARM GAS  /tmp/ccOJ9AF7.s 			page 50


 2794 0030 00000000 		.4byte	0
 2795 0034 00000000 		.4byte	0
 2796              		.section	.debug_ranges,"",%progbits
 2797              	.Ldebug_ranges0:
 2798 0000 00000000 		.4byte	.LFB256
 2799 0004 5A000000 		.4byte	.LFE256
 2800 0008 00000000 		.4byte	.LFB257
 2801 000c 8C000000 		.4byte	.LFE257
 2802 0010 00000000 		.4byte	.LFB258
 2803 0014 62000000 		.4byte	.LFE258
 2804 0018 00000000 		.4byte	.LFB259
 2805 001c 16000000 		.4byte	.LFE259
 2806 0020 00000000 		.4byte	0
 2807 0024 00000000 		.4byte	0
 2808              		.section	.debug_line,"",%progbits
 2809              	.Ldebug_line0:
 2810 0000 2C020000 		.section	.debug_str,"MS",%progbits,1
 2810      0200BA01 
 2810      00000201 
 2810      FB0E0D00 
 2810      01010101 
 2811              	.LASF48:
 2812 0000 74687265 		.ascii	"threads_list_t\000"
 2812      6164735F 
 2812      6C697374 
 2812      5F7400
 2813              	.LASF106:
 2814 000f 75696E74 		.ascii	"uint16\000"
 2814      313600
 2815              	.LASF53:
 2816 0016 72656164 		.ascii	"ready_list_t\000"
 2816      795F6C69 
 2816      73745F74 
 2816      00
 2817              	.LASF91:
 2818 0023 77747472 		.ascii	"wttrp\000"
 2818      7000
 2819              	.LASF88:
 2820 0029 7264796D 		.ascii	"rdymsg\000"
 2820      736700
 2821              	.LASF16:
 2822 0030 75696E74 		.ascii	"uint64_t\000"
 2822      36345F74 
 2822      00
 2823              	.LASF4:
 2824 0039 5F5F7569 		.ascii	"__uint8_t\000"
 2824      6E74385F 
 2824      7400
 2825              	.LASF121:
 2826 0043 43433235 		.ascii	"CC2520_RXBUFMOV\000"
 2826      32305F52 
 2826      58425546 
 2826      4D4F5600 
 2827              	.LASF85:
 2828 0053 706F7274 		.ascii	"port_intctx\000"
 2828      5F696E74 
 2828      63747800 
ARM GAS  /tmp/ccOJ9AF7.s 			page 51


 2829              	.LASF72:
 2830 005f 73797374 		.ascii	"system_debug_t\000"
 2830      656D5F64 
 2830      65627567 
 2830      5F7400
 2831              	.LASF11:
 2832 006e 6C6F6E67 		.ascii	"long long unsigned int\000"
 2832      206C6F6E 
 2832      6720756E 
 2832      7369676E 
 2832      65642069 
 2833              	.LASF89:
 2834 0085 65786974 		.ascii	"exitcode\000"
 2834      636F6465 
 2834      00
 2835              	.LASF79:
 2836 008e 6D61696E 		.ascii	"mainthread\000"
 2836      74687265 
 2836      616400
 2837              	.LASF69:
 2838 0099 76697274 		.ascii	"virtual_timers_list_t\000"
 2838      75616C5F 
 2838      74696D65 
 2838      72735F6C 
 2838      6973745F 
 2839              	.LASF118:
 2840 00af 49544D5F 		.ascii	"ITM_RxBuffer\000"
 2840      52784275 
 2840      66666572 
 2840      00
 2841              	.LASF52:
 2842 00bc 63685F74 		.ascii	"ch_threads_queue\000"
 2842      68726561 
 2842      64735F71 
 2842      75657565 
 2842      00
 2843              	.LASF112:
 2844 00cd 61757468 		.ascii	"authLength\000"
 2844      4C656E67 
 2844      746800
 2845              	.LASF30:
 2846 00d8 705F7072 		.ascii	"p_prio\000"
 2846      696F00
 2847              	.LASF9:
 2848 00df 6C6F6E67 		.ascii	"long long int\000"
 2848      206C6F6E 
 2848      6720696E 
 2848      7400
 2849              	.LASF0:
 2850 00ed 7369676E 		.ascii	"signed char\000"
 2850      65642063 
 2850      68617200 
 2851              	.LASF8:
 2852 00f9 6C6F6E67 		.ascii	"long unsigned int\000"
 2852      20756E73 
 2852      69676E65 
 2852      6420696E 
ARM GAS  /tmp/ccOJ9AF7.s 			page 52


 2852      7400
 2853              	.LASF46:
 2854 010b 705F6D70 		.ascii	"p_mpool\000"
 2854      6F6F6C00 
 2855              	.LASF99:
 2856 0113 6D5F7175 		.ascii	"m_queue\000"
 2856      65756500 
 2857              	.LASF78:
 2858 011b 76746C69 		.ascii	"vtlist\000"
 2858      737400
 2859              	.LASF21:
 2860 0122 74736C69 		.ascii	"tslices_t\000"
 2860      6365735F 
 2860      7400
 2861              	.LASF125:
 2862 012c 43433235 		.ascii	"CC2520_MEMRD\000"
 2862      32305F4D 
 2862      454D5244 
 2862      00
 2863              	.LASF6:
 2864 0139 6C6F6E67 		.ascii	"long int\000"
 2864      20696E74 
 2864      00
 2865              	.LASF19:
 2866 0142 74737461 		.ascii	"tstate_t\000"
 2866      74655F74 
 2866      00
 2867              	.LASF32:
 2868 014b 705F6E65 		.ascii	"p_newer\000"
 2868      77657200 
 2869              	.LASF96:
 2870 0153 735F7175 		.ascii	"s_queue\000"
 2870      65756500 
 2871              	.LASF58:
 2872 015b 725F6E65 		.ascii	"r_newer\000"
 2872      77657200 
 2873              	.LASF82:
 2874 0163 72656761 		.ascii	"regarm_t\000"
 2874      726D5F74 
 2874      00
 2875              	.LASF65:
 2876 016c 76745F70 		.ascii	"vt_prev\000"
 2876      72657600 
 2877              	.LASF126:
 2878 0174 43433235 		.ascii	"CC2520_CCM\000"
 2878      32305F43 
 2878      434D00
 2879              	.LASF103:
 2880 017f 6D757465 		.ascii	"mutex_t\000"
 2880      785F7400 
 2881              	.LASF80:
 2882 0187 69646C65 		.ascii	"idle_thread_wa\000"
 2882      5F746872 
 2882      6561645F 
 2882      776100
 2883              	.LASF25:
 2884 0196 636E745F 		.ascii	"cnt_t\000"
ARM GAS  /tmp/ccOJ9AF7.s 			page 53


 2884      7400
 2885              	.LASF12:
 2886 019c 756E7369 		.ascii	"unsigned int\000"
 2886      676E6564 
 2886      20696E74 
 2886      00
 2887              	.LASF64:
 2888 01a9 76745F6E 		.ascii	"vt_next\000"
 2888      65787400 
 2889              	.LASF39:
 2890 01b1 705F7469 		.ascii	"p_time\000"
 2890      6D6500
 2891              	.LASF113:
 2892 01b8 68616C52 		.ascii	"halRfSecurityInit\000"
 2892      66536563 
 2892      75726974 
 2892      79496E69 
 2892      7400
 2893              	.LASF92:
 2894 01ca 77747365 		.ascii	"wtsemp\000"
 2894      6D7000
 2895              	.LASF66:
 2896 01d1 76745F64 		.ascii	"vt_delta\000"
 2896      656C7461 
 2896      00
 2897              	.LASF41:
 2898 01da 705F6D73 		.ascii	"p_msgqueue\000"
 2898      67717565 
 2898      756500
 2899              	.LASF129:
 2900 01e5 63633235 		.ascii	"cc2520/driver/hal_rf_security.c\000"
 2900      32302F64 
 2900      72697665 
 2900      722F6861 
 2900      6C5F7266 
 2901              	.LASF97:
 2902 0205 735F636E 		.ascii	"s_cnt\000"
 2902      7400
 2903              	.LASF109:
 2904 020b 64617461 		.ascii	"data\000"
 2904      00
 2905              	.LASF3:
 2906 0210 73686F72 		.ascii	"short unsigned int\000"
 2906      7420756E 
 2906      7369676E 
 2906      65642069 
 2906      6E7400
 2907              	.LASF132:
 2908 0223 57414954 		.ascii	"WAIT_DPU_DONE_H\000"
 2908      5F445055 
 2908      5F444F4E 
 2908      455F4800 
 2909              	.LASF49:
 2910 0233 63685F74 		.ascii	"ch_thread\000"
 2910      68726561 
 2910      6400
 2911              	.LASF122:
ARM GAS  /tmp/ccOJ9AF7.s 			page 54


 2912 023d 43433235 		.ascii	"CC2520_MEMCP\000"
 2912      32305F4D 
 2912      454D4350 
 2912      00
 2913              	.LASF23:
 2914 024a 6D73675F 		.ascii	"msg_t\000"
 2914      7400
 2915              	.LASF127:
 2916 0250 43433235 		.ascii	"CC2520_TXBUFCP\000"
 2916      32305F54 
 2916      58425546 
 2916      435000
 2917              	.LASF75:
 2918 025f 63685F73 		.ascii	"ch_system_t\000"
 2918      79737465 
 2918      6D5F7400 
 2919              	.LASF18:
 2920 026b 746D6F64 		.ascii	"tmode_t\000"
 2920      655F7400 
 2921              	.LASF54:
 2922 0273 63685F72 		.ascii	"ch_ready_list\000"
 2922      65616479 
 2922      5F6C6973 
 2922      7400
 2923              	.LASF24:
 2924 0281 6576656E 		.ascii	"eventmask_t\000"
 2924      746D6173 
 2924      6B5F7400 
 2925              	.LASF2:
 2926 028d 73686F72 		.ascii	"short int\000"
 2926      7420696E 
 2926      7400
 2927              	.LASF5:
 2928 0297 5F5F696E 		.ascii	"__int32_t\000"
 2928      7433325F 
 2928      7400
 2929              	.LASF120:
 2930 02a1 43433235 		.ascii	"CC2520_MEMCPR\000"
 2930      32305F4D 
 2930      454D4350 
 2930      5200
 2931              	.LASF83:
 2932 02af 73746B61 		.ascii	"stkalign_t\000"
 2932      6C69676E 
 2932      5F7400
 2933              	.LASF40:
 2934 02ba 705F7761 		.ascii	"p_waiting\000"
 2934      6974696E 
 2934      6700
 2935              	.LASF81:
 2936 02c4 73697A65 		.ascii	"sizetype\000"
 2936      74797065 
 2936      00
 2937              	.LASF47:
 2938 02cd 74687265 		.ascii	"thread_reference_t\000"
 2938      61645F72 
 2938      65666572 
ARM GAS  /tmp/ccOJ9AF7.s 			page 55


 2938      656E6365 
 2938      5F7400
 2939              	.LASF70:
 2940 02e0 63685F76 		.ascii	"ch_virtual_timers_list\000"
 2940      69727475 
 2940      616C5F74 
 2940      696D6572 
 2940      735F6C69 
 2941              	.LASF114:
 2942 02f7 68616C52 		.ascii	"halRfWriteTxBufSecure\000"
 2942      66577269 
 2942      74655478 
 2942      42756653 
 2942      65637572 
 2943              	.LASF105:
 2944 030d 75696E74 		.ascii	"uint8\000"
 2944      3800
 2945              	.LASF33:
 2946 0313 705F6F6C 		.ascii	"p_older\000"
 2946      64657200 
 2947              	.LASF57:
 2948 031b 725F6374 		.ascii	"r_ctx\000"
 2948      7800
 2949              	.LASF87:
 2950 0321 746D5F63 		.ascii	"tm_calibration_t\000"
 2950      616C6962 
 2950      72617469 
 2950      6F6E5F74 
 2950      00
 2951              	.LASF60:
 2952 0332 725F6375 		.ascii	"r_current\000"
 2952      7272656E 
 2952      7400
 2953              	.LASF59:
 2954 033c 725F6F6C 		.ascii	"r_older\000"
 2954      64657200 
 2955              	.LASF117:
 2956 0344 68616C52 		.ascii	"halRfIncNonceTx\000"
 2956      66496E63 
 2956      4E6F6E63 
 2956      65547800 
 2957              	.LASF10:
 2958 0354 5F5F7569 		.ascii	"__uint64_t\000"
 2958      6E743634 
 2958      5F7400
 2959              	.LASF20:
 2960 035f 74726566 		.ascii	"trefs_t\000"
 2960      735F7400 
 2961              	.LASF62:
 2962 0367 76697274 		.ascii	"virtual_timer_t\000"
 2962      75616C5F 
 2962      74696D65 
 2962      725F7400 
 2963              	.LASF29:
 2964 0377 705F7072 		.ascii	"p_prev\000"
 2964      657600
 2965              	.LASF22:
ARM GAS  /tmp/ccOJ9AF7.s 			page 56


 2966 037e 74707269 		.ascii	"tprio_t\000"
 2966      6F5F7400 
 2967              	.LASF130:
 2968 0386 2F686F6D 		.ascii	"/home/benjamin/Skrivbord/SP-RCCar/Embedded/Mote/\000"
 2968      652F6265 
 2968      6E6A616D 
 2968      696E2F53 
 2968      6B726976 
 2969              	.LASF133:
 2970 03b7 43433235 		.ascii	"CC2520_INC\000"
 2970      32305F49 
 2970      4E4300
 2971              	.LASF73:
 2972 03c2 63685F73 		.ascii	"ch_system_debug\000"
 2972      79737465 
 2972      6D5F6465 
 2972      62756700 
 2973              	.LASF104:
 2974 03d2 5F426F6F 		.ascii	"_Bool\000"
 2974      6C00
 2975              	.LASF14:
 2976 03d8 696E7433 		.ascii	"int32_t\000"
 2976      325F7400 
 2977              	.LASF1:
 2978 03e0 756E7369 		.ascii	"unsigned char\000"
 2978      676E6564 
 2978      20636861 
 2978      7200
 2979              	.LASF44:
 2980 03ee 705F6D74 		.ascii	"p_mtxlist\000"
 2980      786C6973 
 2980      7400
 2981              	.LASF107:
 2982 03f8 6E6F6E63 		.ascii	"nonceRx\000"
 2982      65527800 
 2983              	.LASF35:
 2984 0400 705F7374 		.ascii	"p_state\000"
 2984      61746500 
 2985              	.LASF38:
 2986 0408 705F7072 		.ascii	"p_preempt\000"
 2986      65656D70 
 2986      7400
 2987              	.LASF56:
 2988 0412 725F7072 		.ascii	"r_prio\000"
 2988      696F00
 2989              	.LASF94:
 2990 0419 65776D61 		.ascii	"ewmask\000"
 2990      736B00
 2991              	.LASF28:
 2992 0420 705F6E65 		.ascii	"p_next\000"
 2992      787400
 2993              	.LASF124:
 2994 0427 43433235 		.ascii	"CC2520_REGRD8\000"
 2994      32305F52 
 2994      45475244 
 2994      3800
 2995              	.LASF36:
ARM GAS  /tmp/ccOJ9AF7.s 			page 57


 2996 0435 705F666C 		.ascii	"p_flags\000"
 2996      61677300 
 2997              	.LASF76:
 2998 043d 63685F73 		.ascii	"ch_system\000"
 2998      79737465 
 2998      6D00
 2999              	.LASF63:
 3000 0447 63685F76 		.ascii	"ch_virtual_timer\000"
 3000      69727475 
 3000      616C5F74 
 3000      696D6572 
 3000      00
 3001              	.LASF95:
 3002 0458 63685F73 		.ascii	"ch_semaphore\000"
 3002      656D6170 
 3002      686F7265 
 3002      00
 3003              	.LASF43:
 3004 0465 705F6570 		.ascii	"p_epending\000"
 3004      656E6469 
 3004      6E6700
 3005              	.LASF15:
 3006 0470 75696E74 		.ascii	"uint32_t\000"
 3006      33325F74 
 3006      00
 3007              	.LASF93:
 3008 0479 77746D74 		.ascii	"wtmtxp\000"
 3008      787000
 3009              	.LASF55:
 3010 0480 725F7175 		.ascii	"r_queue\000"
 3010      65756500 
 3011              	.LASF50:
 3012 0488 63685F74 		.ascii	"ch_threads_list\000"
 3012      68726561 
 3012      64735F6C 
 3012      69737400 
 3013              	.LASF115:
 3014 0498 64707553 		.ascii	"dpuStat\000"
 3014      74617400 
 3015              	.LASF110:
 3016 04a0 6C656E67 		.ascii	"length\000"
 3016      746800
 3017              	.LASF102:
 3018 04a7 63686172 		.ascii	"char\000"
 3018      00
 3019              	.LASF128:
 3020 04ac 474E5520 		.ascii	"GNU C 4.9.3 20150529 (release) [ARM/embedded-4_9-br"
 3020      4320342E 
 3020      392E3320 
 3020      32303135 
 3020      30353239 
 3021 04df 616E6368 		.ascii	"anch revision 227977] -mcpu=cortex-m4 -mfloat-abi=h"
 3021      20726576 
 3021      6973696F 
 3021      6E203232 
 3021      37393737 
 3022 0512 61726420 		.ascii	"ard -mfpu=fpv4-sp-d16 -mno-thumb-interwork -mthumb "
ARM GAS  /tmp/ccOJ9AF7.s 			page 58


 3022      2D6D6670 
 3022      753D6670 
 3022      76342D73 
 3022      702D6431 
 3023 0545 2D676764 		.ascii	"-ggdb -O2 -std=gnu99 -fomit-frame-pointer -falign-f"
 3023      62202D4F 
 3023      32202D73 
 3023      74643D67 
 3023      6E753939 
 3024 0578 756E6374 		.ascii	"unctions=16 -ffunction-sections -fdata-sections -fn"
 3024      696F6E73 
 3024      3D313620 
 3024      2D666675 
 3024      6E637469 
 3025 05ab 6F2D636F 		.ascii	"o-common -fsingle-precision-constant\000"
 3025      6D6D6F6E 
 3025      202D6673 
 3025      696E676C 
 3025      652D7072 
 3026              	.LASF111:
 3027 05d0 656E6372 		.ascii	"encrLength\000"
 3027      4C656E67 
 3027      746800
 3028              	.LASF101:
 3029 05db 6D5F6E65 		.ascii	"m_next\000"
 3029      787400
 3030              	.LASF26:
 3031 05e2 73797374 		.ascii	"systime_t\000"
 3031      696D655F 
 3031      7400
 3032              	.LASF45:
 3033 05ec 705F7265 		.ascii	"p_realprio\000"
 3033      616C7072 
 3033      696F00
 3034              	.LASF61:
 3035 05f7 76746675 		.ascii	"vtfunc_t\000"
 3035      6E635F74 
 3035      00
 3036              	.LASF7:
 3037 0600 5F5F7569 		.ascii	"__uint32_t\000"
 3037      6E743332 
 3037      5F7400
 3038              	.LASF74:
 3039 060b 70616E69 		.ascii	"panic_msg\000"
 3039      635F6D73 
 3039      6700
 3040              	.LASF131:
 3041 0615 68616C52 		.ascii	"halRfReadRxBufSecure\000"
 3041      66526561 
 3041      64527842 
 3041      75665365 
 3041      63757265 
 3042              	.LASF86:
 3043 062a 6F666673 		.ascii	"offset\000"
 3043      657400
 3044              	.LASF84:
 3045 0631 636F6E74 		.ascii	"context\000"
ARM GAS  /tmp/ccOJ9AF7.s 			page 59


 3045      65787400 
 3046              	.LASF17:
 3047 0639 7274636E 		.ascii	"rtcnt_t\000"
 3047      745F7400 
 3048              	.LASF116:
 3049 0641 6D69634C 		.ascii	"micLength\000"
 3049      656E6774 
 3049      6800
 3050              	.LASF68:
 3051 064b 76745F70 		.ascii	"vt_par\000"
 3051      617200
 3052              	.LASF123:
 3053 0652 43433235 		.ascii	"CC2520_UCCM\000"
 3053      32305F55 
 3053      43434D00 
 3054              	.LASF51:
 3055 065e 74687265 		.ascii	"threads_queue_t\000"
 3055      6164735F 
 3055      71756575 
 3055      655F7400 
 3056              	.LASF98:
 3057 066e 63685F6D 		.ascii	"ch_mutex\000"
 3057      75746578 
 3057      00
 3058              	.LASF37:
 3059 0677 705F7265 		.ascii	"p_refs\000"
 3059      667300
 3060              	.LASF119:
 3061 067e 43433235 		.ascii	"CC2520_MEMWR\000"
 3061      32305F4D 
 3061      454D5752 
 3061      00
 3062              	.LASF27:
 3063 068b 74687265 		.ascii	"thread_t\000"
 3063      61645F74 
 3063      00
 3064              	.LASF77:
 3065 0694 726C6973 		.ascii	"rlist\000"
 3065      7400
 3066              	.LASF13:
 3067 069a 75696E74 		.ascii	"uint8_t\000"
 3067      385F7400 
 3068              	.LASF90:
 3069 06a2 77746F62 		.ascii	"wtobjp\000"
 3069      6A7000
 3070              	.LASF108:
 3071 06a9 6E6F6E63 		.ascii	"nonceTx\000"
 3071      65547800 
 3072              	.LASF34:
 3073 06b1 705F6E61 		.ascii	"p_name\000"
 3073      6D6500
 3074              	.LASF71:
 3075 06b8 76745F73 		.ascii	"vt_systime\000"
 3075      79737469 
 3075      6D6500
 3076              	.LASF42:
 3077 06c3 705F6D73 		.ascii	"p_msg\000"
ARM GAS  /tmp/ccOJ9AF7.s 			page 60


 3077      6700
 3078              	.LASF100:
 3079 06c9 6D5F6F77 		.ascii	"m_owner\000"
 3079      6E657200 
 3080              	.LASF31:
 3081 06d1 705F6374 		.ascii	"p_ctx\000"
 3081      7800
 3082              	.LASF67:
 3083 06d7 76745F66 		.ascii	"vt_func\000"
 3083      756E6300 
 3084              		.ident	"GCC: (GNU Tools for ARM Embedded Processors) 4.9.3 20150529 (release) [ARM/embedded-4_9-br
ARM GAS  /tmp/ccOJ9AF7.s 			page 61


DEFINED SYMBOLS
                            *ABS*:0000000000000000 hal_rf_security.c
     /tmp/ccOJ9AF7.s:21     .text.halRfSecurityInit:0000000000000000 $t
     /tmp/ccOJ9AF7.s:27     .text.halRfSecurityInit:0000000000000000 halRfSecurityInit
     /tmp/ccOJ9AF7.s:101    .text.halRfReadRxBufSecure:0000000000000000 $t
     /tmp/ccOJ9AF7.s:107    .text.halRfReadRxBufSecure:0000000000000000 halRfReadRxBufSecure
     /tmp/ccOJ9AF7.s:210    .text.halRfWriteTxBufSecure:0000000000000000 $t
     /tmp/ccOJ9AF7.s:216    .text.halRfWriteTxBufSecure:0000000000000000 halRfWriteTxBufSecure
     /tmp/ccOJ9AF7.s:307    .text.halRfIncNonceTx:0000000000000000 $t
     /tmp/ccOJ9AF7.s:313    .text.halRfIncNonceTx:0000000000000000 halRfIncNonceTx
                     .debug_frame:0000000000000010 $d

UNDEFINED SYMBOLS
CC2520_MEMWR
CC2520_MEMCPR
CC2520_RXBUFMOV
WAIT_DPU_DONE_H
CC2520_MEMCP
CC2520_UCCM
CC2520_REGRD8
CC2520_MEMRD
CC2520_CCM
CC2520_TXBUFCP
CC2520_INC
