ARM GAS  /tmp/ccSqZi8r.s 			page 1


   1              		.syntax unified
   2              		.cpu cortex-m4
   3              		.eabi_attribute 27, 1
   4              		.eabi_attribute 28, 1
   5              		.fpu fpv4-sp-d16
   6              		.eabi_attribute 20, 1
   7              		.eabi_attribute 21, 1
   8              		.eabi_attribute 23, 3
   9              		.eabi_attribute 24, 1
  10              		.eabi_attribute 25, 1
  11              		.eabi_attribute 26, 1
  12              		.eabi_attribute 30, 2
  13              		.eabi_attribute 34, 1
  14              		.eabi_attribute 18, 4
  15              		.thumb
  16              		.file	"hal_rf.c"
  17              		.text
  18              	.Ltext0:
  19              		.cfi_sections	.debug_frame
  20              		.section	.text.isrThread,"ax",%progbits
  21              		.align	2
  22              		.p2align 4,,15
  23              		.thumb
  24              		.thumb_func
  25              		.type	isrThread, %function
  26              	isrThread:
  27              	.LFB280:
  28              		.file 1 "cc2520/driver/hal_rf.c"
  29              		.loc 1 657 0
  30              		.cfi_startproc
  31              		@ Volatile: function does not return.
  32              		@ args = 0, pretend = 0, frame = 0
  33              		@ frame_needed = 0, uses_anonymous_args = 0
  34              	.LVL0:
  35 0000 08B5     		push	{r3, lr}
  36              		.cfi_def_cfa_offset 8
  37              		.cfi_offset 3, -8
  38              		.cfi_offset 14, -4
  39              	.LBB74:
  40              	.LBB75:
  41              		.file 2 "ChibiOS_3.0.2/os/rt/include/chregistry.h"
  42              		.loc 2 135 0
  43 0002 074B     		ldr	r3, .L8
  44              	.LBE75:
  45              	.LBE74:
  46              		.loc 1 661 0
  47 0004 074A     		ldr	r2, .L8+4
  48              	.LBB77:
  49              	.LBB76:
  50              		.loc 2 135 0
  51 0006 9B69     		ldr	r3, [r3, #24]
  52 0008 0749     		ldr	r1, .L8+8
  53 000a 084C     		ldr	r4, .L8+12
  54 000c 9961     		str	r1, [r3, #24]
  55              	.LBE76:
  56              	.LBE77:
  57              		.loc 1 661 0
ARM GAS  /tmp/ccSqZi8r.s 			page 2


  58 000e 1360     		str	r3, [r2]
  59              	.LVL1:
  60              	.L2:
  61              		.loc 1 664 0
  62 0010 0120     		movs	r0, #1
  63 0012 FFF7FEFF 		bl	chEvtWaitAny
  64              	.LVL2:
  65              		.loc 1 666 0
  66 0016 2368     		ldr	r3, [r4]
  67 0018 002B     		cmp	r3, #0
  68 001a F9D0     		beq	.L2
  69              		.loc 1 667 0
  70 001c 9847     		blx	r3
  71              	.LVL3:
  72 001e F7E7     		b	.L2
  73              	.L9:
  74              		.align	2
  75              	.L8:
  76 0020 00000000 		.word	ch
  77 0024 00000000 		.word	.LANCHOR0
  78 0028 00000000 		.word	.LC0
  79 002c 00000000 		.word	.LANCHOR1
  80              		.cfi_endproc
  81              	.LFE280:
  82              		.size	isrThread, .-isrThread
  83              		.section	.text.halRfGetChipId,"ax",%progbits
  84              		.align	2
  85              		.p2align 4,,15
  86              		.global	halRfGetChipId
  87              		.thumb
  88              		.thumb_func
  89              		.type	halRfGetChipId, %function
  90              	halRfGetChipId:
  91              	.LFB257:
  92              		.loc 1 259 0
  93              		.cfi_startproc
  94              		@ args = 0, pretend = 0, frame = 0
  95              		@ frame_needed = 0, uses_anonymous_args = 0
  96              		@ link register save eliminated.
  97              		.loc 1 260 0
  98 0000 4020     		movs	r0, #64
  99 0002 FFF7FEBF 		b	CC2520_MEMRD8
 100              	.LVL4:
 101              		.cfi_endproc
 102              	.LFE257:
 103              		.size	halRfGetChipId, .-halRfGetChipId
 104 0006 00BF     		.section	.text.halRfGetChipVer,"ax",%progbits
 105              		.align	2
 106              		.p2align 4,,15
 107              		.global	halRfGetChipVer
 108              		.thumb
 109              		.thumb_func
 110              		.type	halRfGetChipVer, %function
 111              	halRfGetChipVer:
 112              	.LFB258:
 113              		.loc 1 272 0
 114              		.cfi_startproc
ARM GAS  /tmp/ccSqZi8r.s 			page 3


 115              		@ args = 0, pretend = 0, frame = 0
 116              		@ frame_needed = 0, uses_anonymous_args = 0
 117              		@ link register save eliminated.
 118              		.loc 1 273 0
 119 0000 4220     		movs	r0, #66
 120 0002 FFF7FEBF 		b	CC2520_MEMRD8
 121              	.LVL5:
 122              		.cfi_endproc
 123              	.LFE258:
 124              		.size	halRfGetChipVer, .-halRfGetChipVer
 125 0006 00BF     		.section	.text.halRfGetRandomByte,"ax",%progbits
 126              		.align	2
 127              		.p2align 4,,15
 128              		.global	halRfGetRandomByte
 129              		.thumb
 130              		.thumb_func
 131              		.type	halRfGetRandomByte, %function
 132              	halRfGetRandomByte:
 133              	.LFB259:
 134              		.loc 1 287 0
 135              		.cfi_startproc
 136              		@ args = 0, pretend = 0, frame = 0
 137              		@ frame_needed = 0, uses_anonymous_args = 0
 138              		@ link register save eliminated.
 139              		.loc 1 288 0
 140 0000 FFF7FEBF 		b	CC2520_RANDOM8
 141              	.LVL6:
 142              		.cfi_endproc
 143              	.LFE259:
 144              		.size	halRfGetRandomByte, .-halRfGetRandomByte
 145              		.section	.text.halRfGetRssiOffset,"ax",%progbits
 146              		.align	2
 147              		.p2align 4,,15
 148              		.global	halRfGetRssiOffset
 149              		.thumb
 150              		.thumb_func
 151              		.type	halRfGetRssiOffset, %function
 152              	halRfGetRssiOffset:
 153              	.LFB260:
 154              		.loc 1 300 0
 155              		.cfi_startproc
 156              		@ args = 0, pretend = 0, frame = 0
 157              		@ frame_needed = 0, uses_anonymous_args = 0
 158              		@ link register save eliminated.
 159              		.loc 1 301 0
 160 0000 014B     		ldr	r3, .L14
 161              		.loc 1 302 0
 162 0002 1878     		ldrb	r0, [r3]	@ zero_extendqisi2
 163 0004 7047     		bx	lr
 164              	.L15:
 165 0006 00BF     		.align	2
 166              	.L14:
 167 0008 00000000 		.word	.LANCHOR2
 168              		.cfi_endproc
 169              	.LFE260:
 170              		.size	halRfGetRssiOffset, .-halRfGetRssiOffset
 171              		.section	.text.halRfSetChannel,"ax",%progbits
ARM GAS  /tmp/ccSqZi8r.s 			page 4


 172              		.align	2
 173              		.p2align 4,,15
 174              		.global	halRfSetChannel
 175              		.thumb
 176              		.thumb_func
 177              		.type	halRfSetChannel, %function
 178              	halRfSetChannel:
 179              	.LFB261:
 180              		.loc 1 314 0
 181              		.cfi_startproc
 182              		@ args = 0, pretend = 0, frame = 0
 183              		@ frame_needed = 0, uses_anonymous_args = 0
 184              		@ link register save eliminated.
 185              	.LVL7:
 186              		.loc 1 315 0
 187 0000 00EB8000 		add	r0, r0, r0, lsl #2
 188              	.LVL8:
 189 0004 A0F12C01 		sub	r1, r0, #44
 190 0008 C9B2     		uxtb	r1, r1
 191 000a 2E20     		movs	r0, #46
 192 000c FFF7FEBF 		b	CC2520_REGWR8
 193              	.LVL9:
 194              		.cfi_endproc
 195              	.LFE261:
 196              		.size	halRfSetChannel, .-halRfSetChannel
 197              		.section	.text.halRfSetShortAddr,"ax",%progbits
 198              		.align	2
 199              		.p2align 4,,15
 200              		.global	halRfSetShortAddr
 201              		.thumb
 202              		.thumb_func
 203              		.type	halRfSetShortAddr, %function
 204              	halRfSetShortAddr:
 205              	.LFB262:
 206              		.loc 1 328 0
 207              		.cfi_startproc
 208              		@ args = 0, pretend = 0, frame = 0
 209              		@ frame_needed = 0, uses_anonymous_args = 0
 210              		@ link register save eliminated.
 211              	.LVL10:
 212              		.loc 1 328 0
 213 0000 0146     		mov	r1, r0
 214              		.loc 1 329 0
 215 0002 4FF47D70 		mov	r0, #1012
 216              	.LVL11:
 217 0006 FFF7FEBF 		b	CC2520_MEMWR16
 218              	.LVL12:
 219              		.cfi_endproc
 220              	.LFE262:
 221              		.size	halRfSetShortAddr, .-halRfSetShortAddr
 222 000a 00BF     		.section	.text.halRfSetPanId,"ax",%progbits
 223              		.align	2
 224              		.p2align 4,,15
 225              		.global	halRfSetPanId
 226              		.thumb
 227              		.thumb_func
 228              		.type	halRfSetPanId, %function
ARM GAS  /tmp/ccSqZi8r.s 			page 5


 229              	halRfSetPanId:
 230              	.LFB263:
 231              		.loc 1 341 0
 232              		.cfi_startproc
 233              		@ args = 0, pretend = 0, frame = 0
 234              		@ frame_needed = 0, uses_anonymous_args = 0
 235              		@ link register save eliminated.
 236              	.LVL13:
 237              		.loc 1 341 0
 238 0000 0146     		mov	r1, r0
 239              		.loc 1 342 0
 240 0002 40F2F230 		movw	r0, #1010
 241              	.LVL14:
 242 0006 FFF7FEBF 		b	CC2520_MEMWR16
 243              	.LVL15:
 244              		.cfi_endproc
 245              	.LFE263:
 246              		.size	halRfSetPanId, .-halRfSetPanId
 247 000a 00BF     		.section	.text.halRfSetTxPower,"ax",%progbits
 248              		.align	2
 249              		.p2align 4,,15
 250              		.global	halRfSetTxPower
 251              		.thumb
 252              		.thumb_func
 253              		.type	halRfSetTxPower, %function
 254              	halRfSetTxPower:
 255              	.LFB264:
 256              		.loc 1 354 0
 257              		.cfi_startproc
 258              		@ args = 0, pretend = 0, frame = 0
 259              		@ frame_needed = 0, uses_anonymous_args = 0
 260              	.LVL16:
 261              		.loc 1 357 0
 262 0000 0138     		subs	r0, r0, #1
 263              	.LVL17:
 264              		.loc 1 354 0
 265 0002 08B5     		push	{r3, lr}
 266              		.cfi_def_cfa_offset 8
 267              		.cfi_offset 3, -8
 268              		.cfi_offset 14, -4
 269              		.loc 1 357 0
 270 0004 0428     		cmp	r0, #4
 271 0006 22D8     		bhi	.L27
 272 0008 DFE800F0 		tbb	[pc, r0]
 273              	.L22:
 274 000c 03       		.byte	(.L28-.L22)/2
 275 000d 0F       		.byte	(.L23-.L22)/2
 276 000e 15       		.byte	(.L24-.L22)/2
 277 000f 1B       		.byte	(.L25-.L22)/2
 278 0010 09       		.byte	(.L26-.L22)/2
 279 0011 00       		.p2align 1
 280              	.L28:
 281              		.loc 1 359 0
 282 0012 0321     		movs	r1, #3
 283              	.LVL18:
 284              		.loc 1 378 0
 285 0014 3020     		movs	r0, #48
ARM GAS  /tmp/ccSqZi8r.s 			page 6


 286 0016 FFF7FEFF 		bl	CC2520_REGWR8
 287              	.LVL19:
 288              		.loc 1 379 0
 289 001a 0020     		movs	r0, #0
 290 001c 08BD     		pop	{r3, pc}
 291              	.LVL20:
 292              	.L26:
 293              		.loc 1 363 0
 294 001e F921     		movs	r1, #249
 295              	.LVL21:
 296              		.loc 1 378 0
 297 0020 3020     		movs	r0, #48
 298 0022 FFF7FEFF 		bl	CC2520_REGWR8
 299              	.LVL22:
 300              		.loc 1 379 0
 301 0026 0020     		movs	r0, #0
 302 0028 08BD     		pop	{r3, pc}
 303              	.LVL23:
 304              	.L23:
 305              		.loc 1 360 0
 306 002a 2C21     		movs	r1, #44
 307              	.LVL24:
 308              		.loc 1 378 0
 309 002c 3020     		movs	r0, #48
 310 002e FFF7FEFF 		bl	CC2520_REGWR8
 311              	.LVL25:
 312              		.loc 1 379 0
 313 0032 0020     		movs	r0, #0
 314 0034 08BD     		pop	{r3, pc}
 315              	.LVL26:
 316              	.L24:
 317              		.loc 1 361 0
 318 0036 A021     		movs	r1, #160
 319              	.LVL27:
 320              		.loc 1 378 0
 321 0038 3020     		movs	r0, #48
 322 003a FFF7FEFF 		bl	CC2520_REGWR8
 323              	.LVL28:
 324              		.loc 1 379 0
 325 003e 0020     		movs	r0, #0
 326 0040 08BD     		pop	{r3, pc}
 327              	.LVL29:
 328              	.L25:
 329              		.loc 1 362 0
 330 0042 F021     		movs	r1, #240
 331              	.LVL30:
 332              		.loc 1 378 0
 333 0044 3020     		movs	r0, #48
 334 0046 FFF7FEFF 		bl	CC2520_REGWR8
 335              	.LVL31:
 336              		.loc 1 379 0
 337 004a 0020     		movs	r0, #0
 338 004c 08BD     		pop	{r3, pc}
 339              	.LVL32:
 340              	.L27:
 341              		.loc 1 376 0
 342 004e 0120     		movs	r0, #1
ARM GAS  /tmp/ccSqZi8r.s 			page 7


 343              		.loc 1 380 0
 344 0050 08BD     		pop	{r3, pc}
 345              		.cfi_endproc
 346              	.LFE264:
 347              		.size	halRfSetTxPower, .-halRfSetTxPower
 348 0052 00BF     		.section	.text.halRfSetGain,"ax",%progbits
 349              		.align	2
 350              		.p2align 4,,15
 351              		.global	halRfSetGain
 352              		.thumb
 353              		.thumb_func
 354              		.type	halRfSetGain, %function
 355              	halRfSetGain:
 356              	.LFB265:
 357              		.loc 1 391 0
 358              		.cfi_startproc
 359              		@ args = 0, pretend = 0, frame = 0
 360              		@ frame_needed = 0, uses_anonymous_args = 0
 361              		@ link register save eliminated.
 362              	.LVL33:
 363              		.loc 1 393 0
 364 0000 0649     		ldr	r1, .L34
 365              		.loc 1 394 0
 366 0002 074B     		ldr	r3, .L34+4
 367              		.loc 1 392 0
 368 0004 20B1     		cbz	r0, .L33
 369              		.loc 1 396 0
 370 0006 1020     		movs	r0, #16
 371              	.LVL34:
 372              		.loc 1 397 0
 373 0008 4F22     		movs	r2, #79
 374              		.loc 1 396 0
 375 000a 8861     		str	r0, [r1, #24]
 376              		.loc 1 397 0
 377 000c 1A70     		strb	r2, [r3]
 378 000e 7047     		bx	lr
 379              	.LVL35:
 380              	.L33:
 381              		.loc 1 393 0
 382 0010 4FF48010 		mov	r0, #1048576
 383              	.LVL36:
 384              		.loc 1 394 0
 385 0014 5A22     		movs	r2, #90
 386              		.loc 1 393 0
 387 0016 8861     		str	r0, [r1, #24]
 388              		.loc 1 394 0
 389 0018 1A70     		strb	r2, [r3]
 390 001a 7047     		bx	lr
 391              	.L35:
 392              		.align	2
 393              	.L34:
 394 001c 00000240 		.word	1073872896
 395 0020 00000000 		.word	.LANCHOR2
 396              		.cfi_endproc
 397              	.LFE265:
 398              		.size	halRfSetGain, .-halRfSetGain
 399              		.section	.text.halRfWriteTxBuf,"ax",%progbits
ARM GAS  /tmp/ccSqZi8r.s 			page 8


 400              		.align	2
 401              		.p2align 4,,15
 402              		.global	halRfWriteTxBuf
 403              		.thumb
 404              		.thumb_func
 405              		.type	halRfWriteTxBuf, %function
 406              	halRfWriteTxBuf:
 407              	.LFB266:
 408              		.loc 1 411 0
 409              		.cfi_startproc
 410              		@ args = 0, pretend = 0, frame = 0
 411              		@ frame_needed = 0, uses_anonymous_args = 0
 412              		@ link register save eliminated.
 413              	.LVL37:
 414              		.loc 1 411 0
 415 0000 0346     		mov	r3, r0
 416              		.loc 1 413 0
 417 0002 0846     		mov	r0, r1
 418              	.LVL38:
 419 0004 1946     		mov	r1, r3
 420              	.LVL39:
 421 0006 FFF7FEBF 		b	CC2520_TXBUF
 422              	.LVL40:
 423              		.cfi_endproc
 424              	.LFE266:
 425              		.size	halRfWriteTxBuf, .-halRfWriteTxBuf
 426 000a 00BF     		.section	.text.halRfReadRxBuf,"ax",%progbits
 427              		.align	2
 428              		.p2align 4,,15
 429              		.global	halRfReadRxBuf
 430              		.thumb
 431              		.thumb_func
 432              		.type	halRfReadRxBuf, %function
 433              	halRfReadRxBuf:
 434              	.LFB267:
 435              		.loc 1 426 0
 436              		.cfi_startproc
 437              		@ args = 0, pretend = 0, frame = 0
 438              		@ frame_needed = 0, uses_anonymous_args = 0
 439              		@ link register save eliminated.
 440              	.LVL41:
 441              		.loc 1 426 0
 442 0000 0346     		mov	r3, r0
 443              		.loc 1 427 0
 444 0002 0846     		mov	r0, r1
 445              	.LVL42:
 446 0004 1946     		mov	r1, r3
 447              	.LVL43:
 448 0006 FFF7FEBF 		b	CC2520_RXBUF
 449              	.LVL44:
 450              		.cfi_endproc
 451              	.LFE267:
 452              		.size	halRfReadRxBuf, .-halRfReadRxBuf
 453 000a 00BF     		.section	.text.halRfReadMemory,"ax",%progbits
 454              		.align	2
 455              		.p2align 4,,15
 456              		.global	halRfReadMemory
ARM GAS  /tmp/ccSqZi8r.s 			page 9


 457              		.thumb
 458              		.thumb_func
 459              		.type	halRfReadMemory, %function
 460              	halRfReadMemory:
 461              	.LFB268:
 462              		.loc 1 441 0
 463              		.cfi_startproc
 464              		@ args = 0, pretend = 0, frame = 0
 465              		@ frame_needed = 0, uses_anonymous_args = 0
 466              	.LVL45:
 467              		.loc 1 442 0
 468 0000 B0F5806F 		cmp	r0, #1024
 469              		.loc 1 441 0
 470 0004 10B5     		push	{r4, lr}
 471              		.cfi_def_cfa_offset 8
 472              		.cfi_offset 4, -8
 473              		.cfi_offset 14, -4
 474              		.loc 1 441 0
 475 0006 0B46     		mov	r3, r1
 476              		.loc 1 442 0
 477 0008 0CD2     		bcs	.L41
 478 000a 1446     		mov	r4, r2
 479              		.loc 1 444 0
 480 000c 8218     		adds	r2, r0, r2
 481              	.LVL46:
 482 000e B2F5806F 		cmp	r2, #1024
 483              		.loc 1 445 0
 484 0012 C4BF     		itt	gt
 485 0014 4442     		rsbgt	r4, r0, #0
 486 0016 E4B2     		uxtbgt	r4, r4
 487              	.LVL47:
 488 0018 A1B2     		uxth	r1, r4
 489              	.LVL48:
 490              		.loc 1 448 0
 491 001a 1A46     		mov	r2, r3
 492 001c FFF7FEFF 		bl	CC2520_MEMRD
 493              	.LVL49:
 494              		.loc 1 450 0
 495 0020 2046     		mov	r0, r4
 496 0022 10BD     		pop	{r4, pc}
 497              	.LVL50:
 498              	.L41:
 499 0024 0021     		movs	r1, #0
 500              	.LVL51:
 501              		.loc 1 443 0
 502 0026 0C46     		mov	r4, r1
 503              	.LVL52:
 504              		.loc 1 448 0
 505 0028 1A46     		mov	r2, r3
 506 002a FFF7FEFF 		bl	CC2520_MEMRD
 507              	.LVL53:
 508              		.loc 1 450 0
 509 002e 2046     		mov	r0, r4
 510 0030 10BD     		pop	{r4, pc}
 511              		.cfi_endproc
 512              	.LFE268:
 513              		.size	halRfReadMemory, .-halRfReadMemory
ARM GAS  /tmp/ccSqZi8r.s 			page 10


 514 0032 00BF     		.section	.text.halRfWriteMemory,"ax",%progbits
 515              		.align	2
 516              		.p2align 4,,15
 517              		.global	halRfWriteMemory
 518              		.thumb
 519              		.thumb_func
 520              		.type	halRfWriteMemory, %function
 521              	halRfWriteMemory:
 522              	.LFB269:
 523              		.loc 1 463 0
 524              		.cfi_startproc
 525              		@ args = 0, pretend = 0, frame = 0
 526              		@ frame_needed = 0, uses_anonymous_args = 0
 527              		@ link register save eliminated.
 528              	.LVL54:
 529              		.loc 1 468 0
 530 0000 0020     		movs	r0, #0
 531              	.LVL55:
 532 0002 7047     		bx	lr
 533              		.cfi_endproc
 534              	.LFE269:
 535              		.size	halRfWriteMemory, .-halRfWriteMemory
 536              		.section	.text.halRfTransmit,"ax",%progbits
 537              		.align	2
 538              		.p2align 4,,15
 539              		.global	halRfTransmit
 540              		.thumb
 541              		.thumb_func
 542              		.type	halRfTransmit, %function
 543              	halRfTransmit:
 544              	.LFB270:
 545              		.loc 1 479 0
 546              		.cfi_startproc
 547              		@ args = 0, pretend = 0, frame = 0
 548              		@ frame_needed = 0, uses_anonymous_args = 0
 549              	.LVL56:
 550 0000 38B5     		push	{r3, r4, r5, lr}
 551              		.cfi_def_cfa_offset 16
 552              		.cfi_offset 3, -16
 553              		.cfi_offset 4, -12
 554              		.cfi_offset 5, -8
 555              		.cfi_offset 14, -4
 556              		.loc 1 486 0
 557 0002 1A4A     		ldr	r2, .L63
 558              	.L46:
 559              		.loc 1 486 0 is_stmt 0 discriminator 1
 560 0004 1369     		ldr	r3, [r2, #16]
 561 0006 9906     		lsls	r1, r3, #26
 562 0008 FCD5     		bpl	.L46
 563              		.loc 1 489 0 is_stmt 1
 564 000a 2220     		movs	r0, #34
 565 000c 0221     		movs	r1, #2
 566 000e FFF7FEFF 		bl	CC2520_REGWR8
 567              	.LVL57:
 568 0012 1648     		ldr	r0, .L63
 569 0014 2021     		movs	r1, #32
 570 0016 0022     		movs	r2, #0
ARM GAS  /tmp/ccSqZi8r.s 			page 11


 571              		.loc 1 495 0
 572 0018 0546     		mov	r5, r0
 573              		.loc 1 489 0
 574 001a 40F2F314 		movw	r4, #499
 575 001e FFF7FEFF 		bl	_pal_lld_setgroupmode
 576              	.LVL58:
 577 0022 04E0     		b	.L48
 578              	.LVL59:
 579              	.L62:
 580              		.loc 1 493 0
 581 0024 013C     		subs	r4, r4, #1
 582              	.LVL60:
 583 0026 A4B2     		uxth	r4, r4
 584              		.loc 1 500 0
 585 0028 FFF7FEFF 		bl	chThdSleep
 586              	.LVL61:
 587              		.loc 1 493 0
 588 002c C4B1     		cbz	r4, .L50
 589              	.LVL62:
 590              	.L48:
 591              		.loc 1 494 0
 592 002e 4420     		movs	r0, #68
 593 0030 FFF7FEFF 		bl	CC2520_INS_STROBE
 594              	.LVL63:
 595              		.loc 1 495 0
 596 0034 2B69     		ldr	r3, [r5, #16]
 597 0036 DA06     		lsls	r2, r3, #27
 598              		.loc 1 500 0
 599 0038 4FF00100 		mov	r0, #1
 600              		.loc 1 495 0
 601 003c F2D5     		bpl	.L62
 602              		.loc 1 503 0
 603 003e 7CB1     		cbz	r4, .L50
 604              		.loc 1 509 0 discriminator 1
 605 0040 0A4A     		ldr	r2, .L63
 606              	.L57:
 607 0042 1369     		ldr	r3, [r2, #16]
 608 0044 9B06     		lsls	r3, r3, #26
 609 0046 FCD5     		bpl	.L57
 610              		.loc 1 507 0
 611 0048 0024     		movs	r4, #0
 612              	.LVL64:
 613              	.L49:
 614              		.loc 1 515 0
 615 004a 2220     		movs	r0, #34
 616 004c 2C21     		movs	r1, #44
 617 004e FFF7FEFF 		bl	CC2520_REGWR8
 618              	.LVL65:
 619 0052 0648     		ldr	r0, .L63
 620 0054 2021     		movs	r1, #32
 621 0056 0022     		movs	r2, #0
 622 0058 FFF7FEFF 		bl	_pal_lld_setgroupmode
 623              	.LVL66:
 624              		.loc 1 518 0
 625 005c 2046     		mov	r0, r4
 626 005e 38BD     		pop	{r3, r4, r5, pc}
 627              	.LVL67:
ARM GAS  /tmp/ccSqZi8r.s 			page 12


 628              	.L50:
 629              		.loc 1 505 0
 630 0060 4820     		movs	r0, #72
 631 0062 FFF7FEFF 		bl	CC2520_INS_STROBE
 632              	.LVL68:
 633              		.loc 1 504 0
 634 0066 0124     		movs	r4, #1
 635              	.LVL69:
 636 0068 EFE7     		b	.L49
 637              	.L64:
 638 006a 00BF     		.align	2
 639              	.L63:
 640 006c 00080240 		.word	1073874944
 641              		.cfi_endproc
 642              	.LFE270:
 643              		.size	halRfTransmit, .-halRfTransmit
 644              		.section	.text.halIntOn,"ax",%progbits
 645              		.align	2
 646              		.p2align 4,,15
 647              		.global	halIntOn
 648              		.thumb
 649              		.thumb_func
 650              		.type	halIntOn, %function
 651              	halIntOn:
 652              	.LFB274:
 653              		.loc 1 593 0
 654              		.cfi_startproc
 655              		@ args = 0, pretend = 0, frame = 0
 656              		@ frame_needed = 0, uses_anonymous_args = 0
 657              		@ link register save eliminated.
 658              	.LBB78:
 659              	.LBB79:
 660              	.LBB80:
 661              	.LBB81:
 662              	.LBB82:
 663              		.file 3 "ChibiOS_3.0.2/os/ext/CMSIS/include/core_cmFunc.h"
 664              		.loc 3 331 0
 665              	@ 331 "ChibiOS_3.0.2/os/ext/CMSIS/include/core_cmFunc.h" 1
 666 0000 62B6     		cpsie i
 667              	@ 0 "" 2
 668              		.thumb
 669 0002 7047     		bx	lr
 670              	.LBE82:
 671              	.LBE81:
 672              	.LBE80:
 673              	.LBE79:
 674              	.LBE78:
 675              		.cfi_endproc
 676              	.LFE274:
 677              		.size	halIntOn, .-halIntOn
 678              		.section	.text.halIntOff,"ax",%progbits
 679              		.align	2
 680              		.p2align 4,,15
 681              		.global	halIntOff
 682              		.thumb
 683              		.thumb_func
 684              		.type	halIntOff, %function
ARM GAS  /tmp/ccSqZi8r.s 			page 13


 685              	halIntOff:
 686              	.LFB275:
 687              		.loc 1 606 0
 688              		.cfi_startproc
 689              		@ args = 0, pretend = 0, frame = 0
 690              		@ frame_needed = 0, uses_anonymous_args = 0
 691              		@ link register save eliminated.
 692              	.LBB83:
 693              	.LBB84:
 694              	.LBB85:
 695              	.LBB86:
 696              		.loc 3 342 0
 697              	@ 342 "ChibiOS_3.0.2/os/ext/CMSIS/include/core_cmFunc.h" 1
 698 0000 72B6     		cpsid i
 699              	@ 0 "" 2
 700              		.thumb
 701 0002 7047     		bx	lr
 702              	.LBE86:
 703              	.LBE85:
 704              	.LBE84:
 705              	.LBE83:
 706              		.cfi_endproc
 707              	.LFE275:
 708              		.size	halIntOff, .-halIntOff
 709              		.section	.text.halRfRxInterruptConfig,"ax",%progbits
 710              		.align	2
 711              		.p2align 4,,15
 712              		.global	halRfRxInterruptConfig
 713              		.thumb
 714              		.thumb_func
 715              		.type	halRfRxInterruptConfig, %function
 716              	halRfRxInterruptConfig:
 717              	.LFB276:
 718              		.loc 1 610 0
 719              		.cfi_startproc
 720              		@ args = 0, pretend = 0, frame = 0
 721              		@ frame_needed = 0, uses_anonymous_args = 0
 722              		@ link register save eliminated.
 723              	.LVL70:
 724              		.loc 1 612 0
 725 0000 024B     		ldr	r3, .L68
 726 0002 1860     		str	r0, [r3]
 727              		.loc 1 614 0
 728 0004 8820     		movs	r0, #136
 729              	.LVL71:
 730 0006 FFF7FEBF 		b	CC2520_BCLR
 731              	.LVL72:
 732              	.L69:
 733 000a 00BF     		.align	2
 734              	.L68:
 735 000c 00000000 		.word	.LANCHOR1
 736              		.cfi_endproc
 737              	.LFE276:
 738              		.size	halRfRxInterruptConfig, .-halRfRxInterruptConfig
 739              		.section	.text.halRfDisableRxInterrupt,"ax",%progbits
 740              		.align	2
 741              		.p2align 4,,15
ARM GAS  /tmp/ccSqZi8r.s 			page 14


 742              		.global	halRfDisableRxInterrupt
 743              		.thumb
 744              		.thumb_func
 745              		.type	halRfDisableRxInterrupt, %function
 746              	halRfDisableRxInterrupt:
 747              	.LFB277:
 748              		.loc 1 626 0
 749              		.cfi_startproc
 750              		@ args = 0, pretend = 0, frame = 0
 751              		@ frame_needed = 0, uses_anonymous_args = 0
 752 0000 08B5     		push	{r3, lr}
 753              		.cfi_def_cfa_offset 8
 754              		.cfi_offset 3, -8
 755              		.cfi_offset 14, -4
 756              		.loc 1 627 0
 757 0002 8820     		movs	r0, #136
 758 0004 FFF7FEFF 		bl	CC2520_BCLR
 759              	.LVL73:
 760              		.loc 1 628 0
 761 0008 0248     		ldr	r0, .L72
 762 000a 0921     		movs	r1, #9
 763              		.loc 1 629 0
 764 000c BDE80840 		pop	{r3, lr}
 765              		.cfi_restore 14
 766              		.cfi_restore 3
 767              		.cfi_def_cfa_offset 0
 768              		.loc 1 628 0
 769 0010 FFF7FEBF 		b	extChannelDisable
 770              	.LVL74:
 771              	.L73:
 772              		.align	2
 773              	.L72:
 774 0014 00000000 		.word	EXTD1
 775              		.cfi_endproc
 776              	.LFE277:
 777              		.size	halRfDisableRxInterrupt, .-halRfDisableRxInterrupt
 778              		.section	.text.halRfInit,"ax",%progbits
 779              		.align	2
 780              		.p2align 4,,15
 781              		.global	halRfInit
 782              		.thumb
 783              		.thumb_func
 784              		.type	halRfInit, %function
 785              	halRfInit:
 786              	.LFB256:
 787              		.loc 1 200 0
 788              		.cfi_startproc
 789              		@ args = 0, pretend = 0, frame = 0
 790              		@ frame_needed = 0, uses_anonymous_args = 0
 791 0000 70B5     		push	{r4, r5, r6, lr}
 792              		.cfi_def_cfa_offset 16
 793              		.cfi_offset 4, -16
 794              		.cfi_offset 5, -12
 795              		.cfi_offset 6, -8
 796              		.cfi_offset 14, -4
 797              		.loc 1 205 0
 798 0002 294D     		ldr	r5, .L90
ARM GAS  /tmp/ccSqZi8r.s 			page 15


 799              		.loc 1 220 0
 800 0004 294C     		ldr	r4, .L90+4
 801              		.loc 1 200 0
 802 0006 82B0     		sub	sp, sp, #8
 803              		.cfi_def_cfa_offset 24
 804              		.loc 1 205 0
 805 0008 1021     		movs	r1, #16
 806 000a 1922     		movs	r2, #25
 807 000c 2846     		mov	r0, r5
 808 000e FFF7FEFF 		bl	_pal_lld_setgroupmode
 809              	.LVL75:
 810              		.loc 1 214 0
 811 0012 1023     		movs	r3, #16
 812 0014 AB61     		str	r3, [r5, #24]
 813              		.loc 1 217 0
 814 0016 FFF7FEFF 		bl	halRfDisableRxInterrupt
 815              	.LVL76:
 816              		.loc 1 220 0
 817 001a 4FF00063 		mov	r3, #134217728
 818 001e A361     		str	r3, [r4, #24]
 819              		.loc 1 221 0
 820 0020 FFF7FEFF 		bl	spi_sw_end
 821              	.LVL77:
 822              		.loc 1 222 0
 823 0024 1420     		movs	r0, #20
 824 0026 FFF7FEFF 		bl	chThdSleep
 825              	.LVL78:
 826              		.loc 1 225 0
 827 002a 2046     		mov	r0, r4
 828 002c 0022     		movs	r2, #0
 829 002e 4FF40041 		mov	r1, #32768
 830 0032 FFF7FEFF 		bl	_pal_lld_setgroupmode
 831              	.LVL79:
 832              		.loc 1 228 0
 833 0036 4FF40062 		mov	r2, #2048
 834              	.LBB89:
 835              	.LBB90:
 836              		.loc 1 717 0
 837 003a 4FF08053 		mov	r3, #268435456
 838              	.LBE90:
 839              	.LBE89:
 840              		.loc 1 228 0
 841 003e A261     		str	r2, [r4, #24]
 842              	.LVL80:
 843              	.LBB95:
 844              	.LBB91:
 845              		.loc 1 718 0
 846 0040 2646     		mov	r6, r4
 847              		.loc 1 717 0
 848 0042 A361     		str	r3, [r4, #24]
 849 0044 3224     		movs	r4, #50
 850 0046 05E0     		b	.L75
 851              	.LVL81:
 852              	.L77:
 853              		.loc 1 719 0
 854 0048 FFF7FEFF 		bl	chThdSleep
 855              	.LVL82:
ARM GAS  /tmp/ccSqZi8r.s 			page 16


 856 004c 631E     		subs	r3, r4, #1
 857              		.loc 1 718 0
 858 004e 13F0FF04 		ands	r4, r3, #255
 859              	.LVL83:
 860 0052 23D0     		beq	.L76
 861              	.L75:
 862              	.LVL84:
 863 0054 3369     		ldr	r3, [r6, #16]
 864 0056 154D     		ldr	r5, .L90+4
 865 0058 1B04     		lsls	r3, r3, #16
 866              		.loc 1 719 0
 867 005a 4FF00100 		mov	r0, #1
 868              		.loc 1 718 0
 869 005e F3D5     		bpl	.L77
 870              		.loc 1 722 0
 871 0060 4FF48053 		mov	r3, #4096
 872              	.LBE91:
 873              	.LBE95:
 874              		.loc 1 237 0
 875 0064 124C     		ldr	r4, .L90+8
 876              	.LVL85:
 877              	.LBB96:
 878              	.LBB92:
 879              		.loc 1 722 0
 880 0066 AB61     		str	r3, [r5, #24]
 881              	.LVL86:
 882              	.LBE92:
 883              	.LBE96:
 884              		.loc 1 237 0
 885 0068 2078     		ldrb	r0, [r4]	@ zero_extendqisi2
 886 006a 30B1     		cbz	r0, .L80
 887              	.LVL87:
 888              	.L79:
 889              		.loc 1 238 0
 890 006c 6178     		ldrb	r1, [r4, #1]	@ zero_extendqisi2
 891 006e FFF7FEFF 		bl	CC2520_MEMWR8
 892              	.LVL88:
 893              		.loc 1 237 0
 894 0072 14F8020F 		ldrb	r0, [r4, #2]!	@ zero_extendqisi2
 895              	.LVL89:
 896 0076 0028     		cmp	r0, #0
 897 0078 F8D1     		bne	.L79
 898              	.LVL90:
 899              	.L80:
 900              		.loc 1 243 0
 901 007a 0023     		movs	r3, #0
 902 007c 0093     		str	r3, [sp]
 903 007e 4FF4B361 		mov	r1, #1432
 904 0082 0C4B     		ldr	r3, .L90+12
 905 0084 0C48     		ldr	r0, .L90+16
 906 0086 4222     		movs	r2, #66
 907 0088 FFF7FEFF 		bl	chThdCreateStatic
 908              	.LVL91:
 909              		.loc 1 246 0
 910 008c 4620     		movs	r0, #70
 911 008e FFF7FEFF 		bl	CC2520_MEMRD8
 912              	.LVL92:
ARM GAS  /tmp/ccSqZi8r.s 			page 17


 913              		.loc 1 247 0
 914 0092 8538     		subs	r0, r0, #133
 915              	.LVL93:
 916 0094 18BF     		it	ne
 917 0096 0120     		movne	r0, #1
 918              		.loc 1 248 0
 919 0098 02B0     		add	sp, sp, #8
 920              		.cfi_remember_state
 921              		.cfi_def_cfa_offset 16
 922              		@ sp needed
 923 009a 70BD     		pop	{r4, r5, r6, pc}
 924              	.L76:
 925              		.cfi_restore_state
 926              	.LBB97:
 927              	.LBB93:
 928              		.loc 1 722 0
 929 009c 4FF48053 		mov	r3, #4096
 930              	.LBE93:
 931              	.LBE97:
 932              		.loc 1 232 0
 933 00a0 0120     		movs	r0, #1
 934              	.LBB98:
 935              	.LBB94:
 936              		.loc 1 722 0
 937 00a2 AB61     		str	r3, [r5, #24]
 938              	.LBE94:
 939              	.LBE98:
 940              		.loc 1 248 0
 941 00a4 02B0     		add	sp, sp, #8
 942              		.cfi_def_cfa_offset 16
 943              		@ sp needed
 944 00a6 70BD     		pop	{r4, r5, r6, pc}
 945              	.L91:
 946              		.align	2
 947              	.L90:
 948 00a8 00000240 		.word	1073872896
 949 00ac 00040240 		.word	1073873920
 950 00b0 00000000 		.word	.LANCHOR4
 951 00b4 00000000 		.word	isrThread
 952 00b8 00000000 		.word	.LANCHOR3
 953              		.cfi_endproc
 954              	.LFE256:
 955              		.size	halRfInit, .-halRfInit
 956              		.section	.text.halRfReceiveOn,"ax",%progbits
 957              		.align	2
 958              		.p2align 4,,15
 959              		.global	halRfReceiveOn
 960              		.thumb
 961              		.thumb_func
 962              		.type	halRfReceiveOn, %function
 963              	halRfReceiveOn:
 964              	.LFB271:
 965              		.loc 1 529 0
 966              		.cfi_startproc
 967              		@ args = 0, pretend = 0, frame = 0
 968              		@ frame_needed = 0, uses_anonymous_args = 0
 969 0000 10B5     		push	{r4, lr}
ARM GAS  /tmp/ccSqZi8r.s 			page 18


 970              		.cfi_def_cfa_offset 8
 971              		.cfi_offset 4, -8
 972              		.cfi_offset 14, -4
 973              		.loc 1 534 0
 974 0002 FFF7FEFF 		bl	halRfDisableRxInterrupt
 975              	.LVL94:
 976              		.loc 1 535 0
 977 0006 4720     		movs	r0, #71
 978 0008 FFF7FEFF 		bl	CC2520_INS_STROBE
 979              	.LVL95:
 980              		.loc 1 536 0
 981 000c 3E20     		movs	r0, #62
 982 000e FFF7FEFF 		bl	CC2520_REGRD8
 983              	.LVL96:
 984 0012 0446     		mov	r4, r0
 985              	.LVL97:
 986              		.loc 1 538 0
 987 0014 4220     		movs	r0, #66
 988 0016 FFF7FEFF 		bl	CC2520_INS_STROBE
 989              	.LVL98:
 990              		.loc 1 540 0
 991 001a 3E20     		movs	r0, #62
 992 001c FFF7FEFF 		bl	CC2520_REGRD8
 993              	.LVL99:
 994 0020 A042     		cmp	r0, r4
 995 0022 02D0     		beq	.L93
 996              		.loc 1 541 0
 997 0024 4720     		movs	r0, #71
 998 0026 FFF7FEFF 		bl	CC2520_INS_STROBE
 999              	.LVL100:
 1000              	.L93:
 1001              	.LBB99:
 1002              	.LBB100:
 1003              		.loc 1 641 0
 1004 002a 0348     		ldr	r0, .L95
 1005 002c 0721     		movs	r1, #7
 1006              	.LBE100:
 1007              	.LBE99:
 1008              		.loc 1 544 0
 1009 002e BDE81040 		pop	{r4, lr}
 1010              		.cfi_restore 14
 1011              		.cfi_restore 4
 1012              		.cfi_def_cfa_offset 0
 1013              	.LVL101:
 1014              	.LBB102:
 1015              	.LBB101:
 1016              		.loc 1 641 0
 1017 0032 FFF7FEBF 		b	extChannelEnable
 1018              	.LVL102:
 1019              	.L96:
 1020 0036 00BF     		.align	2
 1021              	.L95:
 1022 0038 00000000 		.word	EXTD1
 1023              	.LBE101:
 1024              	.LBE102:
 1025              		.cfi_endproc
 1026              	.LFE271:
ARM GAS  /tmp/ccSqZi8r.s 			page 19


 1027              		.size	halRfReceiveOn, .-halRfReceiveOn
 1028              		.section	.text.halRfReceiveOff,"ax",%progbits
 1029              		.align	2
 1030              		.p2align 4,,15
 1031              		.global	halRfReceiveOff
 1032              		.thumb
 1033              		.thumb_func
 1034              		.type	halRfReceiveOff, %function
 1035              	halRfReceiveOff:
 1036              	.LFB272:
 1037              		.loc 1 555 0
 1038              		.cfi_startproc
 1039              		@ args = 0, pretend = 0, frame = 0
 1040              		@ frame_needed = 0, uses_anonymous_args = 0
 1041 0000 10B5     		push	{r4, lr}
 1042              		.cfi_def_cfa_offset 8
 1043              		.cfi_offset 4, -8
 1044              		.cfi_offset 14, -4
 1045              		.loc 1 560 0
 1046 0002 FFF7FEFF 		bl	halRfDisableRxInterrupt
 1047              	.LVL103:
 1048              		.loc 1 561 0
 1049 0006 4720     		movs	r0, #71
 1050 0008 FFF7FEFF 		bl	CC2520_INS_STROBE
 1051              	.LVL104:
 1052              		.loc 1 562 0
 1053 000c 3E20     		movs	r0, #62
 1054 000e FFF7FEFF 		bl	CC2520_REGRD8
 1055              	.LVL105:
 1056 0012 0446     		mov	r4, r0
 1057              	.LVL106:
 1058              		.loc 1 564 0
 1059 0014 4520     		movs	r0, #69
 1060 0016 FFF7FEFF 		bl	CC2520_INS_STROBE
 1061              	.LVL107:
 1062              		.loc 1 566 0
 1063 001a 3E20     		movs	r0, #62
 1064 001c FFF7FEFF 		bl	CC2520_REGRD8
 1065              	.LVL108:
 1066 0020 A042     		cmp	r0, r4
 1067 0022 02D0     		beq	.L98
 1068              		.loc 1 567 0
 1069 0024 4720     		movs	r0, #71
 1070 0026 FFF7FEFF 		bl	CC2520_INS_STROBE
 1071              	.LVL109:
 1072              	.L98:
 1073              	.LBB103:
 1074              	.LBB104:
 1075              		.loc 1 641 0
 1076 002a 0348     		ldr	r0, .L100
 1077 002c 0721     		movs	r1, #7
 1078              	.LBE104:
 1079              	.LBE103:
 1080              		.loc 1 572 0
 1081 002e BDE81040 		pop	{r4, lr}
 1082              		.cfi_restore 14
 1083              		.cfi_restore 4
ARM GAS  /tmp/ccSqZi8r.s 			page 20


 1084              		.cfi_def_cfa_offset 0
 1085              	.LVL110:
 1086              	.LBB106:
 1087              	.LBB105:
 1088              		.loc 1 641 0
 1089 0032 FFF7FEBF 		b	extChannelEnable
 1090              	.LVL111:
 1091              	.L101:
 1092 0036 00BF     		.align	2
 1093              	.L100:
 1094 0038 00000000 		.word	EXTD1
 1095              	.LBE105:
 1096              	.LBE106:
 1097              		.cfi_endproc
 1098              	.LFE272:
 1099              		.size	halRfReceiveOff, .-halRfReceiveOff
 1100              		.section	.text.halRfFlushRx,"ax",%progbits
 1101              		.align	2
 1102              		.p2align 4,,15
 1103              		.global	halRfFlushRx
 1104              		.thumb
 1105              		.thumb_func
 1106              		.type	halRfFlushRx, %function
 1107              	halRfFlushRx:
 1108              	.LFB273:
 1109              		.loc 1 574 0
 1110              		.cfi_startproc
 1111              		@ args = 0, pretend = 0, frame = 0
 1112              		@ frame_needed = 0, uses_anonymous_args = 0
 1113 0000 08B5     		push	{r3, lr}
 1114              		.cfi_def_cfa_offset 8
 1115              		.cfi_offset 3, -8
 1116              		.cfi_offset 14, -4
 1117              		.loc 1 577 0
 1118 0002 FFF7FEFF 		bl	halRfDisableRxInterrupt
 1119              	.LVL112:
 1120              		.loc 1 578 0
 1121 0006 FFF7FEFF 		bl	CC2520_RXBUF8
 1122              	.LVL113:
 1123              		.loc 1 579 0
 1124 000a 4720     		movs	r0, #71
 1125 000c FFF7FEFF 		bl	CC2520_INS_STROBE
 1126              	.LVL114:
 1127              		.loc 1 580 0
 1128 0010 4720     		movs	r0, #71
 1129 0012 FFF7FEFF 		bl	CC2520_INS_STROBE
 1130              	.LVL115:
 1131              	.LBB107:
 1132              	.LBB108:
 1133              		.loc 1 641 0
 1134 0016 0348     		ldr	r0, .L104
 1135 0018 0721     		movs	r1, #7
 1136              	.LBE108:
 1137              	.LBE107:
 1138              		.loc 1 582 0
 1139 001a BDE80840 		pop	{r3, lr}
 1140              		.cfi_restore 14
ARM GAS  /tmp/ccSqZi8r.s 			page 21


 1141              		.cfi_restore 3
 1142              		.cfi_def_cfa_offset 0
 1143              	.LBB110:
 1144              	.LBB109:
 1145              		.loc 1 641 0
 1146 001e FFF7FEBF 		b	extChannelEnable
 1147              	.LVL116:
 1148              	.L105:
 1149 0022 00BF     		.align	2
 1150              	.L104:
 1151 0024 00000000 		.word	EXTD1
 1152              	.LBE109:
 1153              	.LBE110:
 1154              		.cfi_endproc
 1155              	.LFE273:
 1156              		.size	halRfFlushRx, .-halRfFlushRx
 1157              		.section	.text.halRfEnableRxInterrupt,"ax",%progbits
 1158              		.align	2
 1159              		.p2align 4,,15
 1160              		.global	halRfEnableRxInterrupt
 1161              		.thumb
 1162              		.thumb_func
 1163              		.type	halRfEnableRxInterrupt, %function
 1164              	halRfEnableRxInterrupt:
 1165              	.LFB278:
 1166              		.loc 1 640 0
 1167              		.cfi_startproc
 1168              		@ args = 0, pretend = 0, frame = 0
 1169              		@ frame_needed = 0, uses_anonymous_args = 0
 1170              		@ link register save eliminated.
 1171              		.loc 1 641 0
 1172 0000 0148     		ldr	r0, .L107
 1173 0002 0721     		movs	r1, #7
 1174 0004 FFF7FEBF 		b	extChannelEnable
 1175              	.LVL117:
 1176              	.L108:
 1177              		.align	2
 1178              	.L107:
 1179 0008 00000000 		.word	EXTD1
 1180              		.cfi_endproc
 1181              	.LFE278:
 1182              		.size	halRfEnableRxInterrupt, .-halRfEnableRxInterrupt
 1183              		.section	.text.halRfExtCb,"ax",%progbits
 1184              		.align	2
 1185              		.p2align 4,,15
 1186              		.global	halRfExtCb
 1187              		.thumb
 1188              		.thumb_func
 1189              		.type	halRfExtCb, %function
 1190              	halRfExtCb:
 1191              	.LFB279:
 1192              		.loc 1 648 0
 1193              		.cfi_startproc
 1194              		@ args = 0, pretend = 0, frame = 0
 1195              		@ frame_needed = 0, uses_anonymous_args = 0
 1196              	.LVL118:
 1197 0000 08B5     		push	{r3, lr}
ARM GAS  /tmp/ccSqZi8r.s 			page 22


 1198              		.cfi_def_cfa_offset 8
 1199              		.cfi_offset 3, -8
 1200              		.cfi_offset 14, -4
 1201              	.LBB111:
 1202              	.LBB112:
 1203              	.LBB113:
 1204              	.LBB114:
 1205              	.LBB115:
 1206              		.loc 3 342 0
 1207              	@ 342 "ChibiOS_3.0.2/os/ext/CMSIS/include/core_cmFunc.h" 1
 1208 0002 72B6     		cpsid i
 1209              	@ 0 "" 2
 1210              		.thumb
 1211              	.LBE115:
 1212              	.LBE114:
 1213              	.LBE113:
 1214              	.LBE112:
 1215              	.LBE111:
 1216              		.loc 1 653 0
 1217 0004 034B     		ldr	r3, .L111
 1218 0006 0121     		movs	r1, #1
 1219              	.LVL119:
 1220 0008 1868     		ldr	r0, [r3]
 1221              	.LVL120:
 1222 000a FFF7FEFF 		bl	chEvtSignalI
 1223              	.LVL121:
 1224              	.LBB116:
 1225              	.LBB117:
 1226              	.LBB118:
 1227              	.LBB119:
 1228              	.LBB120:
 1229              		.loc 3 331 0
 1230              	@ 331 "ChibiOS_3.0.2/os/ext/CMSIS/include/core_cmFunc.h" 1
 1231 000e 62B6     		cpsie i
 1232              	@ 0 "" 2
 1233              		.thumb
 1234 0010 08BD     		pop	{r3, pc}
 1235              	.L112:
 1236 0012 00BF     		.align	2
 1237              	.L111:
 1238 0014 00000000 		.word	.LANCHOR0
 1239              	.LBE120:
 1240              	.LBE119:
 1241              	.LBE118:
 1242              	.LBE117:
 1243              	.LBE116:
 1244              		.cfi_endproc
 1245              	.LFE279:
 1246              		.size	halRfExtCb, .-halRfExtCb
 1247              		.section	.text.halRfWaitTransceiverReady,"ax",%progbits
 1248              		.align	2
 1249              		.p2align 4,,15
 1250              		.global	halRfWaitTransceiverReady
 1251              		.thumb
 1252              		.thumb_func
 1253              		.type	halRfWaitTransceiverReady, %function
 1254              	halRfWaitTransceiverReady:
ARM GAS  /tmp/ccSqZi8r.s 			page 23


 1255              	.LFB281:
 1256              		.loc 1 681 0
 1257              		.cfi_startproc
 1258              		@ args = 0, pretend = 0, frame = 0
 1259              		@ frame_needed = 0, uses_anonymous_args = 0
 1260 0000 10B5     		push	{r4, lr}
 1261              		.cfi_def_cfa_offset 8
 1262              		.cfi_offset 4, -8
 1263              		.cfi_offset 14, -4
 1264              	.LBB121:
 1265              	.LBB122:
 1266              	.LBB123:
 1267              	.LBB124:
 1268              		.loc 3 342 0
 1269              	@ 342 "ChibiOS_3.0.2/os/ext/CMSIS/include/core_cmFunc.h" 1
 1270 0002 72B6     		cpsid i
 1271              	@ 0 "" 2
 1272              		.thumb
 1273              	.LBE124:
 1274              	.LBE123:
 1275              	.LBE122:
 1276              	.LBE121:
 1277              		.loc 1 686 0
 1278 0004 0E4C     		ldr	r4, .L120
 1279 0006 2220     		movs	r0, #34
 1280 0008 2A21     		movs	r1, #42
 1281 000a FFF7FEFF 		bl	CC2520_REGWR8
 1282              	.LVL122:
 1283 000e 0022     		movs	r2, #0
 1284 0010 2046     		mov	r0, r4
 1285 0012 2021     		movs	r1, #32
 1286 0014 FFF7FEFF 		bl	_pal_lld_setgroupmode
 1287              	.LVL123:
 1288              		.loc 1 687 0
 1289 0018 2369     		ldr	r3, [r4, #16]
 1290 001a 9A06     		lsls	r2, r3, #26
 1291 001c 05D5     		bpl	.L115
 1292              	.L116:
 1293              		.loc 1 688 0
 1294 001e 0120     		movs	r0, #1
 1295 0020 FFF7FEFF 		bl	chThdSleep
 1296              	.LVL124:
 1297              		.loc 1 687 0
 1298 0024 2369     		ldr	r3, [r4, #16]
 1299 0026 9B06     		lsls	r3, r3, #26
 1300 0028 F9D4     		bmi	.L116
 1301              	.L115:
 1302              		.loc 1 691 0
 1303 002a 2220     		movs	r0, #34
 1304 002c 2C21     		movs	r1, #44
 1305 002e FFF7FEFF 		bl	CC2520_REGWR8
 1306              	.LVL125:
 1307 0032 0348     		ldr	r0, .L120
 1308 0034 2021     		movs	r1, #32
 1309 0036 0022     		movs	r2, #0
 1310 0038 FFF7FEFF 		bl	_pal_lld_setgroupmode
 1311              	.LVL126:
ARM GAS  /tmp/ccSqZi8r.s 			page 24


 1312              	.LBB125:
 1313              	.LBB126:
 1314              	.LBB127:
 1315              	.LBB128:
 1316              	.LBB129:
 1317              		.loc 3 331 0
 1318              	@ 331 "ChibiOS_3.0.2/os/ext/CMSIS/include/core_cmFunc.h" 1
 1319 003c 62B6     		cpsie i
 1320              	@ 0 "" 2
 1321              		.thumb
 1322 003e 10BD     		pop	{r4, pc}
 1323              	.L121:
 1324              		.align	2
 1325              	.L120:
 1326 0040 00080240 		.word	1073874944
 1327              	.LBE129:
 1328              	.LBE128:
 1329              	.LBE127:
 1330              	.LBE126:
 1331              	.LBE125:
 1332              		.cfi_endproc
 1333              	.LFE281:
 1334              		.size	halRfWaitTransceiverReady, .-halRfWaitTransceiverReady
 1335              		.global	powerMenu
 1336              		.section	.bss.waIsrTx,"aw",%nobits
 1337              		.align	3
 1338              		.set	.LANCHOR3,. + 0
 1339              		.type	waIsrTx, %object
 1340              		.size	waIsrTx, 1432
 1341              	waIsrTx:
 1342 0000 00000000 		.space	1432
 1342      00000000 
 1342      00000000 
 1342      00000000 
 1342      00000000 
 1343              		.section	.rodata.pPowerSettings,"a",%progbits
 1344              		.align	2
 1345              		.type	pPowerSettings, %object
 1346              		.size	pPowerSettings, 40
 1347              	pPowerSettings:
 1348 0000 0C000000 		.word	.LC1
 1349 0004 01       		.byte	1
 1350 0005 000000   		.space	3
 1351 0008 14000000 		.word	.LC2
 1352 000c 02       		.byte	2
 1353 000d 000000   		.space	3
 1354 0010 1C000000 		.word	.LC3
 1355 0014 03       		.byte	3
 1356 0015 000000   		.space	3
 1357 0018 24000000 		.word	.LC4
 1358 001c 04       		.byte	4
 1359 001d 000000   		.space	3
 1360 0020 2C000000 		.word	.LC5
 1361 0024 05       		.byte	5
 1362 0025 000000   		.space	3
 1363              		.section	.rodata.powerMenu,"a",%progbits
 1364              		.align	2
ARM GAS  /tmp/ccSqZi8r.s 			page 25


 1365              		.type	powerMenu, %object
 1366              		.size	powerMenu, 8
 1367              	powerMenu:
 1368 0000 00000000 		.word	pPowerSettings
 1369 0004 05       		.byte	5
 1370 0005 000000   		.space	3
 1371              		.section	.data.regval,"aw",%progbits
 1372              		.align	2
 1373              		.set	.LANCHOR4,. + 0
 1374              		.type	regval, %object
 1375              		.size	regval, 46
 1376              	regval:
 1377 0000 30       		.byte	48
 1378 0001 F9       		.byte	-7
 1379 0002 31       		.byte	49
 1380 0003 C1       		.byte	-63
 1381 0004 36       		.byte	54
 1382 0005 F8       		.byte	-8
 1383 0006 37       		.byte	55
 1384 0007 1A       		.byte	26
 1385 0008 46       		.byte	70
 1386 0009 85       		.byte	-123
 1387 000a 47       		.byte	71
 1388 000b 14       		.byte	20
 1389 000c 4A       		.byte	74
 1390 000d 3F       		.byte	63
 1391 000e 4C       		.byte	76
 1392 000f 5A       		.byte	90
 1393 0010 4F       		.byte	79
 1394 0011 03       		.byte	3
 1395 0012 53       		.byte	83
 1396 0013 16       		.byte	22
 1397 0014 56       		.byte	86
 1398 0015 10       		.byte	16
 1399 0016 57       		.byte	87
 1400 0017 0E       		.byte	14
 1401 0018 58       		.byte	88
 1402 0019 03       		.byte	3
 1403 001a 0C       		.byte	12
 1404 001b 60       		.byte	96
 1405 001c 44       		.byte	68
 1406 001d 00       		.byte	0
 1407 001e 20       		.byte	32
 1408 001f 09       		.byte	9
 1409 0020 21       		.byte	33
 1410 0021 2D       		.byte	45
 1411 0022 22       		.byte	34
 1412 0023 2C       		.byte	44
 1413 0024 23       		.byte	35
 1414 0025 07       		.byte	7
 1415 0026 24       		.byte	36
 1416 0027 46       		.byte	70
 1417 0028 25       		.byte	37
 1418 0029 47       		.byte	71
 1419 002a 26       		.byte	38
 1420 002b 0F       		.byte	15
 1421 002c 00       		.byte	0
ARM GAS  /tmp/ccSqZi8r.s 			page 26


 1422 002d 00       		.byte	0
 1423              		.section	.data.rssiOffset,"aw",%progbits
 1424              		.set	.LANCHOR2,. + 0
 1425              		.type	rssiOffset, %object
 1426              		.size	rssiOffset, 1
 1427              	rssiOffset:
 1428 0000 4F       		.byte	79
 1429              		.section	.bss.isr_tp,"aw",%nobits
 1430              		.align	2
 1431              		.set	.LANCHOR0,. + 0
 1432              		.type	isr_tp, %object
 1433              		.size	isr_tp, 4
 1434              	isr_tp:
 1435 0000 00000000 		.space	4
 1436              		.section	.rodata.str1.4,"aMS",%progbits,1
 1437              		.align	2
 1438              	.LC0:
 1439 0000 43433235 		.ascii	"CC2520 EXTI\000"
 1439      32302045 
 1439      58544900 
 1440              	.LC1:
 1441 000c 2D316442 		.ascii	"-1dBm\000"
 1441      6D00
 1442 0012 0000     		.space	2
 1443              	.LC2:
 1444 0014 31316442 		.ascii	"11dBm\000"
 1444      6D00
 1445 001a 0000     		.space	2
 1446              	.LC3:
 1447 001c 31346442 		.ascii	"14dBm\000"
 1447      6D00
 1448 0022 0000     		.space	2
 1449              	.LC4:
 1450 0024 31366442 		.ascii	"16dBm\000"
 1450      6D00
 1451 002a 0000     		.space	2
 1452              	.LC5:
 1453 002c 31376442 		.ascii	"17dBm\000"
 1453      6D00
 1454              		.section	.bss.gpio0_func,"aw",%nobits
 1455              		.align	2
 1456              		.set	.LANCHOR1,. + 0
 1457              		.type	gpio0_func, %object
 1458              		.size	gpio0_func, 4
 1459              	gpio0_func:
 1460 0000 00000000 		.space	4
 1461              		.text
 1462              	.Letext0:
 1463              		.file 4 "/usr/arm-none-eabi/include/machine/_default_types.h"
 1464              		.file 5 "/usr/arm-none-eabi/include/sys/_stdint.h"
 1465              		.file 6 "/usr/lib/gcc/arm-none-eabi/4.9.3/include/stddef.h"
 1466              		.file 7 "ChibiOS_3.0.2/os/rt/ports/ARMCMx/compilers/GCC/chtypes.h"
 1467              		.file 8 "ChibiOS_3.0.2/os/rt/include/chsystypes.h"
 1468              		.file 9 "ChibiOS_3.0.2/os/rt/include/chschd.h"
 1469              		.file 10 "ChibiOS_3.0.2/os/rt/ports/ARMCMx/chcore.h"
 1470              		.file 11 "ChibiOS_3.0.2/os/rt/ports/ARMCMx/chcore_v7m.h"
 1471              		.file 12 "ChibiOS_3.0.2/os/rt/include/chtm.h"
ARM GAS  /tmp/ccSqZi8r.s 			page 27


 1472              		.file 13 "ChibiOS_3.0.2/os/rt/include/chsem.h"
 1473              		.file 14 "ChibiOS_3.0.2/os/rt/include/chmtx.h"
 1474              		.file 15 "ChibiOS_3.0.2/os/rt/include/chthreads.h"
 1475              		.file 16 "ChibiOS_3.0.2/os/hal/ports/STM32/LLD/GPIOv2/pal_lld.h"
 1476              		.file 17 "ChibiOS_3.0.2/os/hal/include/ext.h"
 1477              		.file 18 "ChibiOS_3.0.2/os/hal/ports/STM32/LLD/ext_lld.h"
 1478              		.file 19 "cc2520/driver/hal_types.h"
 1479              		.file 20 "cc2520/driver/util.h"
 1480              		.file 21 "ChibiOS_3.0.2/os/rt/include/chsys.h"
 1481              		.file 22 "ChibiOS_3.0.2/os/ext/CMSIS/include/core_cm4.h"
 1482              		.file 23 "ChibiOS_3.0.2/os/rt/include/chevents.h"
 1483              		.file 24 "cc2520/driver/hal_cc2520.h"
 1484              		.file 25 "cc2520/driver/spi_sw.h"