ARM GAS  /tmp/ccrnTToh.s 			page 1


   1              		.syntax unified
   2              		.cpu cortex-m4
   3              		.eabi_attribute 27, 1
   4              		.eabi_attribute 28, 1
   5              		.fpu fpv4-sp-d16
   6              		.eabi_attribute 20, 1
   7              		.eabi_attribute 21, 1
   8              		.eabi_attribute 23, 3
   9              		.eabi_attribute 24, 1
  10              		.eabi_attribute 25, 1
  11              		.eabi_attribute 26, 1
  12              		.eabi_attribute 30, 2
  13              		.eabi_attribute 34, 1
  14              		.eabi_attribute 18, 4
  15              		.thumb
  16              		.file	"hal_rf_util.c"
  17              		.text
  18              	.Ltext0:
  19              		.cfi_sections	.debug_frame
  20              		.section	.text.halSampleED,"ax",%progbits
  21              		.align	2
  22              		.p2align 4,,15
  23              		.global	halSampleED
  24              		.thumb
  25              		.thumb_func
  26              		.type	halSampleED, %function
  27              	halSampleED:
  28              	.LFB256:
  29              		.file 1 "cc2520/driver/hal_rf_util.c"
  30              		.loc 1 50 0
  31              		.cfi_startproc
  32              		@ args = 0, pretend = 0, frame = 0
  33              		@ frame_needed = 0, uses_anonymous_args = 0
  34              	.LVL0:
  35              		.loc 1 53 0
  36 0000 00EB8000 		add	r0, r0, r0, lsl #2
  37              	.LVL1:
  38 0004 A0F12C03 		sub	r3, r0, #44
  39              		.loc 1 50 0
  40 0008 10B5     		push	{r4, lr}
  41              		.cfi_def_cfa_offset 8
  42              		.cfi_offset 4, -8
  43              		.cfi_offset 14, -4
  44              		.loc 1 53 0
  45 000a 2E20     		movs	r0, #46
  46              		.loc 1 50 0
  47 000c 0C46     		mov	r4, r1
  48              		.loc 1 53 0
  49 000e D9B2     		uxtb	r1, r3
  50              	.LVL2:
  51 0010 FFF7FEFF 		bl	CC2520_REGWR8
  52              	.LVL3:
  53              		.loc 1 54 0
  54 0014 FFF7FEFF 		bl	CC2520_SRXON
  55              	.LVL4:
  56              	.L2:
  57              		.loc 1 55 0 discriminator 1
ARM GAS  /tmp/ccrnTToh.s 			page 2


  58 0018 3920     		movs	r0, #57
  59 001a FFF7FEFF 		bl	CC2520_REGRD8
  60              	.LVL5:
  61 001e 0028     		cmp	r0, #0
  62 0020 FAD0     		beq	.L2
  63              		.loc 1 58 0
  64 0022 6420     		movs	r0, #100
  65 0024 FFF7FEFF 		bl	CC2520_BSET
  66              	.LVL6:
  67              		.loc 1 62 0
  68 0028 42F21073 		movw	r3, #10000
  69 002c 03FB04F3 		mul	r3, r3, r4
  70 0030 03F57423 		add	r3, r3, #999424
  71 0034 0948     		ldr	r0, .L7
  72 0036 03F23F23 		addw	r3, r3, #575
  73 003a A0FB0330 		umull	r3, r0, r0, r3
  74 003e 800C     		lsrs	r0, r0, #18
  75 0040 FFF7FEFF 		bl	chThdSleep
  76              	.LVL7:
  77              		.loc 1 63 0
  78 0044 3820     		movs	r0, #56
  79 0046 FFF7FEFF 		bl	CC2520_REGRD8
  80              	.LVL8:
  81 004a 0446     		mov	r4, r0
  82              	.LVL9:
  83              		.loc 1 66 0
  84 004c FFF7FEFF 		bl	CC2520_SRFOFF
  85              	.LVL10:
  86              		.loc 1 68 0
  87 0050 6420     		movs	r0, #100
  88 0052 FFF7FEFF 		bl	CC2520_BCLR
  89              	.LVL11:
  90              		.loc 1 71 0
  91 0056 60B2     		sxtb	r0, r4
  92 0058 10BD     		pop	{r4, pc}
  93              	.LVL12:
  94              	.L8:
  95 005a 00BF     		.align	2
  96              	.L7:
  97 005c 83DE1B43 		.word	1125899907
  98              		.cfi_endproc
  99              	.LFE256:
 100              		.size	halSampleED, .-halSampleED
 101              		.section	.text.halSetRxScanMode,"ax",%progbits
 102              		.align	2
 103              		.p2align 4,,15
 104              		.global	halSetRxScanMode
 105              		.thumb
 106              		.thumb_func
 107              		.type	halSetRxScanMode, %function
 108              	halSetRxScanMode:
 109              	.LFB257:
 110              		.loc 1 84 0
 111              		.cfi_startproc
 112              		@ args = 0, pretend = 0, frame = 0
 113              		@ frame_needed = 0, uses_anonymous_args = 0
 114              		@ link register save eliminated.
ARM GAS  /tmp/ccrnTToh.s 			page 3


 115              		.loc 1 86 0
 116 0000 0C20     		movs	r0, #12
 117 0002 0146     		mov	r1, r0
 118 0004 FFF7FEBF 		b	CC2520_REGWR8
 119              	.LVL13:
 120              		.cfi_endproc
 121              	.LFE257:
 122              		.size	halSetRxScanMode, .-halSetRxScanMode
 123              		.text
 124              	.Letext0:
 125              		.file 2 "/usr/arm-none-eabi/include/machine/_default_types.h"
 126              		.file 3 "/usr/arm-none-eabi/include/sys/_stdint.h"
 127              		.file 4 "ChibiOS_3.0.2/os/rt/ports/ARMCMx/compilers/GCC/chtypes.h"
 128              		.file 5 "ChibiOS_3.0.2/os/rt/include/chsystypes.h"
 129              		.file 6 "ChibiOS_3.0.2/os/rt/include/chschd.h"
 130              		.file 7 "ChibiOS_3.0.2/os/rt/ports/ARMCMx/chcore.h"
 131              		.file 8 "ChibiOS_3.0.2/os/rt/ports/ARMCMx/chcore_v7m.h"
 132              		.file 9 "ChibiOS_3.0.2/os/rt/include/chtm.h"
 133              		.file 10 "ChibiOS_3.0.2/os/rt/include/chsem.h"
 134              		.file 11 "ChibiOS_3.0.2/os/rt/include/chmtx.h"
 135              		.file 12 "cc2520/driver/hal_types.h"
 136              		.file 13 "cc2520/driver/hal_cc2520.h"
 137              		.file 14 "ChibiOS_3.0.2/os/rt/include/chthreads.h"
 138              		.file 15 "ChibiOS_3.0.2/os/ext/CMSIS/include/core_cm4.h"
 139              		.section	.debug_info,"",%progbits
 140              	.Ldebug_info0:
 141 0000 D7080000 		.4byte	0x8d7
 142 0004 0400     		.2byte	0x4
 143 0006 00000000 		.4byte	.Ldebug_abbrev0
 144 000a 04       		.byte	0x4
 145 000b 01       		.uleb128 0x1
 146 000c 39040000 		.4byte	.LASF118
 147 0010 01       		.byte	0x1
 148 0011 72000000 		.4byte	.LASF119
 149 0015 0B030000 		.4byte	.LASF120
 150 0019 00000000 		.4byte	.Ldebug_ranges0+0
 151 001d 00000000 		.4byte	0
 152 0021 00000000 		.4byte	.Ldebug_line0
 153 0025 02       		.uleb128 0x2
 154 0026 08       		.byte	0x8
 155 0027 07       		.byte	0x7
 156 0028 5B000000 		.4byte	.LASF0
 157 002c 02       		.uleb128 0x2
 158 002d 04       		.byte	0x4
 159 002e 07       		.byte	0x7
 160 002f AD010000 		.4byte	.LASF1
 161 0033 02       		.uleb128 0x2
 162 0034 01       		.byte	0x1
 163 0035 06       		.byte	0x6
 164 0036 EB000000 		.4byte	.LASF2
 165 003a 03       		.uleb128 0x3
 166 003b 2A000000 		.4byte	.LASF6
 167 003f 02       		.byte	0x2
 168 0040 1D       		.byte	0x1d
 169 0041 45000000 		.4byte	0x45
 170 0045 02       		.uleb128 0x2
 171 0046 01       		.byte	0x1
ARM GAS  /tmp/ccrnTToh.s 			page 4


 172 0047 08       		.byte	0x8
 173 0048 5A030000 		.4byte	.LASF3
 174 004c 02       		.uleb128 0x2
 175 004d 02       		.byte	0x2
 176 004e 05       		.byte	0x5
 177 004f 72030000 		.4byte	.LASF4
 178 0053 02       		.uleb128 0x2
 179 0054 02       		.byte	0x2
 180 0055 07       		.byte	0x7
 181 0056 EA010000 		.4byte	.LASF5
 182 005a 03       		.uleb128 0x3
 183 005b 40020000 		.4byte	.LASF7
 184 005f 02       		.byte	0x2
 185 0060 3F       		.byte	0x3f
 186 0061 65000000 		.4byte	0x65
 187 0065 02       		.uleb128 0x2
 188 0066 04       		.byte	0x4
 189 0067 05       		.byte	0x5
 190 0068 3B010000 		.4byte	.LASF8
 191 006c 03       		.uleb128 0x3
 192 006d 82050000 		.4byte	.LASF9
 193 0071 02       		.byte	0x2
 194 0072 41       		.byte	0x41
 195 0073 77000000 		.4byte	0x77
 196 0077 02       		.uleb128 0x2
 197 0078 04       		.byte	0x4
 198 0079 07       		.byte	0x7
 199 007a 1D040000 		.4byte	.LASF10
 200 007e 02       		.uleb128 0x2
 201 007f 08       		.byte	0x8
 202 0080 05       		.byte	0x5
 203 0081 DD000000 		.4byte	.LASF11
 204 0085 03       		.uleb128 0x3
 205 0086 D9020000 		.4byte	.LASF12
 206 008a 02       		.byte	0x2
 207 008b 5B       		.byte	0x5b
 208 008c 25000000 		.4byte	0x25
 209 0090 04       		.uleb128 0x4
 210 0091 04       		.byte	0x4
 211 0092 05       		.byte	0x5
 212 0093 696E7400 		.ascii	"int\000"
 213 0097 03       		.uleb128 0x3
 214 0098 E4050000 		.4byte	.LASF13
 215 009c 03       		.byte	0x3
 216 009d 14       		.byte	0x14
 217 009e 3A000000 		.4byte	0x3a
 218 00a2 03       		.uleb128 0x3
 219 00a3 52030000 		.4byte	.LASF14
 220 00a7 03       		.byte	0x3
 221 00a8 1F       		.byte	0x1f
 222 00a9 5A000000 		.4byte	0x5a
 223 00ad 03       		.uleb128 0x3
 224 00ae F5030000 		.4byte	.LASF15
 225 00b2 03       		.byte	0x3
 226 00b3 20       		.byte	0x20
 227 00b4 6C000000 		.4byte	0x6c
 228 00b8 03       		.uleb128 0x3
ARM GAS  /tmp/ccrnTToh.s 			page 5


 229 00b9 21000000 		.4byte	.LASF16
 230 00bd 03       		.byte	0x3
 231 00be 26       		.byte	0x26
 232 00bf 85000000 		.4byte	0x85
 233 00c3 05       		.uleb128 0x5
 234 00c4 A2000000 		.4byte	0xa2
 235 00c8 03       		.uleb128 0x3
 236 00c9 A6050000 		.4byte	.LASF17
 237 00cd 04       		.byte	0x4
 238 00ce 45       		.byte	0x45
 239 00cf AD000000 		.4byte	0xad
 240 00d3 03       		.uleb128 0x3
 241 00d4 1E020000 		.4byte	.LASF18
 242 00d8 04       		.byte	0x4
 243 00d9 48       		.byte	0x48
 244 00da 97000000 		.4byte	0x97
 245 00de 03       		.uleb128 0x3
 246 00df 44010000 		.4byte	.LASF19
 247 00e3 04       		.byte	0x4
 248 00e4 49       		.byte	0x49
 249 00e5 97000000 		.4byte	0x97
 250 00e9 03       		.uleb128 0x3
 251 00ea E4020000 		.4byte	.LASF20
 252 00ee 04       		.byte	0x4
 253 00ef 4A       		.byte	0x4a
 254 00f0 97000000 		.4byte	0x97
 255 00f4 03       		.uleb128 0x3
 256 00f5 27010000 		.4byte	.LASF21
 257 00f9 04       		.byte	0x4
 258 00fa 4B       		.byte	0x4b
 259 00fb 97000000 		.4byte	0x97
 260 00ff 03       		.uleb128 0x3
 261 0100 03030000 		.4byte	.LASF22
 262 0104 04       		.byte	0x4
 263 0105 4C       		.byte	0x4c
 264 0106 AD000000 		.4byte	0xad
 265 010a 03       		.uleb128 0x3
 266 010b 0C020000 		.4byte	.LASF23
 267 010f 04       		.byte	0x4
 268 0110 4D       		.byte	0x4d
 269 0111 A2000000 		.4byte	0xa2
 270 0115 03       		.uleb128 0x3
 271 0116 34020000 		.4byte	.LASF24
 272 011a 04       		.byte	0x4
 273 011b 4F       		.byte	0x4f
 274 011c AD000000 		.4byte	0xad
 275 0120 03       		.uleb128 0x3
 276 0121 A7010000 		.4byte	.LASF25
 277 0125 04       		.byte	0x4
 278 0126 51       		.byte	0x51
 279 0127 A2000000 		.4byte	0xa2
 280 012b 03       		.uleb128 0x3
 281 012c 64050000 		.4byte	.LASF26
 282 0130 05       		.byte	0x5
 283 0131 33       		.byte	0x33
 284 0132 AD000000 		.4byte	0xad
 285 0136 03       		.uleb128 0x3
ARM GAS  /tmp/ccrnTToh.s 			page 6


 286 0137 D5050000 		.4byte	.LASF27
 287 013b 05       		.byte	0x5
 288 013c 3F       		.byte	0x3f
 289 013d 41010000 		.4byte	0x141
 290 0141 06       		.uleb128 0x6
 291 0142 FD010000 		.4byte	.LASF49
 292 0146 48       		.byte	0x48
 293 0147 06       		.byte	0x6
 294 0148 C2       		.byte	0xc2
 295 0149 46020000 		.4byte	0x246
 296 014d 07       		.uleb128 0x7
 297 014e 9C030000 		.4byte	.LASF28
 298 0152 06       		.byte	0x6
 299 0153 C3       		.byte	0xc3
 300 0154 51020000 		.4byte	0x251
 301 0158 00       		.byte	0
 302 0159 07       		.uleb128 0x7
 303 015a FC020000 		.4byte	.LASF29
 304 015e 06       		.byte	0x6
 305 015f C5       		.byte	0xc5
 306 0160 51020000 		.4byte	0x251
 307 0164 04       		.byte	0x4
 308 0165 07       		.uleb128 0x7
 309 0166 D6000000 		.4byte	.LASF30
 310 016a 06       		.byte	0x6
 311 016b C7       		.byte	0xc7
 312 016c FF000000 		.4byte	0xff
 313 0170 08       		.byte	0x8
 314 0171 07       		.uleb128 0x7
 315 0172 21060000 		.4byte	.LASF31
 316 0176 06       		.byte	0x6
 317 0177 C8       		.byte	0xc8
 318 0178 81040000 		.4byte	0x481
 319 017c 0C       		.byte	0xc
 320 017d 07       		.uleb128 0x7
 321 017e 5B010000 		.4byte	.LASF32
 322 0182 06       		.byte	0x6
 323 0183 CA       		.byte	0xca
 324 0184 51020000 		.4byte	0x251
 325 0188 10       		.byte	0x10
 326 0189 07       		.uleb128 0x7
 327 018a A8020000 		.4byte	.LASF33
 328 018e 06       		.byte	0x6
 329 018f CB       		.byte	0xcb
 330 0190 51020000 		.4byte	0x251
 331 0194 14       		.byte	0x14
 332 0195 07       		.uleb128 0x7
 333 0196 F3050000 		.4byte	.LASF34
 334 019a 06       		.byte	0x6
 335 019b D2       		.byte	0xd2
 336 019c C6060000 		.4byte	0x6c6
 337 01a0 18       		.byte	0x18
 338 01a1 07       		.uleb128 0x7
 339 01a2 7C030000 		.4byte	.LASF35
 340 01a6 06       		.byte	0x6
 341 01a7 DD       		.byte	0xdd
 342 01a8 DE000000 		.4byte	0xde
ARM GAS  /tmp/ccrnTToh.s 			page 7


 343 01ac 1C       		.byte	0x1c
 344 01ad 07       		.uleb128 0x7
 345 01ae B1030000 		.4byte	.LASF36
 346 01b2 06       		.byte	0x6
 347 01b3 E1       		.byte	0xe1
 348 01b4 D3000000 		.4byte	0xd3
 349 01b8 1D       		.byte	0x1d
 350 01b9 07       		.uleb128 0x7
 351 01ba CE050000 		.4byte	.LASF37
 352 01be 06       		.byte	0x6
 353 01bf E6       		.byte	0xe6
 354 01c0 E9000000 		.4byte	0xe9
 355 01c4 1E       		.byte	0x1e
 356 01c5 07       		.uleb128 0x7
 357 01c6 84030000 		.4byte	.LASF38
 358 01ca 06       		.byte	0x6
 359 01cb EC       		.byte	0xec
 360 01cc F4000000 		.4byte	0xf4
 361 01d0 1F       		.byte	0x1f
 362 01d1 07       		.uleb128 0x7
 363 01d2 C2010000 		.4byte	.LASF39
 364 01d6 06       		.byte	0x6
 365 01d7 F3       		.byte	0xf3
 366 01d8 D8060000 		.4byte	0x6d8
 367 01dc 20       		.byte	0x20
 368 01dd 08       		.uleb128 0x8
 369 01de 705F7500 		.ascii	"p_u\000"
 370 01e2 06       		.byte	0x6
 371 01e3 3101     		.2byte	0x131
 372 01e5 01060000 		.4byte	0x601
 373 01e9 24       		.byte	0x24
 374 01ea 09       		.uleb128 0x9
 375 01eb 2F060000 		.4byte	.LASF40
 376 01ef 06       		.byte	0x6
 377 01f0 3601     		.2byte	0x136
 378 01f2 57020000 		.4byte	0x257
 379 01f6 28       		.byte	0x28
 380 01f7 09       		.uleb128 0x9
 381 01f8 D9010000 		.4byte	.LASF41
 382 01fc 06       		.byte	0x6
 383 01fd 3C01     		.2byte	0x13c
 384 01ff 7B020000 		.4byte	0x27b
 385 0203 2C       		.byte	0x2c
 386 0204 09       		.uleb128 0x9
 387 0205 05060000 		.4byte	.LASF42
 388 0209 06       		.byte	0x6
 389 020a 4001     		.2byte	0x140
 390 020c 0A010000 		.4byte	0x10a
 391 0210 34       		.byte	0x34
 392 0211 09       		.uleb128 0x9
 393 0212 DF030000 		.4byte	.LASF43
 394 0216 06       		.byte	0x6
 395 0217 4601     		.2byte	0x146
 396 0219 15010000 		.4byte	0x115
 397 021d 38       		.byte	0x38
 398 021e 09       		.uleb128 0x9
 399 021f 68030000 		.4byte	.LASF44
ARM GAS  /tmp/ccrnTToh.s 			page 8


 400 0223 06       		.byte	0x6
 401 0224 4D01     		.2byte	0x14d
 402 0226 C0060000 		.4byte	0x6c0
 403 022a 3C       		.byte	0x3c
 404 022b 09       		.uleb128 0x9
 405 022c 6E050000 		.4byte	.LASF45
 406 0230 06       		.byte	0x6
 407 0231 5101     		.2byte	0x151
 408 0233 FF000000 		.4byte	0xff
 409 0237 40       		.byte	0x40
 410 0238 09       		.uleb128 0x9
 411 0239 03010000 		.4byte	.LASF46
 412 023d 06       		.byte	0x6
 413 023e 5801     		.2byte	0x158
 414 0240 2E030000 		.4byte	0x32e
 415 0244 44       		.byte	0x44
 416 0245 00       		.byte	0
 417 0246 03       		.uleb128 0x3
 418 0247 78020000 		.4byte	.LASF47
 419 024b 05       		.byte	0x5
 420 024c 44       		.byte	0x44
 421 024d 51020000 		.4byte	0x251
 422 0251 0A       		.uleb128 0xa
 423 0252 04       		.byte	0x4
 424 0253 36010000 		.4byte	0x136
 425 0257 03       		.uleb128 0x3
 426 0258 55020000 		.4byte	.LASF48
 427 025c 05       		.byte	0x5
 428 025d 49       		.byte	0x49
 429 025e 62020000 		.4byte	0x262
 430 0262 06       		.uleb128 0x6
 431 0263 0D040000 		.4byte	.LASF50
 432 0267 04       		.byte	0x4
 433 0268 06       		.byte	0x6
 434 0269 B0       		.byte	0xb0
 435 026a 7B020000 		.4byte	0x27b
 436 026e 07       		.uleb128 0x7
 437 026f 9C030000 		.4byte	.LASF28
 438 0273 06       		.byte	0x6
 439 0274 B1       		.byte	0xb1
 440 0275 51020000 		.4byte	0x251
 441 0279 00       		.byte	0
 442 027a 00       		.byte	0
 443 027b 03       		.uleb128 0x3
 444 027c B5050000 		.4byte	.LASF51
 445 0280 05       		.byte	0x5
 446 0281 50       		.byte	0x50
 447 0282 86020000 		.4byte	0x286
 448 0286 06       		.uleb128 0x6
 449 0287 C5000000 		.4byte	.LASF52
 450 028b 08       		.byte	0x8
 451 028c 06       		.byte	0x6
 452 028d B7       		.byte	0xb7
 453 028e AB020000 		.4byte	0x2ab
 454 0292 07       		.uleb128 0x7
 455 0293 9C030000 		.4byte	.LASF28
 456 0297 06       		.byte	0x6
ARM GAS  /tmp/ccrnTToh.s 			page 9


 457 0298 B8       		.byte	0xb8
 458 0299 51020000 		.4byte	0x251
 459 029d 00       		.byte	0
 460 029e 07       		.uleb128 0x7
 461 029f FC020000 		.4byte	.LASF29
 462 02a3 06       		.byte	0x6
 463 02a4 B9       		.byte	0xb9
 464 02a5 51020000 		.4byte	0x251
 465 02a9 04       		.byte	0x4
 466 02aa 00       		.byte	0
 467 02ab 03       		.uleb128 0x3
 468 02ac 07000000 		.4byte	.LASF53
 469 02b0 05       		.byte	0x5
 470 02b1 57       		.byte	0x57
 471 02b2 B6020000 		.4byte	0x2b6
 472 02b6 0B       		.uleb128 0xb
 473 02b7 26020000 		.4byte	.LASF54
 474 02bb 1C       		.byte	0x1c
 475 02bc 06       		.byte	0x6
 476 02bd 9001     		.2byte	0x190
 477 02bf 12030000 		.4byte	0x312
 478 02c3 09       		.uleb128 0x9
 479 02c4 05040000 		.4byte	.LASF55
 480 02c8 06       		.byte	0x6
 481 02c9 9101     		.2byte	0x191
 482 02cb 7B020000 		.4byte	0x27b
 483 02cf 00       		.byte	0
 484 02d0 09       		.uleb128 0x9
 485 02d1 8E030000 		.4byte	.LASF56
 486 02d5 06       		.byte	0x6
 487 02d6 9201     		.2byte	0x192
 488 02d8 FF000000 		.4byte	0xff
 489 02dc 08       		.byte	0x8
 490 02dd 09       		.uleb128 0x9
 491 02de B0020000 		.4byte	.LASF57
 492 02e2 06       		.byte	0x6
 493 02e3 9401     		.2byte	0x194
 494 02e5 81040000 		.4byte	0x481
 495 02e9 0C       		.byte	0xc
 496 02ea 09       		.uleb128 0x9
 497 02eb 6B010000 		.4byte	.LASF58
 498 02ef 06       		.byte	0x6
 499 02f0 9701     		.2byte	0x197
 500 02f2 51020000 		.4byte	0x251
 501 02f6 10       		.byte	0x10
 502 02f7 09       		.uleb128 0x9
 503 02f8 D1020000 		.4byte	.LASF59
 504 02fc 06       		.byte	0x6
 505 02fd 9801     		.2byte	0x198
 506 02ff 51020000 		.4byte	0x251
 507 0303 14       		.byte	0x14
 508 0304 09       		.uleb128 0x9
 509 0305 C7020000 		.4byte	.LASF60
 510 0309 06       		.byte	0x6
 511 030a 9B01     		.2byte	0x19b
 512 030c 51020000 		.4byte	0x251
 513 0310 18       		.byte	0x18
ARM GAS  /tmp/ccrnTToh.s 			page 10


 514 0311 00       		.byte	0
 515 0312 03       		.uleb128 0x3
 516 0313 79050000 		.4byte	.LASF61
 517 0317 05       		.byte	0x5
 518 0318 5C       		.byte	0x5c
 519 0319 1D030000 		.4byte	0x31d
 520 031d 0A       		.uleb128 0xa
 521 031e 04       		.byte	0x4
 522 031f 23030000 		.4byte	0x323
 523 0323 0C       		.uleb128 0xc
 524 0324 2E030000 		.4byte	0x32e
 525 0328 0D       		.uleb128 0xd
 526 0329 2E030000 		.4byte	0x32e
 527 032d 00       		.byte	0
 528 032e 0E       		.uleb128 0xe
 529 032f 04       		.byte	0x4
 530 0330 03       		.uleb128 0x3
 531 0331 EC020000 		.4byte	.LASF62
 532 0335 05       		.byte	0x5
 533 0336 61       		.byte	0x61
 534 0337 3B030000 		.4byte	0x33b
 535 033b 0B       		.uleb128 0xb
 536 033c C1030000 		.4byte	.LASF63
 537 0340 14       		.byte	0x14
 538 0341 06       		.byte	0x6
 539 0342 6B01     		.2byte	0x16b
 540 0344 8A030000 		.4byte	0x38a
 541 0348 09       		.uleb128 0x9
 542 0349 BA010000 		.4byte	.LASF64
 543 034d 06       		.byte	0x6
 544 034e 6C01     		.2byte	0x16c
 545 0350 DD060000 		.4byte	0x6dd
 546 0354 00       		.byte	0
 547 0355 09       		.uleb128 0x9
 548 0356 7C010000 		.4byte	.LASF65
 549 035a 06       		.byte	0x6
 550 035b 6D01     		.2byte	0x16d
 551 035d DD060000 		.4byte	0x6dd
 552 0361 04       		.byte	0x4
 553 0362 09       		.uleb128 0x9
 554 0363 D0010000 		.4byte	.LASF66
 555 0367 06       		.byte	0x6
 556 0368 6E01     		.2byte	0x16e
 557 036a 2B010000 		.4byte	0x12b
 558 036e 08       		.byte	0x8
 559 036f 09       		.uleb128 0x9
 560 0370 27060000 		.4byte	.LASF67
 561 0374 06       		.byte	0x6
 562 0375 6F01     		.2byte	0x16f
 563 0377 12030000 		.4byte	0x312
 564 037b 0C       		.byte	0xc
 565 037c 09       		.uleb128 0x9
 566 037d AE050000 		.4byte	.LASF68
 567 0381 06       		.byte	0x6
 568 0382 7101     		.2byte	0x171
 569 0384 2E030000 		.4byte	0x32e
 570 0388 10       		.byte	0x10
ARM GAS  /tmp/ccrnTToh.s 			page 11


 571 0389 00       		.byte	0
 572 038a 03       		.uleb128 0x3
 573 038b A2000000 		.4byte	.LASF69
 574 038f 05       		.byte	0x5
 575 0390 66       		.byte	0x66
 576 0391 95030000 		.4byte	0x395
 577 0395 0B       		.uleb128 0xb
 578 0396 8B020000 		.4byte	.LASF70
 579 039a 10       		.byte	0x10
 580 039b 06       		.byte	0x6
 581 039c 7B01     		.2byte	0x17b
 582 039e D7030000 		.4byte	0x3d7
 583 03a2 09       		.uleb128 0x9
 584 03a3 BA010000 		.4byte	.LASF64
 585 03a7 06       		.byte	0x6
 586 03a8 7C01     		.2byte	0x17c
 587 03aa DD060000 		.4byte	0x6dd
 588 03ae 00       		.byte	0
 589 03af 09       		.uleb128 0x9
 590 03b0 7C010000 		.4byte	.LASF65
 591 03b4 06       		.byte	0x6
 592 03b5 7E01     		.2byte	0x17e
 593 03b7 DD060000 		.4byte	0x6dd
 594 03bb 04       		.byte	0x4
 595 03bc 09       		.uleb128 0x9
 596 03bd D0010000 		.4byte	.LASF66
 597 03c1 06       		.byte	0x6
 598 03c2 8001     		.2byte	0x180
 599 03c4 2B010000 		.4byte	0x12b
 600 03c8 08       		.byte	0x8
 601 03c9 09       		.uleb128 0x9
 602 03ca FA050000 		.4byte	.LASF71
 603 03ce 06       		.byte	0x6
 604 03cf 8201     		.2byte	0x182
 605 03d1 D8060000 		.4byte	0x6d8
 606 03d5 0C       		.byte	0xc
 607 03d6 00       		.byte	0
 608 03d7 03       		.uleb128 0x3
 609 03d8 40000000 		.4byte	.LASF72
 610 03dc 05       		.byte	0x5
 611 03dd 6B       		.byte	0x6b
 612 03de E2030000 		.4byte	0x3e2
 613 03e2 0B       		.uleb128 0xb
 614 03e3 3C030000 		.4byte	.LASF73
 615 03e7 04       		.byte	0x4
 616 03e8 06       		.byte	0x6
 617 03e9 A201     		.2byte	0x1a2
 618 03eb FD030000 		.4byte	0x3fd
 619 03ef 09       		.uleb128 0x9
 620 03f0 8D050000 		.4byte	.LASF74
 621 03f4 06       		.byte	0x6
 622 03f5 AA01     		.2byte	0x1aa
 623 03f7 E3060000 		.4byte	0x6e3
 624 03fb 00       		.byte	0
 625 03fc 00       		.byte	0
 626 03fd 03       		.uleb128 0x3
 627 03fe 12020000 		.4byte	.LASF75
ARM GAS  /tmp/ccrnTToh.s 			page 12


 628 0402 05       		.byte	0x5
 629 0403 70       		.byte	0x70
 630 0404 08040000 		.4byte	0x408
 631 0408 0F       		.uleb128 0xf
 632 0409 31010000 		.4byte	.LASF76
 633 040d 5802     		.2byte	0x258
 634 040f 06       		.byte	0x6
 635 0410 C201     		.2byte	0x1c2
 636 0412 64040000 		.4byte	0x464
 637 0416 09       		.uleb128 0x9
 638 0417 DE050000 		.4byte	.LASF77
 639 041b 06       		.byte	0x6
 640 041c C601     		.2byte	0x1c6
 641 041e AB020000 		.4byte	0x2ab
 642 0422 00       		.byte	0
 643 0423 09       		.uleb128 0x9
 644 0424 20010000 		.4byte	.LASF78
 645 0428 06       		.byte	0x6
 646 0429 CA01     		.2byte	0x1ca
 647 042b 8A030000 		.4byte	0x38a
 648 042f 1C       		.byte	0x1c
 649 0430 08       		.uleb128 0x8
 650 0431 64626700 		.ascii	"dbg\000"
 651 0435 06       		.byte	0x6
 652 0436 CE01     		.2byte	0x1ce
 653 0438 D7030000 		.4byte	0x3d7
 654 043c 2C       		.byte	0x2c
 655 043d 09       		.uleb128 0x9
 656 043e 97000000 		.4byte	.LASF79
 657 0442 06       		.byte	0x6
 658 0443 D201     		.2byte	0x1d2
 659 0445 36010000 		.4byte	0x136
 660 0449 30       		.byte	0x30
 661 044a 08       		.uleb128 0x8
 662 044b 746D00   		.ascii	"tm\000"
 663 044e 06       		.byte	0x6
 664 044f D701     		.2byte	0x1d7
 665 0451 F6050000 		.4byte	0x5f6
 666 0455 78       		.byte	0x78
 667 0456 09       		.uleb128 0x9
 668 0457 98010000 		.4byte	.LASF80
 669 045b 06       		.byte	0x6
 670 045c E301     		.2byte	0x1e3
 671 045e E8060000 		.4byte	0x6e8
 672 0462 80       		.byte	0x80
 673 0463 00       		.byte	0
 674 0464 02       		.uleb128 0x2
 675 0465 04       		.byte	0x4
 676 0466 07       		.byte	0x7
 677 0467 6F020000 		.4byte	.LASF81
 678 046b 03       		.uleb128 0x3
 679 046c 73010000 		.4byte	.LASF82
 680 0470 07       		.byte	0x7
 681 0471 65       		.byte	0x65
 682 0472 2E030000 		.4byte	0x32e
 683 0476 03       		.uleb128 0x3
 684 0477 4A020000 		.4byte	.LASF83
ARM GAS  /tmp/ccrnTToh.s 			page 13


 685 047b 07       		.byte	0x7
 686 047c 6D       		.byte	0x6d
 687 047d B8000000 		.4byte	0xb8
 688 0481 06       		.uleb128 0x6
 689 0482 9E050000 		.4byte	.LASF84
 690 0486 04       		.byte	0x4
 691 0487 07       		.byte	0x7
 692 0488 89       		.byte	0x89
 693 0489 9A040000 		.4byte	0x49a
 694 048d 10       		.uleb128 0x10
 695 048e 72313300 		.ascii	"r13\000"
 696 0492 07       		.byte	0x7
 697 0493 8A       		.byte	0x8a
 698 0494 DB050000 		.4byte	0x5db
 699 0498 00       		.byte	0
 700 0499 00       		.byte	0
 701 049a 06       		.uleb128 0x6
 702 049b 34000000 		.4byte	.LASF85
 703 049f 64       		.byte	0x64
 704 04a0 08       		.byte	0x8
 705 04a1 F4       		.byte	0xf4
 706 04a2 DB050000 		.4byte	0x5db
 707 04a6 10       		.uleb128 0x10
 708 04a7 73313600 		.ascii	"s16\000"
 709 04ab 08       		.byte	0x8
 710 04ac F6       		.byte	0xf6
 711 04ad 6B040000 		.4byte	0x46b
 712 04b1 00       		.byte	0
 713 04b2 10       		.uleb128 0x10
 714 04b3 73313700 		.ascii	"s17\000"
 715 04b7 08       		.byte	0x8
 716 04b8 F7       		.byte	0xf7
 717 04b9 6B040000 		.4byte	0x46b
 718 04bd 04       		.byte	0x4
 719 04be 10       		.uleb128 0x10
 720 04bf 73313800 		.ascii	"s18\000"
 721 04c3 08       		.byte	0x8
 722 04c4 F8       		.byte	0xf8
 723 04c5 6B040000 		.4byte	0x46b
 724 04c9 08       		.byte	0x8
 725 04ca 10       		.uleb128 0x10
 726 04cb 73313900 		.ascii	"s19\000"
 727 04cf 08       		.byte	0x8
 728 04d0 F9       		.byte	0xf9
 729 04d1 6B040000 		.4byte	0x46b
 730 04d5 0C       		.byte	0xc
 731 04d6 10       		.uleb128 0x10
 732 04d7 73323000 		.ascii	"s20\000"
 733 04db 08       		.byte	0x8
 734 04dc FA       		.byte	0xfa
 735 04dd 6B040000 		.4byte	0x46b
 736 04e1 10       		.byte	0x10
 737 04e2 10       		.uleb128 0x10
 738 04e3 73323100 		.ascii	"s21\000"
 739 04e7 08       		.byte	0x8
 740 04e8 FB       		.byte	0xfb
 741 04e9 6B040000 		.4byte	0x46b
ARM GAS  /tmp/ccrnTToh.s 			page 14


 742 04ed 14       		.byte	0x14
 743 04ee 10       		.uleb128 0x10
 744 04ef 73323200 		.ascii	"s22\000"
 745 04f3 08       		.byte	0x8
 746 04f4 FC       		.byte	0xfc
 747 04f5 6B040000 		.4byte	0x46b
 748 04f9 18       		.byte	0x18
 749 04fa 10       		.uleb128 0x10
 750 04fb 73323300 		.ascii	"s23\000"
 751 04ff 08       		.byte	0x8
 752 0500 FD       		.byte	0xfd
 753 0501 6B040000 		.4byte	0x46b
 754 0505 1C       		.byte	0x1c
 755 0506 10       		.uleb128 0x10
 756 0507 73323400 		.ascii	"s24\000"
 757 050b 08       		.byte	0x8
 758 050c FE       		.byte	0xfe
 759 050d 6B040000 		.4byte	0x46b
 760 0511 20       		.byte	0x20
 761 0512 10       		.uleb128 0x10
 762 0513 73323500 		.ascii	"s25\000"
 763 0517 08       		.byte	0x8
 764 0518 FF       		.byte	0xff
 765 0519 6B040000 		.4byte	0x46b
 766 051d 24       		.byte	0x24
 767 051e 08       		.uleb128 0x8
 768 051f 73323600 		.ascii	"s26\000"
 769 0523 08       		.byte	0x8
 770 0524 0001     		.2byte	0x100
 771 0526 6B040000 		.4byte	0x46b
 772 052a 28       		.byte	0x28
 773 052b 08       		.uleb128 0x8
 774 052c 73323700 		.ascii	"s27\000"
 775 0530 08       		.byte	0x8
 776 0531 0101     		.2byte	0x101
 777 0533 6B040000 		.4byte	0x46b
 778 0537 2C       		.byte	0x2c
 779 0538 08       		.uleb128 0x8
 780 0539 73323800 		.ascii	"s28\000"
 781 053d 08       		.byte	0x8
 782 053e 0201     		.2byte	0x102
 783 0540 6B040000 		.4byte	0x46b
 784 0544 30       		.byte	0x30
 785 0545 08       		.uleb128 0x8
 786 0546 73323900 		.ascii	"s29\000"
 787 054a 08       		.byte	0x8
 788 054b 0301     		.2byte	0x103
 789 054d 6B040000 		.4byte	0x46b
 790 0551 34       		.byte	0x34
 791 0552 08       		.uleb128 0x8
 792 0553 73333000 		.ascii	"s30\000"
 793 0557 08       		.byte	0x8
 794 0558 0401     		.2byte	0x104
 795 055a 6B040000 		.4byte	0x46b
 796 055e 38       		.byte	0x38
 797 055f 08       		.uleb128 0x8
 798 0560 73333100 		.ascii	"s31\000"
ARM GAS  /tmp/ccrnTToh.s 			page 15


 799 0564 08       		.byte	0x8
 800 0565 0501     		.2byte	0x105
 801 0567 6B040000 		.4byte	0x46b
 802 056b 3C       		.byte	0x3c
 803 056c 08       		.uleb128 0x8
 804 056d 723400   		.ascii	"r4\000"
 805 0570 08       		.byte	0x8
 806 0571 0701     		.2byte	0x107
 807 0573 6B040000 		.4byte	0x46b
 808 0577 40       		.byte	0x40
 809 0578 08       		.uleb128 0x8
 810 0579 723500   		.ascii	"r5\000"
 811 057c 08       		.byte	0x8
 812 057d 0801     		.2byte	0x108
 813 057f 6B040000 		.4byte	0x46b
 814 0583 44       		.byte	0x44
 815 0584 08       		.uleb128 0x8
 816 0585 723600   		.ascii	"r6\000"
 817 0588 08       		.byte	0x8
 818 0589 0901     		.2byte	0x109
 819 058b 6B040000 		.4byte	0x46b
 820 058f 48       		.byte	0x48
 821 0590 08       		.uleb128 0x8
 822 0591 723700   		.ascii	"r7\000"
 823 0594 08       		.byte	0x8
 824 0595 0A01     		.2byte	0x10a
 825 0597 6B040000 		.4byte	0x46b
 826 059b 4C       		.byte	0x4c
 827 059c 08       		.uleb128 0x8
 828 059d 723800   		.ascii	"r8\000"
 829 05a0 08       		.byte	0x8
 830 05a1 0B01     		.2byte	0x10b
 831 05a3 6B040000 		.4byte	0x46b
 832 05a7 50       		.byte	0x50
 833 05a8 08       		.uleb128 0x8
 834 05a9 723900   		.ascii	"r9\000"
 835 05ac 08       		.byte	0x8
 836 05ad 0C01     		.2byte	0x10c
 837 05af 6B040000 		.4byte	0x46b
 838 05b3 54       		.byte	0x54
 839 05b4 08       		.uleb128 0x8
 840 05b5 72313000 		.ascii	"r10\000"
 841 05b9 08       		.byte	0x8
 842 05ba 0D01     		.2byte	0x10d
 843 05bc 6B040000 		.4byte	0x46b
 844 05c0 58       		.byte	0x58
 845 05c1 08       		.uleb128 0x8
 846 05c2 72313100 		.ascii	"r11\000"
 847 05c6 08       		.byte	0x8
 848 05c7 0E01     		.2byte	0x10e
 849 05c9 6B040000 		.4byte	0x46b
 850 05cd 5C       		.byte	0x5c
 851 05ce 08       		.uleb128 0x8
 852 05cf 6C7200   		.ascii	"lr\000"
 853 05d2 08       		.byte	0x8
 854 05d3 0F01     		.2byte	0x10f
 855 05d5 6B040000 		.4byte	0x46b
ARM GAS  /tmp/ccrnTToh.s 			page 16


 856 05d9 60       		.byte	0x60
 857 05da 00       		.byte	0
 858 05db 0A       		.uleb128 0xa
 859 05dc 04       		.byte	0x4
 860 05dd 9A040000 		.4byte	0x49a
 861 05e1 11       		.uleb128 0x11
 862 05e2 04       		.byte	0x4
 863 05e3 09       		.byte	0x9
 864 05e4 38       		.byte	0x38
 865 05e5 F6050000 		.4byte	0x5f6
 866 05e9 07       		.uleb128 0x7
 867 05ea 97050000 		.4byte	.LASF86
 868 05ee 09       		.byte	0x9
 869 05ef 3C       		.byte	0x3c
 870 05f0 C8000000 		.4byte	0xc8
 871 05f4 00       		.byte	0
 872 05f5 00       		.byte	0
 873 05f6 03       		.uleb128 0x3
 874 05f7 B6020000 		.4byte	.LASF87
 875 05fb 09       		.byte	0x9
 876 05fc 3D       		.byte	0x3d
 877 05fd E1050000 		.4byte	0x5e1
 878 0601 12       		.uleb128 0x12
 879 0602 04       		.byte	0x4
 880 0603 06       		.byte	0x6
 881 0604 FA       		.byte	0xfa
 882 0605 5E060000 		.4byte	0x65e
 883 0609 13       		.uleb128 0x13
 884 060a 1A000000 		.4byte	.LASF88
 885 060e 06       		.byte	0x6
 886 060f 0101     		.2byte	0x101
 887 0611 0A010000 		.4byte	0x10a
 888 0615 13       		.uleb128 0x13
 889 0616 8E000000 		.4byte	.LASF89
 890 061a 06       		.byte	0x6
 891 061b 0801     		.2byte	0x108
 892 061d 0A010000 		.4byte	0x10a
 893 0621 13       		.uleb128 0x13
 894 0622 EC050000 		.4byte	.LASF90
 895 0626 06       		.byte	0x6
 896 0627 0F01     		.2byte	0x10f
 897 0629 2E030000 		.4byte	0x32e
 898 062d 13       		.uleb128 0x13
 899 062e 14000000 		.4byte	.LASF91
 900 0632 06       		.byte	0x6
 901 0633 1601     		.2byte	0x116
 902 0635 5E060000 		.4byte	0x65e
 903 0639 13       		.uleb128 0x13
 904 063a C9010000 		.4byte	.LASF92
 905 063e 06       		.byte	0x6
 906 063f 1E01     		.2byte	0x11e
 907 0641 89060000 		.4byte	0x689
 908 0645 13       		.uleb128 0x13
 909 0646 FE030000 		.4byte	.LASF93
 910 064a 06       		.byte	0x6
 911 064b 2701     		.2byte	0x127
 912 064d C0060000 		.4byte	0x6c0
ARM GAS  /tmp/ccrnTToh.s 			page 17


 913 0651 13       		.uleb128 0x13
 914 0652 95030000 		.4byte	.LASF94
 915 0656 06       		.byte	0x6
 916 0657 2F01     		.2byte	0x12f
 917 0659 15010000 		.4byte	0x115
 918 065d 00       		.byte	0
 919 065e 0A       		.uleb128 0xa
 920 065f 04       		.byte	0x4
 921 0660 46020000 		.4byte	0x246
 922 0664 06       		.uleb128 0x6
 923 0665 D2030000 		.4byte	.LASF95
 924 0669 0C       		.byte	0xc
 925 066a 0A       		.byte	0xa
 926 066b 34       		.byte	0x34
 927 066c 89060000 		.4byte	0x689
 928 0670 07       		.uleb128 0x7
 929 0671 63010000 		.4byte	.LASF96
 930 0675 0A       		.byte	0xa
 931 0676 35       		.byte	0x35
 932 0677 7B020000 		.4byte	0x27b
 933 067b 00       		.byte	0
 934 067c 07       		.uleb128 0x7
 935 067d E4010000 		.4byte	.LASF97
 936 0681 0A       		.byte	0xa
 937 0682 37       		.byte	0x37
 938 0683 20010000 		.4byte	0x120
 939 0687 08       		.byte	0x8
 940 0688 00       		.byte	0
 941 0689 0A       		.uleb128 0xa
 942 068a 04       		.byte	0x4
 943 068b 64060000 		.4byte	0x664
 944 068f 06       		.uleb128 0x6
 945 0690 C5050000 		.4byte	.LASF98
 946 0694 10       		.byte	0x10
 947 0695 0B       		.byte	0xb
 948 0696 39       		.byte	0x39
 949 0697 C0060000 		.4byte	0x6c0
 950 069b 07       		.uleb128 0x7
 951 069c 0B010000 		.4byte	.LASF99
 952 06a0 0B       		.byte	0xb
 953 06a1 3A       		.byte	0x3a
 954 06a2 7B020000 		.4byte	0x27b
 955 06a6 00       		.byte	0
 956 06a7 07       		.uleb128 0x7
 957 06a8 19060000 		.4byte	.LASF100
 958 06ac 0B       		.byte	0xb
 959 06ad 3C       		.byte	0x3c
 960 06ae 51020000 		.4byte	0x251
 961 06b2 08       		.byte	0x8
 962 06b3 07       		.uleb128 0x7
 963 06b4 5D050000 		.4byte	.LASF101
 964 06b8 0B       		.byte	0xb
 965 06b9 3E       		.byte	0x3e
 966 06ba 03070000 		.4byte	0x703
 967 06be 0C       		.byte	0xc
 968 06bf 00       		.byte	0
 969 06c0 0A       		.uleb128 0xa
ARM GAS  /tmp/ccrnTToh.s 			page 18


 970 06c1 04       		.byte	0x4
 971 06c2 8F060000 		.4byte	0x68f
 972 06c6 0A       		.uleb128 0xa
 973 06c7 04       		.byte	0x4
 974 06c8 CC060000 		.4byte	0x6cc
 975 06cc 14       		.uleb128 0x14
 976 06cd D1060000 		.4byte	0x6d1
 977 06d1 02       		.uleb128 0x2
 978 06d2 01       		.byte	0x1
 979 06d3 08       		.byte	0x8
 980 06d4 2F040000 		.4byte	.LASF102
 981 06d8 05       		.uleb128 0x5
 982 06d9 2B010000 		.4byte	0x12b
 983 06dd 0A       		.uleb128 0xa
 984 06de 04       		.byte	0x4
 985 06df 30030000 		.4byte	0x330
 986 06e3 05       		.uleb128 0x5
 987 06e4 C6060000 		.4byte	0x6c6
 988 06e8 15       		.uleb128 0x15
 989 06e9 76040000 		.4byte	0x476
 990 06ed F8060000 		.4byte	0x6f8
 991 06f1 16       		.uleb128 0x16
 992 06f2 64040000 		.4byte	0x464
 993 06f6 3A       		.byte	0x3a
 994 06f7 00       		.byte	0
 995 06f8 03       		.uleb128 0x3
 996 06f9 90010000 		.4byte	.LASF103
 997 06fd 0B       		.byte	0xb
 998 06fe 34       		.byte	0x34
 999 06ff 8F060000 		.4byte	0x68f
 1000 0703 0A       		.uleb128 0xa
 1001 0704 04       		.byte	0x4
 1002 0705 F8060000 		.4byte	0x6f8
 1003 0709 02       		.uleb128 0x2
 1004 070a 01       		.byte	0x1
 1005 070b 02       		.byte	0x2
 1006 070c 4C030000 		.4byte	.LASF104
 1007 0710 03       		.uleb128 0x3
 1008 0711 07020000 		.4byte	.LASF105
 1009 0715 0C       		.byte	0xc
 1010 0716 15       		.byte	0x15
 1011 0717 33000000 		.4byte	0x33
 1012 071b 03       		.uleb128 0x3
 1013 071c A2020000 		.4byte	.LASF106
 1014 0720 0C       		.byte	0xc
 1015 0721 16       		.byte	0x16
 1016 0722 45000000 		.4byte	0x45
 1017 0726 03       		.uleb128 0x3
 1018 0727 00000000 		.4byte	.LASF107
 1019 072b 0C       		.byte	0xc
 1020 072c 19       		.byte	0x19
 1021 072d 53000000 		.4byte	0x53
 1022 0731 17       		.uleb128 0x17
 1023 0732 84010000 		.4byte	.LASF121
 1024 0736 01       		.byte	0x1
 1025 0737 31       		.byte	0x31
 1026 0738 10070000 		.4byte	0x710
ARM GAS  /tmp/ccrnTToh.s 			page 19


 1027 073c 00000000 		.4byte	.LFB256
 1028 0740 60000000 		.4byte	.LFE256-.LFB256
 1029 0744 01       		.uleb128 0x1
 1030 0745 9C       		.byte	0x9c
 1031 0746 1B080000 		.4byte	0x81b
 1032 074a 18       		.uleb128 0x18
 1033 074b B9030000 		.4byte	.LASF108
 1034 074f 01       		.byte	0x1
 1035 0750 31       		.byte	0x31
 1036 0751 1B070000 		.4byte	0x71b
 1037 0755 00000000 		.4byte	.LLST0
 1038 0759 18       		.uleb128 0x18
 1039 075a 64020000 		.4byte	.LASF109
 1040 075e 01       		.byte	0x1
 1041 075f 31       		.byte	0x31
 1042 0760 26070000 		.4byte	0x726
 1043 0764 21000000 		.4byte	.LLST1
 1044 0768 19       		.uleb128 0x19
 1045 0769 34040000 		.4byte	.LASF122
 1046 076d 01       		.byte	0x1
 1047 076e 33       		.byte	0x33
 1048 076f 10070000 		.4byte	0x710
 1049 0773 42000000 		.4byte	.LLST2
 1050 0777 1A       		.uleb128 0x1a
 1051 0778 14000000 		.4byte	.LVL3
 1052 077c 5C080000 		.4byte	0x85c
 1053 0780 8B070000 		.4byte	0x78b
 1054 0784 1B       		.uleb128 0x1b
 1055 0785 01       		.uleb128 0x1
 1056 0786 50       		.byte	0x50
 1057 0787 02       		.uleb128 0x2
 1058 0788 08       		.byte	0x8
 1059 0789 2E       		.byte	0x2e
 1060 078a 00       		.byte	0
 1061 078b 1C       		.uleb128 0x1c
 1062 078c 18000000 		.4byte	.LVL4
 1063 0790 73080000 		.4byte	0x873
 1064 0794 1A       		.uleb128 0x1a
 1065 0795 1E000000 		.4byte	.LVL5
 1066 0799 7F080000 		.4byte	0x87f
 1067 079d A8070000 		.4byte	0x7a8
 1068 07a1 1B       		.uleb128 0x1b
 1069 07a2 01       		.uleb128 0x1
 1070 07a3 50       		.byte	0x50
 1071 07a4 02       		.uleb128 0x2
 1072 07a5 08       		.byte	0x8
 1073 07a6 39       		.byte	0x39
 1074 07a7 00       		.byte	0
 1075 07a8 1A       		.uleb128 0x1a
 1076 07a9 28000000 		.4byte	.LVL6
 1077 07ad 95080000 		.4byte	0x895
 1078 07b1 BC070000 		.4byte	0x7bc
 1079 07b5 1B       		.uleb128 0x1b
 1080 07b6 01       		.uleb128 0x1
 1081 07b7 50       		.byte	0x50
 1082 07b8 02       		.uleb128 0x2
 1083 07b9 08       		.byte	0x8
ARM GAS  /tmp/ccrnTToh.s 			page 20


 1084 07ba 64       		.byte	0x64
 1085 07bb 00       		.byte	0
 1086 07bc 1A       		.uleb128 0x1a
 1087 07bd 44000000 		.4byte	.LVL7
 1088 07c1 AB080000 		.4byte	0x8ab
 1089 07c5 ED070000 		.4byte	0x7ed
 1090 07c9 1B       		.uleb128 0x1b
 1091 07ca 01       		.uleb128 0x1
 1092 07cb 50       		.byte	0x50
 1093 07cc 1F       		.uleb128 0x1f
 1094 07cd 74       		.byte	0x74
 1095 07ce 00       		.sleb128 0
 1096 07cf 0A       		.byte	0xa
 1097 07d0 1027     		.2byte	0x2710
 1098 07d2 1E       		.byte	0x1e
 1099 07d3 23       		.byte	0x23
 1100 07d4 BF843D   		.uleb128 0xf423f
 1101 07d7 F7       		.byte	0xf7
 1102 07d8 2C       		.uleb128 0x2c
 1103 07d9 F7       		.byte	0xf7
 1104 07da 25       		.uleb128 0x25
 1105 07db 0C       		.byte	0xc
 1106 07dc 83DE1B43 		.4byte	0x431bde83
 1107 07e0 F7       		.byte	0xf7
 1108 07e1 25       		.uleb128 0x25
 1109 07e2 1E       		.byte	0x1e
 1110 07e3 08       		.byte	0x8
 1111 07e4 20       		.byte	0x20
 1112 07e5 F7       		.byte	0xf7
 1113 07e6 25       		.uleb128 0x25
 1114 07e7 25       		.byte	0x25
 1115 07e8 F7       		.byte	0xf7
 1116 07e9 2C       		.uleb128 0x2c
 1117 07ea 42       		.byte	0x42
 1118 07eb 25       		.byte	0x25
 1119 07ec 00       		.byte	0
 1120 07ed 1A       		.uleb128 0x1a
 1121 07ee 4A000000 		.4byte	.LVL8
 1122 07f2 7F080000 		.4byte	0x87f
 1123 07f6 01080000 		.4byte	0x801
 1124 07fa 1B       		.uleb128 0x1b
 1125 07fb 01       		.uleb128 0x1
 1126 07fc 50       		.byte	0x50
 1127 07fd 02       		.uleb128 0x2
 1128 07fe 08       		.byte	0x8
 1129 07ff 38       		.byte	0x38
 1130 0800 00       		.byte	0
 1131 0801 1C       		.uleb128 0x1c
 1132 0802 50000000 		.4byte	.LVL10
 1133 0806 BC080000 		.4byte	0x8bc
 1134 080a 1D       		.uleb128 0x1d
 1135 080b 56000000 		.4byte	.LVL11
 1136 080f C8080000 		.4byte	0x8c8
 1137 0813 1B       		.uleb128 0x1b
 1138 0814 01       		.uleb128 0x1
 1139 0815 50       		.byte	0x50
 1140 0816 02       		.uleb128 0x2
ARM GAS  /tmp/ccrnTToh.s 			page 21


 1141 0817 08       		.byte	0x8
 1142 0818 64       		.byte	0x64
 1143 0819 00       		.byte	0
 1144 081a 00       		.byte	0
 1145 081b 1E       		.uleb128 0x1e
 1146 081c 39060000 		.4byte	.LASF123
 1147 0820 01       		.byte	0x1
 1148 0821 53       		.byte	0x53
 1149 0822 00000000 		.4byte	.LFB257
 1150 0826 08000000 		.4byte	.LFE257-.LFB257
 1151 082a 01       		.uleb128 0x1
 1152 082b 9C       		.byte	0x9c
 1153 082c 45080000 		.4byte	0x845
 1154 0830 1F       		.uleb128 0x1f
 1155 0831 08000000 		.4byte	.LVL13
 1156 0835 5C080000 		.4byte	0x85c
 1157 0839 1B       		.uleb128 0x1b
 1158 083a 01       		.uleb128 0x1
 1159 083b 51       		.byte	0x51
 1160 083c 01       		.uleb128 0x1
 1161 083d 3C       		.byte	0x3c
 1162 083e 1B       		.uleb128 0x1b
 1163 083f 01       		.uleb128 0x1
 1164 0840 50       		.byte	0x50
 1165 0841 01       		.uleb128 0x1
 1166 0842 3C       		.byte	0x3c
 1167 0843 00       		.byte	0
 1168 0844 00       		.byte	0
 1169 0845 20       		.uleb128 0x20
 1170 0846 B8000000 		.4byte	.LASF110
 1171 084a 0F       		.byte	0xf
 1172 084b A706     		.2byte	0x6a7
 1173 084d C3000000 		.4byte	0xc3
 1174 0851 21       		.uleb128 0x21
 1175 0852 636800   		.ascii	"ch\000"
 1176 0855 06       		.byte	0x6
 1177 0856 0902     		.2byte	0x209
 1178 0858 FD030000 		.4byte	0x3fd
 1179 085c 22       		.uleb128 0x22
 1180 085d 0B060000 		.4byte	.LASF113
 1181 0861 0D       		.byte	0xd
 1182 0862 DD01     		.2byte	0x1dd
 1183 0864 73080000 		.4byte	0x873
 1184 0868 0D       		.uleb128 0xd
 1185 0869 1B070000 		.4byte	0x71b
 1186 086d 0D       		.uleb128 0xd
 1187 086e 1B070000 		.4byte	0x71b
 1188 0872 00       		.byte	0
 1189 0873 23       		.uleb128 0x23
 1190 0874 13010000 		.4byte	.LASF115
 1191 0878 0D       		.byte	0xd
 1192 0879 9F01     		.2byte	0x19f
 1193 087b 1B070000 		.4byte	0x71b
 1194 087f 24       		.uleb128 0x24
 1195 0880 A3030000 		.4byte	.LASF111
 1196 0884 0D       		.byte	0xd
 1197 0885 D901     		.2byte	0x1d9
ARM GAS  /tmp/ccrnTToh.s 			page 22


 1198 0887 1B070000 		.4byte	0x71b
 1199 088b 95080000 		.4byte	0x895
 1200 088f 0D       		.uleb128 0xd
 1201 0890 1B070000 		.4byte	0x71b
 1202 0894 00       		.byte	0
 1203 0895 24       		.uleb128 0x24
 1204 0896 4F000000 		.4byte	.LASF112
 1205 089a 0D       		.byte	0xd
 1206 089b C801     		.2byte	0x1c8
 1207 089d 1B070000 		.4byte	0x71b
 1208 08a1 AB080000 		.4byte	0x8ab
 1209 08a5 0D       		.uleb128 0xd
 1210 08a6 1B070000 		.4byte	0x71b
 1211 08aa 00       		.byte	0
 1212 08ab 25       		.uleb128 0x25
 1213 08ac EA030000 		.4byte	.LASF114
 1214 08b0 0E       		.byte	0xe
 1215 08b1 96       		.byte	0x96
 1216 08b2 BC080000 		.4byte	0x8bc
 1217 08b6 0D       		.uleb128 0xd
 1218 08b7 2B010000 		.4byte	0x12b
 1219 08bb 00       		.byte	0
 1220 08bc 23       		.uleb128 0x23
 1221 08bd 4D010000 		.4byte	.LASF116
 1222 08c1 0D       		.byte	0xd
 1223 08c2 A201     		.2byte	0x1a2
 1224 08c4 1B070000 		.4byte	0x71b
 1225 08c8 26       		.uleb128 0x26
 1226 08c9 F7000000 		.4byte	.LASF117
 1227 08cd 0D       		.byte	0xd
 1228 08ce C901     		.2byte	0x1c9
 1229 08d0 1B070000 		.4byte	0x71b
 1230 08d4 0D       		.uleb128 0xd
 1231 08d5 1B070000 		.4byte	0x71b
 1232 08d9 00       		.byte	0
 1233 08da 00       		.byte	0
 1234              		.section	.debug_abbrev,"",%progbits
 1235              	.Ldebug_abbrev0:
 1236 0000 01       		.uleb128 0x1
 1237 0001 11       		.uleb128 0x11
 1238 0002 01       		.byte	0x1
 1239 0003 25       		.uleb128 0x25
 1240 0004 0E       		.uleb128 0xe
 1241 0005 13       		.uleb128 0x13
 1242 0006 0B       		.uleb128 0xb
 1243 0007 03       		.uleb128 0x3
 1244 0008 0E       		.uleb128 0xe
 1245 0009 1B       		.uleb128 0x1b
 1246 000a 0E       		.uleb128 0xe
 1247 000b 55       		.uleb128 0x55
 1248 000c 17       		.uleb128 0x17
 1249 000d 11       		.uleb128 0x11
 1250 000e 01       		.uleb128 0x1
 1251 000f 10       		.uleb128 0x10
 1252 0010 17       		.uleb128 0x17
 1253 0011 00       		.byte	0
 1254 0012 00       		.byte	0
ARM GAS  /tmp/ccrnTToh.s 			page 23


 1255 0013 02       		.uleb128 0x2
 1256 0014 24       		.uleb128 0x24
 1257 0015 00       		.byte	0
 1258 0016 0B       		.uleb128 0xb
 1259 0017 0B       		.uleb128 0xb
 1260 0018 3E       		.uleb128 0x3e
 1261 0019 0B       		.uleb128 0xb
 1262 001a 03       		.uleb128 0x3
 1263 001b 0E       		.uleb128 0xe
 1264 001c 00       		.byte	0
 1265 001d 00       		.byte	0
 1266 001e 03       		.uleb128 0x3
 1267 001f 16       		.uleb128 0x16
 1268 0020 00       		.byte	0
 1269 0021 03       		.uleb128 0x3
 1270 0022 0E       		.uleb128 0xe
 1271 0023 3A       		.uleb128 0x3a
 1272 0024 0B       		.uleb128 0xb
 1273 0025 3B       		.uleb128 0x3b
 1274 0026 0B       		.uleb128 0xb
 1275 0027 49       		.uleb128 0x49
 1276 0028 13       		.uleb128 0x13
 1277 0029 00       		.byte	0
 1278 002a 00       		.byte	0
 1279 002b 04       		.uleb128 0x4
 1280 002c 24       		.uleb128 0x24
 1281 002d 00       		.byte	0
 1282 002e 0B       		.uleb128 0xb
 1283 002f 0B       		.uleb128 0xb
 1284 0030 3E       		.uleb128 0x3e
 1285 0031 0B       		.uleb128 0xb
 1286 0032 03       		.uleb128 0x3
 1287 0033 08       		.uleb128 0x8
 1288 0034 00       		.byte	0
 1289 0035 00       		.byte	0
 1290 0036 05       		.uleb128 0x5
 1291 0037 35       		.uleb128 0x35
 1292 0038 00       		.byte	0
 1293 0039 49       		.uleb128 0x49
 1294 003a 13       		.uleb128 0x13
 1295 003b 00       		.byte	0
 1296 003c 00       		.byte	0
 1297 003d 06       		.uleb128 0x6
 1298 003e 13       		.uleb128 0x13
 1299 003f 01       		.byte	0x1
 1300 0040 03       		.uleb128 0x3
 1301 0041 0E       		.uleb128 0xe
 1302 0042 0B       		.uleb128 0xb
 1303 0043 0B       		.uleb128 0xb
 1304 0044 3A       		.uleb128 0x3a
 1305 0045 0B       		.uleb128 0xb
 1306 0046 3B       		.uleb128 0x3b
 1307 0047 0B       		.uleb128 0xb
 1308 0048 01       		.uleb128 0x1
 1309 0049 13       		.uleb128 0x13
 1310 004a 00       		.byte	0
 1311 004b 00       		.byte	0
ARM GAS  /tmp/ccrnTToh.s 			page 24


 1312 004c 07       		.uleb128 0x7
 1313 004d 0D       		.uleb128 0xd
 1314 004e 00       		.byte	0
 1315 004f 03       		.uleb128 0x3
 1316 0050 0E       		.uleb128 0xe
 1317 0051 3A       		.uleb128 0x3a
 1318 0052 0B       		.uleb128 0xb
 1319 0053 3B       		.uleb128 0x3b
 1320 0054 0B       		.uleb128 0xb
 1321 0055 49       		.uleb128 0x49
 1322 0056 13       		.uleb128 0x13
 1323 0057 38       		.uleb128 0x38
 1324 0058 0B       		.uleb128 0xb
 1325 0059 00       		.byte	0
 1326 005a 00       		.byte	0
 1327 005b 08       		.uleb128 0x8
 1328 005c 0D       		.uleb128 0xd
 1329 005d 00       		.byte	0
 1330 005e 03       		.uleb128 0x3
 1331 005f 08       		.uleb128 0x8
 1332 0060 3A       		.uleb128 0x3a
 1333 0061 0B       		.uleb128 0xb
 1334 0062 3B       		.uleb128 0x3b
 1335 0063 05       		.uleb128 0x5
 1336 0064 49       		.uleb128 0x49
 1337 0065 13       		.uleb128 0x13
 1338 0066 38       		.uleb128 0x38
 1339 0067 0B       		.uleb128 0xb
 1340 0068 00       		.byte	0
 1341 0069 00       		.byte	0
 1342 006a 09       		.uleb128 0x9
 1343 006b 0D       		.uleb128 0xd
 1344 006c 00       		.byte	0
 1345 006d 03       		.uleb128 0x3
 1346 006e 0E       		.uleb128 0xe
 1347 006f 3A       		.uleb128 0x3a
 1348 0070 0B       		.uleb128 0xb
 1349 0071 3B       		.uleb128 0x3b
 1350 0072 05       		.uleb128 0x5
 1351 0073 49       		.uleb128 0x49
 1352 0074 13       		.uleb128 0x13
 1353 0075 38       		.uleb128 0x38
 1354 0076 0B       		.uleb128 0xb
 1355 0077 00       		.byte	0
 1356 0078 00       		.byte	0
 1357 0079 0A       		.uleb128 0xa
 1358 007a 0F       		.uleb128 0xf
 1359 007b 00       		.byte	0
 1360 007c 0B       		.uleb128 0xb
 1361 007d 0B       		.uleb128 0xb
 1362 007e 49       		.uleb128 0x49
 1363 007f 13       		.uleb128 0x13
 1364 0080 00       		.byte	0
 1365 0081 00       		.byte	0
 1366 0082 0B       		.uleb128 0xb
 1367 0083 13       		.uleb128 0x13
 1368 0084 01       		.byte	0x1
ARM GAS  /tmp/ccrnTToh.s 			page 25


 1369 0085 03       		.uleb128 0x3
 1370 0086 0E       		.uleb128 0xe
 1371 0087 0B       		.uleb128 0xb
 1372 0088 0B       		.uleb128 0xb
 1373 0089 3A       		.uleb128 0x3a
 1374 008a 0B       		.uleb128 0xb
 1375 008b 3B       		.uleb128 0x3b
 1376 008c 05       		.uleb128 0x5
 1377 008d 01       		.uleb128 0x1
 1378 008e 13       		.uleb128 0x13
 1379 008f 00       		.byte	0
 1380 0090 00       		.byte	0
 1381 0091 0C       		.uleb128 0xc
 1382 0092 15       		.uleb128 0x15
 1383 0093 01       		.byte	0x1
 1384 0094 27       		.uleb128 0x27
 1385 0095 19       		.uleb128 0x19
 1386 0096 01       		.uleb128 0x1
 1387 0097 13       		.uleb128 0x13
 1388 0098 00       		.byte	0
 1389 0099 00       		.byte	0
 1390 009a 0D       		.uleb128 0xd
 1391 009b 05       		.uleb128 0x5
 1392 009c 00       		.byte	0
 1393 009d 49       		.uleb128 0x49
 1394 009e 13       		.uleb128 0x13
 1395 009f 00       		.byte	0
 1396 00a0 00       		.byte	0
 1397 00a1 0E       		.uleb128 0xe
 1398 00a2 0F       		.uleb128 0xf
 1399 00a3 00       		.byte	0
 1400 00a4 0B       		.uleb128 0xb
 1401 00a5 0B       		.uleb128 0xb
 1402 00a6 00       		.byte	0
 1403 00a7 00       		.byte	0
 1404 00a8 0F       		.uleb128 0xf
 1405 00a9 13       		.uleb128 0x13
 1406 00aa 01       		.byte	0x1
 1407 00ab 03       		.uleb128 0x3
 1408 00ac 0E       		.uleb128 0xe
 1409 00ad 0B       		.uleb128 0xb
 1410 00ae 05       		.uleb128 0x5
 1411 00af 3A       		.uleb128 0x3a
 1412 00b0 0B       		.uleb128 0xb
 1413 00b1 3B       		.uleb128 0x3b
 1414 00b2 05       		.uleb128 0x5
 1415 00b3 01       		.uleb128 0x1
 1416 00b4 13       		.uleb128 0x13
 1417 00b5 00       		.byte	0
 1418 00b6 00       		.byte	0
 1419 00b7 10       		.uleb128 0x10
 1420 00b8 0D       		.uleb128 0xd
 1421 00b9 00       		.byte	0
 1422 00ba 03       		.uleb128 0x3
 1423 00bb 08       		.uleb128 0x8
 1424 00bc 3A       		.uleb128 0x3a
 1425 00bd 0B       		.uleb128 0xb
ARM GAS  /tmp/ccrnTToh.s 			page 26


 1426 00be 3B       		.uleb128 0x3b
 1427 00bf 0B       		.uleb128 0xb
 1428 00c0 49       		.uleb128 0x49
 1429 00c1 13       		.uleb128 0x13
 1430 00c2 38       		.uleb128 0x38
 1431 00c3 0B       		.uleb128 0xb
 1432 00c4 00       		.byte	0
 1433 00c5 00       		.byte	0
 1434 00c6 11       		.uleb128 0x11
 1435 00c7 13       		.uleb128 0x13
 1436 00c8 01       		.byte	0x1
 1437 00c9 0B       		.uleb128 0xb
 1438 00ca 0B       		.uleb128 0xb
 1439 00cb 3A       		.uleb128 0x3a
 1440 00cc 0B       		.uleb128 0xb
 1441 00cd 3B       		.uleb128 0x3b
 1442 00ce 0B       		.uleb128 0xb
 1443 00cf 01       		.uleb128 0x1
 1444 00d0 13       		.uleb128 0x13
 1445 00d1 00       		.byte	0
 1446 00d2 00       		.byte	0
 1447 00d3 12       		.uleb128 0x12
 1448 00d4 17       		.uleb128 0x17
 1449 00d5 01       		.byte	0x1
 1450 00d6 0B       		.uleb128 0xb
 1451 00d7 0B       		.uleb128 0xb
 1452 00d8 3A       		.uleb128 0x3a
 1453 00d9 0B       		.uleb128 0xb
 1454 00da 3B       		.uleb128 0x3b
 1455 00db 0B       		.uleb128 0xb
 1456 00dc 01       		.uleb128 0x1
 1457 00dd 13       		.uleb128 0x13
 1458 00de 00       		.byte	0
 1459 00df 00       		.byte	0
 1460 00e0 13       		.uleb128 0x13
 1461 00e1 0D       		.uleb128 0xd
 1462 00e2 00       		.byte	0
 1463 00e3 03       		.uleb128 0x3
 1464 00e4 0E       		.uleb128 0xe
 1465 00e5 3A       		.uleb128 0x3a
 1466 00e6 0B       		.uleb128 0xb
 1467 00e7 3B       		.uleb128 0x3b
 1468 00e8 05       		.uleb128 0x5
 1469 00e9 49       		.uleb128 0x49
 1470 00ea 13       		.uleb128 0x13
 1471 00eb 00       		.byte	0
 1472 00ec 00       		.byte	0
 1473 00ed 14       		.uleb128 0x14
 1474 00ee 26       		.uleb128 0x26
 1475 00ef 00       		.byte	0
 1476 00f0 49       		.uleb128 0x49
 1477 00f1 13       		.uleb128 0x13
 1478 00f2 00       		.byte	0
 1479 00f3 00       		.byte	0
 1480 00f4 15       		.uleb128 0x15
 1481 00f5 01       		.uleb128 0x1
 1482 00f6 01       		.byte	0x1
ARM GAS  /tmp/ccrnTToh.s 			page 27


 1483 00f7 49       		.uleb128 0x49
 1484 00f8 13       		.uleb128 0x13
 1485 00f9 01       		.uleb128 0x1
 1486 00fa 13       		.uleb128 0x13
 1487 00fb 00       		.byte	0
 1488 00fc 00       		.byte	0
 1489 00fd 16       		.uleb128 0x16
 1490 00fe 21       		.uleb128 0x21
 1491 00ff 00       		.byte	0
 1492 0100 49       		.uleb128 0x49
 1493 0101 13       		.uleb128 0x13
 1494 0102 2F       		.uleb128 0x2f
 1495 0103 0B       		.uleb128 0xb
 1496 0104 00       		.byte	0
 1497 0105 00       		.byte	0
 1498 0106 17       		.uleb128 0x17
 1499 0107 2E       		.uleb128 0x2e
 1500 0108 01       		.byte	0x1
 1501 0109 3F       		.uleb128 0x3f
 1502 010a 19       		.uleb128 0x19
 1503 010b 03       		.uleb128 0x3
 1504 010c 0E       		.uleb128 0xe
 1505 010d 3A       		.uleb128 0x3a
 1506 010e 0B       		.uleb128 0xb
 1507 010f 3B       		.uleb128 0x3b
 1508 0110 0B       		.uleb128 0xb
 1509 0111 27       		.uleb128 0x27
 1510 0112 19       		.uleb128 0x19
 1511 0113 49       		.uleb128 0x49
 1512 0114 13       		.uleb128 0x13
 1513 0115 11       		.uleb128 0x11
 1514 0116 01       		.uleb128 0x1
 1515 0117 12       		.uleb128 0x12
 1516 0118 06       		.uleb128 0x6
 1517 0119 40       		.uleb128 0x40
 1518 011a 18       		.uleb128 0x18
 1519 011b 9742     		.uleb128 0x2117
 1520 011d 19       		.uleb128 0x19
 1521 011e 01       		.uleb128 0x1
 1522 011f 13       		.uleb128 0x13
 1523 0120 00       		.byte	0
 1524 0121 00       		.byte	0
 1525 0122 18       		.uleb128 0x18
 1526 0123 05       		.uleb128 0x5
 1527 0124 00       		.byte	0
 1528 0125 03       		.uleb128 0x3
 1529 0126 0E       		.uleb128 0xe
 1530 0127 3A       		.uleb128 0x3a
 1531 0128 0B       		.uleb128 0xb
 1532 0129 3B       		.uleb128 0x3b
 1533 012a 0B       		.uleb128 0xb
 1534 012b 49       		.uleb128 0x49
 1535 012c 13       		.uleb128 0x13
 1536 012d 02       		.uleb128 0x2
 1537 012e 17       		.uleb128 0x17
 1538 012f 00       		.byte	0
 1539 0130 00       		.byte	0
ARM GAS  /tmp/ccrnTToh.s 			page 28


 1540 0131 19       		.uleb128 0x19
 1541 0132 34       		.uleb128 0x34
 1542 0133 00       		.byte	0
 1543 0134 03       		.uleb128 0x3
 1544 0135 0E       		.uleb128 0xe
 1545 0136 3A       		.uleb128 0x3a
 1546 0137 0B       		.uleb128 0xb
 1547 0138 3B       		.uleb128 0x3b
 1548 0139 0B       		.uleb128 0xb
 1549 013a 49       		.uleb128 0x49
 1550 013b 13       		.uleb128 0x13
 1551 013c 02       		.uleb128 0x2
 1552 013d 17       		.uleb128 0x17
 1553 013e 00       		.byte	0
 1554 013f 00       		.byte	0
 1555 0140 1A       		.uleb128 0x1a
 1556 0141 898201   		.uleb128 0x4109
 1557 0144 01       		.byte	0x1
 1558 0145 11       		.uleb128 0x11
 1559 0146 01       		.uleb128 0x1
 1560 0147 31       		.uleb128 0x31
 1561 0148 13       		.uleb128 0x13
 1562 0149 01       		.uleb128 0x1
 1563 014a 13       		.uleb128 0x13
 1564 014b 00       		.byte	0
 1565 014c 00       		.byte	0
 1566 014d 1B       		.uleb128 0x1b
 1567 014e 8A8201   		.uleb128 0x410a
 1568 0151 00       		.byte	0
 1569 0152 02       		.uleb128 0x2
 1570 0153 18       		.uleb128 0x18
 1571 0154 9142     		.uleb128 0x2111
 1572 0156 18       		.uleb128 0x18
 1573 0157 00       		.byte	0
 1574 0158 00       		.byte	0
 1575 0159 1C       		.uleb128 0x1c
 1576 015a 898201   		.uleb128 0x4109
 1577 015d 00       		.byte	0
 1578 015e 11       		.uleb128 0x11
 1579 015f 01       		.uleb128 0x1
 1580 0160 31       		.uleb128 0x31
 1581 0161 13       		.uleb128 0x13
 1582 0162 00       		.byte	0
 1583 0163 00       		.byte	0
 1584 0164 1D       		.uleb128 0x1d
 1585 0165 898201   		.uleb128 0x4109
 1586 0168 01       		.byte	0x1
 1587 0169 11       		.uleb128 0x11
 1588 016a 01       		.uleb128 0x1
 1589 016b 31       		.uleb128 0x31
 1590 016c 13       		.uleb128 0x13
 1591 016d 00       		.byte	0
 1592 016e 00       		.byte	0
 1593 016f 1E       		.uleb128 0x1e
 1594 0170 2E       		.uleb128 0x2e
 1595 0171 01       		.byte	0x1
 1596 0172 3F       		.uleb128 0x3f
ARM GAS  /tmp/ccrnTToh.s 			page 29


 1597 0173 19       		.uleb128 0x19
 1598 0174 03       		.uleb128 0x3
 1599 0175 0E       		.uleb128 0xe
 1600 0176 3A       		.uleb128 0x3a
 1601 0177 0B       		.uleb128 0xb
 1602 0178 3B       		.uleb128 0x3b
 1603 0179 0B       		.uleb128 0xb
 1604 017a 27       		.uleb128 0x27
 1605 017b 19       		.uleb128 0x19
 1606 017c 11       		.uleb128 0x11
 1607 017d 01       		.uleb128 0x1
 1608 017e 12       		.uleb128 0x12
 1609 017f 06       		.uleb128 0x6
 1610 0180 40       		.uleb128 0x40
 1611 0181 18       		.uleb128 0x18
 1612 0182 9742     		.uleb128 0x2117
 1613 0184 19       		.uleb128 0x19
 1614 0185 01       		.uleb128 0x1
 1615 0186 13       		.uleb128 0x13
 1616 0187 00       		.byte	0
 1617 0188 00       		.byte	0
 1618 0189 1F       		.uleb128 0x1f
 1619 018a 898201   		.uleb128 0x4109
 1620 018d 01       		.byte	0x1
 1621 018e 11       		.uleb128 0x11
 1622 018f 01       		.uleb128 0x1
 1623 0190 9542     		.uleb128 0x2115
 1624 0192 19       		.uleb128 0x19
 1625 0193 31       		.uleb128 0x31
 1626 0194 13       		.uleb128 0x13
 1627 0195 00       		.byte	0
 1628 0196 00       		.byte	0
 1629 0197 20       		.uleb128 0x20
 1630 0198 34       		.uleb128 0x34
 1631 0199 00       		.byte	0
 1632 019a 03       		.uleb128 0x3
 1633 019b 0E       		.uleb128 0xe
 1634 019c 3A       		.uleb128 0x3a
 1635 019d 0B       		.uleb128 0xb
 1636 019e 3B       		.uleb128 0x3b
 1637 019f 05       		.uleb128 0x5
 1638 01a0 49       		.uleb128 0x49
 1639 01a1 13       		.uleb128 0x13
 1640 01a2 3F       		.uleb128 0x3f
 1641 01a3 19       		.uleb128 0x19
 1642 01a4 3C       		.uleb128 0x3c
 1643 01a5 19       		.uleb128 0x19
 1644 01a6 00       		.byte	0
 1645 01a7 00       		.byte	0
 1646 01a8 21       		.uleb128 0x21
 1647 01a9 34       		.uleb128 0x34
 1648 01aa 00       		.byte	0
 1649 01ab 03       		.uleb128 0x3
 1650 01ac 08       		.uleb128 0x8
 1651 01ad 3A       		.uleb128 0x3a
 1652 01ae 0B       		.uleb128 0xb
 1653 01af 3B       		.uleb128 0x3b
ARM GAS  /tmp/ccrnTToh.s 			page 30


 1654 01b0 05       		.uleb128 0x5
 1655 01b1 49       		.uleb128 0x49
 1656 01b2 13       		.uleb128 0x13
 1657 01b3 3F       		.uleb128 0x3f
 1658 01b4 19       		.uleb128 0x19
 1659 01b5 3C       		.uleb128 0x3c
 1660 01b6 19       		.uleb128 0x19
 1661 01b7 00       		.byte	0
 1662 01b8 00       		.byte	0
 1663 01b9 22       		.uleb128 0x22
 1664 01ba 2E       		.uleb128 0x2e
 1665 01bb 01       		.byte	0x1
 1666 01bc 3F       		.uleb128 0x3f
 1667 01bd 19       		.uleb128 0x19
 1668 01be 03       		.uleb128 0x3
 1669 01bf 0E       		.uleb128 0xe
 1670 01c0 3A       		.uleb128 0x3a
 1671 01c1 0B       		.uleb128 0xb
 1672 01c2 3B       		.uleb128 0x3b
 1673 01c3 05       		.uleb128 0x5
 1674 01c4 27       		.uleb128 0x27
 1675 01c5 19       		.uleb128 0x19
 1676 01c6 3C       		.uleb128 0x3c
 1677 01c7 19       		.uleb128 0x19
 1678 01c8 01       		.uleb128 0x1
 1679 01c9 13       		.uleb128 0x13
 1680 01ca 00       		.byte	0
 1681 01cb 00       		.byte	0
 1682 01cc 23       		.uleb128 0x23
 1683 01cd 2E       		.uleb128 0x2e
 1684 01ce 00       		.byte	0
 1685 01cf 3F       		.uleb128 0x3f
 1686 01d0 19       		.uleb128 0x19
 1687 01d1 03       		.uleb128 0x3
 1688 01d2 0E       		.uleb128 0xe
 1689 01d3 3A       		.uleb128 0x3a
 1690 01d4 0B       		.uleb128 0xb
 1691 01d5 3B       		.uleb128 0x3b
 1692 01d6 05       		.uleb128 0x5
 1693 01d7 27       		.uleb128 0x27
 1694 01d8 19       		.uleb128 0x19
 1695 01d9 49       		.uleb128 0x49
 1696 01da 13       		.uleb128 0x13
 1697 01db 3C       		.uleb128 0x3c
 1698 01dc 19       		.uleb128 0x19
 1699 01dd 00       		.byte	0
 1700 01de 00       		.byte	0
 1701 01df 24       		.uleb128 0x24
 1702 01e0 2E       		.uleb128 0x2e
 1703 01e1 01       		.byte	0x1
 1704 01e2 3F       		.uleb128 0x3f
 1705 01e3 19       		.uleb128 0x19
 1706 01e4 03       		.uleb128 0x3
 1707 01e5 0E       		.uleb128 0xe
 1708 01e6 3A       		.uleb128 0x3a
 1709 01e7 0B       		.uleb128 0xb
 1710 01e8 3B       		.uleb128 0x3b
ARM GAS  /tmp/ccrnTToh.s 			page 31


 1711 01e9 05       		.uleb128 0x5
 1712 01ea 27       		.uleb128 0x27
 1713 01eb 19       		.uleb128 0x19
 1714 01ec 49       		.uleb128 0x49
 1715 01ed 13       		.uleb128 0x13
 1716 01ee 3C       		.uleb128 0x3c
 1717 01ef 19       		.uleb128 0x19
 1718 01f0 01       		.uleb128 0x1
 1719 01f1 13       		.uleb128 0x13
 1720 01f2 00       		.byte	0
 1721 01f3 00       		.byte	0
 1722 01f4 25       		.uleb128 0x25
 1723 01f5 2E       		.uleb128 0x2e
 1724 01f6 01       		.byte	0x1
 1725 01f7 3F       		.uleb128 0x3f
 1726 01f8 19       		.uleb128 0x19
 1727 01f9 03       		.uleb128 0x3
 1728 01fa 0E       		.uleb128 0xe
 1729 01fb 3A       		.uleb128 0x3a
 1730 01fc 0B       		.uleb128 0xb
 1731 01fd 3B       		.uleb128 0x3b
 1732 01fe 0B       		.uleb128 0xb
 1733 01ff 27       		.uleb128 0x27
 1734 0200 19       		.uleb128 0x19
 1735 0201 3C       		.uleb128 0x3c
 1736 0202 19       		.uleb128 0x19
 1737 0203 01       		.uleb128 0x1
 1738 0204 13       		.uleb128 0x13
 1739 0205 00       		.byte	0
 1740 0206 00       		.byte	0
 1741 0207 26       		.uleb128 0x26
 1742 0208 2E       		.uleb128 0x2e
 1743 0209 01       		.byte	0x1
 1744 020a 3F       		.uleb128 0x3f
 1745 020b 19       		.uleb128 0x19
 1746 020c 03       		.uleb128 0x3
 1747 020d 0E       		.uleb128 0xe
 1748 020e 3A       		.uleb128 0x3a
 1749 020f 0B       		.uleb128 0xb
 1750 0210 3B       		.uleb128 0x3b
 1751 0211 05       		.uleb128 0x5
 1752 0212 27       		.uleb128 0x27
 1753 0213 19       		.uleb128 0x19
 1754 0214 49       		.uleb128 0x49
 1755 0215 13       		.uleb128 0x13
 1756 0216 3C       		.uleb128 0x3c
 1757 0217 19       		.uleb128 0x19
 1758 0218 00       		.byte	0
 1759 0219 00       		.byte	0
 1760 021a 00       		.byte	0
 1761              		.section	.debug_loc,"",%progbits
 1762              	.Ldebug_loc0:
 1763              	.LLST0:
 1764 0000 00000000 		.4byte	.LVL0
 1765 0004 04000000 		.4byte	.LVL1
 1766 0008 0100     		.2byte	0x1
 1767 000a 50       		.byte	0x50
ARM GAS  /tmp/ccrnTToh.s 			page 32


 1768 000b 04000000 		.4byte	.LVL1
 1769 000f 60000000 		.4byte	.LFE256
 1770 0013 0400     		.2byte	0x4
 1771 0015 F3       		.byte	0xf3
 1772 0016 01       		.uleb128 0x1
 1773 0017 50       		.byte	0x50
 1774 0018 9F       		.byte	0x9f
 1775 0019 00000000 		.4byte	0
 1776 001d 00000000 		.4byte	0
 1777              	.LLST1:
 1778 0021 00000000 		.4byte	.LVL0
 1779 0025 10000000 		.4byte	.LVL2
 1780 0029 0100     		.2byte	0x1
 1781 002b 51       		.byte	0x51
 1782 002c 10000000 		.4byte	.LVL2
 1783 0030 60000000 		.4byte	.LFE256
 1784 0034 0400     		.2byte	0x4
 1785 0036 F3       		.byte	0xf3
 1786 0037 01       		.uleb128 0x1
 1787 0038 51       		.byte	0x51
 1788 0039 9F       		.byte	0x9f
 1789 003a 00000000 		.4byte	0
 1790 003e 00000000 		.4byte	0
 1791              	.LLST2:
 1792 0042 00000000 		.4byte	.LVL0
 1793 0046 4C000000 		.4byte	.LVL9
 1794 004a 0200     		.2byte	0x2
 1795 004c 30       		.byte	0x30
 1796 004d 9F       		.byte	0x9f
 1797 004e 4C000000 		.4byte	.LVL9
 1798 0052 5A000000 		.4byte	.LVL12
 1799 0056 0100     		.2byte	0x1
 1800 0058 54       		.byte	0x54
 1801 0059 5A000000 		.4byte	.LVL12
 1802 005d 60000000 		.4byte	.LFE256
 1803 0061 0100     		.2byte	0x1
 1804 0063 50       		.byte	0x50
 1805 0064 00000000 		.4byte	0
 1806 0068 00000000 		.4byte	0
 1807              		.section	.debug_aranges,"",%progbits
 1808 0000 24000000 		.4byte	0x24
 1809 0004 0200     		.2byte	0x2
 1810 0006 00000000 		.4byte	.Ldebug_info0
 1811 000a 04       		.byte	0x4
 1812 000b 00       		.byte	0
 1813 000c 0000     		.2byte	0
 1814 000e 0000     		.2byte	0
 1815 0010 00000000 		.4byte	.LFB256
 1816 0014 60000000 		.4byte	.LFE256-.LFB256
 1817 0018 00000000 		.4byte	.LFB257
 1818 001c 08000000 		.4byte	.LFE257-.LFB257
 1819 0020 00000000 		.4byte	0
 1820 0024 00000000 		.4byte	0
 1821              		.section	.debug_ranges,"",%progbits
 1822              	.Ldebug_ranges0:
 1823 0000 00000000 		.4byte	.LFB256
 1824 0004 60000000 		.4byte	.LFE256
ARM GAS  /tmp/ccrnTToh.s 			page 33


 1825 0008 00000000 		.4byte	.LFB257
 1826 000c 08000000 		.4byte	.LFE257
 1827 0010 00000000 		.4byte	0
 1828 0014 00000000 		.4byte	0
 1829              		.section	.debug_line,"",%progbits
 1830              	.Ldebug_line0:
 1831 0000 FC010000 		.section	.debug_str,"MS",%progbits,1
 1831      0200C501 
 1831      00000201 
 1831      FB0E0D00 
 1831      01010101 
 1832              	.LASF107:
 1833 0000 75696E74 		.ascii	"uint16\000"
 1833      313600
 1834              	.LASF53:
 1835 0007 72656164 		.ascii	"ready_list_t\000"
 1835      795F6C69 
 1835      73745F74 
 1835      00
 1836              	.LASF91:
 1837 0014 77747472 		.ascii	"wttrp\000"
 1837      7000
 1838              	.LASF88:
 1839 001a 7264796D 		.ascii	"rdymsg\000"
 1839      736700
 1840              	.LASF16:
 1841 0021 75696E74 		.ascii	"uint64_t\000"
 1841      36345F74 
 1841      00
 1842              	.LASF6:
 1843 002a 5F5F7569 		.ascii	"__uint8_t\000"
 1843      6E74385F 
 1843      7400
 1844              	.LASF85:
 1845 0034 706F7274 		.ascii	"port_intctx\000"
 1845      5F696E74 
 1845      63747800 
 1846              	.LASF72:
 1847 0040 73797374 		.ascii	"system_debug_t\000"
 1847      656D5F64 
 1847      65627567 
 1847      5F7400
 1848              	.LASF112:
 1849 004f 43433235 		.ascii	"CC2520_BSET\000"
 1849      32305F42 
 1849      53455400 
 1850              	.LASF0:
 1851 005b 6C6F6E67 		.ascii	"long long unsigned int\000"
 1851      206C6F6E 
 1851      6720756E 
 1851      7369676E 
 1851      65642069 
 1852              	.LASF119:
 1853 0072 63633235 		.ascii	"cc2520/driver/hal_rf_util.c\000"
 1853      32302F64 
 1853      72697665 
 1853      722F6861 
ARM GAS  /tmp/ccrnTToh.s 			page 34


 1853      6C5F7266 
 1854              	.LASF89:
 1855 008e 65786974 		.ascii	"exitcode\000"
 1855      636F6465 
 1855      00
 1856              	.LASF79:
 1857 0097 6D61696E 		.ascii	"mainthread\000"
 1857      74687265 
 1857      616400
 1858              	.LASF69:
 1859 00a2 76697274 		.ascii	"virtual_timers_list_t\000"
 1859      75616C5F 
 1859      74696D65 
 1859      72735F6C 
 1859      6973745F 
 1860              	.LASF110:
 1861 00b8 49544D5F 		.ascii	"ITM_RxBuffer\000"
 1861      52784275 
 1861      66666572 
 1861      00
 1862              	.LASF52:
 1863 00c5 63685F74 		.ascii	"ch_threads_queue\000"
 1863      68726561 
 1863      64735F71 
 1863      75657565 
 1863      00
 1864              	.LASF30:
 1865 00d6 705F7072 		.ascii	"p_prio\000"
 1865      696F00
 1866              	.LASF11:
 1867 00dd 6C6F6E67 		.ascii	"long long int\000"
 1867      206C6F6E 
 1867      6720696E 
 1867      7400
 1868              	.LASF2:
 1869 00eb 7369676E 		.ascii	"signed char\000"
 1869      65642063 
 1869      68617200 
 1870              	.LASF117:
 1871 00f7 43433235 		.ascii	"CC2520_BCLR\000"
 1871      32305F42 
 1871      434C5200 
 1872              	.LASF46:
 1873 0103 705F6D70 		.ascii	"p_mpool\000"
 1873      6F6F6C00 
 1874              	.LASF99:
 1875 010b 6D5F7175 		.ascii	"m_queue\000"
 1875      65756500 
 1876              	.LASF115:
 1877 0113 43433235 		.ascii	"CC2520_SRXON\000"
 1877      32305F53 
 1877      52584F4E 
 1877      00
 1878              	.LASF78:
 1879 0120 76746C69 		.ascii	"vtlist\000"
 1879      737400
 1880              	.LASF21:
ARM GAS  /tmp/ccrnTToh.s 			page 35


 1881 0127 74736C69 		.ascii	"tslices_t\000"
 1881      6365735F 
 1881      7400
 1882              	.LASF76:
 1883 0131 63685F73 		.ascii	"ch_system\000"
 1883      79737465 
 1883      6D00
 1884              	.LASF8:
 1885 013b 6C6F6E67 		.ascii	"long int\000"
 1885      20696E74 
 1885      00
 1886              	.LASF19:
 1887 0144 74737461 		.ascii	"tstate_t\000"
 1887      74655F74 
 1887      00
 1888              	.LASF116:
 1889 014d 43433235 		.ascii	"CC2520_SRFOFF\000"
 1889      32305F53 
 1889      52464F46 
 1889      4600
 1890              	.LASF32:
 1891 015b 705F6E65 		.ascii	"p_newer\000"
 1891      77657200 
 1892              	.LASF96:
 1893 0163 735F7175 		.ascii	"s_queue\000"
 1893      65756500 
 1894              	.LASF58:
 1895 016b 725F6E65 		.ascii	"r_newer\000"
 1895      77657200 
 1896              	.LASF82:
 1897 0173 72656761 		.ascii	"regarm_t\000"
 1897      726D5F74 
 1897      00
 1898              	.LASF65:
 1899 017c 76745F70 		.ascii	"vt_prev\000"
 1899      72657600 
 1900              	.LASF121:
 1901 0184 68616C53 		.ascii	"halSampleED\000"
 1901      616D706C 
 1901      65454400 
 1902              	.LASF103:
 1903 0190 6D757465 		.ascii	"mutex_t\000"
 1903      785F7400 
 1904              	.LASF80:
 1905 0198 69646C65 		.ascii	"idle_thread_wa\000"
 1905      5F746872 
 1905      6561645F 
 1905      776100
 1906              	.LASF25:
 1907 01a7 636E745F 		.ascii	"cnt_t\000"
 1907      7400
 1908              	.LASF1:
 1909 01ad 756E7369 		.ascii	"unsigned int\000"
 1909      676E6564 
 1909      20696E74 
 1909      00
 1910              	.LASF64:
ARM GAS  /tmp/ccrnTToh.s 			page 36


 1911 01ba 76745F6E 		.ascii	"vt_next\000"
 1911      65787400 
 1912              	.LASF39:
 1913 01c2 705F7469 		.ascii	"p_time\000"
 1913      6D6500
 1914              	.LASF92:
 1915 01c9 77747365 		.ascii	"wtsemp\000"
 1915      6D7000
 1916              	.LASF66:
 1917 01d0 76745F64 		.ascii	"vt_delta\000"
 1917      656C7461 
 1917      00
 1918              	.LASF41:
 1919 01d9 705F6D73 		.ascii	"p_msgqueue\000"
 1919      67717565 
 1919      756500
 1920              	.LASF97:
 1921 01e4 735F636E 		.ascii	"s_cnt\000"
 1921      7400
 1922              	.LASF5:
 1923 01ea 73686F72 		.ascii	"short unsigned int\000"
 1923      7420756E 
 1923      7369676E 
 1923      65642069 
 1923      6E7400
 1924              	.LASF49:
 1925 01fd 63685F74 		.ascii	"ch_thread\000"
 1925      68726561 
 1925      6400
 1926              	.LASF105:
 1927 0207 696E7438 		.ascii	"int8\000"
 1927      00
 1928              	.LASF23:
 1929 020c 6D73675F 		.ascii	"msg_t\000"
 1929      7400
 1930              	.LASF75:
 1931 0212 63685F73 		.ascii	"ch_system_t\000"
 1931      79737465 
 1931      6D5F7400 
 1932              	.LASF18:
 1933 021e 746D6F64 		.ascii	"tmode_t\000"
 1933      655F7400 
 1934              	.LASF54:
 1935 0226 63685F72 		.ascii	"ch_ready_list\000"
 1935      65616479 
 1935      5F6C6973 
 1935      7400
 1936              	.LASF24:
 1937 0234 6576656E 		.ascii	"eventmask_t\000"
 1937      746D6173 
 1937      6B5F7400 
 1938              	.LASF7:
 1939 0240 5F5F696E 		.ascii	"__int32_t\000"
 1939      7433325F 
 1939      7400
 1940              	.LASF83:
 1941 024a 73746B61 		.ascii	"stkalign_t\000"
ARM GAS  /tmp/ccrnTToh.s 			page 37


 1941      6C69676E 
 1941      5F7400
 1942              	.LASF48:
 1943 0255 74687265 		.ascii	"threads_list_t\000"
 1943      6164735F 
 1943      6C697374 
 1943      5F7400
 1944              	.LASF109:
 1945 0264 73616D70 		.ascii	"sampleTime\000"
 1945      6C655469 
 1945      6D6500
 1946              	.LASF81:
 1947 026f 73697A65 		.ascii	"sizetype\000"
 1947      74797065 
 1947      00
 1948              	.LASF47:
 1949 0278 74687265 		.ascii	"thread_reference_t\000"
 1949      61645F72 
 1949      65666572 
 1949      656E6365 
 1949      5F7400
 1950              	.LASF70:
 1951 028b 63685F76 		.ascii	"ch_virtual_timers_list\000"
 1951      69727475 
 1951      616C5F74 
 1951      696D6572 
 1951      735F6C69 
 1952              	.LASF106:
 1953 02a2 75696E74 		.ascii	"uint8\000"
 1953      3800
 1954              	.LASF33:
 1955 02a8 705F6F6C 		.ascii	"p_older\000"
 1955      64657200 
 1956              	.LASF57:
 1957 02b0 725F6374 		.ascii	"r_ctx\000"
 1957      7800
 1958              	.LASF87:
 1959 02b6 746D5F63 		.ascii	"tm_calibration_t\000"
 1959      616C6962 
 1959      72617469 
 1959      6F6E5F74 
 1959      00
 1960              	.LASF60:
 1961 02c7 725F6375 		.ascii	"r_current\000"
 1961      7272656E 
 1961      7400
 1962              	.LASF59:
 1963 02d1 725F6F6C 		.ascii	"r_older\000"
 1963      64657200 
 1964              	.LASF12:
 1965 02d9 5F5F7569 		.ascii	"__uint64_t\000"
 1965      6E743634 
 1965      5F7400
 1966              	.LASF20:
 1967 02e4 74726566 		.ascii	"trefs_t\000"
 1967      735F7400 
 1968              	.LASF62:
ARM GAS  /tmp/ccrnTToh.s 			page 38


 1969 02ec 76697274 		.ascii	"virtual_timer_t\000"
 1969      75616C5F 
 1969      74696D65 
 1969      725F7400 
 1970              	.LASF29:
 1971 02fc 705F7072 		.ascii	"p_prev\000"
 1971      657600
 1972              	.LASF22:
 1973 0303 74707269 		.ascii	"tprio_t\000"
 1973      6F5F7400 
 1974              	.LASF120:
 1975 030b 2F686F6D 		.ascii	"/home/benjamin/Skrivbord/SP-RCCar/Embedded/Mote/\000"
 1975      652F6265 
 1975      6E6A616D 
 1975      696E2F53 
 1975      6B726976 
 1976              	.LASF73:
 1977 033c 63685F73 		.ascii	"ch_system_debug\000"
 1977      79737465 
 1977      6D5F6465 
 1977      62756700 
 1978              	.LASF104:
 1979 034c 5F426F6F 		.ascii	"_Bool\000"
 1979      6C00
 1980              	.LASF14:
 1981 0352 696E7433 		.ascii	"int32_t\000"
 1981      325F7400 
 1982              	.LASF3:
 1983 035a 756E7369 		.ascii	"unsigned char\000"
 1983      676E6564 
 1983      20636861 
 1983      7200
 1984              	.LASF44:
 1985 0368 705F6D74 		.ascii	"p_mtxlist\000"
 1985      786C6973 
 1985      7400
 1986              	.LASF4:
 1987 0372 73686F72 		.ascii	"short int\000"
 1987      7420696E 
 1987      7400
 1988              	.LASF35:
 1989 037c 705F7374 		.ascii	"p_state\000"
 1989      61746500 
 1990              	.LASF38:
 1991 0384 705F7072 		.ascii	"p_preempt\000"
 1991      65656D70 
 1991      7400
 1992              	.LASF56:
 1993 038e 725F7072 		.ascii	"r_prio\000"
 1993      696F00
 1994              	.LASF94:
 1995 0395 65776D61 		.ascii	"ewmask\000"
 1995      736B00
 1996              	.LASF28:
 1997 039c 705F6E65 		.ascii	"p_next\000"
 1997      787400
 1998              	.LASF111:
ARM GAS  /tmp/ccrnTToh.s 			page 39


 1999 03a3 43433235 		.ascii	"CC2520_REGRD8\000"
 1999      32305F52 
 1999      45475244 
 1999      3800
 2000              	.LASF36:
 2001 03b1 705F666C 		.ascii	"p_flags\000"
 2001      61677300 
 2002              	.LASF108:
 2003 03b9 6368616E 		.ascii	"channel\000"
 2003      6E656C00 
 2004              	.LASF63:
 2005 03c1 63685F76 		.ascii	"ch_virtual_timer\000"
 2005      69727475 
 2005      616C5F74 
 2005      696D6572 
 2005      00
 2006              	.LASF95:
 2007 03d2 63685F73 		.ascii	"ch_semaphore\000"
 2007      656D6170 
 2007      686F7265 
 2007      00
 2008              	.LASF43:
 2009 03df 705F6570 		.ascii	"p_epending\000"
 2009      656E6469 
 2009      6E6700
 2010              	.LASF114:
 2011 03ea 63685468 		.ascii	"chThdSleep\000"
 2011      64536C65 
 2011      657000
 2012              	.LASF15:
 2013 03f5 75696E74 		.ascii	"uint32_t\000"
 2013      33325F74 
 2013      00
 2014              	.LASF93:
 2015 03fe 77746D74 		.ascii	"wtmtxp\000"
 2015      787000
 2016              	.LASF55:
 2017 0405 725F7175 		.ascii	"r_queue\000"
 2017      65756500 
 2018              	.LASF50:
 2019 040d 63685F74 		.ascii	"ch_threads_list\000"
 2019      68726561 
 2019      64735F6C 
 2019      69737400 
 2020              	.LASF10:
 2021 041d 6C6F6E67 		.ascii	"long unsigned int\000"
 2021      20756E73 
 2021      69676E65 
 2021      6420696E 
 2021      7400
 2022              	.LASF102:
 2023 042f 63686172 		.ascii	"char\000"
 2023      00
 2024              	.LASF122:
 2025 0434 72737369 		.ascii	"rssi\000"
 2025      00
 2026              	.LASF118:
ARM GAS  /tmp/ccrnTToh.s 			page 40


 2027 0439 474E5520 		.ascii	"GNU C 4.9.3 20150529 (release) [ARM/embedded-4_9-br"
 2027      4320342E 
 2027      392E3320 
 2027      32303135 
 2027      30353239 
 2028 046c 616E6368 		.ascii	"anch revision 227977] -mcpu=cortex-m4 -mfloat-abi=h"
 2028      20726576 
 2028      6973696F 
 2028      6E203232 
 2028      37393737 
 2029 049f 61726420 		.ascii	"ard -mfpu=fpv4-sp-d16 -mno-thumb-interwork -mthumb "
 2029      2D6D6670 
 2029      753D6670 
 2029      76342D73 
 2029      702D6431 
 2030 04d2 2D676764 		.ascii	"-ggdb -O2 -std=gnu99 -fomit-frame-pointer -falign-f"
 2030      62202D4F 
 2030      32202D73 
 2030      74643D67 
 2030      6E753939 
 2031 0505 756E6374 		.ascii	"unctions=16 -ffunction-sections -fdata-sections -fn"
 2031      696F6E73 
 2031      3D313620 
 2031      2D666675 
 2031      6E637469 
 2032 0538 6F2D636F 		.ascii	"o-common -fsingle-precision-constant\000"
 2032      6D6D6F6E 
 2032      202D6673 
 2032      696E676C 
 2032      652D7072 
 2033              	.LASF101:
 2034 055d 6D5F6E65 		.ascii	"m_next\000"
 2034      787400
 2035              	.LASF26:
 2036 0564 73797374 		.ascii	"systime_t\000"
 2036      696D655F 
 2036      7400
 2037              	.LASF45:
 2038 056e 705F7265 		.ascii	"p_realprio\000"
 2038      616C7072 
 2038      696F00
 2039              	.LASF61:
 2040 0579 76746675 		.ascii	"vtfunc_t\000"
 2040      6E635F74 
 2040      00
 2041              	.LASF9:
 2042 0582 5F5F7569 		.ascii	"__uint32_t\000"
 2042      6E743332 
 2042      5F7400
 2043              	.LASF74:
 2044 058d 70616E69 		.ascii	"panic_msg\000"
 2044      635F6D73 
 2044      6700
 2045              	.LASF86:
 2046 0597 6F666673 		.ascii	"offset\000"
 2046      657400
 2047              	.LASF84:
ARM GAS  /tmp/ccrnTToh.s 			page 41


 2048 059e 636F6E74 		.ascii	"context\000"
 2048      65787400 
 2049              	.LASF17:
 2050 05a6 7274636E 		.ascii	"rtcnt_t\000"
 2050      745F7400 
 2051              	.LASF68:
 2052 05ae 76745F70 		.ascii	"vt_par\000"
 2052      617200
 2053              	.LASF51:
 2054 05b5 74687265 		.ascii	"threads_queue_t\000"
 2054      6164735F 
 2054      71756575 
 2054      655F7400 
 2055              	.LASF98:
 2056 05c5 63685F6D 		.ascii	"ch_mutex\000"
 2056      75746578 
 2056      00
 2057              	.LASF37:
 2058 05ce 705F7265 		.ascii	"p_refs\000"
 2058      667300
 2059              	.LASF27:
 2060 05d5 74687265 		.ascii	"thread_t\000"
 2060      61645F74 
 2060      00
 2061              	.LASF77:
 2062 05de 726C6973 		.ascii	"rlist\000"
 2062      7400
 2063              	.LASF13:
 2064 05e4 75696E74 		.ascii	"uint8_t\000"
 2064      385F7400 
 2065              	.LASF90:
 2066 05ec 77746F62 		.ascii	"wtobjp\000"
 2066      6A7000
 2067              	.LASF34:
 2068 05f3 705F6E61 		.ascii	"p_name\000"
 2068      6D6500
 2069              	.LASF71:
 2070 05fa 76745F73 		.ascii	"vt_systime\000"
 2070      79737469 
 2070      6D6500
 2071              	.LASF42:
 2072 0605 705F6D73 		.ascii	"p_msg\000"
 2072      6700
 2073              	.LASF113:
 2074 060b 43433235 		.ascii	"CC2520_REGWR8\000"
 2074      32305F52 
 2074      45475752 
 2074      3800
 2075              	.LASF100:
 2076 0619 6D5F6F77 		.ascii	"m_owner\000"
 2076      6E657200 
 2077              	.LASF31:
 2078 0621 705F6374 		.ascii	"p_ctx\000"
 2078      7800
 2079              	.LASF67:
 2080 0627 76745F66 		.ascii	"vt_func\000"
 2080      756E6300 
ARM GAS  /tmp/ccrnTToh.s 			page 42


 2081              	.LASF40:
 2082 062f 705F7761 		.ascii	"p_waiting\000"
 2082      6974696E 
 2082      6700
 2083              	.LASF123:
 2084 0639 68616C53 		.ascii	"halSetRxScanMode\000"
 2084      65745278 
 2084      5363616E 
 2084      4D6F6465 
 2084      00
 2085              		.ident	"GCC: (GNU Tools for ARM Embedded Processors) 4.9.3 20150529 (release) [ARM/embedded-4_9-br
ARM GAS  /tmp/ccrnTToh.s 			page 43


DEFINED SYMBOLS
                            *ABS*:0000000000000000 hal_rf_util.c
     /tmp/ccrnTToh.s:21     .text.halSampleED:0000000000000000 $t
     /tmp/ccrnTToh.s:27     .text.halSampleED:0000000000000000 halSampleED
     /tmp/ccrnTToh.s:97     .text.halSampleED:000000000000005c $d
     /tmp/ccrnTToh.s:102    .text.halSetRxScanMode:0000000000000000 $t
     /tmp/ccrnTToh.s:108    .text.halSetRxScanMode:0000000000000000 halSetRxScanMode
                     .debug_frame:0000000000000010 $d

UNDEFINED SYMBOLS
CC2520_REGWR8
CC2520_SRXON
CC2520_REGRD8
CC2520_BSET
chThdSleep
CC2520_SRFOFF
CC2520_BCLR
