ARM GAS  /tmp/ccT6Lyqs.s 			page 1


   1              		.syntax unified
   2              		.cpu cortex-m4
   3              		.eabi_attribute 27, 1
   4              		.eabi_attribute 28, 1
   5              		.fpu fpv4-sp-d16
   6              		.eabi_attribute 20, 1
   7              		.eabi_attribute 21, 1
   8              		.eabi_attribute 23, 3
   9              		.eabi_attribute 24, 1
  10              		.eabi_attribute 25, 1
  11              		.eabi_attribute 26, 1
  12              		.eabi_attribute 30, 2
  13              		.eabi_attribute 34, 1
  14              		.eabi_attribute 18, 4
  15              		.thumb
  16              		.file	"i2c.c"
  17              		.text
  18              	.Ltext0:
  19              		.cfi_sections	.debug_frame
  20              		.section	.text.i2cInit,"ax",%progbits
  21              		.align	2
  22              		.p2align 4,,15
  23              		.global	i2cInit
  24              		.thumb
  25              		.thumb_func
  26              		.type	i2cInit, %function
  27              	i2cInit:
  28              	.LFB256:
  29              		.file 1 "ChibiOS_3.0.2/os/hal/src/i2c.c"
  30              		.loc 1 59 0
  31              		.cfi_startproc
  32              		@ args = 0, pretend = 0, frame = 0
  33              		@ frame_needed = 0, uses_anonymous_args = 0
  34              		@ link register save eliminated.
  35              		.loc 1 61 0
  36 0000 FFF7FEBF 		b	i2c_lld_init
  37              	.LVL0:
  38              		.cfi_endproc
  39              	.LFE256:
  40              		.size	i2cInit, .-i2cInit
  41              		.section	.text.i2cObjectInit,"ax",%progbits
  42              		.align	2
  43              		.p2align 4,,15
  44              		.global	i2cObjectInit
  45              		.thumb
  46              		.thumb_func
  47              		.type	i2cObjectInit, %function
  48              	i2cObjectInit:
  49              	.LFB257:
  50              		.loc 1 71 0
  51              		.cfi_startproc
  52              		@ args = 0, pretend = 0, frame = 0
  53              		@ frame_needed = 0, uses_anonymous_args = 0
  54              		@ link register save eliminated.
  55              	.LVL1:
  56              		.loc 1 73 0
  57 0000 0122     		movs	r2, #1
ARM GAS  /tmp/ccT6Lyqs.s 			page 2


  58              		.loc 1 74 0
  59 0002 0023     		movs	r3, #0
  60              		.loc 1 73 0
  61 0004 0270     		strb	r2, [r0]
  62              		.loc 1 74 0
  63 0006 4360     		str	r3, [r0, #4]
  64              	.LVL2:
  65              	.LBB82:
  66              	.LBB83:
  67              		.file 2 "ChibiOS_3.0.2/os/hal/osal/rt/osal.h"
  68              		.loc 2 887 0
  69 0008 0C30     		adds	r0, r0, #12
  70              	.LVL3:
  71 000a FFF7FEBF 		b	chMtxObjectInit
  72              	.LVL4:
  73              	.LBE83:
  74              	.LBE82:
  75              		.cfi_endproc
  76              	.LFE257:
  77              		.size	i2cObjectInit, .-i2cObjectInit
  78 000e 00BF     		.section	.text.i2cStart,"ax",%progbits
  79              		.align	2
  80              		.p2align 4,,15
  81              		.global	i2cStart
  82              		.thumb
  83              		.thumb_func
  84              		.type	i2cStart, %function
  85              	i2cStart:
  86              	.LFB258:
  87              		.loc 1 93 0
  88              		.cfi_startproc
  89              		@ args = 0, pretend = 0, frame = 0
  90              		@ frame_needed = 0, uses_anonymous_args = 0
  91              	.LVL5:
  92 0000 10B5     		push	{r4, lr}
  93              		.cfi_def_cfa_offset 8
  94              		.cfi_offset 4, -8
  95              		.cfi_offset 14, -4
  96              		.loc 1 93 0
  97 0002 0446     		mov	r4, r0
  98              	.LBB84:
  99              	.LBB85:
 100              	.LBB86:
 101              	.LBB87:
 102              	.LBB88:
 103              		.file 3 "ChibiOS_3.0.2/os/ext/CMSIS/include/core_cmFunc.h"
 104              		.loc 3 342 0
 105              	@ 342 "ChibiOS_3.0.2/os/ext/CMSIS/include/core_cmFunc.h" 1
 106 0004 72B6     		cpsid i
 107              	@ 0 "" 2
 108              		.thumb
 109              	.LBE88:
 110              	.LBE87:
 111              	.LBE86:
 112              	.LBE85:
 113              	.LBE84:
 114              		.loc 1 100 0
ARM GAS  /tmp/ccT6Lyqs.s 			page 3


 115 0006 4160     		str	r1, [r0, #4]
 116              		.loc 1 101 0
 117 0008 FFF7FEFF 		bl	i2c_lld_start
 118              	.LVL6:
 119              		.loc 1 102 0
 120 000c 0223     		movs	r3, #2
 121 000e 2370     		strb	r3, [r4]
 122              	.LBB89:
 123              	.LBB90:
 124              	.LBB91:
 125              	.LBB92:
 126              	.LBB93:
 127              	.LBB94:
 128              		.loc 3 331 0
 129              	@ 331 "ChibiOS_3.0.2/os/ext/CMSIS/include/core_cmFunc.h" 1
 130 0010 62B6     		cpsie i
 131              	@ 0 "" 2
 132              		.thumb
 133 0012 10BD     		pop	{r4, pc}
 134              	.LBE94:
 135              	.LBE93:
 136              	.LBE92:
 137              	.LBE91:
 138              	.LBE90:
 139              	.LBE89:
 140              		.cfi_endproc
 141              	.LFE258:
 142              		.size	i2cStart, .-i2cStart
 143              		.section	.text.i2cStop,"ax",%progbits
 144              		.align	2
 145              		.p2align 4,,15
 146              		.global	i2cStop
 147              		.thumb
 148              		.thumb_func
 149              		.type	i2cStop, %function
 150              	i2cStop:
 151              	.LFB259:
 152              		.loc 1 113 0
 153              		.cfi_startproc
 154              		@ args = 0, pretend = 0, frame = 0
 155              		@ frame_needed = 0, uses_anonymous_args = 0
 156              	.LVL7:
 157 0000 10B5     		push	{r4, lr}
 158              		.cfi_def_cfa_offset 8
 159              		.cfi_offset 4, -8
 160              		.cfi_offset 14, -4
 161              		.loc 1 113 0
 162 0002 0446     		mov	r4, r0
 163              	.LBB95:
 164              	.LBB96:
 165              	.LBB97:
 166              	.LBB98:
 167              	.LBB99:
 168              		.loc 3 342 0
 169              	@ 342 "ChibiOS_3.0.2/os/ext/CMSIS/include/core_cmFunc.h" 1
 170 0004 72B6     		cpsid i
 171              	@ 0 "" 2
ARM GAS  /tmp/ccT6Lyqs.s 			page 4


 172              		.thumb
 173              	.LBE99:
 174              	.LBE98:
 175              	.LBE97:
 176              	.LBE96:
 177              	.LBE95:
 178              		.loc 1 120 0
 179 0006 FFF7FEFF 		bl	i2c_lld_stop
 180              	.LVL8:
 181              		.loc 1 121 0
 182 000a 0123     		movs	r3, #1
 183 000c 2370     		strb	r3, [r4]
 184              	.LBB100:
 185              	.LBB101:
 186              	.LBB102:
 187              	.LBB103:
 188              	.LBB104:
 189              	.LBB105:
 190              		.loc 3 331 0
 191              	@ 331 "ChibiOS_3.0.2/os/ext/CMSIS/include/core_cmFunc.h" 1
 192 000e 62B6     		cpsie i
 193              	@ 0 "" 2
 194              		.thumb
 195 0010 10BD     		pop	{r4, pc}
 196              	.LBE105:
 197              	.LBE104:
 198              	.LBE103:
 199              	.LBE102:
 200              	.LBE101:
 201              	.LBE100:
 202              		.cfi_endproc
 203              	.LFE259:
 204              		.size	i2cStop, .-i2cStop
 205 0012 00BF     		.section	.text.i2cGetErrors,"ax",%progbits
 206              		.align	2
 207              		.p2align 4,,15
 208              		.global	i2cGetErrors
 209              		.thumb
 210              		.thumb_func
 211              		.type	i2cGetErrors, %function
 212              	i2cGetErrors:
 213              	.LFB260:
 214              		.loc 1 133 0
 215              		.cfi_startproc
 216              		@ args = 0, pretend = 0, frame = 0
 217              		@ frame_needed = 0, uses_anonymous_args = 0
 218              		@ link register save eliminated.
 219              	.LVL9:
 220              		.loc 1 138 0
 221 0000 8068     		ldr	r0, [r0, #8]
 222              	.LVL10:
 223 0002 7047     		bx	lr
 224              		.cfi_endproc
 225              	.LFE260:
 226              		.size	i2cGetErrors, .-i2cGetErrors
 227              		.section	.text.i2cMasterTransmitTimeout,"ax",%progbits
 228              		.align	2
ARM GAS  /tmp/ccT6Lyqs.s 			page 5


 229              		.p2align 4,,15
 230              		.global	i2cMasterTransmitTimeout
 231              		.thumb
 232              		.thumb_func
 233              		.type	i2cMasterTransmitTimeout, %function
 234              	i2cMasterTransmitTimeout:
 235              	.LFB261:
 236              		.loc 1 172 0
 237              		.cfi_startproc
 238              		@ args = 12, pretend = 0, frame = 0
 239              		@ frame_needed = 0, uses_anonymous_args = 0
 240              	.LVL11:
 241 0000 F0B5     		push	{r4, r5, r6, r7, lr}
 242              		.cfi_def_cfa_offset 20
 243              		.cfi_offset 4, -20
 244              		.cfi_offset 5, -16
 245              		.cfi_offset 6, -12
 246              		.cfi_offset 7, -8
 247              		.cfi_offset 14, -4
 248 0002 85B0     		sub	sp, sp, #20
 249              		.cfi_def_cfa_offset 40
 250              		.loc 1 172 0
 251 0004 0446     		mov	r4, r0
 252 0006 0A9F     		ldr	r7, [sp, #40]
 253 0008 0B9E     		ldr	r6, [sp, #44]
 254              	.LBB106:
 255              	.LBB107:
 256              	.LBB108:
 257              	.LBB109:
 258              	.LBB110:
 259              		.loc 3 342 0
 260              	@ 342 "ChibiOS_3.0.2/os/ext/CMSIS/include/core_cmFunc.h" 1
 261 000a 72B6     		cpsid i
 262              	@ 0 "" 2
 263              		.thumb
 264              	.LBE110:
 265              	.LBE109:
 266              	.LBE108:
 267              	.LBE107:
 268              	.LBE106:
 269              		.loc 1 184 0
 270 000c 4FF0030E 		mov	lr, #3
 271              		.loc 1 185 0
 272 0010 0196     		str	r6, [sp, #4]
 273              		.loc 1 183 0
 274 0012 0025     		movs	r5, #0
 275              		.loc 1 185 0
 276 0014 0C9E     		ldr	r6, [sp, #48]
 277 0016 0097     		str	r7, [sp]
 278 0018 0296     		str	r6, [sp, #8]
 279              		.loc 1 183 0
 280 001a 8560     		str	r5, [r0, #8]
 281              		.loc 1 184 0
 282 001c 80F800E0 		strb	lr, [r0]
 283              		.loc 1 185 0
 284 0020 FFF7FEFF 		bl	i2c_lld_master_transmit_timeout
 285              	.LVL12:
ARM GAS  /tmp/ccT6Lyqs.s 			page 6


 286              		.loc 1 187 0
 287 0024 431C     		adds	r3, r0, #1
 288              		.loc 1 188 0
 289 0026 0CBF     		ite	eq
 290 0028 0523     		moveq	r3, #5
 291              		.loc 1 191 0
 292 002a 0223     		movne	r3, #2
 293 002c 2370     		strb	r3, [r4]
 294              	.LBB111:
 295              	.LBB112:
 296              	.LBB113:
 297              	.LBB114:
 298              	.LBB115:
 299              	.LBB116:
 300              		.loc 3 331 0
 301              	@ 331 "ChibiOS_3.0.2/os/ext/CMSIS/include/core_cmFunc.h" 1
 302 002e 62B6     		cpsie i
 303              	@ 0 "" 2
 304              		.thumb
 305              	.LBE116:
 306              	.LBE115:
 307              	.LBE114:
 308              	.LBE113:
 309              	.LBE112:
 310              	.LBE111:
 311              		.loc 1 195 0
 312 0030 05B0     		add	sp, sp, #20
 313              		.cfi_def_cfa_offset 20
 314              		@ sp needed
 315 0032 F0BD     		pop	{r4, r5, r6, r7, pc}
 316              		.cfi_endproc
 317              	.LFE261:
 318              		.size	i2cMasterTransmitTimeout, .-i2cMasterTransmitTimeout
 319              		.section	.text.i2cMasterReceiveTimeout,"ax",%progbits
 320              		.align	2
 321              		.p2align 4,,15
 322              		.global	i2cMasterReceiveTimeout
 323              		.thumb
 324              		.thumb_func
 325              		.type	i2cMasterReceiveTimeout, %function
 326              	i2cMasterReceiveTimeout:
 327              	.LFB262:
 328              		.loc 1 221 0
 329              		.cfi_startproc
 330              		@ args = 4, pretend = 0, frame = 0
 331              		@ frame_needed = 0, uses_anonymous_args = 0
 332              	.LVL13:
 333 0000 F0B5     		push	{r4, r5, r6, r7, lr}
 334              		.cfi_def_cfa_offset 20
 335              		.cfi_offset 4, -20
 336              		.cfi_offset 5, -16
 337              		.cfi_offset 6, -12
 338              		.cfi_offset 7, -8
 339              		.cfi_offset 14, -4
 340 0002 83B0     		sub	sp, sp, #12
 341              		.cfi_def_cfa_offset 32
 342              		.loc 1 221 0
ARM GAS  /tmp/ccT6Lyqs.s 			page 7


 343 0004 0446     		mov	r4, r0
 344 0006 089F     		ldr	r7, [sp, #32]
 345              	.LBB117:
 346              	.LBB118:
 347              	.LBB119:
 348              	.LBB120:
 349              	.LBB121:
 350              		.loc 3 342 0
 351              	@ 342 "ChibiOS_3.0.2/os/ext/CMSIS/include/core_cmFunc.h" 1
 352 0008 72B6     		cpsid i
 353              	@ 0 "" 2
 354              		.thumb
 355              	.LBE121:
 356              	.LBE120:
 357              	.LBE119:
 358              	.LBE118:
 359              	.LBE117:
 360              		.loc 1 232 0
 361 000a 0026     		movs	r6, #0
 362              		.loc 1 233 0
 363 000c 0425     		movs	r5, #4
 364              		.loc 1 234 0
 365 000e 0097     		str	r7, [sp]
 366              		.loc 1 232 0
 367 0010 8660     		str	r6, [r0, #8]
 368              		.loc 1 233 0
 369 0012 0570     		strb	r5, [r0]
 370              		.loc 1 234 0
 371 0014 FFF7FEFF 		bl	i2c_lld_master_receive_timeout
 372              	.LVL14:
 373              		.loc 1 235 0
 374 0018 431C     		adds	r3, r0, #1
 375              		.loc 1 236 0
 376 001a 0CBF     		ite	eq
 377 001c 0523     		moveq	r3, #5
 378              		.loc 1 239 0
 379 001e 0223     		movne	r3, #2
 380 0020 2370     		strb	r3, [r4]
 381              	.LBB122:
 382              	.LBB123:
 383              	.LBB124:
 384              	.LBB125:
 385              	.LBB126:
 386              	.LBB127:
 387              		.loc 3 331 0
 388              	@ 331 "ChibiOS_3.0.2/os/ext/CMSIS/include/core_cmFunc.h" 1
 389 0022 62B6     		cpsie i
 390              	@ 0 "" 2
 391              		.thumb
 392              	.LBE127:
 393              	.LBE126:
 394              	.LBE125:
 395              	.LBE124:
 396              	.LBE123:
 397              	.LBE122:
 398              		.loc 1 243 0
 399 0024 03B0     		add	sp, sp, #12
ARM GAS  /tmp/ccT6Lyqs.s 			page 8


 400              		.cfi_def_cfa_offset 20
 401              		@ sp needed
 402 0026 F0BD     		pop	{r4, r5, r6, r7, pc}
 403              		.cfi_endproc
 404              	.LFE262:
 405              		.size	i2cMasterReceiveTimeout, .-i2cMasterReceiveTimeout
 406              		.section	.text.i2cAcquireBus,"ax",%progbits
 407              		.align	2
 408              		.p2align 4,,15
 409              		.global	i2cAcquireBus
 410              		.thumb
 411              		.thumb_func
 412              		.type	i2cAcquireBus, %function
 413              	i2cAcquireBus:
 414              	.LFB263:
 415              		.loc 1 257 0
 416              		.cfi_startproc
 417              		@ args = 0, pretend = 0, frame = 0
 418              		@ frame_needed = 0, uses_anonymous_args = 0
 419              		@ link register save eliminated.
 420              	.LVL15:
 421              	.LBB128:
 422              	.LBB129:
 423              		.loc 2 907 0
 424 0000 0C30     		adds	r0, r0, #12
 425              	.LVL16:
 426 0002 FFF7FEBF 		b	chMtxLock
 427              	.LVL17:
 428              	.LBE129:
 429              	.LBE128:
 430              		.cfi_endproc
 431              	.LFE263:
 432              		.size	i2cAcquireBus, .-i2cAcquireBus
 433 0006 00BF     		.section	.text.i2cReleaseBus,"ax",%progbits
 434              		.align	2
 435              		.p2align 4,,15
 436              		.global	i2cReleaseBus
 437              		.thumb
 438              		.thumb_func
 439              		.type	i2cReleaseBus, %function
 440              	i2cReleaseBus:
 441              	.LFB264:
 442              		.loc 1 273 0
 443              		.cfi_startproc
 444              		@ args = 0, pretend = 0, frame = 0
 445              		@ frame_needed = 0, uses_anonymous_args = 0
 446              		@ link register save eliminated.
 447              	.LVL18:
 448              	.LBB130:
 449              	.LBB131:
 450              		.loc 2 931 0
 451 0000 0C30     		adds	r0, r0, #12
 452              	.LVL19:
 453 0002 FFF7FEBF 		b	chMtxUnlock
 454              	.LVL20:
 455              	.LBE131:
 456              	.LBE130:
ARM GAS  /tmp/ccT6Lyqs.s 			page 9


 457              		.cfi_endproc
 458              	.LFE264:
 459              		.size	i2cReleaseBus, .-i2cReleaseBus
 460 0006 00BF     		.text
 461              	.Letext0:
 462              		.file 4 "/usr/lib/gcc/arm-none-eabi/4.9.3/include/stddef.h"
 463              		.file 5 "/usr/arm-none-eabi/include/machine/_default_types.h"
 464              		.file 6 "/usr/arm-none-eabi/include/sys/_stdint.h"
 465              		.file 7 "ChibiOS_3.0.2/os/rt/ports/ARMCMx/compilers/GCC/chtypes.h"
 466              		.file 8 "ChibiOS_3.0.2/os/rt/include/chsystypes.h"
 467              		.file 9 "ChibiOS_3.0.2/os/rt/include/chschd.h"
 468              		.file 10 "ChibiOS_3.0.2/os/ext/CMSIS/ST/stm32f407xx.h"
 469              		.file 11 "ChibiOS_3.0.2/os/rt/ports/ARMCMx/chcore.h"
 470              		.file 12 "ChibiOS_3.0.2/os/rt/ports/ARMCMx/chcore_v7m.h"
 471              		.file 13 "ChibiOS_3.0.2/os/rt/include/chtm.h"
 472              		.file 14 "ChibiOS_3.0.2/os/rt/include/chsem.h"
 473              		.file 15 "ChibiOS_3.0.2/os/rt/include/chmtx.h"
 474              		.file 16 "ChibiOS_3.0.2/os/hal/ports/STM32/STM32F4xx/stm32_dma.h"
 475              		.file 17 "ChibiOS_3.0.2/os/hal/include/i2c.h"
 476              		.file 18 "ChibiOS_3.0.2/os/hal/ports/STM32/LLD/I2Cv1/i2c_lld.h"
 477              		.file 19 "ChibiOS_3.0.2/os/rt/include/chsys.h"
 478              		.file 20 "ChibiOS_3.0.2/os/ext/CMSIS/include/core_cm4.h"