ARM GAS  /tmp/ccYcUUw4.s 			page 1


   1              		.syntax unified
   2              		.cpu cortex-m4
   3              		.eabi_attribute 27, 1
   4              		.eabi_attribute 28, 1
   5              		.fpu fpv4-sp-d16
   6              		.eabi_attribute 20, 1
   7              		.eabi_attribute 21, 1
   8              		.eabi_attribute 23, 3
   9              		.eabi_attribute 24, 1
  10              		.eabi_attribute 25, 1
  11              		.eabi_attribute 26, 1
  12              		.eabi_attribute 30, 2
  13              		.eabi_attribute 34, 1
  14              		.eabi_attribute 18, 4
  15              		.thumb
  16              		.file	"led.c"
  17              		.text
  18              	.Ltext0:
  19              		.cfi_sections	.debug_frame
  20              		.section	.text.led_init,"ax",%progbits
  21              		.align	2
  22              		.p2align 4,,15
  23              		.global	led_init
  24              		.thumb
  25              		.thumb_func
  26              		.type	led_init, %function
  27              	led_init:
  28              	.LFB256:
  29              		.file 1 "led.c"
  30              		.loc 1 22 0
  31              		.cfi_startproc
  32              		@ args = 0, pretend = 0, frame = 0
  33              		@ frame_needed = 0, uses_anonymous_args = 0
  34 0000 10B5     		push	{r4, lr}
  35              		.cfi_def_cfa_offset 8
  36              		.cfi_offset 4, -8
  37              		.cfi_offset 14, -4
  38              		.loc 1 23 0
  39 0002 094C     		ldr	r4, .L3
  40 0004 0221     		movs	r1, #2
  41 0006 2046     		mov	r0, r4
  42 0008 1922     		movs	r2, #25
  43 000a FFF7FEFF 		bl	_pal_lld_setgroupmode
  44              	.LVL0:
  45              		.loc 1 26 0
  46 000e 1922     		movs	r2, #25
  47 0010 2046     		mov	r0, r4
  48 0012 0421     		movs	r1, #4
  49 0014 FFF7FEFF 		bl	_pal_lld_setgroupmode
  50              	.LVL1:
  51              	.LBB8:
  52              	.LBB9:
  53              	.LBB10:
  54              		.loc 1 37 0
  55 0018 4FF48022 		mov	r2, #262144
  56              	.LBE10:
  57              	.LBE9:
ARM GAS  /tmp/ccYcUUw4.s 			page 2


  58              	.LBE8:
  59              	.LBB13:
  60              	.LBB14:
  61              		.loc 1 41 0
  62 001c 4FF40033 		mov	r3, #131072
  63              	.LBE14:
  64              	.LBE13:
  65              	.LBB16:
  66              	.LBB12:
  67              	.LBB11:
  68              		.loc 1 37 0
  69 0020 A261     		str	r2, [r4, #24]
  70              	.LVL2:
  71              	.LBE11:
  72              	.LBE12:
  73              	.LBE16:
  74              	.LBB17:
  75              	.LBB15:
  76              		.loc 1 41 0
  77 0022 A361     		str	r3, [r4, #24]
  78 0024 10BD     		pop	{r4, pc}
  79              	.L4:
  80 0026 00BF     		.align	2
  81              	.L3:
  82 0028 00000240 		.word	1073872896
  83              	.LBE15:
  84              	.LBE17:
  85              		.cfi_endproc
  86              	.LFE256:
  87              		.size	led_init, .-led_init
  88              		.section	.text.led_write,"ax",%progbits
  89              		.align	2
  90              		.p2align 4,,15
  91              		.global	led_write
  92              		.thumb
  93              		.thumb_func
  94              		.type	led_write, %function
  95              	led_write:
  96              	.LFB257:
  97              		.loc 1 34 0
  98              		.cfi_startproc
  99              		@ args = 0, pretend = 0, frame = 0
 100              		@ frame_needed = 0, uses_anonymous_args = 0
 101              		@ link register save eliminated.
 102              	.LVL3:
 103              		.loc 1 35 0
 104 0000 68B1     		cbz	r0, .L7
 105 0002 0128     		cmp	r0, #1
 106 0004 0AD1     		bne	.L14
 107              		.loc 1 41 0
 108 0006 11F00101 		ands	r1, r1, #1
 109              	.LVL4:
 110 000a 0CBF     		ite	eq
 111 000c 4FF40033 		moveq	r3, #131072
 112 0010 0023     		movne	r3, #0
 113 0012 084A     		ldr	r2, .L15
 114 0014 43EA4101 		orr	r1, r3, r1, lsl #1
ARM GAS  /tmp/ccYcUUw4.s 			page 3


 115 0018 9161     		str	r1, [r2, #24]
 116 001a 7047     		bx	lr
 117              	.LVL5:
 118              	.L14:
 119 001c 7047     		bx	lr
 120              	.L7:
 121              	.LVL6:
 122              	.LBB20:
 123              	.LBB21:
 124              		.loc 1 37 0
 125 001e 11F00101 		ands	r1, r1, #1
 126              	.LVL7:
 127 0022 0CBF     		ite	eq
 128 0024 4FF48023 		moveq	r3, #262144
 129 0028 0023     		movne	r3, #0
 130 002a 024A     		ldr	r2, .L15
 131 002c 43EA8101 		orr	r1, r3, r1, lsl #2
 132 0030 9161     		str	r1, [r2, #24]
 133 0032 7047     		bx	lr
 134              	.L16:
 135              		.align	2
 136              	.L15:
 137 0034 00000240 		.word	1073872896
 138              	.LBE21:
 139              	.LBE20:
 140              		.cfi_endproc
 141              	.LFE257:
 142              		.size	led_write, .-led_write
 143              		.section	.text.led_toggle,"ax",%progbits
 144              		.align	2
 145              		.p2align 4,,15
 146              		.global	led_toggle
 147              		.thumb
 148              		.thumb_func
 149              		.type	led_toggle, %function
 150              	led_toggle:
 151              	.LFB258:
 152              		.loc 1 49 0
 153              		.cfi_startproc
 154              		@ args = 0, pretend = 0, frame = 0
 155              		@ frame_needed = 0, uses_anonymous_args = 0
 156              		@ link register save eliminated.
 157              	.LVL8:
 158              		.loc 1 50 0
 159 0000 40B1     		cbz	r0, .L19
 160 0002 0128     		cmp	r0, #1
 161 0004 05D1     		bne	.L21
 162              		.loc 1 56 0
 163 0006 064A     		ldr	r2, .L22
 164 0008 5369     		ldr	r3, [r2, #20]
 165 000a 83F00203 		eor	r3, r3, #2
 166 000e 5361     		str	r3, [r2, #20]
 167 0010 7047     		bx	lr
 168              	.L21:
 169 0012 7047     		bx	lr
 170              	.L19:
 171              		.loc 1 52 0
ARM GAS  /tmp/ccYcUUw4.s 			page 4


 172 0014 024A     		ldr	r2, .L22
 173 0016 5369     		ldr	r3, [r2, #20]
 174 0018 83F00403 		eor	r3, r3, #4
 175 001c 5361     		str	r3, [r2, #20]
 176              		.loc 1 53 0
 177 001e 7047     		bx	lr
 178              	.L23:
 179              		.align	2
 180              	.L22:
 181 0020 00000240 		.word	1073872896
 182              		.cfi_endproc
 183              	.LFE258:
 184              		.size	led_toggle, .-led_toggle
 185              		.text
 186              	.Letext0:
 187              		.file 2 "/usr/arm-none-eabi/include/machine/_default_types.h"
 188              		.file 3 "/usr/arm-none-eabi/include/sys/_stdint.h"
 189              		.file 4 "ChibiOS_3.0.2/os/rt/ports/ARMCMx/compilers/GCC/chtypes.h"
 190              		.file 5 "ChibiOS_3.0.2/os/rt/include/chsystypes.h"
 191              		.file 6 "ChibiOS_3.0.2/os/rt/include/chschd.h"
 192              		.file 7 "ChibiOS_3.0.2/os/rt/ports/ARMCMx/chcore.h"
 193              		.file 8 "ChibiOS_3.0.2/os/rt/ports/ARMCMx/chcore_v7m.h"
 194              		.file 9 "ChibiOS_3.0.2/os/rt/include/chtm.h"
 195              		.file 10 "ChibiOS_3.0.2/os/rt/include/chsem.h"
 196              		.file 11 "ChibiOS_3.0.2/os/rt/include/chmtx.h"
 197              		.file 12 "ChibiOS_3.0.2/os/hal/ports/STM32/LLD/GPIOv2/pal_lld.h"
 198              		.file 13 "ChibiOS_3.0.2/os/ext/CMSIS/include/core_cm4.h"