ARM GAS  /tmp/ccYG7R7g.s 			page 1


   1              		.syntax unified
   2              		.cpu cortex-m4
   3              		.eabi_attribute 27, 1
   4              		.eabi_attribute 28, 1
   5              		.fpu fpv4-sp-d16
   6              		.eabi_attribute 20, 1
   7              		.eabi_attribute 21, 1
   8              		.eabi_attribute 23, 3
   9              		.eabi_attribute 24, 1
  10              		.eabi_attribute 25, 1
  11              		.eabi_attribute 26, 1
  12              		.eabi_attribute 30, 2
  13              		.eabi_attribute 34, 1
  14              		.eabi_attribute 18, 4
  15              		.thumb
  16              		.file	"main.c"
  17              		.text
  18              	.Ltext0:
  19              		.cfi_sections	.debug_frame
  20              		.section	.text.startup.main,"ax",%progbits
  21              		.align	2
  22              		.p2align 4,,15
  23              		.global	main
  24              		.thumb
  25              		.thumb_func
  26              		.type	main, %function
  27              	main:
  28              	.LFB257:
  29              		.file 1 "main.c"
  30              		.loc 1 37 0
  31              		.cfi_startproc
  32              		@ Volatile: function does not return.
  33              		@ args = 0, pretend = 0, frame = 0
  34              		@ frame_needed = 0, uses_anonymous_args = 0
  35 0000 08B5     		push	{r3, lr}
  36              		.cfi_def_cfa_offset 8
  37              		.cfi_offset 3, -8
  38              		.cfi_offset 14, -4
  39              		.loc 1 38 0
  40 0002 FFF7FEFF 		bl	halInit
  41              	.LVL0:
  42              		.loc 1 39 0
  43 0006 FFF7FEFF 		bl	chSysInit
  44              	.LVL1:
  45              		.loc 1 41 0
  46 000a FFF7FEFF 		bl	led_init
  47              	.LVL2:
  48              		.loc 1 42 0
  49 000e FFF7FEFF 		bl	ext_cb_init
  50              	.LVL3:
  51              		.loc 1 43 0
  52 0012 FFF7FEFF 		bl	comm_usb_init
  53              	.LVL4:
  54              		.loc 1 44 0
  55 0016 FFF7FEFF 		bl	comm_cc2520_init
  56              	.LVL5:
  57              	.L2:
ARM GAS  /tmp/ccYG7R7g.s 			page 2


  58              		.loc 1 47 0 discriminator 1
  59 001a 1420     		movs	r0, #20
  60 001c FFF7FEFF 		bl	chThdSleep
  61              	.LVL6:
  62              		.loc 1 48 0 discriminator 1
  63 0020 FFF7FEFF 		bl	packet_timerfunc
  64              	.LVL7:
  65              		.loc 1 49 0 discriminator 1
  66 0024 F9E7     		b	.L2
  67              		.cfi_endproc
  68              	.LFE257:
  69              		.size	main, .-main
  70 0026 00BF     		.text
  71              	.Letext0:
  72              		.file 2 "/usr/arm-none-eabi/include/machine/_default_types.h"
  73              		.file 3 "/usr/arm-none-eabi/include/sys/_stdint.h"
  74              		.file 4 "ChibiOS_3.0.2/os/rt/ports/ARMCMx/compilers/GCC/chtypes.h"
  75              		.file 5 "ChibiOS_3.0.2/os/rt/include/chsystypes.h"
  76              		.file 6 "ChibiOS_3.0.2/os/rt/include/chschd.h"
  77              		.file 7 "ChibiOS_3.0.2/os/rt/ports/ARMCMx/chcore.h"
  78              		.file 8 "ChibiOS_3.0.2/os/rt/ports/ARMCMx/chcore_v7m.h"
  79              		.file 9 "ChibiOS_3.0.2/os/rt/include/chtm.h"
  80              		.file 10 "ChibiOS_3.0.2/os/rt/include/chsem.h"
  81              		.file 11 "ChibiOS_3.0.2/os/rt/include/chmtx.h"
  82              		.file 12 "ChibiOS_3.0.2/os/hal/include/hal.h"
  83              		.file 13 "ChibiOS_3.0.2/os/rt/include/chsys.h"
  84              		.file 14 "led.h"
  85              		.file 15 "ext_cb.h"
  86              		.file 16 "comm_usb.h"
  87              		.file 17 "comm_cc2520.h"
  88              		.file 18 "packet.h"
  89              		.file 19 "ChibiOS_3.0.2/os/ext/CMSIS/include/core_cm4.h"
  90              		.file 20 "ChibiOS_3.0.2/os/rt/include/chthreads.h"
  91              		.section	.debug_info,"",%progbits
  92              	.Ldebug_info0:
  93 0000 E8070000 		.4byte	0x7e8
  94 0004 0400     		.2byte	0x4
  95 0006 00000000 		.4byte	.Ldebug_abbrev0
  96 000a 04       		.byte	0x4
  97 000b 01       		.uleb128 0x1
  98 000c 9E040000 		.4byte	.LASF116
  99 0010 01       		.byte	0x1
 100 0011 07020000 		.4byte	.LASF117
 101 0015 F9020000 		.4byte	.LASF118
 102 0019 00000000 		.4byte	.Ldebug_ranges0+0
 103 001d 00000000 		.4byte	0
 104 0021 00000000 		.4byte	.Ldebug_line0
 105 0025 02       		.uleb128 0x2
 106 0026 01       		.byte	0x1
 107 0027 06       		.byte	0x6
 108 0028 BC000000 		.4byte	.LASF0
 109 002c 03       		.uleb128 0x3
 110 002d 34000000 		.4byte	.LASF4
 111 0031 02       		.byte	0x2
 112 0032 1D       		.byte	0x1d
 113 0033 37000000 		.4byte	0x37
 114 0037 02       		.uleb128 0x2
ARM GAS  /tmp/ccYG7R7g.s 			page 3


 115 0038 01       		.byte	0x1
 116 0039 08       		.byte	0x8
 117 003a 44030000 		.4byte	.LASF1
 118 003e 02       		.uleb128 0x2
 119 003f 02       		.byte	0x2
 120 0040 05       		.byte	0x5
 121 0041 5C030000 		.4byte	.LASF2
 122 0045 02       		.uleb128 0x2
 123 0046 02       		.byte	0x2
 124 0047 07       		.byte	0x7
 125 0048 D8010000 		.4byte	.LASF3
 126 004c 03       		.uleb128 0x3
 127 004d 30020000 		.4byte	.LASF5
 128 0051 02       		.byte	0x2
 129 0052 3F       		.byte	0x3f
 130 0053 57000000 		.4byte	0x57
 131 0057 02       		.uleb128 0x2
 132 0058 04       		.byte	0x4
 133 0059 05       		.byte	0x5
 134 005a 0F010000 		.4byte	.LASF6
 135 005e 03       		.uleb128 0x3
 136 005f 40040000 		.4byte	.LASF7
 137 0063 02       		.byte	0x2
 138 0064 41       		.byte	0x41
 139 0065 69000000 		.4byte	0x69
 140 0069 02       		.uleb128 0x2
 141 006a 04       		.byte	0x4
 142 006b 07       		.byte	0x7
 143 006c D2000000 		.4byte	.LASF8
 144 0070 02       		.uleb128 0x2
 145 0071 08       		.byte	0x8
 146 0072 05       		.byte	0x5
 147 0073 AE000000 		.4byte	.LASF9
 148 0077 03       		.uleb128 0x3
 149 0078 C1020000 		.4byte	.LASF10
 150 007c 02       		.byte	0x2
 151 007d 5B       		.byte	0x5b
 152 007e 82000000 		.4byte	0x82
 153 0082 02       		.uleb128 0x2
 154 0083 08       		.byte	0x8
 155 0084 07       		.byte	0x7
 156 0085 51000000 		.4byte	.LASF11
 157 0089 04       		.uleb128 0x4
 158 008a 04       		.byte	0x4
 159 008b 05       		.byte	0x5
 160 008c 696E7400 		.ascii	"int\000"
 161 0090 02       		.uleb128 0x2
 162 0091 04       		.byte	0x4
 163 0092 07       		.byte	0x7
 164 0093 80010000 		.4byte	.LASF12
 165 0097 03       		.uleb128 0x3
 166 0098 8D040000 		.4byte	.LASF13
 167 009c 03       		.byte	0x3
 168 009d 14       		.byte	0x14
 169 009e 2C000000 		.4byte	0x2c
 170 00a2 03       		.uleb128 0x3
 171 00a3 3C030000 		.4byte	.LASF14
ARM GAS  /tmp/ccYG7R7g.s 			page 4


 172 00a7 03       		.byte	0x3
 173 00a8 1F       		.byte	0x1f
 174 00a9 4C000000 		.4byte	0x4c
 175 00ad 03       		.uleb128 0x3
 176 00ae CE030000 		.4byte	.LASF15
 177 00b2 03       		.byte	0x3
 178 00b3 20       		.byte	0x20
 179 00b4 5E000000 		.4byte	0x5e
 180 00b8 03       		.uleb128 0x3
 181 00b9 1A000000 		.4byte	.LASF16
 182 00bd 03       		.byte	0x3
 183 00be 26       		.byte	0x26
 184 00bf 77000000 		.4byte	0x77
 185 00c3 02       		.uleb128 0x2
 186 00c4 04       		.byte	0x4
 187 00c5 04       		.byte	0x4
 188 00c6 CC020000 		.4byte	.LASF17
 189 00ca 05       		.uleb128 0x5
 190 00cb A2000000 		.4byte	0xa2
 191 00cf 03       		.uleb128 0x3
 192 00d0 45020000 		.4byte	.LASF18
 193 00d4 04       		.byte	0x4
 194 00d5 45       		.byte	0x45
 195 00d6 AD000000 		.4byte	0xad
 196 00da 03       		.uleb128 0x3
 197 00db 0E020000 		.4byte	.LASF19
 198 00df 04       		.byte	0x4
 199 00e0 48       		.byte	0x48
 200 00e1 97000000 		.4byte	0x97
 201 00e5 03       		.uleb128 0x3
 202 00e6 18010000 		.4byte	.LASF20
 203 00ea 04       		.byte	0x4
 204 00eb 49       		.byte	0x49
 205 00ec 97000000 		.4byte	0x97
 206 00f0 03       		.uleb128 0x3
 207 00f1 D2020000 		.4byte	.LASF21
 208 00f5 04       		.byte	0x4
 209 00f6 4A       		.byte	0x4a
 210 00f7 97000000 		.4byte	0x97
 211 00fb 03       		.uleb128 0x3
 212 00fc FB000000 		.4byte	.LASF22
 213 0100 04       		.byte	0x4
 214 0101 4B       		.byte	0x4b
 215 0102 97000000 		.4byte	0x97
 216 0106 03       		.uleb128 0x3
 217 0107 F1020000 		.4byte	.LASF23
 218 010b 04       		.byte	0x4
 219 010c 4C       		.byte	0x4c
 220 010d AD000000 		.4byte	0xad
 221 0111 03       		.uleb128 0x3
 222 0112 F5010000 		.4byte	.LASF24
 223 0116 04       		.byte	0x4
 224 0117 4D       		.byte	0x4d
 225 0118 A2000000 		.4byte	0xa2
 226 011c 03       		.uleb128 0x3
 227 011d 24020000 		.4byte	.LASF25
 228 0121 04       		.byte	0x4
ARM GAS  /tmp/ccYG7R7g.s 			page 5


 229 0122 4F       		.byte	0x4f
 230 0123 AD000000 		.4byte	0xad
 231 0127 03       		.uleb128 0x3
 232 0128 7A010000 		.4byte	.LASF26
 233 012c 04       		.byte	0x4
 234 012d 51       		.byte	0x51
 235 012e A2000000 		.4byte	0xa2
 236 0132 03       		.uleb128 0x3
 237 0133 22040000 		.4byte	.LASF27
 238 0137 05       		.byte	0x5
 239 0138 33       		.byte	0x33
 240 0139 AD000000 		.4byte	0xad
 241 013d 03       		.uleb128 0x3
 242 013e 12040000 		.4byte	.LASF28
 243 0142 05       		.byte	0x5
 244 0143 3F       		.byte	0x3f
 245 0144 48010000 		.4byte	0x148
 246 0148 06       		.uleb128 0x6
 247 0149 EB010000 		.4byte	.LASF50
 248 014d 48       		.byte	0x48
 249 014e 06       		.byte	0x6
 250 014f C2       		.byte	0xc2
 251 0150 4D020000 		.4byte	0x24d
 252 0154 07       		.uleb128 0x7
 253 0155 86030000 		.4byte	.LASF29
 254 0159 06       		.byte	0x6
 255 015a C3       		.byte	0xc3
 256 015b 58020000 		.4byte	0x258
 257 015f 00       		.byte	0
 258 0160 07       		.uleb128 0x7
 259 0161 EA020000 		.4byte	.LASF30
 260 0165 06       		.byte	0x6
 261 0166 C5       		.byte	0xc5
 262 0167 58020000 		.4byte	0x258
 263 016b 04       		.byte	0x4
 264 016c 07       		.uleb128 0x7
 265 016d A7000000 		.4byte	.LASF31
 266 0171 06       		.byte	0x6
 267 0172 C7       		.byte	0xc7
 268 0173 06010000 		.4byte	0x106
 269 0177 08       		.byte	0x8
 270 0178 07       		.uleb128 0x7
 271 0179 FB050000 		.4byte	.LASF32
 272 017d 06       		.byte	0x6
 273 017e C8       		.byte	0xc8
 274 017f 88040000 		.4byte	0x488
 275 0183 0C       		.byte	0xc
 276 0184 07       		.uleb128 0x7
 277 0185 21010000 		.4byte	.LASF33
 278 0189 06       		.byte	0x6
 279 018a CA       		.byte	0xca
 280 018b 58020000 		.4byte	0x258
 281 018f 10       		.byte	0x10
 282 0190 07       		.uleb128 0x7
 283 0191 90020000 		.4byte	.LASF34
 284 0195 06       		.byte	0x6
 285 0196 CB       		.byte	0xcb
ARM GAS  /tmp/ccYG7R7g.s 			page 6


 286 0197 58020000 		.4byte	0x258
 287 019b 14       		.byte	0x14
 288 019c 07       		.uleb128 0x7
 289 019d CB050000 		.4byte	.LASF35
 290 01a1 06       		.byte	0x6
 291 01a2 D2       		.byte	0xd2
 292 01a3 CD060000 		.4byte	0x6cd
 293 01a7 18       		.byte	0x18
 294 01a8 07       		.uleb128 0x7
 295 01a9 66030000 		.4byte	.LASF36
 296 01ad 06       		.byte	0x6
 297 01ae DD       		.byte	0xdd
 298 01af E5000000 		.4byte	0xe5
 299 01b3 1C       		.byte	0x1c
 300 01b4 07       		.uleb128 0x7
 301 01b5 8D030000 		.4byte	.LASF37
 302 01b9 06       		.byte	0x6
 303 01ba E1       		.byte	0xe1
 304 01bb DA000000 		.4byte	0xda
 305 01bf 1D       		.byte	0x1d
 306 01c0 07       		.uleb128 0x7
 307 01c1 80040000 		.4byte	.LASF38
 308 01c5 06       		.byte	0x6
 309 01c6 E6       		.byte	0xe6
 310 01c7 F0000000 		.4byte	0xf0
 311 01cb 1E       		.byte	0x1e
 312 01cc 07       		.uleb128 0x7
 313 01cd 6E030000 		.4byte	.LASF39
 314 01d1 06       		.byte	0x6
 315 01d2 EC       		.byte	0xec
 316 01d3 FB000000 		.4byte	0xfb
 317 01d7 1F       		.byte	0x1f
 318 01d8 07       		.uleb128 0x7
 319 01d9 5C040000 		.4byte	.LASF40
 320 01dd 06       		.byte	0x6
 321 01de F3       		.byte	0xf3
 322 01df DF060000 		.4byte	0x6df
 323 01e3 20       		.byte	0x20
 324 01e4 08       		.uleb128 0x8
 325 01e5 705F7500 		.ascii	"p_u\000"
 326 01e9 06       		.byte	0x6
 327 01ea 3101     		.2byte	0x131
 328 01ec 08060000 		.4byte	0x608
 329 01f0 24       		.byte	0x24
 330 01f1 09       		.uleb128 0x9
 331 01f2 01060000 		.4byte	.LASF41
 332 01f6 06       		.byte	0x6
 333 01f7 3601     		.2byte	0x136
 334 01f9 5E020000 		.4byte	0x25e
 335 01fd 28       		.byte	0x28
 336 01fe 09       		.uleb128 0x9
 337 01ff 63040000 		.4byte	.LASF42
 338 0203 06       		.byte	0x6
 339 0204 3C01     		.2byte	0x13c
 340 0206 82020000 		.4byte	0x282
 341 020a 2C       		.byte	0x2c
 342 020b 09       		.uleb128 0x9
ARM GAS  /tmp/ccYG7R7g.s 			page 7


 343 020c E1050000 		.4byte	.LASF43
 344 0210 06       		.byte	0x6
 345 0211 4001     		.2byte	0x140
 346 0213 11010000 		.4byte	0x111
 347 0217 34       		.byte	0x34
 348 0218 09       		.uleb128 0x9
 349 0219 C3030000 		.4byte	.LASF44
 350 021d 06       		.byte	0x6
 351 021e 4601     		.2byte	0x146
 352 0220 1C010000 		.4byte	0x11c
 353 0224 38       		.byte	0x38
 354 0225 09       		.uleb128 0x9
 355 0226 52030000 		.4byte	.LASF45
 356 022a 06       		.byte	0x6
 357 022b 4D01     		.2byte	0x14d
 358 022d C7060000 		.4byte	0x6c7
 359 0231 3C       		.byte	0x3c
 360 0232 09       		.uleb128 0x9
 361 0233 2C040000 		.4byte	.LASF46
 362 0237 06       		.byte	0x6
 363 0238 5101     		.2byte	0x151
 364 023a 06010000 		.4byte	0x106
 365 023e 40       		.byte	0x40
 366 023f 09       		.uleb128 0x9
 367 0240 E4000000 		.4byte	.LASF47
 368 0244 06       		.byte	0x6
 369 0245 5801     		.2byte	0x158
 370 0247 35030000 		.4byte	0x335
 371 024b 44       		.byte	0x44
 372 024c 00       		.byte	0
 373 024d 03       		.uleb128 0x3
 374 024e 4D020000 		.4byte	.LASF48
 375 0252 05       		.byte	0x5
 376 0253 44       		.byte	0x44
 377 0254 58020000 		.4byte	0x258
 378 0258 0A       		.uleb128 0xa
 379 0259 04       		.byte	0x4
 380 025a 3D010000 		.4byte	0x13d
 381 025e 03       		.uleb128 0x3
 382 025f D2050000 		.4byte	.LASF49
 383 0263 05       		.byte	0x5
 384 0264 49       		.byte	0x49
 385 0265 69020000 		.4byte	0x269
 386 0269 06       		.uleb128 0x6
 387 026a F1030000 		.4byte	.LASF51
 388 026e 04       		.byte	0x4
 389 026f 06       		.byte	0x6
 390 0270 B0       		.byte	0xb0
 391 0271 82020000 		.4byte	0x282
 392 0275 07       		.uleb128 0x7
 393 0276 86030000 		.4byte	.LASF29
 394 027a 06       		.byte	0x6
 395 027b B1       		.byte	0xb1
 396 027c 58020000 		.4byte	0x258
 397 0280 00       		.byte	0
 398 0281 00       		.byte	0
 399 0282 03       		.uleb128 0x3
ARM GAS  /tmp/ccYG7R7g.s 			page 8


 400 0283 95030000 		.4byte	.LASF52
 401 0287 05       		.byte	0x5
 402 0288 50       		.byte	0x50
 403 0289 8D020000 		.4byte	0x28d
 404 028d 06       		.uleb128 0x6
 405 028e 96000000 		.4byte	.LASF53
 406 0292 08       		.byte	0x8
 407 0293 06       		.byte	0x6
 408 0294 B7       		.byte	0xb7
 409 0295 B2020000 		.4byte	0x2b2
 410 0299 07       		.uleb128 0x7
 411 029a 86030000 		.4byte	.LASF29
 412 029e 06       		.byte	0x6
 413 029f B8       		.byte	0xb8
 414 02a0 58020000 		.4byte	0x258
 415 02a4 00       		.byte	0
 416 02a5 07       		.uleb128 0x7
 417 02a6 EA020000 		.4byte	.LASF30
 418 02aa 06       		.byte	0x6
 419 02ab B9       		.byte	0xb9
 420 02ac 58020000 		.4byte	0x258
 421 02b0 04       		.byte	0x4
 422 02b1 00       		.byte	0
 423 02b2 03       		.uleb128 0x3
 424 02b3 00000000 		.4byte	.LASF54
 425 02b7 05       		.byte	0x5
 426 02b8 57       		.byte	0x57
 427 02b9 BD020000 		.4byte	0x2bd
 428 02bd 0B       		.uleb128 0xb
 429 02be 16020000 		.4byte	.LASF55
 430 02c2 1C       		.byte	0x1c
 431 02c3 06       		.byte	0x6
 432 02c4 9001     		.2byte	0x190
 433 02c6 19030000 		.4byte	0x319
 434 02ca 09       		.uleb128 0x9
 435 02cb DE030000 		.4byte	.LASF56
 436 02cf 06       		.byte	0x6
 437 02d0 9101     		.2byte	0x191
 438 02d2 82020000 		.4byte	0x282
 439 02d6 00       		.byte	0
 440 02d7 09       		.uleb128 0x9
 441 02d8 78030000 		.4byte	.LASF57
 442 02dc 06       		.byte	0x6
 443 02dd 9201     		.2byte	0x192
 444 02df 06010000 		.4byte	0x106
 445 02e3 08       		.byte	0x8
 446 02e4 09       		.uleb128 0x9
 447 02e5 98020000 		.4byte	.LASF58
 448 02e9 06       		.byte	0x6
 449 02ea 9401     		.2byte	0x194
 450 02ec 88040000 		.4byte	0x488
 451 02f0 0C       		.byte	0xc
 452 02f1 09       		.uleb128 0x9
 453 02f2 3A010000 		.4byte	.LASF59
 454 02f6 06       		.byte	0x6
 455 02f7 9701     		.2byte	0x197
 456 02f9 58020000 		.4byte	0x258
ARM GAS  /tmp/ccYG7R7g.s 			page 9


 457 02fd 10       		.byte	0x10
 458 02fe 09       		.uleb128 0x9
 459 02ff B9020000 		.4byte	.LASF60
 460 0303 06       		.byte	0x6
 461 0304 9801     		.2byte	0x198
 462 0306 58020000 		.4byte	0x258
 463 030a 14       		.byte	0x14
 464 030b 09       		.uleb128 0x9
 465 030c AF020000 		.4byte	.LASF61
 466 0310 06       		.byte	0x6
 467 0311 9B01     		.2byte	0x19b
 468 0313 58020000 		.4byte	0x258
 469 0317 18       		.byte	0x18
 470 0318 00       		.byte	0
 471 0319 03       		.uleb128 0x3
 472 031a 37040000 		.4byte	.LASF62
 473 031e 05       		.byte	0x5
 474 031f 5C       		.byte	0x5c
 475 0320 24030000 		.4byte	0x324
 476 0324 0A       		.uleb128 0xa
 477 0325 04       		.byte	0x4
 478 0326 2A030000 		.4byte	0x32a
 479 032a 0C       		.uleb128 0xc
 480 032b 35030000 		.4byte	0x335
 481 032f 0D       		.uleb128 0xd
 482 0330 35030000 		.4byte	0x335
 483 0334 00       		.byte	0
 484 0335 0E       		.uleb128 0xe
 485 0336 04       		.byte	0x4
 486 0337 03       		.uleb128 0x3
 487 0338 DA020000 		.4byte	.LASF63
 488 033c 05       		.byte	0x5
 489 033d 61       		.byte	0x61
 490 033e 42030000 		.4byte	0x342
 491 0342 0B       		.uleb128 0xb
 492 0343 A5030000 		.4byte	.LASF64
 493 0347 14       		.byte	0x14
 494 0348 06       		.byte	0x6
 495 0349 6B01     		.2byte	0x16b
 496 034b 91030000 		.4byte	0x391
 497 034f 09       		.uleb128 0x9
 498 0350 8D010000 		.4byte	.LASF65
 499 0354 06       		.byte	0x6
 500 0355 6C01     		.2byte	0x16c
 501 0357 E4060000 		.4byte	0x6e4
 502 035b 00       		.byte	0
 503 035c 09       		.uleb128 0x9
 504 035d 4B010000 		.4byte	.LASF66
 505 0361 06       		.byte	0x6
 506 0362 6D01     		.2byte	0x16d
 507 0364 E4060000 		.4byte	0x6e4
 508 0368 04       		.byte	0x4
 509 0369 09       		.uleb128 0x9
 510 036a AA010000 		.4byte	.LASF67
 511 036e 06       		.byte	0x6
 512 036f 6E01     		.2byte	0x16e
 513 0371 32010000 		.4byte	0x132
ARM GAS  /tmp/ccYG7R7g.s 			page 10


 514 0375 08       		.byte	0x8
 515 0376 09       		.uleb128 0x9
 516 0377 77020000 		.4byte	.LASF68
 517 037b 06       		.byte	0x6
 518 037c 6F01     		.2byte	0x16f
 519 037e 19030000 		.4byte	0x319
 520 0382 0C       		.byte	0xc
 521 0383 09       		.uleb128 0x9
 522 0384 6E040000 		.4byte	.LASF69
 523 0388 06       		.byte	0x6
 524 0389 7101     		.2byte	0x171
 525 038b 35030000 		.4byte	0x335
 526 038f 10       		.byte	0x10
 527 0390 00       		.byte	0
 528 0391 03       		.uleb128 0x3
 529 0392 73000000 		.4byte	.LASF70
 530 0396 05       		.byte	0x5
 531 0397 66       		.byte	0x66
 532 0398 9C030000 		.4byte	0x39c
 533 039c 0B       		.uleb128 0xb
 534 039d 60020000 		.4byte	.LASF71
 535 03a1 10       		.byte	0x10
 536 03a2 06       		.byte	0x6
 537 03a3 7B01     		.2byte	0x17b
 538 03a5 DE030000 		.4byte	0x3de
 539 03a9 09       		.uleb128 0x9
 540 03aa 8D010000 		.4byte	.LASF65
 541 03ae 06       		.byte	0x6
 542 03af 7C01     		.2byte	0x17c
 543 03b1 E4060000 		.4byte	0x6e4
 544 03b5 00       		.byte	0
 545 03b6 09       		.uleb128 0x9
 546 03b7 4B010000 		.4byte	.LASF66
 547 03bb 06       		.byte	0x6
 548 03bc 7E01     		.2byte	0x17e
 549 03be E4060000 		.4byte	0x6e4
 550 03c2 04       		.byte	0x4
 551 03c3 09       		.uleb128 0x9
 552 03c4 AA010000 		.4byte	.LASF67
 553 03c8 06       		.byte	0x6
 554 03c9 8001     		.2byte	0x180
 555 03cb 32010000 		.4byte	0x132
 556 03cf 08       		.byte	0x8
 557 03d0 09       		.uleb128 0x9
 558 03d1 E6030000 		.4byte	.LASF72
 559 03d5 06       		.byte	0x6
 560 03d6 8201     		.2byte	0x182
 561 03d8 DF060000 		.4byte	0x6df
 562 03dc 0C       		.byte	0xc
 563 03dd 00       		.byte	0
 564 03de 03       		.uleb128 0x3
 565 03df B3010000 		.4byte	.LASF73
 566 03e3 05       		.byte	0x5
 567 03e4 6B       		.byte	0x6b
 568 03e5 E9030000 		.4byte	0x3e9
 569 03e9 0B       		.uleb128 0xb
 570 03ea 53010000 		.4byte	.LASF74
ARM GAS  /tmp/ccYG7R7g.s 			page 11


 571 03ee 04       		.byte	0x4
 572 03ef 06       		.byte	0x6
 573 03f0 A201     		.2byte	0x1a2
 574 03f2 04040000 		.4byte	0x404
 575 03f6 09       		.uleb128 0x9
 576 03f7 4B040000 		.4byte	.LASF75
 577 03fb 06       		.byte	0x6
 578 03fc AA01     		.2byte	0x1aa
 579 03fe EA060000 		.4byte	0x6ea
 580 0402 00       		.byte	0
 581 0403 00       		.byte	0
 582 0404 03       		.uleb128 0x3
 583 0405 FB010000 		.4byte	.LASF76
 584 0409 05       		.byte	0x5
 585 040a 70       		.byte	0x70
 586 040b 0F040000 		.4byte	0x40f
 587 040f 0F       		.uleb128 0xf
 588 0410 05010000 		.4byte	.LASF77
 589 0414 5802     		.2byte	0x258
 590 0416 06       		.byte	0x6
 591 0417 C201     		.2byte	0x1c2
 592 0419 6B040000 		.4byte	0x46b
 593 041d 09       		.uleb128 0x9
 594 041e 87040000 		.4byte	.LASF78
 595 0422 06       		.byte	0x6
 596 0423 C601     		.2byte	0x1c6
 597 0425 B2020000 		.4byte	0x2b2
 598 0429 00       		.byte	0
 599 042a 09       		.uleb128 0x9
 600 042b 4A000000 		.4byte	.LASF79
 601 042f 06       		.byte	0x6
 602 0430 CA01     		.2byte	0x1ca
 603 0432 91030000 		.4byte	0x391
 604 0436 1C       		.byte	0x1c
 605 0437 08       		.uleb128 0x8
 606 0438 64626700 		.ascii	"dbg\000"
 607 043c 06       		.byte	0x6
 608 043d CE01     		.2byte	0x1ce
 609 043f DE030000 		.4byte	0x3de
 610 0443 2C       		.byte	0x2c
 611 0444 09       		.uleb128 0x9
 612 0445 68000000 		.4byte	.LASF80
 613 0449 06       		.byte	0x6
 614 044a D201     		.2byte	0x1d2
 615 044c 3D010000 		.4byte	0x13d
 616 0450 30       		.byte	0x30
 617 0451 08       		.uleb128 0x8
 618 0452 746D00   		.ascii	"tm\000"
 619 0455 06       		.byte	0x6
 620 0456 D701     		.2byte	0x1d7
 621 0458 FD050000 		.4byte	0x5fd
 622 045c 78       		.byte	0x78
 623 045d 09       		.uleb128 0x9
 624 045e 6B010000 		.4byte	.LASF81
 625 0462 06       		.byte	0x6
 626 0463 E301     		.2byte	0x1e3
 627 0465 EF060000 		.4byte	0x6ef
ARM GAS  /tmp/ccYG7R7g.s 			page 12


 628 0469 80       		.byte	0x80
 629 046a 00       		.byte	0
 630 046b 02       		.uleb128 0x2
 631 046c 04       		.byte	0x4
 632 046d 07       		.byte	0x7
 633 046e 95040000 		.4byte	.LASF82
 634 0472 03       		.uleb128 0x3
 635 0473 42010000 		.4byte	.LASF83
 636 0477 07       		.byte	0x7
 637 0478 65       		.byte	0x65
 638 0479 35030000 		.4byte	0x335
 639 047d 03       		.uleb128 0x3
 640 047e 3A020000 		.4byte	.LASF84
 641 0482 07       		.byte	0x7
 642 0483 6D       		.byte	0x6d
 643 0484 B8000000 		.4byte	0xb8
 644 0488 06       		.uleb128 0x6
 645 0489 D0010000 		.4byte	.LASF85
 646 048d 04       		.byte	0x4
 647 048e 07       		.byte	0x7
 648 048f 89       		.byte	0x89
 649 0490 A1040000 		.4byte	0x4a1
 650 0494 10       		.uleb128 0x10
 651 0495 72313300 		.ascii	"r13\000"
 652 0499 07       		.byte	0x7
 653 049a 8A       		.byte	0x8a
 654 049b E2050000 		.4byte	0x5e2
 655 049f 00       		.byte	0
 656 04a0 00       		.byte	0
 657 04a1 06       		.uleb128 0x6
 658 04a2 3E000000 		.4byte	.LASF86
 659 04a6 64       		.byte	0x64
 660 04a7 08       		.byte	0x8
 661 04a8 F4       		.byte	0xf4
 662 04a9 E2050000 		.4byte	0x5e2
 663 04ad 10       		.uleb128 0x10
 664 04ae 73313600 		.ascii	"s16\000"
 665 04b2 08       		.byte	0x8
 666 04b3 F6       		.byte	0xf6
 667 04b4 72040000 		.4byte	0x472
 668 04b8 00       		.byte	0
 669 04b9 10       		.uleb128 0x10
 670 04ba 73313700 		.ascii	"s17\000"
 671 04be 08       		.byte	0x8
 672 04bf F7       		.byte	0xf7
 673 04c0 72040000 		.4byte	0x472
 674 04c4 04       		.byte	0x4
 675 04c5 10       		.uleb128 0x10
 676 04c6 73313800 		.ascii	"s18\000"
 677 04ca 08       		.byte	0x8
 678 04cb F8       		.byte	0xf8
 679 04cc 72040000 		.4byte	0x472
 680 04d0 08       		.byte	0x8
 681 04d1 10       		.uleb128 0x10
 682 04d2 73313900 		.ascii	"s19\000"
 683 04d6 08       		.byte	0x8
 684 04d7 F9       		.byte	0xf9
ARM GAS  /tmp/ccYG7R7g.s 			page 13


 685 04d8 72040000 		.4byte	0x472
 686 04dc 0C       		.byte	0xc
 687 04dd 10       		.uleb128 0x10
 688 04de 73323000 		.ascii	"s20\000"
 689 04e2 08       		.byte	0x8
 690 04e3 FA       		.byte	0xfa
 691 04e4 72040000 		.4byte	0x472
 692 04e8 10       		.byte	0x10
 693 04e9 10       		.uleb128 0x10
 694 04ea 73323100 		.ascii	"s21\000"
 695 04ee 08       		.byte	0x8
 696 04ef FB       		.byte	0xfb
 697 04f0 72040000 		.4byte	0x472
 698 04f4 14       		.byte	0x14
 699 04f5 10       		.uleb128 0x10
 700 04f6 73323200 		.ascii	"s22\000"
 701 04fa 08       		.byte	0x8
 702 04fb FC       		.byte	0xfc
 703 04fc 72040000 		.4byte	0x472
 704 0500 18       		.byte	0x18
 705 0501 10       		.uleb128 0x10
 706 0502 73323300 		.ascii	"s23\000"
 707 0506 08       		.byte	0x8
 708 0507 FD       		.byte	0xfd
 709 0508 72040000 		.4byte	0x472
 710 050c 1C       		.byte	0x1c
 711 050d 10       		.uleb128 0x10
 712 050e 73323400 		.ascii	"s24\000"
 713 0512 08       		.byte	0x8
 714 0513 FE       		.byte	0xfe
 715 0514 72040000 		.4byte	0x472
 716 0518 20       		.byte	0x20
 717 0519 10       		.uleb128 0x10
 718 051a 73323500 		.ascii	"s25\000"
 719 051e 08       		.byte	0x8
 720 051f FF       		.byte	0xff
 721 0520 72040000 		.4byte	0x472
 722 0524 24       		.byte	0x24
 723 0525 08       		.uleb128 0x8
 724 0526 73323600 		.ascii	"s26\000"
 725 052a 08       		.byte	0x8
 726 052b 0001     		.2byte	0x100
 727 052d 72040000 		.4byte	0x472
 728 0531 28       		.byte	0x28
 729 0532 08       		.uleb128 0x8
 730 0533 73323700 		.ascii	"s27\000"
 731 0537 08       		.byte	0x8
 732 0538 0101     		.2byte	0x101
 733 053a 72040000 		.4byte	0x472
 734 053e 2C       		.byte	0x2c
 735 053f 08       		.uleb128 0x8
 736 0540 73323800 		.ascii	"s28\000"
 737 0544 08       		.byte	0x8
 738 0545 0201     		.2byte	0x102
 739 0547 72040000 		.4byte	0x472
 740 054b 30       		.byte	0x30
 741 054c 08       		.uleb128 0x8
ARM GAS  /tmp/ccYG7R7g.s 			page 14


 742 054d 73323900 		.ascii	"s29\000"
 743 0551 08       		.byte	0x8
 744 0552 0301     		.2byte	0x103
 745 0554 72040000 		.4byte	0x472
 746 0558 34       		.byte	0x34
 747 0559 08       		.uleb128 0x8
 748 055a 73333000 		.ascii	"s30\000"
 749 055e 08       		.byte	0x8
 750 055f 0401     		.2byte	0x104
 751 0561 72040000 		.4byte	0x472
 752 0565 38       		.byte	0x38
 753 0566 08       		.uleb128 0x8
 754 0567 73333100 		.ascii	"s31\000"
 755 056b 08       		.byte	0x8
 756 056c 0501     		.2byte	0x105
 757 056e 72040000 		.4byte	0x472
 758 0572 3C       		.byte	0x3c
 759 0573 08       		.uleb128 0x8
 760 0574 723400   		.ascii	"r4\000"
 761 0577 08       		.byte	0x8
 762 0578 0701     		.2byte	0x107
 763 057a 72040000 		.4byte	0x472
 764 057e 40       		.byte	0x40
 765 057f 08       		.uleb128 0x8
 766 0580 723500   		.ascii	"r5\000"
 767 0583 08       		.byte	0x8
 768 0584 0801     		.2byte	0x108
 769 0586 72040000 		.4byte	0x472
 770 058a 44       		.byte	0x44
 771 058b 08       		.uleb128 0x8
 772 058c 723600   		.ascii	"r6\000"
 773 058f 08       		.byte	0x8
 774 0590 0901     		.2byte	0x109
 775 0592 72040000 		.4byte	0x472
 776 0596 48       		.byte	0x48
 777 0597 08       		.uleb128 0x8
 778 0598 723700   		.ascii	"r7\000"
 779 059b 08       		.byte	0x8
 780 059c 0A01     		.2byte	0x10a
 781 059e 72040000 		.4byte	0x472
 782 05a2 4C       		.byte	0x4c
 783 05a3 08       		.uleb128 0x8
 784 05a4 723800   		.ascii	"r8\000"
 785 05a7 08       		.byte	0x8
 786 05a8 0B01     		.2byte	0x10b
 787 05aa 72040000 		.4byte	0x472
 788 05ae 50       		.byte	0x50
 789 05af 08       		.uleb128 0x8
 790 05b0 723900   		.ascii	"r9\000"
 791 05b3 08       		.byte	0x8
 792 05b4 0C01     		.2byte	0x10c
 793 05b6 72040000 		.4byte	0x472
 794 05ba 54       		.byte	0x54
 795 05bb 08       		.uleb128 0x8
 796 05bc 72313000 		.ascii	"r10\000"
 797 05c0 08       		.byte	0x8
 798 05c1 0D01     		.2byte	0x10d
ARM GAS  /tmp/ccYG7R7g.s 			page 15


 799 05c3 72040000 		.4byte	0x472
 800 05c7 58       		.byte	0x58
 801 05c8 08       		.uleb128 0x8
 802 05c9 72313100 		.ascii	"r11\000"
 803 05cd 08       		.byte	0x8
 804 05ce 0E01     		.2byte	0x10e
 805 05d0 72040000 		.4byte	0x472
 806 05d4 5C       		.byte	0x5c
 807 05d5 08       		.uleb128 0x8
 808 05d6 6C7200   		.ascii	"lr\000"
 809 05d9 08       		.byte	0x8
 810 05da 0F01     		.2byte	0x10f
 811 05dc 72040000 		.4byte	0x472
 812 05e0 60       		.byte	0x60
 813 05e1 00       		.byte	0
 814 05e2 0A       		.uleb128 0xa
 815 05e3 04       		.byte	0x4
 816 05e4 A1040000 		.4byte	0x4a1
 817 05e8 11       		.uleb128 0x11
 818 05e9 04       		.byte	0x4
 819 05ea 09       		.byte	0x9
 820 05eb 38       		.byte	0x38
 821 05ec FD050000 		.4byte	0x5fd
 822 05f0 07       		.uleb128 0x7
 823 05f1 55040000 		.4byte	.LASF87
 824 05f5 09       		.byte	0x9
 825 05f6 3C       		.byte	0x3c
 826 05f7 CF000000 		.4byte	0xcf
 827 05fb 00       		.byte	0
 828 05fc 00       		.byte	0
 829 05fd 03       		.uleb128 0x3
 830 05fe 9E020000 		.4byte	.LASF88
 831 0602 09       		.byte	0x9
 832 0603 3D       		.byte	0x3d
 833 0604 E8050000 		.4byte	0x5e8
 834 0608 12       		.uleb128 0x12
 835 0609 04       		.byte	0x4
 836 060a 06       		.byte	0x6
 837 060b FA       		.byte	0xfa
 838 060c 65060000 		.4byte	0x665
 839 0610 13       		.uleb128 0x13
 840 0611 13000000 		.4byte	.LASF89
 841 0615 06       		.byte	0x6
 842 0616 0101     		.2byte	0x101
 843 0618 11010000 		.4byte	0x111
 844 061c 13       		.uleb128 0x13
 845 061d 31010000 		.4byte	.LASF90
 846 0621 06       		.byte	0x6
 847 0622 0801     		.2byte	0x108
 848 0624 11010000 		.4byte	0x111
 849 0628 13       		.uleb128 0x13
 850 0629 F4000000 		.4byte	.LASF91
 851 062d 06       		.byte	0x6
 852 062e 0F01     		.2byte	0x10f
 853 0630 35030000 		.4byte	0x335
 854 0634 13       		.uleb128 0x13
 855 0635 0D000000 		.4byte	.LASF92
ARM GAS  /tmp/ccYG7R7g.s 			page 16


 856 0639 06       		.byte	0x6
 857 063a 1601     		.2byte	0x116
 858 063c 65060000 		.4byte	0x665
 859 0640 13       		.uleb128 0x13
 860 0641 A3010000 		.4byte	.LASF93
 861 0645 06       		.byte	0x6
 862 0646 1E01     		.2byte	0x11e
 863 0648 90060000 		.4byte	0x690
 864 064c 13       		.uleb128 0x13
 865 064d D7030000 		.4byte	.LASF94
 866 0651 06       		.byte	0x6
 867 0652 2701     		.2byte	0x127
 868 0654 C7060000 		.4byte	0x6c7
 869 0658 13       		.uleb128 0x13
 870 0659 7F030000 		.4byte	.LASF95
 871 065d 06       		.byte	0x6
 872 065e 2F01     		.2byte	0x12f
 873 0660 1C010000 		.4byte	0x11c
 874 0664 00       		.byte	0
 875 0665 0A       		.uleb128 0xa
 876 0666 04       		.byte	0x4
 877 0667 4D020000 		.4byte	0x24d
 878 066b 06       		.uleb128 0x6
 879 066c B6030000 		.4byte	.LASF96
 880 0670 0C       		.byte	0xc
 881 0671 0A       		.byte	0xa
 882 0672 34       		.byte	0x34
 883 0673 90060000 		.4byte	0x690
 884 0677 07       		.uleb128 0x7
 885 0678 29010000 		.4byte	.LASF97
 886 067c 0A       		.byte	0xa
 887 067d 35       		.byte	0x35
 888 067e 82020000 		.4byte	0x282
 889 0682 00       		.byte	0
 890 0683 07       		.uleb128 0x7
 891 0684 CA010000 		.4byte	.LASF98
 892 0688 0A       		.byte	0xa
 893 0689 37       		.byte	0x37
 894 068a 27010000 		.4byte	0x127
 895 068e 08       		.byte	0x8
 896 068f 00       		.byte	0
 897 0690 0A       		.uleb128 0xa
 898 0691 04       		.byte	0x4
 899 0692 6B060000 		.4byte	0x66b
 900 0696 06       		.uleb128 0x6
 901 0697 C2050000 		.4byte	.LASF99
 902 069b 10       		.byte	0x10
 903 069c 0B       		.byte	0xb
 904 069d 39       		.byte	0x39
 905 069e C7060000 		.4byte	0x6c7
 906 06a2 07       		.uleb128 0x7
 907 06a3 EC000000 		.4byte	.LASF100
 908 06a7 0B       		.byte	0xb
 909 06a8 3A       		.byte	0x3a
 910 06a9 82020000 		.4byte	0x282
 911 06ad 00       		.byte	0
 912 06ae 07       		.uleb128 0x7
ARM GAS  /tmp/ccYG7R7g.s 			page 17


 913 06af EC050000 		.4byte	.LASF101
 914 06b3 0B       		.byte	0xb
 915 06b4 3C       		.byte	0x3c
 916 06b5 58020000 		.4byte	0x258
 917 06b9 08       		.byte	0x8
 918 06ba 07       		.uleb128 0x7
 919 06bb 1B040000 		.4byte	.LASF102
 920 06bf 0B       		.byte	0xb
 921 06c0 3E       		.byte	0x3e
 922 06c1 0A070000 		.4byte	0x70a
 923 06c5 0C       		.byte	0xc
 924 06c6 00       		.byte	0
 925 06c7 0A       		.uleb128 0xa
 926 06c8 04       		.byte	0x4
 927 06c9 96060000 		.4byte	0x696
 928 06cd 0A       		.uleb128 0xa
 929 06ce 04       		.byte	0x4
 930 06cf D3060000 		.4byte	0x6d3
 931 06d3 14       		.uleb128 0x14
 932 06d4 D8060000 		.4byte	0x6d8
 933 06d8 02       		.uleb128 0x2
 934 06d9 01       		.byte	0x1
 935 06da 08       		.byte	0x8
 936 06db 0D040000 		.4byte	.LASF103
 937 06df 05       		.uleb128 0x5
 938 06e0 32010000 		.4byte	0x132
 939 06e4 0A       		.uleb128 0xa
 940 06e5 04       		.byte	0x4
 941 06e6 37030000 		.4byte	0x337
 942 06ea 05       		.uleb128 0x5
 943 06eb CD060000 		.4byte	0x6cd
 944 06ef 15       		.uleb128 0x15
 945 06f0 7D040000 		.4byte	0x47d
 946 06f4 FF060000 		.4byte	0x6ff
 947 06f8 16       		.uleb128 0x16
 948 06f9 6B040000 		.4byte	0x46b
 949 06fd 3A       		.byte	0x3a
 950 06fe 00       		.byte	0
 951 06ff 03       		.uleb128 0x3
 952 0700 63010000 		.4byte	.LASF104
 953 0704 0B       		.byte	0xb
 954 0705 34       		.byte	0x34
 955 0706 96060000 		.4byte	0x696
 956 070a 0A       		.uleb128 0xa
 957 070b 04       		.byte	0x4
 958 070c FF060000 		.4byte	0x6ff
 959 0710 02       		.uleb128 0x2
 960 0711 01       		.byte	0x1
 961 0712 02       		.byte	0x2
 962 0713 36030000 		.4byte	.LASF105
 963 0717 02       		.uleb128 0x2
 964 0718 08       		.byte	0x8
 965 0719 04       		.byte	0x4
 966 071a F4050000 		.4byte	.LASF106
 967 071e 02       		.uleb128 0x2
 968 071f 08       		.byte	0x8
 969 0720 04       		.byte	0x4
ARM GAS  /tmp/ccYG7R7g.s 			page 18


 970 0721 01040000 		.4byte	.LASF107
 971 0725 17       		.uleb128 0x17
 972 0726 E7050000 		.4byte	.LASF119
 973 072a 01       		.byte	0x1
 974 072b 25       		.byte	0x25
 975 072c 89000000 		.4byte	0x89
 976 0730 00000000 		.4byte	.LFB257
 977 0734 26000000 		.4byte	.LFE257-.LFB257
 978 0738 01       		.uleb128 0x1
 979 0739 9C       		.byte	0x9c
 980 073a 91070000 		.4byte	0x791
 981 073e 18       		.uleb128 0x18
 982 073f 06000000 		.4byte	.LVL0
 983 0743 A8070000 		.4byte	0x7a8
 984 0747 18       		.uleb128 0x18
 985 0748 0A000000 		.4byte	.LVL1
 986 074c AF070000 		.4byte	0x7af
 987 0750 18       		.uleb128 0x18
 988 0751 0E000000 		.4byte	.LVL2
 989 0755 B7070000 		.4byte	0x7b7
 990 0759 18       		.uleb128 0x18
 991 075a 12000000 		.4byte	.LVL3
 992 075e BE070000 		.4byte	0x7be
 993 0762 18       		.uleb128 0x18
 994 0763 16000000 		.4byte	.LVL4
 995 0767 C5070000 		.4byte	0x7c5
 996 076b 18       		.uleb128 0x18
 997 076c 1A000000 		.4byte	.LVL5
 998 0770 CC070000 		.4byte	0x7cc
 999 0774 19       		.uleb128 0x19
 1000 0775 20000000 		.4byte	.LVL6
 1001 0779 D3070000 		.4byte	0x7d3
 1002 077d 87070000 		.4byte	0x787
 1003 0781 1A       		.uleb128 0x1a
 1004 0782 01       		.uleb128 0x1
 1005 0783 50       		.byte	0x50
 1006 0784 01       		.uleb128 0x1
 1007 0785 44       		.byte	0x44
 1008 0786 00       		.byte	0
 1009 0787 18       		.uleb128 0x18
 1010 0788 24000000 		.4byte	.LVL7
 1011 078c E4070000 		.4byte	0x7e4
 1012 0790 00       		.byte	0
 1013 0791 1B       		.uleb128 0x1b
 1014 0792 89000000 		.4byte	.LASF108
 1015 0796 13       		.byte	0x13
 1016 0797 A706     		.2byte	0x6a7
 1017 0799 CA000000 		.4byte	0xca
 1018 079d 1C       		.uleb128 0x1c
 1019 079e 636800   		.ascii	"ch\000"
 1020 07a1 06       		.byte	0x6
 1021 07a2 0902     		.2byte	0x209
 1022 07a4 04040000 		.4byte	0x404
 1023 07a8 1D       		.uleb128 0x1d
 1024 07a9 C2010000 		.4byte	.LASF109
 1025 07ad 0C       		.byte	0xc
 1026 07ae 99       		.byte	0x99
ARM GAS  /tmp/ccYG7R7g.s 			page 19


 1027 07af 1E       		.uleb128 0x1e
 1028 07b0 C8000000 		.4byte	.LASF110
 1029 07b4 0D       		.byte	0xd
 1030 07b5 1501     		.2byte	0x115
 1031 07b7 1D       		.uleb128 0x1d
 1032 07b8 0B060000 		.4byte	.LASF111
 1033 07bc 0E       		.byte	0xe
 1034 07bd 16       		.byte	0x16
 1035 07be 1D       		.uleb128 0x1d
 1036 07bf 2A030000 		.4byte	.LASF112
 1037 07c3 0F       		.byte	0xf
 1038 07c4 16       		.byte	0x16
 1039 07c5 1D       		.uleb128 0x1d
 1040 07c6 95010000 		.4byte	.LASF113
 1041 07ca 10       		.byte	0x10
 1042 07cb 1F       		.byte	0x1f
 1043 07cc 1D       		.uleb128 0x1d
 1044 07cd 7F020000 		.4byte	.LASF114
 1045 07d1 11       		.byte	0x11
 1046 07d2 07       		.byte	0x7
 1047 07d3 1F       		.uleb128 0x1f
 1048 07d4 75040000 		.4byte	.LASF120
 1049 07d8 14       		.byte	0x14
 1050 07d9 96       		.byte	0x96
 1051 07da E4070000 		.4byte	0x7e4
 1052 07de 0D       		.uleb128 0xd
 1053 07df 32010000 		.4byte	0x132
 1054 07e3 00       		.byte	0
 1055 07e4 1D       		.uleb128 0x1d
 1056 07e5 23000000 		.4byte	.LASF115
 1057 07e9 12       		.byte	0x12
 1058 07ea 27       		.byte	0x27
 1059 07eb 00       		.byte	0
 1060              		.section	.debug_abbrev,"",%progbits
 1061              	.Ldebug_abbrev0:
 1062 0000 01       		.uleb128 0x1
 1063 0001 11       		.uleb128 0x11
 1064 0002 01       		.byte	0x1
 1065 0003 25       		.uleb128 0x25
 1066 0004 0E       		.uleb128 0xe
 1067 0005 13       		.uleb128 0x13
 1068 0006 0B       		.uleb128 0xb
 1069 0007 03       		.uleb128 0x3
 1070 0008 0E       		.uleb128 0xe
 1071 0009 1B       		.uleb128 0x1b
 1072 000a 0E       		.uleb128 0xe
 1073 000b 55       		.uleb128 0x55
 1074 000c 17       		.uleb128 0x17
 1075 000d 11       		.uleb128 0x11
 1076 000e 01       		.uleb128 0x1
 1077 000f 10       		.uleb128 0x10
 1078 0010 17       		.uleb128 0x17
 1079 0011 00       		.byte	0
 1080 0012 00       		.byte	0
 1081 0013 02       		.uleb128 0x2
 1082 0014 24       		.uleb128 0x24
 1083 0015 00       		.byte	0
ARM GAS  /tmp/ccYG7R7g.s 			page 20


 1084 0016 0B       		.uleb128 0xb
 1085 0017 0B       		.uleb128 0xb
 1086 0018 3E       		.uleb128 0x3e
 1087 0019 0B       		.uleb128 0xb
 1088 001a 03       		.uleb128 0x3
 1089 001b 0E       		.uleb128 0xe
 1090 001c 00       		.byte	0
 1091 001d 00       		.byte	0
 1092 001e 03       		.uleb128 0x3
 1093 001f 16       		.uleb128 0x16
 1094 0020 00       		.byte	0
 1095 0021 03       		.uleb128 0x3
 1096 0022 0E       		.uleb128 0xe
 1097 0023 3A       		.uleb128 0x3a
 1098 0024 0B       		.uleb128 0xb
 1099 0025 3B       		.uleb128 0x3b
 1100 0026 0B       		.uleb128 0xb
 1101 0027 49       		.uleb128 0x49
 1102 0028 13       		.uleb128 0x13
 1103 0029 00       		.byte	0
 1104 002a 00       		.byte	0
 1105 002b 04       		.uleb128 0x4
 1106 002c 24       		.uleb128 0x24
 1107 002d 00       		.byte	0
 1108 002e 0B       		.uleb128 0xb
 1109 002f 0B       		.uleb128 0xb
 1110 0030 3E       		.uleb128 0x3e
 1111 0031 0B       		.uleb128 0xb
 1112 0032 03       		.uleb128 0x3
 1113 0033 08       		.uleb128 0x8
 1114 0034 00       		.byte	0
 1115 0035 00       		.byte	0
 1116 0036 05       		.uleb128 0x5
 1117 0037 35       		.uleb128 0x35
 1118 0038 00       		.byte	0
 1119 0039 49       		.uleb128 0x49
 1120 003a 13       		.uleb128 0x13
 1121 003b 00       		.byte	0
 1122 003c 00       		.byte	0
 1123 003d 06       		.uleb128 0x6
 1124 003e 13       		.uleb128 0x13
 1125 003f 01       		.byte	0x1
 1126 0040 03       		.uleb128 0x3
 1127 0041 0E       		.uleb128 0xe
 1128 0042 0B       		.uleb128 0xb
 1129 0043 0B       		.uleb128 0xb
 1130 0044 3A       		.uleb128 0x3a
 1131 0045 0B       		.uleb128 0xb
 1132 0046 3B       		.uleb128 0x3b
 1133 0047 0B       		.uleb128 0xb
 1134 0048 01       		.uleb128 0x1
 1135 0049 13       		.uleb128 0x13
 1136 004a 00       		.byte	0
 1137 004b 00       		.byte	0
 1138 004c 07       		.uleb128 0x7
 1139 004d 0D       		.uleb128 0xd
 1140 004e 00       		.byte	0
ARM GAS  /tmp/ccYG7R7g.s 			page 21


 1141 004f 03       		.uleb128 0x3
 1142 0050 0E       		.uleb128 0xe
 1143 0051 3A       		.uleb128 0x3a
 1144 0052 0B       		.uleb128 0xb
 1145 0053 3B       		.uleb128 0x3b
 1146 0054 0B       		.uleb128 0xb
 1147 0055 49       		.uleb128 0x49
 1148 0056 13       		.uleb128 0x13
 1149 0057 38       		.uleb128 0x38
 1150 0058 0B       		.uleb128 0xb
 1151 0059 00       		.byte	0
 1152 005a 00       		.byte	0
 1153 005b 08       		.uleb128 0x8
 1154 005c 0D       		.uleb128 0xd
 1155 005d 00       		.byte	0
 1156 005e 03       		.uleb128 0x3
 1157 005f 08       		.uleb128 0x8
 1158 0060 3A       		.uleb128 0x3a
 1159 0061 0B       		.uleb128 0xb
 1160 0062 3B       		.uleb128 0x3b
 1161 0063 05       		.uleb128 0x5
 1162 0064 49       		.uleb128 0x49
 1163 0065 13       		.uleb128 0x13
 1164 0066 38       		.uleb128 0x38
 1165 0067 0B       		.uleb128 0xb
 1166 0068 00       		.byte	0
 1167 0069 00       		.byte	0
 1168 006a 09       		.uleb128 0x9
 1169 006b 0D       		.uleb128 0xd
 1170 006c 00       		.byte	0
 1171 006d 03       		.uleb128 0x3
 1172 006e 0E       		.uleb128 0xe
 1173 006f 3A       		.uleb128 0x3a
 1174 0070 0B       		.uleb128 0xb
 1175 0071 3B       		.uleb128 0x3b
 1176 0072 05       		.uleb128 0x5
 1177 0073 49       		.uleb128 0x49
 1178 0074 13       		.uleb128 0x13
 1179 0075 38       		.uleb128 0x38
 1180 0076 0B       		.uleb128 0xb
 1181 0077 00       		.byte	0
 1182 0078 00       		.byte	0
 1183 0079 0A       		.uleb128 0xa
 1184 007a 0F       		.uleb128 0xf
 1185 007b 00       		.byte	0
 1186 007c 0B       		.uleb128 0xb
 1187 007d 0B       		.uleb128 0xb
 1188 007e 49       		.uleb128 0x49
 1189 007f 13       		.uleb128 0x13
 1190 0080 00       		.byte	0
 1191 0081 00       		.byte	0
 1192 0082 0B       		.uleb128 0xb
 1193 0083 13       		.uleb128 0x13
 1194 0084 01       		.byte	0x1
 1195 0085 03       		.uleb128 0x3
 1196 0086 0E       		.uleb128 0xe
 1197 0087 0B       		.uleb128 0xb
ARM GAS  /tmp/ccYG7R7g.s 			page 22


 1198 0088 0B       		.uleb128 0xb
 1199 0089 3A       		.uleb128 0x3a
 1200 008a 0B       		.uleb128 0xb
 1201 008b 3B       		.uleb128 0x3b
 1202 008c 05       		.uleb128 0x5
 1203 008d 01       		.uleb128 0x1
 1204 008e 13       		.uleb128 0x13
 1205 008f 00       		.byte	0
 1206 0090 00       		.byte	0
 1207 0091 0C       		.uleb128 0xc
 1208 0092 15       		.uleb128 0x15
 1209 0093 01       		.byte	0x1
 1210 0094 27       		.uleb128 0x27
 1211 0095 19       		.uleb128 0x19
 1212 0096 01       		.uleb128 0x1
 1213 0097 13       		.uleb128 0x13
 1214 0098 00       		.byte	0
 1215 0099 00       		.byte	0
 1216 009a 0D       		.uleb128 0xd
 1217 009b 05       		.uleb128 0x5
 1218 009c 00       		.byte	0
 1219 009d 49       		.uleb128 0x49
 1220 009e 13       		.uleb128 0x13
 1221 009f 00       		.byte	0
 1222 00a0 00       		.byte	0
 1223 00a1 0E       		.uleb128 0xe
 1224 00a2 0F       		.uleb128 0xf
 1225 00a3 00       		.byte	0
 1226 00a4 0B       		.uleb128 0xb
 1227 00a5 0B       		.uleb128 0xb
 1228 00a6 00       		.byte	0
 1229 00a7 00       		.byte	0
 1230 00a8 0F       		.uleb128 0xf
 1231 00a9 13       		.uleb128 0x13
 1232 00aa 01       		.byte	0x1
 1233 00ab 03       		.uleb128 0x3
 1234 00ac 0E       		.uleb128 0xe
 1235 00ad 0B       		.uleb128 0xb
 1236 00ae 05       		.uleb128 0x5
 1237 00af 3A       		.uleb128 0x3a
 1238 00b0 0B       		.uleb128 0xb
 1239 00b1 3B       		.uleb128 0x3b
 1240 00b2 05       		.uleb128 0x5
 1241 00b3 01       		.uleb128 0x1
 1242 00b4 13       		.uleb128 0x13
 1243 00b5 00       		.byte	0
 1244 00b6 00       		.byte	0
 1245 00b7 10       		.uleb128 0x10
 1246 00b8 0D       		.uleb128 0xd
 1247 00b9 00       		.byte	0
 1248 00ba 03       		.uleb128 0x3
 1249 00bb 08       		.uleb128 0x8
 1250 00bc 3A       		.uleb128 0x3a
 1251 00bd 0B       		.uleb128 0xb
 1252 00be 3B       		.uleb128 0x3b
 1253 00bf 0B       		.uleb128 0xb
 1254 00c0 49       		.uleb128 0x49
ARM GAS  /tmp/ccYG7R7g.s 			page 23


 1255 00c1 13       		.uleb128 0x13
 1256 00c2 38       		.uleb128 0x38
 1257 00c3 0B       		.uleb128 0xb
 1258 00c4 00       		.byte	0
 1259 00c5 00       		.byte	0
 1260 00c6 11       		.uleb128 0x11
 1261 00c7 13       		.uleb128 0x13
 1262 00c8 01       		.byte	0x1
 1263 00c9 0B       		.uleb128 0xb
 1264 00ca 0B       		.uleb128 0xb
 1265 00cb 3A       		.uleb128 0x3a
 1266 00cc 0B       		.uleb128 0xb
 1267 00cd 3B       		.uleb128 0x3b
 1268 00ce 0B       		.uleb128 0xb
 1269 00cf 01       		.uleb128 0x1
 1270 00d0 13       		.uleb128 0x13
 1271 00d1 00       		.byte	0
 1272 00d2 00       		.byte	0
 1273 00d3 12       		.uleb128 0x12
 1274 00d4 17       		.uleb128 0x17
 1275 00d5 01       		.byte	0x1
 1276 00d6 0B       		.uleb128 0xb
 1277 00d7 0B       		.uleb128 0xb
 1278 00d8 3A       		.uleb128 0x3a
 1279 00d9 0B       		.uleb128 0xb
 1280 00da 3B       		.uleb128 0x3b
 1281 00db 0B       		.uleb128 0xb
 1282 00dc 01       		.uleb128 0x1
 1283 00dd 13       		.uleb128 0x13
 1284 00de 00       		.byte	0
 1285 00df 00       		.byte	0
 1286 00e0 13       		.uleb128 0x13
 1287 00e1 0D       		.uleb128 0xd
 1288 00e2 00       		.byte	0
 1289 00e3 03       		.uleb128 0x3
 1290 00e4 0E       		.uleb128 0xe
 1291 00e5 3A       		.uleb128 0x3a
 1292 00e6 0B       		.uleb128 0xb
 1293 00e7 3B       		.uleb128 0x3b
 1294 00e8 05       		.uleb128 0x5
 1295 00e9 49       		.uleb128 0x49
 1296 00ea 13       		.uleb128 0x13
 1297 00eb 00       		.byte	0
 1298 00ec 00       		.byte	0
 1299 00ed 14       		.uleb128 0x14
 1300 00ee 26       		.uleb128 0x26
 1301 00ef 00       		.byte	0
 1302 00f0 49       		.uleb128 0x49
 1303 00f1 13       		.uleb128 0x13
 1304 00f2 00       		.byte	0
 1305 00f3 00       		.byte	0
 1306 00f4 15       		.uleb128 0x15
 1307 00f5 01       		.uleb128 0x1
 1308 00f6 01       		.byte	0x1
 1309 00f7 49       		.uleb128 0x49
 1310 00f8 13       		.uleb128 0x13
 1311 00f9 01       		.uleb128 0x1
ARM GAS  /tmp/ccYG7R7g.s 			page 24


 1312 00fa 13       		.uleb128 0x13
 1313 00fb 00       		.byte	0
 1314 00fc 00       		.byte	0
 1315 00fd 16       		.uleb128 0x16
 1316 00fe 21       		.uleb128 0x21
 1317 00ff 00       		.byte	0
 1318 0100 49       		.uleb128 0x49
 1319 0101 13       		.uleb128 0x13
 1320 0102 2F       		.uleb128 0x2f
 1321 0103 0B       		.uleb128 0xb
 1322 0104 00       		.byte	0
 1323 0105 00       		.byte	0
 1324 0106 17       		.uleb128 0x17
 1325 0107 2E       		.uleb128 0x2e
 1326 0108 01       		.byte	0x1
 1327 0109 3F       		.uleb128 0x3f
 1328 010a 19       		.uleb128 0x19
 1329 010b 03       		.uleb128 0x3
 1330 010c 0E       		.uleb128 0xe
 1331 010d 3A       		.uleb128 0x3a
 1332 010e 0B       		.uleb128 0xb
 1333 010f 3B       		.uleb128 0x3b
 1334 0110 0B       		.uleb128 0xb
 1335 0111 27       		.uleb128 0x27
 1336 0112 19       		.uleb128 0x19
 1337 0113 49       		.uleb128 0x49
 1338 0114 13       		.uleb128 0x13
 1339 0115 11       		.uleb128 0x11
 1340 0116 01       		.uleb128 0x1
 1341 0117 12       		.uleb128 0x12
 1342 0118 06       		.uleb128 0x6
 1343 0119 40       		.uleb128 0x40
 1344 011a 18       		.uleb128 0x18
 1345 011b 9742     		.uleb128 0x2117
 1346 011d 19       		.uleb128 0x19
 1347 011e 01       		.uleb128 0x1
 1348 011f 13       		.uleb128 0x13
 1349 0120 00       		.byte	0
 1350 0121 00       		.byte	0
 1351 0122 18       		.uleb128 0x18
 1352 0123 898201   		.uleb128 0x4109
 1353 0126 00       		.byte	0
 1354 0127 11       		.uleb128 0x11
 1355 0128 01       		.uleb128 0x1
 1356 0129 31       		.uleb128 0x31
 1357 012a 13       		.uleb128 0x13
 1358 012b 00       		.byte	0
 1359 012c 00       		.byte	0
 1360 012d 19       		.uleb128 0x19
 1361 012e 898201   		.uleb128 0x4109
 1362 0131 01       		.byte	0x1
 1363 0132 11       		.uleb128 0x11
 1364 0133 01       		.uleb128 0x1
 1365 0134 31       		.uleb128 0x31
 1366 0135 13       		.uleb128 0x13
 1367 0136 01       		.uleb128 0x1
 1368 0137 13       		.uleb128 0x13
ARM GAS  /tmp/ccYG7R7g.s 			page 25


 1369 0138 00       		.byte	0
 1370 0139 00       		.byte	0
 1371 013a 1A       		.uleb128 0x1a
 1372 013b 8A8201   		.uleb128 0x410a
 1373 013e 00       		.byte	0
 1374 013f 02       		.uleb128 0x2
 1375 0140 18       		.uleb128 0x18
 1376 0141 9142     		.uleb128 0x2111
 1377 0143 18       		.uleb128 0x18
 1378 0144 00       		.byte	0
 1379 0145 00       		.byte	0
 1380 0146 1B       		.uleb128 0x1b
 1381 0147 34       		.uleb128 0x34
 1382 0148 00       		.byte	0
 1383 0149 03       		.uleb128 0x3
 1384 014a 0E       		.uleb128 0xe
 1385 014b 3A       		.uleb128 0x3a
 1386 014c 0B       		.uleb128 0xb
 1387 014d 3B       		.uleb128 0x3b
 1388 014e 05       		.uleb128 0x5
 1389 014f 49       		.uleb128 0x49
 1390 0150 13       		.uleb128 0x13
 1391 0151 3F       		.uleb128 0x3f
 1392 0152 19       		.uleb128 0x19
 1393 0153 3C       		.uleb128 0x3c
 1394 0154 19       		.uleb128 0x19
 1395 0155 00       		.byte	0
 1396 0156 00       		.byte	0
 1397 0157 1C       		.uleb128 0x1c
 1398 0158 34       		.uleb128 0x34
 1399 0159 00       		.byte	0
 1400 015a 03       		.uleb128 0x3
 1401 015b 08       		.uleb128 0x8
 1402 015c 3A       		.uleb128 0x3a
 1403 015d 0B       		.uleb128 0xb
 1404 015e 3B       		.uleb128 0x3b
 1405 015f 05       		.uleb128 0x5
 1406 0160 49       		.uleb128 0x49
 1407 0161 13       		.uleb128 0x13
 1408 0162 3F       		.uleb128 0x3f
 1409 0163 19       		.uleb128 0x19
 1410 0164 3C       		.uleb128 0x3c
 1411 0165 19       		.uleb128 0x19
 1412 0166 00       		.byte	0
 1413 0167 00       		.byte	0
 1414 0168 1D       		.uleb128 0x1d
 1415 0169 2E       		.uleb128 0x2e
 1416 016a 00       		.byte	0
 1417 016b 3F       		.uleb128 0x3f
 1418 016c 19       		.uleb128 0x19
 1419 016d 03       		.uleb128 0x3
 1420 016e 0E       		.uleb128 0xe
 1421 016f 3A       		.uleb128 0x3a
 1422 0170 0B       		.uleb128 0xb
 1423 0171 3B       		.uleb128 0x3b
 1424 0172 0B       		.uleb128 0xb
 1425 0173 27       		.uleb128 0x27
ARM GAS  /tmp/ccYG7R7g.s 			page 26


 1426 0174 19       		.uleb128 0x19
 1427 0175 3C       		.uleb128 0x3c
 1428 0176 19       		.uleb128 0x19
 1429 0177 00       		.byte	0
 1430 0178 00       		.byte	0
 1431 0179 1E       		.uleb128 0x1e
 1432 017a 2E       		.uleb128 0x2e
 1433 017b 00       		.byte	0
 1434 017c 3F       		.uleb128 0x3f
 1435 017d 19       		.uleb128 0x19
 1436 017e 03       		.uleb128 0x3
 1437 017f 0E       		.uleb128 0xe
 1438 0180 3A       		.uleb128 0x3a
 1439 0181 0B       		.uleb128 0xb
 1440 0182 3B       		.uleb128 0x3b
 1441 0183 05       		.uleb128 0x5
 1442 0184 27       		.uleb128 0x27
 1443 0185 19       		.uleb128 0x19
 1444 0186 3C       		.uleb128 0x3c
 1445 0187 19       		.uleb128 0x19
 1446 0188 00       		.byte	0
 1447 0189 00       		.byte	0
 1448 018a 1F       		.uleb128 0x1f
 1449 018b 2E       		.uleb128 0x2e
 1450 018c 01       		.byte	0x1
 1451 018d 3F       		.uleb128 0x3f
 1452 018e 19       		.uleb128 0x19
 1453 018f 03       		.uleb128 0x3
 1454 0190 0E       		.uleb128 0xe
 1455 0191 3A       		.uleb128 0x3a
 1456 0192 0B       		.uleb128 0xb
 1457 0193 3B       		.uleb128 0x3b
 1458 0194 0B       		.uleb128 0xb
 1459 0195 27       		.uleb128 0x27
 1460 0196 19       		.uleb128 0x19
 1461 0197 3C       		.uleb128 0x3c
 1462 0198 19       		.uleb128 0x19
 1463 0199 01       		.uleb128 0x1
 1464 019a 13       		.uleb128 0x13
 1465 019b 00       		.byte	0
 1466 019c 00       		.byte	0
 1467 019d 00       		.byte	0
 1468              		.section	.debug_aranges,"",%progbits
 1469 0000 1C000000 		.4byte	0x1c
 1470 0004 0200     		.2byte	0x2
 1471 0006 00000000 		.4byte	.Ldebug_info0
 1472 000a 04       		.byte	0x4
 1473 000b 00       		.byte	0
 1474 000c 0000     		.2byte	0
 1475 000e 0000     		.2byte	0
 1476 0010 00000000 		.4byte	.LFB257
 1477 0014 26000000 		.4byte	.LFE257-.LFB257
 1478 0018 00000000 		.4byte	0
 1479 001c 00000000 		.4byte	0
 1480              		.section	.debug_ranges,"",%progbits
 1481              	.Ldebug_ranges0:
 1482 0000 00000000 		.4byte	.LFB257
ARM GAS  /tmp/ccYG7R7g.s 			page 27


 1483 0004 26000000 		.4byte	.LFE257
 1484 0008 00000000 		.4byte	0
 1485 000c 00000000 		.4byte	0
 1486              		.section	.debug_line,"",%progbits
 1487              	.Ldebug_line0:
 1488 0000 2C020000 		.section	.debug_str,"MS",%progbits,1
 1488      02000202 
 1488      00000201 
 1488      FB0E0D00 
 1488      01010101 
 1489              	.LASF54:
 1490 0000 72656164 		.ascii	"ready_list_t\000"
 1490      795F6C69 
 1490      73745F74 
 1490      00
 1491              	.LASF92:
 1492 000d 77747472 		.ascii	"wttrp\000"
 1492      7000
 1493              	.LASF89:
 1494 0013 7264796D 		.ascii	"rdymsg\000"
 1494      736700
 1495              	.LASF16:
 1496 001a 75696E74 		.ascii	"uint64_t\000"
 1496      36345F74 
 1496      00
 1497              	.LASF115:
 1498 0023 7061636B 		.ascii	"packet_timerfunc\000"
 1498      65745F74 
 1498      696D6572 
 1498      66756E63 
 1498      00
 1499              	.LASF4:
 1500 0034 5F5F7569 		.ascii	"__uint8_t\000"
 1500      6E74385F 
 1500      7400
 1501              	.LASF86:
 1502 003e 706F7274 		.ascii	"port_intctx\000"
 1502      5F696E74 
 1502      63747800 
 1503              	.LASF79:
 1504 004a 76746C69 		.ascii	"vtlist\000"
 1504      737400
 1505              	.LASF11:
 1506 0051 6C6F6E67 		.ascii	"long long unsigned int\000"
 1506      206C6F6E 
 1506      6720756E 
 1506      7369676E 
 1506      65642069 
 1507              	.LASF80:
 1508 0068 6D61696E 		.ascii	"mainthread\000"
 1508      74687265 
 1508      616400
 1509              	.LASF70:
 1510 0073 76697274 		.ascii	"virtual_timers_list_t\000"
 1510      75616C5F 
 1510      74696D65 
 1510      72735F6C 
ARM GAS  /tmp/ccYG7R7g.s 			page 28


 1510      6973745F 
 1511              	.LASF108:
 1512 0089 49544D5F 		.ascii	"ITM_RxBuffer\000"
 1512      52784275 
 1512      66666572 
 1512      00
 1513              	.LASF53:
 1514 0096 63685F74 		.ascii	"ch_threads_queue\000"
 1514      68726561 
 1514      64735F71 
 1514      75657565 
 1514      00
 1515              	.LASF31:
 1516 00a7 705F7072 		.ascii	"p_prio\000"
 1516      696F00
 1517              	.LASF9:
 1518 00ae 6C6F6E67 		.ascii	"long long int\000"
 1518      206C6F6E 
 1518      6720696E 
 1518      7400
 1519              	.LASF0:
 1520 00bc 7369676E 		.ascii	"signed char\000"
 1520      65642063 
 1520      68617200 
 1521              	.LASF110:
 1522 00c8 63685379 		.ascii	"chSysInit\000"
 1522      73496E69 
 1522      7400
 1523              	.LASF8:
 1524 00d2 6C6F6E67 		.ascii	"long unsigned int\000"
 1524      20756E73 
 1524      69676E65 
 1524      6420696E 
 1524      7400
 1525              	.LASF47:
 1526 00e4 705F6D70 		.ascii	"p_mpool\000"
 1526      6F6F6C00 
 1527              	.LASF100:
 1528 00ec 6D5F7175 		.ascii	"m_queue\000"
 1528      65756500 
 1529              	.LASF91:
 1530 00f4 77746F62 		.ascii	"wtobjp\000"
 1530      6A7000
 1531              	.LASF22:
 1532 00fb 74736C69 		.ascii	"tslices_t\000"
 1532      6365735F 
 1532      7400
 1533              	.LASF77:
 1534 0105 63685F73 		.ascii	"ch_system\000"
 1534      79737465 
 1534      6D00
 1535              	.LASF6:
 1536 010f 6C6F6E67 		.ascii	"long int\000"
 1536      20696E74 
 1536      00
 1537              	.LASF20:
 1538 0118 74737461 		.ascii	"tstate_t\000"
ARM GAS  /tmp/ccYG7R7g.s 			page 29


 1538      74655F74 
 1538      00
 1539              	.LASF33:
 1540 0121 705F6E65 		.ascii	"p_newer\000"
 1540      77657200 
 1541              	.LASF97:
 1542 0129 735F7175 		.ascii	"s_queue\000"
 1542      65756500 
 1543              	.LASF90:
 1544 0131 65786974 		.ascii	"exitcode\000"
 1544      636F6465 
 1544      00
 1545              	.LASF59:
 1546 013a 725F6E65 		.ascii	"r_newer\000"
 1546      77657200 
 1547              	.LASF83:
 1548 0142 72656761 		.ascii	"regarm_t\000"
 1548      726D5F74 
 1548      00
 1549              	.LASF66:
 1550 014b 76745F70 		.ascii	"vt_prev\000"
 1550      72657600 
 1551              	.LASF74:
 1552 0153 63685F73 		.ascii	"ch_system_debug\000"
 1552      79737465 
 1552      6D5F6465 
 1552      62756700 
 1553              	.LASF104:
 1554 0163 6D757465 		.ascii	"mutex_t\000"
 1554      785F7400 
 1555              	.LASF81:
 1556 016b 69646C65 		.ascii	"idle_thread_wa\000"
 1556      5F746872 
 1556      6561645F 
 1556      776100
 1557              	.LASF26:
 1558 017a 636E745F 		.ascii	"cnt_t\000"
 1558      7400
 1559              	.LASF12:
 1560 0180 756E7369 		.ascii	"unsigned int\000"
 1560      676E6564 
 1560      20696E74 
 1560      00
 1561              	.LASF65:
 1562 018d 76745F6E 		.ascii	"vt_next\000"
 1562      65787400 
 1563              	.LASF113:
 1564 0195 636F6D6D 		.ascii	"comm_usb_init\000"
 1564      5F757362 
 1564      5F696E69 
 1564      7400
 1565              	.LASF93:
 1566 01a3 77747365 		.ascii	"wtsemp\000"
 1566      6D7000
 1567              	.LASF67:
 1568 01aa 76745F64 		.ascii	"vt_delta\000"
 1568      656C7461 
ARM GAS  /tmp/ccYG7R7g.s 			page 30


 1568      00
 1569              	.LASF73:
 1570 01b3 73797374 		.ascii	"system_debug_t\000"
 1570      656D5F64 
 1570      65627567 
 1570      5F7400
 1571              	.LASF109:
 1572 01c2 68616C49 		.ascii	"halInit\000"
 1572      6E697400 
 1573              	.LASF98:
 1574 01ca 735F636E 		.ascii	"s_cnt\000"
 1574      7400
 1575              	.LASF85:
 1576 01d0 636F6E74 		.ascii	"context\000"
 1576      65787400 
 1577              	.LASF3:
 1578 01d8 73686F72 		.ascii	"short unsigned int\000"
 1578      7420756E 
 1578      7369676E 
 1578      65642069 
 1578      6E7400
 1579              	.LASF50:
 1580 01eb 63685F74 		.ascii	"ch_thread\000"
 1580      68726561 
 1580      6400
 1581              	.LASF24:
 1582 01f5 6D73675F 		.ascii	"msg_t\000"
 1582      7400
 1583              	.LASF76:
 1584 01fb 63685F73 		.ascii	"ch_system_t\000"
 1584      79737465 
 1584      6D5F7400 
 1585              	.LASF117:
 1586 0207 6D61696E 		.ascii	"main.c\000"
 1586      2E6300
 1587              	.LASF19:
 1588 020e 746D6F64 		.ascii	"tmode_t\000"
 1588      655F7400 
 1589              	.LASF55:
 1590 0216 63685F72 		.ascii	"ch_ready_list\000"
 1590      65616479 
 1590      5F6C6973 
 1590      7400
 1591              	.LASF25:
 1592 0224 6576656E 		.ascii	"eventmask_t\000"
 1592      746D6173 
 1592      6B5F7400 
 1593              	.LASF5:
 1594 0230 5F5F696E 		.ascii	"__int32_t\000"
 1594      7433325F 
 1594      7400
 1595              	.LASF84:
 1596 023a 73746B61 		.ascii	"stkalign_t\000"
 1596      6C69676E 
 1596      5F7400
 1597              	.LASF18:
 1598 0245 7274636E 		.ascii	"rtcnt_t\000"
ARM GAS  /tmp/ccYG7R7g.s 			page 31


 1598      745F7400 
 1599              	.LASF48:
 1600 024d 74687265 		.ascii	"thread_reference_t\000"
 1600      61645F72 
 1600      65666572 
 1600      656E6365 
 1600      5F7400
 1601              	.LASF71:
 1602 0260 63685F76 		.ascii	"ch_virtual_timers_list\000"
 1602      69727475 
 1602      616C5F74 
 1602      696D6572 
 1602      735F6C69 
 1603              	.LASF68:
 1604 0277 76745F66 		.ascii	"vt_func\000"
 1604      756E6300 
 1605              	.LASF114:
 1606 027f 636F6D6D 		.ascii	"comm_cc2520_init\000"
 1606      5F636332 
 1606      3532305F 
 1606      696E6974 
 1606      00
 1607              	.LASF34:
 1608 0290 705F6F6C 		.ascii	"p_older\000"
 1608      64657200 
 1609              	.LASF58:
 1610 0298 725F6374 		.ascii	"r_ctx\000"
 1610      7800
 1611              	.LASF88:
 1612 029e 746D5F63 		.ascii	"tm_calibration_t\000"
 1612      616C6962 
 1612      72617469 
 1612      6F6E5F74 
 1612      00
 1613              	.LASF61:
 1614 02af 725F6375 		.ascii	"r_current\000"
 1614      7272656E 
 1614      7400
 1615              	.LASF60:
 1616 02b9 725F6F6C 		.ascii	"r_older\000"
 1616      64657200 
 1617              	.LASF10:
 1618 02c1 5F5F7569 		.ascii	"__uint64_t\000"
 1618      6E743634 
 1618      5F7400
 1619              	.LASF17:
 1620 02cc 666C6F61 		.ascii	"float\000"
 1620      7400
 1621              	.LASF21:
 1622 02d2 74726566 		.ascii	"trefs_t\000"
 1622      735F7400 
 1623              	.LASF63:
 1624 02da 76697274 		.ascii	"virtual_timer_t\000"
 1624      75616C5F 
 1624      74696D65 
 1624      725F7400 
 1625              	.LASF30:
ARM GAS  /tmp/ccYG7R7g.s 			page 32


 1626 02ea 705F7072 		.ascii	"p_prev\000"
 1626      657600
 1627              	.LASF23:
 1628 02f1 74707269 		.ascii	"tprio_t\000"
 1628      6F5F7400 
 1629              	.LASF118:
 1630 02f9 2F686F6D 		.ascii	"/home/benjamin/Skrivbord/SP-RCCar/Embedded/Mote/\000"
 1630      652F6265 
 1630      6E6A616D 
 1630      696E2F53 
 1630      6B726976 
 1631              	.LASF112:
 1632 032a 6578745F 		.ascii	"ext_cb_init\000"
 1632      63625F69 
 1632      6E697400 
 1633              	.LASF105:
 1634 0336 5F426F6F 		.ascii	"_Bool\000"
 1634      6C00
 1635              	.LASF14:
 1636 033c 696E7433 		.ascii	"int32_t\000"
 1636      325F7400 
 1637              	.LASF1:
 1638 0344 756E7369 		.ascii	"unsigned char\000"
 1638      676E6564 
 1638      20636861 
 1638      7200
 1639              	.LASF45:
 1640 0352 705F6D74 		.ascii	"p_mtxlist\000"
 1640      786C6973 
 1640      7400
 1641              	.LASF2:
 1642 035c 73686F72 		.ascii	"short int\000"
 1642      7420696E 
 1642      7400
 1643              	.LASF36:
 1644 0366 705F7374 		.ascii	"p_state\000"
 1644      61746500 
 1645              	.LASF39:
 1646 036e 705F7072 		.ascii	"p_preempt\000"
 1646      65656D70 
 1646      7400
 1647              	.LASF57:
 1648 0378 725F7072 		.ascii	"r_prio\000"
 1648      696F00
 1649              	.LASF95:
 1650 037f 65776D61 		.ascii	"ewmask\000"
 1650      736B00
 1651              	.LASF29:
 1652 0386 705F6E65 		.ascii	"p_next\000"
 1652      787400
 1653              	.LASF37:
 1654 038d 705F666C 		.ascii	"p_flags\000"
 1654      61677300 
 1655              	.LASF52:
 1656 0395 74687265 		.ascii	"threads_queue_t\000"
 1656      6164735F 
 1656      71756575 
ARM GAS  /tmp/ccYG7R7g.s 			page 33


 1656      655F7400 
 1657              	.LASF64:
 1658 03a5 63685F76 		.ascii	"ch_virtual_timer\000"
 1658      69727475 
 1658      616C5F74 
 1658      696D6572 
 1658      00
 1659              	.LASF96:
 1660 03b6 63685F73 		.ascii	"ch_semaphore\000"
 1660      656D6170 
 1660      686F7265 
 1660      00
 1661              	.LASF44:
 1662 03c3 705F6570 		.ascii	"p_epending\000"
 1662      656E6469 
 1662      6E6700
 1663              	.LASF15:
 1664 03ce 75696E74 		.ascii	"uint32_t\000"
 1664      33325F74 
 1664      00
 1665              	.LASF94:
 1666 03d7 77746D74 		.ascii	"wtmtxp\000"
 1666      787000
 1667              	.LASF56:
 1668 03de 725F7175 		.ascii	"r_queue\000"
 1668      65756500 
 1669              	.LASF72:
 1670 03e6 76745F73 		.ascii	"vt_systime\000"
 1670      79737469 
 1670      6D6500
 1671              	.LASF51:
 1672 03f1 63685F74 		.ascii	"ch_threads_list\000"
 1672      68726561 
 1672      64735F6C 
 1672      69737400 
 1673              	.LASF107:
 1674 0401 6C6F6E67 		.ascii	"long double\000"
 1674      20646F75 
 1674      626C6500 
 1675              	.LASF103:
 1676 040d 63686172 		.ascii	"char\000"
 1676      00
 1677              	.LASF28:
 1678 0412 74687265 		.ascii	"thread_t\000"
 1678      61645F74 
 1678      00
 1679              	.LASF102:
 1680 041b 6D5F6E65 		.ascii	"m_next\000"
 1680      787400
 1681              	.LASF27:
 1682 0422 73797374 		.ascii	"systime_t\000"
 1682      696D655F 
 1682      7400
 1683              	.LASF46:
 1684 042c 705F7265 		.ascii	"p_realprio\000"
 1684      616C7072 
 1684      696F00
ARM GAS  /tmp/ccYG7R7g.s 			page 34


 1685              	.LASF62:
 1686 0437 76746675 		.ascii	"vtfunc_t\000"
 1686      6E635F74 
 1686      00
 1687              	.LASF7:
 1688 0440 5F5F7569 		.ascii	"__uint32_t\000"
 1688      6E743332 
 1688      5F7400
 1689              	.LASF75:
 1690 044b 70616E69 		.ascii	"panic_msg\000"
 1690      635F6D73 
 1690      6700
 1691              	.LASF87:
 1692 0455 6F666673 		.ascii	"offset\000"
 1692      657400
 1693              	.LASF40:
 1694 045c 705F7469 		.ascii	"p_time\000"
 1694      6D6500
 1695              	.LASF42:
 1696 0463 705F6D73 		.ascii	"p_msgqueue\000"
 1696      67717565 
 1696      756500
 1697              	.LASF69:
 1698 046e 76745F70 		.ascii	"vt_par\000"
 1698      617200
 1699              	.LASF120:
 1700 0475 63685468 		.ascii	"chThdSleep\000"
 1700      64536C65 
 1700      657000
 1701              	.LASF38:
 1702 0480 705F7265 		.ascii	"p_refs\000"
 1702      667300
 1703              	.LASF78:
 1704 0487 726C6973 		.ascii	"rlist\000"
 1704      7400
 1705              	.LASF13:
 1706 048d 75696E74 		.ascii	"uint8_t\000"
 1706      385F7400 
 1707              	.LASF82:
 1708 0495 73697A65 		.ascii	"sizetype\000"
 1708      74797065 
 1708      00
 1709              	.LASF116:
 1710 049e 474E5520 		.ascii	"GNU C 4.9.3 20150529 (release) [ARM/embedded-4_9-br"
 1710      4320342E 
 1710      392E3320 
 1710      32303135 
 1710      30353239 
 1711 04d1 616E6368 		.ascii	"anch revision 227977] -mcpu=cortex-m4 -mfloat-abi=h"
 1711      20726576 
 1711      6973696F 
 1711      6E203232 
 1711      37393737 
 1712 0504 61726420 		.ascii	"ard -mfpu=fpv4-sp-d16 -mno-thumb-interwork -mthumb "
 1712      2D6D6670 
 1712      753D6670 
 1712      76342D73 
ARM GAS  /tmp/ccYG7R7g.s 			page 35


 1712      702D6431 
 1713 0537 2D676764 		.ascii	"-ggdb -O2 -std=gnu99 -fomit-frame-pointer -falign-f"
 1713      62202D4F 
 1713      32202D73 
 1713      74643D67 
 1713      6E753939 
 1714 056a 756E6374 		.ascii	"unctions=16 -ffunction-sections -fdata-sections -fn"
 1714      696F6E73 
 1714      3D313620 
 1714      2D666675 
 1714      6E637469 
 1715 059d 6F2D636F 		.ascii	"o-common -fsingle-precision-constant\000"
 1715      6D6D6F6E 
 1715      202D6673 
 1715      696E676C 
 1715      652D7072 
 1716              	.LASF99:
 1717 05c2 63685F6D 		.ascii	"ch_mutex\000"
 1717      75746578 
 1717      00
 1718              	.LASF35:
 1719 05cb 705F6E61 		.ascii	"p_name\000"
 1719      6D6500
 1720              	.LASF49:
 1721 05d2 74687265 		.ascii	"threads_list_t\000"
 1721      6164735F 
 1721      6C697374 
 1721      5F7400
 1722              	.LASF43:
 1723 05e1 705F6D73 		.ascii	"p_msg\000"
 1723      6700
 1724              	.LASF119:
 1725 05e7 6D61696E 		.ascii	"main\000"
 1725      00
 1726              	.LASF101:
 1727 05ec 6D5F6F77 		.ascii	"m_owner\000"
 1727      6E657200 
 1728              	.LASF106:
 1729 05f4 646F7562 		.ascii	"double\000"
 1729      6C6500
 1730              	.LASF32:
 1731 05fb 705F6374 		.ascii	"p_ctx\000"
 1731      7800
 1732              	.LASF41:
 1733 0601 705F7761 		.ascii	"p_waiting\000"
 1733      6974696E 
 1733      6700
 1734              	.LASF111:
 1735 060b 6C65645F 		.ascii	"led_init\000"
 1735      696E6974 
 1735      00
 1736              		.ident	"GCC: (GNU Tools for ARM Embedded Processors) 4.9.3 20150529 (release) [ARM/embedded-4_9-br
ARM GAS  /tmp/ccYG7R7g.s 			page 36


DEFINED SYMBOLS
                            *ABS*:0000000000000000 main.c
     /tmp/ccYG7R7g.s:21     .text.startup.main:0000000000000000 $t
     /tmp/ccYG7R7g.s:27     .text.startup.main:0000000000000000 main
                     .debug_frame:0000000000000010 $d

UNDEFINED SYMBOLS
halInit
chSysInit
led_init
ext_cb_init
comm_usb_init
comm_cc2520_init
chThdSleep
packet_timerfunc
