ARM GAS  /tmp/ccpn9JEy.s 			page 1


   1              		.syntax unified
   2              		.cpu cortex-m4
   3              		.eabi_attribute 27, 1
   4              		.eabi_attribute 28, 1
   5              		.fpu fpv4-sp-d16
   6              		.eabi_attribute 20, 1
   7              		.eabi_attribute 21, 1
   8              		.eabi_attribute 23, 3
   9              		.eabi_attribute 24, 1
  10              		.eabi_attribute 25, 1
  11              		.eabi_attribute 26, 1
  12              		.eabi_attribute 30, 2
  13              		.eabi_attribute 34, 1
  14              		.eabi_attribute 18, 4
  15              		.thumb
  16              		.file	"nvic.c"
  17              		.text
  18              	.Ltext0:
  19              		.cfi_sections	.debug_frame
  20              		.section	.text.nvicEnableVector,"ax",%progbits
  21              		.align	2
  22              		.p2align 4,,15
  23              		.global	nvicEnableVector
  24              		.thumb
  25              		.thumb_func
  26              		.type	nvicEnableVector, %function
  27              	nvicEnableVector:
  28              	.LFB256:
  29              		.file 1 "ChibiOS_3.0.2/os/hal/ports/common/ARMCMx/nvic.c"
  30              		.loc 1 57 0
  31              		.cfi_startproc
  32              		@ args = 0, pretend = 0, frame = 0
  33              		@ frame_needed = 0, uses_anonymous_args = 0
  34              		@ link register save eliminated.
  35              	.LVL0:
  36              		.loc 1 60 0
  37 0000 4309     		lsrs	r3, r0, #5
  38 0002 9B00     		lsls	r3, r3, #2
  39              		.loc 1 57 0
  40 0004 10B4     		push	{r4}
  41              		.cfi_def_cfa_offset 4
  42              		.cfi_offset 4, -4
  43 0006 03F16043 		add	r3, r3, #-536870912
  44              		.loc 1 59 0
  45 000a 00F16044 		add	r4, r0, #-536870912
  46 000e 04F56144 		add	r4, r4, #57600
  47 0012 03F56143 		add	r3, r3, #57600
  48 0016 0901     		lsls	r1, r1, #4
  49              	.LVL1:
  50              		.loc 1 60 0
  51 0018 00F01F00 		and	r0, r0, #31
  52              	.LVL2:
  53 001c 0122     		movs	r2, #1
  54 001e 8240     		lsls	r2, r2, r0
  55              		.loc 1 59 0
  56 0020 C9B2     		uxtb	r1, r1
  57 0022 84F80013 		strb	r1, [r4, #768]
ARM GAS  /tmp/ccpn9JEy.s 			page 2


  58              		.loc 1 60 0
  59 0026 C3F88021 		str	r2, [r3, #384]
  60              		.loc 1 61 0
  61 002a 1A60     		str	r2, [r3]
  62              		.loc 1 62 0
  63 002c 5DF8044B 		ldr	r4, [sp], #4
  64              		.cfi_restore 4
  65              		.cfi_def_cfa_offset 0
  66              	.LVL3:
  67 0030 7047     		bx	lr
  68              		.cfi_endproc
  69              	.LFE256:
  70              		.size	nvicEnableVector, .-nvicEnableVector
  71 0032 00BF     		.section	.text.nvicDisableVector,"ax",%progbits
  72              		.align	2
  73              		.p2align 4,,15
  74              		.global	nvicDisableVector
  75              		.thumb
  76              		.thumb_func
  77              		.type	nvicDisableVector, %function
  78              	nvicDisableVector:
  79              	.LFB257:
  80              		.loc 1 69 0
  81              		.cfi_startproc
  82              		@ args = 0, pretend = 0, frame = 0
  83              		@ frame_needed = 0, uses_anonymous_args = 0
  84              		@ link register save eliminated.
  85              	.LVL4:
  86              		.loc 1 71 0
  87 0000 0849     		ldr	r1, .L5
  88 0002 4309     		lsrs	r3, r0, #5
  89              		.loc 1 69 0
  90 0004 10B4     		push	{r4}
  91              		.cfi_def_cfa_offset 4
  92              		.cfi_offset 4, -4
  93              		.loc 1 71 0
  94 0006 2033     		adds	r3, r3, #32
  95 0008 00F01F04 		and	r4, r0, #31
  96 000c 0122     		movs	r2, #1
  97              		.loc 1 72 0
  98 000e 0844     		add	r0, r0, r1
  99              	.LVL5:
 100              		.loc 1 71 0
 101 0010 A240     		lsls	r2, r2, r4
 102              		.loc 1 72 0
 103 0012 0024     		movs	r4, #0
 104              		.loc 1 71 0
 105 0014 41F82320 		str	r2, [r1, r3, lsl #2]
 106              		.loc 1 72 0
 107 0018 80F80043 		strb	r4, [r0, #768]
 108              		.loc 1 73 0
 109 001c 5DF8044B 		ldr	r4, [sp], #4
 110              		.cfi_restore 4
 111              		.cfi_def_cfa_offset 0
 112 0020 7047     		bx	lr
 113              	.L6:
 114 0022 00BF     		.align	2
ARM GAS  /tmp/ccpn9JEy.s 			page 3


 115              	.L5:
 116 0024 00E100E0 		.word	-536813312
 117              		.cfi_endproc
 118              	.LFE257:
 119              		.size	nvicDisableVector, .-nvicDisableVector
 120              		.section	.text.nvicSetSystemHandlerPriority,"ax",%progbits
 121              		.align	2
 122              		.p2align 4,,15
 123              		.global	nvicSetSystemHandlerPriority
 124              		.thumb
 125              		.thumb_func
 126              		.type	nvicSetSystemHandlerPriority, %function
 127              	nvicSetSystemHandlerPriority:
 128              	.LFB258:
 129              		.loc 1 81 0
 130              		.cfi_startproc
 131              		@ args = 0, pretend = 0, frame = 0
 132              		@ frame_needed = 0, uses_anonymous_args = 0
 133              		@ link register save eliminated.
 134              	.LVL6:
 135              		.loc 1 85 0
 136 0000 00F16040 		add	r0, r0, #-536870912
 137              	.LVL7:
 138 0004 00F56D40 		add	r0, r0, #60672
 139              	.LVL8:
 140 0008 0901     		lsls	r1, r1, #4
 141              	.LVL9:
 142 000a C9B2     		uxtb	r1, r1
 143 000c 0176     		strb	r1, [r0, #24]
 144 000e 7047     		bx	lr
 145              		.cfi_endproc
 146              	.LFE258:
 147              		.size	nvicSetSystemHandlerPriority, .-nvicSetSystemHandlerPriority
 148              		.section	.text.nvicClearPending,"ax",%progbits
 149              		.align	2
 150              		.p2align 4,,15
 151              		.global	nvicClearPending
 152              		.thumb
 153              		.thumb_func
 154              		.type	nvicClearPending, %function
 155              	nvicClearPending:
 156              	.LFB259:
 157              		.loc 1 93 0
 158              		.cfi_startproc
 159              		@ args = 0, pretend = 0, frame = 0
 160              		@ frame_needed = 0, uses_anonymous_args = 0
 161              		@ link register save eliminated.
 162              	.LVL10:
 163              		.loc 1 95 0
 164 0000 4309     		lsrs	r3, r0, #5
 165 0002 6033     		adds	r3, r3, #96
 166 0004 00F01F00 		and	r0, r0, #31
 167              	.LVL11:
 168 0008 0122     		movs	r2, #1
 169 000a 0249     		ldr	r1, .L9
 170 000c 8240     		lsls	r2, r2, r0
 171 000e 41F82320 		str	r2, [r1, r3, lsl #2]
ARM GAS  /tmp/ccpn9JEy.s 			page 4


 172 0012 7047     		bx	lr
 173              	.L10:
 174              		.align	2
 175              	.L9:
 176 0014 00E100E0 		.word	-536813312
 177              		.cfi_endproc
 178              	.LFE259:
 179              		.size	nvicClearPending, .-nvicClearPending
 180              		.text
 181              	.Letext0:
 182              		.file 2 "/usr/arm-none-eabi/include/machine/_default_types.h"
 183              		.file 3 "/usr/arm-none-eabi/include/sys/_stdint.h"
 184              		.file 4 "ChibiOS_3.0.2/os/rt/ports/ARMCMx/compilers/GCC/chtypes.h"
 185              		.file 5 "ChibiOS_3.0.2/os/rt/include/chsystypes.h"
 186              		.file 6 "ChibiOS_3.0.2/os/rt/include/chschd.h"
 187              		.file 7 "ChibiOS_3.0.2/os/ext/CMSIS/include/core_cm4.h"
 188              		.file 8 "ChibiOS_3.0.2/os/rt/ports/ARMCMx/chcore.h"
 189              		.file 9 "ChibiOS_3.0.2/os/rt/ports/ARMCMx/chcore_v7m.h"
 190              		.file 10 "ChibiOS_3.0.2/os/rt/include/chtm.h"
 191              		.file 11 "ChibiOS_3.0.2/os/rt/include/chsem.h"
 192              		.file 12 "ChibiOS_3.0.2/os/rt/include/chmtx.h"