ARM GAS  /tmp/ccsqi33F.s 			page 1


   1              		.syntax unified
   2              		.cpu cortex-m4
   3              		.eabi_attribute 27, 1
   4              		.eabi_attribute 28, 1
   5              		.fpu fpv4-sp-d16
   6              		.eabi_attribute 20, 1
   7              		.eabi_attribute 21, 1
   8              		.eabi_attribute 23, 3
   9              		.eabi_attribute 24, 1
  10              		.eabi_attribute 25, 1
  11              		.eabi_attribute 26, 1
  12              		.eabi_attribute 30, 2
  13              		.eabi_attribute 34, 1
  14              		.eabi_attribute 18, 4
  15              		.thumb
  16              		.file	"packet.c"
  17              		.text
  18              	.Ltext0:
  19              		.cfi_sections	.debug_frame
  20              		.section	.text.packet_init,"ax",%progbits
  21              		.align	2
  22              		.p2align 4,,15
  23              		.global	packet_init
  24              		.thumb
  25              		.thumb_func
  26              		.type	packet_init, %function
  27              	packet_init:
  28              	.LFB0:
  29              		.file 1 "packet.c"
  30              		.loc 1 45 0
  31              		.cfi_startproc
  32              		@ args = 0, pretend = 0, frame = 0
  33              		@ frame_needed = 0, uses_anonymous_args = 0
  34              		@ link register save eliminated.
  35              	.LVL0:
  36              		.loc 1 46 0
  37 0000 034B     		ldr	r3, .L2
  38 0002 02EB8212 		add	r2, r2, r2, lsl #6
  39              	.LVL1:
  40 0006 03EB4212 		add	r2, r3, r2, lsl #5
  41 000a 5060     		str	r0, [r2, #4]
  42              		.loc 1 47 0
  43 000c 9160     		str	r1, [r2, #8]
  44 000e 7047     		bx	lr
  45              	.L3:
  46              		.align	2
  47              	.L2:
  48 0010 00000000 		.word	.LANCHOR0
  49              		.cfi_endproc
  50              	.LFE0:
  51              		.size	packet_init, .-packet_init
  52              		.section	.text.packet_send_packet,"ax",%progbits
  53              		.align	2
  54              		.p2align 4,,15
  55              		.global	packet_send_packet
  56              		.thumb
  57              		.thumb_func
ARM GAS  /tmp/ccsqi33F.s 			page 2


  58              		.type	packet_send_packet, %function
  59              	packet_send_packet:
  60              	.LFB1:
  61              		.loc 1 50 0
  62              		.cfi_startproc
  63              		@ args = 0, pretend = 0, frame = 0
  64              		@ frame_needed = 0, uses_anonymous_args = 0
  65              	.LVL2:
  66              		.loc 1 51 0
  67 0000 B1F5806F 		cmp	r1, #1024
  68              		.loc 1 50 0
  69 0004 2DE9F047 		push	{r4, r5, r6, r7, r8, r9, r10, lr}
  70              		.cfi_def_cfa_offset 32
  71              		.cfi_offset 4, -32
  72              		.cfi_offset 5, -28
  73              		.cfi_offset 6, -24
  74              		.cfi_offset 7, -20
  75              		.cfi_offset 8, -16
  76              		.cfi_offset 9, -12
  77              		.cfi_offset 10, -8
  78              		.cfi_offset 14, -4
  79              		.loc 1 50 0
  80 0008 0C46     		mov	r4, r1
  81              		.loc 1 51 0
  82 000a 31D8     		bhi	.L4
  83              		.loc 1 58 0
  84 000c 9501     		lsls	r5, r2, #6
  85 000e DFF87080 		ldr	r8, .L16
  86 0012 AB18     		adds	r3, r5, r2
  87              		.loc 1 57 0
  88 0014 B1F5807F 		cmp	r1, #256
  89 0018 8146     		mov	r9, r0
  90              	.LVL3:
  91              		.loc 1 58 0
  92 001a 08EB4313 		add	r3, r8, r3, lsl #5
  93              		.loc 1 57 0
  94 001e 29D9     		bls	.L15
  95              	.LVL4:
  96              		.loc 1 62 0
  97 0020 080A     		lsrs	r0, r1, #8
  98              	.LVL5:
  99              		.loc 1 61 0
 100 0022 0326     		movs	r6, #3
 101              		.loc 1 63 0
 102 0024 83F81214 		strb	r1, [r3, #1042]
 103              		.loc 1 62 0
 104 0028 83F81104 		strb	r0, [r3, #1041]
 105              		.loc 1 61 0
 106 002c 83F81064 		strb	r6, [r3, #1040]
 107              	.LVL6:
 108              	.L8:
 109              		.loc 1 66 0
 110 0030 2A44     		add	r2, r2, r5
 111              	.LVL7:
 112 0032 5501     		lsls	r5, r2, #5
 113 0034 05F58267 		add	r7, r5, #1040
 114 0038 4744     		add	r7, r7, r8
ARM GAS  /tmp/ccsqi33F.s 			page 3


 115 003a 2246     		mov	r2, r4
 116 003c 4946     		mov	r1, r9
 117              	.LVL8:
 118 003e B819     		adds	r0, r7, r6
 119 0040 FFF7FEFF 		bl	memcpy
 120              	.LVL9:
 121              		.loc 1 69 0
 122 0044 2146     		mov	r1, r4
 123 0046 4846     		mov	r0, r9
 124 0048 FFF7FEFF 		bl	crc16
 125              	.LVL10:
 126              		.loc 1 70 0
 127 004c 4544     		add	r5, r5, r8
 128              		.loc 1 67 0
 129 004e 3444     		add	r4, r4, r6
 130              	.LVL11:
 131              		.loc 1 70 0
 132 0050 2B19     		adds	r3, r5, r4
 133              		.loc 1 74 0
 134 0052 6A68     		ldr	r2, [r5, #4]
 135              		.loc 1 71 0
 136 0054 83F81104 		strb	r0, [r3, #1041]
 137              		.loc 1 72 0
 138 0058 0325     		movs	r5, #3
 139              		.loc 1 70 0
 140 005a 000A     		lsrs	r0, r0, #8
 141              	.LVL12:
 142 005c 83F81004 		strb	r0, [r3, #1040]
 143              	.LVL13:
 144              		.loc 1 72 0
 145 0060 6119     		adds	r1, r4, r5
 146              	.LVL14:
 147 0062 83F81254 		strb	r5, [r3, #1042]
 148              		.loc 1 74 0
 149 0066 1AB1     		cbz	r2, .L4
 150              		.loc 1 75 0
 151 0068 3846     		mov	r0, r7
 152              		.loc 1 77 0
 153 006a BDE8F047 		pop	{r4, r5, r6, r7, r8, r9, r10, lr}
 154              		.cfi_remember_state
 155              		.cfi_restore 14
 156              		.cfi_restore 10
 157              		.cfi_restore 9
 158              		.cfi_restore 8
 159              		.cfi_restore 7
 160              		.cfi_restore 6
 161              		.cfi_restore 5
 162              		.cfi_restore 4
 163              		.cfi_def_cfa_offset 0
 164              	.LVL15:
 165              		.loc 1 75 0
 166 006e 1047     		bx	r2	@ indirect register sibling call
 167              	.LVL16:
 168              	.L4:
 169              		.cfi_restore_state
 170 0070 BDE8F087 		pop	{r4, r5, r6, r7, r8, r9, r10, pc}
 171              	.LVL17:
ARM GAS  /tmp/ccsqi33F.s 			page 4


 172              	.L15:
 173              		.loc 1 58 0
 174 0074 0226     		movs	r6, #2
 175              		.loc 1 59 0
 176 0076 83F81114 		strb	r1, [r3, #1041]
 177              		.loc 1 58 0
 178 007a 83F81064 		strb	r6, [r3, #1040]
 179              	.LVL18:
 180 007e D7E7     		b	.L8
 181              	.L17:
 182              		.align	2
 183              	.L16:
 184 0080 00000000 		.word	.LANCHOR0
 185              		.cfi_endproc
 186              	.LFE1:
 187              		.size	packet_send_packet, .-packet_send_packet
 188              		.section	.text.packet_timerfunc,"ax",%progbits
 189              		.align	2
 190              		.p2align 4,,15
 191              		.global	packet_timerfunc
 192              		.thumb
 193              		.thumb_func
 194              		.type	packet_timerfunc, %function
 195              	packet_timerfunc:
 196              	.LFB2:
 197              		.loc 1 82 0
 198              		.cfi_startproc
 199              		@ args = 0, pretend = 0, frame = 0
 200              		@ frame_needed = 0, uses_anonymous_args = 0
 201              		@ link register save eliminated.
 202              	.LVL19:
 203              	.LBB2:
 204              		.loc 1 84 0
 205 0000 054B     		ldr	r3, .L21
 206 0002 5A78     		ldrb	r2, [r3, #1]	@ zero_extendqisi2
 207 0004 02F0FF01 		and	r1, r2, #255
 208 0008 0AB9     		cbnz	r2, .L19
 209              		.loc 1 87 0
 210 000a 1970     		strb	r1, [r3]
 211 000c 7047     		bx	lr
 212              	.L19:
 213              		.loc 1 85 0
 214 000e 5A78     		ldrb	r2, [r3, #1]	@ zero_extendqisi2
 215 0010 013A     		subs	r2, r2, #1
 216 0012 D2B2     		uxtb	r2, r2
 217 0014 5A70     		strb	r2, [r3, #1]
 218              	.LVL20:
 219 0016 7047     		bx	lr
 220              	.L22:
 221              		.align	2
 222              	.L21:
 223 0018 00000000 		.word	.LANCHOR0
 224              	.LBE2:
 225              		.cfi_endproc
 226              	.LFE2:
 227              		.size	packet_timerfunc, .-packet_timerfunc
 228              		.section	.text.packet_process_byte,"ax",%progbits
ARM GAS  /tmp/ccsqi33F.s 			page 5


 229              		.align	2
 230              		.p2align 4,,15
 231              		.global	packet_process_byte
 232              		.thumb
 233              		.thumb_func
 234              		.type	packet_process_byte, %function
 235              	packet_process_byte:
 236              	.LFB3:
 237              		.loc 1 92 0
 238              		.cfi_startproc
 239              		@ args = 0, pretend = 0, frame = 0
 240              		@ frame_needed = 0, uses_anonymous_args = 0
 241              	.LVL21:
 242 0000 2DE9F843 		push	{r3, r4, r5, r6, r7, r8, r9, lr}
 243              		.cfi_def_cfa_offset 32
 244              		.cfi_offset 3, -32
 245              		.cfi_offset 4, -28
 246              		.cfi_offset 5, -24
 247              		.cfi_offset 6, -20
 248              		.cfi_offset 7, -16
 249              		.cfi_offset 8, -12
 250              		.cfi_offset 9, -8
 251              		.cfi_offset 14, -4
 252              		.loc 1 93 0
 253 0004 8E01     		lsls	r6, r1, #6
 254 0006 7318     		adds	r3, r6, r1
 255 0008 5B01     		lsls	r3, r3, #5
 256 000a 4E4D     		ldr	r5, .L49
 257 000c EB5C     		ldrb	r3, [r5, r3]	@ zero_extendqisi2
 258              		.loc 1 92 0
 259 000e 0C46     		mov	r4, r1
 260              		.loc 1 93 0
 261 0010 062B     		cmp	r3, #6
 262 0012 21D8     		bhi	.L24
 263 0014 DFE803F0 		tbb	[pc, r3]
 264              	.L26:
 265 0018 26       		.byte	(.L25-.L26)/2
 266 0019 3A       		.byte	(.L27-.L26)/2
 267 001a 47       		.byte	(.L28-.L26)/2
 268 001b 5A       		.byte	(.L29-.L26)/2
 269 001c 78       		.byte	(.L30-.L26)/2
 270 001d 85       		.byte	(.L31-.L26)/2
 271 001e 04       		.byte	(.L32-.L26)/2
 272 001f 00       		.p2align 1
 273              	.L32:
 274              		.loc 1 150 0
 275 0020 0328     		cmp	r0, #3
 276 0022 19D1     		bne	.L24
 277              		.loc 1 151 0
 278 0024 7318     		adds	r3, r6, r1
 279 0026 5B01     		lsls	r3, r3, #5
 280 0028 05EB0308 		add	r8, r5, r3
 281 002c 1033     		adds	r3, r3, #16
 282 002e EF18     		adds	r7, r5, r3
 283 0030 D8F80C10 		ldr	r1, [r8, #12]
 284              	.LVL22:
 285 0034 3846     		mov	r0, r7
ARM GAS  /tmp/ccsqi33F.s 			page 6


 286              	.LVL23:
 287 0036 FFF7FEFF 		bl	crc16
 288              	.LVL24:
 289              		.loc 1 152 0
 290 003a 98F81D18 		ldrb	r1, [r8, #2077]	@ zero_extendqisi2
 291              		.loc 1 153 0
 292 003e 98F81C38 		ldrb	r3, [r8, #2076]	@ zero_extendqisi2
 293 0042 43EA0123 		orr	r3, r3, r1, lsl #8
 294              		.loc 1 151 0
 295 0046 9842     		cmp	r0, r3
 296 0048 06D1     		bne	.L24
 297              		.loc 1 155 0
 298 004a D8F80830 		ldr	r3, [r8, #8]
 299 004e 1BB1     		cbz	r3, .L24
 300              		.loc 1 156 0
 301 0050 3846     		mov	r0, r7
 302 0052 D8F80C10 		ldr	r1, [r8, #12]
 303 0056 9847     		blx	r3
 304              	.LVL25:
 305              	.L24:
 306              		.loc 1 165 0
 307 0058 3444     		add	r4, r4, r6
 308              	.LVL26:
 309 005a 6401     		lsls	r4, r4, #5
 310              	.L47:
 311 005c 0023     		movs	r3, #0
 312 005e 2B55     		strb	r3, [r5, r4]
 313 0060 BDE8F883 		pop	{r3, r4, r5, r6, r7, r8, r9, pc}
 314              	.LVL27:
 315              	.L25:
 316              		.loc 1 97 0
 317 0064 3444     		add	r4, r4, r6
 318              		.loc 1 95 0
 319 0066 0228     		cmp	r0, #2
 320              		.loc 1 97 0
 321 0068 4FEA4414 		lsl	r4, r4, #5
 322              		.loc 1 95 0
 323 006c 64D0     		beq	.L48
 324              		.loc 1 101 0
 325 006e 0328     		cmp	r0, #3
 326 0070 F4D1     		bne	.L47
 327              		.loc 1 103 0
 328 0072 2B5D     		ldrb	r3, [r5, r4]	@ zero_extendqisi2
 329 0074 0133     		adds	r3, r3, #1
 330 0076 2A19     		adds	r2, r5, r4
 331 0078 DBB2     		uxtb	r3, r3
 332              		.loc 1 104 0
 333 007a 0220     		movs	r0, #2
 334              	.LVL28:
 335              	.L45:
 336              		.loc 1 103 0
 337 007c 2B55     		strb	r3, [r5, r4]
 338              		.loc 1 105 0
 339 007e 0021     		movs	r1, #0
 340              	.LVL29:
 341              		.loc 1 104 0
 342 0080 5070     		strb	r0, [r2, #1]
ARM GAS  /tmp/ccsqi33F.s 			page 7


 343              		.loc 1 106 0
 344 0082 D160     		str	r1, [r2, #12]
 345              		.loc 1 105 0
 346 0084 C2F81818 		str	r1, [r2, #2072]
 347 0088 BDE8F883 		pop	{r3, r4, r5, r6, r7, r8, r9, pc}
 348              	.LVL30:
 349              	.L27:
 350              		.loc 1 113 0
 351 008c 3444     		add	r4, r4, r6
 352 008e 6401     		lsls	r4, r4, #5
 353 0090 2A19     		adds	r2, r5, r4
 354              		.loc 1 114 0
 355 0092 2B5D     		ldrb	r3, [r5, r4]	@ zero_extendqisi2
 356 0094 0133     		adds	r3, r3, #1
 357 0096 DBB2     		uxtb	r3, r3
 358              		.loc 1 115 0
 359 0098 0221     		movs	r1, #2
 360              	.LVL31:
 361              		.loc 1 114 0
 362 009a 2B55     		strb	r3, [r5, r4]
 363              		.loc 1 113 0
 364 009c 0002     		lsls	r0, r0, #8
 365              	.LVL32:
 366              		.loc 1 115 0
 367 009e 5170     		strb	r1, [r2, #1]
 368              		.loc 1 113 0
 369 00a0 D060     		str	r0, [r2, #12]
 370              		.loc 1 116 0
 371 00a2 BDE8F883 		pop	{r3, r4, r5, r6, r7, r8, r9, pc}
 372              	.LVL33:
 373              	.L28:
 374              		.loc 1 119 0
 375 00a6 3444     		add	r4, r4, r6
 376 00a8 6401     		lsls	r4, r4, #5
 377 00aa 2544     		add	r5, r5, r4
 378 00ac 2549     		ldr	r1, .L49
 379              	.LVL34:
 380 00ae EB68     		ldr	r3, [r5, #12]
 381 00b0 1843     		orrs	r0, r0, r3
 382              	.LVL35:
 383              		.loc 1 120 0
 384 00b2 431E     		subs	r3, r0, #1
 385 00b4 B3F5806F 		cmp	r3, #1024
 386              		.loc 1 119 0
 387 00b8 E860     		str	r0, [r5, #12]
 388              		.loc 1 120 0
 389 00ba 39D2     		bcs	.L36
 390              		.loc 1 122 0
 391 00bc 0B5D     		ldrb	r3, [r1, r4]	@ zero_extendqisi2
 392 00be 0133     		adds	r3, r3, #1
 393 00c0 DBB2     		uxtb	r3, r3
 394              		.loc 1 123 0
 395 00c2 0222     		movs	r2, #2
 396              		.loc 1 122 0
 397 00c4 0B55     		strb	r3, [r1, r4]
 398              		.loc 1 123 0
 399 00c6 6A70     		strb	r2, [r5, #1]
ARM GAS  /tmp/ccsqi33F.s 			page 8


 400 00c8 BDE8F883 		pop	{r3, r4, r5, r6, r7, r8, r9, pc}
 401              	.LVL36:
 402              	.L29:
 403              		.loc 1 130 0
 404 00cc 7118     		adds	r1, r6, r1
 405              	.LVL37:
 406 00ce 4901     		lsls	r1, r1, #5
 407 00d0 6A18     		adds	r2, r5, r1
 408 00d2 DFF870C0 		ldr	ip, .L49
 409 00d6 D2F81838 		ldr	r3, [r2, #2072]
 410              		.loc 1 131 0
 411 00da D768     		ldr	r7, [r2, #12]
 412              		.loc 1 130 0
 413 00dc 02EB030E 		add	lr, r2, r3
 414 00e0 0133     		adds	r3, r3, #1
 415              		.loc 1 131 0
 416 00e2 BB42     		cmp	r3, r7
 417              		.loc 1 130 0
 418 00e4 8EF81000 		strb	r0, [lr, #16]
 419 00e8 C2F81838 		str	r3, [r2, #2072]
 420              		.loc 1 131 0
 421 00ec 05D1     		bne	.L37
 422              		.loc 1 132 0
 423 00ee 1CF80130 		ldrb	r3, [ip, r1]	@ zero_extendqisi2
 424 00f2 0133     		adds	r3, r3, #1
 425 00f4 DBB2     		uxtb	r3, r3
 426 00f6 0CF80130 		strb	r3, [ip, r1]
 427              	.L37:
 428              		.loc 1 134 0
 429 00fa 3444     		add	r4, r4, r6
 430              	.LVL38:
 431 00fc 05EB4414 		add	r4, r5, r4, lsl #5
 432 0100 0223     		movs	r3, #2
 433 0102 6370     		strb	r3, [r4, #1]
 434              		.loc 1 135 0
 435 0104 BDE8F883 		pop	{r3, r4, r5, r6, r7, r8, r9, pc}
 436              	.LVL39:
 437              	.L30:
 438              		.loc 1 138 0
 439 0108 3444     		add	r4, r4, r6
 440 010a 6401     		lsls	r4, r4, #5
 441 010c 2A19     		adds	r2, r5, r4
 442              		.loc 1 139 0
 443 010e 2B5D     		ldrb	r3, [r5, r4]	@ zero_extendqisi2
 444              		.loc 1 138 0
 445 0110 82F81D08 		strb	r0, [r2, #2077]
 446              	.L46:
 447              		.loc 1 145 0
 448 0114 0133     		adds	r3, r3, #1
 449 0116 DBB2     		uxtb	r3, r3
 450              		.loc 1 146 0
 451 0118 0221     		movs	r1, #2
 452              	.LVL40:
 453              		.loc 1 145 0
 454 011a 2B55     		strb	r3, [r5, r4]
 455              		.loc 1 146 0
 456 011c 5170     		strb	r1, [r2, #1]
ARM GAS  /tmp/ccsqi33F.s 			page 9


 457              		.loc 1 147 0
 458 011e BDE8F883 		pop	{r3, r4, r5, r6, r7, r8, r9, pc}
 459              	.LVL41:
 460              	.L31:
 461              		.loc 1 144 0
 462 0122 3444     		add	r4, r4, r6
 463 0124 6401     		lsls	r4, r4, #5
 464 0126 2A19     		adds	r2, r5, r4
 465              		.loc 1 145 0
 466 0128 2B5D     		ldrb	r3, [r5, r4]	@ zero_extendqisi2
 467              		.loc 1 144 0
 468 012a 82F81C08 		strb	r0, [r2, #2076]
 469 012e F1E7     		b	.L46
 470              	.LVL42:
 471              	.L36:
 472              		.loc 1 125 0
 473 0130 0023     		movs	r3, #0
 474 0132 0B55     		strb	r3, [r1, r4]
 475 0134 BDE8F883 		pop	{r3, r4, r5, r6, r7, r8, r9, pc}
 476              	.LVL43:
 477              	.L48:
 478              		.loc 1 97 0
 479 0138 2B5D     		ldrb	r3, [r5, r4]	@ zero_extendqisi2
 480 013a 0233     		adds	r3, r3, #2
 481 013c 2A19     		adds	r2, r5, r4
 482 013e DBB2     		uxtb	r3, r3
 483 0140 9CE7     		b	.L45
 484              	.L50:
 485 0142 00BF     		.align	2
 486              	.L49:
 487 0144 00000000 		.word	.LANCHOR0
 488              		.cfi_endproc
 489              	.LFE3:
 490              		.size	packet_process_byte, .-packet_process_byte
 491              		.section	.bss.handler_states,"aw",%nobits
 492              		.align	2
 493              		.set	.LANCHOR0,. + 0
 494              		.type	handler_states, %object
 495              		.size	handler_states, 2080
 496              	handler_states:
 497 0000 00000000 		.space	2080
 497      00000000 
 497      00000000 
 497      00000000 
 497      00000000 
 498              		.text
 499              	.Letext0:
 500              		.file 2 "/usr/arm-none-eabi/include/machine/_default_types.h"
 501              		.file 3 "/usr/arm-none-eabi/include/sys/_stdint.h"
 502              		.file 4 "crc.h"