ARM GAS  /tmp/cc9eiWR2.s 			page 1


   1              		.syntax unified
   2              		.cpu cortex-m4
   3              		.eabi_attribute 27, 1
   4              		.eabi_attribute 28, 1
   5              		.fpu fpv4-sp-d16
   6              		.eabi_attribute 20, 1
   7              		.eabi_attribute 21, 1
   8              		.eabi_attribute 23, 3
   9              		.eabi_attribute 24, 1
  10              		.eabi_attribute 25, 1
  11              		.eabi_attribute 26, 1
  12              		.eabi_attribute 30, 2
  13              		.eabi_attribute 34, 1
  14              		.eabi_attribute 18, 4
  15              		.thumb
  16              		.file	"pal_lld.c"
  17              		.text
  18              	.Ltext0:
  19              		.cfi_sections	.debug_frame
  20              		.section	.text._pal_lld_init,"ax",%progbits
  21              		.align	2
  22              		.p2align 4,,15
  23              		.global	_pal_lld_init
  24              		.thumb
  25              		.thumb_func
  26              		.type	_pal_lld_init, %function
  27              	_pal_lld_init:
  28              	.LFB257:
  29              		.file 1 "ChibiOS_3.0.2/os/hal/ports/STM32/LLD/GPIOv2/pal_lld.c"
  30              		.loc 1 92 0
  31              		.cfi_startproc
  32              		@ args = 0, pretend = 0, frame = 0
  33              		@ frame_needed = 0, uses_anonymous_args = 0
  34              	.LVL0:
  35 0000 2DE9F04F 		push	{r4, r5, r6, r7, r8, r9, r10, fp, lr}
  36              		.cfi_def_cfa_offset 36
  37              		.cfi_offset 4, -36
  38              		.cfi_offset 5, -32
  39              		.cfi_offset 6, -28
  40              		.cfi_offset 7, -24
  41              		.cfi_offset 8, -20
  42              		.cfi_offset 9, -16
  43              		.cfi_offset 10, -12
  44              		.cfi_offset 11, -8
  45              		.cfi_offset 14, -4
  46              		.loc 1 105 0
  47 0004 DFF8B481 		ldr	r8, .L3+24
  48              	.LBB20:
  49              	.LBB21:
  50              		.loc 1 67 0
  51 0008 DFF8B4C1 		ldr	ip, .L3+28
  52              	.LBE21:
  53              	.LBE20:
  54              		.loc 1 105 0
  55 000c D8F830A0 		ldr	r10, [r8, #48]
  56              	.LBB23:
  57              	.LBB24:
ARM GAS  /tmp/cc9eiWR2.s 			page 2


  58              		.loc 1 67 0
  59 0010 DFF8B0E1 		ldr	lr, .L3+32
  60              	.LBE24:
  61              	.LBE23:
  62              	.LBB26:
  63              	.LBB27:
  64 0014 634F     		ldr	r7, .L3
  65              	.LBE27:
  66              	.LBE26:
  67              	.LBB29:
  68              	.LBB30:
  69 0016 644E     		ldr	r6, .L3+4
  70              	.LBE30:
  71              	.LBE29:
  72              	.LBB32:
  73              	.LBB33:
  74 0018 644D     		ldr	r5, .L3+8
  75              	.LBE33:
  76              	.LBE32:
  77              	.LBB35:
  78              	.LBB36:
  79 001a 654C     		ldr	r4, .L3+12
  80              	.LBE36:
  81              	.LBE35:
  82              	.LBB38:
  83              	.LBB39:
  84 001c 6549     		ldr	r1, .L3+16
  85              	.LBE39:
  86              	.LBE38:
  87              	.LBB41:
  88              	.LBB42:
  89 001e 664A     		ldr	r2, .L3+20
  90              	.LBE42:
  91              	.LBE41:
  92              	.LBB44:
  93              	.LBB45:
  94 0020 DFF8A4B1 		ldr	fp, .L3+36
  95              	.LBE45:
  96              	.LBE44:
  97              		.loc 1 105 0
  98 0024 40F2FF19 		movw	r9, #511
  99 0028 4AEA090A 		orr	r10, r10, r9
 100 002c C8F830A0 		str	r10, [r8, #48]
 101              		.loc 1 106 0
 102 0030 D8F850A0 		ldr	r10, [r8, #80]
 103 0034 4AEA0909 		orr	r9, r10, r9
 104 0038 C8F85090 		str	r9, [r8, #80]
 105              	.LVL1:
 106              	.LBB47:
 107              	.LBB22:
 108              		.loc 1 67 0
 109 003c 4368     		ldr	r3, [r0, #4]
 110 003e CCF80430 		str	r3, [ip, #4]
 111              		.loc 1 68 0
 112 0042 8368     		ldr	r3, [r0, #8]
 113 0044 CCF80830 		str	r3, [ip, #8]
 114              		.loc 1 69 0
ARM GAS  /tmp/cc9eiWR2.s 			page 3


 115 0048 C368     		ldr	r3, [r0, #12]
 116 004a CCF80C30 		str	r3, [ip, #12]
 117              		.loc 1 70 0
 118 004e 0369     		ldr	r3, [r0, #16]
 119 0050 CCF81430 		str	r3, [ip, #20]
 120              		.loc 1 71 0
 121 0054 4369     		ldr	r3, [r0, #20]
 122 0056 CCF82030 		str	r3, [ip, #32]
 123              		.loc 1 72 0
 124 005a 8369     		ldr	r3, [r0, #24]
 125 005c CCF82430 		str	r3, [ip, #36]
 126              		.loc 1 73 0
 127 0060 0368     		ldr	r3, [r0]
 128 0062 CCF80030 		str	r3, [ip]
 129              	.LVL2:
 130              	.LBE22:
 131              	.LBE47:
 132              	.LBB48:
 133              	.LBB25:
 134              		.loc 1 67 0
 135 0066 036A     		ldr	r3, [r0, #32]
 136 0068 CEF80430 		str	r3, [lr, #4]
 137              		.loc 1 68 0
 138 006c 436A     		ldr	r3, [r0, #36]
 139 006e CEF80830 		str	r3, [lr, #8]
 140              		.loc 1 69 0
 141 0072 836A     		ldr	r3, [r0, #40]
 142 0074 CEF80C30 		str	r3, [lr, #12]
 143              		.loc 1 70 0
 144 0078 C36A     		ldr	r3, [r0, #44]
 145 007a CEF81430 		str	r3, [lr, #20]
 146              		.loc 1 71 0
 147 007e 036B     		ldr	r3, [r0, #48]
 148 0080 CEF82030 		str	r3, [lr, #32]
 149              		.loc 1 72 0
 150 0084 436B     		ldr	r3, [r0, #52]
 151 0086 CEF82430 		str	r3, [lr, #36]
 152              		.loc 1 73 0
 153 008a C369     		ldr	r3, [r0, #28]
 154 008c CEF80030 		str	r3, [lr]
 155              	.LVL3:
 156              	.LBE25:
 157              	.LBE48:
 158              	.LBB49:
 159              	.LBB28:
 160              		.loc 1 67 0
 161 0090 C36B     		ldr	r3, [r0, #60]
 162 0092 7B60     		str	r3, [r7, #4]
 163              		.loc 1 68 0
 164 0094 036C     		ldr	r3, [r0, #64]
 165 0096 BB60     		str	r3, [r7, #8]
 166              		.loc 1 69 0
 167 0098 436C     		ldr	r3, [r0, #68]
 168 009a FB60     		str	r3, [r7, #12]
 169              		.loc 1 70 0
 170 009c 836C     		ldr	r3, [r0, #72]
 171 009e 7B61     		str	r3, [r7, #20]
ARM GAS  /tmp/cc9eiWR2.s 			page 4


 172              		.loc 1 71 0
 173 00a0 C36C     		ldr	r3, [r0, #76]
 174 00a2 3B62     		str	r3, [r7, #32]
 175              		.loc 1 72 0
 176 00a4 036D     		ldr	r3, [r0, #80]
 177 00a6 7B62     		str	r3, [r7, #36]
 178              		.loc 1 73 0
 179 00a8 836B     		ldr	r3, [r0, #56]
 180 00aa 3B60     		str	r3, [r7]
 181              	.LVL4:
 182              	.LBE28:
 183              	.LBE49:
 184              	.LBB50:
 185              	.LBB31:
 186              		.loc 1 67 0
 187 00ac 876D     		ldr	r7, [r0, #88]
 188 00ae 7760     		str	r7, [r6, #4]
 189              		.loc 1 68 0
 190 00b0 C76D     		ldr	r7, [r0, #92]
 191 00b2 B760     		str	r7, [r6, #8]
 192              		.loc 1 69 0
 193 00b4 076E     		ldr	r7, [r0, #96]
 194 00b6 F760     		str	r7, [r6, #12]
 195              		.loc 1 70 0
 196 00b8 476E     		ldr	r7, [r0, #100]
 197 00ba 7761     		str	r7, [r6, #20]
 198              		.loc 1 71 0
 199 00bc 876E     		ldr	r7, [r0, #104]
 200 00be 3762     		str	r7, [r6, #32]
 201              		.loc 1 72 0
 202 00c0 C76E     		ldr	r7, [r0, #108]
 203 00c2 7762     		str	r7, [r6, #36]
 204              		.loc 1 73 0
 205 00c4 476D     		ldr	r7, [r0, #84]
 206 00c6 3760     		str	r7, [r6]
 207              	.LVL5:
 208              	.LBE31:
 209              	.LBE50:
 210              	.LBB51:
 211              	.LBB34:
 212              		.loc 1 67 0
 213 00c8 466F     		ldr	r6, [r0, #116]
 214 00ca 6E60     		str	r6, [r5, #4]
 215              		.loc 1 68 0
 216 00cc 866F     		ldr	r6, [r0, #120]
 217 00ce AE60     		str	r6, [r5, #8]
 218              		.loc 1 69 0
 219 00d0 C66F     		ldr	r6, [r0, #124]
 220 00d2 EE60     		str	r6, [r5, #12]
 221              		.loc 1 70 0
 222 00d4 D0F88060 		ldr	r6, [r0, #128]
 223 00d8 6E61     		str	r6, [r5, #20]
 224              		.loc 1 71 0
 225 00da D0F88460 		ldr	r6, [r0, #132]
 226 00de 2E62     		str	r6, [r5, #32]
 227              		.loc 1 72 0
 228 00e0 D0F88860 		ldr	r6, [r0, #136]
ARM GAS  /tmp/cc9eiWR2.s 			page 5


 229 00e4 6E62     		str	r6, [r5, #36]
 230              		.loc 1 73 0
 231 00e6 066F     		ldr	r6, [r0, #112]
 232 00e8 2E60     		str	r6, [r5]
 233              	.LVL6:
 234              	.LBE34:
 235              	.LBE51:
 236              	.LBB52:
 237              	.LBB37:
 238              		.loc 1 67 0
 239 00ea D0F89050 		ldr	r5, [r0, #144]
 240 00ee 6560     		str	r5, [r4, #4]
 241              		.loc 1 68 0
 242 00f0 D0F89450 		ldr	r5, [r0, #148]
 243 00f4 A560     		str	r5, [r4, #8]
 244              		.loc 1 69 0
 245 00f6 D0F89850 		ldr	r5, [r0, #152]
 246 00fa E560     		str	r5, [r4, #12]
 247              		.loc 1 70 0
 248 00fc D0F89C50 		ldr	r5, [r0, #156]
 249 0100 6561     		str	r5, [r4, #20]
 250              		.loc 1 71 0
 251 0102 D0F8A050 		ldr	r5, [r0, #160]
 252 0106 2562     		str	r5, [r4, #32]
 253              		.loc 1 72 0
 254 0108 D0F8A450 		ldr	r5, [r0, #164]
 255 010c 6562     		str	r5, [r4, #36]
 256              		.loc 1 73 0
 257 010e D0F88C50 		ldr	r5, [r0, #140]
 258 0112 2560     		str	r5, [r4]
 259              	.LVL7:
 260              	.LBE37:
 261              	.LBE52:
 262              	.LBB53:
 263              	.LBB40:
 264              		.loc 1 67 0
 265 0114 D0F8AC40 		ldr	r4, [r0, #172]
 266 0118 4C60     		str	r4, [r1, #4]
 267              		.loc 1 68 0
 268 011a D0F8B040 		ldr	r4, [r0, #176]
 269 011e 8C60     		str	r4, [r1, #8]
 270              		.loc 1 69 0
 271 0120 D0F8B440 		ldr	r4, [r0, #180]
 272 0124 CC60     		str	r4, [r1, #12]
 273              		.loc 1 70 0
 274 0126 D0F8B840 		ldr	r4, [r0, #184]
 275 012a 4C61     		str	r4, [r1, #20]
 276              		.loc 1 71 0
 277 012c D0F8BC40 		ldr	r4, [r0, #188]
 278 0130 0C62     		str	r4, [r1, #32]
 279              		.loc 1 72 0
 280 0132 D0F8C040 		ldr	r4, [r0, #192]
 281 0136 4C62     		str	r4, [r1, #36]
 282              		.loc 1 73 0
 283 0138 D0F8A840 		ldr	r4, [r0, #168]
 284 013c 0C60     		str	r4, [r1]
 285              	.LVL8:
ARM GAS  /tmp/cc9eiWR2.s 			page 6


 286              	.LBE40:
 287              	.LBE53:
 288              	.LBB54:
 289              	.LBB43:
 290              		.loc 1 67 0
 291 013e D0F8C810 		ldr	r1, [r0, #200]
 292 0142 5160     		str	r1, [r2, #4]
 293              		.loc 1 68 0
 294 0144 D0F8CC10 		ldr	r1, [r0, #204]
 295 0148 9160     		str	r1, [r2, #8]
 296              		.loc 1 69 0
 297 014a D0F8D010 		ldr	r1, [r0, #208]
 298 014e D160     		str	r1, [r2, #12]
 299              		.loc 1 70 0
 300 0150 D0F8D410 		ldr	r1, [r0, #212]
 301 0154 5161     		str	r1, [r2, #20]
 302              		.loc 1 71 0
 303 0156 D0F8D810 		ldr	r1, [r0, #216]
 304 015a 1162     		str	r1, [r2, #32]
 305              		.loc 1 72 0
 306 015c D0F8DC10 		ldr	r1, [r0, #220]
 307 0160 5162     		str	r1, [r2, #36]
 308              		.loc 1 73 0
 309 0162 D0F8C410 		ldr	r1, [r0, #196]
 310 0166 1160     		str	r1, [r2]
 311              	.LVL9:
 312              	.LBE43:
 313              	.LBE54:
 314              	.LBB55:
 315              	.LBB46:
 316              		.loc 1 67 0
 317 0168 D0F8E420 		ldr	r2, [r0, #228]
 318 016c CBF80420 		str	r2, [fp, #4]
 319              		.loc 1 68 0
 320 0170 D0F8E820 		ldr	r2, [r0, #232]
 321 0174 CBF80820 		str	r2, [fp, #8]
 322              		.loc 1 69 0
 323 0178 D0F8EC20 		ldr	r2, [r0, #236]
 324 017c CBF80C20 		str	r2, [fp, #12]
 325              		.loc 1 70 0
 326 0180 D0F8F020 		ldr	r2, [r0, #240]
 327 0184 CBF81420 		str	r2, [fp, #20]
 328              		.loc 1 71 0
 329 0188 D0F8F420 		ldr	r2, [r0, #244]
 330 018c CBF82020 		str	r2, [fp, #32]
 331              		.loc 1 72 0
 332 0190 D0F8F820 		ldr	r2, [r0, #248]
 333 0194 CBF82420 		str	r2, [fp, #36]
 334              		.loc 1 73 0
 335 0198 D0F8E020 		ldr	r2, [r0, #224]
 336 019c CBF80020 		str	r2, [fp]
 337 01a0 BDE8F08F 		pop	{r4, r5, r6, r7, r8, r9, r10, fp, pc}
 338              	.L4:
 339              		.align	2
 340              	.L3:
 341 01a4 00080240 		.word	1073874944
 342 01a8 000C0240 		.word	1073875968
ARM GAS  /tmp/cc9eiWR2.s 			page 7


 343 01ac 00100240 		.word	1073876992
 344 01b0 00140240 		.word	1073878016
 345 01b4 00180240 		.word	1073879040
 346 01b8 001C0240 		.word	1073880064
 347 01bc 00380240 		.word	1073887232
 348 01c0 00000240 		.word	1073872896
 349 01c4 00040240 		.word	1073873920
 350 01c8 00200240 		.word	1073881088
 351              	.LBE46:
 352              	.LBE55:
 353              		.cfi_endproc
 354              	.LFE257:
 355              		.size	_pal_lld_init, .-_pal_lld_init
 356              		.section	.text._pal_lld_setgroupmode,"ax",%progbits
 357              		.align	2
 358              		.p2align 4,,15
 359              		.global	_pal_lld_setgroupmode
 360              		.thumb
 361              		.thumb_func
 362              		.type	_pal_lld_setgroupmode, %function
 363              	_pal_lld_setgroupmode:
 364              	.LFB258:
 365              		.loc 1 157 0
 366              		.cfi_startproc
 367              		@ args = 0, pretend = 0, frame = 0
 368              		@ frame_needed = 0, uses_anonymous_args = 0
 369              	.LVL10:
 370 0000 2DE9F04F 		push	{r4, r5, r6, r7, r8, r9, r10, fp, lr}
 371              		.cfi_def_cfa_offset 36
 372              		.cfi_offset 4, -36
 373              		.cfi_offset 5, -32
 374              		.cfi_offset 6, -28
 375              		.cfi_offset 7, -24
 376              		.cfi_offset 8, -20
 377              		.cfi_offset 9, -16
 378              		.cfi_offset 10, -12
 379              		.cfi_offset 11, -8
 380              		.cfi_offset 14, -4
 381              	.LBB56:
 382              		.loc 1 170 0
 383 0004 4FF00F0C 		mov	ip, #15
 384              	.LBE56:
 385              		.loc 1 159 0
 386 0008 02F0030E 		and	lr, r2, #3
 387              	.LVL11:
 388              		.loc 1 160 0
 389 000c C2F38007 		ubfx	r7, r2, #2, #1
 390              	.LVL12:
 391              		.loc 1 161 0
 392 0010 C2F3C106 		ubfx	r6, r2, #3, #2
 393              	.LVL13:
 394              		.loc 1 162 0
 395 0014 C2F34115 		ubfx	r5, r2, #5, #2
 396              	.LVL14:
 397              		.loc 1 164 0
 398 0018 0024     		movs	r4, #0
 399              		.loc 1 163 0
ARM GAS  /tmp/cc9eiWR2.s 			page 8


 400 001a C2F3C312 		ubfx	r2, r2, #7, #4
 401              	.LVL15:
 402              	.LBB57:
 403              		.loc 1 175 0
 404 001e 4FF00109 		mov	r9, #1
 405              		.loc 1 177 0
 406 0022 4FF00308 		mov	r8, #3
 407 0026 2BE0     		b	.L10
 408              	.LVL16:
 409              	.L16:
 410              		.loc 1 172 0
 411 0028 D0F820B0 		ldr	fp, [r0, #32]
 412 002c 2BEA0303 		bic	r3, fp, r3
 413              	.LVL17:
 414 0030 43EA0A03 		orr	r3, r3, r10
 415 0034 0362     		str	r3, [r0, #32]
 416              	.L8:
 417              	.LVL18:
 418              		.loc 1 176 0
 419 0036 4368     		ldr	r3, [r0, #4]
 420              		.loc 1 175 0
 421 0038 09FA04FA 		lsl	r10, r9, r4
 422              	.LVL19:
 423              		.loc 1 176 0
 424 003c 23EA0A03 		bic	r3, r3, r10
 425 0040 3B43     		orrs	r3, r3, r7
 426 0042 4360     		str	r3, [r0, #4]
 427              	.LVL20:
 428 0044 4FEA440A 		lsl	r10, r4, #1
 429              		.loc 1 178 0
 430 0048 8368     		ldr	r3, [r0, #8]
 431              		.loc 1 177 0
 432 004a 08FA0AFA 		lsl	r10, r8, r10
 433              		.loc 1 178 0
 434 004e 6FEA0A0A 		mvn	r10, r10
 435 0052 0AEA0303 		and	r3, r10, r3
 436 0056 3343     		orrs	r3, r3, r6
 437 0058 8360     		str	r3, [r0, #8]
 438              		.loc 1 179 0
 439 005a C368     		ldr	r3, [r0, #12]
 440 005c 0AEA0303 		and	r3, r10, r3
 441 0060 2B43     		orrs	r3, r3, r5
 442 0062 C360     		str	r3, [r0, #12]
 443              		.loc 1 180 0
 444 0064 0368     		ldr	r3, [r0]
 445 0066 0AEA0303 		and	r3, r10, r3
 446 006a 43EA0E03 		orr	r3, r3, lr
 447 006e 0360     		str	r3, [r0]
 448              	.LVL21:
 449              	.L6:
 450              	.LBE57:
 451              		.loc 1 183 0
 452 0070 4908     		lsrs	r1, r1, #1
 453              	.LVL22:
 454 0072 19D0     		beq	.L5
 455              		.loc 1 185 0
 456 0074 7F00     		lsls	r7, r7, #1
ARM GAS  /tmp/cc9eiWR2.s 			page 9


 457              	.LVL23:
 458              		.loc 1 186 0
 459 0076 B600     		lsls	r6, r6, #2
 460              	.LVL24:
 461              		.loc 1 187 0
 462 0078 AD00     		lsls	r5, r5, #2
 463              	.LVL25:
 464              		.loc 1 188 0
 465 007a 4FEA8E0E 		lsl	lr, lr, #2
 466              	.LVL26:
 467              		.loc 1 189 0
 468 007e 0134     		adds	r4, r4, #1
 469              	.LVL27:
 470              	.L10:
 471              	.LBB58:
 472              		.loc 1 169 0
 473 0080 04F00703 		and	r3, r4, #7
 474 0084 9B00     		lsls	r3, r3, #2
 475              	.LBE58:
 476              		.loc 1 166 0
 477 0086 11F0010F 		tst	r1, #1
 478              	.LBB59:
 479              		.loc 1 169 0
 480 008a 02FA03FA 		lsl	r10, r2, r3
 481              	.LVL28:
 482              		.loc 1 170 0
 483 008e 0CFA03F3 		lsl	r3, ip, r3
 484              	.LVL29:
 485              	.LBE59:
 486              		.loc 1 166 0
 487 0092 EDD0     		beq	.L6
 488              	.LBB60:
 489              		.loc 1 171 0
 490 0094 072C     		cmp	r4, #7
 491 0096 C7D9     		bls	.L16
 492              		.loc 1 174 0
 493 0098 D0F824B0 		ldr	fp, [r0, #36]
 494 009c 2BEA0303 		bic	r3, fp, r3
 495              	.LVL30:
 496 00a0 43EA0A03 		orr	r3, r3, r10
 497 00a4 4362     		str	r3, [r0, #36]
 498 00a6 C6E7     		b	.L8
 499              	.LVL31:
 500              	.L5:
 501 00a8 BDE8F08F 		pop	{r4, r5, r6, r7, r8, r9, r10, fp, pc}
 502              	.LBE60:
 503              		.cfi_endproc
 504              	.LFE258:
 505              		.size	_pal_lld_setgroupmode, .-_pal_lld_setgroupmode
 506              		.text
 507              	.Letext0:
 508              		.file 2 "/usr/arm-none-eabi/include/machine/_default_types.h"
 509              		.file 3 "/usr/arm-none-eabi/include/sys/_stdint.h"
 510              		.file 4 "ChibiOS_3.0.2/os/rt/ports/ARMCMx/compilers/GCC/chtypes.h"
 511              		.file 5 "ChibiOS_3.0.2/os/rt/include/chsystypes.h"
 512              		.file 6 "ChibiOS_3.0.2/os/rt/include/chschd.h"
 513              		.file 7 "ChibiOS_3.0.2/os/ext/CMSIS/ST/stm32f407xx.h"
ARM GAS  /tmp/cc9eiWR2.s 			page 10


 514              		.file 8 "ChibiOS_3.0.2/os/rt/ports/ARMCMx/chcore.h"
 515              		.file 9 "ChibiOS_3.0.2/os/rt/ports/ARMCMx/chcore_v7m.h"
 516              		.file 10 "ChibiOS_3.0.2/os/rt/include/chtm.h"
 517              		.file 11 "ChibiOS_3.0.2/os/rt/include/chsem.h"
 518              		.file 12 "ChibiOS_3.0.2/os/rt/include/chmtx.h"
 519              		.file 13 "ChibiOS_3.0.2/os/hal/ports/STM32/LLD/GPIOv2/pal_lld.h"
 520              		.file 14 "ChibiOS_3.0.2/os/ext/CMSIS/include/core_cm4.h"