ARM GAS  /tmp/cceeDsjZ.s 			page 1


   1              		.syntax unified
   2              		.cpu cortex-m4
   3              		.eabi_attribute 27, 1
   4              		.eabi_attribute 28, 1
   5              		.fpu fpv4-sp-d16
   6              		.eabi_attribute 20, 1
   7              		.eabi_attribute 21, 1
   8              		.eabi_attribute 23, 3
   9              		.eabi_attribute 24, 1
  10              		.eabi_attribute 25, 1
  11              		.eabi_attribute 26, 1
  12              		.eabi_attribute 30, 2
  13              		.eabi_attribute 34, 1
  14              		.eabi_attribute 18, 4
  15              		.thumb
  16              		.file	"pwm_lld.c"
  17              		.text
  18              	.Ltext0:
  19              		.cfi_sections	.debug_frame
  20              		.section	.text.VectorB4,"ax",%progbits
  21              		.align	2
  22              		.p2align 4,,15
  23              		.global	VectorB4
  24              		.thumb
  25              		.thumb_func
  26              		.type	VectorB4, %function
  27              	VectorB4:
  28              	.LFB257:
  29              		.file 1 "ChibiOS_3.0.2/os/hal/ports/STM32/LLD/TIMv1/pwm_lld.c"
  30              		.loc 1 227 0
  31              		.cfi_startproc
  32              		@ args = 0, pretend = 0, frame = 0
  33              		@ frame_needed = 0, uses_anonymous_args = 0
  34              	.LVL0:
  35 0000 38B5     		push	{r3, r4, r5, lr}
  36              		.cfi_def_cfa_offset 16
  37              		.cfi_offset 3, -16
  38              		.cfi_offset 4, -12
  39              		.cfi_offset 5, -8
  40              		.cfi_offset 14, -4
  41              	.LBB4:
  42              	.LBB5:
  43              		.loc 1 114 0
  44 0002 174D     		ldr	r5, .L39
  45 0004 AB69     		ldr	r3, [r5, #24]
  46 0006 1A69     		ldr	r2, [r3, #16]
  47              	.LVL1:
  48              		.loc 1 115 0
  49 0008 DC68     		ldr	r4, [r3, #12]
  50 000a 1440     		ands	r4, r4, r2
  51              	.LVL2:
  52 000c E2B2     		uxtb	r2, r4
  53              		.loc 1 116 0
  54 000e D243     		mvns	r2, r2
  55 0010 1A61     		str	r2, [r3, #16]
  56              		.loc 1 117 0
  57 0012 A307     		lsls	r3, r4, #30
ARM GAS  /tmp/cceeDsjZ.s 			page 2


  58 0014 04D5     		bpl	.L2
  59              		.loc 1 118 0
  60 0016 6B68     		ldr	r3, [r5, #4]
  61 0018 1B69     		ldr	r3, [r3, #16]
  62              		.loc 1 117 0
  63 001a 0BB1     		cbz	r3, .L2
  64              		.loc 1 119 0
  65 001c 2846     		mov	r0, r5
  66 001e 9847     		blx	r3
  67              	.LVL3:
  68              	.L2:
  69              		.loc 1 120 0
  70 0020 6007     		lsls	r0, r4, #29
  71 0022 04D5     		bpl	.L3
  72              		.loc 1 121 0
  73 0024 6B68     		ldr	r3, [r5, #4]
  74 0026 9B69     		ldr	r3, [r3, #24]
  75              		.loc 1 120 0
  76 0028 0BB1     		cbz	r3, .L3
  77              		.loc 1 122 0
  78 002a 0D48     		ldr	r0, .L39
  79 002c 9847     		blx	r3
  80              	.LVL4:
  81              	.L3:
  82              		.loc 1 123 0
  83 002e 2107     		lsls	r1, r4, #28
  84 0030 04D5     		bpl	.L4
  85              		.loc 1 124 0
  86 0032 6B68     		ldr	r3, [r5, #4]
  87 0034 1B6A     		ldr	r3, [r3, #32]
  88              		.loc 1 123 0
  89 0036 0BB1     		cbz	r3, .L4
  90              		.loc 1 125 0
  91 0038 0948     		ldr	r0, .L39
  92 003a 9847     		blx	r3
  93              	.LVL5:
  94              	.L4:
  95              		.loc 1 126 0
  96 003c E206     		lsls	r2, r4, #27
  97 003e 04D5     		bpl	.L5
  98              		.loc 1 127 0
  99 0040 6B68     		ldr	r3, [r5, #4]
 100 0042 9B6A     		ldr	r3, [r3, #40]
 101              		.loc 1 126 0
 102 0044 0BB1     		cbz	r3, .L5
 103              		.loc 1 128 0
 104 0046 0648     		ldr	r0, .L39
 105 0048 9847     		blx	r3
 106              	.LVL6:
 107              	.L5:
 108              		.loc 1 129 0
 109 004a E307     		lsls	r3, r4, #31
 110 004c 04D5     		bpl	.L6
 111 004e 6B68     		ldr	r3, [r5, #4]
 112 0050 9B68     		ldr	r3, [r3, #8]
 113 0052 0BB1     		cbz	r3, .L6
 114              		.loc 1 130 0
ARM GAS  /tmp/cceeDsjZ.s 			page 3


 115 0054 0248     		ldr	r0, .L39
 116 0056 9847     		blx	r3
 117              	.LVL7:
 118              	.L6:
 119              	.LBE5:
 120              	.LBE4:
 121              		.loc 1 234 0
 122 0058 BDE83840 		pop	{r3, r4, r5, lr}
 123              		.cfi_restore 14
 124              		.cfi_restore 5
 125              		.cfi_restore 4
 126              		.cfi_restore 3
 127              		.cfi_def_cfa_offset 0
 128              	.LVL8:
 129              		.loc 1 233 0
 130 005c FFF7FEBF 		b	_port_irq_epilogue
 131              	.LVL9:
 132              	.L40:
 133              		.align	2
 134              	.L39:
 135 0060 00000000 		.word	.LANCHOR0
 136              		.cfi_endproc
 137              	.LFE257:
 138              		.size	VectorB4, .-VectorB4
 139              		.section	.text.pwm_lld_init,"ax",%progbits
 140              		.align	2
 141              		.p2align 4,,15
 142              		.global	pwm_lld_init
 143              		.thumb
 144              		.thumb_func
 145              		.type	pwm_lld_init, %function
 146              	pwm_lld_init:
 147              	.LFB258:
 148              		.loc 1 364 0
 149              		.cfi_startproc
 150              		@ args = 0, pretend = 0, frame = 0
 151              		@ frame_needed = 0, uses_anonymous_args = 0
 152 0000 10B5     		push	{r4, lr}
 153              		.cfi_def_cfa_offset 8
 154              		.cfi_offset 4, -8
 155              		.cfi_offset 14, -4
 156              		.loc 1 382 0
 157 0002 044C     		ldr	r4, .L43
 158 0004 2046     		mov	r0, r4
 159 0006 FFF7FEFF 		bl	pwmObjectInit
 160              	.LVL10:
 161              		.loc 1 383 0
 162 000a 0422     		movs	r2, #4
 163              		.loc 1 384 0
 164 000c 024B     		ldr	r3, .L43+4
 165              		.loc 1 383 0
 166 000e 2274     		strb	r2, [r4, #16]
 167              		.loc 1 384 0
 168 0010 A361     		str	r3, [r4, #24]
 169 0012 10BD     		pop	{r4, pc}
 170              	.L44:
 171              		.align	2
ARM GAS  /tmp/cceeDsjZ.s 			page 4


 172              	.L43:
 173 0014 00000000 		.word	.LANCHOR0
 174 0018 00040040 		.word	1073742848
 175              		.cfi_endproc
 176              	.LFE258:
 177              		.size	pwm_lld_init, .-pwm_lld_init
 178              		.section	.text.pwm_lld_start,"ax",%progbits
 179              		.align	2
 180              		.p2align 4,,15
 181              		.global	pwm_lld_start
 182              		.thumb
 183              		.thumb_func
 184              		.type	pwm_lld_start, %function
 185              	pwm_lld_start:
 186              	.LFB259:
 187              		.loc 1 425 0
 188              		.cfi_startproc
 189              		@ args = 0, pretend = 0, frame = 0
 190              		@ frame_needed = 0, uses_anonymous_args = 0
 191              	.LVL11:
 192 0000 F8B5     		push	{r3, r4, r5, r6, r7, lr}
 193              		.cfi_def_cfa_offset 24
 194              		.cfi_offset 3, -24
 195              		.cfi_offset 4, -20
 196              		.cfi_offset 5, -16
 197              		.cfi_offset 6, -12
 198              		.cfi_offset 7, -8
 199              		.cfi_offset 14, -4
 200              		.loc 1 429 0
 201 0002 0378     		ldrb	r3, [r0]	@ zero_extendqisi2
 202 0004 012B     		cmp	r3, #1
 203              		.loc 1 425 0
 204 0006 0446     		mov	r4, r0
 205              		.loc 1 429 0
 206 0008 4BD0     		beq	.L73
 207              		.loc 1 512 0
 208 000a 8369     		ldr	r3, [r0, #24]
 209 000c 0022     		movs	r2, #0
 210 000e 1A60     		str	r2, [r3]
 211              		.loc 1 513 0
 212 0010 5A63     		str	r2, [r3, #52]
 213              		.loc 1 514 0
 214 0012 9A63     		str	r2, [r3, #56]
 215              		.loc 1 515 0
 216 0014 DA63     		str	r2, [r3, #60]
 217              		.loc 1 516 0
 218 0016 1A64     		str	r2, [r3, #64]
 219              		.loc 1 523 0
 220 0018 5A62     		str	r2, [r3, #36]
 221              	.LVL12:
 222              	.L48:
 223              		.loc 1 527 0
 224 001a 6168     		ldr	r1, [r4, #4]
 225              		.loc 1 532 0
 226 001c A568     		ldr	r5, [r4, #8]
 227              		.loc 1 537 0
 228 001e CA68     		ldr	r2, [r1, #12]
ARM GAS  /tmp/cceeDsjZ.s 			page 5


 229              		.loc 1 527 0
 230 0020 6069     		ldr	r0, [r4, #20]
 231 0022 0F68     		ldr	r7, [r1]
 232              		.loc 1 533 0
 233 0024 CE6A     		ldr	r6, [r1, #44]
 234              		.loc 1 527 0
 235 0026 B0FBF7F0 		udiv	r0, r0, r7
 236              		.loc 1 537 0
 237 002a 02F00F02 		and	r2, r2, #15
 238              		.loc 1 532 0
 239 002e 6C1E     		subs	r4, r5, #1
 240              	.LVL13:
 241              		.loc 1 527 0
 242 0030 0138     		subs	r0, r0, #1
 243              	.LVL14:
 244              		.loc 1 537 0
 245 0032 012A     		cmp	r2, #1
 246              		.loc 1 531 0
 247 0034 9862     		str	r0, [r3, #40]
 248              		.loc 1 532 0
 249 0036 DC62     		str	r4, [r3, #44]
 250              		.loc 1 533 0
 251 0038 5E60     		str	r6, [r3, #4]
 252              	.LVL15:
 253              		.loc 1 537 0
 254 003a 03D0     		beq	.L49
 255              		.loc 1 536 0
 256 003c 022A     		cmp	r2, #2
 257 003e 0CBF     		ite	eq
 258 0040 0322     		moveq	r2, #3
 259 0042 0022     		movne	r2, #0
 260              	.L49:
 261              	.LVL16:
 262              		.loc 1 545 0
 263 0044 4869     		ldr	r0, [r1, #20]
 264              	.LVL17:
 265 0046 00F00F00 		and	r0, r0, #15
 266 004a 0128     		cmp	r0, #1
 267 004c 26D0     		beq	.L53
 268 004e 0228     		cmp	r0, #2
 269 0050 22D0     		beq	.L74
 270              	.L52:
 271              		.loc 1 553 0
 272 0052 C869     		ldr	r0, [r1, #28]
 273 0054 00F00F00 		and	r0, r0, #15
 274 0058 0128     		cmp	r0, #1
 275 005a 1AD0     		beq	.L56
 276 005c 0228     		cmp	r0, #2
 277 005e 16D0     		beq	.L75
 278              	.L55:
 279              		.loc 1 561 0
 280 0060 486A     		ldr	r0, [r1, #36]
 281 0062 00F00F00 		and	r0, r0, #15
 282 0066 0128     		cmp	r0, #1
 283 0068 03D0     		beq	.L59
 284 006a 0228     		cmp	r0, #2
 285 006c 03D1     		bne	.L58
ARM GAS  /tmp/cceeDsjZ.s 			page 6


 286              		.loc 1 563 0
 287 006e 42F40052 		orr	r2, r2, #8192
 288              	.LVL18:
 289              	.L59:
 290              		.loc 1 565 0
 291 0072 42F48052 		orr	r2, r2, #4096
 292              	.LVL19:
 293              	.L58:
 294              		.loc 1 609 0
 295 0076 096B     		ldr	r1, [r1, #48]
 296              		.loc 1 606 0
 297 0078 1A62     		str	r2, [r3, #32]
 298              		.loc 1 607 0
 299 007a 0124     		movs	r4, #1
 300              		.loc 1 609 0
 301 007c 21F0FF02 		bic	r2, r1, #255
 302              	.LVL20:
 303              		.loc 1 608 0
 304 0080 0020     		movs	r0, #0
 305              		.loc 1 619 0
 306 0082 8521     		movs	r1, #133
 307              		.loc 1 607 0
 308 0084 5C61     		str	r4, [r3, #20]
 309              	.LVL21:
 310              		.loc 1 608 0
 311 0086 1861     		str	r0, [r3, #16]
 312              		.loc 1 609 0
 313 0088 DA60     		str	r2, [r3, #12]
 314              		.loc 1 619 0
 315 008a 1960     		str	r1, [r3]
 316 008c F8BD     		pop	{r3, r4, r5, r6, r7, pc}
 317              	.LVL22:
 318              	.L75:
 319              		.loc 1 555 0
 320 008e 42F40072 		orr	r2, r2, #512
 321              	.LVL23:
 322              	.L56:
 323              		.loc 1 557 0
 324 0092 42F48072 		orr	r2, r2, #256
 325              	.LVL24:
 326 0096 E3E7     		b	.L55
 327              	.L74:
 328              		.loc 1 547 0
 329 0098 42F02002 		orr	r2, r2, #32
 330              	.LVL25:
 331              	.L53:
 332              		.loc 1 549 0
 333 009c 42F01002 		orr	r2, r2, #16
 334              	.LVL26:
 335 00a0 D7E7     		b	.L52
 336              	.LVL27:
 337              	.L73:
 338              		.loc 1 453 0
 339 00a2 0D4B     		ldr	r3, .L77
 340 00a4 9842     		cmp	r0, r3
 341 00a6 05D0     		beq	.L76
 342              	.LVL28:
ARM GAS  /tmp/cceeDsjZ.s 			page 7


 343              	.L47:
 344              		.loc 1 501 0
 345 00a8 A369     		ldr	r3, [r4, #24]
 346 00aa 46F66802 		movw	r2, #26728
 347 00ae 9A61     		str	r2, [r3, #24]
 348              		.loc 1 503 0
 349 00b0 DA61     		str	r2, [r3, #28]
 350 00b2 B2E7     		b	.L48
 351              	.LVL29:
 352              	.L76:
 353              		.loc 1 454 0
 354 00b4 094B     		ldr	r3, .L77+4
 355 00b6 1A6C     		ldr	r2, [r3, #64]
 356 00b8 42F00202 		orr	r2, r2, #2
 357 00bc 1A64     		str	r2, [r3, #64]
 358              		.loc 1 455 0
 359 00be 1A6A     		ldr	r2, [r3, #32]
 360 00c0 0021     		movs	r1, #0
 361 00c2 42F00202 		orr	r2, r2, #2
 362 00c6 1A62     		str	r2, [r3, #32]
 363              		.loc 1 456 0
 364 00c8 1D20     		movs	r0, #29
 365              	.LVL30:
 366              		.loc 1 455 0
 367 00ca 1962     		str	r1, [r3, #32]
 368              		.loc 1 456 0
 369 00cc 0721     		movs	r1, #7
 370 00ce FFF7FEFF 		bl	nvicEnableVector
 371              	.LVL31:
 372              		.loc 1 457 0
 373 00d2 034B     		ldr	r3, .L77+8
 374 00d4 6361     		str	r3, [r4, #20]
 375 00d6 E7E7     		b	.L47
 376              	.L78:
 377              		.align	2
 378              	.L77:
 379 00d8 00000000 		.word	.LANCHOR0
 380 00dc 00380240 		.word	1073887232
 381 00e0 00BD0105 		.word	84000000
 382              		.cfi_endproc
 383              	.LFE259:
 384              		.size	pwm_lld_start, .-pwm_lld_start
 385              		.section	.text.pwm_lld_stop,"ax",%progbits
 386              		.align	2
 387              		.p2align 4,,15
 388              		.global	pwm_lld_stop
 389              		.thumb
 390              		.thumb_func
 391              		.type	pwm_lld_stop, %function
 392              	pwm_lld_stop:
 393              	.LFB260:
 394              		.loc 1 630 0
 395              		.cfi_startproc
 396              		@ args = 0, pretend = 0, frame = 0
 397              		@ frame_needed = 0, uses_anonymous_args = 0
 398              	.LVL32:
 399 0000 08B5     		push	{r3, lr}
ARM GAS  /tmp/cceeDsjZ.s 			page 8


 400              		.cfi_def_cfa_offset 8
 401              		.cfi_offset 3, -8
 402              		.cfi_offset 14, -4
 403              		.loc 1 633 0
 404 0002 0378     		ldrb	r3, [r0]	@ zero_extendqisi2
 405 0004 022B     		cmp	r3, #2
 406 0006 00D0     		beq	.L84
 407              	.LVL33:
 408              	.L79:
 409 0008 08BD     		pop	{r3, pc}
 410              	.LVL34:
 411              	.L84:
 412              		.loc 1 655 0
 413 000a 0849     		ldr	r1, .L85
 414              		.loc 1 634 0
 415 000c 8369     		ldr	r3, [r0, #24]
 416 000e 0022     		movs	r2, #0
 417              		.loc 1 655 0
 418 0010 8842     		cmp	r0, r1
 419              		.loc 1 634 0
 420 0012 1A60     		str	r2, [r3]
 421              		.loc 1 635 0
 422 0014 DA60     		str	r2, [r3, #12]
 423              		.loc 1 636 0
 424 0016 1A61     		str	r2, [r3, #16]
 425              		.loc 1 655 0
 426 0018 F6D1     		bne	.L79
 427              		.loc 1 656 0
 428 001a 1D20     		movs	r0, #29
 429              	.LVL35:
 430 001c FFF7FEFF 		bl	nvicDisableVector
 431              	.LVL36:
 432              		.loc 1 657 0
 433 0020 034A     		ldr	r2, .L85+4
 434 0022 136C     		ldr	r3, [r2, #64]
 435 0024 23F00203 		bic	r3, r3, #2
 436 0028 1364     		str	r3, [r2, #64]
 437 002a EDE7     		b	.L79
 438              	.L86:
 439              		.align	2
 440              	.L85:
 441 002c 00000000 		.word	.LANCHOR0
 442 0030 00380240 		.word	1073887232
 443              		.cfi_endproc
 444              	.LFE260:
 445              		.size	pwm_lld_stop, .-pwm_lld_stop
 446              		.section	.text.pwm_lld_enable_channel,"ax",%progbits
 447              		.align	2
 448              		.p2align 4,,15
 449              		.global	pwm_lld_enable_channel
 450              		.thumb
 451              		.thumb_func
 452              		.type	pwm_lld_enable_channel, %function
 453              	pwm_lld_enable_channel:
 454              	.LFB261:
 455              		.loc 1 703 0
 456              		.cfi_startproc
ARM GAS  /tmp/cceeDsjZ.s 			page 9


 457              		@ args = 0, pretend = 0, frame = 0
 458              		@ frame_needed = 0, uses_anonymous_args = 0
 459              		@ link register save eliminated.
 460              	.LVL37:
 461              		.loc 1 707 0
 462 0000 8369     		ldr	r3, [r0, #24]
 463 0002 0C31     		adds	r1, r1, #12
 464              	.LVL38:
 465 0004 03EB8103 		add	r3, r3, r1, lsl #2
 466 0008 5A60     		str	r2, [r3, #4]
 467 000a 7047     		bx	lr
 468              		.cfi_endproc
 469              	.LFE261:
 470              		.size	pwm_lld_enable_channel, .-pwm_lld_enable_channel
 471              		.section	.text.pwm_lld_disable_channel,"ax",%progbits
 472              		.align	2
 473              		.p2align 4,,15
 474              		.global	pwm_lld_disable_channel
 475              		.thumb
 476              		.thumb_func
 477              		.type	pwm_lld_disable_channel, %function
 478              	pwm_lld_disable_channel:
 479              	.LFB262:
 480              		.loc 1 728 0
 481              		.cfi_startproc
 482              		@ args = 0, pretend = 0, frame = 0
 483              		@ frame_needed = 0, uses_anonymous_args = 0
 484              		@ link register save eliminated.
 485              	.LVL39:
 486              		.loc 1 731 0
 487 0000 8369     		ldr	r3, [r0, #24]
 488 0002 01F10C02 		add	r2, r1, #12
 489 0006 03EB8202 		add	r2, r3, r2, lsl #2
 490 000a 0020     		movs	r0, #0
 491              	.LVL40:
 492 000c 5060     		str	r0, [r2, #4]
 493              		.loc 1 732 0
 494 000e D868     		ldr	r0, [r3, #12]
 495 0010 0222     		movs	r2, #2
 496 0012 8A40     		lsls	r2, r2, r1
 497 0014 20EA0202 		bic	r2, r0, r2
 498 0018 DA60     		str	r2, [r3, #12]
 499 001a 7047     		bx	lr
 500              		.cfi_endproc
 501              	.LFE262:
 502              		.size	pwm_lld_disable_channel, .-pwm_lld_disable_channel
 503              		.section	.text.pwm_lld_enable_periodic_notification,"ax",%progbits
 504              		.align	2
 505              		.p2align 4,,15
 506              		.global	pwm_lld_enable_periodic_notification
 507              		.thumb
 508              		.thumb_func
 509              		.type	pwm_lld_enable_periodic_notification, %function
 510              	pwm_lld_enable_periodic_notification:
 511              	.LFB263:
 512              		.loc 1 752 0
 513              		.cfi_startproc
ARM GAS  /tmp/cceeDsjZ.s 			page 10


 514              		@ args = 0, pretend = 0, frame = 0
 515              		@ frame_needed = 0, uses_anonymous_args = 0
 516              		@ link register save eliminated.
 517              	.LVL41:
 518              		.loc 1 753 0
 519 0000 8369     		ldr	r3, [r0, #24]
 520 0002 DA68     		ldr	r2, [r3, #12]
 521              	.LVL42:
 522              		.loc 1 757 0
 523 0004 D107     		lsls	r1, r2, #31
 524 0006 06D4     		bmi	.L89
 525              		.loc 1 758 0
 526 0008 42F00102 		orr	r2, r2, #1
 527              	.LVL43:
 528 000c DA60     		str	r2, [r3, #12]
 529              		.loc 1 759 0
 530 000e 1A69     		ldr	r2, [r3, #16]
 531 0010 02F00102 		and	r2, r2, #1
 532 0014 1A61     		str	r2, [r3, #16]
 533              	.L89:
 534 0016 7047     		bx	lr
 535              		.cfi_endproc
 536              	.LFE263:
 537              		.size	pwm_lld_enable_periodic_notification, .-pwm_lld_enable_periodic_notification
 538              		.section	.text.pwm_lld_disable_periodic_notification,"ax",%progbits
 539              		.align	2
 540              		.p2align 4,,15
 541              		.global	pwm_lld_disable_periodic_notification
 542              		.thumb
 543              		.thumb_func
 544              		.type	pwm_lld_disable_periodic_notification, %function
 545              	pwm_lld_disable_periodic_notification:
 546              	.LFB264:
 547              		.loc 1 772 0
 548              		.cfi_startproc
 549              		@ args = 0, pretend = 0, frame = 0
 550              		@ frame_needed = 0, uses_anonymous_args = 0
 551              		@ link register save eliminated.
 552              	.LVL44:
 553              		.loc 1 774 0
 554 0000 8269     		ldr	r2, [r0, #24]
 555 0002 D368     		ldr	r3, [r2, #12]
 556 0004 23F00103 		bic	r3, r3, #1
 557 0008 D360     		str	r3, [r2, #12]
 558 000a 7047     		bx	lr
 559              		.cfi_endproc
 560              	.LFE264:
 561              		.size	pwm_lld_disable_periodic_notification, .-pwm_lld_disable_periodic_notification
 562              		.section	.text.pwm_lld_enable_channel_notification,"ax",%progbits
 563              		.align	2
 564              		.p2align 4,,15
 565              		.global	pwm_lld_enable_channel_notification
 566              		.thumb
 567              		.thumb_func
 568              		.type	pwm_lld_enable_channel_notification, %function
 569              	pwm_lld_enable_channel_notification:
 570              	.LFB265:
ARM GAS  /tmp/cceeDsjZ.s 			page 11


 571              		.loc 1 789 0
 572              		.cfi_startproc
 573              		@ args = 0, pretend = 0, frame = 0
 574              		@ frame_needed = 0, uses_anonymous_args = 0
 575              		@ link register save eliminated.
 576              	.LVL45:
 577              		.loc 1 790 0
 578 0000 8069     		ldr	r0, [r0, #24]
 579              	.LVL46:
 580              		.loc 1 799 0
 581 0002 0223     		movs	r3, #2
 582              		.loc 1 790 0
 583 0004 C268     		ldr	r2, [r0, #12]
 584              	.LVL47:
 585              		.loc 1 799 0
 586 0006 8B40     		lsls	r3, r3, r1
 587 0008 1342     		tst	r3, r2
 588 000a 03D1     		bne	.L92
 589              		.loc 1 800 0
 590 000c 1A43     		orrs	r2, r2, r3
 591              	.LVL48:
 592              		.loc 1 801 0
 593 000e DB43     		mvns	r3, r3
 594              		.loc 1 800 0
 595 0010 C260     		str	r2, [r0, #12]
 596              		.loc 1 801 0
 597 0012 0361     		str	r3, [r0, #16]
 598              	.L92:
 599 0014 7047     		bx	lr
 600              		.cfi_endproc
 601              	.LFE265:
 602              		.size	pwm_lld_enable_channel_notification, .-pwm_lld_enable_channel_notification
 603 0016 00BF     		.section	.text.pwm_lld_disable_channel_notification,"ax",%progbits
 604              		.align	2
 605              		.p2align 4,,15
 606              		.global	pwm_lld_disable_channel_notification
 607              		.thumb
 608              		.thumb_func
 609              		.type	pwm_lld_disable_channel_notification, %function
 610              	pwm_lld_disable_channel_notification:
 611              	.LFB266:
 612              		.loc 1 817 0
 613              		.cfi_startproc
 614              		@ args = 0, pretend = 0, frame = 0
 615              		@ frame_needed = 0, uses_anonymous_args = 0
 616              		@ link register save eliminated.
 617              	.LVL49:
 618              		.loc 1 819 0
 619 0000 8069     		ldr	r0, [r0, #24]
 620              	.LVL50:
 621 0002 0222     		movs	r2, #2
 622 0004 C368     		ldr	r3, [r0, #12]
 623 0006 8A40     		lsls	r2, r2, r1
 624 0008 23EA0203 		bic	r3, r3, r2
 625 000c C360     		str	r3, [r0, #12]
 626 000e 7047     		bx	lr
 627              		.cfi_endproc
ARM GAS  /tmp/cceeDsjZ.s 			page 12


 628              	.LFE266:
 629              		.size	pwm_lld_disable_channel_notification, .-pwm_lld_disable_channel_notification
 630              		.global	PWMD3
 631              		.section	.bss.PWMD3,"aw",%nobits
 632              		.align	2
 633              		.set	.LANCHOR0,. + 0
 634              		.type	PWMD3, %object
 635              		.size	PWMD3, 28
 636              	PWMD3:
 637 0000 00000000 		.space	28
 637      00000000 
 637      00000000 
 637      00000000 
 637      00000000 
 638              		.text
 639              	.Letext0:
 640              		.file 2 "/usr/lib/gcc/arm-none-eabi/4.9.3/include/stddef.h"
 641              		.file 3 "/usr/arm-none-eabi/include/machine/_default_types.h"
 642              		.file 4 "/usr/arm-none-eabi/include/sys/_stdint.h"
 643              		.file 5 "ChibiOS_3.0.2/os/rt/ports/ARMCMx/compilers/GCC/chtypes.h"
 644              		.file 6 "ChibiOS_3.0.2/os/rt/include/chsystypes.h"
 645              		.file 7 "ChibiOS_3.0.2/os/rt/include/chschd.h"
 646              		.file 8 "ChibiOS_3.0.2/os/ext/CMSIS/ST/stm32f407xx.h"
 647              		.file 9 "ChibiOS_3.0.2/os/rt/ports/ARMCMx/chcore.h"
 648              		.file 10 "ChibiOS_3.0.2/os/rt/ports/ARMCMx/chcore_v7m.h"
 649              		.file 11 "ChibiOS_3.0.2/os/rt/include/chtm.h"
 650              		.file 12 "ChibiOS_3.0.2/os/rt/include/chsem.h"
 651              		.file 13 "ChibiOS_3.0.2/os/rt/include/chmtx.h"
 652              		.file 14 "ChibiOS_3.0.2/os/hal/include/pwm.h"
 653              		.file 15 "ChibiOS_3.0.2/os/hal/ports/STM32/LLD/TIMv1/pwm_lld.h"
 654              		.file 16 "ChibiOS_3.0.2/os/hal/ports/STM32/LLD/TIMv1/stm32_tim.h"
 655              		.file 17 "ChibiOS_3.0.2/os/ext/CMSIS/include/core_cm4.h"
 656              		.file 18 "ChibiOS_3.0.2/os/hal/ports/common/ARMCMx/nvic.h"
 657              		.section	.debug_info,"",%progbits
 658              	.Ldebug_info0:
 659 0000 E20E0000 		.4byte	0xee2
 660 0004 0400     		.2byte	0x4
 661 0006 00000000 		.4byte	.Ldebug_abbrev0
 662 000a 04       		.byte	0x4
 663 000b 01       		.uleb128 0x1
 664 000c BD060000 		.4byte	.LASF184
 665 0010 01       		.byte	0x1
 666 0011 DE010000 		.4byte	.LASF185
 667 0015 19050000 		.4byte	.LASF186
 668 0019 00000000 		.4byte	.Ldebug_ranges0+0
 669 001d 00000000 		.4byte	0
 670 0021 00000000 		.4byte	.Ldebug_line0
 671 0025 02       		.uleb128 0x2
 672 0026 04       		.byte	0x4
 673 0027 07       		.byte	0x7
 674 0028 8F020000 		.4byte	.LASF0
 675 002c 03       		.uleb128 0x3
 676 002d 04       		.byte	0x4
 677 002e 05       		.byte	0x5
 678 002f 696E7400 		.ascii	"int\000"
 679 0033 04       		.uleb128 0x4
 680 0034 2E000000 		.4byte	.LASF2
ARM GAS  /tmp/cceeDsjZ.s 			page 13


 681 0038 02       		.byte	0x2
 682 0039 D4       		.byte	0xd4
 683 003a 25000000 		.4byte	0x25
 684 003e 02       		.uleb128 0x2
 685 003f 01       		.byte	0x1
 686 0040 06       		.byte	0x6
 687 0041 40010000 		.4byte	.LASF1
 688 0045 04       		.uleb128 0x4
 689 0046 5D000000 		.4byte	.LASF3
 690 004a 03       		.byte	0x3
 691 004b 1D       		.byte	0x1d
 692 004c 50000000 		.4byte	0x50
 693 0050 02       		.uleb128 0x2
 694 0051 01       		.byte	0x1
 695 0052 08       		.byte	0x8
 696 0053 68050000 		.4byte	.LASF4
 697 0057 02       		.uleb128 0x2
 698 0058 02       		.byte	0x2
 699 0059 05       		.byte	0x5
 700 005a A7050000 		.4byte	.LASF5
 701 005e 02       		.uleb128 0x2
 702 005f 02       		.byte	0x2
 703 0060 07       		.byte	0x7
 704 0061 31020000 		.4byte	.LASF6
 705 0065 04       		.uleb128 0x4
 706 0066 BD030000 		.4byte	.LASF7
 707 006a 03       		.byte	0x3
 708 006b 3F       		.byte	0x3f
 709 006c 70000000 		.4byte	0x70
 710 0070 02       		.uleb128 0x2
 711 0071 04       		.byte	0x4
 712 0072 05       		.byte	0x5
 713 0073 87010000 		.4byte	.LASF8
 714 0077 04       		.uleb128 0x4
 715 0078 0B080000 		.4byte	.LASF9
 716 007c 03       		.byte	0x3
 717 007d 41       		.byte	0x41
 718 007e 82000000 		.4byte	0x82
 719 0082 02       		.uleb128 0x2
 720 0083 04       		.byte	0x4
 721 0084 07       		.byte	0x7
 722 0085 6C060000 		.4byte	.LASF10
 723 0089 02       		.uleb128 0x2
 724 008a 08       		.byte	0x8
 725 008b 05       		.byte	0x5
 726 008c 6C020000 		.4byte	.LASF11
 727 0090 04       		.uleb128 0x4
 728 0091 95040000 		.4byte	.LASF12
 729 0095 03       		.byte	0x3
 730 0096 5B       		.byte	0x5b
 731 0097 9B000000 		.4byte	0x9b
 732 009b 02       		.uleb128 0x2
 733 009c 08       		.byte	0x8
 734 009d 07       		.byte	0x7
 735 009e 9A000000 		.4byte	.LASF13
 736 00a2 04       		.uleb128 0x4
 737 00a3 B7080000 		.4byte	.LASF14
ARM GAS  /tmp/cceeDsjZ.s 			page 14


 738 00a7 04       		.byte	0x4
 739 00a8 14       		.byte	0x14
 740 00a9 45000000 		.4byte	0x45
 741 00ad 04       		.uleb128 0x4
 742 00ae 60050000 		.4byte	.LASF15
 743 00b2 04       		.byte	0x4
 744 00b3 1F       		.byte	0x1f
 745 00b4 65000000 		.4byte	0x65
 746 00b8 04       		.uleb128 0x4
 747 00b9 4C060000 		.4byte	.LASF16
 748 00bd 04       		.byte	0x4
 749 00be 20       		.byte	0x20
 750 00bf 77000000 		.4byte	0x77
 751 00c3 04       		.uleb128 0x4
 752 00c4 54000000 		.4byte	.LASF17
 753 00c8 04       		.byte	0x4
 754 00c9 26       		.byte	0x26
 755 00ca 90000000 		.4byte	0x90
 756 00ce 05       		.uleb128 0x5
 757 00cf AD000000 		.4byte	0xad
 758 00d3 05       		.uleb128 0x5
 759 00d4 B8000000 		.4byte	0xb8
 760 00d8 04       		.uleb128 0x4
 761 00d9 64080000 		.4byte	.LASF18
 762 00dd 05       		.byte	0x5
 763 00de 45       		.byte	0x45
 764 00df B8000000 		.4byte	0xb8
 765 00e3 04       		.uleb128 0x4
 766 00e4 F8080000 		.4byte	.LASF19
 767 00e8 05       		.byte	0x5
 768 00e9 48       		.byte	0x48
 769 00ea A2000000 		.4byte	0xa2
 770 00ee 04       		.uleb128 0x4
 771 00ef D5010000 		.4byte	.LASF20
 772 00f3 05       		.byte	0x5
 773 00f4 49       		.byte	0x49
 774 00f5 A2000000 		.4byte	0xa2
 775 00f9 04       		.uleb128 0x4
 776 00fa C6040000 		.4byte	.LASF21
 777 00fe 05       		.byte	0x5
 778 00ff 4A       		.byte	0x4a
 779 0100 A2000000 		.4byte	0xa2
 780 0104 04       		.uleb128 0x4
 781 0105 65010000 		.4byte	.LASF22
 782 0109 05       		.byte	0x5
 783 010a 4B       		.byte	0x4b
 784 010b A2000000 		.4byte	0xa2
 785 010f 04       		.uleb128 0x4
 786 0110 11050000 		.4byte	.LASF23
 787 0114 05       		.byte	0x5
 788 0115 4C       		.byte	0x4c
 789 0116 B8000000 		.4byte	0xb8
 790 011a 04       		.uleb128 0x4
 791 011b 28030000 		.4byte	.LASF24
 792 011f 05       		.byte	0x5
 793 0120 4D       		.byte	0x4d
 794 0121 AD000000 		.4byte	0xad
ARM GAS  /tmp/cceeDsjZ.s 			page 15


 795 0125 04       		.uleb128 0x4
 796 0126 87030000 		.4byte	.LASF25
 797 012a 05       		.byte	0x5
 798 012b 4F       		.byte	0x4f
 799 012c B8000000 		.4byte	0xb8
 800 0130 04       		.uleb128 0x4
 801 0131 89020000 		.4byte	.LASF26
 802 0135 05       		.byte	0x5
 803 0136 51       		.byte	0x51
 804 0137 AD000000 		.4byte	0xad
 805 013b 04       		.uleb128 0x4
 806 013c ED070000 		.4byte	.LASF27
 807 0140 06       		.byte	0x6
 808 0141 33       		.byte	0x33
 809 0142 B8000000 		.4byte	0xb8
 810 0146 04       		.uleb128 0x4
 811 0147 A3080000 		.4byte	.LASF28
 812 014b 06       		.byte	0x6
 813 014c 3F       		.byte	0x3f
 814 014d 51010000 		.4byte	0x151
 815 0151 06       		.uleb128 0x6
 816 0152 08030000 		.4byte	.LASF50
 817 0156 48       		.byte	0x48
 818 0157 07       		.byte	0x7
 819 0158 C2       		.byte	0xc2
 820 0159 56020000 		.4byte	0x256
 821 015d 07       		.uleb128 0x7
 822 015e 32040000 		.4byte	.LASF29
 823 0162 07       		.byte	0x7
 824 0163 C3       		.byte	0xc3
 825 0164 61020000 		.4byte	0x261
 826 0168 00       		.byte	0
 827 0169 07       		.uleb128 0x7
 828 016a 00050000 		.4byte	.LASF30
 829 016e 07       		.byte	0x7
 830 016f C5       		.byte	0xc5
 831 0170 61020000 		.4byte	0x261
 832 0174 04       		.byte	0x4
 833 0175 07       		.uleb128 0x7
 834 0176 0C010000 		.4byte	.LASF31
 835 017a 07       		.byte	0x7
 836 017b C7       		.byte	0xc7
 837 017c 0F010000 		.4byte	0x10f
 838 0180 08       		.byte	0x8
 839 0181 07       		.uleb128 0x7
 840 0182 35090000 		.4byte	.LASF32
 841 0186 07       		.byte	0x7
 842 0187 C8       		.byte	0xc8
 843 0188 4C060000 		.4byte	0x64c
 844 018c 0C       		.byte	0xc
 845 018d 07       		.uleb128 0x7
 846 018e 21020000 		.4byte	.LASF33
 847 0192 07       		.byte	0x7
 848 0193 CA       		.byte	0xca
 849 0194 61020000 		.4byte	0x261
 850 0198 10       		.byte	0x10
 851 0199 07       		.uleb128 0x7
ARM GAS  /tmp/cceeDsjZ.s 			page 16


 852 019a 4C040000 		.4byte	.LASF34
 853 019e 07       		.byte	0x7
 854 019f CB       		.byte	0xcb
 855 01a0 61020000 		.4byte	0x261
 856 01a4 14       		.byte	0x14
 857 01a5 07       		.uleb128 0x7
 858 01a6 E4080000 		.4byte	.LASF35
 859 01aa 07       		.byte	0x7
 860 01ab D2       		.byte	0xd2
 861 01ac 91080000 		.4byte	0x891
 862 01b0 18       		.byte	0x18
 863 01b1 07       		.uleb128 0x7
 864 01b2 B1050000 		.4byte	.LASF36
 865 01b6 07       		.byte	0x7
 866 01b7 DD       		.byte	0xdd
 867 01b8 EE000000 		.4byte	0xee
 868 01bc 1C       		.byte	0x1c
 869 01bd 07       		.uleb128 0x7
 870 01be E7050000 		.4byte	.LASF37
 871 01c2 07       		.byte	0x7
 872 01c3 E1       		.byte	0xe1
 873 01c4 E3000000 		.4byte	0xe3
 874 01c8 1D       		.byte	0x1d
 875 01c9 07       		.uleb128 0x7
 876 01ca 9C080000 		.4byte	.LASF38
 877 01ce 07       		.byte	0x7
 878 01cf E6       		.byte	0xe6
 879 01d0 F9000000 		.4byte	0xf9
 880 01d4 1E       		.byte	0x1e
 881 01d5 07       		.uleb128 0x7
 882 01d6 B9050000 		.4byte	.LASF39
 883 01da 07       		.byte	0x7
 884 01db EC       		.byte	0xec
 885 01dc 04010000 		.4byte	0x104
 886 01e0 1F       		.byte	0x1f
 887 01e1 07       		.uleb128 0x7
 888 01e2 B6020000 		.4byte	.LASF40
 889 01e6 07       		.byte	0x7
 890 01e7 F3       		.byte	0xf3
 891 01e8 A3080000 		.4byte	0x8a3
 892 01ec 20       		.byte	0x20
 893 01ed 08       		.uleb128 0x8
 894 01ee 705F7500 		.ascii	"p_u\000"
 895 01f2 07       		.byte	0x7
 896 01f3 3101     		.2byte	0x131
 897 01f5 CC070000 		.4byte	0x7cc
 898 01f9 24       		.byte	0x24
 899 01fa 09       		.uleb128 0x9
 900 01fb EF030000 		.4byte	.LASF41
 901 01ff 07       		.byte	0x7
 902 0200 3601     		.2byte	0x136
 903 0202 67020000 		.4byte	0x267
 904 0206 28       		.byte	0x28
 905 0207 09       		.uleb128 0x9
 906 0208 D8020000 		.4byte	.LASF42
 907 020c 07       		.byte	0x7
 908 020d 3C01     		.2byte	0x13c
ARM GAS  /tmp/cceeDsjZ.s 			page 17


 909 020f 8B020000 		.4byte	0x28b
 910 0213 2C       		.byte	0x2c
 911 0214 09       		.uleb128 0x9
 912 0215 0E090000 		.4byte	.LASF43
 913 0219 07       		.byte	0x7
 914 021a 4001     		.2byte	0x140
 915 021c 1A010000 		.4byte	0x11a
 916 0220 34       		.byte	0x34
 917 0221 09       		.uleb128 0x9
 918 0222 39040000 		.4byte	.LASF44
 919 0226 07       		.byte	0x7
 920 0227 4601     		.2byte	0x146
 921 0229 25010000 		.4byte	0x125
 922 022d 38       		.byte	0x38
 923 022e 09       		.uleb128 0x9
 924 022f 9D050000 		.4byte	.LASF45
 925 0233 07       		.byte	0x7
 926 0234 4D01     		.2byte	0x14d
 927 0236 8B080000 		.4byte	0x88b
 928 023a 3C       		.byte	0x3c
 929 023b 09       		.uleb128 0x9
 930 023c F7070000 		.4byte	.LASF46
 931 0240 07       		.byte	0x7
 932 0241 5101     		.2byte	0x151
 933 0243 0F010000 		.4byte	0x10f
 934 0247 40       		.byte	0x40
 935 0248 09       		.uleb128 0x9
 936 0249 4C020000 		.4byte	.LASF47
 937 024d 07       		.byte	0x7
 938 024e 5801     		.2byte	0x158
 939 0250 3E030000 		.4byte	0x33e
 940 0254 44       		.byte	0x44
 941 0255 00       		.byte	0
 942 0256 04       		.uleb128 0x4
 943 0257 02040000 		.4byte	.LASF48
 944 025b 06       		.byte	0x6
 945 025c 44       		.byte	0x44
 946 025d 61020000 		.4byte	0x261
 947 0261 0A       		.uleb128 0xa
 948 0262 04       		.byte	0x4
 949 0263 46010000 		.4byte	0x146
 950 0267 04       		.uleb128 0x4
 951 0268 00000000 		.4byte	.LASF49
 952 026c 06       		.byte	0x6
 953 026d 49       		.byte	0x49
 954 026e 72020000 		.4byte	0x272
 955 0272 06       		.uleb128 0x6
 956 0273 37030000 		.4byte	.LASF51
 957 0277 04       		.byte	0x4
 958 0278 07       		.byte	0x7
 959 0279 B0       		.byte	0xb0
 960 027a 8B020000 		.4byte	0x28b
 961 027e 07       		.uleb128 0x7
 962 027f 32040000 		.4byte	.LASF29
 963 0283 07       		.byte	0x7
 964 0284 B1       		.byte	0xb1
 965 0285 61020000 		.4byte	0x261
ARM GAS  /tmp/cceeDsjZ.s 			page 18


 966 0289 00       		.byte	0
 967 028a 00       		.byte	0
 968 028b 04       		.uleb128 0x4
 969 028c 83080000 		.4byte	.LASF52
 970 0290 06       		.byte	0x6
 971 0291 50       		.byte	0x50
 972 0292 96020000 		.4byte	0x296
 973 0296 06       		.uleb128 0x6
 974 0297 73000000 		.4byte	.LASF53
 975 029b 08       		.byte	0x8
 976 029c 07       		.byte	0x7
 977 029d B7       		.byte	0xb7
 978 029e BB020000 		.4byte	0x2bb
 979 02a2 07       		.uleb128 0x7
 980 02a3 32040000 		.4byte	.LASF29
 981 02a7 07       		.byte	0x7
 982 02a8 B8       		.byte	0xb8
 983 02a9 61020000 		.4byte	0x261
 984 02ad 00       		.byte	0
 985 02ae 07       		.uleb128 0x7
 986 02af 00050000 		.4byte	.LASF30
 987 02b3 07       		.byte	0x7
 988 02b4 B9       		.byte	0xb9
 989 02b5 61020000 		.4byte	0x261
 990 02b9 04       		.byte	0x4
 991 02ba 00       		.byte	0
 992 02bb 04       		.uleb128 0x4
 993 02bc 1C000000 		.4byte	.LASF54
 994 02c0 06       		.byte	0x6
 995 02c1 57       		.byte	0x57
 996 02c2 C6020000 		.4byte	0x2c6
 997 02c6 0B       		.uleb128 0xb
 998 02c7 79030000 		.4byte	.LASF55
 999 02cb 1C       		.byte	0x1c
 1000 02cc 07       		.byte	0x7
 1001 02cd 9001     		.2byte	0x190
 1002 02cf 22030000 		.4byte	0x322
 1003 02d3 09       		.uleb128 0x9
 1004 02d4 5C060000 		.4byte	.LASF56
 1005 02d8 07       		.byte	0x7
 1006 02d9 9101     		.2byte	0x191
 1007 02db 8B020000 		.4byte	0x28b
 1008 02df 00       		.byte	0
 1009 02e0 09       		.uleb128 0x9
 1010 02e1 CD050000 		.4byte	.LASF57
 1011 02e5 07       		.byte	0x7
 1012 02e6 9201     		.2byte	0x192
 1013 02e8 0F010000 		.4byte	0x10f
 1014 02ec 08       		.byte	0x8
 1015 02ed 09       		.uleb128 0x9
 1016 02ee 61040000 		.4byte	.LASF58
 1017 02f2 07       		.byte	0x7
 1018 02f3 9401     		.2byte	0x194
 1019 02f5 4C060000 		.4byte	0x64c
 1020 02f9 0C       		.byte	0xc
 1021 02fa 09       		.uleb128 0x9
 1022 02fb 44020000 		.4byte	.LASF59
ARM GAS  /tmp/cceeDsjZ.s 			page 19


 1023 02ff 07       		.byte	0x7
 1024 0300 9701     		.2byte	0x197
 1025 0302 61020000 		.4byte	0x261
 1026 0306 10       		.byte	0x10
 1027 0307 09       		.uleb128 0x9
 1028 0308 3F080000 		.4byte	.LASF60
 1029 030c 07       		.byte	0x7
 1030 030d 9801     		.2byte	0x198
 1031 030f 61020000 		.4byte	0x261
 1032 0313 14       		.byte	0x14
 1033 0314 09       		.uleb128 0x9
 1034 0315 82040000 		.4byte	.LASF61
 1035 0319 07       		.byte	0x7
 1036 031a 9B01     		.2byte	0x19b
 1037 031c 61020000 		.4byte	0x261
 1038 0320 18       		.byte	0x18
 1039 0321 00       		.byte	0
 1040 0322 04       		.uleb128 0x4
 1041 0323 02080000 		.4byte	.LASF62
 1042 0327 06       		.byte	0x6
 1043 0328 5C       		.byte	0x5c
 1044 0329 2D030000 		.4byte	0x32d
 1045 032d 0A       		.uleb128 0xa
 1046 032e 04       		.byte	0x4
 1047 032f 33030000 		.4byte	0x333
 1048 0333 0C       		.uleb128 0xc
 1049 0334 3E030000 		.4byte	0x33e
 1050 0338 0D       		.uleb128 0xd
 1051 0339 3E030000 		.4byte	0x33e
 1052 033d 00       		.byte	0
 1053 033e 0E       		.uleb128 0xe
 1054 033f 04       		.byte	0x4
 1055 0340 04       		.uleb128 0x4
 1056 0341 DF030000 		.4byte	.LASF63
 1057 0345 06       		.byte	0x6
 1058 0346 61       		.byte	0x61
 1059 0347 4B030000 		.4byte	0x34b
 1060 034b 0B       		.uleb128 0xb
 1061 034c 12060000 		.4byte	.LASF64
 1062 0350 14       		.byte	0x14
 1063 0351 07       		.byte	0x7
 1064 0352 6B01     		.2byte	0x16b
 1065 0354 9A030000 		.4byte	0x39a
 1066 0358 09       		.uleb128 0x9
 1067 0359 9C020000 		.4byte	.LASF65
 1068 035d 07       		.byte	0x7
 1069 035e 6C01     		.2byte	0x16c
 1070 0360 A8080000 		.4byte	0x8a8
 1071 0364 00       		.byte	0
 1072 0365 09       		.uleb128 0x9
 1073 0366 5D020000 		.4byte	.LASF66
 1074 036a 07       		.byte	0x7
 1075 036b 6D01     		.2byte	0x16d
 1076 036d A8080000 		.4byte	0x8a8
 1077 0371 04       		.byte	0x4
 1078 0372 09       		.uleb128 0x9
 1079 0373 CF020000 		.4byte	.LASF67
ARM GAS  /tmp/cceeDsjZ.s 			page 20


 1080 0377 07       		.byte	0x7
 1081 0378 6E01     		.2byte	0x16e
 1082 037a 3B010000 		.4byte	0x13b
 1083 037e 08       		.byte	0x8
 1084 037f 09       		.uleb128 0x9
 1085 0380 3B090000 		.4byte	.LASF68
 1086 0384 07       		.byte	0x7
 1087 0385 6F01     		.2byte	0x16f
 1088 0387 22030000 		.4byte	0x322
 1089 038b 0C       		.byte	0xc
 1090 038c 09       		.uleb128 0x9
 1091 038d 6C080000 		.4byte	.LASF69
 1092 0391 07       		.byte	0x7
 1093 0392 7101     		.2byte	0x171
 1094 0394 3E030000 		.4byte	0x33e
 1095 0398 10       		.byte	0x10
 1096 0399 00       		.byte	0
 1097 039a 04       		.uleb128 0x4
 1098 039b C5000000 		.4byte	.LASF70
 1099 039f 06       		.byte	0x6
 1100 03a0 66       		.byte	0x66
 1101 03a1 A5030000 		.4byte	0x3a5
 1102 03a5 0B       		.uleb128 0xb
 1103 03a6 15040000 		.4byte	.LASF71
 1104 03aa 10       		.byte	0x10
 1105 03ab 07       		.byte	0x7
 1106 03ac 7B01     		.2byte	0x17b
 1107 03ae E7030000 		.4byte	0x3e7
 1108 03b2 09       		.uleb128 0x9
 1109 03b3 9C020000 		.4byte	.LASF65
 1110 03b7 07       		.byte	0x7
 1111 03b8 7C01     		.2byte	0x17c
 1112 03ba A8080000 		.4byte	0x8a8
 1113 03be 00       		.byte	0
 1114 03bf 09       		.uleb128 0x9
 1115 03c0 5D020000 		.4byte	.LASF66
 1116 03c4 07       		.byte	0x7
 1117 03c5 7E01     		.2byte	0x17e
 1118 03c7 A8080000 		.4byte	0x8a8
 1119 03cb 04       		.byte	0x4
 1120 03cc 09       		.uleb128 0x9
 1121 03cd CF020000 		.4byte	.LASF67
 1122 03d1 07       		.byte	0x7
 1123 03d2 8001     		.2byte	0x180
 1124 03d4 3B010000 		.4byte	0x13b
 1125 03d8 08       		.byte	0x8
 1126 03d9 09       		.uleb128 0x9
 1127 03da C4020000 		.4byte	.LASF72
 1128 03de 07       		.byte	0x7
 1129 03df 8201     		.2byte	0x182
 1130 03e1 A3080000 		.4byte	0x8a3
 1131 03e5 0C       		.byte	0xc
 1132 03e6 00       		.byte	0
 1133 03e7 04       		.uleb128 0x4
 1134 03e8 84000000 		.4byte	.LASF73
 1135 03ec 06       		.byte	0x6
 1136 03ed 6B       		.byte	0x6b
ARM GAS  /tmp/cceeDsjZ.s 			page 21


 1137 03ee F2030000 		.4byte	0x3f2
 1138 03f2 0B       		.uleb128 0xb
 1139 03f3 4A050000 		.4byte	.LASF74
 1140 03f7 04       		.byte	0x4
 1141 03f8 07       		.byte	0x7
 1142 03f9 A201     		.2byte	0x1a2
 1143 03fb 0D040000 		.4byte	0x40d
 1144 03ff 09       		.uleb128 0x9
 1145 0400 16080000 		.4byte	.LASF75
 1146 0404 07       		.byte	0x7
 1147 0405 AA01     		.2byte	0x1aa
 1148 0407 AE080000 		.4byte	0x8ae
 1149 040b 00       		.byte	0
 1150 040c 00       		.byte	0
 1151 040d 04       		.uleb128 0x4
 1152 040e 47080000 		.4byte	.LASF76
 1153 0412 06       		.byte	0x6
 1154 0413 70       		.byte	0x70
 1155 0414 18040000 		.4byte	0x418
 1156 0418 0F       		.uleb128 0xf
 1157 0419 F8050000 		.4byte	.LASF77
 1158 041d 5802     		.2byte	0x258
 1159 041f 07       		.byte	0x7
 1160 0420 C201     		.2byte	0x1c2
 1161 0422 74040000 		.4byte	0x474
 1162 0426 09       		.uleb128 0x9
 1163 0427 B1080000 		.4byte	.LASF78
 1164 042b 07       		.byte	0x7
 1165 042c C601     		.2byte	0x1c6
 1166 042e BB020000 		.4byte	0x2bb
 1167 0432 00       		.byte	0
 1168 0433 09       		.uleb128 0x9
 1169 0434 65020000 		.4byte	.LASF79
 1170 0438 07       		.byte	0x7
 1171 0439 CA01     		.2byte	0x1ca
 1172 043b 9A030000 		.4byte	0x39a
 1173 043f 1C       		.byte	0x1c
 1174 0440 08       		.uleb128 0x8
 1175 0441 64626700 		.ascii	"dbg\000"
 1176 0445 07       		.byte	0x7
 1177 0446 CE01     		.2byte	0x1ce
 1178 0448 E7030000 		.4byte	0x3e7
 1179 044c 2C       		.byte	0x2c
 1180 044d 09       		.uleb128 0x9
 1181 044e BA000000 		.4byte	.LASF80
 1182 0452 07       		.byte	0x7
 1183 0453 D201     		.2byte	0x1d2
 1184 0455 46010000 		.4byte	0x146
 1185 0459 30       		.byte	0x30
 1186 045a 08       		.uleb128 0x8
 1187 045b 746D00   		.ascii	"tm\000"
 1188 045e 07       		.byte	0x7
 1189 045f D701     		.2byte	0x1d7
 1190 0461 C1070000 		.4byte	0x7c1
 1191 0465 78       		.byte	0x78
 1192 0466 09       		.uleb128 0x9
 1193 0467 7A020000 		.4byte	.LASF81
ARM GAS  /tmp/cceeDsjZ.s 			page 22


 1194 046b 07       		.byte	0x7
 1195 046c E301     		.2byte	0x1e3
 1196 046e B3080000 		.4byte	0x8b3
 1197 0472 80       		.byte	0x80
 1198 0473 00       		.byte	0
 1199 0474 02       		.uleb128 0x2
 1200 0475 04       		.byte	0x4
 1201 0476 07       		.byte	0x7
 1202 0477 F9030000 		.4byte	.LASF82
 1203 047b 10       		.uleb128 0x10
 1204 047c B8000000 		.4byte	0xb8
 1205 0480 8B040000 		.4byte	0x48b
 1206 0484 11       		.uleb128 0x11
 1207 0485 74040000 		.4byte	0x474
 1208 0489 01       		.byte	0x1
 1209 048a 00       		.byte	0
 1210 048b 10       		.uleb128 0x10
 1211 048c B8000000 		.4byte	0xb8
 1212 0490 9B040000 		.4byte	0x49b
 1213 0494 11       		.uleb128 0x11
 1214 0495 74040000 		.4byte	0x474
 1215 0499 03       		.byte	0x3
 1216 049a 00       		.byte	0
 1217 049b 12       		.uleb128 0x12
 1218 049c 88       		.byte	0x88
 1219 049d 08       		.byte	0x8
 1220 049e 6702     		.2byte	0x267
 1221 04a0 2A060000 		.4byte	0x62a
 1222 04a4 08       		.uleb128 0x8
 1223 04a5 435200   		.ascii	"CR\000"
 1224 04a8 08       		.byte	0x8
 1225 04a9 6902     		.2byte	0x269
 1226 04ab D3000000 		.4byte	0xd3
 1227 04af 00       		.byte	0
 1228 04b0 09       		.uleb128 0x9
 1229 04b1 29020000 		.4byte	.LASF83
 1230 04b5 08       		.byte	0x8
 1231 04b6 6A02     		.2byte	0x26a
 1232 04b8 D3000000 		.4byte	0xd3
 1233 04bc 04       		.byte	0x4
 1234 04bd 09       		.uleb128 0x9
 1235 04be F3080000 		.4byte	.LASF84
 1236 04c2 08       		.byte	0x8
 1237 04c3 6B02     		.2byte	0x26b
 1238 04c5 D3000000 		.4byte	0xd3
 1239 04c9 08       		.byte	0x8
 1240 04ca 08       		.uleb128 0x8
 1241 04cb 43495200 		.ascii	"CIR\000"
 1242 04cf 08       		.byte	0x8
 1243 04d0 6C02     		.2byte	0x26c
 1244 04d2 D3000000 		.4byte	0xd3
 1245 04d6 0C       		.byte	0xc
 1246 04d7 09       		.uleb128 0x9
 1247 04d8 4C010000 		.4byte	.LASF85
 1248 04dc 08       		.byte	0x8
 1249 04dd 6D02     		.2byte	0x26d
 1250 04df D3000000 		.4byte	0xd3
ARM GAS  /tmp/cceeDsjZ.s 			page 23


 1251 04e3 10       		.byte	0x10
 1252 04e4 09       		.uleb128 0x9
 1253 04e5 B4060000 		.4byte	.LASF86
 1254 04e9 08       		.byte	0x8
 1255 04ea 6E02     		.2byte	0x26e
 1256 04ec D3000000 		.4byte	0xd3
 1257 04f0 14       		.byte	0x14
 1258 04f1 09       		.uleb128 0x9
 1259 04f2 2E030000 		.4byte	.LASF87
 1260 04f6 08       		.byte	0x8
 1261 04f7 6F02     		.2byte	0x26f
 1262 04f9 D3000000 		.4byte	0xd3
 1263 04fd 18       		.byte	0x18
 1264 04fe 09       		.uleb128 0x9
 1265 04ff CE040000 		.4byte	.LASF88
 1266 0503 08       		.byte	0x8
 1267 0504 7002     		.2byte	0x270
 1268 0506 B8000000 		.4byte	0xb8
 1269 050a 1C       		.byte	0x1c
 1270 050b 09       		.uleb128 0x9
 1271 050c 8C040000 		.4byte	.LASF89
 1272 0510 08       		.byte	0x8
 1273 0511 7102     		.2byte	0x271
 1274 0513 D3000000 		.4byte	0xd3
 1275 0517 20       		.byte	0x20
 1276 0518 09       		.uleb128 0x9
 1277 0519 9E010000 		.4byte	.LASF90
 1278 051d 08       		.byte	0x8
 1279 051e 7202     		.2byte	0x272
 1280 0520 D3000000 		.4byte	0xd3
 1281 0524 24       		.byte	0x24
 1282 0525 09       		.uleb128 0x9
 1283 0526 D8040000 		.4byte	.LASF91
 1284 052a 08       		.byte	0x8
 1285 052b 7302     		.2byte	0x273
 1286 052d 7B040000 		.4byte	0x47b
 1287 0531 28       		.byte	0x28
 1288 0532 09       		.uleb128 0x9
 1289 0533 EB080000 		.4byte	.LASF92
 1290 0537 08       		.byte	0x8
 1291 0538 7402     		.2byte	0x274
 1292 053a D3000000 		.4byte	0xd3
 1293 053e 30       		.byte	0x30
 1294 053f 09       		.uleb128 0x9
 1295 0540 2F080000 		.4byte	.LASF93
 1296 0544 08       		.byte	0x8
 1297 0545 7502     		.2byte	0x275
 1298 0547 D3000000 		.4byte	0xd3
 1299 054b 34       		.byte	0x34
 1300 054c 09       		.uleb128 0x9
 1301 054d 44040000 		.4byte	.LASF94
 1302 0551 08       		.byte	0x8
 1303 0552 7602     		.2byte	0x276
 1304 0554 D3000000 		.4byte	0xd3
 1305 0558 38       		.byte	0x38
 1306 0559 09       		.uleb128 0x9
 1307 055a E2040000 		.4byte	.LASF95
ARM GAS  /tmp/cceeDsjZ.s 			page 24


 1308 055e 08       		.byte	0x8
 1309 055f 7702     		.2byte	0x277
 1310 0561 B8000000 		.4byte	0xb8
 1311 0565 3C       		.byte	0x3c
 1312 0566 09       		.uleb128 0x9
 1313 0567 27080000 		.4byte	.LASF96
 1314 056b 08       		.byte	0x8
 1315 056c 7802     		.2byte	0x278
 1316 056e D3000000 		.4byte	0xd3
 1317 0572 40       		.byte	0x40
 1318 0573 09       		.uleb128 0x9
 1319 0574 02060000 		.4byte	.LASF97
 1320 0578 08       		.byte	0x8
 1321 0579 7902     		.2byte	0x279
 1322 057b D3000000 		.4byte	0xd3
 1323 057f 44       		.byte	0x44
 1324 0580 09       		.uleb128 0x9
 1325 0581 EC040000 		.4byte	.LASF98
 1326 0585 08       		.byte	0x8
 1327 0586 7A02     		.2byte	0x27a
 1328 0588 7B040000 		.4byte	0x47b
 1329 058c 48       		.byte	0x48
 1330 058d 09       		.uleb128 0x9
 1331 058e 02010000 		.4byte	.LASF99
 1332 0592 08       		.byte	0x8
 1333 0593 7B02     		.2byte	0x27b
 1334 0595 D3000000 		.4byte	0xd3
 1335 0599 50       		.byte	0x50
 1336 059a 09       		.uleb128 0x9
 1337 059b 67040000 		.4byte	.LASF100
 1338 059f 08       		.byte	0x8
 1339 05a0 7C02     		.2byte	0x27c
 1340 05a2 D3000000 		.4byte	0xd3
 1341 05a6 54       		.byte	0x54
 1342 05a7 09       		.uleb128 0x9
 1343 05a8 C3050000 		.4byte	.LASF101
 1344 05ac 08       		.byte	0x8
 1345 05ad 7D02     		.2byte	0x27d
 1346 05af D3000000 		.4byte	0xd3
 1347 05b3 58       		.byte	0x58
 1348 05b4 09       		.uleb128 0x9
 1349 05b5 F6040000 		.4byte	.LASF102
 1350 05b9 08       		.byte	0x8
 1351 05ba 7E02     		.2byte	0x27e
 1352 05bc B8000000 		.4byte	0xb8
 1353 05c0 5C       		.byte	0x5c
 1354 05c1 09       		.uleb128 0x9
 1355 05c2 CB010000 		.4byte	.LASF103
 1356 05c6 08       		.byte	0x8
 1357 05c7 7F02     		.2byte	0x27f
 1358 05c9 D3000000 		.4byte	0xd3
 1359 05cd 60       		.byte	0x60
 1360 05ce 09       		.uleb128 0x9
 1361 05cf 6F030000 		.4byte	.LASF104
 1362 05d3 08       		.byte	0x8
 1363 05d4 8002     		.2byte	0x280
 1364 05d6 D3000000 		.4byte	0xd3
ARM GAS  /tmp/cceeDsjZ.s 			page 25


 1365 05da 64       		.byte	0x64
 1366 05db 09       		.uleb128 0x9
 1367 05dc 42060000 		.4byte	.LASF105
 1368 05e0 08       		.byte	0x8
 1369 05e1 8102     		.2byte	0x281
 1370 05e3 7B040000 		.4byte	0x47b
 1371 05e7 68       		.byte	0x68
 1372 05e8 09       		.uleb128 0x9
 1373 05e9 AC080000 		.4byte	.LASF106
 1374 05ed 08       		.byte	0x8
 1375 05ee 8202     		.2byte	0x282
 1376 05f0 D3000000 		.4byte	0xd3
 1377 05f4 70       		.byte	0x70
 1378 05f5 08       		.uleb128 0x8
 1379 05f6 43535200 		.ascii	"CSR\000"
 1380 05fa 08       		.byte	0x8
 1381 05fb 8302     		.2byte	0x283
 1382 05fd D3000000 		.4byte	0xd3
 1383 0601 74       		.byte	0x74
 1384 0602 09       		.uleb128 0x9
 1385 0603 07050000 		.4byte	.LASF107
 1386 0607 08       		.byte	0x8
 1387 0608 8402     		.2byte	0x284
 1388 060a 7B040000 		.4byte	0x47b
 1389 060e 78       		.byte	0x78
 1390 060f 09       		.uleb128 0x9
 1391 0610 73080000 		.4byte	.LASF108
 1392 0614 08       		.byte	0x8
 1393 0615 8502     		.2byte	0x285
 1394 0617 D3000000 		.4byte	0xd3
 1395 061b 80       		.byte	0x80
 1396 061c 09       		.uleb128 0x9
 1397 061d 1D030000 		.4byte	.LASF109
 1398 0621 08       		.byte	0x8
 1399 0622 8602     		.2byte	0x286
 1400 0624 D3000000 		.4byte	0xd3
 1401 0628 84       		.byte	0x84
 1402 0629 00       		.byte	0
 1403 062a 13       		.uleb128 0x13
 1404 062b 91050000 		.4byte	.LASF110
 1405 062f 08       		.byte	0x8
 1406 0630 8802     		.2byte	0x288
 1407 0632 9B040000 		.4byte	0x49b
 1408 0636 04       		.uleb128 0x4
 1409 0637 54020000 		.4byte	.LASF111
 1410 063b 09       		.byte	0x9
 1411 063c 65       		.byte	0x65
 1412 063d 3E030000 		.4byte	0x33e
 1413 0641 04       		.uleb128 0x4
 1414 0642 CC030000 		.4byte	.LASF112
 1415 0646 09       		.byte	0x9
 1416 0647 6D       		.byte	0x6d
 1417 0648 C3000000 		.4byte	0xc3
 1418 064c 06       		.uleb128 0x6
 1419 064d 37080000 		.4byte	.LASF113
 1420 0651 04       		.byte	0x4
 1421 0652 09       		.byte	0x9
ARM GAS  /tmp/cceeDsjZ.s 			page 26


 1422 0653 89       		.byte	0x89
 1423 0654 65060000 		.4byte	0x665
 1424 0658 14       		.uleb128 0x14
 1425 0659 72313300 		.ascii	"r13\000"
 1426 065d 09       		.byte	0x9
 1427 065e 8A       		.byte	0x8a
 1428 065f A6070000 		.4byte	0x7a6
 1429 0663 00       		.byte	0
 1430 0664 00       		.byte	0
 1431 0665 06       		.uleb128 0x6
 1432 0666 67000000 		.4byte	.LASF114
 1433 066a 64       		.byte	0x64
 1434 066b 0A       		.byte	0xa
 1435 066c F4       		.byte	0xf4
 1436 066d A6070000 		.4byte	0x7a6
 1437 0671 14       		.uleb128 0x14
 1438 0672 73313600 		.ascii	"s16\000"
 1439 0676 0A       		.byte	0xa
 1440 0677 F6       		.byte	0xf6
 1441 0678 36060000 		.4byte	0x636
 1442 067c 00       		.byte	0
 1443 067d 14       		.uleb128 0x14
 1444 067e 73313700 		.ascii	"s17\000"
 1445 0682 0A       		.byte	0xa
 1446 0683 F7       		.byte	0xf7
 1447 0684 36060000 		.4byte	0x636
 1448 0688 04       		.byte	0x4
 1449 0689 14       		.uleb128 0x14
 1450 068a 73313800 		.ascii	"s18\000"
 1451 068e 0A       		.byte	0xa
 1452 068f F8       		.byte	0xf8
 1453 0690 36060000 		.4byte	0x636
 1454 0694 08       		.byte	0x8
 1455 0695 14       		.uleb128 0x14
 1456 0696 73313900 		.ascii	"s19\000"
 1457 069a 0A       		.byte	0xa
 1458 069b F9       		.byte	0xf9
 1459 069c 36060000 		.4byte	0x636
 1460 06a0 0C       		.byte	0xc
 1461 06a1 14       		.uleb128 0x14
 1462 06a2 73323000 		.ascii	"s20\000"
 1463 06a6 0A       		.byte	0xa
 1464 06a7 FA       		.byte	0xfa
 1465 06a8 36060000 		.4byte	0x636
 1466 06ac 10       		.byte	0x10
 1467 06ad 14       		.uleb128 0x14
 1468 06ae 73323100 		.ascii	"s21\000"
 1469 06b2 0A       		.byte	0xa
 1470 06b3 FB       		.byte	0xfb
 1471 06b4 36060000 		.4byte	0x636
 1472 06b8 14       		.byte	0x14
 1473 06b9 14       		.uleb128 0x14
 1474 06ba 73323200 		.ascii	"s22\000"
 1475 06be 0A       		.byte	0xa
 1476 06bf FC       		.byte	0xfc
 1477 06c0 36060000 		.4byte	0x636
 1478 06c4 18       		.byte	0x18
ARM GAS  /tmp/cceeDsjZ.s 			page 27


 1479 06c5 14       		.uleb128 0x14
 1480 06c6 73323300 		.ascii	"s23\000"
 1481 06ca 0A       		.byte	0xa
 1482 06cb FD       		.byte	0xfd
 1483 06cc 36060000 		.4byte	0x636
 1484 06d0 1C       		.byte	0x1c
 1485 06d1 14       		.uleb128 0x14
 1486 06d2 73323400 		.ascii	"s24\000"
 1487 06d6 0A       		.byte	0xa
 1488 06d7 FE       		.byte	0xfe
 1489 06d8 36060000 		.4byte	0x636
 1490 06dc 20       		.byte	0x20
 1491 06dd 14       		.uleb128 0x14
 1492 06de 73323500 		.ascii	"s25\000"
 1493 06e2 0A       		.byte	0xa
 1494 06e3 FF       		.byte	0xff
 1495 06e4 36060000 		.4byte	0x636
 1496 06e8 24       		.byte	0x24
 1497 06e9 08       		.uleb128 0x8
 1498 06ea 73323600 		.ascii	"s26\000"
 1499 06ee 0A       		.byte	0xa
 1500 06ef 0001     		.2byte	0x100
 1501 06f1 36060000 		.4byte	0x636
 1502 06f5 28       		.byte	0x28
 1503 06f6 08       		.uleb128 0x8
 1504 06f7 73323700 		.ascii	"s27\000"
 1505 06fb 0A       		.byte	0xa
 1506 06fc 0101     		.2byte	0x101
 1507 06fe 36060000 		.4byte	0x636
 1508 0702 2C       		.byte	0x2c
 1509 0703 08       		.uleb128 0x8
 1510 0704 73323800 		.ascii	"s28\000"
 1511 0708 0A       		.byte	0xa
 1512 0709 0201     		.2byte	0x102
 1513 070b 36060000 		.4byte	0x636
 1514 070f 30       		.byte	0x30
 1515 0710 08       		.uleb128 0x8
 1516 0711 73323900 		.ascii	"s29\000"
 1517 0715 0A       		.byte	0xa
 1518 0716 0301     		.2byte	0x103
 1519 0718 36060000 		.4byte	0x636
 1520 071c 34       		.byte	0x34
 1521 071d 08       		.uleb128 0x8
 1522 071e 73333000 		.ascii	"s30\000"
 1523 0722 0A       		.byte	0xa
 1524 0723 0401     		.2byte	0x104
 1525 0725 36060000 		.4byte	0x636
 1526 0729 38       		.byte	0x38
 1527 072a 08       		.uleb128 0x8
 1528 072b 73333100 		.ascii	"s31\000"
 1529 072f 0A       		.byte	0xa
 1530 0730 0501     		.2byte	0x105
 1531 0732 36060000 		.4byte	0x636
 1532 0736 3C       		.byte	0x3c
 1533 0737 08       		.uleb128 0x8
 1534 0738 723400   		.ascii	"r4\000"
 1535 073b 0A       		.byte	0xa
ARM GAS  /tmp/cceeDsjZ.s 			page 28


 1536 073c 0701     		.2byte	0x107
 1537 073e 36060000 		.4byte	0x636
 1538 0742 40       		.byte	0x40
 1539 0743 08       		.uleb128 0x8
 1540 0744 723500   		.ascii	"r5\000"
 1541 0747 0A       		.byte	0xa
 1542 0748 0801     		.2byte	0x108
 1543 074a 36060000 		.4byte	0x636
 1544 074e 44       		.byte	0x44
 1545 074f 08       		.uleb128 0x8
 1546 0750 723600   		.ascii	"r6\000"
 1547 0753 0A       		.byte	0xa
 1548 0754 0901     		.2byte	0x109
 1549 0756 36060000 		.4byte	0x636
 1550 075a 48       		.byte	0x48
 1551 075b 08       		.uleb128 0x8
 1552 075c 723700   		.ascii	"r7\000"
 1553 075f 0A       		.byte	0xa
 1554 0760 0A01     		.2byte	0x10a
 1555 0762 36060000 		.4byte	0x636
 1556 0766 4C       		.byte	0x4c
 1557 0767 08       		.uleb128 0x8
 1558 0768 723800   		.ascii	"r8\000"
 1559 076b 0A       		.byte	0xa
 1560 076c 0B01     		.2byte	0x10b
 1561 076e 36060000 		.4byte	0x636
 1562 0772 50       		.byte	0x50
 1563 0773 08       		.uleb128 0x8
 1564 0774 723900   		.ascii	"r9\000"
 1565 0777 0A       		.byte	0xa
 1566 0778 0C01     		.2byte	0x10c
 1567 077a 36060000 		.4byte	0x636
 1568 077e 54       		.byte	0x54
 1569 077f 08       		.uleb128 0x8
 1570 0780 72313000 		.ascii	"r10\000"
 1571 0784 0A       		.byte	0xa
 1572 0785 0D01     		.2byte	0x10d
 1573 0787 36060000 		.4byte	0x636
 1574 078b 58       		.byte	0x58
 1575 078c 08       		.uleb128 0x8
 1576 078d 72313100 		.ascii	"r11\000"
 1577 0791 0A       		.byte	0xa
 1578 0792 0E01     		.2byte	0x10e
 1579 0794 36060000 		.4byte	0x636
 1580 0798 5C       		.byte	0x5c
 1581 0799 08       		.uleb128 0x8
 1582 079a 6C7200   		.ascii	"lr\000"
 1583 079d 0A       		.byte	0xa
 1584 079e 0F01     		.2byte	0x10f
 1585 07a0 36060000 		.4byte	0x636
 1586 07a4 60       		.byte	0x60
 1587 07a5 00       		.byte	0
 1588 07a6 0A       		.uleb128 0xa
 1589 07a7 04       		.byte	0x4
 1590 07a8 65060000 		.4byte	0x665
 1591 07ac 15       		.uleb128 0x15
 1592 07ad 04       		.byte	0x4
ARM GAS  /tmp/cceeDsjZ.s 			page 29


 1593 07ae 0B       		.byte	0xb
 1594 07af 38       		.byte	0x38
 1595 07b0 C1070000 		.4byte	0x7c1
 1596 07b4 07       		.uleb128 0x7
 1597 07b5 20080000 		.4byte	.LASF115
 1598 07b9 0B       		.byte	0xb
 1599 07ba 3C       		.byte	0x3c
 1600 07bb D8000000 		.4byte	0xd8
 1601 07bf 00       		.byte	0
 1602 07c0 00       		.byte	0
 1603 07c1 04       		.uleb128 0x4
 1604 07c2 71040000 		.4byte	.LASF116
 1605 07c6 0B       		.byte	0xb
 1606 07c7 3D       		.byte	0x3d
 1607 07c8 AC070000 		.4byte	0x7ac
 1608 07cc 16       		.uleb128 0x16
 1609 07cd 04       		.byte	0x4
 1610 07ce 07       		.byte	0x7
 1611 07cf FA       		.byte	0xfa
 1612 07d0 29080000 		.4byte	0x829
 1613 07d4 17       		.uleb128 0x17
 1614 07d5 4D000000 		.4byte	.LASF117
 1615 07d9 07       		.byte	0x7
 1616 07da 0101     		.2byte	0x101
 1617 07dc 1A010000 		.4byte	0x11a
 1618 07e0 17       		.uleb128 0x17
 1619 07e1 B1000000 		.4byte	.LASF118
 1620 07e5 07       		.byte	0x7
 1621 07e6 0801     		.2byte	0x108
 1622 07e8 1A010000 		.4byte	0x11a
 1623 07ec 17       		.uleb128 0x17
 1624 07ed DD080000 		.4byte	.LASF119
 1625 07f1 07       		.byte	0x7
 1626 07f2 0F01     		.2byte	0x10f
 1627 07f4 3E030000 		.4byte	0x33e
 1628 07f8 17       		.uleb128 0x17
 1629 07f9 2C040000 		.4byte	.LASF120
 1630 07fd 07       		.byte	0x7
 1631 07fe 1601     		.2byte	0x116
 1632 0800 29080000 		.4byte	0x829
 1633 0804 17       		.uleb128 0x17
 1634 0805 BD020000 		.4byte	.LASF121
 1635 0809 07       		.byte	0x7
 1636 080a 1E01     		.2byte	0x11e
 1637 080c 54080000 		.4byte	0x854
 1638 0810 17       		.uleb128 0x17
 1639 0811 55060000 		.4byte	.LASF122
 1640 0815 07       		.byte	0x7
 1641 0816 2701     		.2byte	0x127
 1642 0818 8B080000 		.4byte	0x88b
 1643 081c 17       		.uleb128 0x17
 1644 081d D4050000 		.4byte	.LASF123
 1645 0821 07       		.byte	0x7
 1646 0822 2F01     		.2byte	0x12f
 1647 0824 25010000 		.4byte	0x125
 1648 0828 00       		.byte	0
 1649 0829 0A       		.uleb128 0xa
ARM GAS  /tmp/cceeDsjZ.s 			page 30


 1650 082a 04       		.byte	0x4
 1651 082b 56020000 		.4byte	0x256
 1652 082f 06       		.uleb128 0x6
 1653 0830 23060000 		.4byte	.LASF124
 1654 0834 0C       		.byte	0xc
 1655 0835 0C       		.byte	0xc
 1656 0836 34       		.byte	0x34
 1657 0837 54080000 		.4byte	0x854
 1658 083b 07       		.uleb128 0x7
 1659 083c 00090000 		.4byte	.LASF125
 1660 0840 0C       		.byte	0xc
 1661 0841 35       		.byte	0x35
 1662 0842 8B020000 		.4byte	0x28b
 1663 0846 00       		.byte	0
 1664 0847 07       		.uleb128 0x7
 1665 0848 8B050000 		.4byte	.LASF126
 1666 084c 0C       		.byte	0xc
 1667 084d 37       		.byte	0x37
 1668 084e 30010000 		.4byte	0x130
 1669 0852 08       		.byte	0x8
 1670 0853 00       		.byte	0
 1671 0854 0A       		.uleb128 0xa
 1672 0855 04       		.byte	0x4
 1673 0856 2F080000 		.4byte	0x82f
 1674 085a 06       		.uleb128 0x6
 1675 085b 93080000 		.4byte	.LASF127
 1676 085f 10       		.byte	0x10
 1677 0860 0D       		.byte	0xd
 1678 0861 39       		.byte	0x39
 1679 0862 8B080000 		.4byte	0x88b
 1680 0866 07       		.uleb128 0x7
 1681 0867 76050000 		.4byte	.LASF128
 1682 086b 0D       		.byte	0xd
 1683 086c 3A       		.byte	0x3a
 1684 086d 8B020000 		.4byte	0x28b
 1685 0871 00       		.byte	0
 1686 0872 07       		.uleb128 0x7
 1687 0873 1F090000 		.4byte	.LASF129
 1688 0877 0D       		.byte	0xd
 1689 0878 3C       		.byte	0x3c
 1690 0879 61020000 		.4byte	0x261
 1691 087d 08       		.byte	0x8
 1692 087e 07       		.uleb128 0x7
 1693 087f E6070000 		.4byte	.LASF130
 1694 0883 0D       		.byte	0xd
 1695 0884 3E       		.byte	0x3e
 1696 0885 CE080000 		.4byte	0x8ce
 1697 0889 0C       		.byte	0xc
 1698 088a 00       		.byte	0
 1699 088b 0A       		.uleb128 0xa
 1700 088c 04       		.byte	0x4
 1701 088d 5A080000 		.4byte	0x85a
 1702 0891 0A       		.uleb128 0xa
 1703 0892 04       		.byte	0x4
 1704 0893 97080000 		.4byte	0x897
 1705 0897 18       		.uleb128 0x18
 1706 0898 9C080000 		.4byte	0x89c
ARM GAS  /tmp/cceeDsjZ.s 			page 31


 1707 089c 02       		.uleb128 0x2
 1708 089d 01       		.byte	0x1
 1709 089e 08       		.byte	0x8
 1710 089f 9E060000 		.4byte	.LASF131
 1711 08a3 05       		.uleb128 0x5
 1712 08a4 3B010000 		.4byte	0x13b
 1713 08a8 0A       		.uleb128 0xa
 1714 08a9 04       		.byte	0x4
 1715 08aa 40030000 		.4byte	0x340
 1716 08ae 05       		.uleb128 0x5
 1717 08af 91080000 		.4byte	0x891
 1718 08b3 10       		.uleb128 0x10
 1719 08b4 41060000 		.4byte	0x641
 1720 08b8 C3080000 		.4byte	0x8c3
 1721 08bc 11       		.uleb128 0x11
 1722 08bd 74040000 		.4byte	0x474
 1723 08c1 3A       		.byte	0x3a
 1724 08c2 00       		.byte	0
 1725 08c3 04       		.uleb128 0x4
 1726 08c4 D7030000 		.4byte	.LASF132
 1727 08c8 0D       		.byte	0xd
 1728 08c9 34       		.byte	0x34
 1729 08ca 5A080000 		.4byte	0x85a
 1730 08ce 0A       		.uleb128 0xa
 1731 08cf 04       		.byte	0x4
 1732 08d0 C3080000 		.4byte	0x8c3
 1733 08d4 02       		.uleb128 0x2
 1734 08d5 01       		.byte	0x1
 1735 08d6 02       		.byte	0x2
 1736 08d7 5A050000 		.4byte	.LASF133
 1737 08db 19       		.uleb128 0x19
 1738 08dc 01       		.byte	0x1
 1739 08dd 0E       		.byte	0xe
 1740 08de 4A       		.byte	0x4a
 1741 08df F6080000 		.4byte	0x8f6
 1742 08e3 1A       		.uleb128 0x1a
 1743 08e4 14090000 		.4byte	.LASF134
 1744 08e8 00       		.sleb128 0
 1745 08e9 1A       		.uleb128 0x1a
 1746 08ea 95060000 		.4byte	.LASF135
 1747 08ee 01       		.sleb128 1
 1748 08ef 1A       		.uleb128 0x1a
 1749 08f0 13010000 		.4byte	.LASF136
 1750 08f4 02       		.sleb128 2
 1751 08f5 00       		.byte	0
 1752 08f6 04       		.uleb128 0x4
 1753 08f7 C9080000 		.4byte	.LASF137
 1754 08fb 0E       		.byte	0xe
 1755 08fc 4E       		.byte	0x4e
 1756 08fd DB080000 		.4byte	0x8db
 1757 0901 04       		.uleb128 0x4
 1758 0902 BF080000 		.4byte	.LASF138
 1759 0906 0E       		.byte	0xe
 1760 0907 53       		.byte	0x53
 1761 0908 0C090000 		.4byte	0x90c
 1762 090c 0B       		.uleb128 0xb
 1763 090d BF080000 		.4byte	.LASF138
ARM GAS  /tmp/cceeDsjZ.s 			page 32


 1764 0911 1C       		.byte	0x1c
 1765 0912 0F       		.byte	0xf
 1766 0913 7901     		.2byte	0x179
 1767 0915 75090000 		.4byte	0x975
 1768 0919 09       		.uleb128 0x9
 1769 091a 78010000 		.4byte	.LASF139
 1770 091e 0F       		.byte	0xf
 1771 091f 7D01     		.2byte	0x17d
 1772 0921 F6080000 		.4byte	0x8f6
 1773 0925 00       		.byte	0
 1774 0926 09       		.uleb128 0x9
 1775 0927 A8060000 		.4byte	.LASF140
 1776 092b 0F       		.byte	0xf
 1777 092c 8101     		.2byte	0x181
 1778 092e 8D0B0000 		.4byte	0xb8d
 1779 0932 04       		.byte	0x4
 1780 0933 09       		.uleb128 0x9
 1781 0934 93000000 		.4byte	.LASF141
 1782 0938 0F       		.byte	0xf
 1783 0939 8501     		.2byte	0x185
 1784 093b DD0A0000 		.4byte	0xadd
 1785 093f 08       		.byte	0x8
 1786 0940 09       		.uleb128 0x9
 1787 0941 64060000 		.4byte	.LASF142
 1788 0945 0F       		.byte	0xf
 1789 0946 8901     		.2byte	0x189
 1790 0948 D10A0000 		.4byte	0xad1
 1791 094c 0C       		.byte	0xc
 1792 094d 09       		.uleb128 0x9
 1793 094e 7E010000 		.4byte	.LASF143
 1794 0952 0F       		.byte	0xf
 1795 0953 8D01     		.2byte	0x18d
 1796 0955 C50A0000 		.4byte	0xac5
 1797 0959 10       		.byte	0x10
 1798 095a 09       		.uleb128 0x9
 1799 095b 08090000 		.4byte	.LASF144
 1800 095f 0F       		.byte	0xf
 1801 0960 9501     		.2byte	0x195
 1802 0962 B8000000 		.4byte	0xb8
 1803 0966 14       		.byte	0x14
 1804 0967 08       		.uleb128 0x8
 1805 0968 74696D00 		.ascii	"tim\000"
 1806 096c 0F       		.byte	0xf
 1807 096d 9901     		.2byte	0x199
 1808 096f 980B0000 		.4byte	0xb98
 1809 0973 18       		.byte	0x18
 1810 0974 00       		.byte	0
 1811 0975 04       		.uleb128 0x4
 1812 0976 13020000 		.4byte	.LASF145
 1813 097a 0E       		.byte	0xe
 1814 097b 5A       		.byte	0x5a
 1815 097c 80090000 		.4byte	0x980
 1816 0980 0A       		.uleb128 0xa
 1817 0981 04       		.byte	0x4
 1818 0982 86090000 		.4byte	0x986
 1819 0986 0C       		.uleb128 0xc
 1820 0987 91090000 		.4byte	0x991
ARM GAS  /tmp/cceeDsjZ.s 			page 33


 1821 098b 0D       		.uleb128 0xd
 1822 098c 91090000 		.4byte	0x991
 1823 0990 00       		.byte	0
 1824 0991 0A       		.uleb128 0xa
 1825 0992 04       		.byte	0x4
 1826 0993 01090000 		.4byte	0x901
 1827 0997 12       		.uleb128 0x12
 1828 0998 60       		.byte	0x60
 1829 0999 10       		.byte	0x10
 1830 099a 9E01     		.2byte	0x19e
 1831 099c A30A0000 		.4byte	0xaa3
 1832 09a0 08       		.uleb128 0x8
 1833 09a1 43523100 		.ascii	"CR1\000"
 1834 09a5 10       		.byte	0x10
 1835 09a6 9F01     		.2byte	0x19f
 1836 09a8 D3000000 		.4byte	0xd3
 1837 09ac 00       		.byte	0
 1838 09ad 08       		.uleb128 0x8
 1839 09ae 43523200 		.ascii	"CR2\000"
 1840 09b2 10       		.byte	0x10
 1841 09b3 A001     		.2byte	0x1a0
 1842 09b5 D3000000 		.4byte	0xd3
 1843 09b9 04       		.byte	0x4
 1844 09ba 09       		.uleb128 0x9
 1845 09bb 18030000 		.4byte	.LASF146
 1846 09bf 10       		.byte	0x10
 1847 09c0 A101     		.2byte	0x1a1
 1848 09c2 D3000000 		.4byte	0xd3
 1849 09c6 08       		.byte	0x8
 1850 09c7 09       		.uleb128 0x9
 1851 09c8 29000000 		.4byte	.LASF147
 1852 09cc 10       		.byte	0x10
 1853 09cd A201     		.2byte	0x1a2
 1854 09cf D3000000 		.4byte	0xd3
 1855 09d3 0C       		.byte	0xc
 1856 09d4 08       		.uleb128 0x8
 1857 09d5 535200   		.ascii	"SR\000"
 1858 09d8 10       		.byte	0x10
 1859 09d9 A301     		.2byte	0x1a3
 1860 09db D3000000 		.4byte	0xd3
 1861 09df 10       		.byte	0x10
 1862 09e0 08       		.uleb128 0x8
 1863 09e1 45475200 		.ascii	"EGR\000"
 1864 09e5 10       		.byte	0x10
 1865 09e6 A401     		.2byte	0x1a4
 1866 09e8 D3000000 		.4byte	0xd3
 1867 09ec 14       		.byte	0x14
 1868 09ed 09       		.uleb128 0x9
 1869 09ee 2E010000 		.4byte	.LASF148
 1870 09f2 10       		.byte	0x10
 1871 09f3 A501     		.2byte	0x1a5
 1872 09f5 D3000000 		.4byte	0xd3
 1873 09f9 18       		.byte	0x18
 1874 09fa 09       		.uleb128 0x9
 1875 09fb 34010000 		.4byte	.LASF149
 1876 09ff 10       		.byte	0x10
 1877 0a00 A601     		.2byte	0x1a6
ARM GAS  /tmp/cceeDsjZ.s 			page 34


 1878 0a02 D3000000 		.4byte	0xd3
 1879 0a06 1C       		.byte	0x1c
 1880 0a07 09       		.uleb128 0x9
 1881 0a08 E1070000 		.4byte	.LASF150
 1882 0a0c 10       		.byte	0x10
 1883 0a0d A701     		.2byte	0x1a7
 1884 0a0f D3000000 		.4byte	0xd3
 1885 0a13 20       		.byte	0x20
 1886 0a14 08       		.uleb128 0x8
 1887 0a15 434E5400 		.ascii	"CNT\000"
 1888 0a19 10       		.byte	0x10
 1889 0a1a A801     		.2byte	0x1a8
 1890 0a1c D3000000 		.4byte	0xd3
 1891 0a20 24       		.byte	0x24
 1892 0a21 08       		.uleb128 0x8
 1893 0a22 50534300 		.ascii	"PSC\000"
 1894 0a26 10       		.byte	0x10
 1895 0a27 A901     		.2byte	0x1a9
 1896 0a29 D3000000 		.4byte	0xd3
 1897 0a2d 28       		.byte	0x28
 1898 0a2e 08       		.uleb128 0x8
 1899 0a2f 41525200 		.ascii	"ARR\000"
 1900 0a33 10       		.byte	0x10
 1901 0a34 AA01     		.2byte	0x1aa
 1902 0a36 D3000000 		.4byte	0xd3
 1903 0a3a 2C       		.byte	0x2c
 1904 0a3b 08       		.uleb128 0x8
 1905 0a3c 52435200 		.ascii	"RCR\000"
 1906 0a40 10       		.byte	0x10
 1907 0a41 AB01     		.2byte	0x1ab
 1908 0a43 D3000000 		.4byte	0xd3
 1909 0a47 30       		.byte	0x30
 1910 0a48 08       		.uleb128 0x8
 1911 0a49 43435200 		.ascii	"CCR\000"
 1912 0a4d 10       		.byte	0x10
 1913 0a4e AC01     		.2byte	0x1ac
 1914 0a50 A30A0000 		.4byte	0xaa3
 1915 0a54 34       		.byte	0x34
 1916 0a55 09       		.uleb128 0x9
 1917 0a56 F3000000 		.4byte	.LASF151
 1918 0a5a 10       		.byte	0x10
 1919 0a5b AD01     		.2byte	0x1ad
 1920 0a5d D3000000 		.4byte	0xd3
 1921 0a61 44       		.byte	0x44
 1922 0a62 08       		.uleb128 0x8
 1923 0a63 44435200 		.ascii	"DCR\000"
 1924 0a67 10       		.byte	0x10
 1925 0a68 AE01     		.2byte	0x1ae
 1926 0a6a D3000000 		.4byte	0xd3
 1927 0a6e 48       		.byte	0x48
 1928 0a6f 09       		.uleb128 0x9
 1929 0a70 AF060000 		.4byte	.LASF152
 1930 0a74 10       		.byte	0x10
 1931 0a75 AF01     		.2byte	0x1af
 1932 0a77 D3000000 		.4byte	0xd3
 1933 0a7b 4C       		.byte	0x4c
 1934 0a7c 08       		.uleb128 0x8
ARM GAS  /tmp/cceeDsjZ.s 			page 35


 1935 0a7d 4F5200   		.ascii	"OR\000"
 1936 0a80 10       		.byte	0x10
 1937 0a81 B001     		.2byte	0x1b0
 1938 0a83 D3000000 		.4byte	0xd3
 1939 0a87 50       		.byte	0x50
 1940 0a88 09       		.uleb128 0x9
 1941 0a89 3A010000 		.4byte	.LASF153
 1942 0a8d 10       		.byte	0x10
 1943 0a8e B101     		.2byte	0x1b1
 1944 0a90 D3000000 		.4byte	0xd3
 1945 0a94 54       		.byte	0x54
 1946 0a95 09       		.uleb128 0x9
 1947 0a96 30060000 		.4byte	.LASF154
 1948 0a9a 10       		.byte	0x10
 1949 0a9b B201     		.2byte	0x1b2
 1950 0a9d A80A0000 		.4byte	0xaa8
 1951 0aa1 58       		.byte	0x58
 1952 0aa2 00       		.byte	0
 1953 0aa3 05       		.uleb128 0x5
 1954 0aa4 8B040000 		.4byte	0x48b
 1955 0aa8 05       		.uleb128 0x5
 1956 0aa9 7B040000 		.4byte	0x47b
 1957 0aad 13       		.uleb128 0x13
 1958 0aae 63030000 		.4byte	.LASF155
 1959 0ab2 10       		.byte	0x10
 1960 0ab3 B301     		.2byte	0x1b3
 1961 0ab5 97090000 		.4byte	0x997
 1962 0ab9 13       		.uleb128 0x13
 1963 0aba 55010000 		.4byte	.LASF156
 1964 0abe 0F       		.byte	0xf
 1965 0abf 2501     		.2byte	0x125
 1966 0ac1 B8000000 		.4byte	0xb8
 1967 0ac5 13       		.uleb128 0x13
 1968 0ac6 0F000000 		.4byte	.LASF157
 1969 0aca 0F       		.byte	0xf
 1970 0acb 2A01     		.2byte	0x12a
 1971 0acd A2000000 		.4byte	0xa2
 1972 0ad1 13       		.uleb128 0x13
 1973 0ad2 DB050000 		.4byte	.LASF158
 1974 0ad6 0F       		.byte	0xf
 1975 0ad7 2F01     		.2byte	0x12f
 1976 0ad9 B8000000 		.4byte	0xb8
 1977 0add 13       		.uleb128 0x13
 1978 0ade D4080000 		.4byte	.LASF159
 1979 0ae2 0F       		.byte	0xf
 1980 0ae3 3401     		.2byte	0x134
 1981 0ae5 B8000000 		.4byte	0xb8
 1982 0ae9 12       		.uleb128 0x12
 1983 0aea 08       		.byte	0x8
 1984 0aeb 0F       		.byte	0xf
 1985 0aec 3901     		.2byte	0x139
 1986 0aee 0D0B0000 		.4byte	0xb0d
 1987 0af2 09       		.uleb128 0x9
 1988 0af3 A3060000 		.4byte	.LASF160
 1989 0af7 0F       		.byte	0xf
 1990 0af8 3D01     		.2byte	0x13d
 1991 0afa B90A0000 		.4byte	0xab9
ARM GAS  /tmp/cceeDsjZ.s 			page 36


 1992 0afe 00       		.byte	0
 1993 0aff 09       		.uleb128 0x9
 1994 0b00 5A030000 		.4byte	.LASF161
 1995 0b04 0F       		.byte	0xf
 1996 0b05 4301     		.2byte	0x143
 1997 0b07 75090000 		.4byte	0x975
 1998 0b0b 04       		.byte	0x4
 1999 0b0c 00       		.byte	0
 2000 0b0d 13       		.uleb128 0x13
 2001 0b0e 53080000 		.4byte	.LASF162
 2002 0b12 0F       		.byte	0xf
 2003 0b13 4501     		.2byte	0x145
 2004 0b15 E90A0000 		.4byte	0xae9
 2005 0b19 12       		.uleb128 0x12
 2006 0b1a 34       		.byte	0x34
 2007 0b1b 0F       		.byte	0xf
 2008 0b1c 4A01     		.2byte	0x14a
 2009 0b1e 710B0000 		.4byte	0xb71
 2010 0b22 09       		.uleb128 0x9
 2011 0b23 F8000000 		.4byte	.LASF163
 2012 0b27 0F       		.byte	0xf
 2013 0b28 5001     		.2byte	0x150
 2014 0b2a B8000000 		.4byte	0xb8
 2015 0b2e 00       		.byte	0
 2016 0b2f 09       		.uleb128 0x9
 2017 0b30 93000000 		.4byte	.LASF141
 2018 0b34 0F       		.byte	0xf
 2019 0b35 5601     		.2byte	0x156
 2020 0b37 DD0A0000 		.4byte	0xadd
 2021 0b3b 04       		.byte	0x4
 2022 0b3c 09       		.uleb128 0x9
 2023 0b3d 5A030000 		.4byte	.LASF161
 2024 0b41 0F       		.byte	0xf
 2025 0b42 5C01     		.2byte	0x15c
 2026 0b44 75090000 		.4byte	0x975
 2027 0b48 08       		.byte	0x8
 2028 0b49 09       		.uleb128 0x9
 2029 0b4a 7E010000 		.4byte	.LASF143
 2030 0b4e 0F       		.byte	0xf
 2031 0b4f 6001     		.2byte	0x160
 2032 0b51 710B0000 		.4byte	0xb71
 2033 0b55 0C       		.byte	0xc
 2034 0b56 08       		.uleb128 0x8
 2035 0b57 63723200 		.ascii	"cr2\000"
 2036 0b5b 0F       		.byte	0xf
 2037 0b5c 6601     		.2byte	0x166
 2038 0b5e B8000000 		.4byte	0xb8
 2039 0b62 2C       		.byte	0x2c
 2040 0b63 09       		.uleb128 0x9
 2041 0b64 43090000 		.4byte	.LASF164
 2042 0b68 0F       		.byte	0xf
 2043 0b69 7301     		.2byte	0x173
 2044 0b6b B8000000 		.4byte	0xb8
 2045 0b6f 30       		.byte	0x30
 2046 0b70 00       		.byte	0
 2047 0b71 10       		.uleb128 0x10
 2048 0b72 0D0B0000 		.4byte	0xb0d
ARM GAS  /tmp/cceeDsjZ.s 			page 37


 2049 0b76 810B0000 		.4byte	0xb81
 2050 0b7a 11       		.uleb128 0x11
 2051 0b7b 74040000 		.4byte	0x474
 2052 0b7f 03       		.byte	0x3
 2053 0b80 00       		.byte	0
 2054 0b81 13       		.uleb128 0x13
 2055 0b82 79080000 		.4byte	.LASF165
 2056 0b86 0F       		.byte	0xf
 2057 0b87 7401     		.2byte	0x174
 2058 0b89 190B0000 		.4byte	0xb19
 2059 0b8d 0A       		.uleb128 0xa
 2060 0b8e 04       		.byte	0x4
 2061 0b8f 930B0000 		.4byte	0xb93
 2062 0b93 18       		.uleb128 0x18
 2063 0b94 810B0000 		.4byte	0xb81
 2064 0b98 0A       		.uleb128 0xa
 2065 0b99 04       		.byte	0x4
 2066 0b9a AD0A0000 		.4byte	0xaad
 2067 0b9e 1B       		.uleb128 0x1b
 2068 0b9f 35000000 		.4byte	.LASF187
 2069 0ba3 01       		.byte	0x1
 2070 0ba4 6F       		.byte	0x6f
 2071 0ba5 01       		.byte	0x1
 2072 0ba6 C00B0000 		.4byte	0xbc0
 2073 0baa 1C       		.uleb128 0x1c
 2074 0bab C7030000 		.4byte	.LASF171
 2075 0baf 01       		.byte	0x1
 2076 0bb0 6F       		.byte	0x6f
 2077 0bb1 91090000 		.4byte	0x991
 2078 0bb5 1D       		.uleb128 0x1d
 2079 0bb6 737200   		.ascii	"sr\000"
 2080 0bb9 01       		.byte	0x1
 2081 0bba 70       		.byte	0x70
 2082 0bbb B8000000 		.4byte	0xb8
 2083 0bbf 00       		.byte	0
 2084 0bc0 1E       		.uleb128 0x1e
 2085 0bc1 6F010000 		.4byte	.LASF166
 2086 0bc5 01       		.byte	0x1
 2087 0bc6 E3       		.byte	0xe3
 2088 0bc7 00000000 		.4byte	.LFB257
 2089 0bcb 64000000 		.4byte	.LFE257-.LFB257
 2090 0bcf 01       		.uleb128 0x1
 2091 0bd0 9C       		.byte	0x9c
 2092 0bd1 5E0C0000 		.4byte	0xc5e
 2093 0bd5 1F       		.uleb128 0x1f
 2094 0bd6 9E0B0000 		.4byte	0xb9e
 2095 0bda 02000000 		.4byte	.LBB4
 2096 0bde 56000000 		.4byte	.LBE4-.LBB4
 2097 0be2 01       		.byte	0x1
 2098 0be3 E7       		.byte	0xe7
 2099 0be4 540C0000 		.4byte	0xc54
 2100 0be8 20       		.uleb128 0x20
 2101 0be9 AA0B0000 		.4byte	0xbaa
 2102 0bed 06       		.uleb128 0x6
 2103 0bee 03       		.byte	0x3
 2104 0bef 00000000 		.4byte	PWMD3
 2105 0bf3 9F       		.byte	0x9f
ARM GAS  /tmp/cceeDsjZ.s 			page 38


 2106 0bf4 21       		.uleb128 0x21
 2107 0bf5 02000000 		.4byte	.LBB5
 2108 0bf9 56000000 		.4byte	.LBE5-.LBB5
 2109 0bfd 22       		.uleb128 0x22
 2110 0bfe B50B0000 		.4byte	0xbb5
 2111 0c02 00000000 		.4byte	.LLST0
 2112 0c06 23       		.uleb128 0x23
 2113 0c07 20000000 		.4byte	.LVL3
 2114 0c0b 160C0000 		.4byte	0xc16
 2115 0c0f 24       		.uleb128 0x24
 2116 0c10 01       		.uleb128 0x1
 2117 0c11 50       		.byte	0x50
 2118 0c12 02       		.uleb128 0x2
 2119 0c13 75       		.byte	0x75
 2120 0c14 00       		.sleb128 0
 2121 0c15 00       		.byte	0
 2122 0c16 23       		.uleb128 0x23
 2123 0c17 2E000000 		.4byte	.LVL4
 2124 0c1b 260C0000 		.4byte	0xc26
 2125 0c1f 24       		.uleb128 0x24
 2126 0c20 01       		.uleb128 0x1
 2127 0c21 50       		.byte	0x50
 2128 0c22 02       		.uleb128 0x2
 2129 0c23 75       		.byte	0x75
 2130 0c24 00       		.sleb128 0
 2131 0c25 00       		.byte	0
 2132 0c26 23       		.uleb128 0x23
 2133 0c27 3C000000 		.4byte	.LVL5
 2134 0c2b 360C0000 		.4byte	0xc36
 2135 0c2f 24       		.uleb128 0x24
 2136 0c30 01       		.uleb128 0x1
 2137 0c31 50       		.byte	0x50
 2138 0c32 02       		.uleb128 0x2
 2139 0c33 75       		.byte	0x75
 2140 0c34 00       		.sleb128 0
 2141 0c35 00       		.byte	0
 2142 0c36 23       		.uleb128 0x23
 2143 0c37 4A000000 		.4byte	.LVL6
 2144 0c3b 460C0000 		.4byte	0xc46
 2145 0c3f 24       		.uleb128 0x24
 2146 0c40 01       		.uleb128 0x1
 2147 0c41 50       		.byte	0x50
 2148 0c42 02       		.uleb128 0x2
 2149 0c43 75       		.byte	0x75
 2150 0c44 00       		.sleb128 0
 2151 0c45 00       		.byte	0
 2152 0c46 25       		.uleb128 0x25
 2153 0c47 58000000 		.4byte	.LVL7
 2154 0c4b 24       		.uleb128 0x24
 2155 0c4c 01       		.uleb128 0x1
 2156 0c4d 50       		.byte	0x50
 2157 0c4e 02       		.uleb128 0x2
 2158 0c4f 75       		.byte	0x75
 2159 0c50 00       		.sleb128 0
 2160 0c51 00       		.byte	0
 2161 0c52 00       		.byte	0
 2162 0c53 00       		.byte	0
ARM GAS  /tmp/cceeDsjZ.s 			page 39


 2163 0c54 26       		.uleb128 0x26
 2164 0c55 60000000 		.4byte	.LVL9
 2165 0c59 A80E0000 		.4byte	0xea8
 2166 0c5d 00       		.byte	0
 2167 0c5e 27       		.uleb128 0x27
 2168 0c5f 54040000 		.4byte	.LASF167
 2169 0c63 01       		.byte	0x1
 2170 0c64 6C01     		.2byte	0x16c
 2171 0c66 00000000 		.4byte	.LFB258
 2172 0c6a 1C000000 		.4byte	.LFE258-.LFB258
 2173 0c6e 01       		.uleb128 0x1
 2174 0c6f 9C       		.byte	0x9c
 2175 0c70 850C0000 		.4byte	0xc85
 2176 0c74 28       		.uleb128 0x28
 2177 0c75 0A000000 		.4byte	.LVL10
 2178 0c79 B00E0000 		.4byte	0xeb0
 2179 0c7d 24       		.uleb128 0x24
 2180 0c7e 01       		.uleb128 0x1
 2181 0c7f 50       		.byte	0x50
 2182 0c80 02       		.uleb128 0x2
 2183 0c81 74       		.byte	0x74
 2184 0c82 00       		.sleb128 0
 2185 0c83 00       		.byte	0
 2186 0c84 00       		.byte	0
 2187 0c85 27       		.uleb128 0x27
 2188 0c86 90010000 		.4byte	.LASF168
 2189 0c8a 01       		.byte	0x1
 2190 0c8b A901     		.2byte	0x1a9
 2191 0c8d 00000000 		.4byte	.LFB259
 2192 0c91 E4000000 		.4byte	.LFE259-.LFB259
 2193 0c95 01       		.uleb128 0x1
 2194 0c96 9C       		.byte	0x9c
 2195 0c97 E90C0000 		.4byte	0xce9
 2196 0c9b 29       		.uleb128 0x29
 2197 0c9c C7030000 		.4byte	.LASF171
 2198 0ca0 01       		.byte	0x1
 2199 0ca1 A901     		.2byte	0x1a9
 2200 0ca3 91090000 		.4byte	0x991
 2201 0ca7 23000000 		.4byte	.LLST1
 2202 0cab 2A       		.uleb128 0x2a
 2203 0cac 70736300 		.ascii	"psc\000"
 2204 0cb0 01       		.byte	0x1
 2205 0cb1 AA01     		.2byte	0x1aa
 2206 0cb3 B8000000 		.4byte	0xb8
 2207 0cb7 7B000000 		.4byte	.LLST2
 2208 0cbb 2B       		.uleb128 0x2b
 2209 0cbc B8030000 		.4byte	.LASF169
 2210 0cc0 01       		.byte	0x1
 2211 0cc1 AB01     		.2byte	0x1ab
 2212 0cc3 B8000000 		.4byte	0xb8
 2213 0cc7 AA000000 		.4byte	.LLST3
 2214 0ccb 2C       		.uleb128 0x2c
 2215 0ccc EF050000 		.4byte	.LASF188
 2216 0cd0 F90C0000 		.4byte	0xcf9
 2217 0cd4 28       		.uleb128 0x28
 2218 0cd5 D2000000 		.4byte	.LVL31
 2219 0cd9 C20E0000 		.4byte	0xec2
ARM GAS  /tmp/cceeDsjZ.s 			page 40


 2220 0cdd 24       		.uleb128 0x24
 2221 0cde 01       		.uleb128 0x1
 2222 0cdf 51       		.byte	0x51
 2223 0ce0 01       		.uleb128 0x1
 2224 0ce1 37       		.byte	0x37
 2225 0ce2 24       		.uleb128 0x24
 2226 0ce3 01       		.uleb128 0x1
 2227 0ce4 50       		.byte	0x50
 2228 0ce5 01       		.uleb128 0x1
 2229 0ce6 4D       		.byte	0x4d
 2230 0ce7 00       		.byte	0
 2231 0ce8 00       		.byte	0
 2232 0ce9 10       		.uleb128 0x10
 2233 0cea 9C080000 		.4byte	0x89c
 2234 0cee F90C0000 		.4byte	0xcf9
 2235 0cf2 11       		.uleb128 0x11
 2236 0cf3 74040000 		.4byte	0x474
 2237 0cf7 0D       		.byte	0xd
 2238 0cf8 00       		.byte	0
 2239 0cf9 18       		.uleb128 0x18
 2240 0cfa E90C0000 		.4byte	0xce9
 2241 0cfe 27       		.uleb128 0x27
 2242 0cff 35060000 		.4byte	.LASF170
 2243 0d03 01       		.byte	0x1
 2244 0d04 7602     		.2byte	0x276
 2245 0d06 00000000 		.4byte	.LFB260
 2246 0d0a 34000000 		.4byte	.LFE260-.LFB260
 2247 0d0e 01       		.uleb128 0x1
 2248 0d0f 9C       		.byte	0x9c
 2249 0d10 340D0000 		.4byte	0xd34
 2250 0d14 29       		.uleb128 0x29
 2251 0d15 C7030000 		.4byte	.LASF171
 2252 0d19 01       		.byte	0x1
 2253 0d1a 7602     		.2byte	0x276
 2254 0d1c 91090000 		.4byte	0x991
 2255 0d20 E0000000 		.4byte	.LLST4
 2256 0d24 28       		.uleb128 0x28
 2257 0d25 20000000 		.4byte	.LVL36
 2258 0d29 D80E0000 		.4byte	0xed8
 2259 0d2d 24       		.uleb128 0x24
 2260 0d2e 01       		.uleb128 0x1
 2261 0d2f 50       		.byte	0x50
 2262 0d30 01       		.uleb128 0x1
 2263 0d31 4D       		.byte	0x4d
 2264 0d32 00       		.byte	0
 2265 0d33 00       		.byte	0
 2266 0d34 27       		.uleb128 0x27
 2267 0d35 7E060000 		.4byte	.LASF172
 2268 0d39 01       		.byte	0x1
 2269 0d3a BD02     		.2byte	0x2bd
 2270 0d3c 00000000 		.4byte	.LFB261
 2271 0d40 0C000000 		.4byte	.LFE261-.LFB261
 2272 0d44 01       		.uleb128 0x1
 2273 0d45 9C       		.byte	0x9c
 2274 0d46 770D0000 		.4byte	0xd77
 2275 0d4a 2D       		.uleb128 0x2d
 2276 0d4b C7030000 		.4byte	.LASF171
ARM GAS  /tmp/cceeDsjZ.s 			page 41


 2277 0d4f 01       		.byte	0x1
 2278 0d50 BD02     		.2byte	0x2bd
 2279 0d52 91090000 		.4byte	0x991
 2280 0d56 01       		.uleb128 0x1
 2281 0d57 50       		.byte	0x50
 2282 0d58 29       		.uleb128 0x29
 2283 0d59 0A060000 		.4byte	.LASF173
 2284 0d5d 01       		.byte	0x1
 2285 0d5e BE02     		.2byte	0x2be
 2286 0d60 C50A0000 		.4byte	0xac5
 2287 0d64 1A010000 		.4byte	.LLST5
 2288 0d68 2D       		.uleb128 0x2d
 2289 0d69 12030000 		.4byte	.LASF174
 2290 0d6d 01       		.byte	0x1
 2291 0d6e BF02     		.2byte	0x2bf
 2292 0d70 DD0A0000 		.4byte	0xadd
 2293 0d74 01       		.uleb128 0x1
 2294 0d75 52       		.byte	0x52
 2295 0d76 00       		.byte	0
 2296 0d77 27       		.uleb128 0x27
 2297 0d78 DB000000 		.4byte	.LASF175
 2298 0d7c 01       		.byte	0x1
 2299 0d7d D802     		.2byte	0x2d8
 2300 0d7f 00000000 		.4byte	.LFB262
 2301 0d83 1C000000 		.4byte	.LFE262-.LFB262
 2302 0d87 01       		.uleb128 0x1
 2303 0d88 9C       		.byte	0x9c
 2304 0d89 AC0D0000 		.4byte	0xdac
 2305 0d8d 29       		.uleb128 0x29
 2306 0d8e C7030000 		.4byte	.LASF171
 2307 0d92 01       		.byte	0x1
 2308 0d93 D802     		.2byte	0x2d8
 2309 0d95 91090000 		.4byte	0x991
 2310 0d99 3B010000 		.4byte	.LLST6
 2311 0d9d 2D       		.uleb128 0x2d
 2312 0d9e 0A060000 		.4byte	.LASF173
 2313 0da2 01       		.byte	0x1
 2314 0da3 D802     		.2byte	0x2d8
 2315 0da5 C50A0000 		.4byte	0xac5
 2316 0da9 01       		.uleb128 0x1
 2317 0daa 51       		.byte	0x51
 2318 0dab 00       		.byte	0
 2319 0dac 27       		.uleb128 0x27
 2320 0dad E3020000 		.4byte	.LASF176
 2321 0db1 01       		.byte	0x1
 2322 0db2 F002     		.2byte	0x2f0
 2323 0db4 00000000 		.4byte	.LFB263
 2324 0db8 18000000 		.4byte	.LFE263-.LFB263
 2325 0dbc 01       		.uleb128 0x1
 2326 0dbd 9C       		.byte	0x9c
 2327 0dbe E10D0000 		.4byte	0xde1
 2328 0dc2 2D       		.uleb128 0x2d
 2329 0dc3 C7030000 		.4byte	.LASF171
 2330 0dc7 01       		.byte	0x1
 2331 0dc8 F002     		.2byte	0x2f0
 2332 0dca 91090000 		.4byte	0x991
 2333 0dce 01       		.uleb128 0x1
ARM GAS  /tmp/cceeDsjZ.s 			page 42


 2334 0dcf 50       		.byte	0x50
 2335 0dd0 2B       		.uleb128 0x2b
 2336 0dd1 43090000 		.4byte	.LASF164
 2337 0dd5 01       		.byte	0x1
 2338 0dd6 F102     		.2byte	0x2f1
 2339 0dd8 B8000000 		.4byte	0xb8
 2340 0ddc 5C010000 		.4byte	.LLST7
 2341 0de0 00       		.byte	0
 2342 0de1 27       		.uleb128 0x27
 2343 0de2 A0040000 		.4byte	.LASF177
 2344 0de6 01       		.byte	0x1
 2345 0de7 0403     		.2byte	0x304
 2346 0de9 00000000 		.4byte	.LFB264
 2347 0ded 0C000000 		.4byte	.LFE264-.LFB264
 2348 0df1 01       		.uleb128 0x1
 2349 0df2 9C       		.byte	0x9c
 2350 0df3 060E0000 		.4byte	0xe06
 2351 0df7 2D       		.uleb128 0x2d
 2352 0df8 C7030000 		.4byte	.LASF171
 2353 0dfc 01       		.byte	0x1
 2354 0dfd 0403     		.2byte	0x304
 2355 0dff 91090000 		.4byte	0x991
 2356 0e03 01       		.uleb128 0x1
 2357 0e04 50       		.byte	0x50
 2358 0e05 00       		.byte	0
 2359 0e06 27       		.uleb128 0x27
 2360 0e07 A7010000 		.4byte	.LASF178
 2361 0e0b 01       		.byte	0x1
 2362 0e0c 1403     		.2byte	0x314
 2363 0e0e 00000000 		.4byte	.LFB265
 2364 0e12 16000000 		.4byte	.LFE265-.LFB265
 2365 0e16 01       		.uleb128 0x1
 2366 0e17 9C       		.byte	0x9c
 2367 0e18 4B0E0000 		.4byte	0xe4b
 2368 0e1c 29       		.uleb128 0x29
 2369 0e1d C7030000 		.4byte	.LASF171
 2370 0e21 01       		.byte	0x1
 2371 0e22 1403     		.2byte	0x314
 2372 0e24 91090000 		.4byte	0x991
 2373 0e28 6F010000 		.4byte	.LLST8
 2374 0e2c 2D       		.uleb128 0x2d
 2375 0e2d 0A060000 		.4byte	.LASF173
 2376 0e31 01       		.byte	0x1
 2377 0e32 1503     		.2byte	0x315
 2378 0e34 C50A0000 		.4byte	0xac5
 2379 0e38 01       		.uleb128 0x1
 2380 0e39 51       		.byte	0x51
 2381 0e3a 2B       		.uleb128 0x2b
 2382 0e3b 43090000 		.4byte	.LASF164
 2383 0e3f 01       		.byte	0x1
 2384 0e40 1603     		.2byte	0x316
 2385 0e42 B8000000 		.4byte	0xb8
 2386 0e46 90010000 		.4byte	.LLST9
 2387 0e4a 00       		.byte	0
 2388 0e4b 27       		.uleb128 0x27
 2389 0e4c 93030000 		.4byte	.LASF179
 2390 0e50 01       		.byte	0x1
ARM GAS  /tmp/cceeDsjZ.s 			page 43


 2391 0e51 3003     		.2byte	0x330
 2392 0e53 00000000 		.4byte	.LFB266
 2393 0e57 10000000 		.4byte	.LFE266-.LFB266
 2394 0e5b 01       		.uleb128 0x1
 2395 0e5c 9C       		.byte	0x9c
 2396 0e5d 800E0000 		.4byte	0xe80
 2397 0e61 29       		.uleb128 0x29
 2398 0e62 C7030000 		.4byte	.LASF171
 2399 0e66 01       		.byte	0x1
 2400 0e67 3003     		.2byte	0x330
 2401 0e69 91090000 		.4byte	0x991
 2402 0e6d A3010000 		.4byte	.LLST10
 2403 0e71 2D       		.uleb128 0x2d
 2404 0e72 0A060000 		.4byte	.LASF173
 2405 0e76 01       		.byte	0x1
 2406 0e77 3103     		.2byte	0x331
 2407 0e79 C50A0000 		.4byte	0xac5
 2408 0e7d 01       		.uleb128 0x1
 2409 0e7e 51       		.byte	0x51
 2410 0e7f 00       		.byte	0
 2411 0e80 2E       		.uleb128 0x2e
 2412 0e81 7E050000 		.4byte	.LASF180
 2413 0e85 11       		.byte	0x11
 2414 0e86 A706     		.2byte	0x6a7
 2415 0e88 CE000000 		.4byte	0xce
 2416 0e8c 2F       		.uleb128 0x2f
 2417 0e8d 636800   		.ascii	"ch\000"
 2418 0e90 07       		.byte	0x7
 2419 0e91 0902     		.2byte	0x209
 2420 0e93 0D040000 		.4byte	0x40d
 2421 0e97 30       		.uleb128 0x30
 2422 0e98 5F010000 		.4byte	.LASF181
 2423 0e9c 01       		.byte	0x1
 2424 0e9d 3A       		.byte	0x3a
 2425 0e9e 01090000 		.4byte	0x901
 2426 0ea2 05       		.uleb128 0x5
 2427 0ea3 03       		.byte	0x3
 2428 0ea4 00000000 		.4byte	PWMD3
 2429 0ea8 31       		.uleb128 0x31
 2430 0ea9 47030000 		.4byte	.LASF189
 2431 0ead 0A       		.byte	0xa
 2432 0eae 6601     		.2byte	0x166
 2433 0eb0 32       		.uleb128 0x32
 2434 0eb1 27090000 		.4byte	.LASF182
 2435 0eb5 0E       		.byte	0xe
 2436 0eb6 2001     		.2byte	0x120
 2437 0eb8 C20E0000 		.4byte	0xec2
 2438 0ebc 0D       		.uleb128 0xd
 2439 0ebd 91090000 		.4byte	0x991
 2440 0ec1 00       		.byte	0
 2441 0ec2 33       		.uleb128 0x33
 2442 0ec3 1D010000 		.4byte	.LASF183
 2443 0ec7 12       		.byte	0x12
 2444 0ec8 4E       		.byte	0x4e
 2445 0ec9 D80E0000 		.4byte	0xed8
 2446 0ecd 0D       		.uleb128 0xd
 2447 0ece B8000000 		.4byte	0xb8
ARM GAS  /tmp/cceeDsjZ.s 			page 44


 2448 0ed2 0D       		.uleb128 0xd
 2449 0ed3 B8000000 		.4byte	0xb8
 2450 0ed7 00       		.byte	0
 2451 0ed8 34       		.uleb128 0x34
 2452 0ed9 A4020000 		.4byte	.LASF190
 2453 0edd 12       		.byte	0x12
 2454 0ede 4F       		.byte	0x4f
 2455 0edf 0D       		.uleb128 0xd
 2456 0ee0 B8000000 		.4byte	0xb8
 2457 0ee4 00       		.byte	0
 2458 0ee5 00       		.byte	0
 2459              		.section	.debug_abbrev,"",%progbits
 2460              	.Ldebug_abbrev0:
 2461 0000 01       		.uleb128 0x1
 2462 0001 11       		.uleb128 0x11
 2463 0002 01       		.byte	0x1
 2464 0003 25       		.uleb128 0x25
 2465 0004 0E       		.uleb128 0xe
 2466 0005 13       		.uleb128 0x13
 2467 0006 0B       		.uleb128 0xb
 2468 0007 03       		.uleb128 0x3
 2469 0008 0E       		.uleb128 0xe
 2470 0009 1B       		.uleb128 0x1b
 2471 000a 0E       		.uleb128 0xe
 2472 000b 55       		.uleb128 0x55
 2473 000c 17       		.uleb128 0x17
 2474 000d 11       		.uleb128 0x11
 2475 000e 01       		.uleb128 0x1
 2476 000f 10       		.uleb128 0x10
 2477 0010 17       		.uleb128 0x17
 2478 0011 00       		.byte	0
 2479 0012 00       		.byte	0
 2480 0013 02       		.uleb128 0x2
 2481 0014 24       		.uleb128 0x24
 2482 0015 00       		.byte	0
 2483 0016 0B       		.uleb128 0xb
 2484 0017 0B       		.uleb128 0xb
 2485 0018 3E       		.uleb128 0x3e
 2486 0019 0B       		.uleb128 0xb
 2487 001a 03       		.uleb128 0x3
 2488 001b 0E       		.uleb128 0xe
 2489 001c 00       		.byte	0
 2490 001d 00       		.byte	0
 2491 001e 03       		.uleb128 0x3
 2492 001f 24       		.uleb128 0x24
 2493 0020 00       		.byte	0
 2494 0021 0B       		.uleb128 0xb
 2495 0022 0B       		.uleb128 0xb
 2496 0023 3E       		.uleb128 0x3e
 2497 0024 0B       		.uleb128 0xb
 2498 0025 03       		.uleb128 0x3
 2499 0026 08       		.uleb128 0x8
 2500 0027 00       		.byte	0
 2501 0028 00       		.byte	0
 2502 0029 04       		.uleb128 0x4
 2503 002a 16       		.uleb128 0x16
 2504 002b 00       		.byte	0
ARM GAS  /tmp/cceeDsjZ.s 			page 45


 2505 002c 03       		.uleb128 0x3
 2506 002d 0E       		.uleb128 0xe
 2507 002e 3A       		.uleb128 0x3a
 2508 002f 0B       		.uleb128 0xb
 2509 0030 3B       		.uleb128 0x3b
 2510 0031 0B       		.uleb128 0xb
 2511 0032 49       		.uleb128 0x49
 2512 0033 13       		.uleb128 0x13
 2513 0034 00       		.byte	0
 2514 0035 00       		.byte	0
 2515 0036 05       		.uleb128 0x5
 2516 0037 35       		.uleb128 0x35
 2517 0038 00       		.byte	0
 2518 0039 49       		.uleb128 0x49
 2519 003a 13       		.uleb128 0x13
 2520 003b 00       		.byte	0
 2521 003c 00       		.byte	0
 2522 003d 06       		.uleb128 0x6
 2523 003e 13       		.uleb128 0x13
 2524 003f 01       		.byte	0x1
 2525 0040 03       		.uleb128 0x3
 2526 0041 0E       		.uleb128 0xe
 2527 0042 0B       		.uleb128 0xb
 2528 0043 0B       		.uleb128 0xb
 2529 0044 3A       		.uleb128 0x3a
 2530 0045 0B       		.uleb128 0xb
 2531 0046 3B       		.uleb128 0x3b
 2532 0047 0B       		.uleb128 0xb
 2533 0048 01       		.uleb128 0x1
 2534 0049 13       		.uleb128 0x13
 2535 004a 00       		.byte	0
 2536 004b 00       		.byte	0
 2537 004c 07       		.uleb128 0x7
 2538 004d 0D       		.uleb128 0xd
 2539 004e 00       		.byte	0
 2540 004f 03       		.uleb128 0x3
 2541 0050 0E       		.uleb128 0xe
 2542 0051 3A       		.uleb128 0x3a
 2543 0052 0B       		.uleb128 0xb
 2544 0053 3B       		.uleb128 0x3b
 2545 0054 0B       		.uleb128 0xb
 2546 0055 49       		.uleb128 0x49
 2547 0056 13       		.uleb128 0x13
 2548 0057 38       		.uleb128 0x38
 2549 0058 0B       		.uleb128 0xb
 2550 0059 00       		.byte	0
 2551 005a 00       		.byte	0
 2552 005b 08       		.uleb128 0x8
 2553 005c 0D       		.uleb128 0xd
 2554 005d 00       		.byte	0
 2555 005e 03       		.uleb128 0x3
 2556 005f 08       		.uleb128 0x8
 2557 0060 3A       		.uleb128 0x3a
 2558 0061 0B       		.uleb128 0xb
 2559 0062 3B       		.uleb128 0x3b
 2560 0063 05       		.uleb128 0x5
 2561 0064 49       		.uleb128 0x49
ARM GAS  /tmp/cceeDsjZ.s 			page 46


 2562 0065 13       		.uleb128 0x13
 2563 0066 38       		.uleb128 0x38
 2564 0067 0B       		.uleb128 0xb
 2565 0068 00       		.byte	0
 2566 0069 00       		.byte	0
 2567 006a 09       		.uleb128 0x9
 2568 006b 0D       		.uleb128 0xd
 2569 006c 00       		.byte	0
 2570 006d 03       		.uleb128 0x3
 2571 006e 0E       		.uleb128 0xe
 2572 006f 3A       		.uleb128 0x3a
 2573 0070 0B       		.uleb128 0xb
 2574 0071 3B       		.uleb128 0x3b
 2575 0072 05       		.uleb128 0x5
 2576 0073 49       		.uleb128 0x49
 2577 0074 13       		.uleb128 0x13
 2578 0075 38       		.uleb128 0x38
 2579 0076 0B       		.uleb128 0xb
 2580 0077 00       		.byte	0
 2581 0078 00       		.byte	0
 2582 0079 0A       		.uleb128 0xa
 2583 007a 0F       		.uleb128 0xf
 2584 007b 00       		.byte	0
 2585 007c 0B       		.uleb128 0xb
 2586 007d 0B       		.uleb128 0xb
 2587 007e 49       		.uleb128 0x49
 2588 007f 13       		.uleb128 0x13
 2589 0080 00       		.byte	0
 2590 0081 00       		.byte	0
 2591 0082 0B       		.uleb128 0xb
 2592 0083 13       		.uleb128 0x13
 2593 0084 01       		.byte	0x1
 2594 0085 03       		.uleb128 0x3
 2595 0086 0E       		.uleb128 0xe
 2596 0087 0B       		.uleb128 0xb
 2597 0088 0B       		.uleb128 0xb
 2598 0089 3A       		.uleb128 0x3a
 2599 008a 0B       		.uleb128 0xb
 2600 008b 3B       		.uleb128 0x3b
 2601 008c 05       		.uleb128 0x5
 2602 008d 01       		.uleb128 0x1
 2603 008e 13       		.uleb128 0x13
 2604 008f 00       		.byte	0
 2605 0090 00       		.byte	0
 2606 0091 0C       		.uleb128 0xc
 2607 0092 15       		.uleb128 0x15
 2608 0093 01       		.byte	0x1
 2609 0094 27       		.uleb128 0x27
 2610 0095 19       		.uleb128 0x19
 2611 0096 01       		.uleb128 0x1
 2612 0097 13       		.uleb128 0x13
 2613 0098 00       		.byte	0
 2614 0099 00       		.byte	0
 2615 009a 0D       		.uleb128 0xd
 2616 009b 05       		.uleb128 0x5
 2617 009c 00       		.byte	0
 2618 009d 49       		.uleb128 0x49
ARM GAS  /tmp/cceeDsjZ.s 			page 47


 2619 009e 13       		.uleb128 0x13
 2620 009f 00       		.byte	0
 2621 00a0 00       		.byte	0
 2622 00a1 0E       		.uleb128 0xe
 2623 00a2 0F       		.uleb128 0xf
 2624 00a3 00       		.byte	0
 2625 00a4 0B       		.uleb128 0xb
 2626 00a5 0B       		.uleb128 0xb
 2627 00a6 00       		.byte	0
 2628 00a7 00       		.byte	0
 2629 00a8 0F       		.uleb128 0xf
 2630 00a9 13       		.uleb128 0x13
 2631 00aa 01       		.byte	0x1
 2632 00ab 03       		.uleb128 0x3
 2633 00ac 0E       		.uleb128 0xe
 2634 00ad 0B       		.uleb128 0xb
 2635 00ae 05       		.uleb128 0x5
 2636 00af 3A       		.uleb128 0x3a
 2637 00b0 0B       		.uleb128 0xb
 2638 00b1 3B       		.uleb128 0x3b
 2639 00b2 05       		.uleb128 0x5
 2640 00b3 01       		.uleb128 0x1
 2641 00b4 13       		.uleb128 0x13
 2642 00b5 00       		.byte	0
 2643 00b6 00       		.byte	0
 2644 00b7 10       		.uleb128 0x10
 2645 00b8 01       		.uleb128 0x1
 2646 00b9 01       		.byte	0x1
 2647 00ba 49       		.uleb128 0x49
 2648 00bb 13       		.uleb128 0x13
 2649 00bc 01       		.uleb128 0x1
 2650 00bd 13       		.uleb128 0x13
 2651 00be 00       		.byte	0
 2652 00bf 00       		.byte	0
 2653 00c0 11       		.uleb128 0x11
 2654 00c1 21       		.uleb128 0x21
 2655 00c2 00       		.byte	0
 2656 00c3 49       		.uleb128 0x49
 2657 00c4 13       		.uleb128 0x13
 2658 00c5 2F       		.uleb128 0x2f
 2659 00c6 0B       		.uleb128 0xb
 2660 00c7 00       		.byte	0
 2661 00c8 00       		.byte	0
 2662 00c9 12       		.uleb128 0x12
 2663 00ca 13       		.uleb128 0x13
 2664 00cb 01       		.byte	0x1
 2665 00cc 0B       		.uleb128 0xb
 2666 00cd 0B       		.uleb128 0xb
 2667 00ce 3A       		.uleb128 0x3a
 2668 00cf 0B       		.uleb128 0xb
 2669 00d0 3B       		.uleb128 0x3b
 2670 00d1 05       		.uleb128 0x5
 2671 00d2 01       		.uleb128 0x1
 2672 00d3 13       		.uleb128 0x13
 2673 00d4 00       		.byte	0
 2674 00d5 00       		.byte	0
 2675 00d6 13       		.uleb128 0x13
ARM GAS  /tmp/cceeDsjZ.s 			page 48


 2676 00d7 16       		.uleb128 0x16
 2677 00d8 00       		.byte	0
 2678 00d9 03       		.uleb128 0x3
 2679 00da 0E       		.uleb128 0xe
 2680 00db 3A       		.uleb128 0x3a
 2681 00dc 0B       		.uleb128 0xb
 2682 00dd 3B       		.uleb128 0x3b
 2683 00de 05       		.uleb128 0x5
 2684 00df 49       		.uleb128 0x49
 2685 00e0 13       		.uleb128 0x13
 2686 00e1 00       		.byte	0
 2687 00e2 00       		.byte	0
 2688 00e3 14       		.uleb128 0x14
 2689 00e4 0D       		.uleb128 0xd
 2690 00e5 00       		.byte	0
 2691 00e6 03       		.uleb128 0x3
 2692 00e7 08       		.uleb128 0x8
 2693 00e8 3A       		.uleb128 0x3a
 2694 00e9 0B       		.uleb128 0xb
 2695 00ea 3B       		.uleb128 0x3b
 2696 00eb 0B       		.uleb128 0xb
 2697 00ec 49       		.uleb128 0x49
 2698 00ed 13       		.uleb128 0x13
 2699 00ee 38       		.uleb128 0x38
 2700 00ef 0B       		.uleb128 0xb
 2701 00f0 00       		.byte	0
 2702 00f1 00       		.byte	0
 2703 00f2 15       		.uleb128 0x15
 2704 00f3 13       		.uleb128 0x13
 2705 00f4 01       		.byte	0x1
 2706 00f5 0B       		.uleb128 0xb
 2707 00f6 0B       		.uleb128 0xb
 2708 00f7 3A       		.uleb128 0x3a
 2709 00f8 0B       		.uleb128 0xb
 2710 00f9 3B       		.uleb128 0x3b
 2711 00fa 0B       		.uleb128 0xb
 2712 00fb 01       		.uleb128 0x1
 2713 00fc 13       		.uleb128 0x13
 2714 00fd 00       		.byte	0
 2715 00fe 00       		.byte	0
 2716 00ff 16       		.uleb128 0x16
 2717 0100 17       		.uleb128 0x17
 2718 0101 01       		.byte	0x1
 2719 0102 0B       		.uleb128 0xb
 2720 0103 0B       		.uleb128 0xb
 2721 0104 3A       		.uleb128 0x3a
 2722 0105 0B       		.uleb128 0xb
 2723 0106 3B       		.uleb128 0x3b
 2724 0107 0B       		.uleb128 0xb
 2725 0108 01       		.uleb128 0x1
 2726 0109 13       		.uleb128 0x13
 2727 010a 00       		.byte	0
 2728 010b 00       		.byte	0
 2729 010c 17       		.uleb128 0x17
 2730 010d 0D       		.uleb128 0xd
 2731 010e 00       		.byte	0
 2732 010f 03       		.uleb128 0x3
ARM GAS  /tmp/cceeDsjZ.s 			page 49


 2733 0110 0E       		.uleb128 0xe
 2734 0111 3A       		.uleb128 0x3a
 2735 0112 0B       		.uleb128 0xb
 2736 0113 3B       		.uleb128 0x3b
 2737 0114 05       		.uleb128 0x5
 2738 0115 49       		.uleb128 0x49
 2739 0116 13       		.uleb128 0x13
 2740 0117 00       		.byte	0
 2741 0118 00       		.byte	0
 2742 0119 18       		.uleb128 0x18
 2743 011a 26       		.uleb128 0x26
 2744 011b 00       		.byte	0
 2745 011c 49       		.uleb128 0x49
 2746 011d 13       		.uleb128 0x13
 2747 011e 00       		.byte	0
 2748 011f 00       		.byte	0
 2749 0120 19       		.uleb128 0x19
 2750 0121 04       		.uleb128 0x4
 2751 0122 01       		.byte	0x1
 2752 0123 0B       		.uleb128 0xb
 2753 0124 0B       		.uleb128 0xb
 2754 0125 3A       		.uleb128 0x3a
 2755 0126 0B       		.uleb128 0xb
 2756 0127 3B       		.uleb128 0x3b
 2757 0128 0B       		.uleb128 0xb
 2758 0129 01       		.uleb128 0x1
 2759 012a 13       		.uleb128 0x13
 2760 012b 00       		.byte	0
 2761 012c 00       		.byte	0
 2762 012d 1A       		.uleb128 0x1a
 2763 012e 28       		.uleb128 0x28
 2764 012f 00       		.byte	0
 2765 0130 03       		.uleb128 0x3
 2766 0131 0E       		.uleb128 0xe
 2767 0132 1C       		.uleb128 0x1c
 2768 0133 0D       		.uleb128 0xd
 2769 0134 00       		.byte	0
 2770 0135 00       		.byte	0
 2771 0136 1B       		.uleb128 0x1b
 2772 0137 2E       		.uleb128 0x2e
 2773 0138 01       		.byte	0x1
 2774 0139 03       		.uleb128 0x3
 2775 013a 0E       		.uleb128 0xe
 2776 013b 3A       		.uleb128 0x3a
 2777 013c 0B       		.uleb128 0xb
 2778 013d 3B       		.uleb128 0x3b
 2779 013e 0B       		.uleb128 0xb
 2780 013f 27       		.uleb128 0x27
 2781 0140 19       		.uleb128 0x19
 2782 0141 20       		.uleb128 0x20
 2783 0142 0B       		.uleb128 0xb
 2784 0143 01       		.uleb128 0x1
 2785 0144 13       		.uleb128 0x13
 2786 0145 00       		.byte	0
 2787 0146 00       		.byte	0
 2788 0147 1C       		.uleb128 0x1c
 2789 0148 05       		.uleb128 0x5
ARM GAS  /tmp/cceeDsjZ.s 			page 50


 2790 0149 00       		.byte	0
 2791 014a 03       		.uleb128 0x3
 2792 014b 0E       		.uleb128 0xe
 2793 014c 3A       		.uleb128 0x3a
 2794 014d 0B       		.uleb128 0xb
 2795 014e 3B       		.uleb128 0x3b
 2796 014f 0B       		.uleb128 0xb
 2797 0150 49       		.uleb128 0x49
 2798 0151 13       		.uleb128 0x13
 2799 0152 00       		.byte	0
 2800 0153 00       		.byte	0
 2801 0154 1D       		.uleb128 0x1d
 2802 0155 34       		.uleb128 0x34
 2803 0156 00       		.byte	0
 2804 0157 03       		.uleb128 0x3
 2805 0158 08       		.uleb128 0x8
 2806 0159 3A       		.uleb128 0x3a
 2807 015a 0B       		.uleb128 0xb
 2808 015b 3B       		.uleb128 0x3b
 2809 015c 0B       		.uleb128 0xb
 2810 015d 49       		.uleb128 0x49
 2811 015e 13       		.uleb128 0x13
 2812 015f 00       		.byte	0
 2813 0160 00       		.byte	0
 2814 0161 1E       		.uleb128 0x1e
 2815 0162 2E       		.uleb128 0x2e
 2816 0163 01       		.byte	0x1
 2817 0164 3F       		.uleb128 0x3f
 2818 0165 19       		.uleb128 0x19
 2819 0166 03       		.uleb128 0x3
 2820 0167 0E       		.uleb128 0xe
 2821 0168 3A       		.uleb128 0x3a
 2822 0169 0B       		.uleb128 0xb
 2823 016a 3B       		.uleb128 0x3b
 2824 016b 0B       		.uleb128 0xb
 2825 016c 27       		.uleb128 0x27
 2826 016d 19       		.uleb128 0x19
 2827 016e 11       		.uleb128 0x11
 2828 016f 01       		.uleb128 0x1
 2829 0170 12       		.uleb128 0x12
 2830 0171 06       		.uleb128 0x6
 2831 0172 40       		.uleb128 0x40
 2832 0173 18       		.uleb128 0x18
 2833 0174 9742     		.uleb128 0x2117
 2834 0176 19       		.uleb128 0x19
 2835 0177 01       		.uleb128 0x1
 2836 0178 13       		.uleb128 0x13
 2837 0179 00       		.byte	0
 2838 017a 00       		.byte	0
 2839 017b 1F       		.uleb128 0x1f
 2840 017c 1D       		.uleb128 0x1d
 2841 017d 01       		.byte	0x1
 2842 017e 31       		.uleb128 0x31
 2843 017f 13       		.uleb128 0x13
 2844 0180 11       		.uleb128 0x11
 2845 0181 01       		.uleb128 0x1
 2846 0182 12       		.uleb128 0x12
ARM GAS  /tmp/cceeDsjZ.s 			page 51


 2847 0183 06       		.uleb128 0x6
 2848 0184 58       		.uleb128 0x58
 2849 0185 0B       		.uleb128 0xb
 2850 0186 59       		.uleb128 0x59
 2851 0187 0B       		.uleb128 0xb
 2852 0188 01       		.uleb128 0x1
 2853 0189 13       		.uleb128 0x13
 2854 018a 00       		.byte	0
 2855 018b 00       		.byte	0
 2856 018c 20       		.uleb128 0x20
 2857 018d 05       		.uleb128 0x5
 2858 018e 00       		.byte	0
 2859 018f 31       		.uleb128 0x31
 2860 0190 13       		.uleb128 0x13
 2861 0191 02       		.uleb128 0x2
 2862 0192 18       		.uleb128 0x18
 2863 0193 00       		.byte	0
 2864 0194 00       		.byte	0
 2865 0195 21       		.uleb128 0x21
 2866 0196 0B       		.uleb128 0xb
 2867 0197 01       		.byte	0x1
 2868 0198 11       		.uleb128 0x11
 2869 0199 01       		.uleb128 0x1
 2870 019a 12       		.uleb128 0x12
 2871 019b 06       		.uleb128 0x6
 2872 019c 00       		.byte	0
 2873 019d 00       		.byte	0
 2874 019e 22       		.uleb128 0x22
 2875 019f 34       		.uleb128 0x34
 2876 01a0 00       		.byte	0
 2877 01a1 31       		.uleb128 0x31
 2878 01a2 13       		.uleb128 0x13
 2879 01a3 02       		.uleb128 0x2
 2880 01a4 17       		.uleb128 0x17
 2881 01a5 00       		.byte	0
 2882 01a6 00       		.byte	0
 2883 01a7 23       		.uleb128 0x23
 2884 01a8 898201   		.uleb128 0x4109
 2885 01ab 01       		.byte	0x1
 2886 01ac 11       		.uleb128 0x11
 2887 01ad 01       		.uleb128 0x1
 2888 01ae 01       		.uleb128 0x1
 2889 01af 13       		.uleb128 0x13
 2890 01b0 00       		.byte	0
 2891 01b1 00       		.byte	0
 2892 01b2 24       		.uleb128 0x24
 2893 01b3 8A8201   		.uleb128 0x410a
 2894 01b6 00       		.byte	0
 2895 01b7 02       		.uleb128 0x2
 2896 01b8 18       		.uleb128 0x18
 2897 01b9 9142     		.uleb128 0x2111
 2898 01bb 18       		.uleb128 0x18
 2899 01bc 00       		.byte	0
 2900 01bd 00       		.byte	0
 2901 01be 25       		.uleb128 0x25
 2902 01bf 898201   		.uleb128 0x4109
 2903 01c2 01       		.byte	0x1
ARM GAS  /tmp/cceeDsjZ.s 			page 52


 2904 01c3 11       		.uleb128 0x11
 2905 01c4 01       		.uleb128 0x1
 2906 01c5 00       		.byte	0
 2907 01c6 00       		.byte	0
 2908 01c7 26       		.uleb128 0x26
 2909 01c8 898201   		.uleb128 0x4109
 2910 01cb 00       		.byte	0
 2911 01cc 11       		.uleb128 0x11
 2912 01cd 01       		.uleb128 0x1
 2913 01ce 9542     		.uleb128 0x2115
 2914 01d0 19       		.uleb128 0x19
 2915 01d1 31       		.uleb128 0x31
 2916 01d2 13       		.uleb128 0x13
 2917 01d3 00       		.byte	0
 2918 01d4 00       		.byte	0
 2919 01d5 27       		.uleb128 0x27
 2920 01d6 2E       		.uleb128 0x2e
 2921 01d7 01       		.byte	0x1
 2922 01d8 3F       		.uleb128 0x3f
 2923 01d9 19       		.uleb128 0x19
 2924 01da 03       		.uleb128 0x3
 2925 01db 0E       		.uleb128 0xe
 2926 01dc 3A       		.uleb128 0x3a
 2927 01dd 0B       		.uleb128 0xb
 2928 01de 3B       		.uleb128 0x3b
 2929 01df 05       		.uleb128 0x5
 2930 01e0 27       		.uleb128 0x27
 2931 01e1 19       		.uleb128 0x19
 2932 01e2 11       		.uleb128 0x11
 2933 01e3 01       		.uleb128 0x1
 2934 01e4 12       		.uleb128 0x12
 2935 01e5 06       		.uleb128 0x6
 2936 01e6 40       		.uleb128 0x40
 2937 01e7 18       		.uleb128 0x18
 2938 01e8 9742     		.uleb128 0x2117
 2939 01ea 19       		.uleb128 0x19
 2940 01eb 01       		.uleb128 0x1
 2941 01ec 13       		.uleb128 0x13
 2942 01ed 00       		.byte	0
 2943 01ee 00       		.byte	0
 2944 01ef 28       		.uleb128 0x28
 2945 01f0 898201   		.uleb128 0x4109
 2946 01f3 01       		.byte	0x1
 2947 01f4 11       		.uleb128 0x11
 2948 01f5 01       		.uleb128 0x1
 2949 01f6 31       		.uleb128 0x31
 2950 01f7 13       		.uleb128 0x13
 2951 01f8 00       		.byte	0
 2952 01f9 00       		.byte	0
 2953 01fa 29       		.uleb128 0x29
 2954 01fb 05       		.uleb128 0x5
 2955 01fc 00       		.byte	0
 2956 01fd 03       		.uleb128 0x3
 2957 01fe 0E       		.uleb128 0xe
 2958 01ff 3A       		.uleb128 0x3a
 2959 0200 0B       		.uleb128 0xb
 2960 0201 3B       		.uleb128 0x3b
ARM GAS  /tmp/cceeDsjZ.s 			page 53


 2961 0202 05       		.uleb128 0x5
 2962 0203 49       		.uleb128 0x49
 2963 0204 13       		.uleb128 0x13
 2964 0205 02       		.uleb128 0x2
 2965 0206 17       		.uleb128 0x17
 2966 0207 00       		.byte	0
 2967 0208 00       		.byte	0
 2968 0209 2A       		.uleb128 0x2a
 2969 020a 34       		.uleb128 0x34
 2970 020b 00       		.byte	0
 2971 020c 03       		.uleb128 0x3
 2972 020d 08       		.uleb128 0x8
 2973 020e 3A       		.uleb128 0x3a
 2974 020f 0B       		.uleb128 0xb
 2975 0210 3B       		.uleb128 0x3b
 2976 0211 05       		.uleb128 0x5
 2977 0212 49       		.uleb128 0x49
 2978 0213 13       		.uleb128 0x13
 2979 0214 02       		.uleb128 0x2
 2980 0215 17       		.uleb128 0x17
 2981 0216 00       		.byte	0
 2982 0217 00       		.byte	0
 2983 0218 2B       		.uleb128 0x2b
 2984 0219 34       		.uleb128 0x34
 2985 021a 00       		.byte	0
 2986 021b 03       		.uleb128 0x3
 2987 021c 0E       		.uleb128 0xe
 2988 021d 3A       		.uleb128 0x3a
 2989 021e 0B       		.uleb128 0xb
 2990 021f 3B       		.uleb128 0x3b
 2991 0220 05       		.uleb128 0x5
 2992 0221 49       		.uleb128 0x49
 2993 0222 13       		.uleb128 0x13
 2994 0223 02       		.uleb128 0x2
 2995 0224 17       		.uleb128 0x17
 2996 0225 00       		.byte	0
 2997 0226 00       		.byte	0
 2998 0227 2C       		.uleb128 0x2c
 2999 0228 34       		.uleb128 0x34
 3000 0229 00       		.byte	0
 3001 022a 03       		.uleb128 0x3
 3002 022b 0E       		.uleb128 0xe
 3003 022c 49       		.uleb128 0x49
 3004 022d 13       		.uleb128 0x13
 3005 022e 34       		.uleb128 0x34
 3006 022f 19       		.uleb128 0x19
 3007 0230 00       		.byte	0
 3008 0231 00       		.byte	0
 3009 0232 2D       		.uleb128 0x2d
 3010 0233 05       		.uleb128 0x5
 3011 0234 00       		.byte	0
 3012 0235 03       		.uleb128 0x3
 3013 0236 0E       		.uleb128 0xe
 3014 0237 3A       		.uleb128 0x3a
 3015 0238 0B       		.uleb128 0xb
 3016 0239 3B       		.uleb128 0x3b
 3017 023a 05       		.uleb128 0x5
ARM GAS  /tmp/cceeDsjZ.s 			page 54


 3018 023b 49       		.uleb128 0x49
 3019 023c 13       		.uleb128 0x13
 3020 023d 02       		.uleb128 0x2
 3021 023e 18       		.uleb128 0x18
 3022 023f 00       		.byte	0
 3023 0240 00       		.byte	0
 3024 0241 2E       		.uleb128 0x2e
 3025 0242 34       		.uleb128 0x34
 3026 0243 00       		.byte	0
 3027 0244 03       		.uleb128 0x3
 3028 0245 0E       		.uleb128 0xe
 3029 0246 3A       		.uleb128 0x3a
 3030 0247 0B       		.uleb128 0xb
 3031 0248 3B       		.uleb128 0x3b
 3032 0249 05       		.uleb128 0x5
 3033 024a 49       		.uleb128 0x49
 3034 024b 13       		.uleb128 0x13
 3035 024c 3F       		.uleb128 0x3f
 3036 024d 19       		.uleb128 0x19
 3037 024e 3C       		.uleb128 0x3c
 3038 024f 19       		.uleb128 0x19
 3039 0250 00       		.byte	0
 3040 0251 00       		.byte	0
 3041 0252 2F       		.uleb128 0x2f
 3042 0253 34       		.uleb128 0x34
 3043 0254 00       		.byte	0
 3044 0255 03       		.uleb128 0x3
 3045 0256 08       		.uleb128 0x8
 3046 0257 3A       		.uleb128 0x3a
 3047 0258 0B       		.uleb128 0xb
 3048 0259 3B       		.uleb128 0x3b
 3049 025a 05       		.uleb128 0x5
 3050 025b 49       		.uleb128 0x49
 3051 025c 13       		.uleb128 0x13
 3052 025d 3F       		.uleb128 0x3f
 3053 025e 19       		.uleb128 0x19
 3054 025f 3C       		.uleb128 0x3c
 3055 0260 19       		.uleb128 0x19
 3056 0261 00       		.byte	0
 3057 0262 00       		.byte	0
 3058 0263 30       		.uleb128 0x30
 3059 0264 34       		.uleb128 0x34
 3060 0265 00       		.byte	0
 3061 0266 03       		.uleb128 0x3
 3062 0267 0E       		.uleb128 0xe
 3063 0268 3A       		.uleb128 0x3a
 3064 0269 0B       		.uleb128 0xb
 3065 026a 3B       		.uleb128 0x3b
 3066 026b 0B       		.uleb128 0xb
 3067 026c 49       		.uleb128 0x49
 3068 026d 13       		.uleb128 0x13
 3069 026e 3F       		.uleb128 0x3f
 3070 026f 19       		.uleb128 0x19
 3071 0270 02       		.uleb128 0x2
 3072 0271 18       		.uleb128 0x18
 3073 0272 00       		.byte	0
 3074 0273 00       		.byte	0
ARM GAS  /tmp/cceeDsjZ.s 			page 55


 3075 0274 31       		.uleb128 0x31
 3076 0275 2E       		.uleb128 0x2e
 3077 0276 00       		.byte	0
 3078 0277 3F       		.uleb128 0x3f
 3079 0278 19       		.uleb128 0x19
 3080 0279 03       		.uleb128 0x3
 3081 027a 0E       		.uleb128 0xe
 3082 027b 3A       		.uleb128 0x3a
 3083 027c 0B       		.uleb128 0xb
 3084 027d 3B       		.uleb128 0x3b
 3085 027e 05       		.uleb128 0x5
 3086 027f 27       		.uleb128 0x27
 3087 0280 19       		.uleb128 0x19
 3088 0281 3C       		.uleb128 0x3c
 3089 0282 19       		.uleb128 0x19
 3090 0283 00       		.byte	0
 3091 0284 00       		.byte	0
 3092 0285 32       		.uleb128 0x32
 3093 0286 2E       		.uleb128 0x2e
 3094 0287 01       		.byte	0x1
 3095 0288 3F       		.uleb128 0x3f
 3096 0289 19       		.uleb128 0x19
 3097 028a 03       		.uleb128 0x3
 3098 028b 0E       		.uleb128 0xe
 3099 028c 3A       		.uleb128 0x3a
 3100 028d 0B       		.uleb128 0xb
 3101 028e 3B       		.uleb128 0x3b
 3102 028f 05       		.uleb128 0x5
 3103 0290 27       		.uleb128 0x27
 3104 0291 19       		.uleb128 0x19
 3105 0292 3C       		.uleb128 0x3c
 3106 0293 19       		.uleb128 0x19
 3107 0294 01       		.uleb128 0x1
 3108 0295 13       		.uleb128 0x13
 3109 0296 00       		.byte	0
 3110 0297 00       		.byte	0
 3111 0298 33       		.uleb128 0x33
 3112 0299 2E       		.uleb128 0x2e
 3113 029a 01       		.byte	0x1
 3114 029b 3F       		.uleb128 0x3f
 3115 029c 19       		.uleb128 0x19
 3116 029d 03       		.uleb128 0x3
 3117 029e 0E       		.uleb128 0xe
 3118 029f 3A       		.uleb128 0x3a
 3119 02a0 0B       		.uleb128 0xb
 3120 02a1 3B       		.uleb128 0x3b
 3121 02a2 0B       		.uleb128 0xb
 3122 02a3 27       		.uleb128 0x27
 3123 02a4 19       		.uleb128 0x19
 3124 02a5 3C       		.uleb128 0x3c
 3125 02a6 19       		.uleb128 0x19
 3126 02a7 01       		.uleb128 0x1
 3127 02a8 13       		.uleb128 0x13
 3128 02a9 00       		.byte	0
 3129 02aa 00       		.byte	0
 3130 02ab 34       		.uleb128 0x34
 3131 02ac 2E       		.uleb128 0x2e
ARM GAS  /tmp/cceeDsjZ.s 			page 56


 3132 02ad 01       		.byte	0x1
 3133 02ae 3F       		.uleb128 0x3f
 3134 02af 19       		.uleb128 0x19
 3135 02b0 03       		.uleb128 0x3
 3136 02b1 0E       		.uleb128 0xe
 3137 02b2 3A       		.uleb128 0x3a
 3138 02b3 0B       		.uleb128 0xb
 3139 02b4 3B       		.uleb128 0x3b
 3140 02b5 0B       		.uleb128 0xb
 3141 02b6 27       		.uleb128 0x27
 3142 02b7 19       		.uleb128 0x19
 3143 02b8 3C       		.uleb128 0x3c
 3144 02b9 19       		.uleb128 0x19
 3145 02ba 00       		.byte	0
 3146 02bb 00       		.byte	0
 3147 02bc 00       		.byte	0
 3148              		.section	.debug_loc,"",%progbits
 3149              	.Ldebug_loc0:
 3150              	.LLST0:
 3151 0000 08000000 		.4byte	.LVL1
 3152 0004 0C000000 		.4byte	.LVL2
 3153 0008 0100     		.2byte	0x1
 3154 000a 52       		.byte	0x52
 3155 000b 0C000000 		.4byte	.LVL2
 3156 000f 5C000000 		.4byte	.LVL8
 3157 0013 0600     		.2byte	0x6
 3158 0015 74       		.byte	0x74
 3159 0016 00       		.sleb128 0
 3160 0017 08       		.byte	0x8
 3161 0018 FF       		.byte	0xff
 3162 0019 1A       		.byte	0x1a
 3163 001a 9F       		.byte	0x9f
 3164 001b 00000000 		.4byte	0
 3165 001f 00000000 		.4byte	0
 3166              	.LLST1:
 3167 0023 00000000 		.4byte	.LVL11
 3168 0027 1A000000 		.4byte	.LVL12
 3169 002b 0100     		.2byte	0x1
 3170 002d 50       		.byte	0x50
 3171 002e 1A000000 		.4byte	.LVL12
 3172 0032 30000000 		.4byte	.LVL13
 3173 0036 0100     		.2byte	0x1
 3174 0038 54       		.byte	0x54
 3175 0039 30000000 		.4byte	.LVL13
 3176 003d A2000000 		.4byte	.LVL27
 3177 0041 0400     		.2byte	0x4
 3178 0043 F3       		.byte	0xf3
 3179 0044 01       		.uleb128 0x1
 3180 0045 50       		.byte	0x50
 3181 0046 9F       		.byte	0x9f
 3182 0047 A2000000 		.4byte	.LVL27
 3183 004b A8000000 		.4byte	.LVL28
 3184 004f 0100     		.2byte	0x1
 3185 0051 50       		.byte	0x50
 3186 0052 A8000000 		.4byte	.LVL28
 3187 0056 B4000000 		.4byte	.LVL29
 3188 005a 0100     		.2byte	0x1
ARM GAS  /tmp/cceeDsjZ.s 			page 57


 3189 005c 54       		.byte	0x54
 3190 005d B4000000 		.4byte	.LVL29
 3191 0061 CA000000 		.4byte	.LVL30
 3192 0065 0100     		.2byte	0x1
 3193 0067 50       		.byte	0x50
 3194 0068 CA000000 		.4byte	.LVL30
 3195 006c E4000000 		.4byte	.LFE259
 3196 0070 0100     		.2byte	0x1
 3197 0072 54       		.byte	0x54
 3198 0073 00000000 		.4byte	0
 3199 0077 00000000 		.4byte	0
 3200              	.LLST2:
 3201 007b 32000000 		.4byte	.LVL14
 3202 007f 46000000 		.4byte	.LVL17
 3203 0083 0100     		.2byte	0x1
 3204 0085 50       		.byte	0x50
 3205 0086 46000000 		.4byte	.LVL17
 3206 008a A2000000 		.4byte	.LVL27
 3207 008e 1200     		.2byte	0x12
 3208 0090 F3       		.byte	0xf3
 3209 0091 01       		.uleb128 0x1
 3210 0092 50       		.byte	0x50
 3211 0093 23       		.byte	0x23
 3212 0094 14       		.uleb128 0x14
 3213 0095 06       		.byte	0x6
 3214 0096 F7       		.byte	0xf7
 3215 0097 25       		.uleb128 0x25
 3216 0098 77       		.byte	0x77
 3217 0099 00       		.sleb128 0
 3218 009a F7       		.byte	0xf7
 3219 009b 25       		.uleb128 0x25
 3220 009c 1B       		.byte	0x1b
 3221 009d F7       		.byte	0xf7
 3222 009e 00       		.uleb128 0
 3223 009f 31       		.byte	0x31
 3224 00a0 1C       		.byte	0x1c
 3225 00a1 9F       		.byte	0x9f
 3226 00a2 00000000 		.4byte	0
 3227 00a6 00000000 		.4byte	0
 3228              	.LLST3:
 3229 00aa 3A000000 		.4byte	.LVL15
 3230 00ae 44000000 		.4byte	.LVL16
 3231 00b2 0200     		.2byte	0x2
 3232 00b4 30       		.byte	0x30
 3233 00b5 9F       		.byte	0x9f
 3234 00b6 44000000 		.4byte	.LVL16
 3235 00ba 80000000 		.4byte	.LVL20
 3236 00be 0100     		.2byte	0x1
 3237 00c0 52       		.byte	0x52
 3238 00c1 80000000 		.4byte	.LVL20
 3239 00c5 86000000 		.4byte	.LVL21
 3240 00c9 0200     		.2byte	0x2
 3241 00cb 73       		.byte	0x73
 3242 00cc 20       		.sleb128 32
 3243 00cd 8E000000 		.4byte	.LVL22
 3244 00d1 A2000000 		.4byte	.LVL27
 3245 00d5 0100     		.2byte	0x1
ARM GAS  /tmp/cceeDsjZ.s 			page 58


 3246 00d7 52       		.byte	0x52
 3247 00d8 00000000 		.4byte	0
 3248 00dc 00000000 		.4byte	0
 3249              	.LLST4:
 3250 00e0 00000000 		.4byte	.LVL32
 3251 00e4 08000000 		.4byte	.LVL33
 3252 00e8 0100     		.2byte	0x1
 3253 00ea 50       		.byte	0x50
 3254 00eb 08000000 		.4byte	.LVL33
 3255 00ef 0A000000 		.4byte	.LVL34
 3256 00f3 0400     		.2byte	0x4
 3257 00f5 F3       		.byte	0xf3
 3258 00f6 01       		.uleb128 0x1
 3259 00f7 50       		.byte	0x50
 3260 00f8 9F       		.byte	0x9f
 3261 00f9 0A000000 		.4byte	.LVL34
 3262 00fd 1C000000 		.4byte	.LVL35
 3263 0101 0100     		.2byte	0x1
 3264 0103 50       		.byte	0x50
 3265 0104 1C000000 		.4byte	.LVL35
 3266 0108 34000000 		.4byte	.LFE260
 3267 010c 0400     		.2byte	0x4
 3268 010e F3       		.byte	0xf3
 3269 010f 01       		.uleb128 0x1
 3270 0110 50       		.byte	0x50
 3271 0111 9F       		.byte	0x9f
 3272 0112 00000000 		.4byte	0
 3273 0116 00000000 		.4byte	0
 3274              	.LLST5:
 3275 011a 00000000 		.4byte	.LVL37
 3276 011e 04000000 		.4byte	.LVL38
 3277 0122 0100     		.2byte	0x1
 3278 0124 51       		.byte	0x51
 3279 0125 04000000 		.4byte	.LVL38
 3280 0129 0C000000 		.4byte	.LFE261
 3281 012d 0400     		.2byte	0x4
 3282 012f F3       		.byte	0xf3
 3283 0130 01       		.uleb128 0x1
 3284 0131 51       		.byte	0x51
 3285 0132 9F       		.byte	0x9f
 3286 0133 00000000 		.4byte	0
 3287 0137 00000000 		.4byte	0
 3288              	.LLST6:
 3289 013b 00000000 		.4byte	.LVL39
 3290 013f 0C000000 		.4byte	.LVL40
 3291 0143 0100     		.2byte	0x1
 3292 0145 50       		.byte	0x50
 3293 0146 0C000000 		.4byte	.LVL40
 3294 014a 1C000000 		.4byte	.LFE262
 3295 014e 0400     		.2byte	0x4
 3296 0150 F3       		.byte	0xf3
 3297 0151 01       		.uleb128 0x1
 3298 0152 50       		.byte	0x50
 3299 0153 9F       		.byte	0x9f
 3300 0154 00000000 		.4byte	0
 3301 0158 00000000 		.4byte	0
 3302              	.LLST7:
ARM GAS  /tmp/cceeDsjZ.s 			page 59


 3303 015c 04000000 		.4byte	.LVL42
 3304 0160 0C000000 		.4byte	.LVL43
 3305 0164 0100     		.2byte	0x1
 3306 0166 52       		.byte	0x52
 3307 0167 00000000 		.4byte	0
 3308 016b 00000000 		.4byte	0
 3309              	.LLST8:
 3310 016f 00000000 		.4byte	.LVL45
 3311 0173 02000000 		.4byte	.LVL46
 3312 0177 0100     		.2byte	0x1
 3313 0179 50       		.byte	0x50
 3314 017a 02000000 		.4byte	.LVL46
 3315 017e 16000000 		.4byte	.LFE265
 3316 0182 0400     		.2byte	0x4
 3317 0184 F3       		.byte	0xf3
 3318 0185 01       		.uleb128 0x1
 3319 0186 50       		.byte	0x50
 3320 0187 9F       		.byte	0x9f
 3321 0188 00000000 		.4byte	0
 3322 018c 00000000 		.4byte	0
 3323              	.LLST9:
 3324 0190 06000000 		.4byte	.LVL47
 3325 0194 0E000000 		.4byte	.LVL48
 3326 0198 0100     		.2byte	0x1
 3327 019a 52       		.byte	0x52
 3328 019b 00000000 		.4byte	0
 3329 019f 00000000 		.4byte	0
 3330              	.LLST10:
 3331 01a3 00000000 		.4byte	.LVL49
 3332 01a7 02000000 		.4byte	.LVL50
 3333 01ab 0100     		.2byte	0x1
 3334 01ad 50       		.byte	0x50
 3335 01ae 02000000 		.4byte	.LVL50
 3336 01b2 10000000 		.4byte	.LFE266
 3337 01b6 0400     		.2byte	0x4
 3338 01b8 F3       		.byte	0xf3
 3339 01b9 01       		.uleb128 0x1
 3340 01ba 50       		.byte	0x50
 3341 01bb 9F       		.byte	0x9f
 3342 01bc 00000000 		.4byte	0
 3343 01c0 00000000 		.4byte	0
 3344              		.section	.debug_aranges,"",%progbits
 3345 0000 64000000 		.4byte	0x64
 3346 0004 0200     		.2byte	0x2
 3347 0006 00000000 		.4byte	.Ldebug_info0
 3348 000a 04       		.byte	0x4
 3349 000b 00       		.byte	0
 3350 000c 0000     		.2byte	0
 3351 000e 0000     		.2byte	0
 3352 0010 00000000 		.4byte	.LFB257
 3353 0014 64000000 		.4byte	.LFE257-.LFB257
 3354 0018 00000000 		.4byte	.LFB258
 3355 001c 1C000000 		.4byte	.LFE258-.LFB258
 3356 0020 00000000 		.4byte	.LFB259
 3357 0024 E4000000 		.4byte	.LFE259-.LFB259
 3358 0028 00000000 		.4byte	.LFB260
 3359 002c 34000000 		.4byte	.LFE260-.LFB260
ARM GAS  /tmp/cceeDsjZ.s 			page 60


 3360 0030 00000000 		.4byte	.LFB261
 3361 0034 0C000000 		.4byte	.LFE261-.LFB261
 3362 0038 00000000 		.4byte	.LFB262
 3363 003c 1C000000 		.4byte	.LFE262-.LFB262
 3364 0040 00000000 		.4byte	.LFB263
 3365 0044 18000000 		.4byte	.LFE263-.LFB263
 3366 0048 00000000 		.4byte	.LFB264
 3367 004c 0C000000 		.4byte	.LFE264-.LFB264
 3368 0050 00000000 		.4byte	.LFB265
 3369 0054 16000000 		.4byte	.LFE265-.LFB265
 3370 0058 00000000 		.4byte	.LFB266
 3371 005c 10000000 		.4byte	.LFE266-.LFB266
 3372 0060 00000000 		.4byte	0
 3373 0064 00000000 		.4byte	0
 3374              		.section	.debug_ranges,"",%progbits
 3375              	.Ldebug_ranges0:
 3376 0000 00000000 		.4byte	.LFB257
 3377 0004 64000000 		.4byte	.LFE257
 3378 0008 00000000 		.4byte	.LFB258
 3379 000c 1C000000 		.4byte	.LFE258
 3380 0010 00000000 		.4byte	.LFB259
 3381 0014 E4000000 		.4byte	.LFE259
 3382 0018 00000000 		.4byte	.LFB260
 3383 001c 34000000 		.4byte	.LFE260
 3384 0020 00000000 		.4byte	.LFB261
 3385 0024 0C000000 		.4byte	.LFE261
 3386 0028 00000000 		.4byte	.LFB262
 3387 002c 1C000000 		.4byte	.LFE262
 3388 0030 00000000 		.4byte	.LFB263
 3389 0034 18000000 		.4byte	.LFE263
 3390 0038 00000000 		.4byte	.LFB264
 3391 003c 0C000000 		.4byte	.LFE264
 3392 0040 00000000 		.4byte	.LFB265
 3393 0044 16000000 		.4byte	.LFE265
 3394 0048 00000000 		.4byte	.LFB266
 3395 004c 10000000 		.4byte	.LFE266
 3396 0050 00000000 		.4byte	0
 3397 0054 00000000 		.4byte	0
 3398              		.section	.debug_line,"",%progbits
 3399              	.Ldebug_line0:
 3400 0000 D4030000 		.section	.debug_str,"MS",%progbits,1
 3400      02008902 
 3400      00000201 
 3400      FB0E0D00 
 3400      01010101 
 3401              	.LASF49:
 3402 0000 74687265 		.ascii	"threads_list_t\000"
 3402      6164735F 
 3402      6C697374 
 3402      5F7400
 3403              	.LASF157:
 3404 000f 70776D63 		.ascii	"pwmchannel_t\000"
 3404      68616E6E 
 3404      656C5F74 
 3404      00
 3405              	.LASF54:
 3406 001c 72656164 		.ascii	"ready_list_t\000"
ARM GAS  /tmp/cceeDsjZ.s 			page 61


 3406      795F6C69 
 3406      73745F74 
 3406      00
 3407              	.LASF147:
 3408 0029 44494552 		.ascii	"DIER\000"
 3408      00
 3409              	.LASF2:
 3410 002e 73697A65 		.ascii	"size_t\000"
 3410      5F7400
 3411              	.LASF187:
 3412 0035 70776D5F 		.ascii	"pwm_lld_serve_interrupt\000"
 3412      6C6C645F 
 3412      73657276 
 3412      655F696E 
 3412      74657272 
 3413              	.LASF117:
 3414 004d 7264796D 		.ascii	"rdymsg\000"
 3414      736700
 3415              	.LASF17:
 3416 0054 75696E74 		.ascii	"uint64_t\000"
 3416      36345F74 
 3416      00
 3417              	.LASF3:
 3418 005d 5F5F7569 		.ascii	"__uint8_t\000"
 3418      6E74385F 
 3418      7400
 3419              	.LASF114:
 3420 0067 706F7274 		.ascii	"port_intctx\000"
 3420      5F696E74 
 3420      63747800 
 3421              	.LASF53:
 3422 0073 63685F74 		.ascii	"ch_threads_queue\000"
 3422      68726561 
 3422      64735F71 
 3422      75657565 
 3422      00
 3423              	.LASF73:
 3424 0084 73797374 		.ascii	"system_debug_t\000"
 3424      656D5F64 
 3424      65627567 
 3424      5F7400
 3425              	.LASF141:
 3426 0093 70657269 		.ascii	"period\000"
 3426      6F6400
 3427              	.LASF13:
 3428 009a 6C6F6E67 		.ascii	"long long unsigned int\000"
 3428      206C6F6E 
 3428      6720756E 
 3428      7369676E 
 3428      65642069 
 3429              	.LASF118:
 3430 00b1 65786974 		.ascii	"exitcode\000"
 3430      636F6465 
 3430      00
 3431              	.LASF80:
 3432 00ba 6D61696E 		.ascii	"mainthread\000"
 3432      74687265 
ARM GAS  /tmp/cceeDsjZ.s 			page 62


 3432      616400
 3433              	.LASF70:
 3434 00c5 76697274 		.ascii	"virtual_timers_list_t\000"
 3434      75616C5F 
 3434      74696D65 
 3434      72735F6C 
 3434      6973745F 
 3435              	.LASF175:
 3436 00db 70776D5F 		.ascii	"pwm_lld_disable_channel\000"
 3436      6C6C645F 
 3436      64697361 
 3436      626C655F 
 3436      6368616E 
 3437              	.LASF151:
 3438 00f3 42445452 		.ascii	"BDTR\000"
 3438      00
 3439              	.LASF163:
 3440 00f8 66726571 		.ascii	"frequency\000"
 3440      75656E63 
 3440      7900
 3441              	.LASF99:
 3442 0102 41484231 		.ascii	"AHB1LPENR\000"
 3442      4C50454E 
 3442      5200
 3443              	.LASF31:
 3444 010c 705F7072 		.ascii	"p_prio\000"
 3444      696F00
 3445              	.LASF136:
 3446 0113 50574D5F 		.ascii	"PWM_READY\000"
 3446      52454144 
 3446      5900
 3447              	.LASF183:
 3448 011d 6E766963 		.ascii	"nvicEnableVector\000"
 3448      456E6162 
 3448      6C655665 
 3448      63746F72 
 3448      00
 3449              	.LASF148:
 3450 012e 43434D52 		.ascii	"CCMR1\000"
 3450      3100
 3451              	.LASF149:
 3452 0134 43434D52 		.ascii	"CCMR2\000"
 3452      3200
 3453              	.LASF153:
 3454 013a 43434D52 		.ascii	"CCMR3\000"
 3454      3300
 3455              	.LASF1:
 3456 0140 7369676E 		.ascii	"signed char\000"
 3456      65642063 
 3456      68617200 
 3457              	.LASF85:
 3458 014c 41484231 		.ascii	"AHB1RSTR\000"
 3458      52535452 
 3458      00
 3459              	.LASF156:
 3460 0155 70776D6D 		.ascii	"pwmmode_t\000"
 3460      6F64655F 
ARM GAS  /tmp/cceeDsjZ.s 			page 63


 3460      7400
 3461              	.LASF181:
 3462 015f 50574D44 		.ascii	"PWMD3\000"
 3462      3300
 3463              	.LASF22:
 3464 0165 74736C69 		.ascii	"tslices_t\000"
 3464      6365735F 
 3464      7400
 3465              	.LASF166:
 3466 016f 56656374 		.ascii	"VectorB4\000"
 3466      6F724234 
 3466      00
 3467              	.LASF139:
 3468 0178 73746174 		.ascii	"state\000"
 3468      6500
 3469              	.LASF143:
 3470 017e 6368616E 		.ascii	"channels\000"
 3470      6E656C73 
 3470      00
 3471              	.LASF8:
 3472 0187 6C6F6E67 		.ascii	"long int\000"
 3472      20696E74 
 3472      00
 3473              	.LASF168:
 3474 0190 70776D5F 		.ascii	"pwm_lld_start\000"
 3474      6C6C645F 
 3474      73746172 
 3474      7400
 3475              	.LASF90:
 3476 019e 41504232 		.ascii	"APB2RSTR\000"
 3476      52535452 
 3476      00
 3477              	.LASF178:
 3478 01a7 70776D5F 		.ascii	"pwm_lld_enable_channel_notification\000"
 3478      6C6C645F 
 3478      656E6162 
 3478      6C655F63 
 3478      68616E6E 
 3479              	.LASF103:
 3480 01cb 41504231 		.ascii	"APB1LPENR\000"
 3480      4C50454E 
 3480      5200
 3481              	.LASF20:
 3482 01d5 74737461 		.ascii	"tstate_t\000"
 3482      74655F74 
 3482      00
 3483              	.LASF185:
 3484 01de 43686962 		.ascii	"ChibiOS_3.0.2/os/hal/ports/STM32/LLD/TIMv1/pwm_lld."
 3484      694F535F 
 3484      332E302E 
 3484      322F6F73 
 3484      2F68616C 
 3485 0211 6300     		.ascii	"c\000"
 3486              	.LASF145:
 3487 0213 70776D63 		.ascii	"pwmcallback_t\000"
 3487      616C6C62 
 3487      61636B5F 
ARM GAS  /tmp/cceeDsjZ.s 			page 64


 3487      7400
 3488              	.LASF33:
 3489 0221 705F6E65 		.ascii	"p_newer\000"
 3489      77657200 
 3490              	.LASF83:
 3491 0229 504C4C43 		.ascii	"PLLCFGR\000"
 3491      46475200 
 3492              	.LASF6:
 3493 0231 73686F72 		.ascii	"short unsigned int\000"
 3493      7420756E 
 3493      7369676E 
 3493      65642069 
 3493      6E7400
 3494              	.LASF59:
 3495 0244 725F6E65 		.ascii	"r_newer\000"
 3495      77657200 
 3496              	.LASF47:
 3497 024c 705F6D70 		.ascii	"p_mpool\000"
 3497      6F6F6C00 
 3498              	.LASF111:
 3499 0254 72656761 		.ascii	"regarm_t\000"
 3499      726D5F74 
 3499      00
 3500              	.LASF66:
 3501 025d 76745F70 		.ascii	"vt_prev\000"
 3501      72657600 
 3502              	.LASF79:
 3503 0265 76746C69 		.ascii	"vtlist\000"
 3503      737400
 3504              	.LASF11:
 3505 026c 6C6F6E67 		.ascii	"long long int\000"
 3505      206C6F6E 
 3505      6720696E 
 3505      7400
 3506              	.LASF81:
 3507 027a 69646C65 		.ascii	"idle_thread_wa\000"
 3507      5F746872 
 3507      6561645F 
 3507      776100
 3508              	.LASF26:
 3509 0289 636E745F 		.ascii	"cnt_t\000"
 3509      7400
 3510              	.LASF0:
 3511 028f 756E7369 		.ascii	"unsigned int\000"
 3511      676E6564 
 3511      20696E74 
 3511      00
 3512              	.LASF65:
 3513 029c 76745F6E 		.ascii	"vt_next\000"
 3513      65787400 
 3514              	.LASF190:
 3515 02a4 6E766963 		.ascii	"nvicDisableVector\000"
 3515      44697361 
 3515      626C6556 
 3515      6563746F 
 3515      7200
 3516              	.LASF40:
ARM GAS  /tmp/cceeDsjZ.s 			page 65


 3517 02b6 705F7469 		.ascii	"p_time\000"
 3517      6D6500
 3518              	.LASF121:
 3519 02bd 77747365 		.ascii	"wtsemp\000"
 3519      6D7000
 3520              	.LASF72:
 3521 02c4 76745F73 		.ascii	"vt_systime\000"
 3521      79737469 
 3521      6D6500
 3522              	.LASF67:
 3523 02cf 76745F64 		.ascii	"vt_delta\000"
 3523      656C7461 
 3523      00
 3524              	.LASF42:
 3525 02d8 705F6D73 		.ascii	"p_msgqueue\000"
 3525      67717565 
 3525      756500
 3526              	.LASF176:
 3527 02e3 70776D5F 		.ascii	"pwm_lld_enable_periodic_notification\000"
 3527      6C6C645F 
 3527      656E6162 
 3527      6C655F70 
 3527      6572696F 
 3528              	.LASF50:
 3529 0308 63685F74 		.ascii	"ch_thread\000"
 3529      68726561 
 3529      6400
 3530              	.LASF174:
 3531 0312 77696474 		.ascii	"width\000"
 3531      6800
 3532              	.LASF146:
 3533 0318 534D4352 		.ascii	"SMCR\000"
 3533      00
 3534              	.LASF109:
 3535 031d 504C4C49 		.ascii	"PLLI2SCFGR\000"
 3535      32534346 
 3535      475200
 3536              	.LASF24:
 3537 0328 6D73675F 		.ascii	"msg_t\000"
 3537      7400
 3538              	.LASF87:
 3539 032e 41484233 		.ascii	"AHB3RSTR\000"
 3539      52535452 
 3539      00
 3540              	.LASF51:
 3541 0337 63685F74 		.ascii	"ch_threads_list\000"
 3541      68726561 
 3541      64735F6C 
 3541      69737400 
 3542              	.LASF189:
 3543 0347 5F706F72 		.ascii	"_port_irq_epilogue\000"
 3543      745F6972 
 3543      715F6570 
 3543      696C6F67 
 3543      756500
 3544              	.LASF161:
 3545 035a 63616C6C 		.ascii	"callback\000"
ARM GAS  /tmp/cceeDsjZ.s 			page 66


 3545      6261636B 
 3545      00
 3546              	.LASF155:
 3547 0363 73746D33 		.ascii	"stm32_tim_t\000"
 3547      325F7469 
 3547      6D5F7400 
 3548              	.LASF104:
 3549 036f 41504232 		.ascii	"APB2LPENR\000"
 3549      4C50454E 
 3549      5200
 3550              	.LASF55:
 3551 0379 63685F72 		.ascii	"ch_ready_list\000"
 3551      65616479 
 3551      5F6C6973 
 3551      7400
 3552              	.LASF25:
 3553 0387 6576656E 		.ascii	"eventmask_t\000"
 3553      746D6173 
 3553      6B5F7400 
 3554              	.LASF179:
 3555 0393 70776D5F 		.ascii	"pwm_lld_disable_channel_notification\000"
 3555      6C6C645F 
 3555      64697361 
 3555      626C655F 
 3555      6368616E 
 3556              	.LASF169:
 3557 03b8 63636572 		.ascii	"ccer\000"
 3557      00
 3558              	.LASF7:
 3559 03bd 5F5F696E 		.ascii	"__int32_t\000"
 3559      7433325F 
 3559      7400
 3560              	.LASF171:
 3561 03c7 70776D70 		.ascii	"pwmp\000"
 3561      00
 3562              	.LASF112:
 3563 03cc 73746B61 		.ascii	"stkalign_t\000"
 3563      6C69676E 
 3563      5F7400
 3564              	.LASF132:
 3565 03d7 6D757465 		.ascii	"mutex_t\000"
 3565      785F7400 
 3566              	.LASF63:
 3567 03df 76697274 		.ascii	"virtual_timer_t\000"
 3567      75616C5F 
 3567      74696D65 
 3567      725F7400 
 3568              	.LASF41:
 3569 03ef 705F7761 		.ascii	"p_waiting\000"
 3569      6974696E 
 3569      6700
 3570              	.LASF82:
 3571 03f9 73697A65 		.ascii	"sizetype\000"
 3571      74797065 
 3571      00
 3572              	.LASF48:
 3573 0402 74687265 		.ascii	"thread_reference_t\000"
ARM GAS  /tmp/cceeDsjZ.s 			page 67


 3573      61645F72 
 3573      65666572 
 3573      656E6365 
 3573      5F7400
 3574              	.LASF71:
 3575 0415 63685F76 		.ascii	"ch_virtual_timers_list\000"
 3575      69727475 
 3575      616C5F74 
 3575      696D6572 
 3575      735F6C69 
 3576              	.LASF120:
 3577 042c 77747472 		.ascii	"wttrp\000"
 3577      7000
 3578              	.LASF29:
 3579 0432 705F6E65 		.ascii	"p_next\000"
 3579      787400
 3580              	.LASF44:
 3581 0439 705F6570 		.ascii	"p_epending\000"
 3581      656E6469 
 3581      6E6700
 3582              	.LASF94:
 3583 0444 41484233 		.ascii	"AHB3ENR\000"
 3583      454E5200 
 3584              	.LASF34:
 3585 044c 705F6F6C 		.ascii	"p_older\000"
 3585      64657200 
 3586              	.LASF167:
 3587 0454 70776D5F 		.ascii	"pwm_lld_init\000"
 3587      6C6C645F 
 3587      696E6974 
 3587      00
 3588              	.LASF58:
 3589 0461 725F6374 		.ascii	"r_ctx\000"
 3589      7800
 3590              	.LASF100:
 3591 0467 41484232 		.ascii	"AHB2LPENR\000"
 3591      4C50454E 
 3591      5200
 3592              	.LASF116:
 3593 0471 746D5F63 		.ascii	"tm_calibration_t\000"
 3593      616C6962 
 3593      72617469 
 3593      6F6E5F74 
 3593      00
 3594              	.LASF61:
 3595 0482 725F6375 		.ascii	"r_current\000"
 3595      7272656E 
 3595      7400
 3596              	.LASF89:
 3597 048c 41504231 		.ascii	"APB1RSTR\000"
 3597      52535452 
 3597      00
 3598              	.LASF12:
 3599 0495 5F5F7569 		.ascii	"__uint64_t\000"
 3599      6E743634 
 3599      5F7400
 3600              	.LASF177:
ARM GAS  /tmp/cceeDsjZ.s 			page 68


 3601 04a0 70776D5F 		.ascii	"pwm_lld_disable_periodic_notification\000"
 3601      6C6C645F 
 3601      64697361 
 3601      626C655F 
 3601      70657269 
 3602              	.LASF21:
 3603 04c6 74726566 		.ascii	"trefs_t\000"
 3603      735F7400 
 3604              	.LASF88:
 3605 04ce 52455345 		.ascii	"RESERVED0\000"
 3605      52564544 
 3605      3000
 3606              	.LASF91:
 3607 04d8 52455345 		.ascii	"RESERVED1\000"
 3607      52564544 
 3607      3100
 3608              	.LASF95:
 3609 04e2 52455345 		.ascii	"RESERVED2\000"
 3609      52564544 
 3609      3200
 3610              	.LASF98:
 3611 04ec 52455345 		.ascii	"RESERVED3\000"
 3611      52564544 
 3611      3300
 3612              	.LASF102:
 3613 04f6 52455345 		.ascii	"RESERVED4\000"
 3613      52564544 
 3613      3400
 3614              	.LASF30:
 3615 0500 705F7072 		.ascii	"p_prev\000"
 3615      657600
 3616              	.LASF107:
 3617 0507 52455345 		.ascii	"RESERVED6\000"
 3617      52564544 
 3617      3600
 3618              	.LASF23:
 3619 0511 74707269 		.ascii	"tprio_t\000"
 3619      6F5F7400 
 3620              	.LASF186:
 3621 0519 2F686F6D 		.ascii	"/home/benjamin/Skrivbord/SP-RCCar/Embedded/Mote/\000"
 3621      652F6265 
 3621      6E6A616D 
 3621      696E2F53 
 3621      6B726976 
 3622              	.LASF74:
 3623 054a 63685F73 		.ascii	"ch_system_debug\000"
 3623      79737465 
 3623      6D5F6465 
 3623      62756700 
 3624              	.LASF133:
 3625 055a 5F426F6F 		.ascii	"_Bool\000"
 3625      6C00
 3626              	.LASF15:
 3627 0560 696E7433 		.ascii	"int32_t\000"
 3627      325F7400 
 3628              	.LASF4:
 3629 0568 756E7369 		.ascii	"unsigned char\000"
ARM GAS  /tmp/cceeDsjZ.s 			page 69


 3629      676E6564 
 3629      20636861 
 3629      7200
 3630              	.LASF128:
 3631 0576 6D5F7175 		.ascii	"m_queue\000"
 3631      65756500 
 3632              	.LASF180:
 3633 057e 49544D5F 		.ascii	"ITM_RxBuffer\000"
 3633      52784275 
 3633      66666572 
 3633      00
 3634              	.LASF126:
 3635 058b 735F636E 		.ascii	"s_cnt\000"
 3635      7400
 3636              	.LASF110:
 3637 0591 5243435F 		.ascii	"RCC_TypeDef\000"
 3637      54797065 
 3637      44656600 
 3638              	.LASF45:
 3639 059d 705F6D74 		.ascii	"p_mtxlist\000"
 3639      786C6973 
 3639      7400
 3640              	.LASF5:
 3641 05a7 73686F72 		.ascii	"short int\000"
 3641      7420696E 
 3641      7400
 3642              	.LASF36:
 3643 05b1 705F7374 		.ascii	"p_state\000"
 3643      61746500 
 3644              	.LASF39:
 3645 05b9 705F7072 		.ascii	"p_preempt\000"
 3645      65656D70 
 3645      7400
 3646              	.LASF101:
 3647 05c3 41484233 		.ascii	"AHB3LPENR\000"
 3647      4C50454E 
 3647      5200
 3648              	.LASF57:
 3649 05cd 725F7072 		.ascii	"r_prio\000"
 3649      696F00
 3650              	.LASF123:
 3651 05d4 65776D61 		.ascii	"ewmask\000"
 3651      736B00
 3652              	.LASF158:
 3653 05db 70776D63 		.ascii	"pwmchnmsk_t\000"
 3653      686E6D73 
 3653      6B5F7400 
 3654              	.LASF37:
 3655 05e7 705F666C 		.ascii	"p_flags\000"
 3655      61677300 
 3656              	.LASF188:
 3657 05ef 5F5F6675 		.ascii	"__func__\000"
 3657      6E635F5F 
 3657      00
 3658              	.LASF77:
 3659 05f8 63685F73 		.ascii	"ch_system\000"
 3659      79737465 
ARM GAS  /tmp/cceeDsjZ.s 			page 70


 3659      6D00
 3660              	.LASF97:
 3661 0602 41504232 		.ascii	"APB2ENR\000"
 3661      454E5200 
 3662              	.LASF173:
 3663 060a 6368616E 		.ascii	"channel\000"
 3663      6E656C00 
 3664              	.LASF64:
 3665 0612 63685F76 		.ascii	"ch_virtual_timer\000"
 3665      69727475 
 3665      616C5F74 
 3665      696D6572 
 3665      00
 3666              	.LASF124:
 3667 0623 63685F73 		.ascii	"ch_semaphore\000"
 3667      656D6170 
 3667      686F7265 
 3667      00
 3668              	.LASF154:
 3669 0630 43435852 		.ascii	"CCXR\000"
 3669      00
 3670              	.LASF170:
 3671 0635 70776D5F 		.ascii	"pwm_lld_stop\000"
 3671      6C6C645F 
 3671      73746F70 
 3671      00
 3672              	.LASF105:
 3673 0642 52455345 		.ascii	"RESERVED5\000"
 3673      52564544 
 3673      3500
 3674              	.LASF16:
 3675 064c 75696E74 		.ascii	"uint32_t\000"
 3675      33325F74 
 3675      00
 3676              	.LASF122:
 3677 0655 77746D74 		.ascii	"wtmtxp\000"
 3677      787000
 3678              	.LASF56:
 3679 065c 725F7175 		.ascii	"r_queue\000"
 3679      65756500 
 3680              	.LASF142:
 3681 0664 656E6162 		.ascii	"enabled\000"
 3681      6C656400 
 3682              	.LASF10:
 3683 066c 6C6F6E67 		.ascii	"long unsigned int\000"
 3683      20756E73 
 3683      69676E65 
 3683      6420696E 
 3683      7400
 3684              	.LASF172:
 3685 067e 70776D5F 		.ascii	"pwm_lld_enable_channel\000"
 3685      6C6C645F 
 3685      656E6162 
 3685      6C655F63 
 3685      68616E6E 
 3686              	.LASF135:
 3687 0695 50574D5F 		.ascii	"PWM_STOP\000"
ARM GAS  /tmp/cceeDsjZ.s 			page 71


 3687      53544F50 
 3687      00
 3688              	.LASF131:
 3689 069e 63686172 		.ascii	"char\000"
 3689      00
 3690              	.LASF160:
 3691 06a3 6D6F6465 		.ascii	"mode\000"
 3691      00
 3692              	.LASF140:
 3693 06a8 636F6E66 		.ascii	"config\000"
 3693      696700
 3694              	.LASF152:
 3695 06af 444D4152 		.ascii	"DMAR\000"
 3695      00
 3696              	.LASF86:
 3697 06b4 41484232 		.ascii	"AHB2RSTR\000"
 3697      52535452 
 3697      00
 3698              	.LASF184:
 3699 06bd 474E5520 		.ascii	"GNU C 4.9.3 20150529 (release) [ARM/embedded-4_9-br"
 3699      4320342E 
 3699      392E3320 
 3699      32303135 
 3699      30353239 
 3700 06f0 616E6368 		.ascii	"anch revision 227977] -mcpu=cortex-m4 -mfloat-abi=h"
 3700      20726576 
 3700      6973696F 
 3700      6E203232 
 3700      37393737 
 3701 0723 61726420 		.ascii	"ard -mfpu=fpv4-sp-d16 -mno-thumb-interwork -mthumb "
 3701      2D6D6670 
 3701      753D6670 
 3701      76342D73 
 3701      702D6431 
 3702 0756 2D676764 		.ascii	"-ggdb -O2 -std=gnu99 -fomit-frame-pointer -falign-f"
 3702      62202D4F 
 3702      32202D73 
 3702      74643D67 
 3702      6E753939 
 3703 0789 756E6374 		.ascii	"unctions=16 -ffunction-sections -fdata-sections -fn"
 3703      696F6E73 
 3703      3D313620 
 3703      2D666675 
 3703      6E637469 
 3704 07bc 6F2D636F 		.ascii	"o-common -fsingle-precision-constant\000"
 3704      6D6D6F6E 
 3704      202D6673 
 3704      696E676C 
 3704      652D7072 
 3705              	.LASF150:
 3706 07e1 43434552 		.ascii	"CCER\000"
 3706      00
 3707              	.LASF130:
 3708 07e6 6D5F6E65 		.ascii	"m_next\000"
 3708      787400
 3709              	.LASF27:
 3710 07ed 73797374 		.ascii	"systime_t\000"
ARM GAS  /tmp/cceeDsjZ.s 			page 72


 3710      696D655F 
 3710      7400
 3711              	.LASF46:
 3712 07f7 705F7265 		.ascii	"p_realprio\000"
 3712      616C7072 
 3712      696F00
 3713              	.LASF62:
 3714 0802 76746675 		.ascii	"vtfunc_t\000"
 3714      6E635F74 
 3714      00
 3715              	.LASF9:
 3716 080b 5F5F7569 		.ascii	"__uint32_t\000"
 3716      6E743332 
 3716      5F7400
 3717              	.LASF75:
 3718 0816 70616E69 		.ascii	"panic_msg\000"
 3718      635F6D73 
 3718      6700
 3719              	.LASF115:
 3720 0820 6F666673 		.ascii	"offset\000"
 3720      657400
 3721              	.LASF96:
 3722 0827 41504231 		.ascii	"APB1ENR\000"
 3722      454E5200 
 3723              	.LASF93:
 3724 082f 41484232 		.ascii	"AHB2ENR\000"
 3724      454E5200 
 3725              	.LASF113:
 3726 0837 636F6E74 		.ascii	"context\000"
 3726      65787400 
 3727              	.LASF60:
 3728 083f 725F6F6C 		.ascii	"r_older\000"
 3728      64657200 
 3729              	.LASF76:
 3730 0847 63685F73 		.ascii	"ch_system_t\000"
 3730      79737465 
 3730      6D5F7400 
 3731              	.LASF162:
 3732 0853 50574D43 		.ascii	"PWMChannelConfig\000"
 3732      68616E6E 
 3732      656C436F 
 3732      6E666967 
 3732      00
 3733              	.LASF18:
 3734 0864 7274636E 		.ascii	"rtcnt_t\000"
 3734      745F7400 
 3735              	.LASF69:
 3736 086c 76745F70 		.ascii	"vt_par\000"
 3736      617200
 3737              	.LASF108:
 3738 0873 53534347 		.ascii	"SSCGR\000"
 3738      5200
 3739              	.LASF165:
 3740 0879 50574D43 		.ascii	"PWMConfig\000"
 3740      6F6E6669 
 3740      6700
 3741              	.LASF52:
ARM GAS  /tmp/cceeDsjZ.s 			page 73


 3742 0883 74687265 		.ascii	"threads_queue_t\000"
 3742      6164735F 
 3742      71756575 
 3742      655F7400 
 3743              	.LASF127:
 3744 0893 63685F6D 		.ascii	"ch_mutex\000"
 3744      75746578 
 3744      00
 3745              	.LASF38:
 3746 089c 705F7265 		.ascii	"p_refs\000"
 3746      667300
 3747              	.LASF28:
 3748 08a3 74687265 		.ascii	"thread_t\000"
 3748      61645F74 
 3748      00
 3749              	.LASF106:
 3750 08ac 42444352 		.ascii	"BDCR\000"
 3750      00
 3751              	.LASF78:
 3752 08b1 726C6973 		.ascii	"rlist\000"
 3752      7400
 3753              	.LASF14:
 3754 08b7 75696E74 		.ascii	"uint8_t\000"
 3754      385F7400 
 3755              	.LASF138:
 3756 08bf 50574D44 		.ascii	"PWMDriver\000"
 3756      72697665 
 3756      7200
 3757              	.LASF137:
 3758 08c9 70776D73 		.ascii	"pwmstate_t\000"
 3758      74617465 
 3758      5F7400
 3759              	.LASF159:
 3760 08d4 70776D63 		.ascii	"pwmcnt_t\000"
 3760      6E745F74 
 3760      00
 3761              	.LASF119:
 3762 08dd 77746F62 		.ascii	"wtobjp\000"
 3762      6A7000
 3763              	.LASF35:
 3764 08e4 705F6E61 		.ascii	"p_name\000"
 3764      6D6500
 3765              	.LASF92:
 3766 08eb 41484231 		.ascii	"AHB1ENR\000"
 3766      454E5200 
 3767              	.LASF84:
 3768 08f3 43464752 		.ascii	"CFGR\000"
 3768      00
 3769              	.LASF19:
 3770 08f8 746D6F64 		.ascii	"tmode_t\000"
 3770      655F7400 
 3771              	.LASF125:
 3772 0900 735F7175 		.ascii	"s_queue\000"
 3772      65756500 
 3773              	.LASF144:
 3774 0908 636C6F63 		.ascii	"clock\000"
 3774      6B00
ARM GAS  /tmp/cceeDsjZ.s 			page 74


 3775              	.LASF43:
 3776 090e 705F6D73 		.ascii	"p_msg\000"
 3776      6700
 3777              	.LASF134:
 3778 0914 50574D5F 		.ascii	"PWM_UNINIT\000"
 3778      554E494E 
 3778      495400
 3779              	.LASF129:
 3780 091f 6D5F6F77 		.ascii	"m_owner\000"
 3780      6E657200 
 3781              	.LASF182:
 3782 0927 70776D4F 		.ascii	"pwmObjectInit\000"
 3782      626A6563 
 3782      74496E69 
 3782      7400
 3783              	.LASF32:
 3784 0935 705F6374 		.ascii	"p_ctx\000"
 3784      7800
 3785              	.LASF68:
 3786 093b 76745F66 		.ascii	"vt_func\000"
 3786      756E6300 
 3787              	.LASF164:
 3788 0943 64696572 		.ascii	"dier\000"
 3788      00
 3789              		.ident	"GCC: (GNU Tools for ARM Embedded Processors) 4.9.3 20150529 (release) [ARM/embedded-4_9-br
ARM GAS  /tmp/cceeDsjZ.s 			page 75


DEFINED SYMBOLS
                            *ABS*:0000000000000000 pwm_lld.c
     /tmp/cceeDsjZ.s:21     .text.VectorB4:0000000000000000 $t
     /tmp/cceeDsjZ.s:27     .text.VectorB4:0000000000000000 VectorB4
     /tmp/cceeDsjZ.s:135    .text.VectorB4:0000000000000060 $d
     /tmp/cceeDsjZ.s:140    .text.pwm_lld_init:0000000000000000 $t
     /tmp/cceeDsjZ.s:146    .text.pwm_lld_init:0000000000000000 pwm_lld_init
     /tmp/cceeDsjZ.s:173    .text.pwm_lld_init:0000000000000014 $d
     /tmp/cceeDsjZ.s:179    .text.pwm_lld_start:0000000000000000 $t
     /tmp/cceeDsjZ.s:185    .text.pwm_lld_start:0000000000000000 pwm_lld_start
     /tmp/cceeDsjZ.s:379    .text.pwm_lld_start:00000000000000d8 $d
     /tmp/cceeDsjZ.s:386    .text.pwm_lld_stop:0000000000000000 $t
     /tmp/cceeDsjZ.s:392    .text.pwm_lld_stop:0000000000000000 pwm_lld_stop
     /tmp/cceeDsjZ.s:441    .text.pwm_lld_stop:000000000000002c $d
     /tmp/cceeDsjZ.s:447    .text.pwm_lld_enable_channel:0000000000000000 $t
     /tmp/cceeDsjZ.s:453    .text.pwm_lld_enable_channel:0000000000000000 pwm_lld_enable_channel
     /tmp/cceeDsjZ.s:472    .text.pwm_lld_disable_channel:0000000000000000 $t
     /tmp/cceeDsjZ.s:478    .text.pwm_lld_disable_channel:0000000000000000 pwm_lld_disable_channel
     /tmp/cceeDsjZ.s:504    .text.pwm_lld_enable_periodic_notification:0000000000000000 $t
     /tmp/cceeDsjZ.s:510    .text.pwm_lld_enable_periodic_notification:0000000000000000 pwm_lld_enable_periodic_notification
     /tmp/cceeDsjZ.s:539    .text.pwm_lld_disable_periodic_notification:0000000000000000 $t
     /tmp/cceeDsjZ.s:545    .text.pwm_lld_disable_periodic_notification:0000000000000000 pwm_lld_disable_periodic_notification
     /tmp/cceeDsjZ.s:563    .text.pwm_lld_enable_channel_notification:0000000000000000 $t
     /tmp/cceeDsjZ.s:569    .text.pwm_lld_enable_channel_notification:0000000000000000 pwm_lld_enable_channel_notification
     /tmp/cceeDsjZ.s:604    .text.pwm_lld_disable_channel_notification:0000000000000000 $t
     /tmp/cceeDsjZ.s:610    .text.pwm_lld_disable_channel_notification:0000000000000000 pwm_lld_disable_channel_notification
     /tmp/cceeDsjZ.s:636    .bss.PWMD3:0000000000000000 PWMD3
     /tmp/cceeDsjZ.s:632    .bss.PWMD3:0000000000000000 $d
                     .debug_frame:0000000000000010 $d

UNDEFINED SYMBOLS
_port_irq_epilogue
pwmObjectInit
nvicEnableVector
nvicDisableVector
