ARM GAS  /tmp/cceeDsjZ.s 			page 1


   1              		.syntax unified
   2              		.cpu cortex-m4
   3              		.eabi_attribute 27, 1
   4              		.eabi_attribute 28, 1
   5              		.fpu fpv4-sp-d16
   6              		.eabi_attribute 20, 1
   7              		.eabi_attribute 21, 1
   8              		.eabi_attribute 23, 3
   9              		.eabi_attribute 24, 1
  10              		.eabi_attribute 25, 1
  11              		.eabi_attribute 26, 1
  12              		.eabi_attribute 30, 2
  13              		.eabi_attribute 34, 1
  14              		.eabi_attribute 18, 4
  15              		.thumb
  16              		.file	"pwm_lld.c"
  17              		.text
  18              	.Ltext0:
  19              		.cfi_sections	.debug_frame
  20              		.section	.text.VectorB4,"ax",%progbits
  21              		.align	2
  22              		.p2align 4,,15
  23              		.global	VectorB4
  24              		.thumb
  25              		.thumb_func
  26              		.type	VectorB4, %function
  27              	VectorB4:
  28              	.LFB257:
  29              		.file 1 "ChibiOS_3.0.2/os/hal/ports/STM32/LLD/TIMv1/pwm_lld.c"
  30              		.loc 1 227 0
  31              		.cfi_startproc
  32              		@ args = 0, pretend = 0, frame = 0
  33              		@ frame_needed = 0, uses_anonymous_args = 0
  34              	.LVL0:
  35 0000 38B5     		push	{r3, r4, r5, lr}
  36              		.cfi_def_cfa_offset 16
  37              		.cfi_offset 3, -16
  38              		.cfi_offset 4, -12
  39              		.cfi_offset 5, -8
  40              		.cfi_offset 14, -4
  41              	.LBB4:
  42              	.LBB5:
  43              		.loc 1 114 0
  44 0002 174D     		ldr	r5, .L39
  45 0004 AB69     		ldr	r3, [r5, #24]
  46 0006 1A69     		ldr	r2, [r3, #16]
  47              	.LVL1:
  48              		.loc 1 115 0
  49 0008 DC68     		ldr	r4, [r3, #12]
  50 000a 1440     		ands	r4, r4, r2
  51              	.LVL2:
  52 000c E2B2     		uxtb	r2, r4
  53              		.loc 1 116 0
  54 000e D243     		mvns	r2, r2
  55 0010 1A61     		str	r2, [r3, #16]
  56              		.loc 1 117 0
  57 0012 A307     		lsls	r3, r4, #30
ARM GAS  /tmp/cceeDsjZ.s 			page 2


  58 0014 04D5     		bpl	.L2
  59              		.loc 1 118 0
  60 0016 6B68     		ldr	r3, [r5, #4]
  61 0018 1B69     		ldr	r3, [r3, #16]
  62              		.loc 1 117 0
  63 001a 0BB1     		cbz	r3, .L2
  64              		.loc 1 119 0
  65 001c 2846     		mov	r0, r5
  66 001e 9847     		blx	r3
  67              	.LVL3:
  68              	.L2:
  69              		.loc 1 120 0
  70 0020 6007     		lsls	r0, r4, #29
  71 0022 04D5     		bpl	.L3
  72              		.loc 1 121 0
  73 0024 6B68     		ldr	r3, [r5, #4]
  74 0026 9B69     		ldr	r3, [r3, #24]
  75              		.loc 1 120 0
  76 0028 0BB1     		cbz	r3, .L3
  77              		.loc 1 122 0
  78 002a 0D48     		ldr	r0, .L39
  79 002c 9847     		blx	r3
  80              	.LVL4:
  81              	.L3:
  82              		.loc 1 123 0
  83 002e 2107     		lsls	r1, r4, #28
  84 0030 04D5     		bpl	.L4
  85              		.loc 1 124 0
  86 0032 6B68     		ldr	r3, [r5, #4]
  87 0034 1B6A     		ldr	r3, [r3, #32]
  88              		.loc 1 123 0
  89 0036 0BB1     		cbz	r3, .L4
  90              		.loc 1 125 0
  91 0038 0948     		ldr	r0, .L39
  92 003a 9847     		blx	r3
  93              	.LVL5:
  94              	.L4:
  95              		.loc 1 126 0
  96 003c E206     		lsls	r2, r4, #27
  97 003e 04D5     		bpl	.L5
  98              		.loc 1 127 0
  99 0040 6B68     		ldr	r3, [r5, #4]
 100 0042 9B6A     		ldr	r3, [r3, #40]
 101              		.loc 1 126 0
 102 0044 0BB1     		cbz	r3, .L5
 103              		.loc 1 128 0
 104 0046 0648     		ldr	r0, .L39
 105 0048 9847     		blx	r3
 106              	.LVL6:
 107              	.L5:
 108              		.loc 1 129 0
 109 004a E307     		lsls	r3, r4, #31
 110 004c 04D5     		bpl	.L6
 111 004e 6B68     		ldr	r3, [r5, #4]
 112 0050 9B68     		ldr	r3, [r3, #8]
 113 0052 0BB1     		cbz	r3, .L6
 114              		.loc 1 130 0
ARM GAS  /tmp/cceeDsjZ.s 			page 3


 115 0054 0248     		ldr	r0, .L39
 116 0056 9847     		blx	r3
 117              	.LVL7:
 118              	.L6:
 119              	.LBE5:
 120              	.LBE4:
 121              		.loc 1 234 0
 122 0058 BDE83840 		pop	{r3, r4, r5, lr}
 123              		.cfi_restore 14
 124              		.cfi_restore 5
 125              		.cfi_restore 4
 126              		.cfi_restore 3
 127              		.cfi_def_cfa_offset 0
 128              	.LVL8:
 129              		.loc 1 233 0
 130 005c FFF7FEBF 		b	_port_irq_epilogue
 131              	.LVL9:
 132              	.L40:
 133              		.align	2
 134              	.L39:
 135 0060 00000000 		.word	.LANCHOR0
 136              		.cfi_endproc
 137              	.LFE257:
 138              		.size	VectorB4, .-VectorB4
 139              		.section	.text.pwm_lld_init,"ax",%progbits
 140              		.align	2
 141              		.p2align 4,,15
 142              		.global	pwm_lld_init
 143              		.thumb
 144              		.thumb_func
 145              		.type	pwm_lld_init, %function
 146              	pwm_lld_init:
 147              	.LFB258:
 148              		.loc 1 364 0
 149              		.cfi_startproc
 150              		@ args = 0, pretend = 0, frame = 0
 151              		@ frame_needed = 0, uses_anonymous_args = 0
 152 0000 10B5     		push	{r4, lr}
 153              		.cfi_def_cfa_offset 8
 154              		.cfi_offset 4, -8
 155              		.cfi_offset 14, -4
 156              		.loc 1 382 0
 157 0002 044C     		ldr	r4, .L43
 158 0004 2046     		mov	r0, r4
 159 0006 FFF7FEFF 		bl	pwmObjectInit
 160              	.LVL10:
 161              		.loc 1 383 0
 162 000a 0422     		movs	r2, #4
 163              		.loc 1 384 0
 164 000c 024B     		ldr	r3, .L43+4
 165              		.loc 1 383 0
 166 000e 2274     		strb	r2, [r4, #16]
 167              		.loc 1 384 0
 168 0010 A361     		str	r3, [r4, #24]
 169 0012 10BD     		pop	{r4, pc}
 170              	.L44:
 171              		.align	2
ARM GAS  /tmp/cceeDsjZ.s 			page 4


 172              	.L43:
 173 0014 00000000 		.word	.LANCHOR0
 174 0018 00040040 		.word	1073742848
 175              		.cfi_endproc
 176              	.LFE258:
 177              		.size	pwm_lld_init, .-pwm_lld_init
 178              		.section	.text.pwm_lld_start,"ax",%progbits
 179              		.align	2
 180              		.p2align 4,,15
 181              		.global	pwm_lld_start
 182              		.thumb
 183              		.thumb_func
 184              		.type	pwm_lld_start, %function
 185              	pwm_lld_start:
 186              	.LFB259:
 187              		.loc 1 425 0
 188              		.cfi_startproc
 189              		@ args = 0, pretend = 0, frame = 0
 190              		@ frame_needed = 0, uses_anonymous_args = 0
 191              	.LVL11:
 192 0000 F8B5     		push	{r3, r4, r5, r6, r7, lr}
 193              		.cfi_def_cfa_offset 24
 194              		.cfi_offset 3, -24
 195              		.cfi_offset 4, -20
 196              		.cfi_offset 5, -16
 197              		.cfi_offset 6, -12
 198              		.cfi_offset 7, -8
 199              		.cfi_offset 14, -4
 200              		.loc 1 429 0
 201 0002 0378     		ldrb	r3, [r0]	@ zero_extendqisi2
 202 0004 012B     		cmp	r3, #1
 203              		.loc 1 425 0
 204 0006 0446     		mov	r4, r0
 205              		.loc 1 429 0
 206 0008 4BD0     		beq	.L73
 207              		.loc 1 512 0
 208 000a 8369     		ldr	r3, [r0, #24]
 209 000c 0022     		movs	r2, #0
 210 000e 1A60     		str	r2, [r3]
 211              		.loc 1 513 0
 212 0010 5A63     		str	r2, [r3, #52]
 213              		.loc 1 514 0
 214 0012 9A63     		str	r2, [r3, #56]
 215              		.loc 1 515 0
 216 0014 DA63     		str	r2, [r3, #60]
 217              		.loc 1 516 0
 218 0016 1A64     		str	r2, [r3, #64]
 219              		.loc 1 523 0
 220 0018 5A62     		str	r2, [r3, #36]
 221              	.LVL12:
 222              	.L48:
 223              		.loc 1 527 0
 224 001a 6168     		ldr	r1, [r4, #4]
 225              		.loc 1 532 0
 226 001c A568     		ldr	r5, [r4, #8]
 227              		.loc 1 537 0
 228 001e CA68     		ldr	r2, [r1, #12]
ARM GAS  /tmp/cceeDsjZ.s 			page 5


 229              		.loc 1 527 0
 230 0020 6069     		ldr	r0, [r4, #20]
 231 0022 0F68     		ldr	r7, [r1]
 232              		.loc 1 533 0
 233 0024 CE6A     		ldr	r6, [r1, #44]
 234              		.loc 1 527 0
 235 0026 B0FBF7F0 		udiv	r0, r0, r7
 236              		.loc 1 537 0
 237 002a 02F00F02 		and	r2, r2, #15
 238              		.loc 1 532 0
 239 002e 6C1E     		subs	r4, r5, #1
 240              	.LVL13:
 241              		.loc 1 527 0
 242 0030 0138     		subs	r0, r0, #1
 243              	.LVL14:
 244              		.loc 1 537 0
 245 0032 012A     		cmp	r2, #1
 246              		.loc 1 531 0
 247 0034 9862     		str	r0, [r3, #40]
 248              		.loc 1 532 0
 249 0036 DC62     		str	r4, [r3, #44]
 250              		.loc 1 533 0
 251 0038 5E60     		str	r6, [r3, #4]
 252              	.LVL15:
 253              		.loc 1 537 0
 254 003a 03D0     		beq	.L49
 255              		.loc 1 536 0
 256 003c 022A     		cmp	r2, #2
 257 003e 0CBF     		ite	eq
 258 0040 0322     		moveq	r2, #3
 259 0042 0022     		movne	r2, #0
 260              	.L49:
 261              	.LVL16:
 262              		.loc 1 545 0
 263 0044 4869     		ldr	r0, [r1, #20]
 264              	.LVL17:
 265 0046 00F00F00 		and	r0, r0, #15
 266 004a 0128     		cmp	r0, #1
 267 004c 26D0     		beq	.L53
 268 004e 0228     		cmp	r0, #2
 269 0050 22D0     		beq	.L74
 270              	.L52:
 271              		.loc 1 553 0
 272 0052 C869     		ldr	r0, [r1, #28]
 273 0054 00F00F00 		and	r0, r0, #15
 274 0058 0128     		cmp	r0, #1
 275 005a 1AD0     		beq	.L56
 276 005c 0228     		cmp	r0, #2
 277 005e 16D0     		beq	.L75
 278              	.L55:
 279              		.loc 1 561 0
 280 0060 486A     		ldr	r0, [r1, #36]
 281 0062 00F00F00 		and	r0, r0, #15
 282 0066 0128     		cmp	r0, #1
 283 0068 03D0     		beq	.L59
 284 006a 0228     		cmp	r0, #2
 285 006c 03D1     		bne	.L58
ARM GAS  /tmp/cceeDsjZ.s 			page 6


 286              		.loc 1 563 0
 287 006e 42F40052 		orr	r2, r2, #8192
 288              	.LVL18:
 289              	.L59:
 290              		.loc 1 565 0
 291 0072 42F48052 		orr	r2, r2, #4096
 292              	.LVL19:
 293              	.L58:
 294              		.loc 1 609 0
 295 0076 096B     		ldr	r1, [r1, #48]
 296              		.loc 1 606 0
 297 0078 1A62     		str	r2, [r3, #32]
 298              		.loc 1 607 0
 299 007a 0124     		movs	r4, #1
 300              		.loc 1 609 0
 301 007c 21F0FF02 		bic	r2, r1, #255
 302              	.LVL20:
 303              		.loc 1 608 0
 304 0080 0020     		movs	r0, #0
 305              		.loc 1 619 0
 306 0082 8521     		movs	r1, #133
 307              		.loc 1 607 0
 308 0084 5C61     		str	r4, [r3, #20]
 309              	.LVL21:
 310              		.loc 1 608 0
 311 0086 1861     		str	r0, [r3, #16]
 312              		.loc 1 609 0
 313 0088 DA60     		str	r2, [r3, #12]
 314              		.loc 1 619 0
 315 008a 1960     		str	r1, [r3]
 316 008c F8BD     		pop	{r3, r4, r5, r6, r7, pc}
 317              	.LVL22:
 318              	.L75:
 319              		.loc 1 555 0
 320 008e 42F40072 		orr	r2, r2, #512
 321              	.LVL23:
 322              	.L56:
 323              		.loc 1 557 0
 324 0092 42F48072 		orr	r2, r2, #256
 325              	.LVL24:
 326 0096 E3E7     		b	.L55
 327              	.L74:
 328              		.loc 1 547 0
 329 0098 42F02002 		orr	r2, r2, #32
 330              	.LVL25:
 331              	.L53:
 332              		.loc 1 549 0
 333 009c 42F01002 		orr	r2, r2, #16
 334              	.LVL26:
 335 00a0 D7E7     		b	.L52
 336              	.LVL27:
 337              	.L73:
 338              		.loc 1 453 0
 339 00a2 0D4B     		ldr	r3, .L77
 340 00a4 9842     		cmp	r0, r3
 341 00a6 05D0     		beq	.L76
 342              	.LVL28:
ARM GAS  /tmp/cceeDsjZ.s 			page 7


 343              	.L47:
 344              		.loc 1 501 0
 345 00a8 A369     		ldr	r3, [r4, #24]
 346 00aa 46F66802 		movw	r2, #26728
 347 00ae 9A61     		str	r2, [r3, #24]
 348              		.loc 1 503 0
 349 00b0 DA61     		str	r2, [r3, #28]
 350 00b2 B2E7     		b	.L48
 351              	.LVL29:
 352              	.L76:
 353              		.loc 1 454 0
 354 00b4 094B     		ldr	r3, .L77+4
 355 00b6 1A6C     		ldr	r2, [r3, #64]
 356 00b8 42F00202 		orr	r2, r2, #2
 357 00bc 1A64     		str	r2, [r3, #64]
 358              		.loc 1 455 0
 359 00be 1A6A     		ldr	r2, [r3, #32]
 360 00c0 0021     		movs	r1, #0
 361 00c2 42F00202 		orr	r2, r2, #2
 362 00c6 1A62     		str	r2, [r3, #32]
 363              		.loc 1 456 0
 364 00c8 1D20     		movs	r0, #29
 365              	.LVL30:
 366              		.loc 1 455 0
 367 00ca 1962     		str	r1, [r3, #32]
 368              		.loc 1 456 0
 369 00cc 0721     		movs	r1, #7
 370 00ce FFF7FEFF 		bl	nvicEnableVector
 371              	.LVL31:
 372              		.loc 1 457 0
 373 00d2 034B     		ldr	r3, .L77+8
 374 00d4 6361     		str	r3, [r4, #20]
 375 00d6 E7E7     		b	.L47
 376              	.L78:
 377              		.align	2
 378              	.L77:
 379 00d8 00000000 		.word	.LANCHOR0
 380 00dc 00380240 		.word	1073887232
 381 00e0 00BD0105 		.word	84000000
 382              		.cfi_endproc
 383              	.LFE259:
 384              		.size	pwm_lld_start, .-pwm_lld_start
 385              		.section	.text.pwm_lld_stop,"ax",%progbits
 386              		.align	2
 387              		.p2align 4,,15
 388              		.global	pwm_lld_stop
 389              		.thumb
 390              		.thumb_func
 391              		.type	pwm_lld_stop, %function
 392              	pwm_lld_stop:
 393              	.LFB260:
 394              		.loc 1 630 0
 395              		.cfi_startproc
 396              		@ args = 0, pretend = 0, frame = 0
 397              		@ frame_needed = 0, uses_anonymous_args = 0
 398              	.LVL32:
 399 0000 08B5     		push	{r3, lr}
ARM GAS  /tmp/cceeDsjZ.s 			page 8


 400              		.cfi_def_cfa_offset 8
 401              		.cfi_offset 3, -8
 402              		.cfi_offset 14, -4
 403              		.loc 1 633 0
 404 0002 0378     		ldrb	r3, [r0]	@ zero_extendqisi2
 405 0004 022B     		cmp	r3, #2
 406 0006 00D0     		beq	.L84
 407              	.LVL33:
 408              	.L79:
 409 0008 08BD     		pop	{r3, pc}
 410              	.LVL34:
 411              	.L84:
 412              		.loc 1 655 0
 413 000a 0849     		ldr	r1, .L85
 414              		.loc 1 634 0
 415 000c 8369     		ldr	r3, [r0, #24]
 416 000e 0022     		movs	r2, #0
 417              		.loc 1 655 0
 418 0010 8842     		cmp	r0, r1
 419              		.loc 1 634 0
 420 0012 1A60     		str	r2, [r3]
 421              		.loc 1 635 0
 422 0014 DA60     		str	r2, [r3, #12]
 423              		.loc 1 636 0
 424 0016 1A61     		str	r2, [r3, #16]
 425              		.loc 1 655 0
 426 0018 F6D1     		bne	.L79
 427              		.loc 1 656 0
 428 001a 1D20     		movs	r0, #29
 429              	.LVL35:
 430 001c FFF7FEFF 		bl	nvicDisableVector
 431              	.LVL36:
 432              		.loc 1 657 0
 433 0020 034A     		ldr	r2, .L85+4
 434 0022 136C     		ldr	r3, [r2, #64]
 435 0024 23F00203 		bic	r3, r3, #2
 436 0028 1364     		str	r3, [r2, #64]
 437 002a EDE7     		b	.L79
 438              	.L86:
 439              		.align	2
 440              	.L85:
 441 002c 00000000 		.word	.LANCHOR0
 442 0030 00380240 		.word	1073887232
 443              		.cfi_endproc
 444              	.LFE260:
 445              		.size	pwm_lld_stop, .-pwm_lld_stop
 446              		.section	.text.pwm_lld_enable_channel,"ax",%progbits
 447              		.align	2
 448              		.p2align 4,,15
 449              		.global	pwm_lld_enable_channel
 450              		.thumb
 451              		.thumb_func
 452              		.type	pwm_lld_enable_channel, %function
 453              	pwm_lld_enable_channel:
 454              	.LFB261:
 455              		.loc 1 703 0
 456              		.cfi_startproc
ARM GAS  /tmp/cceeDsjZ.s 			page 9


 457              		@ args = 0, pretend = 0, frame = 0
 458              		@ frame_needed = 0, uses_anonymous_args = 0
 459              		@ link register save eliminated.
 460              	.LVL37:
 461              		.loc 1 707 0
 462 0000 8369     		ldr	r3, [r0, #24]
 463 0002 0C31     		adds	r1, r1, #12
 464              	.LVL38:
 465 0004 03EB8103 		add	r3, r3, r1, lsl #2
 466 0008 5A60     		str	r2, [r3, #4]
 467 000a 7047     		bx	lr
 468              		.cfi_endproc
 469              	.LFE261:
 470              		.size	pwm_lld_enable_channel, .-pwm_lld_enable_channel
 471              		.section	.text.pwm_lld_disable_channel,"ax",%progbits
 472              		.align	2
 473              		.p2align 4,,15
 474              		.global	pwm_lld_disable_channel
 475              		.thumb
 476              		.thumb_func
 477              		.type	pwm_lld_disable_channel, %function
 478              	pwm_lld_disable_channel:
 479              	.LFB262:
 480              		.loc 1 728 0
 481              		.cfi_startproc
 482              		@ args = 0, pretend = 0, frame = 0
 483              		@ frame_needed = 0, uses_anonymous_args = 0
 484              		@ link register save eliminated.
 485              	.LVL39:
 486              		.loc 1 731 0
 487 0000 8369     		ldr	r3, [r0, #24]
 488 0002 01F10C02 		add	r2, r1, #12
 489 0006 03EB8202 		add	r2, r3, r2, lsl #2
 490 000a 0020     		movs	r0, #0
 491              	.LVL40:
 492 000c 5060     		str	r0, [r2, #4]
 493              		.loc 1 732 0
 494 000e D868     		ldr	r0, [r3, #12]
 495 0010 0222     		movs	r2, #2
 496 0012 8A40     		lsls	r2, r2, r1
 497 0014 20EA0202 		bic	r2, r0, r2
 498 0018 DA60     		str	r2, [r3, #12]
 499 001a 7047     		bx	lr
 500              		.cfi_endproc
 501              	.LFE262:
 502              		.size	pwm_lld_disable_channel, .-pwm_lld_disable_channel
 503              		.section	.text.pwm_lld_enable_periodic_notification,"ax",%progbits
 504              		.align	2
 505              		.p2align 4,,15
 506              		.global	pwm_lld_enable_periodic_notification
 507              		.thumb
 508              		.thumb_func
 509              		.type	pwm_lld_enable_periodic_notification, %function
 510              	pwm_lld_enable_periodic_notification:
 511              	.LFB263:
 512              		.loc 1 752 0
 513              		.cfi_startproc
ARM GAS  /tmp/cceeDsjZ.s 			page 10


 514              		@ args = 0, pretend = 0, frame = 0
 515              		@ frame_needed = 0, uses_anonymous_args = 0
 516              		@ link register save eliminated.
 517              	.LVL41:
 518              		.loc 1 753 0
 519 0000 8369     		ldr	r3, [r0, #24]
 520 0002 DA68     		ldr	r2, [r3, #12]
 521              	.LVL42:
 522              		.loc 1 757 0
 523 0004 D107     		lsls	r1, r2, #31
 524 0006 06D4     		bmi	.L89
 525              		.loc 1 758 0
 526 0008 42F00102 		orr	r2, r2, #1
 527              	.LVL43:
 528 000c DA60     		str	r2, [r3, #12]
 529              		.loc 1 759 0
 530 000e 1A69     		ldr	r2, [r3, #16]
 531 0010 02F00102 		and	r2, r2, #1
 532 0014 1A61     		str	r2, [r3, #16]
 533              	.L89:
 534 0016 7047     		bx	lr
 535              		.cfi_endproc
 536              	.LFE263:
 537              		.size	pwm_lld_enable_periodic_notification, .-pwm_lld_enable_periodic_notification
 538              		.section	.text.pwm_lld_disable_periodic_notification,"ax",%progbits
 539              		.align	2
 540              		.p2align 4,,15
 541              		.global	pwm_lld_disable_periodic_notification
 542              		.thumb
 543              		.thumb_func
 544              		.type	pwm_lld_disable_periodic_notification, %function
 545              	pwm_lld_disable_periodic_notification:
 546              	.LFB264:
 547              		.loc 1 772 0
 548              		.cfi_startproc
 549              		@ args = 0, pretend = 0, frame = 0
 550              		@ frame_needed = 0, uses_anonymous_args = 0
 551              		@ link register save eliminated.
 552              	.LVL44:
 553              		.loc 1 774 0
 554 0000 8269     		ldr	r2, [r0, #24]
 555 0002 D368     		ldr	r3, [r2, #12]
 556 0004 23F00103 		bic	r3, r3, #1
 557 0008 D360     		str	r3, [r2, #12]
 558 000a 7047     		bx	lr
 559              		.cfi_endproc
 560              	.LFE264:
 561              		.size	pwm_lld_disable_periodic_notification, .-pwm_lld_disable_periodic_notification
 562              		.section	.text.pwm_lld_enable_channel_notification,"ax",%progbits
 563              		.align	2
 564              		.p2align 4,,15
 565              		.global	pwm_lld_enable_channel_notification
 566              		.thumb
 567              		.thumb_func
 568              		.type	pwm_lld_enable_channel_notification, %function
 569              	pwm_lld_enable_channel_notification:
 570              	.LFB265:
ARM GAS  /tmp/cceeDsjZ.s 			page 11


 571              		.loc 1 789 0
 572              		.cfi_startproc
 573              		@ args = 0, pretend = 0, frame = 0
 574              		@ frame_needed = 0, uses_anonymous_args = 0
 575              		@ link register save eliminated.
 576              	.LVL45:
 577              		.loc 1 790 0
 578 0000 8069     		ldr	r0, [r0, #24]
 579              	.LVL46:
 580              		.loc 1 799 0
 581 0002 0223     		movs	r3, #2
 582              		.loc 1 790 0
 583 0004 C268     		ldr	r2, [r0, #12]
 584              	.LVL47:
 585              		.loc 1 799 0
 586 0006 8B40     		lsls	r3, r3, r1
 587 0008 1342     		tst	r3, r2
 588 000a 03D1     		bne	.L92
 589              		.loc 1 800 0
 590 000c 1A43     		orrs	r2, r2, r3
 591              	.LVL48:
 592              		.loc 1 801 0
 593 000e DB43     		mvns	r3, r3
 594              		.loc 1 800 0
 595 0010 C260     		str	r2, [r0, #12]
 596              		.loc 1 801 0
 597 0012 0361     		str	r3, [r0, #16]
 598              	.L92:
 599 0014 7047     		bx	lr
 600              		.cfi_endproc
 601              	.LFE265:
 602              		.size	pwm_lld_enable_channel_notification, .-pwm_lld_enable_channel_notification
 603 0016 00BF     		.section	.text.pwm_lld_disable_channel_notification,"ax",%progbits
 604              		.align	2
 605              		.p2align 4,,15
 606              		.global	pwm_lld_disable_channel_notification
 607              		.thumb
 608              		.thumb_func
 609              		.type	pwm_lld_disable_channel_notification, %function
 610              	pwm_lld_disable_channel_notification:
 611              	.LFB266:
 612              		.loc 1 817 0
 613              		.cfi_startproc
 614              		@ args = 0, pretend = 0, frame = 0
 615              		@ frame_needed = 0, uses_anonymous_args = 0
 616              		@ link register save eliminated.
 617              	.LVL49:
 618              		.loc 1 819 0
 619 0000 8069     		ldr	r0, [r0, #24]
 620              	.LVL50:
 621 0002 0222     		movs	r2, #2
 622 0004 C368     		ldr	r3, [r0, #12]
 623 0006 8A40     		lsls	r2, r2, r1
 624 0008 23EA0203 		bic	r3, r3, r2
 625 000c C360     		str	r3, [r0, #12]
 626 000e 7047     		bx	lr
 627              		.cfi_endproc
ARM GAS  /tmp/cceeDsjZ.s 			page 12


 628              	.LFE266:
 629              		.size	pwm_lld_disable_channel_notification, .-pwm_lld_disable_channel_notification
 630              		.global	PWMD3
 631              		.section	.bss.PWMD3,"aw",%nobits
 632              		.align	2
 633              		.set	.LANCHOR0,. + 0
 634              		.type	PWMD3, %object
 635              		.size	PWMD3, 28
 636              	PWMD3:
 637 0000 00000000 		.space	28
 637      00000000 
 637      00000000 
 637      00000000 
 637      00000000 
 638              		.text
 639              	.Letext0:
 640              		.file 2 "/usr/lib/gcc/arm-none-eabi/4.9.3/include/stddef.h"
 641              		.file 3 "/usr/arm-none-eabi/include/machine/_default_types.h"
 642              		.file 4 "/usr/arm-none-eabi/include/sys/_stdint.h"
 643              		.file 5 "ChibiOS_3.0.2/os/rt/ports/ARMCMx/compilers/GCC/chtypes.h"
 644              		.file 6 "ChibiOS_3.0.2/os/rt/include/chsystypes.h"
 645              		.file 7 "ChibiOS_3.0.2/os/rt/include/chschd.h"
 646              		.file 8 "ChibiOS_3.0.2/os/ext/CMSIS/ST/stm32f407xx.h"
 647              		.file 9 "ChibiOS_3.0.2/os/rt/ports/ARMCMx/chcore.h"
 648              		.file 10 "ChibiOS_3.0.2/os/rt/ports/ARMCMx/chcore_v7m.h"
 649              		.file 11 "ChibiOS_3.0.2/os/rt/include/chtm.h"
 650              		.file 12 "ChibiOS_3.0.2/os/rt/include/chsem.h"
 651              		.file 13 "ChibiOS_3.0.2/os/rt/include/chmtx.h"
 652              		.file 14 "ChibiOS_3.0.2/os/hal/include/pwm.h"
 653              		.file 15 "ChibiOS_3.0.2/os/hal/ports/STM32/LLD/TIMv1/pwm_lld.h"
 654              		.file 16 "ChibiOS_3.0.2/os/hal/ports/STM32/LLD/TIMv1/stm32_tim.h"
 655              		.file 17 "ChibiOS_3.0.2/os/ext/CMSIS/include/core_cm4.h"
 656              		.file 18 "ChibiOS_3.0.2/os/hal/ports/common/ARMCMx/nvic.h"