ARM GAS  /tmp/ccWx56sG.s 			page 1


   1              		.syntax unified
   2              		.cpu cortex-m4
   3              		.eabi_attribute 27, 1
   4              		.eabi_attribute 28, 1
   5              		.fpu fpv4-sp-d16
   6              		.eabi_attribute 20, 1
   7              		.eabi_attribute 21, 1
   8              		.eabi_attribute 23, 3
   9              		.eabi_attribute 24, 1
  10              		.eabi_attribute 25, 1
  11              		.eabi_attribute 26, 1
  12              		.eabi_attribute 30, 2
  13              		.eabi_attribute 34, 1
  14              		.eabi_attribute 18, 4
  15              		.thumb
  16              		.file	"rf_control.c"
  17              		.text
  18              	.Ltext0:
  19              		.cfi_sections	.debug_frame
  20              		.section	.text.tx_thread,"ax",%progbits
  21              		.align	2
  22              		.p2align 4,,15
  23              		.thumb
  24              		.thumb_func
  25              		.type	tx_thread, %function
  26              	tx_thread:
  27              	.LFB260:
  28              		.file 1 "rf_control.c"
  29              		.loc 1 231 0
  30              		.cfi_startproc
  31              		@ Volatile: function does not return.
  32              		@ args = 0, pretend = 0, frame = 0
  33              		@ frame_needed = 0, uses_anonymous_args = 0
  34              	.LVL0:
  35              	.LBB71:
  36              	.LBB72:
  37              		.file 2 "ChibiOS_3.0.2/os/rt/include/chregistry.h"
  38              		.loc 2 135 0
  39 0000 144B     		ldr	r3, .L9
  40              	.LBE72:
  41              	.LBE71:
  42              		.loc 1 236 0
  43 0002 154A     		ldr	r2, .L9+4
  44              	.LBB75:
  45              	.LBB73:
  46              		.loc 2 135 0
  47 0004 9B69     		ldr	r3, [r3, #24]
  48 0006 154C     		ldr	r4, .L9+8
  49 0008 1549     		ldr	r1, .L9+12
  50 000a 164D     		ldr	r5, .L9+16
  51 000c 164E     		ldr	r6, .L9+20
  52 000e DFF85C80 		ldr	r8, .L9+24
  53              	.LBE73:
  54              	.LBE75:
  55              		.loc 1 231 0
  56 0012 80B5     		push	{r7, lr}
  57              		.cfi_def_cfa_offset 8
ARM GAS  /tmp/ccWx56sG.s 			page 2


  58              		.cfi_offset 7, -8
  59              		.cfi_offset 14, -4
  60              	.LBB76:
  61              	.LBB74:
  62              		.loc 2 135 0
  63 0014 9961     		str	r1, [r3, #24]
  64              	.LBE74:
  65              	.LBE76:
  66              		.loc 1 236 0
  67 0016 1360     		str	r3, [r2]
  68              		.loc 1 245 0
  69 0018 2746     		mov	r7, r4
  70              	.LVL1:
  71              	.L5:
  72              		.loc 1 239 0
  73 001a 0120     		movs	r0, #1
  74 001c FFF7FEFF 		bl	chEvtWaitAny
  75              	.LVL2:
  76              	.L2:
  77 0020 2368     		ldr	r3, [r4]
  78              	.L3:
  79              		.loc 1 241 0
  80 0022 D8F80020 		ldr	r2, [r8]
  81              		.loc 1 242 0
  82 0026 03EB8311 		add	r1, r3, r3, lsl #6
  83              		.loc 1 241 0
  84 002a 9A42     		cmp	r2, r3
  85              		.loc 1 242 0
  86 002c 05EB4101 		add	r1, r5, r1, lsl #1
  87 0030 4FF6FF70 		movw	r0, #65535
  88              		.loc 1 241 0
  89 0034 F1D0     		beq	.L5
  90              		.loc 1 242 0
  91 0036 F25C     		ldrb	r2, [r6, r3]	@ zero_extendqisi2
  92 0038 FFF7FEFF 		bl	basicRfSendPacket
  93              	.LVL3:
  94              		.loc 1 243 0
  95 003c 0120     		movs	r0, #1
  96 003e FFF7FEFF 		bl	led_toggle
  97              	.LVL4:
  98              		.loc 1 245 0
  99 0042 2368     		ldr	r3, [r4]
 100 0044 0133     		adds	r3, r3, #1
 101              		.loc 1 246 0
 102 0046 092B     		cmp	r3, #9
 103              		.loc 1 245 0
 104 0048 2360     		str	r3, [r4]
 105              		.loc 1 246 0
 106 004a EADD     		ble	.L3
 107              		.loc 1 247 0
 108 004c 0023     		movs	r3, #0
 109 004e 3B60     		str	r3, [r7]
 110 0050 E6E7     		b	.L2
 111              	.L10:
 112 0052 00BF     		.align	2
 113              	.L9:
 114 0054 00000000 		.word	ch
ARM GAS  /tmp/ccWx56sG.s 			page 3


 115 0058 00000000 		.word	.LANCHOR0
 116 005c 00000000 		.word	.LANCHOR3
 117 0060 00000000 		.word	.LC0
 118 0064 00000000 		.word	.LANCHOR1
 119 0068 00000000 		.word	.LANCHOR2
 120 006c 00000000 		.word	.LANCHOR4
 121              		.cfi_endproc
 122              	.LFE260:
 123              		.size	tx_thread, .-tx_thread
 124              		.section	.text.rx_thread,"ax",%progbits
 125              		.align	2
 126              		.p2align 4,,15
 127              		.thumb
 128              		.thumb_func
 129              		.type	rx_thread, %function
 130              	rx_thread:
 131              	.LFB259:
 132              		.loc 1 165 0
 133              		.cfi_startproc
 134              		@ args = 0, pretend = 0, frame = 0
 135              		@ frame_needed = 0, uses_anonymous_args = 0
 136              	.LVL5:
 137 0000 2DE9F843 		push	{r3, r4, r5, r6, r7, r8, r9, lr}
 138              		.cfi_def_cfa_offset 32
 139              		.cfi_offset 3, -32
 140              		.cfi_offset 4, -28
 141              		.cfi_offset 5, -24
 142              		.cfi_offset 6, -20
 143              		.cfi_offset 7, -16
 144              		.cfi_offset 8, -12
 145              		.cfi_offset 9, -8
 146              		.cfi_offset 14, -4
 147              	.LBB77:
 148              	.LBB78:
 149              		.loc 2 135 0
 150 0004 2B4B     		ldr	r3, .L22
 151 0006 2C4D     		ldr	r5, .L22+4
 152 0008 9B69     		ldr	r3, [r3, #24]
 153 000a 2C4A     		ldr	r2, .L22+8
 154 000c 2C4F     		ldr	r7, .L22+12
 155 000e 9A61     		str	r2, [r3, #24]
 156              	.LBE78:
 157              	.LBE77:
 158              	.LBB79:
 159              		.loc 1 176 0
 160 0010 A846     		mov	r8, r5
 161 0012 02E0     		b	.L20
 162              	.LVL6:
 163              	.L13:
 164              	.LBE79:
 165              		.loc 1 227 0
 166 0014 0120     		movs	r0, #1
 167 0016 FFF7FEFF 		bl	chThdSleep
 168              	.LVL7:
 169              	.L20:
 170              		.loc 1 171 0
 171 001a FFF7FEFF 		bl	basicRfPacketIsReady
ARM GAS  /tmp/ccWx56sG.s 			page 4


 172              	.LVL8:
 173 001e 0028     		cmp	r0, #0
 174 0020 F8D0     		beq	.L13
 175              	.LVL9:
 176              	.LBB82:
 177              		.loc 1 176 0
 178 0022 2548     		ldr	r0, .L22+4
 179 0024 8221     		movs	r1, #130
 180 0026 0022     		movs	r2, #0
 181 0028 FFF7FEFF 		bl	basicRfReceive
 182              	.LVL10:
 183              		.loc 1 177 0
 184 002c 2C78     		ldrb	r4, [r5]	@ zero_extendqisi2
 185              		.loc 1 176 0
 186 002e 0646     		mov	r6, r0
 187              	.LVL11:
 188              		.loc 1 179 0
 189 0030 0020     		movs	r0, #0
 190              	.LVL12:
 191 0032 FFF7FEFF 		bl	led_toggle
 192              	.LVL13:
 193              		.loc 1 181 0
 194 0036 032C     		cmp	r4, #3
 195 0038 ECD8     		bhi	.L13
 196 003a DFE804F0 		tbb	[pc, r4]
 197              	.L15:
 198 003e 33       		.byte	(.L14-.L15)/2
 199 003f 26       		.byte	(.L16-.L15)/2
 200 0040 07       		.byte	(.L17-.L15)/2
 201 0041 02       		.byte	(.L18-.L15)/2
 202              		.p2align 1
 203              	.L18:
 204              		.loc 1 219 0
 205 0042 711E     		subs	r1, r6, #1
 206 0044 1F48     		ldr	r0, .L22+16
 207 0046 FFF7FEFF 		bl	comm_usb_send_packet
 208              	.LVL14:
 209              		.loc 1 220 0
 210 004a E3E7     		b	.L13
 211              	.L17:
 212              	.LVL15:
 213              	.LBB80:
 214              		.loc 1 197 0
 215 004c 6C78     		ldrb	r4, [r5, #1]	@ zero_extendqisi2
 216              	.LVL16:
 217              		.loc 1 198 0
 218 004e AB78     		ldrb	r3, [r5, #2]	@ zero_extendqisi2
 219 0050 43EA0424 		orr	r4, r3, r4, lsl #8
 220              	.LVL17:
 221              		.loc 1 200 0
 222 0054 B4F5806F 		cmp	r4, #1024
 223 0058 DCD8     		bhi	.L13
 224              	.LVL18:
 225 005a 601D     		adds	r0, r4, #5
 226              		.loc 1 207 0
 227 005c 801B     		subs	r0, r0, r6
 228 005e 721F     		subs	r2, r6, #5
ARM GAS  /tmp/ccWx56sG.s 			page 5


 229 0060 1949     		ldr	r1, .L22+20
 230              		.loc 1 204 0
 231 0062 98F80390 		ldrb	r9, [r8, #3]	@ zero_extendqisi2
 232              	.LVL19:
 233              		.loc 1 205 0
 234 0066 98F80460 		ldrb	r6, [r8, #4]	@ zero_extendqisi2
 235              	.LVL20:
 236              		.loc 1 207 0
 237 006a 3844     		add	r0, r0, r7
 238 006c FFF7FEFF 		bl	memcpy
 239              	.LVL21:
 240              		.loc 1 209 0
 241 0070 1348     		ldr	r0, .L22+12
 242 0072 2146     		mov	r1, r4
 243 0074 FFF7FEFF 		bl	crc16
 244              	.LVL22:
 245              		.loc 1 211 0
 246 0078 46EA0926 		orr	r6, r6, r9, lsl #8
 247              	.LVL23:
 248              		.loc 1 209 0
 249 007c B042     		cmp	r0, r6
 250 007e C9D1     		bne	.L13
 251              		.loc 1 213 0
 252 0080 2146     		mov	r1, r4
 253 0082 0F48     		ldr	r0, .L22+12
 254 0084 FFF7FEFF 		bl	comm_usb_send_packet
 255              	.LVL24:
 256 0088 C4E7     		b	.L13
 257              	.LVL25:
 258              	.L16:
 259              	.LBE80:
 260              	.LBB81:
 261              		.loc 1 187 0
 262 008a 6878     		ldrb	r0, [r5, #1]	@ zero_extendqisi2
 263              	.LVL26:
 264              		.loc 1 188 0
 265 008c AB78     		ldrb	r3, [r5, #2]	@ zero_extendqisi2
 266 008e 43EA0020 		orr	r0, r3, r0, lsl #8
 267              	.LVL27:
 268              		.loc 1 189 0
 269 0092 B0F5806F 		cmp	r0, #1024
 270 0096 BDDA     		bge	.L13
 271              		.loc 1 190 0
 272 0098 3844     		add	r0, r0, r7
 273              	.LVL28:
 274 009a F21E     		subs	r2, r6, #3
 275 009c 0B49     		ldr	r1, .L22+24
 276 009e FFF7FEFF 		bl	memcpy
 277              	.LVL29:
 278 00a2 B7E7     		b	.L13
 279              	.L14:
 280              	.LBE81:
 281              		.loc 1 183 0
 282 00a4 6878     		ldrb	r0, [r5, #1]	@ zero_extendqisi2
 283 00a6 0A49     		ldr	r1, .L22+28
 284 00a8 B21E     		subs	r2, r6, #2
 285 00aa 3844     		add	r0, r0, r7
ARM GAS  /tmp/ccWx56sG.s 			page 6


 286 00ac FFF7FEFF 		bl	memcpy
 287              	.LVL30:
 288              		.loc 1 184 0
 289 00b0 B0E7     		b	.L13
 290              	.L23:
 291 00b2 00BF     		.align	2
 292              	.L22:
 293 00b4 00000000 		.word	ch
 294 00b8 00000000 		.word	.LANCHOR5
 295 00bc 0C000000 		.word	.LC1
 296 00c0 00000000 		.word	.LANCHOR6
 297 00c4 01000000 		.word	.LANCHOR5+1
 298 00c8 05000000 		.word	.LANCHOR5+5
 299 00cc 03000000 		.word	.LANCHOR5+3
 300 00d0 02000000 		.word	.LANCHOR5+2
 301              	.LBE82:
 302              		.cfi_endproc
 303              	.LFE259:
 304              		.size	rx_thread, .-rx_thread
 305              		.section	.text.wakeup_tx,"ax",%progbits
 306              		.align	2
 307              		.p2align 4,,15
 308              		.thumb
 309              		.thumb_func
 310              		.type	wakeup_tx, %function
 311              	wakeup_tx:
 312              	.LFB261:
 313              		.loc 1 253 0
 314              		.cfi_startproc
 315              		@ args = 0, pretend = 0, frame = 0
 316              		@ frame_needed = 0, uses_anonymous_args = 0
 317              	.LVL31:
 318 0000 08B5     		push	{r3, lr}
 319              		.cfi_def_cfa_offset 8
 320              		.cfi_offset 3, -8
 321              		.cfi_offset 14, -4
 322              	.LBB83:
 323              	.LBB84:
 324              	.LBB85:
 325              	.LBB86:
 326              	.LBB87:
 327              		.file 3 "ChibiOS_3.0.2/os/ext/CMSIS/include/core_cmFunc.h"
 328              		.loc 3 342 0
 329              	@ 342 "ChibiOS_3.0.2/os/ext/CMSIS/include/core_cmFunc.h" 1
 330 0002 72B6     		cpsid i
 331              	@ 0 "" 2
 332              		.thumb
 333              	.LBE87:
 334              	.LBE86:
 335              	.LBE85:
 336              	.LBE84:
 337              	.LBE83:
 338              		.loc 1 257 0
 339 0004 034B     		ldr	r3, .L26
 340 0006 0121     		movs	r1, #1
 341 0008 1868     		ldr	r0, [r3]
 342              	.LVL32:
ARM GAS  /tmp/ccWx56sG.s 			page 7


 343 000a FFF7FEFF 		bl	chEvtSignalI
 344              	.LVL33:
 345              	.LBB88:
 346              	.LBB89:
 347              	.LBB90:
 348              	.LBB91:
 349              	.LBB92:
 350              		.loc 3 331 0
 351              	@ 331 "ChibiOS_3.0.2/os/ext/CMSIS/include/core_cmFunc.h" 1
 352 000e 62B6     		cpsie i
 353              	@ 0 "" 2
 354              		.thumb
 355 0010 08BD     		pop	{r3, pc}
 356              	.L27:
 357 0012 00BF     		.align	2
 358              	.L26:
 359 0014 00000000 		.word	.LANCHOR0
 360              	.LBE92:
 361              	.LBE91:
 362              	.LBE90:
 363              	.LBE89:
 364              	.LBE88:
 365              		.cfi_endproc
 366              	.LFE261:
 367              		.size	wakeup_tx, .-wakeup_tx
 368              		.section	.text.rf_control_init,"ax",%progbits
 369              		.align	2
 370              		.p2align 4,,15
 371              		.global	rf_control_init
 372              		.thumb
 373              		.thumb_func
 374              		.type	rf_control_init, %function
 375              	rf_control_init:
 376              	.LFB256:
 377              		.loc 1 53 0
 378              		.cfi_startproc
 379              		@ args = 0, pretend = 0, frame = 0
 380              		@ frame_needed = 0, uses_anonymous_args = 0
 381 0000 30B5     		push	{r4, r5, lr}
 382              		.cfi_def_cfa_offset 12
 383              		.cfi_offset 4, -12
 384              		.cfi_offset 5, -8
 385              		.cfi_offset 14, -4
 386              		.loc 1 54 0
 387 0002 154A     		ldr	r2, .L32
 388              		.loc 1 55 0
 389 0004 154B     		ldr	r3, .L32+4
 390              		.loc 1 54 0
 391 0006 0024     		movs	r4, #0
 392              		.loc 1 53 0
 393 0008 83B0     		sub	sp, sp, #12
 394              		.cfi_def_cfa_offset 24
 395              		.loc 1 54 0
 396 000a 1460     		str	r4, [r2]
 397              		.loc 1 55 0
 398 000c 1C60     		str	r4, [r3]
 399              		.loc 1 58 0
ARM GAS  /tmp/ccWx56sG.s 			page 8


 400 000e FFF7FEFF 		bl	halAssyInit
 401              	.LVL34:
 402              		.loc 1 59 0
 403 0012 134B     		ldr	r3, .L32+8
 404              		.loc 1 60 0
 405 0014 0C21     		movs	r1, #12
 406              		.loc 1 62 0
 407 0016 0122     		movs	r2, #1
 408              		.loc 1 59 0
 409 0018 4FF61125 		movw	r5, #64017
 410              		.loc 1 67 0
 411 001c 1846     		mov	r0, r3
 412              		.loc 1 61 0
 413 001e 5C71     		strb	r4, [r3, #5]
 414              		.loc 1 59 0
 415 0020 5D80     		strh	r5, [r3, #2]	@ movhi
 416              		.loc 1 60 0
 417 0022 1971     		strb	r1, [r3, #4]
 418              		.loc 1 62 0
 419 0024 1A80     		strh	r2, [r3]	@ movhi
 420              		.loc 1 67 0
 421 0026 FFF7FEFF 		bl	basicRfInit
 422              	.LVL35:
 423 002a 0128     		cmp	r0, #1
 424 002c 00D1     		bne	.L29
 425              	.L30:
 426              		.loc 1 68 0 discriminator 1
 427 002e FEE7     		b	.L30
 428              	.L29:
 429              		.loc 1 71 0
 430 0030 FFF7FEFF 		bl	basicRfReceiveOn
 431              	.LVL36:
 432              		.loc 1 73 0
 433 0034 0094     		str	r4, [sp]
 434 0036 0B4B     		ldr	r3, .L32+12
 435 0038 0B48     		ldr	r0, .L32+16
 436 003a 40F69811 		movw	r1, #2456
 437 003e 4022     		movs	r2, #64
 438 0040 FFF7FEFF 		bl	chThdCreateStatic
 439              	.LVL37:
 440              		.loc 1 75 0
 441 0044 0094     		str	r4, [sp]
 442 0046 094B     		ldr	r3, .L32+20
 443 0048 0948     		ldr	r0, .L32+24
 444 004a 4FF46671 		mov	r1, #920
 445 004e 4022     		movs	r2, #64
 446 0050 FFF7FEFF 		bl	chThdCreateStatic
 447              	.LVL38:
 448              		.loc 1 77 0
 449 0054 03B0     		add	sp, sp, #12
 450              		.cfi_def_cfa_offset 12
 451              		@ sp needed
 452 0056 30BD     		pop	{r4, r5, pc}
 453              	.L33:
 454              		.align	2
 455              	.L32:
 456 0058 00000000 		.word	.LANCHOR3
ARM GAS  /tmp/ccWx56sG.s 			page 9


 457 005c 00000000 		.word	.LANCHOR4
 458 0060 00000000 		.word	.LANCHOR7
 459 0064 00000000 		.word	rx_thread
 460 0068 00000000 		.word	.LANCHOR8
 461 006c 00000000 		.word	tx_thread
 462 0070 00000000 		.word	.LANCHOR9
 463              		.cfi_endproc
 464              	.LFE256:
 465              		.size	rf_control_init, .-rf_control_init
 466              		.section	.text.rf_control_send_packet,"ax",%progbits
 467              		.align	2
 468              		.p2align 4,,15
 469              		.global	rf_control_send_packet
 470              		.thumb
 471              		.thumb_func
 472              		.type	rf_control_send_packet, %function
 473              	rf_control_send_packet:
 474              	.LFB258:
 475              		.loc 1 149 0
 476              		.cfi_startproc
 477              		@ args = 0, pretend = 0, frame = 0
 478              		@ frame_needed = 0, uses_anonymous_args = 0
 479              	.LVL39:
 480 0000 70B5     		push	{r4, r5, r6, lr}
 481              		.cfi_def_cfa_offset 16
 482              		.cfi_offset 4, -16
 483              		.cfi_offset 5, -12
 484              		.cfi_offset 6, -8
 485              		.cfi_offset 14, -4
 486              		.loc 1 150 0
 487 0002 0F4D     		ldr	r5, .L41
 488 0004 0F4B     		ldr	r3, .L41+4
 489 0006 2C68     		ldr	r4, [r5]
 490              		.loc 1 149 0
 491 0008 0E46     		mov	r6, r1
 492              		.loc 1 150 0
 493 000a 04EB8412 		add	r2, r4, r4, lsl #6
 494 000e 0146     		mov	r1, r0
 495              	.LVL40:
 496 0010 03EB4200 		add	r0, r3, r2, lsl #1
 497              	.LVL41:
 498 0014 3246     		mov	r2, r6
 499 0016 FFF7FEFF 		bl	memcpy
 500              	.LVL42:
 501              		.loc 1 153 0
 502 001a 631C     		adds	r3, r4, #1
 503              		.loc 1 151 0
 504 001c 0A4A     		ldr	r2, .L41+8
 505              		.loc 1 154 0
 506 001e 092B     		cmp	r3, #9
 507              		.loc 1 155 0
 508 0020 C8BF     		it	gt
 509 0022 0023     		movgt	r3, #0
 510              		.loc 1 151 0
 511 0024 1655     		strb	r6, [r2, r4]
 512              		.loc 1 155 0
 513 0026 2B60     		str	r3, [r5]
ARM GAS  /tmp/ccWx56sG.s 			page 10


 514              	.LBB106:
 515              	.LBB107:
 516              	.LBB108:
 517              	.LBB109:
 518              		.loc 3 342 0
 519              	@ 342 "ChibiOS_3.0.2/os/ext/CMSIS/include/core_cmFunc.h" 1
 520 0028 72B6     		cpsid i
 521              	@ 0 "" 2
 522              	.LVL43:
 523              		.thumb
 524 002a 0848     		ldr	r0, .L41+12
 525              	.LBE109:
 526              	.LBE108:
 527              	.LBE107:
 528              	.LBE106:
 529              		.loc 1 159 0
 530 002c C368     		ldr	r3, [r0, #12]
 531 002e 0BB1     		cbz	r3, .L40
 532              	.LBB110:
 533              	.LBB111:
 534              	.LBB112:
 535              	.LBB113:
 536              	.LBB114:
 537              		.loc 3 331 0
 538              	@ 331 "ChibiOS_3.0.2/os/ext/CMSIS/include/core_cmFunc.h" 1
 539 0030 62B6     		cpsie i
 540              	@ 0 "" 2
 541              		.thumb
 542 0032 70BD     		pop	{r4, r5, r6, pc}
 543              	.L40:
 544              	.LVL44:
 545              	.LBE114:
 546              	.LBE113:
 547              	.LBE112:
 548              	.LBE111:
 549              	.LBE110:
 550              	.LBB119:
 551              	.LBB120:
 552              		.file 4 "ChibiOS_3.0.2/os/rt/include/chvt.h"
 553              		.loc 4 424 0
 554 0034 3221     		movs	r1, #50
 555 0036 064A     		ldr	r2, .L41+16
 556 0038 FFF7FEFF 		bl	chVTDoSetI
 557              	.LVL45:
 558              	.LBE120:
 559              	.LBE119:
 560              	.LBB121:
 561              	.LBB118:
 562              	.LBB117:
 563              	.LBB116:
 564              	.LBB115:
 565              		.loc 3 331 0
 566              	@ 331 "ChibiOS_3.0.2/os/ext/CMSIS/include/core_cmFunc.h" 1
 567 003c 62B6     		cpsie i
 568              	@ 0 "" 2
 569              		.thumb
 570 003e 70BD     		pop	{r4, r5, r6, pc}
ARM GAS  /tmp/ccWx56sG.s 			page 11


 571              	.L42:
 572              		.align	2
 573              	.L41:
 574 0040 00000000 		.word	.LANCHOR4
 575 0044 00000000 		.word	.LANCHOR1
 576 0048 00000000 		.word	.LANCHOR2
 577 004c 00000000 		.word	.LANCHOR10
 578 0050 00000000 		.word	wakeup_tx
 579              	.LBE115:
 580              	.LBE116:
 581              	.LBE117:
 582              	.LBE118:
 583              	.LBE121:
 584              		.cfi_endproc
 585              	.LFE258:
 586              		.size	rf_control_send_packet, .-rf_control_send_packet
 587              		.section	.text.rf_control_send_buffer,"ax",%progbits
 588              		.align	2
 589              		.p2align 4,,15
 590              		.global	rf_control_send_buffer
 591              		.thumb
 592              		.thumb_func
 593              		.type	rf_control_send_buffer, %function
 594              	rf_control_send_buffer:
 595              	.LFB257:
 596              		.loc 1 79 0
 597              		.cfi_startproc
 598              		@ args = 0, pretend = 0, frame = 112
 599              		@ frame_needed = 0, uses_anonymous_args = 0
 600              	.LVL46:
 601 0000 2DE9F04F 		push	{r4, r5, r6, r7, r8, r9, r10, fp, lr}
 602              		.cfi_def_cfa_offset 36
 603              		.cfi_offset 4, -36
 604              		.cfi_offset 5, -32
 605              		.cfi_offset 6, -28
 606              		.cfi_offset 7, -24
 607              		.cfi_offset 8, -20
 608              		.cfi_offset 9, -16
 609              		.cfi_offset 10, -12
 610              		.cfi_offset 11, -8
 611              		.cfi_offset 14, -4
 612              		.loc 1 82 0
 613 0004 6D29     		cmp	r1, #109
 614              		.loc 1 79 0
 615 0006 9DB0     		sub	sp, sp, #116
 616              		.cfi_def_cfa_offset 152
 617              		.loc 1 79 0
 618 0008 8946     		mov	r9, r1
 619 000a 8246     		mov	r10, r0
 620              		.loc 1 82 0
 621 000c 70D9     		bls	.L57
 622              	.LVL47:
 623              	.LBB122:
 624              		.loc 1 90 0
 625 000e A1F16907 		sub	r7, r1, #105
 626              	.LVL48:
 627 0012 FDB2     		uxtb	r5, r7
ARM GAS  /tmp/ccWx56sG.s 			page 12


 628 0014 AE1C     		adds	r6, r5, #2
 629              		.loc 1 89 0
 630 0016 0024     		movs	r4, #0
 631 0018 F6B2     		uxtb	r6, r6
 632              	.LBB123:
 633              	.LBB124:
 634              		.loc 1 100 0
 635 001a A346     		mov	fp, r4
 636 001c 8046     		mov	r8, r0
 637              	.LVL49:
 638              	.L46:
 639              		.loc 1 97 0
 640 001e 6C34     		adds	r4, r4, #108
 641              	.LVL50:
 642 0020 A4F16C03 		sub	r3, r4, #108
 643              		.loc 1 103 0
 644 0024 A742     		cmp	r7, r4
 645              		.loc 1 100 0
 646 0026 8DF800B0 		strb	fp, [sp]
 647              		.loc 1 101 0
 648 002a 8DF80130 		strb	r3, [sp, #1]
 649              		.loc 1 104 0
 650 002e 0DF10200 		add	r0, sp, #2
 651 0032 4146     		mov	r1, r8
 652 0034 4FF06C02 		mov	r2, #108
 653              		.loc 1 103 0
 654 0038 6DD3     		bcc	.L48
 655              		.loc 1 104 0
 656 003a FFF7FEFF 		bl	memcpy
 657              	.LVL51:
 658 003e 6E21     		movs	r1, #110
 659              	.LVL52:
 660              	.L49:
 661              		.loc 1 110 0 discriminator 2
 662 0040 6846     		mov	r0, sp
 663 0042 FFF7FEFF 		bl	rf_control_send_packet
 664              	.LVL53:
 665 0046 6C3E     		subs	r6, r6, #108
 666              	.LBE124:
 667              		.loc 1 92 0 discriminator 2
 668 0048 A742     		cmp	r7, r4
 669 004a F6B2     		uxtb	r6, r6
 670 004c 08F16C08 		add	r8, r8, #108
 671 0050 2DD9     		bls	.L54
 672              	.LBB125:
 673              		.loc 1 93 0
 674 0052 B4F5A27F 		cmp	r4, #324
 675 0056 E2D1     		bne	.L46
 676              	.LVL54:
 677 0058 413D     		subs	r5, r5, #65
 678 005a EDB2     		uxtb	r5, r5
 679 005c 0AF5A276 		add	r6, r10, #324
 680              	.LBE125:
 681              	.LBE123:
 682              	.LBB127:
 683              	.LBB128:
 684              		.loc 1 115 0
ARM GAS  /tmp/ccWx56sG.s 			page 13


 685 0060 4FF00108 		mov	r8, #1
 686 0064 0BE0     		b	.L53
 687              	.LVL55:
 688              	.L58:
 689              		.loc 1 120 0
 690 0066 FFF7FEFF 		bl	memcpy
 691              	.LVL56:
 692 006a 6E21     		movs	r1, #110
 693              	.L52:
 694              	.LVL57:
 695              		.loc 1 126 0 discriminator 2
 696 006c 6846     		mov	r0, sp
 697 006e FFF7FEFF 		bl	rf_control_send_packet
 698              	.LVL58:
 699 0072 6B3D     		subs	r5, r5, #107
 700              	.LBE128:
 701              		.loc 1 113 0 discriminator 2
 702 0074 A742     		cmp	r7, r4
 703 0076 06F16B06 		add	r6, r6, #107
 704 007a EDB2     		uxtb	r5, r5
 705 007c 17D9     		bls	.L54
 706              	.LVL59:
 707              	.L53:
 708              	.LBB129:
 709              		.loc 1 116 0
 710 007e 230A     		lsrs	r3, r4, #8
 711              		.loc 1 117 0
 712 0080 8DF80240 		strb	r4, [sp, #2]
 713              		.loc 1 119 0
 714 0084 6B34     		adds	r4, r4, #107
 715              	.LVL60:
 716 0086 A742     		cmp	r7, r4
 717              		.loc 1 115 0
 718 0088 8DF80080 		strb	r8, [sp]
 719              		.loc 1 116 0
 720 008c 8DF80130 		strb	r3, [sp, #1]
 721              		.loc 1 120 0
 722 0090 0DF10300 		add	r0, sp, #3
 723 0094 3146     		mov	r1, r6
 724 0096 4FF06B02 		mov	r2, #107
 725              		.loc 1 119 0
 726 009a E4D2     		bcs	.L58
 727 009c EA1E     		subs	r2, r5, #3
 728              		.loc 1 123 0
 729 009e 3146     		mov	r1, r6
 730 00a0 D2B2     		uxtb	r2, r2
 731 00a2 0DF10300 		add	r0, sp, #3
 732 00a6 FFF7FEFF 		bl	memcpy
 733              	.LVL61:
 734 00aa 2946     		mov	r1, r5
 735 00ac DEE7     		b	.L52
 736              	.LVL62:
 737              	.L54:
 738              	.LBE129:
 739              	.LBE127:
 740              		.loc 1 131 0
 741 00ae 4FEA1923 		lsr	r3, r9, #8
ARM GAS  /tmp/ccWx56sG.s 			page 14


 742              		.loc 1 130 0
 743 00b2 0222     		movs	r2, #2
 744              		.loc 1 133 0
 745 00b4 4946     		mov	r1, r9
 746 00b6 5046     		mov	r0, r10
 747              		.loc 1 130 0
 748 00b8 8DF80020 		strb	r2, [sp]
 749              	.LVL63:
 750              		.loc 1 131 0
 751 00bc 8DF80130 		strb	r3, [sp, #1]
 752              	.LVL64:
 753              		.loc 1 132 0
 754 00c0 8DF80290 		strb	r9, [sp, #2]
 755              		.loc 1 133 0
 756 00c4 FFF7FEFF 		bl	crc16
 757              	.LVL65:
 758              		.loc 1 136 0
 759 00c8 0AEB0701 		add	r1, r10, r7
 760              		.loc 1 133 0
 761 00cc 0346     		mov	r3, r0
 762              	.LVL66:
 763              		.loc 1 134 0
 764 00ce 040A     		lsrs	r4, r0, #8
 765              		.loc 1 136 0
 766 00d0 6922     		movs	r2, #105
 767 00d2 0DF10500 		add	r0, sp, #5
 768              	.LVL67:
 769              		.loc 1 135 0
 770 00d6 8DF80430 		strb	r3, [sp, #4]
 771              		.loc 1 134 0
 772 00da 8DF80340 		strb	r4, [sp, #3]
 773              	.LVL68:
 774              		.loc 1 136 0
 775 00de FFF7FEFF 		bl	memcpy
 776              	.LVL69:
 777              		.loc 1 139 0
 778 00e2 6846     		mov	r0, sp
 779 00e4 6E21     		movs	r1, #110
 780 00e6 FFF7FEFF 		bl	rf_control_send_packet
 781              	.LVL70:
 782              	.LBE122:
 783              		.loc 1 141 0
 784 00ea 1DB0     		add	sp, sp, #116
 785              		.cfi_remember_state
 786              		.cfi_def_cfa_offset 36
 787              		@ sp needed
 788 00ec BDE8F08F 		pop	{r4, r5, r6, r7, r8, r9, r10, fp, pc}
 789              	.LVL71:
 790              	.L57:
 791              		.cfi_restore_state
 792              	.LBB131:
 793              		.loc 1 84 0
 794 00f0 1CAC     		add	r4, sp, #112
 795 00f2 0323     		movs	r3, #3
 796 00f4 04F8703D 		strb	r3, [r4, #-112]!
 797              		.loc 1 85 0
 798 00f8 0146     		mov	r1, r0
ARM GAS  /tmp/ccWx56sG.s 			page 15


 799              	.LVL72:
 800 00fa 4A46     		mov	r2, r9
 801 00fc 0DF10100 		add	r0, sp, #1
 802              	.LVL73:
 803 0100 FFF7FEFF 		bl	memcpy
 804              	.LVL74:
 805              		.loc 1 86 0
 806 0104 09F10101 		add	r1, r9, #1
 807              	.LVL75:
 808              		.loc 1 87 0
 809 0108 2046     		mov	r0, r4
 810 010a C9B2     		uxtb	r1, r1
 811              	.LVL76:
 812 010c FFF7FEFF 		bl	rf_control_send_packet
 813              	.LVL77:
 814              	.LBE131:
 815              		.loc 1 141 0
 816 0110 1DB0     		add	sp, sp, #116
 817              		.cfi_remember_state
 818              		.cfi_def_cfa_offset 36
 819              		@ sp needed
 820 0112 BDE8F08F 		pop	{r4, r5, r6, r7, r8, r9, r10, fp, pc}
 821              	.LVL78:
 822              	.L48:
 823              		.cfi_restore_state
 824 0116 B21E     		subs	r2, r6, #2
 825              	.LBB132:
 826              	.LBB130:
 827              	.LBB126:
 828              		.loc 1 107 0
 829 0118 4146     		mov	r1, r8
 830 011a D2B2     		uxtb	r2, r2
 831 011c 0DF10200 		add	r0, sp, #2
 832 0120 FFF7FEFF 		bl	memcpy
 833              	.LVL79:
 834 0124 3146     		mov	r1, r6
 835 0126 8BE7     		b	.L49
 836              	.LBE126:
 837              	.LBE130:
 838              	.LBE132:
 839              		.cfi_endproc
 840              	.LFE257:
 841              		.size	rf_control_send_buffer, .-rf_control_send_buffer
 842              		.section	.bss.buf.8601,"aw",%nobits
 843              		.align	2
 844              		.set	.LANCHOR5,. + 0
 845              		.type	buf.8601, %object
 846              		.size	buf.8601, 130
 847              	buf.8601:
 848 0000 00000000 		.space	130
 848      00000000 
 848      00000000 
 848      00000000 
 848      00000000 
 849              		.section	.bss.tx_buffer,"aw",%nobits
 850              		.align	2
 851              		.set	.LANCHOR1,. + 0
ARM GAS  /tmp/ccWx56sG.s 			page 16


 852              		.type	tx_buffer, %object
 853              		.size	tx_buffer, 1300
 854              	tx_buffer:
 855 0000 00000000 		.space	1300
 855      00000000 
 855      00000000 
 855      00000000 
 855      00000000 
 856              		.section	.bss.rx_buffer,"aw",%nobits
 857              		.align	2
 858              		.set	.LANCHOR6,. + 0
 859              		.type	rx_buffer, %object
 860              		.size	rx_buffer, 1024
 861              	rx_buffer:
 862 0000 00000000 		.space	1024
 862      00000000 
 862      00000000 
 862      00000000 
 862      00000000 
 863              		.section	.bss.tx_tp,"aw",%nobits
 864              		.align	2
 865              		.set	.LANCHOR0,. + 0
 866              		.type	tx_tp, %object
 867              		.size	tx_tp, 4
 868              	tx_tp:
 869 0000 00000000 		.space	4
 870              		.section	.bss.tx_slot_write,"aw",%nobits
 871              		.align	2
 872              		.set	.LANCHOR4,. + 0
 873              		.type	tx_slot_write, %object
 874              		.size	tx_slot_write, 4
 875              	tx_slot_write:
 876 0000 00000000 		.space	4
 877              		.section	.bss.tx_slot_len,"aw",%nobits
 878              		.align	2
 879              		.set	.LANCHOR2,. + 0
 880              		.type	tx_slot_len, %object
 881              		.size	tx_slot_len, 10
 882              	tx_slot_len:
 883 0000 00000000 		.space	10
 883      00000000 
 883      0000
 884              		.section	.rodata.str1.4,"aMS",%progbits,1
 885              		.align	2
 886              	.LC0:
 887 0000 43433235 		.ascii	"CC2520 Tx\000"
 887      32302054 
 887      7800
 888 000a 0000     		.space	2
 889              	.LC1:
 890 000c 43433235 		.ascii	"CC2520 RX\000"
 890      32302052 
 890      5800
 891              		.section	.bss.vt,"aw",%nobits
 892              		.align	2
 893              		.set	.LANCHOR10,. + 0
 894              		.type	vt, %object
ARM GAS  /tmp/ccWx56sG.s 			page 17


 895              		.size	vt, 20
 896              	vt:
 897 0000 00000000 		.space	20
 897      00000000 
 897      00000000 
 897      00000000 
 897      00000000 
 898              		.section	.bss.rx_thread_wa,"aw",%nobits
 899              		.align	3
 900              		.set	.LANCHOR8,. + 0
 901              		.type	rx_thread_wa, %object
 902              		.size	rx_thread_wa, 2456
 903              	rx_thread_wa:
 904 0000 00000000 		.space	2456
 904      00000000 
 904      00000000 
 904      00000000 
 904      00000000 
 905              		.section	.bss.basicRfConfig,"aw",%nobits
 906              		.align	2
 907              		.set	.LANCHOR7,. + 0
 908              		.type	basicRfConfig, %object
 909              		.size	basicRfConfig, 6
 910              	basicRfConfig:
 911 0000 00000000 		.space	6
 911      0000
 912              		.section	.bss.tx_slot_read,"aw",%nobits
 913              		.align	2
 914              		.set	.LANCHOR3,. + 0
 915              		.type	tx_slot_read, %object
 916              		.size	tx_slot_read, 4
 917              	tx_slot_read:
 918 0000 00000000 		.space	4
 919              		.section	.bss.tx_thread_wa,"aw",%nobits
 920              		.align	3
 921              		.set	.LANCHOR9,. + 0
 922              		.type	tx_thread_wa, %object
 923              		.size	tx_thread_wa, 920
 924              	tx_thread_wa:
 925 0000 00000000 		.space	920
 925      00000000 
 925      00000000 
 925      00000000 
 925      00000000 
 926              		.text
 927              	.Letext0:
 928              		.file 5 "/usr/lib/gcc/arm-none-eabi/4.9.3/include/stddef.h"
 929              		.file 6 "/usr/arm-none-eabi/include/machine/_default_types.h"
 930              		.file 7 "/usr/arm-none-eabi/include/sys/_stdint.h"
 931              		.file 8 "ChibiOS_3.0.2/os/rt/ports/ARMCMx/compilers/GCC/chtypes.h"
 932              		.file 9 "ChibiOS_3.0.2/os/rt/include/chsystypes.h"
 933              		.file 10 "ChibiOS_3.0.2/os/rt/include/chschd.h"
 934              		.file 11 "ChibiOS_3.0.2/os/rt/ports/ARMCMx/chcore.h"
 935              		.file 12 "ChibiOS_3.0.2/os/rt/ports/ARMCMx/chcore_v7m.h"
 936              		.file 13 "ChibiOS_3.0.2/os/rt/include/chtm.h"
 937              		.file 14 "ChibiOS_3.0.2/os/rt/include/chsem.h"
 938              		.file 15 "ChibiOS_3.0.2/os/rt/include/chmtx.h"
ARM GAS  /tmp/ccWx56sG.s 			page 18


 939              		.file 16 "ChibiOS_3.0.2/os/rt/include/chthreads.h"
 940              		.file 17 "datatypes.h"
 941              		.file 18 "cc2520/driver/hal_types.h"
 942              		.file 19 "cc2520/basicrf/basic_rf.h"
 943              		.file 20 "ChibiOS_3.0.2/os/rt/include/chsys.h"
 944              		.file 21 "ChibiOS_3.0.2/os/rt/include/chevents.h"
 945              		.file 22 "crc.h"
 946              		.file 23 "led.h"
 947              		.file 24 "comm_usb.h"
 948              		.file 25 "cc2520/driver/stm32_hw.h"
 949              		.file 26 "ChibiOS_3.0.2/os/ext/CMSIS/include/core_cm4.h"
 950              		.section	.debug_info,"",%progbits
 951              	.Ldebug_info0:
 952 0000 64120000 		.4byte	0x1264
 953 0004 0400     		.2byte	0x4
 954 0006 00000000 		.4byte	.Ldebug_abbrev0
 955 000a 04       		.byte	0x4
 956 000b 01       		.uleb128 0x1
 957 000c B0070000 		.4byte	.LASF176
 958 0010 01       		.byte	0x1
 959 0011 00000000 		.4byte	.LASF177
 960 0015 24050000 		.4byte	.LASF178
 961 0019 B8000000 		.4byte	.Ldebug_ranges0+0xb8
 962 001d 00000000 		.4byte	0
 963 0021 00000000 		.4byte	.Ldebug_line0
 964 0025 02       		.uleb128 0x2
 965 0026 04       		.byte	0x4
 966 0027 05       		.byte	0x5
 967 0028 696E7400 		.ascii	"int\000"
 968 002c 03       		.uleb128 0x3
 969 002d 29000000 		.4byte	.LASF2
 970 0031 05       		.byte	0x5
 971 0032 D4       		.byte	0xd4
 972 0033 37000000 		.4byte	0x37
 973 0037 04       		.uleb128 0x4
 974 0038 04       		.byte	0x4
 975 0039 07       		.byte	0x7
 976 003a 26020000 		.4byte	.LASF0
 977 003e 04       		.uleb128 0x4
 978 003f 01       		.byte	0x1
 979 0040 06       		.byte	0x6
 980 0041 F3000000 		.4byte	.LASF1
 981 0045 03       		.uleb128 0x3
 982 0046 4C000000 		.4byte	.LASF3
 983 004a 06       		.byte	0x6
 984 004b 1D       		.byte	0x1d
 985 004c 50000000 		.4byte	0x50
 986 0050 04       		.uleb128 0x4
 987 0051 01       		.byte	0x1
 988 0052 08       		.byte	0x8
 989 0053 82050000 		.4byte	.LASF4
 990 0057 04       		.uleb128 0x4
 991 0058 02       		.byte	0x2
 992 0059 05       		.byte	0x5
 993 005a 96050000 		.4byte	.LASF5
 994 005e 04       		.uleb128 0x4
 995 005f 02       		.byte	0x2
ARM GAS  /tmp/ccWx56sG.s 			page 19


 996 0060 07       		.byte	0x7
 997 0061 A5020000 		.4byte	.LASF6
 998 0065 03       		.uleb128 0x3
 999 0066 5E030000 		.4byte	.LASF7
 1000 006a 06       		.byte	0x6
 1001 006b 3F       		.byte	0x3f
 1002 006c 70000000 		.4byte	0x70
 1003 0070 04       		.uleb128 0x4
 1004 0071 04       		.byte	0x4
 1005 0072 05       		.byte	0x5
 1006 0073 52010000 		.4byte	.LASF8
 1007 0077 03       		.uleb128 0x3
 1008 0078 E0060000 		.4byte	.LASF9
 1009 007c 06       		.byte	0x6
 1010 007d 41       		.byte	0x41
 1011 007e 82000000 		.4byte	0x82
 1012 0082 04       		.uleb128 0x4
 1013 0083 04       		.byte	0x4
 1014 0084 07       		.byte	0x7
 1015 0085 74060000 		.4byte	.LASF10
 1016 0089 04       		.uleb128 0x4
 1017 008a 08       		.byte	0x8
 1018 008b 05       		.byte	0x5
 1019 008c B8020000 		.4byte	.LASF11
 1020 0090 03       		.uleb128 0x3
 1021 0091 C8040000 		.4byte	.LASF12
 1022 0095 06       		.byte	0x6
 1023 0096 5B       		.byte	0x5b
 1024 0097 9B000000 		.4byte	0x9b
 1025 009b 04       		.uleb128 0x4
 1026 009c 08       		.byte	0x8
 1027 009d 07       		.byte	0x7
 1028 009e 8A000000 		.4byte	.LASF13
 1029 00a2 03       		.uleb128 0x3
 1030 00a3 99070000 		.4byte	.LASF14
 1031 00a7 07       		.byte	0x7
 1032 00a8 14       		.byte	0x14
 1033 00a9 45000000 		.4byte	0x45
 1034 00ad 03       		.uleb128 0x3
 1035 00ae 7A050000 		.4byte	.LASF15
 1036 00b2 07       		.byte	0x7
 1037 00b3 1F       		.byte	0x1f
 1038 00b4 65000000 		.4byte	0x65
 1039 00b8 03       		.uleb128 0x3
 1040 00b9 41060000 		.4byte	.LASF16
 1041 00bd 07       		.byte	0x7
 1042 00be 20       		.byte	0x20
 1043 00bf 77000000 		.4byte	0x77
 1044 00c3 03       		.uleb128 0x3
 1045 00c4 37000000 		.4byte	.LASF17
 1046 00c8 07       		.byte	0x7
 1047 00c9 26       		.byte	0x26
 1048 00ca 90000000 		.4byte	0x90
 1049 00ce 05       		.uleb128 0x5
 1050 00cf AD000000 		.4byte	0xad
 1051 00d3 03       		.uleb128 0x3
 1052 00d4 BC030000 		.4byte	.LASF18
ARM GAS  /tmp/ccWx56sG.s 			page 20


 1053 00d8 08       		.byte	0x8
 1054 00d9 45       		.byte	0x45
 1055 00da B8000000 		.4byte	0xb8
 1056 00de 03       		.uleb128 0x3
 1057 00df 30030000 		.4byte	.LASF19
 1058 00e3 08       		.byte	0x8
 1059 00e4 48       		.byte	0x48
 1060 00e5 A2000000 		.4byte	0xa2
 1061 00e9 03       		.uleb128 0x3
 1062 00ea 5B010000 		.4byte	.LASF20
 1063 00ee 08       		.byte	0x8
 1064 00ef 49       		.byte	0x49
 1065 00f0 A2000000 		.4byte	0xa2
 1066 00f4 03       		.uleb128 0x3
 1067 00f5 7D070000 		.4byte	.LASF21
 1068 00f9 08       		.byte	0x8
 1069 00fa 4A       		.byte	0x4a
 1070 00fb A2000000 		.4byte	0xa2
 1071 00ff 03       		.uleb128 0x3
 1072 0100 34010000 		.4byte	.LASF22
 1073 0104 08       		.byte	0x8
 1074 0105 4B       		.byte	0x4b
 1075 0106 A2000000 		.4byte	0xa2
 1076 010a 03       		.uleb128 0x3
 1077 010b 1C050000 		.4byte	.LASF23
 1078 010f 08       		.byte	0x8
 1079 0110 4C       		.byte	0x4c
 1080 0111 B8000000 		.4byte	0xb8
 1081 0115 03       		.uleb128 0x3
 1082 0116 EA020000 		.4byte	.LASF24
 1083 011a 08       		.byte	0x8
 1084 011b 4D       		.byte	0x4d
 1085 011c AD000000 		.4byte	0xad
 1086 0120 03       		.uleb128 0x3
 1087 0121 40000000 		.4byte	.LASF25
 1088 0125 08       		.byte	0x8
 1089 0126 4F       		.byte	0x4f
 1090 0127 B8000000 		.4byte	0xb8
 1091 012b 03       		.uleb128 0x3
 1092 012c 20020000 		.4byte	.LASF26
 1093 0130 08       		.byte	0x8
 1094 0131 51       		.byte	0x51
 1095 0132 AD000000 		.4byte	0xad
 1096 0136 03       		.uleb128 0x3
 1097 0137 C2060000 		.4byte	.LASF27
 1098 013b 09       		.byte	0x9
 1099 013c 33       		.byte	0x33
 1100 013d B8000000 		.4byte	0xb8
 1101 0141 03       		.uleb128 0x3
 1102 0142 B2060000 		.4byte	.LASF28
 1103 0146 09       		.byte	0x9
 1104 0147 3F       		.byte	0x3f
 1105 0148 4C010000 		.4byte	0x14c
 1106 014c 06       		.uleb128 0x6
 1107 014d D6020000 		.4byte	.LASF50
 1108 0151 48       		.byte	0x48
 1109 0152 0A       		.byte	0xa
ARM GAS  /tmp/ccWx56sG.s 			page 21


 1110 0153 C2       		.byte	0xc2
 1111 0154 51020000 		.4byte	0x251
 1112 0158 07       		.uleb128 0x7
 1113 0159 E4050000 		.4byte	.LASF29
 1114 015d 0A       		.byte	0xa
 1115 015e C3       		.byte	0xc3
 1116 015f 5C020000 		.4byte	0x25c
 1117 0163 00       		.byte	0
 1118 0164 07       		.uleb128 0x7
 1119 0165 15050000 		.4byte	.LASF30
 1120 0169 0A       		.byte	0xa
 1121 016a C5       		.byte	0xc5
 1122 016b 5C020000 		.4byte	0x25c
 1123 016f 04       		.byte	0x4
 1124 0170 07       		.uleb128 0x7
 1125 0171 E0000000 		.4byte	.LASF31
 1126 0175 0A       		.byte	0xa
 1127 0176 C7       		.byte	0xc7
 1128 0177 0A010000 		.4byte	0x10a
 1129 017b 08       		.byte	0x8
 1130 017c 07       		.uleb128 0x7
 1131 017d 2C090000 		.4byte	.LASF32
 1132 0181 0A       		.byte	0xa
 1133 0182 C8       		.byte	0xc8
 1134 0183 8C040000 		.4byte	0x48c
 1135 0187 0C       		.byte	0xc
 1136 0188 07       		.uleb128 0x7
 1137 0189 9E010000 		.4byte	.LASF33
 1138 018d 0A       		.byte	0xa
 1139 018e CA       		.byte	0xca
 1140 018f 5C020000 		.4byte	0x25c
 1141 0193 10       		.byte	0x10
 1142 0194 07       		.uleb128 0x7
 1143 0195 1F040000 		.4byte	.LASF34
 1144 0199 0A       		.byte	0xa
 1145 019a CB       		.byte	0xcb
 1146 019b 5C020000 		.4byte	0x25c
 1147 019f 14       		.byte	0x14
 1148 01a0 07       		.uleb128 0x7
 1149 01a1 DD080000 		.4byte	.LASF35
 1150 01a5 0A       		.byte	0xa
 1151 01a6 D2       		.byte	0xd2
 1152 01a7 D1060000 		.4byte	0x6d1
 1153 01ab 18       		.byte	0x18
 1154 01ac 07       		.uleb128 0x7
 1155 01ad A0050000 		.4byte	.LASF36
 1156 01b1 0A       		.byte	0xa
 1157 01b2 DD       		.byte	0xdd
 1158 01b3 E9000000 		.4byte	0xe9
 1159 01b7 1C       		.byte	0x1c
 1160 01b8 07       		.uleb128 0x7
 1161 01b9 EB050000 		.4byte	.LASF37
 1162 01bd 0A       		.byte	0xa
 1163 01be E1       		.byte	0xe1
 1164 01bf DE000000 		.4byte	0xde
 1165 01c3 1D       		.byte	0x1d
 1166 01c4 07       		.uleb128 0x7
ARM GAS  /tmp/ccWx56sG.s 			page 22


 1167 01c5 79040000 		.4byte	.LASF38
 1168 01c9 0A       		.byte	0xa
 1169 01ca E6       		.byte	0xe6
 1170 01cb F4000000 		.4byte	0xf4
 1171 01cf 1E       		.byte	0x1e
 1172 01d0 07       		.uleb128 0x7
 1173 01d1 BD050000 		.4byte	.LASF39
 1174 01d5 0A       		.byte	0xa
 1175 01d6 EC       		.byte	0xec
 1176 01d7 FF000000 		.4byte	0xff
 1177 01db 1F       		.byte	0x1f
 1178 01dc 07       		.uleb128 0x7
 1179 01dd 02070000 		.4byte	.LASF40
 1180 01e1 0A       		.byte	0xa
 1181 01e2 F3       		.byte	0xf3
 1182 01e3 E3060000 		.4byte	0x6e3
 1183 01e7 20       		.byte	0x20
 1184 01e8 08       		.uleb128 0x8
 1185 01e9 705F7500 		.ascii	"p_u\000"
 1186 01ed 0A       		.byte	0xa
 1187 01ee 3101     		.2byte	0x131
 1188 01f0 0C060000 		.4byte	0x60c
 1189 01f4 24       		.byte	0x24
 1190 01f5 09       		.uleb128 0x9
 1191 01f6 32090000 		.4byte	.LASF41
 1192 01fa 0A       		.byte	0xa
 1193 01fb 3601     		.2byte	0x136
 1194 01fd 62020000 		.4byte	0x262
 1195 0201 28       		.byte	0x28
 1196 0202 09       		.uleb128 0x9
 1197 0203 48070000 		.4byte	.LASF42
 1198 0207 0A       		.byte	0xa
 1199 0208 3C01     		.2byte	0x13c
 1200 020a 86020000 		.4byte	0x286
 1201 020e 2C       		.byte	0x2c
 1202 020f 09       		.uleb128 0x9
 1203 0210 0B090000 		.4byte	.LASF43
 1204 0214 0A       		.byte	0xa
 1205 0215 4001     		.2byte	0x140
 1206 0217 15010000 		.4byte	0x115
 1207 021b 34       		.byte	0x34
 1208 021c 09       		.uleb128 0x9
 1209 021d 05040000 		.4byte	.LASF44
 1210 0221 0A       		.byte	0xa
 1211 0222 4601     		.2byte	0x146
 1212 0224 20010000 		.4byte	0x120
 1213 0228 38       		.byte	0x38
 1214 0229 09       		.uleb128 0x9
 1215 022a 42040000 		.4byte	.LASF45
 1216 022e 0A       		.byte	0xa
 1217 022f 4D01     		.2byte	0x14d
 1218 0231 CB060000 		.4byte	0x6cb
 1219 0235 3C       		.byte	0x3c
 1220 0236 09       		.uleb128 0x9
 1221 0237 CC060000 		.4byte	.LASF46
 1222 023b 0A       		.byte	0xa
 1223 023c 5101     		.2byte	0x151
ARM GAS  /tmp/ccWx56sG.s 			page 23


 1224 023e 0A010000 		.4byte	0x10a
 1225 0242 40       		.byte	0x40
 1226 0243 09       		.uleb128 0x9
 1227 0244 0B010000 		.4byte	.LASF47
 1228 0248 0A       		.byte	0xa
 1229 0249 5801     		.2byte	0x158
 1230 024b 39030000 		.4byte	0x339
 1231 024f 44       		.byte	0x44
 1232 0250 00       		.byte	0
 1233 0251 03       		.uleb128 0x3
 1234 0252 C4030000 		.4byte	.LASF48
 1235 0256 09       		.byte	0x9
 1236 0257 44       		.byte	0x44
 1237 0258 5C020000 		.4byte	0x25c
 1238 025c 0A       		.uleb128 0xa
 1239 025d 04       		.byte	0x4
 1240 025e 41010000 		.4byte	0x141
 1241 0262 03       		.uleb128 0x3
 1242 0263 EB080000 		.4byte	.LASF49
 1243 0267 09       		.byte	0x9
 1244 0268 49       		.byte	0x49
 1245 0269 6D020000 		.4byte	0x26d
 1246 026d 06       		.uleb128 0x6
 1247 026e 64060000 		.4byte	.LASF51
 1248 0272 04       		.byte	0x4
 1249 0273 0A       		.byte	0xa
 1250 0274 B0       		.byte	0xb0
 1251 0275 86020000 		.4byte	0x286
 1252 0279 07       		.uleb128 0x7
 1253 027a E4050000 		.4byte	.LASF29
 1254 027e 0A       		.byte	0xa
 1255 027f B1       		.byte	0xb1
 1256 0280 5C020000 		.4byte	0x25c
 1257 0284 00       		.byte	0
 1258 0285 00       		.byte	0
 1259 0286 03       		.uleb128 0x3
 1260 0287 C6020000 		.4byte	.LASF52
 1261 028b 09       		.byte	0x9
 1262 028c 50       		.byte	0x50
 1263 028d 91020000 		.4byte	0x291
 1264 0291 06       		.uleb128 0x6
 1265 0292 CF000000 		.4byte	.LASF53
 1266 0296 08       		.byte	0x8
 1267 0297 0A       		.byte	0xa
 1268 0298 B7       		.byte	0xb7
 1269 0299 B6020000 		.4byte	0x2b6
 1270 029d 07       		.uleb128 0x7
 1271 029e E4050000 		.4byte	.LASF29
 1272 02a2 0A       		.byte	0xa
 1273 02a3 B8       		.byte	0xb8
 1274 02a4 5C020000 		.4byte	0x25c
 1275 02a8 00       		.byte	0
 1276 02a9 07       		.uleb128 0x7
 1277 02aa 15050000 		.4byte	.LASF30
 1278 02ae 0A       		.byte	0xa
 1279 02af B9       		.byte	0xb9
 1280 02b0 5C020000 		.4byte	0x25c
ARM GAS  /tmp/ccWx56sG.s 			page 24


 1281 02b4 04       		.byte	0x4
 1282 02b5 00       		.byte	0
 1283 02b6 03       		.uleb128 0x3
 1284 02b7 1C000000 		.4byte	.LASF54
 1285 02bb 09       		.byte	0x9
 1286 02bc 57       		.byte	0x57
 1287 02bd C1020000 		.4byte	0x2c1
 1288 02c1 0B       		.uleb128 0xb
 1289 02c2 45030000 		.4byte	.LASF55
 1290 02c6 1C       		.byte	0x1c
 1291 02c7 0A       		.byte	0xa
 1292 02c8 9001     		.2byte	0x190
 1293 02ca 1D030000 		.4byte	0x31d
 1294 02ce 09       		.uleb128 0x9
 1295 02cf 51060000 		.4byte	.LASF56
 1296 02d3 0A       		.byte	0xa
 1297 02d4 9101     		.2byte	0x191
 1298 02d6 86020000 		.4byte	0x286
 1299 02da 00       		.byte	0
 1300 02db 09       		.uleb128 0x9
 1301 02dc C7050000 		.4byte	.LASF57
 1302 02e0 0A       		.byte	0xa
 1303 02e1 9201     		.2byte	0x192
 1304 02e3 0A010000 		.4byte	0x10a
 1305 02e7 08       		.byte	0x8
 1306 02e8 09       		.uleb128 0x9
 1307 02e9 27040000 		.4byte	.LASF58
 1308 02ed 0A       		.byte	0xa
 1309 02ee 9401     		.2byte	0x194
 1310 02f0 8C040000 		.4byte	0x48c
 1311 02f4 0C       		.byte	0xc
 1312 02f5 09       		.uleb128 0x9
 1313 02f6 CA010000 		.4byte	.LASF59
 1314 02fa 0A       		.byte	0xa
 1315 02fb 9701     		.2byte	0x197
 1316 02fd 5C020000 		.4byte	0x25c
 1317 0301 10       		.byte	0x10
 1318 0302 09       		.uleb128 0x9
 1319 0303 91040000 		.4byte	.LASF60
 1320 0307 0A       		.byte	0xa
 1321 0308 9801     		.2byte	0x198
 1322 030a 5C020000 		.4byte	0x25c
 1323 030e 14       		.byte	0x14
 1324 030f 09       		.uleb128 0x9
 1325 0310 87040000 		.4byte	.LASF61
 1326 0314 0A       		.byte	0xa
 1327 0315 9B01     		.2byte	0x19b
 1328 0317 5C020000 		.4byte	0x25c
 1329 031b 18       		.byte	0x18
 1330 031c 00       		.byte	0
 1331 031d 03       		.uleb128 0x3
 1332 031e D7060000 		.4byte	.LASF62
 1333 0322 09       		.byte	0x9
 1334 0323 5C       		.byte	0x5c
 1335 0324 28030000 		.4byte	0x328
 1336 0328 0A       		.uleb128 0xa
 1337 0329 04       		.byte	0x4
ARM GAS  /tmp/ccWx56sG.s 			page 25


 1338 032a 2E030000 		.4byte	0x32e
 1339 032e 0C       		.uleb128 0xc
 1340 032f 39030000 		.4byte	0x339
 1341 0333 0D       		.uleb128 0xd
 1342 0334 39030000 		.4byte	0x339
 1343 0338 00       		.byte	0
 1344 0339 0E       		.uleb128 0xe
 1345 033a 04       		.byte	0x4
 1346 033b 03       		.uleb128 0x3
 1347 033c 05050000 		.4byte	.LASF63
 1348 0340 09       		.byte	0x9
 1349 0341 61       		.byte	0x61
 1350 0342 46030000 		.4byte	0x346
 1351 0346 0B       		.uleb128 0xb
 1352 0347 16070000 		.4byte	.LASF64
 1353 034b 14       		.byte	0x14
 1354 034c 0A       		.byte	0xa
 1355 034d 6B01     		.2byte	0x16b
 1356 034f 95030000 		.4byte	0x395
 1357 0353 09       		.uleb128 0x9
 1358 0354 33020000 		.4byte	.LASF65
 1359 0358 0A       		.byte	0xa
 1360 0359 6C01     		.2byte	0x16c
 1361 035b E8060000 		.4byte	0x6e8
 1362 035f 00       		.byte	0
 1363 0360 09       		.uleb128 0x9
 1364 0361 DB010000 		.4byte	.LASF66
 1365 0365 0A       		.byte	0xa
 1366 0366 6D01     		.2byte	0x16d
 1367 0368 E8060000 		.4byte	0x6e8
 1368 036c 04       		.byte	0x4
 1369 036d 09       		.uleb128 0x9
 1370 036e 42020000 		.4byte	.LASF67
 1371 0372 0A       		.byte	0xa
 1372 0373 6E01     		.2byte	0x16e
 1373 0375 36010000 		.4byte	0x136
 1374 0379 08       		.byte	0x8
 1375 037a 09       		.uleb128 0x9
 1376 037b 67040000 		.4byte	.LASF68
 1377 037f 0A       		.byte	0xa
 1378 0380 6F01     		.2byte	0x16f
 1379 0382 1D030000 		.4byte	0x31d
 1380 0386 0C       		.byte	0xc
 1381 0387 09       		.uleb128 0x9
 1382 0388 53070000 		.4byte	.LASF69
 1383 038c 0A       		.byte	0xa
 1384 038d 7101     		.2byte	0x171
 1385 038f 39030000 		.4byte	0x339
 1386 0393 10       		.byte	0x10
 1387 0394 00       		.byte	0
 1388 0395 03       		.uleb128 0x3
 1389 0396 AC000000 		.4byte	.LASF70
 1390 039a 09       		.byte	0x9
 1391 039b 66       		.byte	0x66
 1392 039c A0030000 		.4byte	0x3a0
 1393 03a0 0B       		.uleb128 0xb
 1394 03a1 E8030000 		.4byte	.LASF71
ARM GAS  /tmp/ccWx56sG.s 			page 26


 1395 03a5 10       		.byte	0x10
 1396 03a6 0A       		.byte	0xa
 1397 03a7 7B01     		.2byte	0x17b
 1398 03a9 E2030000 		.4byte	0x3e2
 1399 03ad 09       		.uleb128 0x9
 1400 03ae 33020000 		.4byte	.LASF65
 1401 03b2 0A       		.byte	0xa
 1402 03b3 7C01     		.2byte	0x17c
 1403 03b5 E8060000 		.4byte	0x6e8
 1404 03b9 00       		.byte	0
 1405 03ba 09       		.uleb128 0x9
 1406 03bb DB010000 		.4byte	.LASF66
 1407 03bf 0A       		.byte	0xa
 1408 03c0 7E01     		.2byte	0x17e
 1409 03c2 E8060000 		.4byte	0x6e8
 1410 03c6 04       		.byte	0x4
 1411 03c7 09       		.uleb128 0x9
 1412 03c8 42020000 		.4byte	.LASF67
 1413 03cc 0A       		.byte	0xa
 1414 03cd 8001     		.2byte	0x180
 1415 03cf 36010000 		.4byte	0x136
 1416 03d3 08       		.byte	0x8
 1417 03d4 09       		.uleb128 0x9
 1418 03d5 59060000 		.4byte	.LASF72
 1419 03d9 0A       		.byte	0xa
 1420 03da 8201     		.2byte	0x182
 1421 03dc E3060000 		.4byte	0x6e3
 1422 03e0 0C       		.byte	0xc
 1423 03e1 00       		.byte	0
 1424 03e2 03       		.uleb128 0x3
 1425 03e3 55050000 		.4byte	.LASF73
 1426 03e7 09       		.byte	0x9
 1427 03e8 6B       		.byte	0x6b
 1428 03e9 ED030000 		.4byte	0x3ed
 1429 03ed 0B       		.uleb128 0xb
 1430 03ee 64050000 		.4byte	.LASF74
 1431 03f2 04       		.byte	0x4
 1432 03f3 0A       		.byte	0xa
 1433 03f4 A201     		.2byte	0x1a2
 1434 03f6 08040000 		.4byte	0x408
 1435 03fa 09       		.uleb128 0x9
 1436 03fb EB060000 		.4byte	.LASF75
 1437 03ff 0A       		.byte	0xa
 1438 0400 AA01     		.2byte	0x1aa
 1439 0402 EE060000 		.4byte	0x6ee
 1440 0406 00       		.byte	0
 1441 0407 00       		.byte	0
 1442 0408 03       		.uleb128 0x3
 1443 0409 19030000 		.4byte	.LASF76
 1444 040d 09       		.byte	0x9
 1445 040e 70       		.byte	0x70
 1446 040f 13040000 		.4byte	0x413
 1447 0413 0F       		.uleb128 0xf
 1448 0414 48010000 		.4byte	.LASF77
 1449 0418 5802     		.2byte	0x258
 1450 041a 0A       		.byte	0xa
 1451 041b C201     		.2byte	0x1c2
ARM GAS  /tmp/ccWx56sG.s 			page 27


 1452 041d 6F040000 		.4byte	0x46f
 1453 0421 09       		.uleb128 0x9
 1454 0422 85070000 		.4byte	.LASF78
 1455 0426 0A       		.byte	0xa
 1456 0427 C601     		.2byte	0x1c6
 1457 0429 B6020000 		.4byte	0x2b6
 1458 042d 00       		.byte	0
 1459 042e 09       		.uleb128 0x9
 1460 042f 62000000 		.4byte	.LASF79
 1461 0433 0A       		.byte	0xa
 1462 0434 CA01     		.2byte	0x1ca
 1463 0436 95030000 		.4byte	0x395
 1464 043a 1C       		.byte	0x1c
 1465 043b 08       		.uleb128 0x8
 1466 043c 64626700 		.ascii	"dbg\000"
 1467 0440 0A       		.byte	0xa
 1468 0441 CE01     		.2byte	0x1ce
 1469 0443 E2030000 		.4byte	0x3e2
 1470 0447 2C       		.byte	0x2c
 1471 0448 09       		.uleb128 0x9
 1472 0449 A1000000 		.4byte	.LASF80
 1473 044d 0A       		.byte	0xa
 1474 044e D201     		.2byte	0x1d2
 1475 0450 41010000 		.4byte	0x141
 1476 0454 30       		.byte	0x30
 1477 0455 08       		.uleb128 0x8
 1478 0456 746D00   		.ascii	"tm\000"
 1479 0459 0A       		.byte	0xa
 1480 045a D701     		.2byte	0x1d7
 1481 045c 01060000 		.4byte	0x601
 1482 0460 78       		.byte	0x78
 1483 0461 09       		.uleb128 0x9
 1484 0462 11020000 		.4byte	.LASF81
 1485 0466 0A       		.byte	0xa
 1486 0467 E301     		.2byte	0x1e3
 1487 0469 F3060000 		.4byte	0x6f3
 1488 046d 80       		.byte	0x80
 1489 046e 00       		.byte	0
 1490 046f 04       		.uleb128 0x4
 1491 0470 04       		.byte	0x4
 1492 0471 07       		.byte	0x7
 1493 0472 A7070000 		.4byte	.LASF82
 1494 0476 03       		.uleb128 0x3
 1495 0477 D2010000 		.4byte	.LASF83
 1496 047b 0B       		.byte	0xb
 1497 047c 65       		.byte	0x65
 1498 047d 39030000 		.4byte	0x339
 1499 0481 03       		.uleb128 0x3
 1500 0482 68030000 		.4byte	.LASF84
 1501 0486 0B       		.byte	0xb
 1502 0487 6D       		.byte	0x6d
 1503 0488 C3000000 		.4byte	0xc3
 1504 048c 06       		.uleb128 0x6
 1505 048d 9D020000 		.4byte	.LASF85
 1506 0491 04       		.byte	0x4
 1507 0492 0B       		.byte	0xb
 1508 0493 89       		.byte	0x89
ARM GAS  /tmp/ccWx56sG.s 			page 28


 1509 0494 A5040000 		.4byte	0x4a5
 1510 0498 10       		.uleb128 0x10
 1511 0499 72313300 		.ascii	"r13\000"
 1512 049d 0B       		.byte	0xb
 1513 049e 8A       		.byte	0x8a
 1514 049f E6050000 		.4byte	0x5e6
 1515 04a3 00       		.byte	0
 1516 04a4 00       		.byte	0
 1517 04a5 06       		.uleb128 0x6
 1518 04a6 56000000 		.4byte	.LASF86
 1519 04aa 64       		.byte	0x64
 1520 04ab 0C       		.byte	0xc
 1521 04ac F4       		.byte	0xf4
 1522 04ad E6050000 		.4byte	0x5e6
 1523 04b1 10       		.uleb128 0x10
 1524 04b2 73313600 		.ascii	"s16\000"
 1525 04b6 0C       		.byte	0xc
 1526 04b7 F6       		.byte	0xf6
 1527 04b8 76040000 		.4byte	0x476
 1528 04bc 00       		.byte	0
 1529 04bd 10       		.uleb128 0x10
 1530 04be 73313700 		.ascii	"s17\000"
 1531 04c2 0C       		.byte	0xc
 1532 04c3 F7       		.byte	0xf7
 1533 04c4 76040000 		.4byte	0x476
 1534 04c8 04       		.byte	0x4
 1535 04c9 10       		.uleb128 0x10
 1536 04ca 73313800 		.ascii	"s18\000"
 1537 04ce 0C       		.byte	0xc
 1538 04cf F8       		.byte	0xf8
 1539 04d0 76040000 		.4byte	0x476
 1540 04d4 08       		.byte	0x8
 1541 04d5 10       		.uleb128 0x10
 1542 04d6 73313900 		.ascii	"s19\000"
 1543 04da 0C       		.byte	0xc
 1544 04db F9       		.byte	0xf9
 1545 04dc 76040000 		.4byte	0x476
 1546 04e0 0C       		.byte	0xc
 1547 04e1 10       		.uleb128 0x10
 1548 04e2 73323000 		.ascii	"s20\000"
 1549 04e6 0C       		.byte	0xc
 1550 04e7 FA       		.byte	0xfa
 1551 04e8 76040000 		.4byte	0x476
 1552 04ec 10       		.byte	0x10
 1553 04ed 10       		.uleb128 0x10
 1554 04ee 73323100 		.ascii	"s21\000"
 1555 04f2 0C       		.byte	0xc
 1556 04f3 FB       		.byte	0xfb
 1557 04f4 76040000 		.4byte	0x476
 1558 04f8 14       		.byte	0x14
 1559 04f9 10       		.uleb128 0x10
 1560 04fa 73323200 		.ascii	"s22\000"
 1561 04fe 0C       		.byte	0xc
 1562 04ff FC       		.byte	0xfc
 1563 0500 76040000 		.4byte	0x476
 1564 0504 18       		.byte	0x18
 1565 0505 10       		.uleb128 0x10
ARM GAS  /tmp/ccWx56sG.s 			page 29


 1566 0506 73323300 		.ascii	"s23\000"
 1567 050a 0C       		.byte	0xc
 1568 050b FD       		.byte	0xfd
 1569 050c 76040000 		.4byte	0x476
 1570 0510 1C       		.byte	0x1c
 1571 0511 10       		.uleb128 0x10
 1572 0512 73323400 		.ascii	"s24\000"
 1573 0516 0C       		.byte	0xc
 1574 0517 FE       		.byte	0xfe
 1575 0518 76040000 		.4byte	0x476
 1576 051c 20       		.byte	0x20
 1577 051d 10       		.uleb128 0x10
 1578 051e 73323500 		.ascii	"s25\000"
 1579 0522 0C       		.byte	0xc
 1580 0523 FF       		.byte	0xff
 1581 0524 76040000 		.4byte	0x476
 1582 0528 24       		.byte	0x24
 1583 0529 08       		.uleb128 0x8
 1584 052a 73323600 		.ascii	"s26\000"
 1585 052e 0C       		.byte	0xc
 1586 052f 0001     		.2byte	0x100
 1587 0531 76040000 		.4byte	0x476
 1588 0535 28       		.byte	0x28
 1589 0536 08       		.uleb128 0x8
 1590 0537 73323700 		.ascii	"s27\000"
 1591 053b 0C       		.byte	0xc
 1592 053c 0101     		.2byte	0x101
 1593 053e 76040000 		.4byte	0x476
 1594 0542 2C       		.byte	0x2c
 1595 0543 08       		.uleb128 0x8
 1596 0544 73323800 		.ascii	"s28\000"
 1597 0548 0C       		.byte	0xc
 1598 0549 0201     		.2byte	0x102
 1599 054b 76040000 		.4byte	0x476
 1600 054f 30       		.byte	0x30
 1601 0550 08       		.uleb128 0x8
 1602 0551 73323900 		.ascii	"s29\000"
 1603 0555 0C       		.byte	0xc
 1604 0556 0301     		.2byte	0x103
 1605 0558 76040000 		.4byte	0x476
 1606 055c 34       		.byte	0x34
 1607 055d 08       		.uleb128 0x8
 1608 055e 73333000 		.ascii	"s30\000"
 1609 0562 0C       		.byte	0xc
 1610 0563 0401     		.2byte	0x104
 1611 0565 76040000 		.4byte	0x476
 1612 0569 38       		.byte	0x38
 1613 056a 08       		.uleb128 0x8
 1614 056b 73333100 		.ascii	"s31\000"
 1615 056f 0C       		.byte	0xc
 1616 0570 0501     		.2byte	0x105
 1617 0572 76040000 		.4byte	0x476
 1618 0576 3C       		.byte	0x3c
 1619 0577 08       		.uleb128 0x8
 1620 0578 723400   		.ascii	"r4\000"
 1621 057b 0C       		.byte	0xc
 1622 057c 0701     		.2byte	0x107
ARM GAS  /tmp/ccWx56sG.s 			page 30


 1623 057e 76040000 		.4byte	0x476
 1624 0582 40       		.byte	0x40
 1625 0583 08       		.uleb128 0x8
 1626 0584 723500   		.ascii	"r5\000"
 1627 0587 0C       		.byte	0xc
 1628 0588 0801     		.2byte	0x108
 1629 058a 76040000 		.4byte	0x476
 1630 058e 44       		.byte	0x44
 1631 058f 08       		.uleb128 0x8
 1632 0590 723600   		.ascii	"r6\000"
 1633 0593 0C       		.byte	0xc
 1634 0594 0901     		.2byte	0x109
 1635 0596 76040000 		.4byte	0x476
 1636 059a 48       		.byte	0x48
 1637 059b 08       		.uleb128 0x8
 1638 059c 723700   		.ascii	"r7\000"
 1639 059f 0C       		.byte	0xc
 1640 05a0 0A01     		.2byte	0x10a
 1641 05a2 76040000 		.4byte	0x476
 1642 05a6 4C       		.byte	0x4c
 1643 05a7 08       		.uleb128 0x8
 1644 05a8 723800   		.ascii	"r8\000"
 1645 05ab 0C       		.byte	0xc
 1646 05ac 0B01     		.2byte	0x10b
 1647 05ae 76040000 		.4byte	0x476
 1648 05b2 50       		.byte	0x50
 1649 05b3 08       		.uleb128 0x8
 1650 05b4 723900   		.ascii	"r9\000"
 1651 05b7 0C       		.byte	0xc
 1652 05b8 0C01     		.2byte	0x10c
 1653 05ba 76040000 		.4byte	0x476
 1654 05be 54       		.byte	0x54
 1655 05bf 08       		.uleb128 0x8
 1656 05c0 72313000 		.ascii	"r10\000"
 1657 05c4 0C       		.byte	0xc
 1658 05c5 0D01     		.2byte	0x10d
 1659 05c7 76040000 		.4byte	0x476
 1660 05cb 58       		.byte	0x58
 1661 05cc 08       		.uleb128 0x8
 1662 05cd 72313100 		.ascii	"r11\000"
 1663 05d1 0C       		.byte	0xc
 1664 05d2 0E01     		.2byte	0x10e
 1665 05d4 76040000 		.4byte	0x476
 1666 05d8 5C       		.byte	0x5c
 1667 05d9 08       		.uleb128 0x8
 1668 05da 6C7200   		.ascii	"lr\000"
 1669 05dd 0C       		.byte	0xc
 1670 05de 0F01     		.2byte	0x10f
 1671 05e0 76040000 		.4byte	0x476
 1672 05e4 60       		.byte	0x60
 1673 05e5 00       		.byte	0
 1674 05e6 0A       		.uleb128 0xa
 1675 05e7 04       		.byte	0x4
 1676 05e8 A5040000 		.4byte	0x4a5
 1677 05ec 11       		.uleb128 0x11
 1678 05ed 04       		.byte	0x4
 1679 05ee 0D       		.byte	0xd
ARM GAS  /tmp/ccWx56sG.s 			page 31


 1680 05ef 38       		.byte	0x38
 1681 05f0 01060000 		.4byte	0x601
 1682 05f4 07       		.uleb128 0x7
 1683 05f5 E3010000 		.4byte	.LASF87
 1684 05f9 0D       		.byte	0xd
 1685 05fa 3C       		.byte	0x3c
 1686 05fb D3000000 		.4byte	0xd3
 1687 05ff 00       		.byte	0
 1688 0600 00       		.byte	0
 1689 0601 03       		.uleb128 0x3
 1690 0602 D7030000 		.4byte	.LASF88
 1691 0606 0D       		.byte	0xd
 1692 0607 3D       		.byte	0x3d
 1693 0608 EC050000 		.4byte	0x5ec
 1694 060c 12       		.uleb128 0x12
 1695 060d 04       		.byte	0x4
 1696 060e 0A       		.byte	0xa
 1697 060f FA       		.byte	0xfa
 1698 0610 69060000 		.4byte	0x669
 1699 0614 13       		.uleb128 0x13
 1700 0615 30000000 		.4byte	.LASF89
 1701 0619 0A       		.byte	0xa
 1702 061a 0101     		.2byte	0x101
 1703 061c 15010000 		.4byte	0x115
 1704 0620 13       		.uleb128 0x13
 1705 0621 C1010000 		.4byte	.LASF90
 1706 0625 0A       		.byte	0xa
 1707 0626 0801     		.2byte	0x108
 1708 0628 15010000 		.4byte	0x115
 1709 062c 13       		.uleb128 0x13
 1710 062d E4080000 		.4byte	.LASF91
 1711 0631 0A       		.byte	0xa
 1712 0632 0F01     		.2byte	0x10f
 1713 0634 39030000 		.4byte	0x339
 1714 0638 13       		.uleb128 0x13
 1715 0639 FF030000 		.4byte	.LASF92
 1716 063d 0A       		.byte	0xa
 1717 063e 1601     		.2byte	0x116
 1718 0640 69060000 		.4byte	0x669
 1719 0644 13       		.uleb128 0x13
 1720 0645 3B020000 		.4byte	.LASF93
 1721 0649 0A       		.byte	0xa
 1722 064a 1E01     		.2byte	0x11e
 1723 064c 94060000 		.4byte	0x694
 1724 0650 13       		.uleb128 0x13
 1725 0651 4A060000 		.4byte	.LASF94
 1726 0655 0A       		.byte	0xa
 1727 0656 2701     		.2byte	0x127
 1728 0658 CB060000 		.4byte	0x6cb
 1729 065c 13       		.uleb128 0x13
 1730 065d DD050000 		.4byte	.LASF95
 1731 0661 0A       		.byte	0xa
 1732 0662 2F01     		.2byte	0x12f
 1733 0664 20010000 		.4byte	0x120
 1734 0668 00       		.byte	0
 1735 0669 0A       		.uleb128 0xa
 1736 066a 04       		.byte	0x4
ARM GAS  /tmp/ccWx56sG.s 			page 32


 1737 066b 51020000 		.4byte	0x251
 1738 066f 06       		.uleb128 0x6
 1739 0670 2E060000 		.4byte	.LASF96
 1740 0674 0C       		.byte	0xc
 1741 0675 0E       		.byte	0xe
 1742 0676 34       		.byte	0x34
 1743 0677 94060000 		.4byte	0x694
 1744 067b 07       		.uleb128 0x7
 1745 067c A6010000 		.4byte	.LASF97
 1746 0680 0E       		.byte	0xe
 1747 0681 35       		.byte	0x35
 1748 0682 86020000 		.4byte	0x286
 1749 0686 00       		.byte	0
 1750 0687 07       		.uleb128 0x7
 1751 0688 92020000 		.4byte	.LASF98
 1752 068c 0E       		.byte	0xe
 1753 068d 37       		.byte	0x37
 1754 068e 2B010000 		.4byte	0x12b
 1755 0692 08       		.byte	0x8
 1756 0693 00       		.byte	0
 1757 0694 0A       		.uleb128 0xa
 1758 0695 04       		.byte	0x4
 1759 0696 6F060000 		.4byte	0x66f
 1760 069a 06       		.uleb128 0x6
 1761 069b D4080000 		.4byte	.LASF99
 1762 069f 10       		.byte	0x10
 1763 06a0 0F       		.byte	0xf
 1764 06a1 39       		.byte	0x39
 1765 06a2 CB060000 		.4byte	0x6cb
 1766 06a6 07       		.uleb128 0x7
 1767 06a7 20010000 		.4byte	.LASF100
 1768 06ab 0F       		.byte	0xf
 1769 06ac 3A       		.byte	0x3a
 1770 06ad 86020000 		.4byte	0x286
 1771 06b1 00       		.byte	0
 1772 06b2 07       		.uleb128 0x7
 1773 06b3 24090000 		.4byte	.LASF101
 1774 06b7 0F       		.byte	0xf
 1775 06b8 3C       		.byte	0x3c
 1776 06b9 5C020000 		.4byte	0x25c
 1777 06bd 08       		.byte	0x8
 1778 06be 07       		.uleb128 0x7
 1779 06bf BB060000 		.4byte	.LASF102
 1780 06c3 0F       		.byte	0xf
 1781 06c4 3E       		.byte	0x3e
 1782 06c5 19070000 		.4byte	0x719
 1783 06c9 0C       		.byte	0xc
 1784 06ca 00       		.byte	0
 1785 06cb 0A       		.uleb128 0xa
 1786 06cc 04       		.byte	0x4
 1787 06cd 9A060000 		.4byte	0x69a
 1788 06d1 0A       		.uleb128 0xa
 1789 06d2 04       		.byte	0x4
 1790 06d3 D7060000 		.4byte	0x6d7
 1791 06d7 14       		.uleb128 0x14
 1792 06d8 DC060000 		.4byte	0x6dc
 1793 06dc 04       		.uleb128 0x4
ARM GAS  /tmp/ccWx56sG.s 			page 33


 1794 06dd 01       		.byte	0x1
 1795 06de 08       		.byte	0x8
 1796 06df 86060000 		.4byte	.LASF103
 1797 06e3 05       		.uleb128 0x5
 1798 06e4 36010000 		.4byte	0x136
 1799 06e8 0A       		.uleb128 0xa
 1800 06e9 04       		.byte	0x4
 1801 06ea 3B030000 		.4byte	0x33b
 1802 06ee 05       		.uleb128 0x5
 1803 06ef D1060000 		.4byte	0x6d1
 1804 06f3 15       		.uleb128 0x15
 1805 06f4 81040000 		.4byte	0x481
 1806 06f8 03070000 		.4byte	0x703
 1807 06fc 16       		.uleb128 0x16
 1808 06fd 6F040000 		.4byte	0x46f
 1809 0701 3A       		.byte	0x3a
 1810 0702 00       		.byte	0
 1811 0703 03       		.uleb128 0x3
 1812 0704 0D000000 		.4byte	.LASF104
 1813 0708 10       		.byte	0x10
 1814 0709 34       		.byte	0x34
 1815 070a 28030000 		.4byte	0x328
 1816 070e 03       		.uleb128 0x3
 1817 070f F8010000 		.4byte	.LASF105
 1818 0713 0F       		.byte	0xf
 1819 0714 34       		.byte	0x34
 1820 0715 9A060000 		.4byte	0x69a
 1821 0719 0A       		.uleb128 0xa
 1822 071a 04       		.byte	0x4
 1823 071b 0E070000 		.4byte	0x70e
 1824 071f 0A       		.uleb128 0xa
 1825 0720 04       		.byte	0x4
 1826 0721 A2000000 		.4byte	0xa2
 1827 0725 04       		.uleb128 0x4
 1828 0726 01       		.byte	0x1
 1829 0727 02       		.byte	0x2
 1830 0728 74050000 		.4byte	.LASF106
 1831 072c 04       		.uleb128 0x4
 1832 072d 04       		.byte	0x4
 1833 072e 04       		.byte	0x4
 1834 072f D3040000 		.4byte	.LASF107
 1835 0733 17       		.uleb128 0x17
 1836 0734 01       		.byte	0x1
 1837 0735 11       		.byte	0x11
 1838 0736 1B       		.byte	0x1b
 1839 0737 54070000 		.4byte	0x754
 1840 073b 18       		.uleb128 0x18
 1841 073c 4C040000 		.4byte	.LASF108
 1842 0740 00       		.sleb128 0
 1843 0741 18       		.uleb128 0x18
 1844 0742 7E010000 		.4byte	.LASF109
 1845 0746 01       		.sleb128 1
 1846 0747 18       		.uleb128 0x18
 1847 0748 E7040000 		.4byte	.LASF110
 1848 074c 02       		.sleb128 2
 1849 074d 18       		.uleb128 0x18
 1850 074e F0020000 		.4byte	.LASF111
ARM GAS  /tmp/ccWx56sG.s 			page 34


 1851 0752 03       		.sleb128 3
 1852 0753 00       		.byte	0
 1853 0754 03       		.uleb128 0x3
 1854 0755 85030000 		.4byte	.LASF112
 1855 0759 11       		.byte	0x11
 1856 075a 20       		.byte	0x20
 1857 075b 33070000 		.4byte	0x733
 1858 075f 03       		.uleb128 0x3
 1859 0760 78010000 		.4byte	.LASF113
 1860 0764 12       		.byte	0x12
 1861 0765 16       		.byte	0x16
 1862 0766 50000000 		.4byte	0x50
 1863 076a 03       		.uleb128 0x3
 1864 076b A1070000 		.4byte	.LASF114
 1865 076f 12       		.byte	0x12
 1866 0770 18       		.byte	0x18
 1867 0771 57000000 		.4byte	0x57
 1868 0775 03       		.uleb128 0x3
 1869 0776 15000000 		.4byte	.LASF115
 1870 077a 12       		.byte	0x12
 1871 077b 19       		.byte	0x19
 1872 077c 5E000000 		.4byte	0x5e
 1873 0780 11       		.uleb128 0x11
 1874 0781 06       		.byte	0x6
 1875 0782 13       		.byte	0x13
 1876 0783 3A       		.byte	0x3a
 1877 0784 B9070000 		.4byte	0x7b9
 1878 0788 07       		.uleb128 0x7
 1879 0789 5A070000 		.4byte	.LASF116
 1880 078d 13       		.byte	0x13
 1881 078e 3B       		.byte	0x3b
 1882 078f 75070000 		.4byte	0x775
 1883 0793 00       		.byte	0
 1884 0794 07       		.uleb128 0x7
 1885 0795 84000000 		.4byte	.LASF117
 1886 0799 13       		.byte	0x13
 1887 079a 3C       		.byte	0x3c
 1888 079b 75070000 		.4byte	0x775
 1889 079f 02       		.byte	0x2
 1890 07a0 07       		.uleb128 0x7
 1891 07a1 1D060000 		.4byte	.LASF118
 1892 07a5 13       		.byte	0x13
 1893 07a6 3D       		.byte	0x3d
 1894 07a7 5F070000 		.4byte	0x75f
 1895 07ab 04       		.byte	0x4
 1896 07ac 07       		.uleb128 0x7
 1897 07ad 25030000 		.4byte	.LASF119
 1898 07b1 13       		.byte	0x13
 1899 07b2 3E       		.byte	0x3e
 1900 07b3 5F070000 		.4byte	0x75f
 1901 07b7 05       		.byte	0x5
 1902 07b8 00       		.byte	0
 1903 07b9 03       		.uleb128 0x3
 1904 07ba F5060000 		.4byte	.LASF120
 1905 07be 13       		.byte	0x13
 1906 07bf 42       		.byte	0x42
 1907 07c0 80070000 		.4byte	0x780
ARM GAS  /tmp/ccWx56sG.s 			page 35


 1908 07c4 0A       		.uleb128 0xa
 1909 07c5 04       		.byte	0x4
 1910 07c6 50000000 		.4byte	0x50
 1911 07ca 19       		.uleb128 0x19
 1912 07cb D9040000 		.4byte	.LASF121
 1913 07cf 03       		.byte	0x3
 1914 07d0 5401     		.2byte	0x154
 1915 07d2 03       		.byte	0x3
 1916 07d3 19       		.uleb128 0x19
 1917 07d4 99040000 		.4byte	.LASF122
 1918 07d8 03       		.byte	0x3
 1919 07d9 4901     		.2byte	0x149
 1920 07db 03       		.byte	0x3
 1921 07dc 19       		.uleb128 0x19
 1922 07dd 7A000000 		.4byte	.LASF123
 1923 07e1 0C       		.byte	0xc
 1924 07e2 BC01     		.2byte	0x1bc
 1925 07e4 03       		.byte	0x3
 1926 07e5 19       		.uleb128 0x19
 1927 07e6 28010000 		.4byte	.LASF124
 1928 07ea 0C       		.byte	0xc
 1929 07eb CA01     		.2byte	0x1ca
 1930 07ed 03       		.byte	0x3
 1931 07ee 19       		.uleb128 0x19
 1932 07ef 35070000 		.4byte	.LASF125
 1933 07f3 0C       		.byte	0xc
 1934 07f4 D901     		.2byte	0x1d9
 1935 07f6 03       		.byte	0x3
 1936 07f7 19       		.uleb128 0x19
 1937 07f8 9D060000 		.4byte	.LASF126
 1938 07fc 0C       		.byte	0xc
 1939 07fd E401     		.2byte	0x1e4
 1940 07ff 03       		.byte	0x3
 1941 0800 1A       		.uleb128 0x1a
 1942 0801 10060000 		.4byte	.LASF179
 1943 0805 04       		.byte	0x4
 1944 0806 5101     		.2byte	0x151
 1945 0808 25070000 		.4byte	0x725
 1946 080c 03       		.byte	0x3
 1947 080d 1E080000 		.4byte	0x81e
 1948 0811 1B       		.uleb128 0x1b
 1949 0812 76747000 		.ascii	"vtp\000"
 1950 0816 04       		.byte	0x4
 1951 0817 5101     		.2byte	0x151
 1952 0819 E8060000 		.4byte	0x6e8
 1953 081d 00       		.byte	0
 1954 081e 1C       		.uleb128 0x1c
 1955 081f 11090000 		.4byte	.LASF130
 1956 0823 02       		.byte	0x2
 1957 0824 84       		.byte	0x84
 1958 0825 03       		.byte	0x3
 1959 0826 36080000 		.4byte	0x836
 1960 082a 1D       		.uleb128 0x1d
 1961 082b 84020000 		.4byte	.LASF127
 1962 082f 02       		.byte	0x2
 1963 0830 84       		.byte	0x84
 1964 0831 D1060000 		.4byte	0x6d1
ARM GAS  /tmp/ccWx56sG.s 			page 36


 1965 0835 00       		.byte	0
 1966 0836 1E       		.uleb128 0x1e
 1967 0837 8B070000 		.4byte	.LASF180
 1968 083b 10       		.byte	0x10
 1969 083c AE       		.byte	0xae
 1970 083d 5C020000 		.4byte	0x25c
 1971 0841 03       		.byte	0x3
 1972 0842 19       		.uleb128 0x19
 1973 0843 69000000 		.4byte	.LASF128
 1974 0847 14       		.byte	0x14
 1975 0848 8201     		.2byte	0x182
 1976 084a 03       		.byte	0x3
 1977 084b 19       		.uleb128 0x19
 1978 084c AE010000 		.4byte	.LASF129
 1979 0850 14       		.byte	0x14
 1980 0851 9601     		.2byte	0x196
 1981 0853 03       		.byte	0x3
 1982 0854 1F       		.uleb128 0x1f
 1983 0855 37040000 		.4byte	.LASF131
 1984 0859 04       		.byte	0x4
 1985 085a 7601     		.2byte	0x176
 1986 085c 03       		.byte	0x3
 1987 085d 6E080000 		.4byte	0x86e
 1988 0861 1B       		.uleb128 0x1b
 1989 0862 76747000 		.ascii	"vtp\000"
 1990 0866 04       		.byte	0x4
 1991 0867 7601     		.2byte	0x176
 1992 0869 E8060000 		.4byte	0x6e8
 1993 086d 00       		.byte	0
 1994 086e 19       		.uleb128 0x19
 1995 086f FC050000 		.4byte	.LASF132
 1996 0873 14       		.byte	0x14
 1997 0874 5A01     		.2byte	0x15a
 1998 0876 03       		.byte	0x3
 1999 0877 1F       		.uleb128 0x1f
 2000 0878 FF080000 		.4byte	.LASF133
 2001 087c 14       		.byte	0x14
 2002 087d 6601     		.2byte	0x166
 2003 087f 03       		.byte	0x3
 2004 0880 92080000 		.4byte	0x892
 2005 0884 20       		.uleb128 0x20
 2006 0885 F3050000 		.4byte	.LASF181
 2007 0889 A2080000 		.4byte	0x8a2
 2008 088d FF080000 		.4byte	.LASF133
 2009 0891 00       		.byte	0
 2010 0892 15       		.uleb128 0x15
 2011 0893 DC060000 		.4byte	0x6dc
 2012 0897 A2080000 		.4byte	0x8a2
 2013 089b 16       		.uleb128 0x16
 2014 089c 6F040000 		.4byte	0x46f
 2015 08a0 0B       		.byte	0xb
 2016 08a1 00       		.byte	0
 2017 08a2 14       		.uleb128 0x14
 2018 08a3 92080000 		.4byte	0x892
 2019 08a7 1F       		.uleb128 0x1f
 2020 08a8 16040000 		.4byte	.LASF134
 2021 08ac 04       		.byte	0x4
ARM GAS  /tmp/ccWx56sG.s 			page 37


 2022 08ad A401     		.2byte	0x1a4
 2023 08af 03       		.byte	0x3
 2024 08b0 E5080000 		.4byte	0x8e5
 2025 08b4 1B       		.uleb128 0x1b
 2026 08b5 76747000 		.ascii	"vtp\000"
 2027 08b9 04       		.byte	0x4
 2028 08ba A401     		.2byte	0x1a4
 2029 08bc E8060000 		.4byte	0x6e8
 2030 08c0 21       		.uleb128 0x21
 2031 08c1 90050000 		.4byte	.LASF135
 2032 08c5 04       		.byte	0x4
 2033 08c6 A401     		.2byte	0x1a4
 2034 08c8 36010000 		.4byte	0x136
 2035 08cc 21       		.uleb128 0x21
 2036 08cd 6B070000 		.4byte	.LASF136
 2037 08d1 04       		.byte	0x4
 2038 08d2 A501     		.2byte	0x1a5
 2039 08d4 1D030000 		.4byte	0x31d
 2040 08d8 1B       		.uleb128 0x1b
 2041 08d9 70617200 		.ascii	"par\000"
 2042 08dd 04       		.byte	0x4
 2043 08de A501     		.2byte	0x1a5
 2044 08e0 39030000 		.4byte	0x339
 2045 08e4 00       		.byte	0
 2046 08e5 22       		.uleb128 0x22
 2047 08e6 06060000 		.4byte	.LASF137
 2048 08ea 01       		.byte	0x1
 2049 08eb E7       		.byte	0xe7
 2050 08ec 00000000 		.4byte	.LFB260
 2051 08f0 70000000 		.4byte	.LFE260-.LFB260
 2052 08f4 01       		.uleb128 0x1
 2053 08f5 9C       		.byte	0x9c
 2054 08f6 60090000 		.4byte	0x960
 2055 08fa 23       		.uleb128 0x23
 2056 08fb 61726700 		.ascii	"arg\000"
 2057 08ff 01       		.byte	0x1
 2058 0900 E7       		.byte	0xe7
 2059 0901 39030000 		.4byte	0x339
 2060 0905 00000000 		.4byte	.LLST0
 2061 0909 24       		.uleb128 0x24
 2062 090a 1E080000 		.4byte	0x81e
 2063 090e 00000000 		.4byte	.LBB71
 2064 0912 00000000 		.4byte	.Ldebug_ranges0+0
 2065 0916 01       		.byte	0x1
 2066 0917 EA       		.byte	0xea
 2067 0918 29090000 		.4byte	0x929
 2068 091c 25       		.uleb128 0x25
 2069 091d 2A080000 		.4byte	0x82a
 2070 0921 06       		.uleb128 0x6
 2071 0922 03       		.byte	0x3
 2072 0923 00000000 		.4byte	.LC0
 2073 0927 9F       		.byte	0x9f
 2074 0928 00       		.byte	0
 2075 0929 26       		.uleb128 0x26
 2076 092a 20000000 		.4byte	.LVL2
 2077 092e 03110000 		.4byte	0x1103
 2078 0932 3C090000 		.4byte	0x93c
ARM GAS  /tmp/ccWx56sG.s 			page 38


 2079 0936 27       		.uleb128 0x27
 2080 0937 01       		.uleb128 0x1
 2081 0938 50       		.byte	0x50
 2082 0939 01       		.uleb128 0x1
 2083 093a 31       		.byte	0x31
 2084 093b 00       		.byte	0
 2085 093c 26       		.uleb128 0x26
 2086 093d 3C000000 		.4byte	.LVL3
 2087 0941 18110000 		.4byte	0x1118
 2088 0945 50090000 		.4byte	0x950
 2089 0949 27       		.uleb128 0x27
 2090 094a 01       		.uleb128 0x1
 2091 094b 50       		.byte	0x50
 2092 094c 02       		.uleb128 0x2
 2093 094d 09       		.byte	0x9
 2094 094e FF       		.byte	0xff
 2095 094f 00       		.byte	0
 2096 0950 28       		.uleb128 0x28
 2097 0951 42000000 		.4byte	.LVL4
 2098 0955 3D110000 		.4byte	0x113d
 2099 0959 27       		.uleb128 0x27
 2100 095a 01       		.uleb128 0x1
 2101 095b 50       		.byte	0x50
 2102 095c 01       		.uleb128 0x1
 2103 095d 31       		.byte	0x31
 2104 095e 00       		.byte	0
 2105 095f 00       		.byte	0
 2106 0960 22       		.uleb128 0x22
 2107 0961 E0020000 		.4byte	.LASF138
 2108 0965 01       		.byte	0x1
 2109 0966 A5       		.byte	0xa5
 2110 0967 00000000 		.4byte	.LFB259
 2111 096b D4000000 		.4byte	.LFE259-.LFB259
 2112 096f 01       		.uleb128 0x1
 2113 0970 9C       		.byte	0x9c
 2114 0971 290B0000 		.4byte	0xb29
 2115 0975 23       		.uleb128 0x23
 2116 0976 61726700 		.ascii	"arg\000"
 2117 097a 01       		.byte	0x1
 2118 097b A5       		.byte	0xa5
 2119 097c 39030000 		.4byte	0x339
 2120 0980 21000000 		.4byte	.LLST1
 2121 0984 29       		.uleb128 0x29
 2122 0985 1E080000 		.4byte	0x81e
 2123 0989 04000000 		.4byte	.LBB77
 2124 098d 0C000000 		.4byte	.LBE77-.LBB77
 2125 0991 01       		.byte	0x1
 2126 0992 A8       		.byte	0xa8
 2127 0993 A4090000 		.4byte	0x9a4
 2128 0997 25       		.uleb128 0x25
 2129 0998 2A080000 		.4byte	0x82a
 2130 099c 06       		.uleb128 0x6
 2131 099d 03       		.byte	0x3
 2132 099e 0C000000 		.4byte	.LC1
 2133 09a2 9F       		.byte	0x9f
 2134 09a3 00       		.byte	0
 2135 09a4 2A       		.uleb128 0x2a
ARM GAS  /tmp/ccWx56sG.s 			page 39


 2136 09a5 20000000 		.4byte	.Ldebug_ranges0+0x20
 2137 09a9 0C0B0000 		.4byte	0xb0c
 2138 09ad 2B       		.uleb128 0x2b
 2139 09ae 62756600 		.ascii	"buf\000"
 2140 09b2 01       		.byte	0x1
 2141 09b3 AC       		.byte	0xac
 2142 09b4 290B0000 		.4byte	0xb29
 2143 09b8 05       		.uleb128 0x5
 2144 09b9 03       		.byte	0x3
 2145 09ba 00000000 		.4byte	buf.8601
 2146 09be 2C       		.uleb128 0x2c
 2147 09bf 6C656E00 		.ascii	"len\000"
 2148 09c3 01       		.byte	0x1
 2149 09c4 AD       		.byte	0xad
 2150 09c5 37000000 		.4byte	0x37
 2151 09c9 42000000 		.4byte	.LLST2
 2152 09cd 2C       		.uleb128 0x2c
 2153 09ce 696E6400 		.ascii	"ind\000"
 2154 09d2 01       		.byte	0x1
 2155 09d3 AE       		.byte	0xae
 2156 09d4 37000000 		.4byte	0x37
 2157 09d8 84000000 		.4byte	.LLST3
 2158 09dc 2D       		.uleb128 0x2d
 2159 09dd 80040000 		.4byte	.LASF139
 2160 09e1 01       		.byte	0x1
 2161 09e2 B1       		.byte	0xb1
 2162 09e3 54070000 		.4byte	0x754
 2163 09e7 C8000000 		.4byte	.LLST4
 2164 09eb 2E       		.uleb128 0x2e
 2165 09ec 4C000000 		.4byte	.LBB80
 2166 09f0 3E000000 		.4byte	.LBE80-.LBB80
 2167 09f4 6D0A0000 		.4byte	0xa6d
 2168 09f8 2D       		.uleb128 0x2d
 2169 09f9 91030000 		.4byte	.LASF140
 2170 09fd 01       		.byte	0x1
 2171 09fe C5       		.byte	0xc5
 2172 09ff 25000000 		.4byte	0x25
 2173 0a03 E6000000 		.4byte	.LLST5
 2174 0a07 2D       		.uleb128 0x2d
 2175 0a08 25060000 		.4byte	.LASF141
 2176 0a0c 01       		.byte	0x1
 2177 0a0d CC       		.byte	0xcc
 2178 0a0e A2000000 		.4byte	0xa2
 2179 0a12 10010000 		.4byte	.LLST6
 2180 0a16 2D       		.uleb128 0x2d
 2181 0a17 11030000 		.4byte	.LASF142
 2182 0a1b 01       		.byte	0x1
 2183 0a1c CD       		.byte	0xcd
 2184 0a1d A2000000 		.4byte	0xa2
 2185 0a21 23010000 		.4byte	.LLST7
 2186 0a25 26       		.uleb128 0x26
 2187 0a26 70000000 		.4byte	.LVL21
 2188 0a2a 4E110000 		.4byte	0x114e
 2189 0a2e 3C0A0000 		.4byte	0xa3c
 2190 0a32 27       		.uleb128 0x27
 2191 0a33 01       		.uleb128 0x1
 2192 0a34 51       		.byte	0x51
ARM GAS  /tmp/ccWx56sG.s 			page 40


 2193 0a35 05       		.uleb128 0x5
 2194 0a36 03       		.byte	0x3
 2195 0a37 05000000 		.4byte	.LANCHOR5+5
 2196 0a3b 00       		.byte	0
 2197 0a3c 26       		.uleb128 0x26
 2198 0a3d 78000000 		.4byte	.LVL22
 2199 0a41 72110000 		.4byte	0x1172
 2200 0a45 560A0000 		.4byte	0xa56
 2201 0a49 27       		.uleb128 0x27
 2202 0a4a 01       		.uleb128 0x1
 2203 0a4b 51       		.byte	0x51
 2204 0a4c 02       		.uleb128 0x2
 2205 0a4d 74       		.byte	0x74
 2206 0a4e 00       		.sleb128 0
 2207 0a4f 27       		.uleb128 0x27
 2208 0a50 01       		.uleb128 0x1
 2209 0a51 50       		.byte	0x50
 2210 0a52 02       		.uleb128 0x2
 2211 0a53 77       		.byte	0x77
 2212 0a54 00       		.sleb128 0
 2213 0a55 00       		.byte	0
 2214 0a56 28       		.uleb128 0x28
 2215 0a57 88000000 		.4byte	.LVL24
 2216 0a5b 8C110000 		.4byte	0x118c
 2217 0a5f 27       		.uleb128 0x27
 2218 0a60 01       		.uleb128 0x1
 2219 0a61 51       		.byte	0x51
 2220 0a62 02       		.uleb128 0x2
 2221 0a63 74       		.byte	0x74
 2222 0a64 00       		.sleb128 0
 2223 0a65 27       		.uleb128 0x27
 2224 0a66 01       		.uleb128 0x1
 2225 0a67 50       		.byte	0x50
 2226 0a68 02       		.uleb128 0x2
 2227 0a69 77       		.byte	0x77
 2228 0a6a 00       		.sleb128 0
 2229 0a6b 00       		.byte	0
 2230 0a6c 00       		.byte	0
 2231 0a6d 2E       		.uleb128 0x2e
 2232 0a6e 8A000000 		.4byte	.LBB81
 2233 0a72 1A000000 		.4byte	.LBE81-.LBB81
 2234 0a76 A30A0000 		.4byte	0xaa3
 2235 0a7a 2D       		.uleb128 0x2d
 2236 0a7b 3E010000 		.4byte	.LASF143
 2237 0a7f 01       		.byte	0x1
 2238 0a80 BB       		.byte	0xbb
 2239 0a81 25000000 		.4byte	0x25
 2240 0a85 36010000 		.4byte	.LLST8
 2241 0a89 28       		.uleb128 0x28
 2242 0a8a A2000000 		.4byte	.LVL29
 2243 0a8e 4E110000 		.4byte	0x114e
 2244 0a92 27       		.uleb128 0x27
 2245 0a93 01       		.uleb128 0x1
 2246 0a94 52       		.byte	0x52
 2247 0a95 02       		.uleb128 0x2
 2248 0a96 76       		.byte	0x76
 2249 0a97 7D       		.sleb128 -3
ARM GAS  /tmp/ccWx56sG.s 			page 41


 2250 0a98 27       		.uleb128 0x27
 2251 0a99 01       		.uleb128 0x1
 2252 0a9a 51       		.byte	0x51
 2253 0a9b 05       		.uleb128 0x5
 2254 0a9c 03       		.byte	0x3
 2255 0a9d 03000000 		.4byte	.LANCHOR5+3
 2256 0aa1 00       		.byte	0
 2257 0aa2 00       		.byte	0
 2258 0aa3 26       		.uleb128 0x26
 2259 0aa4 2C000000 		.4byte	.LVL10
 2260 0aa8 A2110000 		.4byte	0x11a2
 2261 0aac C20A0000 		.4byte	0xac2
 2262 0ab0 27       		.uleb128 0x27
 2263 0ab1 01       		.uleb128 0x1
 2264 0ab2 52       		.byte	0x52
 2265 0ab3 01       		.uleb128 0x1
 2266 0ab4 30       		.byte	0x30
 2267 0ab5 27       		.uleb128 0x27
 2268 0ab6 01       		.uleb128 0x1
 2269 0ab7 51       		.byte	0x51
 2270 0ab8 02       		.uleb128 0x2
 2271 0ab9 09       		.byte	0x9
 2272 0aba 82       		.byte	0x82
 2273 0abb 27       		.uleb128 0x27
 2274 0abc 01       		.uleb128 0x1
 2275 0abd 50       		.byte	0x50
 2276 0abe 02       		.uleb128 0x2
 2277 0abf 75       		.byte	0x75
 2278 0ac0 00       		.sleb128 0
 2279 0ac1 00       		.byte	0
 2280 0ac2 26       		.uleb128 0x26
 2281 0ac3 36000000 		.4byte	.LVL13
 2282 0ac7 3D110000 		.4byte	0x113d
 2283 0acb D50A0000 		.4byte	0xad5
 2284 0acf 27       		.uleb128 0x27
 2285 0ad0 01       		.uleb128 0x1
 2286 0ad1 50       		.byte	0x50
 2287 0ad2 01       		.uleb128 0x1
 2288 0ad3 30       		.byte	0x30
 2289 0ad4 00       		.byte	0
 2290 0ad5 26       		.uleb128 0x26
 2291 0ad6 4A000000 		.4byte	.LVL14
 2292 0ada 8C110000 		.4byte	0x118c
 2293 0ade F20A0000 		.4byte	0xaf2
 2294 0ae2 27       		.uleb128 0x27
 2295 0ae3 01       		.uleb128 0x1
 2296 0ae4 51       		.byte	0x51
 2297 0ae5 02       		.uleb128 0x2
 2298 0ae6 76       		.byte	0x76
 2299 0ae7 7F       		.sleb128 -1
 2300 0ae8 27       		.uleb128 0x27
 2301 0ae9 01       		.uleb128 0x1
 2302 0aea 50       		.byte	0x50
 2303 0aeb 05       		.uleb128 0x5
 2304 0aec 03       		.byte	0x3
 2305 0aed 01000000 		.4byte	.LANCHOR5+1
 2306 0af1 00       		.byte	0
ARM GAS  /tmp/ccWx56sG.s 			page 42


 2307 0af2 28       		.uleb128 0x28
 2308 0af3 B0000000 		.4byte	.LVL30
 2309 0af7 4E110000 		.4byte	0x114e
 2310 0afb 27       		.uleb128 0x27
 2311 0afc 01       		.uleb128 0x1
 2312 0afd 52       		.byte	0x52
 2313 0afe 02       		.uleb128 0x2
 2314 0aff 76       		.byte	0x76
 2315 0b00 7E       		.sleb128 -2
 2316 0b01 27       		.uleb128 0x27
 2317 0b02 01       		.uleb128 0x1
 2318 0b03 51       		.byte	0x51
 2319 0b04 05       		.uleb128 0x5
 2320 0b05 03       		.byte	0x3
 2321 0b06 02000000 		.4byte	.LANCHOR5+2
 2322 0b0a 00       		.byte	0
 2323 0b0b 00       		.byte	0
 2324 0b0c 26       		.uleb128 0x26
 2325 0b0d 1A000000 		.4byte	.LVL7
 2326 0b11 C7110000 		.4byte	0x11c7
 2327 0b15 1F0B0000 		.4byte	0xb1f
 2328 0b19 27       		.uleb128 0x27
 2329 0b1a 01       		.uleb128 0x1
 2330 0b1b 50       		.byte	0x50
 2331 0b1c 01       		.uleb128 0x1
 2332 0b1d 31       		.byte	0x31
 2333 0b1e 00       		.byte	0
 2334 0b1f 2F       		.uleb128 0x2f
 2335 0b20 1E000000 		.4byte	.LVL8
 2336 0b24 D8110000 		.4byte	0x11d8
 2337 0b28 00       		.byte	0
 2338 0b29 15       		.uleb128 0x15
 2339 0b2a A2000000 		.4byte	0xa2
 2340 0b2e 390B0000 		.4byte	0xb39
 2341 0b32 16       		.uleb128 0x16
 2342 0b33 6F040000 		.4byte	0x46f
 2343 0b37 81       		.byte	0x81
 2344 0b38 00       		.byte	0
 2345 0b39 22       		.uleb128 0x22
 2346 0b3a 2D040000 		.4byte	.LASF144
 2347 0b3e 01       		.byte	0x1
 2348 0b3f FD       		.byte	0xfd
 2349 0b40 00000000 		.4byte	.LFB261
 2350 0b44 18000000 		.4byte	.LFE261-.LFB261
 2351 0b48 01       		.uleb128 0x1
 2352 0b49 9C       		.byte	0x9c
 2353 0b4a F90B0000 		.4byte	0xbf9
 2354 0b4e 23       		.uleb128 0x23
 2355 0b4f 7000     		.ascii	"p\000"
 2356 0b51 01       		.byte	0x1
 2357 0b52 FD       		.byte	0xfd
 2358 0b53 39030000 		.4byte	0x339
 2359 0b57 72010000 		.4byte	.LLST9
 2360 0b5b 30       		.uleb128 0x30
 2361 0b5c 42080000 		.4byte	0x842
 2362 0b60 02000000 		.4byte	.LBB83
 2363 0b64 02000000 		.4byte	.LBE83-.LBB83
ARM GAS  /tmp/ccWx56sG.s 			page 43


 2364 0b68 01       		.byte	0x1
 2365 0b69 0001     		.2byte	0x100
 2366 0b6b A20B0000 		.4byte	0xba2
 2367 0b6f 31       		.uleb128 0x31
 2368 0b70 EE070000 		.4byte	0x7ee
 2369 0b74 02000000 		.4byte	.LBB84
 2370 0b78 02000000 		.4byte	.LBE84-.LBB84
 2371 0b7c 14       		.byte	0x14
 2372 0b7d 8401     		.2byte	0x184
 2373 0b7f 31       		.uleb128 0x31
 2374 0b80 DC070000 		.4byte	0x7dc
 2375 0b84 02000000 		.4byte	.LBB85
 2376 0b88 02000000 		.4byte	.LBE85-.LBB85
 2377 0b8c 0C       		.byte	0xc
 2378 0b8d DB01     		.2byte	0x1db
 2379 0b8f 32       		.uleb128 0x32
 2380 0b90 CA070000 		.4byte	0x7ca
 2381 0b94 02000000 		.4byte	.LBB86
 2382 0b98 02000000 		.4byte	.LBE86-.LBB86
 2383 0b9c 0C       		.byte	0xc
 2384 0b9d C101     		.2byte	0x1c1
 2385 0b9f 00       		.byte	0
 2386 0ba0 00       		.byte	0
 2387 0ba1 00       		.byte	0
 2388 0ba2 30       		.uleb128 0x30
 2389 0ba3 4B080000 		.4byte	0x84b
 2390 0ba7 0E000000 		.4byte	.LBB88
 2391 0bab 0A000000 		.4byte	.LBE88-.LBB88
 2392 0baf 01       		.byte	0x1
 2393 0bb0 0201     		.2byte	0x102
 2394 0bb2 E90B0000 		.4byte	0xbe9
 2395 0bb6 31       		.uleb128 0x31
 2396 0bb7 F7070000 		.4byte	0x7f7
 2397 0bbb 0E000000 		.4byte	.LBB89
 2398 0bbf 0A000000 		.4byte	.LBE89-.LBB89
 2399 0bc3 14       		.byte	0x14
 2400 0bc4 9A01     		.2byte	0x19a
 2401 0bc6 31       		.uleb128 0x31
 2402 0bc7 E5070000 		.4byte	0x7e5
 2403 0bcb 0E000000 		.4byte	.LBB90
 2404 0bcf 0A000000 		.4byte	.LBE90-.LBB90
 2405 0bd3 0C       		.byte	0xc
 2406 0bd4 E601     		.2byte	0x1e6
 2407 0bd6 32       		.uleb128 0x32
 2408 0bd7 D3070000 		.4byte	0x7d3
 2409 0bdb 0E000000 		.4byte	.LBB91
 2410 0bdf 0A000000 		.4byte	.LBE91-.LBB91
 2411 0be3 0C       		.byte	0xc
 2412 0be4 CF01     		.2byte	0x1cf
 2413 0be6 00       		.byte	0
 2414 0be7 00       		.byte	0
 2415 0be8 00       		.byte	0
 2416 0be9 28       		.uleb128 0x28
 2417 0bea 0E000000 		.4byte	.LVL33
 2418 0bee E3110000 		.4byte	0x11e3
 2419 0bf2 27       		.uleb128 0x27
 2420 0bf3 01       		.uleb128 0x1
ARM GAS  /tmp/ccWx56sG.s 			page 44


 2421 0bf4 51       		.byte	0x51
 2422 0bf5 01       		.uleb128 0x1
 2423 0bf6 31       		.byte	0x31
 2424 0bf7 00       		.byte	0
 2425 0bf8 00       		.byte	0
 2426 0bf9 33       		.uleb128 0x33
 2427 0bfa 74020000 		.4byte	.LASF145
 2428 0bfe 01       		.byte	0x1
 2429 0bff 35       		.byte	0x35
 2430 0c00 00000000 		.4byte	.LFB256
 2431 0c04 74000000 		.4byte	.LFE256-.LFB256
 2432 0c08 01       		.uleb128 0x1
 2433 0c09 9C       		.byte	0x9c
 2434 0c0a 9C0C0000 		.4byte	0xc9c
 2435 0c0e 2F       		.uleb128 0x2f
 2436 0c0f 12000000 		.4byte	.LVL34
 2437 0c13 F9110000 		.4byte	0x11f9
 2438 0c17 26       		.uleb128 0x26
 2439 0c18 2A000000 		.4byte	.LVL35
 2440 0c1c 00120000 		.4byte	0x1200
 2441 0c20 2E0C0000 		.4byte	0xc2e
 2442 0c24 27       		.uleb128 0x27
 2443 0c25 01       		.uleb128 0x1
 2444 0c26 50       		.byte	0x50
 2445 0c27 05       		.uleb128 0x5
 2446 0c28 03       		.byte	0x3
 2447 0c29 00000000 		.4byte	.LANCHOR7
 2448 0c2d 00       		.byte	0
 2449 0c2e 2F       		.uleb128 0x2f
 2450 0c2f 34000000 		.4byte	.LVL36
 2451 0c33 1B120000 		.4byte	0x121b
 2452 0c37 26       		.uleb128 0x26
 2453 0c38 44000000 		.4byte	.LVL37
 2454 0c3c 22120000 		.4byte	0x1222
 2455 0c40 6B0C0000 		.4byte	0xc6b
 2456 0c44 27       		.uleb128 0x27
 2457 0c45 01       		.uleb128 0x1
 2458 0c46 53       		.byte	0x53
 2459 0c47 05       		.uleb128 0x5
 2460 0c48 03       		.byte	0x3
 2461 0c49 00000000 		.4byte	rx_thread
 2462 0c4d 27       		.uleb128 0x27
 2463 0c4e 01       		.uleb128 0x1
 2464 0c4f 52       		.byte	0x52
 2465 0c50 02       		.uleb128 0x2
 2466 0c51 08       		.byte	0x8
 2467 0c52 40       		.byte	0x40
 2468 0c53 27       		.uleb128 0x27
 2469 0c54 01       		.uleb128 0x1
 2470 0c55 51       		.byte	0x51
 2471 0c56 03       		.uleb128 0x3
 2472 0c57 0A       		.byte	0xa
 2473 0c58 9809     		.2byte	0x998
 2474 0c5a 27       		.uleb128 0x27
 2475 0c5b 01       		.uleb128 0x1
 2476 0c5c 50       		.byte	0x50
 2477 0c5d 05       		.uleb128 0x5
ARM GAS  /tmp/ccWx56sG.s 			page 45


 2478 0c5e 03       		.byte	0x3
 2479 0c5f 00000000 		.4byte	.LANCHOR8
 2480 0c63 27       		.uleb128 0x27
 2481 0c64 02       		.uleb128 0x2
 2482 0c65 7D       		.byte	0x7d
 2483 0c66 00       		.sleb128 0
 2484 0c67 02       		.uleb128 0x2
 2485 0c68 74       		.byte	0x74
 2486 0c69 00       		.sleb128 0
 2487 0c6a 00       		.byte	0
 2488 0c6b 28       		.uleb128 0x28
 2489 0c6c 54000000 		.4byte	.LVL38
 2490 0c70 22120000 		.4byte	0x1222
 2491 0c74 27       		.uleb128 0x27
 2492 0c75 01       		.uleb128 0x1
 2493 0c76 53       		.byte	0x53
 2494 0c77 05       		.uleb128 0x5
 2495 0c78 03       		.byte	0x3
 2496 0c79 00000000 		.4byte	tx_thread
 2497 0c7d 27       		.uleb128 0x27
 2498 0c7e 01       		.uleb128 0x1
 2499 0c7f 52       		.byte	0x52
 2500 0c80 02       		.uleb128 0x2
 2501 0c81 08       		.byte	0x8
 2502 0c82 40       		.byte	0x40
 2503 0c83 27       		.uleb128 0x27
 2504 0c84 01       		.uleb128 0x1
 2505 0c85 51       		.byte	0x51
 2506 0c86 03       		.uleb128 0x3
 2507 0c87 0A       		.byte	0xa
 2508 0c88 9803     		.2byte	0x398
 2509 0c8a 27       		.uleb128 0x27
 2510 0c8b 01       		.uleb128 0x1
 2511 0c8c 50       		.byte	0x50
 2512 0c8d 05       		.uleb128 0x5
 2513 0c8e 03       		.byte	0x3
 2514 0c8f 00000000 		.4byte	.LANCHOR9
 2515 0c93 27       		.uleb128 0x27
 2516 0c94 02       		.uleb128 0x2
 2517 0c95 7D       		.byte	0x7d
 2518 0c96 00       		.sleb128 0
 2519 0c97 02       		.uleb128 0x2
 2520 0c98 74       		.byte	0x74
 2521 0c99 00       		.sleb128 0
 2522 0c9a 00       		.byte	0
 2523 0c9b 00       		.byte	0
 2524 0c9c 33       		.uleb128 0x33
 2525 0c9d 5D020000 		.4byte	.LASF146
 2526 0ca1 01       		.byte	0x1
 2527 0ca2 95       		.byte	0x95
 2528 0ca3 00000000 		.4byte	.LFB258
 2529 0ca7 54000000 		.4byte	.LFE258-.LFB258
 2530 0cab 01       		.uleb128 0x1
 2531 0cac 9C       		.byte	0x9c
 2532 0cad C00D0000 		.4byte	0xdc0
 2533 0cb1 34       		.uleb128 0x34
 2534 0cb2 98020000 		.4byte	.LASF147
ARM GAS  /tmp/ccWx56sG.s 			page 46


 2535 0cb6 01       		.byte	0x1
 2536 0cb7 95       		.byte	0x95
 2537 0cb8 1F070000 		.4byte	0x71f
 2538 0cbc 93010000 		.4byte	.LLST10
 2539 0cc0 23       		.uleb128 0x23
 2540 0cc1 6C656E00 		.ascii	"len\000"
 2541 0cc5 01       		.byte	0x1
 2542 0cc6 95       		.byte	0x95
 2543 0cc7 A2000000 		.4byte	0xa2
 2544 0ccb BF010000 		.4byte	.LLST11
 2545 0ccf 29       		.uleb128 0x29
 2546 0cd0 6E080000 		.4byte	0x86e
 2547 0cd4 28000000 		.4byte	.LBB106
 2548 0cd8 04000000 		.4byte	.LBE106-.LBB106
 2549 0cdc 01       		.byte	0x1
 2550 0cdd 9E       		.byte	0x9e
 2551 0cde 040D0000 		.4byte	0xd04
 2552 0ce2 31       		.uleb128 0x31
 2553 0ce3 DC070000 		.4byte	0x7dc
 2554 0ce7 28000000 		.4byte	.LBB107
 2555 0ceb 04000000 		.4byte	.LBE107-.LBB107
 2556 0cef 14       		.byte	0x14
 2557 0cf0 5C01     		.2byte	0x15c
 2558 0cf2 32       		.uleb128 0x32
 2559 0cf3 CA070000 		.4byte	0x7ca
 2560 0cf7 28000000 		.4byte	.LBB108
 2561 0cfb 04000000 		.4byte	.LBE108-.LBB108
 2562 0cff 0C       		.byte	0xc
 2563 0d00 C101     		.2byte	0x1c1
 2564 0d02 00       		.byte	0
 2565 0d03 00       		.byte	0
 2566 0d04 24       		.uleb128 0x24
 2567 0d05 77080000 		.4byte	0x877
 2568 0d09 30000000 		.4byte	.LBB110
 2569 0d0d 38000000 		.4byte	.Ldebug_ranges0+0x38
 2570 0d11 01       		.byte	0x1
 2571 0d12 A2       		.byte	0xa2
 2572 0d13 440D0000 		.4byte	0xd44
 2573 0d17 35       		.uleb128 0x35
 2574 0d18 38000000 		.4byte	.Ldebug_ranges0+0x38
 2575 0d1c 36       		.uleb128 0x36
 2576 0d1d 84080000 		.4byte	0x884
 2577 0d21 37       		.uleb128 0x37
 2578 0d22 E5070000 		.4byte	0x7e5
 2579 0d26 30000000 		.4byte	.LBB112
 2580 0d2a 38000000 		.4byte	.Ldebug_ranges0+0x38
 2581 0d2e 14       		.byte	0x14
 2582 0d2f 7301     		.2byte	0x173
 2583 0d31 38       		.uleb128 0x38
 2584 0d32 D3070000 		.4byte	0x7d3
 2585 0d36 30000000 		.4byte	.LBB113
 2586 0d3a 38000000 		.4byte	.Ldebug_ranges0+0x38
 2587 0d3e 0C       		.byte	0xc
 2588 0d3f CF01     		.2byte	0x1cf
 2589 0d41 00       		.byte	0
 2590 0d42 00       		.byte	0
 2591 0d43 00       		.byte	0
ARM GAS  /tmp/ccWx56sG.s 			page 47


 2592 0d44 29       		.uleb128 0x29
 2593 0d45 A7080000 		.4byte	0x8a7
 2594 0d49 34000000 		.4byte	.LBB119
 2595 0d4d 08000000 		.4byte	.LBE119-.LBB119
 2596 0d51 01       		.byte	0x1
 2597 0d52 A0       		.byte	0xa0
 2598 0d53 950D0000 		.4byte	0xd95
 2599 0d57 25       		.uleb128 0x25
 2600 0d58 B4080000 		.4byte	0x8b4
 2601 0d5c 06       		.uleb128 0x6
 2602 0d5d 03       		.byte	0x3
 2603 0d5e 00000000 		.4byte	vt
 2604 0d62 9F       		.byte	0x9f
 2605 0d63 39       		.uleb128 0x39
 2606 0d64 C0080000 		.4byte	0x8c0
 2607 0d68 32       		.byte	0x32
 2608 0d69 25       		.uleb128 0x25
 2609 0d6a CC080000 		.4byte	0x8cc
 2610 0d6e 06       		.uleb128 0x6
 2611 0d6f 03       		.byte	0x3
 2612 0d70 00000000 		.4byte	wakeup_tx
 2613 0d74 9F       		.byte	0x9f
 2614 0d75 39       		.uleb128 0x39
 2615 0d76 D8080000 		.4byte	0x8d8
 2616 0d7a 00       		.byte	0
 2617 0d7b 28       		.uleb128 0x28
 2618 0d7c 3C000000 		.4byte	.LVL45
 2619 0d80 4B120000 		.4byte	0x124b
 2620 0d84 27       		.uleb128 0x27
 2621 0d85 01       		.uleb128 0x1
 2622 0d86 52       		.byte	0x52
 2623 0d87 05       		.uleb128 0x5
 2624 0d88 03       		.byte	0x3
 2625 0d89 00000000 		.4byte	wakeup_tx
 2626 0d8d 27       		.uleb128 0x27
 2627 0d8e 01       		.uleb128 0x1
 2628 0d8f 51       		.byte	0x51
 2629 0d90 02       		.uleb128 0x2
 2630 0d91 08       		.byte	0x8
 2631 0d92 32       		.byte	0x32
 2632 0d93 00       		.byte	0
 2633 0d94 00       		.byte	0
 2634 0d95 28       		.uleb128 0x28
 2635 0d96 1A000000 		.4byte	.LVL42
 2636 0d9a 4E110000 		.4byte	0x114e
 2637 0d9e 27       		.uleb128 0x27
 2638 0d9f 01       		.uleb128 0x1
 2639 0da0 52       		.byte	0x52
 2640 0da1 02       		.uleb128 0x2
 2641 0da2 76       		.byte	0x76
 2642 0da3 00       		.sleb128 0
 2643 0da4 27       		.uleb128 0x27
 2644 0da5 01       		.uleb128 0x1
 2645 0da6 51       		.byte	0x51
 2646 0da7 03       		.uleb128 0x3
 2647 0da8 F3       		.byte	0xf3
 2648 0da9 01       		.uleb128 0x1
ARM GAS  /tmp/ccWx56sG.s 			page 48


 2649 0daa 50       		.byte	0x50
 2650 0dab 27       		.uleb128 0x27
 2651 0dac 01       		.uleb128 0x1
 2652 0dad 50       		.byte	0x50
 2653 0dae 0F       		.uleb128 0xf
 2654 0daf 74       		.byte	0x74
 2655 0db0 00       		.sleb128 0
 2656 0db1 36       		.byte	0x36
 2657 0db2 24       		.byte	0x24
 2658 0db3 74       		.byte	0x74
 2659 0db4 00       		.sleb128 0
 2660 0db5 22       		.byte	0x22
 2661 0db6 31       		.byte	0x31
 2662 0db7 24       		.byte	0x24
 2663 0db8 03       		.byte	0x3
 2664 0db9 00000000 		.4byte	.LANCHOR1
 2665 0dbd 22       		.byte	0x22
 2666 0dbe 00       		.byte	0
 2667 0dbf 00       		.byte	0
 2668 0dc0 33       		.uleb128 0x33
 2669 0dc1 A6040000 		.4byte	.LASF148
 2670 0dc5 01       		.byte	0x1
 2671 0dc6 4F       		.byte	0x4f
 2672 0dc7 00000000 		.4byte	.LFB257
 2673 0dcb 28010000 		.4byte	.LFE257-.LFB257
 2674 0dcf 01       		.uleb128 0x1
 2675 0dd0 9C       		.byte	0x9c
 2676 0dd1 DB0F0000 		.4byte	0xfdb
 2677 0dd5 34       		.uleb128 0x34
 2678 0dd6 98020000 		.4byte	.LASF147
 2679 0dda 01       		.byte	0x1
 2680 0ddb 4F       		.byte	0x4f
 2681 0ddc 1F070000 		.4byte	0x71f
 2682 0de0 E0010000 		.4byte	.LLST12
 2683 0de4 23       		.uleb128 0x23
 2684 0de5 6C656E00 		.ascii	"len\000"
 2685 0de9 01       		.byte	0x1
 2686 0dea 4F       		.byte	0x4f
 2687 0deb 37000000 		.4byte	0x37
 2688 0def 14020000 		.4byte	.LLST13
 2689 0df3 3A       		.uleb128 0x3a
 2690 0df4 FF000000 		.4byte	.LASF149
 2691 0df8 01       		.byte	0x1
 2692 0df9 50       		.byte	0x50
 2693 0dfa DB0F0000 		.4byte	0xfdb
 2694 0dfe 03       		.uleb128 0x3
 2695 0dff 91       		.byte	0x91
 2696 0e00 E87E     		.sleb128 -152
 2697 0e02 2A       		.uleb128 0x2a
 2698 0e03 50000000 		.4byte	.Ldebug_ranges0+0x50
 2699 0e07 8A0F0000 		.4byte	0xf8a
 2700 0e0b 2D       		.uleb128 0x2d
 2701 0e0c 10040000 		.4byte	.LASF150
 2702 0e10 01       		.byte	0x1
 2703 0e11 59       		.byte	0x59
 2704 0e12 37000000 		.4byte	0x37
 2705 0e16 48020000 		.4byte	.LLST14
ARM GAS  /tmp/ccWx56sG.s 			page 49


 2706 0e1a 2D       		.uleb128 0x2d
 2707 0e1b FA080000 		.4byte	.LASF151
 2708 0e1f 01       		.byte	0x1
 2709 0e20 5A       		.byte	0x5a
 2710 0e21 37000000 		.4byte	0x37
 2711 0e25 72020000 		.4byte	.LLST15
 2712 0e29 2C       		.uleb128 0x2c
 2713 0e2a 696E6400 		.ascii	"ind\000"
 2714 0e2e 01       		.byte	0x1
 2715 0e2f 81       		.byte	0x81
 2716 0e30 B8000000 		.4byte	0xb8
 2717 0e34 90020000 		.4byte	.LLST16
 2718 0e38 2C       		.uleb128 0x2c
 2719 0e39 63726300 		.ascii	"crc\000"
 2720 0e3d 01       		.byte	0x1
 2721 0e3e 85       		.byte	0x85
 2722 0e3f 5E000000 		.4byte	0x5e
 2723 0e43 E1020000 		.4byte	.LLST17
 2724 0e47 2A       		.uleb128 0x2a
 2725 0e48 68000000 		.4byte	.Ldebug_ranges0+0x68
 2726 0e4c C80E0000 		.4byte	0xec8
 2727 0e50 2C       		.uleb128 0x2c
 2728 0e51 6900     		.ascii	"i\000"
 2729 0e53 01       		.byte	0x1
 2730 0e54 5C       		.byte	0x5c
 2731 0e55 37000000 		.4byte	0x37
 2732 0e59 F4020000 		.4byte	.LLST18
 2733 0e5d 35       		.uleb128 0x35
 2734 0e5e 80000000 		.4byte	.Ldebug_ranges0+0x80
 2735 0e62 2D       		.uleb128 0x2d
 2736 0e63 89020000 		.4byte	.LASF152
 2737 0e67 01       		.byte	0x1
 2738 0e68 63       		.byte	0x63
 2739 0e69 A2000000 		.4byte	0xa2
 2740 0e6d 45030000 		.4byte	.LLST19
 2741 0e71 26       		.uleb128 0x26
 2742 0e72 3E000000 		.4byte	.LVL51
 2743 0e76 4E110000 		.4byte	0x114e
 2744 0e7a 920E0000 		.4byte	0xe92
 2745 0e7e 27       		.uleb128 0x27
 2746 0e7f 01       		.uleb128 0x1
 2747 0e80 52       		.byte	0x52
 2748 0e81 02       		.uleb128 0x2
 2749 0e82 08       		.byte	0x8
 2750 0e83 6C       		.byte	0x6c
 2751 0e84 27       		.uleb128 0x27
 2752 0e85 01       		.uleb128 0x1
 2753 0e86 51       		.byte	0x51
 2754 0e87 02       		.uleb128 0x2
 2755 0e88 78       		.byte	0x78
 2756 0e89 00       		.sleb128 0
 2757 0e8a 27       		.uleb128 0x27
 2758 0e8b 01       		.uleb128 0x1
 2759 0e8c 50       		.byte	0x50
 2760 0e8d 03       		.uleb128 0x3
 2761 0e8e 91       		.byte	0x91
 2762 0e8f EA7E     		.sleb128 -150
ARM GAS  /tmp/ccWx56sG.s 			page 50


 2763 0e91 00       		.byte	0
 2764 0e92 26       		.uleb128 0x26
 2765 0e93 46000000 		.4byte	.LVL53
 2766 0e97 9C0C0000 		.4byte	0xc9c
 2767 0e9b A60E0000 		.4byte	0xea6
 2768 0e9f 27       		.uleb128 0x27
 2769 0ea0 01       		.uleb128 0x1
 2770 0ea1 50       		.byte	0x50
 2771 0ea2 02       		.uleb128 0x2
 2772 0ea3 7D       		.byte	0x7d
 2773 0ea4 00       		.sleb128 0
 2774 0ea5 00       		.byte	0
 2775 0ea6 28       		.uleb128 0x28
 2776 0ea7 24010000 		.4byte	.LVL79
 2777 0eab 4E110000 		.4byte	0x114e
 2778 0eaf 27       		.uleb128 0x27
 2779 0eb0 01       		.uleb128 0x1
 2780 0eb1 52       		.byte	0x52
 2781 0eb2 05       		.uleb128 0x5
 2782 0eb3 76       		.byte	0x76
 2783 0eb4 7E       		.sleb128 -2
 2784 0eb5 08       		.byte	0x8
 2785 0eb6 FF       		.byte	0xff
 2786 0eb7 1A       		.byte	0x1a
 2787 0eb8 27       		.uleb128 0x27
 2788 0eb9 01       		.uleb128 0x1
 2789 0eba 51       		.byte	0x51
 2790 0ebb 02       		.uleb128 0x2
 2791 0ebc 78       		.byte	0x78
 2792 0ebd 00       		.sleb128 0
 2793 0ebe 27       		.uleb128 0x27
 2794 0ebf 01       		.uleb128 0x1
 2795 0ec0 50       		.byte	0x50
 2796 0ec1 03       		.uleb128 0x3
 2797 0ec2 91       		.byte	0x91
 2798 0ec3 EA7E     		.sleb128 -150
 2799 0ec5 00       		.byte	0
 2800 0ec6 00       		.byte	0
 2801 0ec7 00       		.byte	0
 2802 0ec8 2E       		.uleb128 0x2e
 2803 0ec9 60000000 		.4byte	.LBB127
 2804 0ecd 4E000000 		.4byte	.LBE127-.LBB127
 2805 0ed1 350F0000 		.4byte	0xf35
 2806 0ed5 2C       		.uleb128 0x2c
 2807 0ed6 6900     		.ascii	"i\000"
 2808 0ed8 01       		.byte	0x1
 2809 0ed9 71       		.byte	0x71
 2810 0eda 37000000 		.4byte	0x37
 2811 0ede 67030000 		.4byte	.LLST20
 2812 0ee2 35       		.uleb128 0x35
 2813 0ee3 A0000000 		.4byte	.Ldebug_ranges0+0xa0
 2814 0ee7 2D       		.uleb128 0x2d
 2815 0ee8 89020000 		.4byte	.LASF152
 2816 0eec 01       		.byte	0x1
 2817 0eed 72       		.byte	0x72
 2818 0eee A2000000 		.4byte	0xa2
 2819 0ef2 A4030000 		.4byte	.LLST21
ARM GAS  /tmp/ccWx56sG.s 			page 51


 2820 0ef6 2F       		.uleb128 0x2f
 2821 0ef7 6A000000 		.4byte	.LVL56
 2822 0efb 4E110000 		.4byte	0x114e
 2823 0eff 26       		.uleb128 0x26
 2824 0f00 72000000 		.4byte	.LVL58
 2825 0f04 9C0C0000 		.4byte	0xc9c
 2826 0f08 130F0000 		.4byte	0xf13
 2827 0f0c 27       		.uleb128 0x27
 2828 0f0d 01       		.uleb128 0x1
 2829 0f0e 50       		.byte	0x50
 2830 0f0f 02       		.uleb128 0x2
 2831 0f10 7D       		.byte	0x7d
 2832 0f11 00       		.sleb128 0
 2833 0f12 00       		.byte	0
 2834 0f13 28       		.uleb128 0x28
 2835 0f14 AA000000 		.4byte	.LVL61
 2836 0f18 4E110000 		.4byte	0x114e
 2837 0f1c 27       		.uleb128 0x27
 2838 0f1d 01       		.uleb128 0x1
 2839 0f1e 52       		.byte	0x52
 2840 0f1f 05       		.uleb128 0x5
 2841 0f20 75       		.byte	0x75
 2842 0f21 7D       		.sleb128 -3
 2843 0f22 08       		.byte	0x8
 2844 0f23 FF       		.byte	0xff
 2845 0f24 1A       		.byte	0x1a
 2846 0f25 27       		.uleb128 0x27
 2847 0f26 01       		.uleb128 0x1
 2848 0f27 51       		.byte	0x51
 2849 0f28 02       		.uleb128 0x2
 2850 0f29 76       		.byte	0x76
 2851 0f2a 00       		.sleb128 0
 2852 0f2b 27       		.uleb128 0x27
 2853 0f2c 01       		.uleb128 0x1
 2854 0f2d 50       		.byte	0x50
 2855 0f2e 03       		.uleb128 0x3
 2856 0f2f 91       		.byte	0x91
 2857 0f30 EB7E     		.sleb128 -149
 2858 0f32 00       		.byte	0
 2859 0f33 00       		.byte	0
 2860 0f34 00       		.byte	0
 2861 0f35 26       		.uleb128 0x26
 2862 0f36 C8000000 		.4byte	.LVL65
 2863 0f3a 72110000 		.4byte	0x1172
 2864 0f3e 4F0F0000 		.4byte	0xf4f
 2865 0f42 27       		.uleb128 0x27
 2866 0f43 01       		.uleb128 0x1
 2867 0f44 51       		.byte	0x51
 2868 0f45 02       		.uleb128 0x2
 2869 0f46 79       		.byte	0x79
 2870 0f47 00       		.sleb128 0
 2871 0f48 27       		.uleb128 0x27
 2872 0f49 01       		.uleb128 0x1
 2873 0f4a 50       		.byte	0x50
 2874 0f4b 02       		.uleb128 0x2
 2875 0f4c 7A       		.byte	0x7a
 2876 0f4d 00       		.sleb128 0
ARM GAS  /tmp/ccWx56sG.s 			page 52


 2877 0f4e 00       		.byte	0
 2878 0f4f 26       		.uleb128 0x26
 2879 0f50 E2000000 		.4byte	.LVL69
 2880 0f54 4E110000 		.4byte	0x114e
 2881 0f58 730F0000 		.4byte	0xf73
 2882 0f5c 27       		.uleb128 0x27
 2883 0f5d 01       		.uleb128 0x1
 2884 0f5e 52       		.byte	0x52
 2885 0f5f 02       		.uleb128 0x2
 2886 0f60 08       		.byte	0x8
 2887 0f61 69       		.byte	0x69
 2888 0f62 27       		.uleb128 0x27
 2889 0f63 01       		.uleb128 0x1
 2890 0f64 51       		.byte	0x51
 2891 0f65 05       		.uleb128 0x5
 2892 0f66 7A       		.byte	0x7a
 2893 0f67 00       		.sleb128 0
 2894 0f68 77       		.byte	0x77
 2895 0f69 00       		.sleb128 0
 2896 0f6a 22       		.byte	0x22
 2897 0f6b 27       		.uleb128 0x27
 2898 0f6c 01       		.uleb128 0x1
 2899 0f6d 50       		.byte	0x50
 2900 0f6e 03       		.uleb128 0x3
 2901 0f6f 91       		.byte	0x91
 2902 0f70 ED7E     		.sleb128 -147
 2903 0f72 00       		.byte	0
 2904 0f73 28       		.uleb128 0x28
 2905 0f74 EA000000 		.4byte	.LVL70
 2906 0f78 9C0C0000 		.4byte	0xc9c
 2907 0f7c 27       		.uleb128 0x27
 2908 0f7d 01       		.uleb128 0x1
 2909 0f7e 51       		.byte	0x51
 2910 0f7f 02       		.uleb128 0x2
 2911 0f80 08       		.byte	0x8
 2912 0f81 6E       		.byte	0x6e
 2913 0f82 27       		.uleb128 0x27
 2914 0f83 01       		.uleb128 0x1
 2915 0f84 50       		.byte	0x50
 2916 0f85 02       		.uleb128 0x2
 2917 0f86 7D       		.byte	0x7d
 2918 0f87 00       		.sleb128 0
 2919 0f88 00       		.byte	0
 2920 0f89 00       		.byte	0
 2921 0f8a 3B       		.uleb128 0x3b
 2922 0f8b F0000000 		.4byte	.LBB131
 2923 0f8f 20000000 		.4byte	.LBE131-.LBB131
 2924 0f93 2C       		.uleb128 0x2c
 2925 0f94 696E6400 		.ascii	"ind\000"
 2926 0f98 01       		.byte	0x1
 2927 0f99 53       		.byte	0x53
 2928 0f9a B8000000 		.4byte	0xb8
 2929 0f9e C6030000 		.4byte	.LLST22
 2930 0fa2 26       		.uleb128 0x26
 2931 0fa3 04010000 		.4byte	.LVL74
 2932 0fa7 4E110000 		.4byte	0x114e
 2933 0fab C30F0000 		.4byte	0xfc3
ARM GAS  /tmp/ccWx56sG.s 			page 53


 2934 0faf 27       		.uleb128 0x27
 2935 0fb0 01       		.uleb128 0x1
 2936 0fb1 52       		.byte	0x52
 2937 0fb2 02       		.uleb128 0x2
 2938 0fb3 79       		.byte	0x79
 2939 0fb4 00       		.sleb128 0
 2940 0fb5 27       		.uleb128 0x27
 2941 0fb6 01       		.uleb128 0x1
 2942 0fb7 51       		.byte	0x51
 2943 0fb8 02       		.uleb128 0x2
 2944 0fb9 7A       		.byte	0x7a
 2945 0fba 00       		.sleb128 0
 2946 0fbb 27       		.uleb128 0x27
 2947 0fbc 01       		.uleb128 0x1
 2948 0fbd 50       		.byte	0x50
 2949 0fbe 03       		.uleb128 0x3
 2950 0fbf 91       		.byte	0x91
 2951 0fc0 E97E     		.sleb128 -151
 2952 0fc2 00       		.byte	0
 2953 0fc3 28       		.uleb128 0x28
 2954 0fc4 10010000 		.4byte	.LVL77
 2955 0fc8 9C0C0000 		.4byte	0xc9c
 2956 0fcc 27       		.uleb128 0x27
 2957 0fcd 01       		.uleb128 0x1
 2958 0fce 51       		.byte	0x51
 2959 0fcf 02       		.uleb128 0x2
 2960 0fd0 79       		.byte	0x79
 2961 0fd1 01       		.sleb128 1
 2962 0fd2 27       		.uleb128 0x27
 2963 0fd3 01       		.uleb128 0x1
 2964 0fd4 50       		.byte	0x50
 2965 0fd5 02       		.uleb128 0x2
 2966 0fd6 74       		.byte	0x74
 2967 0fd7 00       		.sleb128 0
 2968 0fd8 00       		.byte	0
 2969 0fd9 00       		.byte	0
 2970 0fda 00       		.byte	0
 2971 0fdb 15       		.uleb128 0x15
 2972 0fdc A2000000 		.4byte	0xa2
 2973 0fe0 EB0F0000 		.4byte	0xfeb
 2974 0fe4 16       		.uleb128 0x16
 2975 0fe5 6F040000 		.4byte	0x46f
 2976 0fe9 6D       		.byte	0x6d
 2977 0fea 00       		.byte	0
 2978 0feb 3A       		.uleb128 0x3a
 2979 0fec 27070000 		.4byte	.LASF153
 2980 0ff0 01       		.byte	0x1
 2981 0ff1 1A       		.byte	0x1a
 2982 0ff2 B9070000 		.4byte	0x7b9
 2983 0ff6 05       		.uleb128 0x5
 2984 0ff7 03       		.byte	0x3
 2985 0ff8 00000000 		.4byte	basicRfConfig
 2986 0ffc 15       		.uleb128 0x15
 2987 0ffd 81040000 		.4byte	0x481
 2988 1001 0D100000 		.4byte	0x100d
 2989 1005 3C       		.uleb128 0x3c
 2990 1006 6F040000 		.4byte	0x46f
ARM GAS  /tmp/ccWx56sG.s 			page 54


 2991 100a 3201     		.2byte	0x132
 2992 100c 00       		.byte	0
 2993 100d 3A       		.uleb128 0x3a
 2994 100e 38030000 		.4byte	.LASF154
 2995 1012 01       		.byte	0x1
 2996 1013 1B       		.byte	0x1b
 2997 1014 FC0F0000 		.4byte	0xffc
 2998 1018 05       		.uleb128 0x5
 2999 1019 03       		.byte	0x3
 3000 101a 00000000 		.4byte	rx_thread_wa
 3001 101e 15       		.uleb128 0x15
 3002 101f 81040000 		.4byte	0x481
 3003 1023 2E100000 		.4byte	0x102e
 3004 1027 16       		.uleb128 0x16
 3005 1028 6F040000 		.4byte	0x46f
 3006 102c 72       		.byte	0x72
 3007 102d 00       		.byte	0
 3008 102e 3A       		.uleb128 0x3a
 3009 102f 13010000 		.4byte	.LASF155
 3010 1033 01       		.byte	0x1
 3011 1034 1C       		.byte	0x1c
 3012 1035 1E100000 		.4byte	0x101e
 3013 1039 05       		.uleb128 0x5
 3014 103a 03       		.byte	0x3
 3015 103b 00000000 		.4byte	tx_thread_wa
 3016 103f 15       		.uleb128 0x15
 3017 1040 A2000000 		.4byte	0xa2
 3018 1044 55100000 		.4byte	0x1055
 3019 1048 16       		.uleb128 0x16
 3020 1049 6F040000 		.4byte	0x46f
 3021 104d 09       		.byte	0x9
 3022 104e 16       		.uleb128 0x16
 3023 104f 6F040000 		.4byte	0x46f
 3024 1053 81       		.byte	0x81
 3025 1054 00       		.byte	0
 3026 1055 3A       		.uleb128 0x3a
 3027 1056 61070000 		.4byte	.LASF156
 3028 105a 01       		.byte	0x1
 3029 105b 1D       		.byte	0x1d
 3030 105c 3F100000 		.4byte	0x103f
 3031 1060 05       		.uleb128 0x5
 3032 1061 03       		.byte	0x3
 3033 1062 00000000 		.4byte	tx_buffer
 3034 1066 15       		.uleb128 0x15
 3035 1067 A2000000 		.4byte	0xa2
 3036 106b 76100000 		.4byte	0x1076
 3037 106f 16       		.uleb128 0x16
 3038 1070 6F040000 		.4byte	0x46f
 3039 1074 09       		.byte	0x9
 3040 1075 00       		.byte	0
 3041 1076 3A       		.uleb128 0x3a
 3042 1077 E7000000 		.4byte	.LASF157
 3043 107b 01       		.byte	0x1
 3044 107c 1E       		.byte	0x1e
 3045 107d 66100000 		.4byte	0x1066
 3046 1081 05       		.uleb128 0x5
 3047 1082 03       		.byte	0x3
ARM GAS  /tmp/ccWx56sG.s 			page 55


 3048 1083 00000000 		.4byte	tx_slot_len
 3049 1087 3A       		.uleb128 0x3a
 3050 1088 09070000 		.4byte	.LASF158
 3051 108c 01       		.byte	0x1
 3052 108d 1F       		.byte	0x1f
 3053 108e 25000000 		.4byte	0x25
 3054 1092 05       		.uleb128 0x5
 3055 1093 03       		.byte	0x3
 3056 1094 00000000 		.4byte	tx_slot_read
 3057 1098 3A       		.uleb128 0x3a
 3058 1099 EA010000 		.4byte	.LASF159
 3059 109d 01       		.byte	0x1
 3060 109e 20       		.byte	0x20
 3061 109f 25000000 		.4byte	0x25
 3062 10a3 05       		.uleb128 0x5
 3063 10a4 03       		.byte	0x3
 3064 10a5 00000000 		.4byte	tx_slot_write
 3065 10a9 3A       		.uleb128 0x3a
 3066 10aa 3B060000 		.4byte	.LASF160
 3067 10ae 01       		.byte	0x1
 3068 10af 21       		.byte	0x21
 3069 10b0 5C020000 		.4byte	0x25c
 3070 10b4 05       		.uleb128 0x5
 3071 10b5 03       		.byte	0x3
 3072 10b6 00000000 		.4byte	tx_tp
 3073 10ba 2B       		.uleb128 0x2b
 3074 10bb 767400   		.ascii	"vt\000"
 3075 10be 01       		.byte	0x1
 3076 10bf 22       		.byte	0x22
 3077 10c0 3B030000 		.4byte	0x33b
 3078 10c4 05       		.uleb128 0x5
 3079 10c5 03       		.byte	0x3
 3080 10c6 00000000 		.4byte	vt
 3081 10ca 15       		.uleb128 0x15
 3082 10cb A2000000 		.4byte	0xa2
 3083 10cf DB100000 		.4byte	0x10db
 3084 10d3 3C       		.uleb128 0x3c
 3085 10d4 6F040000 		.4byte	0x46f
 3086 10d8 FF03     		.2byte	0x3ff
 3087 10da 00       		.byte	0
 3088 10db 3A       		.uleb128 0x3a
 3089 10dc 6F040000 		.4byte	.LASF161
 3090 10e0 01       		.byte	0x1
 3091 10e1 23       		.byte	0x23
 3092 10e2 CA100000 		.4byte	0x10ca
 3093 10e6 05       		.uleb128 0x5
 3094 10e7 03       		.byte	0x3
 3095 10e8 00000000 		.4byte	rx_buffer
 3096 10ec 3D       		.uleb128 0x3d
 3097 10ed C2000000 		.4byte	.LASF162
 3098 10f1 1A       		.byte	0x1a
 3099 10f2 A706     		.2byte	0x6a7
 3100 10f4 CE000000 		.4byte	0xce
 3101 10f8 3E       		.uleb128 0x3e
 3102 10f9 636800   		.ascii	"ch\000"
 3103 10fc 0A       		.byte	0xa
 3104 10fd 0902     		.2byte	0x209
ARM GAS  /tmp/ccWx56sG.s 			page 56


 3105 10ff 08040000 		.4byte	0x408
 3106 1103 3F       		.uleb128 0x3f
 3107 1104 64010000 		.4byte	.LASF163
 3108 1108 15       		.byte	0x15
 3109 1109 8B       		.byte	0x8b
 3110 110a 20010000 		.4byte	0x120
 3111 110e 18110000 		.4byte	0x1118
 3112 1112 0D       		.uleb128 0xd
 3113 1113 20010000 		.4byte	0x120
 3114 1117 00       		.byte	0
 3115 1118 3F       		.uleb128 0x3f
 3116 1119 4B020000 		.4byte	.LASF164
 3117 111d 13       		.byte	0x13
 3118 111e 48       		.byte	0x48
 3119 111f 5F070000 		.4byte	0x75f
 3120 1123 37110000 		.4byte	0x1137
 3121 1127 0D       		.uleb128 0xd
 3122 1128 75070000 		.4byte	0x775
 3123 112c 0D       		.uleb128 0xd
 3124 112d 37110000 		.4byte	0x1137
 3125 1131 0D       		.uleb128 0xd
 3126 1132 5F070000 		.4byte	0x75f
 3127 1136 00       		.byte	0
 3128 1137 0A       		.uleb128 0xa
 3129 1138 04       		.byte	0x4
 3130 1139 5F070000 		.4byte	0x75f
 3131 113d 40       		.uleb128 0x40
 3132 113e BD040000 		.4byte	.LASF165
 3133 1142 17       		.byte	0x17
 3134 1143 18       		.byte	0x18
 3135 1144 4E110000 		.4byte	0x114e
 3136 1148 0D       		.uleb128 0xd
 3137 1149 25000000 		.4byte	0x25
 3138 114d 00       		.byte	0
 3139 114e 41       		.uleb128 0x41
 3140 114f 71010000 		.4byte	.LASF166
 3141 1153 39030000 		.4byte	0x339
 3142 1157 6B110000 		.4byte	0x116b
 3143 115b 0D       		.uleb128 0xd
 3144 115c 39030000 		.4byte	0x339
 3145 1160 0D       		.uleb128 0xd
 3146 1161 6B110000 		.4byte	0x116b
 3147 1165 0D       		.uleb128 0xd
 3148 1166 6F040000 		.4byte	0x46f
 3149 116a 00       		.byte	0
 3150 116b 0A       		.uleb128 0xa
 3151 116c 04       		.byte	0x4
 3152 116d 71110000 		.4byte	0x1171
 3153 1171 42       		.uleb128 0x42
 3154 1172 3F       		.uleb128 0x3f
 3155 1173 97060000 		.4byte	.LASF167
 3156 1177 16       		.byte	0x16
 3157 1178 1F       		.byte	0x1f
 3158 1179 5E000000 		.4byte	0x5e
 3159 117d 8C110000 		.4byte	0x118c
 3160 1181 0D       		.uleb128 0xd
 3161 1182 C4070000 		.4byte	0x7c4
ARM GAS  /tmp/ccWx56sG.s 			page 57


 3162 1186 0D       		.uleb128 0xd
 3163 1187 37000000 		.4byte	0x37
 3164 118b 00       		.byte	0
 3165 118c 40       		.uleb128 0x40
 3166 118d 9B030000 		.4byte	.LASF168
 3167 1191 18       		.byte	0x18
 3168 1192 20       		.byte	0x20
 3169 1193 A2110000 		.4byte	0x11a2
 3170 1197 0D       		.uleb128 0xd
 3171 1198 C4070000 		.4byte	0x7c4
 3172 119c 0D       		.uleb128 0xd
 3173 119d 37000000 		.4byte	0x37
 3174 11a1 00       		.byte	0
 3175 11a2 3F       		.uleb128 0x3f
 3176 11a3 CE050000 		.4byte	.LASF169
 3177 11a7 13       		.byte	0x13
 3178 11a8 4B       		.byte	0x4b
 3179 11a9 5F070000 		.4byte	0x75f
 3180 11ad C1110000 		.4byte	0x11c1
 3181 11b1 0D       		.uleb128 0xd
 3182 11b2 37110000 		.4byte	0x1137
 3183 11b6 0D       		.uleb128 0xd
 3184 11b7 5F070000 		.4byte	0x75f
 3185 11bb 0D       		.uleb128 0xd
 3186 11bc C1110000 		.4byte	0x11c1
 3187 11c0 00       		.byte	0
 3188 11c1 0A       		.uleb128 0xa
 3189 11c2 04       		.byte	0x4
 3190 11c3 6A070000 		.4byte	0x76a
 3191 11c7 40       		.uleb128 0x40
 3192 11c8 72070000 		.4byte	.LASF170
 3193 11cc 10       		.byte	0x10
 3194 11cd 96       		.byte	0x96
 3195 11ce D8110000 		.4byte	0x11d8
 3196 11d2 0D       		.uleb128 0xd
 3197 11d3 36010000 		.4byte	0x136
 3198 11d7 00       		.byte	0
 3199 11d8 43       		.uleb128 0x43
 3200 11d9 A8050000 		.4byte	.LASF182
 3201 11dd 13       		.byte	0x13
 3202 11de 49       		.byte	0x49
 3203 11df 5F070000 		.4byte	0x75f
 3204 11e3 40       		.uleb128 0x40
 3205 11e4 3C090000 		.4byte	.LASF171
 3206 11e8 15       		.byte	0x15
 3207 11e9 85       		.byte	0x85
 3208 11ea F9110000 		.4byte	0x11f9
 3209 11ee 0D       		.uleb128 0xd
 3210 11ef 5C020000 		.4byte	0x25c
 3211 11f3 0D       		.uleb128 0xd
 3212 11f4 20010000 		.4byte	0x120
 3213 11f8 00       		.byte	0
 3214 11f9 44       		.uleb128 0x44
 3215 11fa 8B060000 		.4byte	.LASF173
 3216 11fe 19       		.byte	0x19
 3217 11ff AE       		.byte	0xae
 3218 1200 3F       		.uleb128 0x3f
ARM GAS  /tmp/ccWx56sG.s 			page 58


 3219 1201 B0030000 		.4byte	.LASF172
 3220 1205 13       		.byte	0x13
 3221 1206 47       		.byte	0x47
 3222 1207 5F070000 		.4byte	0x75f
 3223 120b 15120000 		.4byte	0x1215
 3224 120f 0D       		.uleb128 0xd
 3225 1210 15120000 		.4byte	0x1215
 3226 1214 00       		.byte	0
 3227 1215 0A       		.uleb128 0xa
 3228 1216 04       		.byte	0x4
 3229 1217 B9070000 		.4byte	0x7b9
 3230 121b 44       		.uleb128 0x44
 3231 121c 00020000 		.4byte	.LASF174
 3232 1220 13       		.byte	0x13
 3233 1221 4C       		.byte	0x4c
 3234 1222 3F       		.uleb128 0x3f
 3235 1223 73030000 		.4byte	.LASF175
 3236 1227 10       		.byte	0x10
 3237 1228 89       		.byte	0x89
 3238 1229 5C020000 		.4byte	0x25c
 3239 122d 4B120000 		.4byte	0x124b
 3240 1231 0D       		.uleb128 0xd
 3241 1232 39030000 		.4byte	0x339
 3242 1236 0D       		.uleb128 0xd
 3243 1237 2C000000 		.4byte	0x2c
 3244 123b 0D       		.uleb128 0xd
 3245 123c 0A010000 		.4byte	0x10a
 3246 1240 0D       		.uleb128 0xd
 3247 1241 03070000 		.4byte	0x703
 3248 1245 0D       		.uleb128 0xd
 3249 1246 39030000 		.4byte	0x339
 3250 124a 00       		.byte	0
 3251 124b 45       		.uleb128 0x45
 3252 124c 53030000 		.4byte	.LASF183
 3253 1250 04       		.byte	0x4
 3254 1251 BC       		.byte	0xbc
 3255 1252 0D       		.uleb128 0xd
 3256 1253 E8060000 		.4byte	0x6e8
 3257 1257 0D       		.uleb128 0xd
 3258 1258 36010000 		.4byte	0x136
 3259 125c 0D       		.uleb128 0xd
 3260 125d 1D030000 		.4byte	0x31d
 3261 1261 0D       		.uleb128 0xd
 3262 1262 39030000 		.4byte	0x339
 3263 1266 00       		.byte	0
 3264 1267 00       		.byte	0
 3265              		.section	.debug_abbrev,"",%progbits
 3266              	.Ldebug_abbrev0:
 3267 0000 01       		.uleb128 0x1
 3268 0001 11       		.uleb128 0x11
 3269 0002 01       		.byte	0x1
 3270 0003 25       		.uleb128 0x25
 3271 0004 0E       		.uleb128 0xe
 3272 0005 13       		.uleb128 0x13
 3273 0006 0B       		.uleb128 0xb
 3274 0007 03       		.uleb128 0x3
 3275 0008 0E       		.uleb128 0xe
ARM GAS  /tmp/ccWx56sG.s 			page 59


 3276 0009 1B       		.uleb128 0x1b
 3277 000a 0E       		.uleb128 0xe
 3278 000b 55       		.uleb128 0x55
 3279 000c 17       		.uleb128 0x17
 3280 000d 11       		.uleb128 0x11
 3281 000e 01       		.uleb128 0x1
 3282 000f 10       		.uleb128 0x10
 3283 0010 17       		.uleb128 0x17
 3284 0011 00       		.byte	0
 3285 0012 00       		.byte	0
 3286 0013 02       		.uleb128 0x2
 3287 0014 24       		.uleb128 0x24
 3288 0015 00       		.byte	0
 3289 0016 0B       		.uleb128 0xb
 3290 0017 0B       		.uleb128 0xb
 3291 0018 3E       		.uleb128 0x3e
 3292 0019 0B       		.uleb128 0xb
 3293 001a 03       		.uleb128 0x3
 3294 001b 08       		.uleb128 0x8
 3295 001c 00       		.byte	0
 3296 001d 00       		.byte	0
 3297 001e 03       		.uleb128 0x3
 3298 001f 16       		.uleb128 0x16
 3299 0020 00       		.byte	0
 3300 0021 03       		.uleb128 0x3
 3301 0022 0E       		.uleb128 0xe
 3302 0023 3A       		.uleb128 0x3a
 3303 0024 0B       		.uleb128 0xb
 3304 0025 3B       		.uleb128 0x3b
 3305 0026 0B       		.uleb128 0xb
 3306 0027 49       		.uleb128 0x49
 3307 0028 13       		.uleb128 0x13
 3308 0029 00       		.byte	0
 3309 002a 00       		.byte	0
 3310 002b 04       		.uleb128 0x4
 3311 002c 24       		.uleb128 0x24
 3312 002d 00       		.byte	0
 3313 002e 0B       		.uleb128 0xb
 3314 002f 0B       		.uleb128 0xb
 3315 0030 3E       		.uleb128 0x3e
 3316 0031 0B       		.uleb128 0xb
 3317 0032 03       		.uleb128 0x3
 3318 0033 0E       		.uleb128 0xe
 3319 0034 00       		.byte	0
 3320 0035 00       		.byte	0
 3321 0036 05       		.uleb128 0x5
 3322 0037 35       		.uleb128 0x35
 3323 0038 00       		.byte	0
 3324 0039 49       		.uleb128 0x49
 3325 003a 13       		.uleb128 0x13
 3326 003b 00       		.byte	0
 3327 003c 00       		.byte	0
 3328 003d 06       		.uleb128 0x6
 3329 003e 13       		.uleb128 0x13
 3330 003f 01       		.byte	0x1
 3331 0040 03       		.uleb128 0x3
 3332 0041 0E       		.uleb128 0xe
ARM GAS  /tmp/ccWx56sG.s 			page 60


 3333 0042 0B       		.uleb128 0xb
 3334 0043 0B       		.uleb128 0xb
 3335 0044 3A       		.uleb128 0x3a
 3336 0045 0B       		.uleb128 0xb
 3337 0046 3B       		.uleb128 0x3b
 3338 0047 0B       		.uleb128 0xb
 3339 0048 01       		.uleb128 0x1
 3340 0049 13       		.uleb128 0x13
 3341 004a 00       		.byte	0
 3342 004b 00       		.byte	0
 3343 004c 07       		.uleb128 0x7
 3344 004d 0D       		.uleb128 0xd
 3345 004e 00       		.byte	0
 3346 004f 03       		.uleb128 0x3
 3347 0050 0E       		.uleb128 0xe
 3348 0051 3A       		.uleb128 0x3a
 3349 0052 0B       		.uleb128 0xb
 3350 0053 3B       		.uleb128 0x3b
 3351 0054 0B       		.uleb128 0xb
 3352 0055 49       		.uleb128 0x49
 3353 0056 13       		.uleb128 0x13
 3354 0057 38       		.uleb128 0x38
 3355 0058 0B       		.uleb128 0xb
 3356 0059 00       		.byte	0
 3357 005a 00       		.byte	0
 3358 005b 08       		.uleb128 0x8
 3359 005c 0D       		.uleb128 0xd
 3360 005d 00       		.byte	0
 3361 005e 03       		.uleb128 0x3
 3362 005f 08       		.uleb128 0x8
 3363 0060 3A       		.uleb128 0x3a
 3364 0061 0B       		.uleb128 0xb
 3365 0062 3B       		.uleb128 0x3b
 3366 0063 05       		.uleb128 0x5
 3367 0064 49       		.uleb128 0x49
 3368 0065 13       		.uleb128 0x13
 3369 0066 38       		.uleb128 0x38
 3370 0067 0B       		.uleb128 0xb
 3371 0068 00       		.byte	0
 3372 0069 00       		.byte	0
 3373 006a 09       		.uleb128 0x9
 3374 006b 0D       		.uleb128 0xd
 3375 006c 00       		.byte	0
 3376 006d 03       		.uleb128 0x3
 3377 006e 0E       		.uleb128 0xe
 3378 006f 3A       		.uleb128 0x3a
 3379 0070 0B       		.uleb128 0xb
 3380 0071 3B       		.uleb128 0x3b
 3381 0072 05       		.uleb128 0x5
 3382 0073 49       		.uleb128 0x49
 3383 0074 13       		.uleb128 0x13
 3384 0075 38       		.uleb128 0x38
 3385 0076 0B       		.uleb128 0xb
 3386 0077 00       		.byte	0
 3387 0078 00       		.byte	0
 3388 0079 0A       		.uleb128 0xa
 3389 007a 0F       		.uleb128 0xf
ARM GAS  /tmp/ccWx56sG.s 			page 61


 3390 007b 00       		.byte	0
 3391 007c 0B       		.uleb128 0xb
 3392 007d 0B       		.uleb128 0xb
 3393 007e 49       		.uleb128 0x49
 3394 007f 13       		.uleb128 0x13
 3395 0080 00       		.byte	0
 3396 0081 00       		.byte	0
 3397 0082 0B       		.uleb128 0xb
 3398 0083 13       		.uleb128 0x13
 3399 0084 01       		.byte	0x1
 3400 0085 03       		.uleb128 0x3
 3401 0086 0E       		.uleb128 0xe
 3402 0087 0B       		.uleb128 0xb
 3403 0088 0B       		.uleb128 0xb
 3404 0089 3A       		.uleb128 0x3a
 3405 008a 0B       		.uleb128 0xb
 3406 008b 3B       		.uleb128 0x3b
 3407 008c 05       		.uleb128 0x5
 3408 008d 01       		.uleb128 0x1
 3409 008e 13       		.uleb128 0x13
 3410 008f 00       		.byte	0
 3411 0090 00       		.byte	0
 3412 0091 0C       		.uleb128 0xc
 3413 0092 15       		.uleb128 0x15
 3414 0093 01       		.byte	0x1
 3415 0094 27       		.uleb128 0x27
 3416 0095 19       		.uleb128 0x19
 3417 0096 01       		.uleb128 0x1
 3418 0097 13       		.uleb128 0x13
 3419 0098 00       		.byte	0
 3420 0099 00       		.byte	0
 3421 009a 0D       		.uleb128 0xd
 3422 009b 05       		.uleb128 0x5
 3423 009c 00       		.byte	0
 3424 009d 49       		.uleb128 0x49
 3425 009e 13       		.uleb128 0x13
 3426 009f 00       		.byte	0
 3427 00a0 00       		.byte	0
 3428 00a1 0E       		.uleb128 0xe
 3429 00a2 0F       		.uleb128 0xf
 3430 00a3 00       		.byte	0
 3431 00a4 0B       		.uleb128 0xb
 3432 00a5 0B       		.uleb128 0xb
 3433 00a6 00       		.byte	0
 3434 00a7 00       		.byte	0
 3435 00a8 0F       		.uleb128 0xf
 3436 00a9 13       		.uleb128 0x13
 3437 00aa 01       		.byte	0x1
 3438 00ab 03       		.uleb128 0x3
 3439 00ac 0E       		.uleb128 0xe
 3440 00ad 0B       		.uleb128 0xb
 3441 00ae 05       		.uleb128 0x5
 3442 00af 3A       		.uleb128 0x3a
 3443 00b0 0B       		.uleb128 0xb
 3444 00b1 3B       		.uleb128 0x3b
 3445 00b2 05       		.uleb128 0x5
 3446 00b3 01       		.uleb128 0x1
ARM GAS  /tmp/ccWx56sG.s 			page 62


 3447 00b4 13       		.uleb128 0x13
 3448 00b5 00       		.byte	0
 3449 00b6 00       		.byte	0
 3450 00b7 10       		.uleb128 0x10
 3451 00b8 0D       		.uleb128 0xd
 3452 00b9 00       		.byte	0
 3453 00ba 03       		.uleb128 0x3
 3454 00bb 08       		.uleb128 0x8
 3455 00bc 3A       		.uleb128 0x3a
 3456 00bd 0B       		.uleb128 0xb
 3457 00be 3B       		.uleb128 0x3b
 3458 00bf 0B       		.uleb128 0xb
 3459 00c0 49       		.uleb128 0x49
 3460 00c1 13       		.uleb128 0x13
 3461 00c2 38       		.uleb128 0x38
 3462 00c3 0B       		.uleb128 0xb
 3463 00c4 00       		.byte	0
 3464 00c5 00       		.byte	0
 3465 00c6 11       		.uleb128 0x11
 3466 00c7 13       		.uleb128 0x13
 3467 00c8 01       		.byte	0x1
 3468 00c9 0B       		.uleb128 0xb
 3469 00ca 0B       		.uleb128 0xb
 3470 00cb 3A       		.uleb128 0x3a
 3471 00cc 0B       		.uleb128 0xb
 3472 00cd 3B       		.uleb128 0x3b
 3473 00ce 0B       		.uleb128 0xb
 3474 00cf 01       		.uleb128 0x1
 3475 00d0 13       		.uleb128 0x13
 3476 00d1 00       		.byte	0
 3477 00d2 00       		.byte	0
 3478 00d3 12       		.uleb128 0x12
 3479 00d4 17       		.uleb128 0x17
 3480 00d5 01       		.byte	0x1
 3481 00d6 0B       		.uleb128 0xb
 3482 00d7 0B       		.uleb128 0xb
 3483 00d8 3A       		.uleb128 0x3a
 3484 00d9 0B       		.uleb128 0xb
 3485 00da 3B       		.uleb128 0x3b
 3486 00db 0B       		.uleb128 0xb
 3487 00dc 01       		.uleb128 0x1
 3488 00dd 13       		.uleb128 0x13
 3489 00de 00       		.byte	0
 3490 00df 00       		.byte	0
 3491 00e0 13       		.uleb128 0x13
 3492 00e1 0D       		.uleb128 0xd
 3493 00e2 00       		.byte	0
 3494 00e3 03       		.uleb128 0x3
 3495 00e4 0E       		.uleb128 0xe
 3496 00e5 3A       		.uleb128 0x3a
 3497 00e6 0B       		.uleb128 0xb
 3498 00e7 3B       		.uleb128 0x3b
 3499 00e8 05       		.uleb128 0x5
 3500 00e9 49       		.uleb128 0x49
 3501 00ea 13       		.uleb128 0x13
 3502 00eb 00       		.byte	0
 3503 00ec 00       		.byte	0
ARM GAS  /tmp/ccWx56sG.s 			page 63


 3504 00ed 14       		.uleb128 0x14
 3505 00ee 26       		.uleb128 0x26
 3506 00ef 00       		.byte	0
 3507 00f0 49       		.uleb128 0x49
 3508 00f1 13       		.uleb128 0x13
 3509 00f2 00       		.byte	0
 3510 00f3 00       		.byte	0
 3511 00f4 15       		.uleb128 0x15
 3512 00f5 01       		.uleb128 0x1
 3513 00f6 01       		.byte	0x1
 3514 00f7 49       		.uleb128 0x49
 3515 00f8 13       		.uleb128 0x13
 3516 00f9 01       		.uleb128 0x1
 3517 00fa 13       		.uleb128 0x13
 3518 00fb 00       		.byte	0
 3519 00fc 00       		.byte	0
 3520 00fd 16       		.uleb128 0x16
 3521 00fe 21       		.uleb128 0x21
 3522 00ff 00       		.byte	0
 3523 0100 49       		.uleb128 0x49
 3524 0101 13       		.uleb128 0x13
 3525 0102 2F       		.uleb128 0x2f
 3526 0103 0B       		.uleb128 0xb
 3527 0104 00       		.byte	0
 3528 0105 00       		.byte	0
 3529 0106 17       		.uleb128 0x17
 3530 0107 04       		.uleb128 0x4
 3531 0108 01       		.byte	0x1
 3532 0109 0B       		.uleb128 0xb
 3533 010a 0B       		.uleb128 0xb
 3534 010b 3A       		.uleb128 0x3a
 3535 010c 0B       		.uleb128 0xb
 3536 010d 3B       		.uleb128 0x3b
 3537 010e 0B       		.uleb128 0xb
 3538 010f 01       		.uleb128 0x1
 3539 0110 13       		.uleb128 0x13
 3540 0111 00       		.byte	0
 3541 0112 00       		.byte	0
 3542 0113 18       		.uleb128 0x18
 3543 0114 28       		.uleb128 0x28
 3544 0115 00       		.byte	0
 3545 0116 03       		.uleb128 0x3
 3546 0117 0E       		.uleb128 0xe
 3547 0118 1C       		.uleb128 0x1c
 3548 0119 0D       		.uleb128 0xd
 3549 011a 00       		.byte	0
 3550 011b 00       		.byte	0
 3551 011c 19       		.uleb128 0x19
 3552 011d 2E       		.uleb128 0x2e
 3553 011e 00       		.byte	0
 3554 011f 03       		.uleb128 0x3
 3555 0120 0E       		.uleb128 0xe
 3556 0121 3A       		.uleb128 0x3a
 3557 0122 0B       		.uleb128 0xb
 3558 0123 3B       		.uleb128 0x3b
 3559 0124 05       		.uleb128 0x5
 3560 0125 27       		.uleb128 0x27
ARM GAS  /tmp/ccWx56sG.s 			page 64


 3561 0126 19       		.uleb128 0x19
 3562 0127 20       		.uleb128 0x20
 3563 0128 0B       		.uleb128 0xb
 3564 0129 00       		.byte	0
 3565 012a 00       		.byte	0
 3566 012b 1A       		.uleb128 0x1a
 3567 012c 2E       		.uleb128 0x2e
 3568 012d 01       		.byte	0x1
 3569 012e 03       		.uleb128 0x3
 3570 012f 0E       		.uleb128 0xe
 3571 0130 3A       		.uleb128 0x3a
 3572 0131 0B       		.uleb128 0xb
 3573 0132 3B       		.uleb128 0x3b
 3574 0133 05       		.uleb128 0x5
 3575 0134 27       		.uleb128 0x27
 3576 0135 19       		.uleb128 0x19
 3577 0136 49       		.uleb128 0x49
 3578 0137 13       		.uleb128 0x13
 3579 0138 20       		.uleb128 0x20
 3580 0139 0B       		.uleb128 0xb
 3581 013a 01       		.uleb128 0x1
 3582 013b 13       		.uleb128 0x13
 3583 013c 00       		.byte	0
 3584 013d 00       		.byte	0
 3585 013e 1B       		.uleb128 0x1b
 3586 013f 05       		.uleb128 0x5
 3587 0140 00       		.byte	0
 3588 0141 03       		.uleb128 0x3
 3589 0142 08       		.uleb128 0x8
 3590 0143 3A       		.uleb128 0x3a
 3591 0144 0B       		.uleb128 0xb
 3592 0145 3B       		.uleb128 0x3b
 3593 0146 05       		.uleb128 0x5
 3594 0147 49       		.uleb128 0x49
 3595 0148 13       		.uleb128 0x13
 3596 0149 00       		.byte	0
 3597 014a 00       		.byte	0
 3598 014b 1C       		.uleb128 0x1c
 3599 014c 2E       		.uleb128 0x2e
 3600 014d 01       		.byte	0x1
 3601 014e 03       		.uleb128 0x3
 3602 014f 0E       		.uleb128 0xe
 3603 0150 3A       		.uleb128 0x3a
 3604 0151 0B       		.uleb128 0xb
 3605 0152 3B       		.uleb128 0x3b
 3606 0153 0B       		.uleb128 0xb
 3607 0154 27       		.uleb128 0x27
 3608 0155 19       		.uleb128 0x19
 3609 0156 20       		.uleb128 0x20
 3610 0157 0B       		.uleb128 0xb
 3611 0158 01       		.uleb128 0x1
 3612 0159 13       		.uleb128 0x13
 3613 015a 00       		.byte	0
 3614 015b 00       		.byte	0
 3615 015c 1D       		.uleb128 0x1d
 3616 015d 05       		.uleb128 0x5
 3617 015e 00       		.byte	0
ARM GAS  /tmp/ccWx56sG.s 			page 65


 3618 015f 03       		.uleb128 0x3
 3619 0160 0E       		.uleb128 0xe
 3620 0161 3A       		.uleb128 0x3a
 3621 0162 0B       		.uleb128 0xb
 3622 0163 3B       		.uleb128 0x3b
 3623 0164 0B       		.uleb128 0xb
 3624 0165 49       		.uleb128 0x49
 3625 0166 13       		.uleb128 0x13
 3626 0167 00       		.byte	0
 3627 0168 00       		.byte	0
 3628 0169 1E       		.uleb128 0x1e
 3629 016a 2E       		.uleb128 0x2e
 3630 016b 00       		.byte	0
 3631 016c 03       		.uleb128 0x3
 3632 016d 0E       		.uleb128 0xe
 3633 016e 3A       		.uleb128 0x3a
 3634 016f 0B       		.uleb128 0xb
 3635 0170 3B       		.uleb128 0x3b
 3636 0171 0B       		.uleb128 0xb
 3637 0172 27       		.uleb128 0x27
 3638 0173 19       		.uleb128 0x19
 3639 0174 49       		.uleb128 0x49
 3640 0175 13       		.uleb128 0x13
 3641 0176 20       		.uleb128 0x20
 3642 0177 0B       		.uleb128 0xb
 3643 0178 00       		.byte	0
 3644 0179 00       		.byte	0
 3645 017a 1F       		.uleb128 0x1f
 3646 017b 2E       		.uleb128 0x2e
 3647 017c 01       		.byte	0x1
 3648 017d 03       		.uleb128 0x3
 3649 017e 0E       		.uleb128 0xe
 3650 017f 3A       		.uleb128 0x3a
 3651 0180 0B       		.uleb128 0xb
 3652 0181 3B       		.uleb128 0x3b
 3653 0182 05       		.uleb128 0x5
 3654 0183 27       		.uleb128 0x27
 3655 0184 19       		.uleb128 0x19
 3656 0185 20       		.uleb128 0x20
 3657 0186 0B       		.uleb128 0xb
 3658 0187 01       		.uleb128 0x1
 3659 0188 13       		.uleb128 0x13
 3660 0189 00       		.byte	0
 3661 018a 00       		.byte	0
 3662 018b 20       		.uleb128 0x20
 3663 018c 34       		.uleb128 0x34
 3664 018d 00       		.byte	0
 3665 018e 03       		.uleb128 0x3
 3666 018f 0E       		.uleb128 0xe
 3667 0190 49       		.uleb128 0x49
 3668 0191 13       		.uleb128 0x13
 3669 0192 34       		.uleb128 0x34
 3670 0193 19       		.uleb128 0x19
 3671 0194 1C       		.uleb128 0x1c
 3672 0195 0E       		.uleb128 0xe
 3673 0196 00       		.byte	0
 3674 0197 00       		.byte	0
ARM GAS  /tmp/ccWx56sG.s 			page 66


 3675 0198 21       		.uleb128 0x21
 3676 0199 05       		.uleb128 0x5
 3677 019a 00       		.byte	0
 3678 019b 03       		.uleb128 0x3
 3679 019c 0E       		.uleb128 0xe
 3680 019d 3A       		.uleb128 0x3a
 3681 019e 0B       		.uleb128 0xb
 3682 019f 3B       		.uleb128 0x3b
 3683 01a0 05       		.uleb128 0x5
 3684 01a1 49       		.uleb128 0x49
 3685 01a2 13       		.uleb128 0x13
 3686 01a3 00       		.byte	0
 3687 01a4 00       		.byte	0
 3688 01a5 22       		.uleb128 0x22
 3689 01a6 2E       		.uleb128 0x2e
 3690 01a7 01       		.byte	0x1
 3691 01a8 03       		.uleb128 0x3
 3692 01a9 0E       		.uleb128 0xe
 3693 01aa 3A       		.uleb128 0x3a
 3694 01ab 0B       		.uleb128 0xb
 3695 01ac 3B       		.uleb128 0x3b
 3696 01ad 0B       		.uleb128 0xb
 3697 01ae 27       		.uleb128 0x27
 3698 01af 19       		.uleb128 0x19
 3699 01b0 11       		.uleb128 0x11
 3700 01b1 01       		.uleb128 0x1
 3701 01b2 12       		.uleb128 0x12
 3702 01b3 06       		.uleb128 0x6
 3703 01b4 40       		.uleb128 0x40
 3704 01b5 18       		.uleb128 0x18
 3705 01b6 9742     		.uleb128 0x2117
 3706 01b8 19       		.uleb128 0x19
 3707 01b9 01       		.uleb128 0x1
 3708 01ba 13       		.uleb128 0x13
 3709 01bb 00       		.byte	0
 3710 01bc 00       		.byte	0
 3711 01bd 23       		.uleb128 0x23
 3712 01be 05       		.uleb128 0x5
 3713 01bf 00       		.byte	0
 3714 01c0 03       		.uleb128 0x3
 3715 01c1 08       		.uleb128 0x8
 3716 01c2 3A       		.uleb128 0x3a
 3717 01c3 0B       		.uleb128 0xb
 3718 01c4 3B       		.uleb128 0x3b
 3719 01c5 0B       		.uleb128 0xb
 3720 01c6 49       		.uleb128 0x49
 3721 01c7 13       		.uleb128 0x13
 3722 01c8 02       		.uleb128 0x2
 3723 01c9 17       		.uleb128 0x17
 3724 01ca 00       		.byte	0
 3725 01cb 00       		.byte	0
 3726 01cc 24       		.uleb128 0x24
 3727 01cd 1D       		.uleb128 0x1d
 3728 01ce 01       		.byte	0x1
 3729 01cf 31       		.uleb128 0x31
 3730 01d0 13       		.uleb128 0x13
 3731 01d1 52       		.uleb128 0x52
ARM GAS  /tmp/ccWx56sG.s 			page 67


 3732 01d2 01       		.uleb128 0x1
 3733 01d3 55       		.uleb128 0x55
 3734 01d4 17       		.uleb128 0x17
 3735 01d5 58       		.uleb128 0x58
 3736 01d6 0B       		.uleb128 0xb
 3737 01d7 59       		.uleb128 0x59
 3738 01d8 0B       		.uleb128 0xb
 3739 01d9 01       		.uleb128 0x1
 3740 01da 13       		.uleb128 0x13
 3741 01db 00       		.byte	0
 3742 01dc 00       		.byte	0
 3743 01dd 25       		.uleb128 0x25
 3744 01de 05       		.uleb128 0x5
 3745 01df 00       		.byte	0
 3746 01e0 31       		.uleb128 0x31
 3747 01e1 13       		.uleb128 0x13
 3748 01e2 02       		.uleb128 0x2
 3749 01e3 18       		.uleb128 0x18
 3750 01e4 00       		.byte	0
 3751 01e5 00       		.byte	0
 3752 01e6 26       		.uleb128 0x26
 3753 01e7 898201   		.uleb128 0x4109
 3754 01ea 01       		.byte	0x1
 3755 01eb 11       		.uleb128 0x11
 3756 01ec 01       		.uleb128 0x1
 3757 01ed 31       		.uleb128 0x31
 3758 01ee 13       		.uleb128 0x13
 3759 01ef 01       		.uleb128 0x1
 3760 01f0 13       		.uleb128 0x13
 3761 01f1 00       		.byte	0
 3762 01f2 00       		.byte	0
 3763 01f3 27       		.uleb128 0x27
 3764 01f4 8A8201   		.uleb128 0x410a
 3765 01f7 00       		.byte	0
 3766 01f8 02       		.uleb128 0x2
 3767 01f9 18       		.uleb128 0x18
 3768 01fa 9142     		.uleb128 0x2111
 3769 01fc 18       		.uleb128 0x18
 3770 01fd 00       		.byte	0
 3771 01fe 00       		.byte	0
 3772 01ff 28       		.uleb128 0x28
 3773 0200 898201   		.uleb128 0x4109
 3774 0203 01       		.byte	0x1
 3775 0204 11       		.uleb128 0x11
 3776 0205 01       		.uleb128 0x1
 3777 0206 31       		.uleb128 0x31
 3778 0207 13       		.uleb128 0x13
 3779 0208 00       		.byte	0
 3780 0209 00       		.byte	0
 3781 020a 29       		.uleb128 0x29
 3782 020b 1D       		.uleb128 0x1d
 3783 020c 01       		.byte	0x1
 3784 020d 31       		.uleb128 0x31
 3785 020e 13       		.uleb128 0x13
 3786 020f 11       		.uleb128 0x11
 3787 0210 01       		.uleb128 0x1
 3788 0211 12       		.uleb128 0x12
ARM GAS  /tmp/ccWx56sG.s 			page 68


 3789 0212 06       		.uleb128 0x6
 3790 0213 58       		.uleb128 0x58
 3791 0214 0B       		.uleb128 0xb
 3792 0215 59       		.uleb128 0x59
 3793 0216 0B       		.uleb128 0xb
 3794 0217 01       		.uleb128 0x1
 3795 0218 13       		.uleb128 0x13
 3796 0219 00       		.byte	0
 3797 021a 00       		.byte	0
 3798 021b 2A       		.uleb128 0x2a
 3799 021c 0B       		.uleb128 0xb
 3800 021d 01       		.byte	0x1
 3801 021e 55       		.uleb128 0x55
 3802 021f 17       		.uleb128 0x17
 3803 0220 01       		.uleb128 0x1
 3804 0221 13       		.uleb128 0x13
 3805 0222 00       		.byte	0
 3806 0223 00       		.byte	0
 3807 0224 2B       		.uleb128 0x2b
 3808 0225 34       		.uleb128 0x34
 3809 0226 00       		.byte	0
 3810 0227 03       		.uleb128 0x3
 3811 0228 08       		.uleb128 0x8
 3812 0229 3A       		.uleb128 0x3a
 3813 022a 0B       		.uleb128 0xb
 3814 022b 3B       		.uleb128 0x3b
 3815 022c 0B       		.uleb128 0xb
 3816 022d 49       		.uleb128 0x49
 3817 022e 13       		.uleb128 0x13
 3818 022f 02       		.uleb128 0x2
 3819 0230 18       		.uleb128 0x18
 3820 0231 00       		.byte	0
 3821 0232 00       		.byte	0
 3822 0233 2C       		.uleb128 0x2c
 3823 0234 34       		.uleb128 0x34
 3824 0235 00       		.byte	0
 3825 0236 03       		.uleb128 0x3
 3826 0237 08       		.uleb128 0x8
 3827 0238 3A       		.uleb128 0x3a
 3828 0239 0B       		.uleb128 0xb
 3829 023a 3B       		.uleb128 0x3b
 3830 023b 0B       		.uleb128 0xb
 3831 023c 49       		.uleb128 0x49
 3832 023d 13       		.uleb128 0x13
 3833 023e 02       		.uleb128 0x2
 3834 023f 17       		.uleb128 0x17
 3835 0240 00       		.byte	0
 3836 0241 00       		.byte	0
 3837 0242 2D       		.uleb128 0x2d
 3838 0243 34       		.uleb128 0x34
 3839 0244 00       		.byte	0
 3840 0245 03       		.uleb128 0x3
 3841 0246 0E       		.uleb128 0xe
 3842 0247 3A       		.uleb128 0x3a
 3843 0248 0B       		.uleb128 0xb
 3844 0249 3B       		.uleb128 0x3b
 3845 024a 0B       		.uleb128 0xb
ARM GAS  /tmp/ccWx56sG.s 			page 69


 3846 024b 49       		.uleb128 0x49
 3847 024c 13       		.uleb128 0x13
 3848 024d 02       		.uleb128 0x2
 3849 024e 17       		.uleb128 0x17
 3850 024f 00       		.byte	0
 3851 0250 00       		.byte	0
 3852 0251 2E       		.uleb128 0x2e
 3853 0252 0B       		.uleb128 0xb
 3854 0253 01       		.byte	0x1
 3855 0254 11       		.uleb128 0x11
 3856 0255 01       		.uleb128 0x1
 3857 0256 12       		.uleb128 0x12
 3858 0257 06       		.uleb128 0x6
 3859 0258 01       		.uleb128 0x1
 3860 0259 13       		.uleb128 0x13
 3861 025a 00       		.byte	0
 3862 025b 00       		.byte	0
 3863 025c 2F       		.uleb128 0x2f
 3864 025d 898201   		.uleb128 0x4109
 3865 0260 00       		.byte	0
 3866 0261 11       		.uleb128 0x11
 3867 0262 01       		.uleb128 0x1
 3868 0263 31       		.uleb128 0x31
 3869 0264 13       		.uleb128 0x13
 3870 0265 00       		.byte	0
 3871 0266 00       		.byte	0
 3872 0267 30       		.uleb128 0x30
 3873 0268 1D       		.uleb128 0x1d
 3874 0269 01       		.byte	0x1
 3875 026a 31       		.uleb128 0x31
 3876 026b 13       		.uleb128 0x13
 3877 026c 11       		.uleb128 0x11
 3878 026d 01       		.uleb128 0x1
 3879 026e 12       		.uleb128 0x12
 3880 026f 06       		.uleb128 0x6
 3881 0270 58       		.uleb128 0x58
 3882 0271 0B       		.uleb128 0xb
 3883 0272 59       		.uleb128 0x59
 3884 0273 05       		.uleb128 0x5
 3885 0274 01       		.uleb128 0x1
 3886 0275 13       		.uleb128 0x13
 3887 0276 00       		.byte	0
 3888 0277 00       		.byte	0
 3889 0278 31       		.uleb128 0x31
 3890 0279 1D       		.uleb128 0x1d
 3891 027a 01       		.byte	0x1
 3892 027b 31       		.uleb128 0x31
 3893 027c 13       		.uleb128 0x13
 3894 027d 11       		.uleb128 0x11
 3895 027e 01       		.uleb128 0x1
 3896 027f 12       		.uleb128 0x12
 3897 0280 06       		.uleb128 0x6
 3898 0281 58       		.uleb128 0x58
 3899 0282 0B       		.uleb128 0xb
 3900 0283 59       		.uleb128 0x59
 3901 0284 05       		.uleb128 0x5
 3902 0285 00       		.byte	0
ARM GAS  /tmp/ccWx56sG.s 			page 70


 3903 0286 00       		.byte	0
 3904 0287 32       		.uleb128 0x32
 3905 0288 1D       		.uleb128 0x1d
 3906 0289 00       		.byte	0
 3907 028a 31       		.uleb128 0x31
 3908 028b 13       		.uleb128 0x13
 3909 028c 11       		.uleb128 0x11
 3910 028d 01       		.uleb128 0x1
 3911 028e 12       		.uleb128 0x12
 3912 028f 06       		.uleb128 0x6
 3913 0290 58       		.uleb128 0x58
 3914 0291 0B       		.uleb128 0xb
 3915 0292 59       		.uleb128 0x59
 3916 0293 05       		.uleb128 0x5
 3917 0294 00       		.byte	0
 3918 0295 00       		.byte	0
 3919 0296 33       		.uleb128 0x33
 3920 0297 2E       		.uleb128 0x2e
 3921 0298 01       		.byte	0x1
 3922 0299 3F       		.uleb128 0x3f
 3923 029a 19       		.uleb128 0x19
 3924 029b 03       		.uleb128 0x3
 3925 029c 0E       		.uleb128 0xe
 3926 029d 3A       		.uleb128 0x3a
 3927 029e 0B       		.uleb128 0xb
 3928 029f 3B       		.uleb128 0x3b
 3929 02a0 0B       		.uleb128 0xb
 3930 02a1 27       		.uleb128 0x27
 3931 02a2 19       		.uleb128 0x19
 3932 02a3 11       		.uleb128 0x11
 3933 02a4 01       		.uleb128 0x1
 3934 02a5 12       		.uleb128 0x12
 3935 02a6 06       		.uleb128 0x6
 3936 02a7 40       		.uleb128 0x40
 3937 02a8 18       		.uleb128 0x18
 3938 02a9 9742     		.uleb128 0x2117
 3939 02ab 19       		.uleb128 0x19
 3940 02ac 01       		.uleb128 0x1
 3941 02ad 13       		.uleb128 0x13
 3942 02ae 00       		.byte	0
 3943 02af 00       		.byte	0
 3944 02b0 34       		.uleb128 0x34
 3945 02b1 05       		.uleb128 0x5
 3946 02b2 00       		.byte	0
 3947 02b3 03       		.uleb128 0x3
 3948 02b4 0E       		.uleb128 0xe
 3949 02b5 3A       		.uleb128 0x3a
 3950 02b6 0B       		.uleb128 0xb
 3951 02b7 3B       		.uleb128 0x3b
 3952 02b8 0B       		.uleb128 0xb
 3953 02b9 49       		.uleb128 0x49
 3954 02ba 13       		.uleb128 0x13
 3955 02bb 02       		.uleb128 0x2
 3956 02bc 17       		.uleb128 0x17
 3957 02bd 00       		.byte	0
 3958 02be 00       		.byte	0
 3959 02bf 35       		.uleb128 0x35
ARM GAS  /tmp/ccWx56sG.s 			page 71


 3960 02c0 0B       		.uleb128 0xb
 3961 02c1 01       		.byte	0x1
 3962 02c2 55       		.uleb128 0x55
 3963 02c3 17       		.uleb128 0x17
 3964 02c4 00       		.byte	0
 3965 02c5 00       		.byte	0
 3966 02c6 36       		.uleb128 0x36
 3967 02c7 34       		.uleb128 0x34
 3968 02c8 00       		.byte	0
 3969 02c9 31       		.uleb128 0x31
 3970 02ca 13       		.uleb128 0x13
 3971 02cb 00       		.byte	0
 3972 02cc 00       		.byte	0
 3973 02cd 37       		.uleb128 0x37
 3974 02ce 1D       		.uleb128 0x1d
 3975 02cf 01       		.byte	0x1
 3976 02d0 31       		.uleb128 0x31
 3977 02d1 13       		.uleb128 0x13
 3978 02d2 52       		.uleb128 0x52
 3979 02d3 01       		.uleb128 0x1
 3980 02d4 55       		.uleb128 0x55
 3981 02d5 17       		.uleb128 0x17
 3982 02d6 58       		.uleb128 0x58
 3983 02d7 0B       		.uleb128 0xb
 3984 02d8 59       		.uleb128 0x59
 3985 02d9 05       		.uleb128 0x5
 3986 02da 00       		.byte	0
 3987 02db 00       		.byte	0
 3988 02dc 38       		.uleb128 0x38
 3989 02dd 1D       		.uleb128 0x1d
 3990 02de 00       		.byte	0
 3991 02df 31       		.uleb128 0x31
 3992 02e0 13       		.uleb128 0x13
 3993 02e1 52       		.uleb128 0x52
 3994 02e2 01       		.uleb128 0x1
 3995 02e3 55       		.uleb128 0x55
 3996 02e4 17       		.uleb128 0x17
 3997 02e5 58       		.uleb128 0x58
 3998 02e6 0B       		.uleb128 0xb
 3999 02e7 59       		.uleb128 0x59
 4000 02e8 05       		.uleb128 0x5
 4001 02e9 00       		.byte	0
 4002 02ea 00       		.byte	0
 4003 02eb 39       		.uleb128 0x39
 4004 02ec 05       		.uleb128 0x5
 4005 02ed 00       		.byte	0
 4006 02ee 31       		.uleb128 0x31
 4007 02ef 13       		.uleb128 0x13
 4008 02f0 1C       		.uleb128 0x1c
 4009 02f1 0B       		.uleb128 0xb
 4010 02f2 00       		.byte	0
 4011 02f3 00       		.byte	0
 4012 02f4 3A       		.uleb128 0x3a
 4013 02f5 34       		.uleb128 0x34
 4014 02f6 00       		.byte	0
 4015 02f7 03       		.uleb128 0x3
 4016 02f8 0E       		.uleb128 0xe
ARM GAS  /tmp/ccWx56sG.s 			page 72


 4017 02f9 3A       		.uleb128 0x3a
 4018 02fa 0B       		.uleb128 0xb
 4019 02fb 3B       		.uleb128 0x3b
 4020 02fc 0B       		.uleb128 0xb
 4021 02fd 49       		.uleb128 0x49
 4022 02fe 13       		.uleb128 0x13
 4023 02ff 02       		.uleb128 0x2
 4024 0300 18       		.uleb128 0x18
 4025 0301 00       		.byte	0
 4026 0302 00       		.byte	0
 4027 0303 3B       		.uleb128 0x3b
 4028 0304 0B       		.uleb128 0xb
 4029 0305 01       		.byte	0x1
 4030 0306 11       		.uleb128 0x11
 4031 0307 01       		.uleb128 0x1
 4032 0308 12       		.uleb128 0x12
 4033 0309 06       		.uleb128 0x6
 4034 030a 00       		.byte	0
 4035 030b 00       		.byte	0
 4036 030c 3C       		.uleb128 0x3c
 4037 030d 21       		.uleb128 0x21
 4038 030e 00       		.byte	0
 4039 030f 49       		.uleb128 0x49
 4040 0310 13       		.uleb128 0x13
 4041 0311 2F       		.uleb128 0x2f
 4042 0312 05       		.uleb128 0x5
 4043 0313 00       		.byte	0
 4044 0314 00       		.byte	0
 4045 0315 3D       		.uleb128 0x3d
 4046 0316 34       		.uleb128 0x34
 4047 0317 00       		.byte	0
 4048 0318 03       		.uleb128 0x3
 4049 0319 0E       		.uleb128 0xe
 4050 031a 3A       		.uleb128 0x3a
 4051 031b 0B       		.uleb128 0xb
 4052 031c 3B       		.uleb128 0x3b
 4053 031d 05       		.uleb128 0x5
 4054 031e 49       		.uleb128 0x49
 4055 031f 13       		.uleb128 0x13
 4056 0320 3F       		.uleb128 0x3f
 4057 0321 19       		.uleb128 0x19
 4058 0322 3C       		.uleb128 0x3c
 4059 0323 19       		.uleb128 0x19
 4060 0324 00       		.byte	0
 4061 0325 00       		.byte	0
 4062 0326 3E       		.uleb128 0x3e
 4063 0327 34       		.uleb128 0x34
 4064 0328 00       		.byte	0
 4065 0329 03       		.uleb128 0x3
 4066 032a 08       		.uleb128 0x8
 4067 032b 3A       		.uleb128 0x3a
 4068 032c 0B       		.uleb128 0xb
 4069 032d 3B       		.uleb128 0x3b
 4070 032e 05       		.uleb128 0x5
 4071 032f 49       		.uleb128 0x49
 4072 0330 13       		.uleb128 0x13
 4073 0331 3F       		.uleb128 0x3f
ARM GAS  /tmp/ccWx56sG.s 			page 73


 4074 0332 19       		.uleb128 0x19
 4075 0333 3C       		.uleb128 0x3c
 4076 0334 19       		.uleb128 0x19
 4077 0335 00       		.byte	0
 4078 0336 00       		.byte	0
 4079 0337 3F       		.uleb128 0x3f
 4080 0338 2E       		.uleb128 0x2e
 4081 0339 01       		.byte	0x1
 4082 033a 3F       		.uleb128 0x3f
 4083 033b 19       		.uleb128 0x19
 4084 033c 03       		.uleb128 0x3
 4085 033d 0E       		.uleb128 0xe
 4086 033e 3A       		.uleb128 0x3a
 4087 033f 0B       		.uleb128 0xb
 4088 0340 3B       		.uleb128 0x3b
 4089 0341 0B       		.uleb128 0xb
 4090 0342 27       		.uleb128 0x27
 4091 0343 19       		.uleb128 0x19
 4092 0344 49       		.uleb128 0x49
 4093 0345 13       		.uleb128 0x13
 4094 0346 3C       		.uleb128 0x3c
 4095 0347 19       		.uleb128 0x19
 4096 0348 01       		.uleb128 0x1
 4097 0349 13       		.uleb128 0x13
 4098 034a 00       		.byte	0
 4099 034b 00       		.byte	0
 4100 034c 40       		.uleb128 0x40
 4101 034d 2E       		.uleb128 0x2e
 4102 034e 01       		.byte	0x1
 4103 034f 3F       		.uleb128 0x3f
 4104 0350 19       		.uleb128 0x19
 4105 0351 03       		.uleb128 0x3
 4106 0352 0E       		.uleb128 0xe
 4107 0353 3A       		.uleb128 0x3a
 4108 0354 0B       		.uleb128 0xb
 4109 0355 3B       		.uleb128 0x3b
 4110 0356 0B       		.uleb128 0xb
 4111 0357 27       		.uleb128 0x27
 4112 0358 19       		.uleb128 0x19
 4113 0359 3C       		.uleb128 0x3c
 4114 035a 19       		.uleb128 0x19
 4115 035b 01       		.uleb128 0x1
 4116 035c 13       		.uleb128 0x13
 4117 035d 00       		.byte	0
 4118 035e 00       		.byte	0
 4119 035f 41       		.uleb128 0x41
 4120 0360 2E       		.uleb128 0x2e
 4121 0361 01       		.byte	0x1
 4122 0362 3F       		.uleb128 0x3f
 4123 0363 19       		.uleb128 0x19
 4124 0364 03       		.uleb128 0x3
 4125 0365 0E       		.uleb128 0xe
 4126 0366 27       		.uleb128 0x27
 4127 0367 19       		.uleb128 0x19
 4128 0368 49       		.uleb128 0x49
 4129 0369 13       		.uleb128 0x13
 4130 036a 34       		.uleb128 0x34
ARM GAS  /tmp/ccWx56sG.s 			page 74


 4131 036b 19       		.uleb128 0x19
 4132 036c 3C       		.uleb128 0x3c
 4133 036d 19       		.uleb128 0x19
 4134 036e 01       		.uleb128 0x1
 4135 036f 13       		.uleb128 0x13
 4136 0370 00       		.byte	0
 4137 0371 00       		.byte	0
 4138 0372 42       		.uleb128 0x42
 4139 0373 26       		.uleb128 0x26
 4140 0374 00       		.byte	0
 4141 0375 00       		.byte	0
 4142 0376 00       		.byte	0
 4143 0377 43       		.uleb128 0x43
 4144 0378 2E       		.uleb128 0x2e
 4145 0379 00       		.byte	0
 4146 037a 3F       		.uleb128 0x3f
 4147 037b 19       		.uleb128 0x19
 4148 037c 03       		.uleb128 0x3
 4149 037d 0E       		.uleb128 0xe
 4150 037e 3A       		.uleb128 0x3a
 4151 037f 0B       		.uleb128 0xb
 4152 0380 3B       		.uleb128 0x3b
 4153 0381 0B       		.uleb128 0xb
 4154 0382 27       		.uleb128 0x27
 4155 0383 19       		.uleb128 0x19
 4156 0384 49       		.uleb128 0x49
 4157 0385 13       		.uleb128 0x13
 4158 0386 3C       		.uleb128 0x3c
 4159 0387 19       		.uleb128 0x19
 4160 0388 00       		.byte	0
 4161 0389 00       		.byte	0
 4162 038a 44       		.uleb128 0x44
 4163 038b 2E       		.uleb128 0x2e
 4164 038c 00       		.byte	0
 4165 038d 3F       		.uleb128 0x3f
 4166 038e 19       		.uleb128 0x19
 4167 038f 03       		.uleb128 0x3
 4168 0390 0E       		.uleb128 0xe
 4169 0391 3A       		.uleb128 0x3a
 4170 0392 0B       		.uleb128 0xb
 4171 0393 3B       		.uleb128 0x3b
 4172 0394 0B       		.uleb128 0xb
 4173 0395 27       		.uleb128 0x27
 4174 0396 19       		.uleb128 0x19
 4175 0397 3C       		.uleb128 0x3c
 4176 0398 19       		.uleb128 0x19
 4177 0399 00       		.byte	0
 4178 039a 00       		.byte	0
 4179 039b 45       		.uleb128 0x45
 4180 039c 2E       		.uleb128 0x2e
 4181 039d 01       		.byte	0x1
 4182 039e 3F       		.uleb128 0x3f
 4183 039f 19       		.uleb128 0x19
 4184 03a0 03       		.uleb128 0x3
 4185 03a1 0E       		.uleb128 0xe
 4186 03a2 3A       		.uleb128 0x3a
 4187 03a3 0B       		.uleb128 0xb
ARM GAS  /tmp/ccWx56sG.s 			page 75


 4188 03a4 3B       		.uleb128 0x3b
 4189 03a5 0B       		.uleb128 0xb
 4190 03a6 27       		.uleb128 0x27
 4191 03a7 19       		.uleb128 0x19
 4192 03a8 3C       		.uleb128 0x3c
 4193 03a9 19       		.uleb128 0x19
 4194 03aa 00       		.byte	0
 4195 03ab 00       		.byte	0
 4196 03ac 00       		.byte	0
 4197              		.section	.debug_loc,"",%progbits
 4198              	.Ldebug_loc0:
 4199              	.LLST0:
 4200 0000 00000000 		.4byte	.LVL0
 4201 0004 1A000000 		.4byte	.LVL1
 4202 0008 0100     		.2byte	0x1
 4203 000a 50       		.byte	0x50
 4204 000b 1A000000 		.4byte	.LVL1
 4205 000f 70000000 		.4byte	.LFE260
 4206 0013 0400     		.2byte	0x4
 4207 0015 F3       		.byte	0xf3
 4208 0016 01       		.uleb128 0x1
 4209 0017 50       		.byte	0x50
 4210 0018 9F       		.byte	0x9f
 4211 0019 00000000 		.4byte	0
 4212 001d 00000000 		.4byte	0
 4213              	.LLST1:
 4214 0021 00000000 		.4byte	.LVL5
 4215 0025 14000000 		.4byte	.LVL6
 4216 0029 0100     		.2byte	0x1
 4217 002b 50       		.byte	0x50
 4218 002c 14000000 		.4byte	.LVL6
 4219 0030 D4000000 		.4byte	.LFE259
 4220 0034 0400     		.2byte	0x4
 4221 0036 F3       		.byte	0xf3
 4222 0037 01       		.uleb128 0x1
 4223 0038 50       		.byte	0x50
 4224 0039 9F       		.byte	0x9f
 4225 003a 00000000 		.4byte	0
 4226 003e 00000000 		.4byte	0
 4227              	.LLST2:
 4228 0042 22000000 		.4byte	.LVL9
 4229 0046 30000000 		.4byte	.LVL11
 4230 004a 0200     		.2byte	0x2
 4231 004c 30       		.byte	0x30
 4232 004d 9F       		.byte	0x9f
 4233 004e 30000000 		.4byte	.LVL11
 4234 0052 32000000 		.4byte	.LVL12
 4235 0056 0100     		.2byte	0x1
 4236 0058 50       		.byte	0x50
 4237 0059 32000000 		.4byte	.LVL12
 4238 005d 6A000000 		.4byte	.LVL20
 4239 0061 0100     		.2byte	0x1
 4240 0063 56       		.byte	0x56
 4241 0064 6A000000 		.4byte	.LVL20
 4242 0068 6F000000 		.4byte	.LVL21-1
 4243 006c 0300     		.2byte	0x3
 4244 006e 72       		.byte	0x72
ARM GAS  /tmp/ccWx56sG.s 			page 76


 4245 006f 05       		.sleb128 5
 4246 0070 9F       		.byte	0x9f
 4247 0071 8A000000 		.4byte	.LVL25
 4248 0075 D4000000 		.4byte	.LFE259
 4249 0079 0100     		.2byte	0x1
 4250 007b 56       		.byte	0x56
 4251 007c 00000000 		.4byte	0
 4252 0080 00000000 		.4byte	0
 4253              	.LLST3:
 4254 0084 22000000 		.4byte	.LVL9
 4255 0088 4C000000 		.4byte	.LVL15
 4256 008c 0200     		.2byte	0x2
 4257 008e 30       		.byte	0x30
 4258 008f 9F       		.byte	0x9f
 4259 0090 4C000000 		.4byte	.LVL15
 4260 0094 5A000000 		.4byte	.LVL18
 4261 0098 0200     		.2byte	0x2
 4262 009a 33       		.byte	0x33
 4263 009b 9F       		.byte	0x9f
 4264 009c 5A000000 		.4byte	.LVL18
 4265 00a0 66000000 		.4byte	.LVL19
 4266 00a4 0200     		.2byte	0x2
 4267 00a6 34       		.byte	0x34
 4268 00a7 9F       		.byte	0x9f
 4269 00a8 66000000 		.4byte	.LVL19
 4270 00ac 8A000000 		.4byte	.LVL25
 4271 00b0 0200     		.2byte	0x2
 4272 00b2 35       		.byte	0x35
 4273 00b3 9F       		.byte	0x9f
 4274 00b4 8A000000 		.4byte	.LVL25
 4275 00b8 D4000000 		.4byte	.LFE259
 4276 00bc 0200     		.2byte	0x2
 4277 00be 30       		.byte	0x30
 4278 00bf 9F       		.byte	0x9f
 4279 00c0 00000000 		.4byte	0
 4280 00c4 00000000 		.4byte	0
 4281              	.LLST4:
 4282 00c8 30000000 		.4byte	.LVL11
 4283 00cc 4E000000 		.4byte	.LVL16
 4284 00d0 0100     		.2byte	0x1
 4285 00d2 54       		.byte	0x54
 4286 00d3 8A000000 		.4byte	.LVL25
 4287 00d7 D4000000 		.4byte	.LFE259
 4288 00db 0100     		.2byte	0x1
 4289 00dd 54       		.byte	0x54
 4290 00de 00000000 		.4byte	0
 4291 00e2 00000000 		.4byte	0
 4292              	.LLST5:
 4293 00e6 4C000000 		.4byte	.LVL15
 4294 00ea 54000000 		.4byte	.LVL17
 4295 00ee 0D00     		.2byte	0xd
 4296 00f0 03       		.byte	0x3
 4297 00f1 01000000 		.4byte	buf.8601+1
 4298 00f5 94       		.byte	0x94
 4299 00f6 01       		.byte	0x1
 4300 00f7 08       		.byte	0x8
 4301 00f8 FF       		.byte	0xff
ARM GAS  /tmp/ccWx56sG.s 			page 77


 4302 00f9 1A       		.byte	0x1a
 4303 00fa 38       		.byte	0x38
 4304 00fb 24       		.byte	0x24
 4305 00fc 9F       		.byte	0x9f
 4306 00fd 54000000 		.4byte	.LVL17
 4307 0101 8A000000 		.4byte	.LVL25
 4308 0105 0100     		.2byte	0x1
 4309 0107 54       		.byte	0x54
 4310 0108 00000000 		.4byte	0
 4311 010c 00000000 		.4byte	0
 4312              	.LLST6:
 4313 0110 66000000 		.4byte	.LVL19
 4314 0114 8A000000 		.4byte	.LVL25
 4315 0118 0100     		.2byte	0x1
 4316 011a 59       		.byte	0x59
 4317 011b 00000000 		.4byte	0
 4318 011f 00000000 		.4byte	0
 4319              	.LLST7:
 4320 0123 6A000000 		.4byte	.LVL20
 4321 0127 7C000000 		.4byte	.LVL23
 4322 012b 0100     		.2byte	0x1
 4323 012d 56       		.byte	0x56
 4324 012e 00000000 		.4byte	0
 4325 0132 00000000 		.4byte	0
 4326              	.LLST8:
 4327 0136 8C000000 		.4byte	.LVL26
 4328 013a 92000000 		.4byte	.LVL27
 4329 013e 0500     		.2byte	0x5
 4330 0140 70       		.byte	0x70
 4331 0141 00       		.sleb128 0
 4332 0142 38       		.byte	0x38
 4333 0143 24       		.byte	0x24
 4334 0144 9F       		.byte	0x9f
 4335 0145 92000000 		.4byte	.LVL27
 4336 0149 9A000000 		.4byte	.LVL28
 4337 014d 0100     		.2byte	0x1
 4338 014f 50       		.byte	0x50
 4339 0150 9A000000 		.4byte	.LVL28
 4340 0154 A1000000 		.4byte	.LVL29-1
 4341 0158 1000     		.2byte	0x10
 4342 015a 03       		.byte	0x3
 4343 015b 01000000 		.4byte	buf.8601+1
 4344 015f 94       		.byte	0x94
 4345 0160 01       		.byte	0x1
 4346 0161 08       		.byte	0x8
 4347 0162 FF       		.byte	0xff
 4348 0163 1A       		.byte	0x1a
 4349 0164 38       		.byte	0x38
 4350 0165 24       		.byte	0x24
 4351 0166 73       		.byte	0x73
 4352 0167 00       		.sleb128 0
 4353 0168 21       		.byte	0x21
 4354 0169 9F       		.byte	0x9f
 4355 016a 00000000 		.4byte	0
 4356 016e 00000000 		.4byte	0
 4357              	.LLST9:
 4358 0172 00000000 		.4byte	.LVL31
ARM GAS  /tmp/ccWx56sG.s 			page 78


 4359 0176 0A000000 		.4byte	.LVL32
 4360 017a 0100     		.2byte	0x1
 4361 017c 50       		.byte	0x50
 4362 017d 0A000000 		.4byte	.LVL32
 4363 0181 18000000 		.4byte	.LFE261
 4364 0185 0400     		.2byte	0x4
 4365 0187 F3       		.byte	0xf3
 4366 0188 01       		.uleb128 0x1
 4367 0189 50       		.byte	0x50
 4368 018a 9F       		.byte	0x9f
 4369 018b 00000000 		.4byte	0
 4370 018f 00000000 		.4byte	0
 4371              	.LLST10:
 4372 0193 00000000 		.4byte	.LVL39
 4373 0197 14000000 		.4byte	.LVL41
 4374 019b 0100     		.2byte	0x1
 4375 019d 50       		.byte	0x50
 4376 019e 14000000 		.4byte	.LVL41
 4377 01a2 19000000 		.4byte	.LVL42-1
 4378 01a6 0100     		.2byte	0x1
 4379 01a8 51       		.byte	0x51
 4380 01a9 19000000 		.4byte	.LVL42-1
 4381 01ad 54000000 		.4byte	.LFE258
 4382 01b1 0400     		.2byte	0x4
 4383 01b3 F3       		.byte	0xf3
 4384 01b4 01       		.uleb128 0x1
 4385 01b5 50       		.byte	0x50
 4386 01b6 9F       		.byte	0x9f
 4387 01b7 00000000 		.4byte	0
 4388 01bb 00000000 		.4byte	0
 4389              	.LLST11:
 4390 01bf 00000000 		.4byte	.LVL39
 4391 01c3 10000000 		.4byte	.LVL40
 4392 01c7 0100     		.2byte	0x1
 4393 01c9 51       		.byte	0x51
 4394 01ca 10000000 		.4byte	.LVL40
 4395 01ce 54000000 		.4byte	.LFE258
 4396 01d2 0400     		.2byte	0x4
 4397 01d4 F3       		.byte	0xf3
 4398 01d5 01       		.uleb128 0x1
 4399 01d6 51       		.byte	0x51
 4400 01d7 9F       		.byte	0x9f
 4401 01d8 00000000 		.4byte	0
 4402 01dc 00000000 		.4byte	0
 4403              	.LLST12:
 4404 01e0 00000000 		.4byte	.LVL46
 4405 01e4 1E000000 		.4byte	.LVL49
 4406 01e8 0100     		.2byte	0x1
 4407 01ea 50       		.byte	0x50
 4408 01eb 1E000000 		.4byte	.LVL49
 4409 01ef F0000000 		.4byte	.LVL71
 4410 01f3 0100     		.2byte	0x1
 4411 01f5 5A       		.byte	0x5a
 4412 01f6 F0000000 		.4byte	.LVL71
 4413 01fa 00010000 		.4byte	.LVL73
 4414 01fe 0100     		.2byte	0x1
 4415 0200 50       		.byte	0x50
ARM GAS  /tmp/ccWx56sG.s 			page 79


 4416 0201 00010000 		.4byte	.LVL73
 4417 0205 28010000 		.4byte	.LFE257
 4418 0209 0100     		.2byte	0x1
 4419 020b 5A       		.byte	0x5a
 4420 020c 00000000 		.4byte	0
 4421 0210 00000000 		.4byte	0
 4422              	.LLST13:
 4423 0214 00000000 		.4byte	.LVL46
 4424 0218 1E000000 		.4byte	.LVL49
 4425 021c 0100     		.2byte	0x1
 4426 021e 51       		.byte	0x51
 4427 021f 1E000000 		.4byte	.LVL49
 4428 0223 F0000000 		.4byte	.LVL71
 4429 0227 0100     		.2byte	0x1
 4430 0229 59       		.byte	0x59
 4431 022a F0000000 		.4byte	.LVL71
 4432 022e FA000000 		.4byte	.LVL72
 4433 0232 0100     		.2byte	0x1
 4434 0234 51       		.byte	0x51
 4435 0235 FA000000 		.4byte	.LVL72
 4436 0239 28010000 		.4byte	.LFE257
 4437 023d 0100     		.2byte	0x1
 4438 023f 59       		.byte	0x59
 4439 0240 00000000 		.4byte	0
 4440 0244 00000000 		.4byte	0
 4441              	.LLST14:
 4442 0248 0E000000 		.4byte	.LVL47
 4443 024c 1E000000 		.4byte	.LVL49
 4444 0250 0200     		.2byte	0x2
 4445 0252 30       		.byte	0x30
 4446 0253 9F       		.byte	0x9f
 4447 0254 1E000000 		.4byte	.LVL49
 4448 0258 66000000 		.4byte	.LVL55
 4449 025c 0100     		.2byte	0x1
 4450 025e 54       		.byte	0x54
 4451 025f 16010000 		.4byte	.LVL78
 4452 0263 28010000 		.4byte	.LFE257
 4453 0267 0100     		.2byte	0x1
 4454 0269 54       		.byte	0x54
 4455 026a 00000000 		.4byte	0
 4456 026e 00000000 		.4byte	0
 4457              	.LLST15:
 4458 0272 12000000 		.4byte	.LVL48
 4459 0276 F0000000 		.4byte	.LVL71
 4460 027a 0100     		.2byte	0x1
 4461 027c 57       		.byte	0x57
 4462 027d 16010000 		.4byte	.LVL78
 4463 0281 28010000 		.4byte	.LFE257
 4464 0285 0100     		.2byte	0x1
 4465 0287 57       		.byte	0x57
 4466 0288 00000000 		.4byte	0
 4467 028c 00000000 		.4byte	0
 4468              	.LLST16:
 4469 0290 AE000000 		.4byte	.LVL62
 4470 0294 BC000000 		.4byte	.LVL63
 4471 0298 0200     		.2byte	0x2
 4472 029a 31       		.byte	0x31
ARM GAS  /tmp/ccWx56sG.s 			page 80


 4473 029b 9F       		.byte	0x9f
 4474 029c BC000000 		.4byte	.LVL63
 4475 02a0 C0000000 		.4byte	.LVL64
 4476 02a4 0200     		.2byte	0x2
 4477 02a6 32       		.byte	0x32
 4478 02a7 9F       		.byte	0x9f
 4479 02a8 C0000000 		.4byte	.LVL64
 4480 02ac CE000000 		.4byte	.LVL66
 4481 02b0 0200     		.2byte	0x2
 4482 02b2 33       		.byte	0x33
 4483 02b3 9F       		.byte	0x9f
 4484 02b4 CE000000 		.4byte	.LVL66
 4485 02b8 DE000000 		.4byte	.LVL68
 4486 02bc 0200     		.2byte	0x2
 4487 02be 34       		.byte	0x34
 4488 02bf 9F       		.byte	0x9f
 4489 02c0 DE000000 		.4byte	.LVL68
 4490 02c4 E2000000 		.4byte	.LVL69
 4491 02c8 0200     		.2byte	0x2
 4492 02ca 35       		.byte	0x35
 4493 02cb 9F       		.byte	0x9f
 4494 02cc E2000000 		.4byte	.LVL69
 4495 02d0 F0000000 		.4byte	.LVL71
 4496 02d4 0300     		.2byte	0x3
 4497 02d6 08       		.byte	0x8
 4498 02d7 6E       		.byte	0x6e
 4499 02d8 9F       		.byte	0x9f
 4500 02d9 00000000 		.4byte	0
 4501 02dd 00000000 		.4byte	0
 4502              	.LLST17:
 4503 02e1 CE000000 		.4byte	.LVL66
 4504 02e5 D6000000 		.4byte	.LVL67
 4505 02e9 0100     		.2byte	0x1
 4506 02eb 50       		.byte	0x50
 4507 02ec 00000000 		.4byte	0
 4508 02f0 00000000 		.4byte	0
 4509              	.LLST18:
 4510 02f4 12000000 		.4byte	.LVL48
 4511 02f8 1E000000 		.4byte	.LVL49
 4512 02fc 0200     		.2byte	0x2
 4513 02fe 30       		.byte	0x30
 4514 02ff 9F       		.byte	0x9f
 4515 0300 1E000000 		.4byte	.LVL49
 4516 0304 20000000 		.4byte	.LVL50
 4517 0308 0100     		.2byte	0x1
 4518 030a 54       		.byte	0x54
 4519 030b 20000000 		.4byte	.LVL50
 4520 030f 46000000 		.4byte	.LVL53
 4521 0313 0400     		.2byte	0x4
 4522 0315 74       		.byte	0x74
 4523 0316 947F     		.sleb128 -108
 4524 0318 9F       		.byte	0x9f
 4525 0319 46000000 		.4byte	.LVL53
 4526 031d 66000000 		.4byte	.LVL55
 4527 0321 0100     		.2byte	0x1
 4528 0323 54       		.byte	0x54
 4529 0324 16010000 		.4byte	.LVL78
ARM GAS  /tmp/ccWx56sG.s 			page 81


 4530 0328 23010000 		.4byte	.LVL79-1
 4531 032c 0100     		.2byte	0x1
 4532 032e 53       		.byte	0x53
 4533 032f 23010000 		.4byte	.LVL79-1
 4534 0333 28010000 		.4byte	.LFE257
 4535 0337 0400     		.2byte	0x4
 4536 0339 74       		.byte	0x74
 4537 033a 947F     		.sleb128 -108
 4538 033c 9F       		.byte	0x9f
 4539 033d 00000000 		.4byte	0
 4540 0341 00000000 		.4byte	0
 4541              	.LLST19:
 4542 0345 20000000 		.4byte	.LVL50
 4543 0349 40000000 		.4byte	.LVL52
 4544 034d 0300     		.2byte	0x3
 4545 034f 08       		.byte	0x8
 4546 0350 6C       		.byte	0x6c
 4547 0351 9F       		.byte	0x9f
 4548 0352 16010000 		.4byte	.LVL78
 4549 0356 28010000 		.4byte	.LFE257
 4550 035a 0300     		.2byte	0x3
 4551 035c 76       		.byte	0x76
 4552 035d 7E       		.sleb128 -2
 4553 035e 9F       		.byte	0x9f
 4554 035f 00000000 		.4byte	0
 4555 0363 00000000 		.4byte	0
 4556              	.LLST20:
 4557 0367 58000000 		.4byte	.LVL54
 4558 036b 66000000 		.4byte	.LVL55
 4559 036f 0400     		.2byte	0x4
 4560 0371 0A       		.byte	0xa
 4561 0372 4401     		.2byte	0x144
 4562 0374 9F       		.byte	0x9f
 4563 0375 66000000 		.4byte	.LVL55
 4564 0379 72000000 		.4byte	.LVL58
 4565 037d 0400     		.2byte	0x4
 4566 037f 74       		.byte	0x74
 4567 0380 957F     		.sleb128 -107
 4568 0382 9F       		.byte	0x9f
 4569 0383 72000000 		.4byte	.LVL58
 4570 0387 86000000 		.4byte	.LVL60
 4571 038b 0100     		.2byte	0x1
 4572 038d 54       		.byte	0x54
 4573 038e 86000000 		.4byte	.LVL60
 4574 0392 AE000000 		.4byte	.LVL62
 4575 0396 0400     		.2byte	0x4
 4576 0398 74       		.byte	0x74
 4577 0399 957F     		.sleb128 -107
 4578 039b 9F       		.byte	0x9f
 4579 039c 00000000 		.4byte	0
 4580 03a0 00000000 		.4byte	0
 4581              	.LLST21:
 4582 03a4 66000000 		.4byte	.LVL55
 4583 03a8 6C000000 		.4byte	.LVL57
 4584 03ac 0300     		.2byte	0x3
 4585 03ae 75       		.byte	0x75
 4586 03af 7D       		.sleb128 -3
ARM GAS  /tmp/ccWx56sG.s 			page 82


 4587 03b0 9F       		.byte	0x9f
 4588 03b1 7E000000 		.4byte	.LVL59
 4589 03b5 AE000000 		.4byte	.LVL62
 4590 03b9 0300     		.2byte	0x3
 4591 03bb 75       		.byte	0x75
 4592 03bc 7D       		.sleb128 -3
 4593 03bd 9F       		.byte	0x9f
 4594 03be 00000000 		.4byte	0
 4595 03c2 00000000 		.4byte	0
 4596              	.LLST22:
 4597 03c6 F0000000 		.4byte	.LVL71
 4598 03ca 04010000 		.4byte	.LVL74
 4599 03ce 0200     		.2byte	0x2
 4600 03d0 31       		.byte	0x31
 4601 03d1 9F       		.byte	0x9f
 4602 03d2 04010000 		.4byte	.LVL74
 4603 03d6 08010000 		.4byte	.LVL75
 4604 03da 0300     		.2byte	0x3
 4605 03dc 79       		.byte	0x79
 4606 03dd 01       		.sleb128 1
 4607 03de 9F       		.byte	0x9f
 4608 03df 08010000 		.4byte	.LVL75
 4609 03e3 0C010000 		.4byte	.LVL76
 4610 03e7 0100     		.2byte	0x1
 4611 03e9 51       		.byte	0x51
 4612 03ea 0C010000 		.4byte	.LVL76
 4613 03ee 16010000 		.4byte	.LVL78
 4614 03f2 0300     		.2byte	0x3
 4615 03f4 79       		.byte	0x79
 4616 03f5 01       		.sleb128 1
 4617 03f6 9F       		.byte	0x9f
 4618 03f7 00000000 		.4byte	0
 4619 03fb 00000000 		.4byte	0
 4620              		.section	.debug_aranges,"",%progbits
 4621 0000 44000000 		.4byte	0x44
 4622 0004 0200     		.2byte	0x2
 4623 0006 00000000 		.4byte	.Ldebug_info0
 4624 000a 04       		.byte	0x4
 4625 000b 00       		.byte	0
 4626 000c 0000     		.2byte	0
 4627 000e 0000     		.2byte	0
 4628 0010 00000000 		.4byte	.LFB260
 4629 0014 70000000 		.4byte	.LFE260-.LFB260
 4630 0018 00000000 		.4byte	.LFB259
 4631 001c D4000000 		.4byte	.LFE259-.LFB259
 4632 0020 00000000 		.4byte	.LFB261
 4633 0024 18000000 		.4byte	.LFE261-.LFB261
 4634 0028 00000000 		.4byte	.LFB256
 4635 002c 74000000 		.4byte	.LFE256-.LFB256
 4636 0030 00000000 		.4byte	.LFB258
 4637 0034 54000000 		.4byte	.LFE258-.LFB258
 4638 0038 00000000 		.4byte	.LFB257
 4639 003c 28010000 		.4byte	.LFE257-.LFB257
 4640 0040 00000000 		.4byte	0
 4641 0044 00000000 		.4byte	0
 4642              		.section	.debug_ranges,"",%progbits
 4643              	.Ldebug_ranges0:
ARM GAS  /tmp/ccWx56sG.s 			page 83


 4644 0000 00000000 		.4byte	.LBB71
 4645 0004 02000000 		.4byte	.LBE71
 4646 0008 04000000 		.4byte	.LBB75
 4647 000c 12000000 		.4byte	.LBE75
 4648 0010 14000000 		.4byte	.LBB76
 4649 0014 16000000 		.4byte	.LBE76
 4650 0018 00000000 		.4byte	0
 4651 001c 00000000 		.4byte	0
 4652 0020 10000000 		.4byte	.LBB79
 4653 0024 14000000 		.4byte	.LBE79
 4654 0028 22000000 		.4byte	.LBB82
 4655 002c D4000000 		.4byte	.LBE82
 4656 0030 00000000 		.4byte	0
 4657 0034 00000000 		.4byte	0
 4658 0038 30000000 		.4byte	.LBB110
 4659 003c 34000000 		.4byte	.LBE110
 4660 0040 3C000000 		.4byte	.LBB121
 4661 0044 54000000 		.4byte	.LBE121
 4662 0048 00000000 		.4byte	0
 4663 004c 00000000 		.4byte	0
 4664 0050 0E000000 		.4byte	.LBB122
 4665 0054 EA000000 		.4byte	.LBE122
 4666 0058 18010000 		.4byte	.LBB132
 4667 005c 28010000 		.4byte	.LBE132
 4668 0060 00000000 		.4byte	0
 4669 0064 00000000 		.4byte	0
 4670 0068 1A000000 		.4byte	.LBB123
 4671 006c 60000000 		.4byte	.LBE123
 4672 0070 18010000 		.4byte	.LBB130
 4673 0074 28010000 		.4byte	.LBE130
 4674 0078 00000000 		.4byte	0
 4675 007c 00000000 		.4byte	0
 4676 0080 1A000000 		.4byte	.LBB124
 4677 0084 48000000 		.4byte	.LBE124
 4678 0088 52000000 		.4byte	.LBB125
 4679 008c 60000000 		.4byte	.LBE125
 4680 0090 18010000 		.4byte	.LBB126
 4681 0094 28010000 		.4byte	.LBE126
 4682 0098 00000000 		.4byte	0
 4683 009c 00000000 		.4byte	0
 4684 00a0 60000000 		.4byte	.LBB128
 4685 00a4 74000000 		.4byte	.LBE128
 4686 00a8 7E000000 		.4byte	.LBB129
 4687 00ac AE000000 		.4byte	.LBE129
 4688 00b0 00000000 		.4byte	0
 4689 00b4 00000000 		.4byte	0
 4690 00b8 00000000 		.4byte	.LFB260
 4691 00bc 70000000 		.4byte	.LFE260
 4692 00c0 00000000 		.4byte	.LFB259
 4693 00c4 D4000000 		.4byte	.LFE259
 4694 00c8 00000000 		.4byte	.LFB261
 4695 00cc 18000000 		.4byte	.LFE261
 4696 00d0 00000000 		.4byte	.LFB256
 4697 00d4 74000000 		.4byte	.LFE256
 4698 00d8 00000000 		.4byte	.LFB258
 4699 00dc 54000000 		.4byte	.LFE258
 4700 00e0 00000000 		.4byte	.LFB257
ARM GAS  /tmp/ccWx56sG.s 			page 84


 4701 00e4 28010000 		.4byte	.LFE257
 4702 00e8 00000000 		.4byte	0
 4703 00ec 00000000 		.4byte	0
 4704              		.section	.debug_line,"",%progbits
 4705              	.Ldebug_line0:
 4706 0000 F8030000 		.section	.debug_str,"MS",%progbits,1
 4706      02008702 
 4706      00000201 
 4706      FB0E0D00 
 4706      01010101 
 4707              	.LASF177:
 4708 0000 72665F63 		.ascii	"rf_control.c\000"
 4708      6F6E7472 
 4708      6F6C2E63 
 4708      00
 4709              	.LASF104:
 4710 000d 7466756E 		.ascii	"tfunc_t\000"
 4710      635F7400 
 4711              	.LASF115:
 4712 0015 75696E74 		.ascii	"uint16\000"
 4712      313600
 4713              	.LASF54:
 4714 001c 72656164 		.ascii	"ready_list_t\000"
 4714      795F6C69 
 4714      73745F74 
 4714      00
 4715              	.LASF2:
 4716 0029 73697A65 		.ascii	"size_t\000"
 4716      5F7400
 4717              	.LASF89:
 4718 0030 7264796D 		.ascii	"rdymsg\000"
 4718      736700
 4719              	.LASF17:
 4720 0037 75696E74 		.ascii	"uint64_t\000"
 4720      36345F74 
 4720      00
 4721              	.LASF25:
 4722 0040 6576656E 		.ascii	"eventmask_t\000"
 4722      746D6173 
 4722      6B5F7400 
 4723              	.LASF3:
 4724 004c 5F5F7569 		.ascii	"__uint8_t\000"
 4724      6E74385F 
 4724      7400
 4725              	.LASF86:
 4726 0056 706F7274 		.ascii	"port_intctx\000"
 4726      5F696E74 
 4726      63747800 
 4727              	.LASF79:
 4728 0062 76746C69 		.ascii	"vtlist\000"
 4728      737400
 4729              	.LASF128:
 4730 0069 63685379 		.ascii	"chSysLockFromISR\000"
 4730      734C6F63 
 4730      6B46726F 
 4730      6D495352 
 4730      00
ARM GAS  /tmp/ccWx56sG.s 			page 85


 4731              	.LASF123:
 4732 007a 706F7274 		.ascii	"port_lock\000"
 4732      5F6C6F63 
 4732      6B00
 4733              	.LASF117:
 4734 0084 70616E49 		.ascii	"panId\000"
 4734      6400
 4735              	.LASF13:
 4736 008a 6C6F6E67 		.ascii	"long long unsigned int\000"
 4736      206C6F6E 
 4736      6720756E 
 4736      7369676E 
 4736      65642069 
 4737              	.LASF80:
 4738 00a1 6D61696E 		.ascii	"mainthread\000"
 4738      74687265 
 4738      616400
 4739              	.LASF70:
 4740 00ac 76697274 		.ascii	"virtual_timers_list_t\000"
 4740      75616C5F 
 4740      74696D65 
 4740      72735F6C 
 4740      6973745F 
 4741              	.LASF162:
 4742 00c2 49544D5F 		.ascii	"ITM_RxBuffer\000"
 4742      52784275 
 4742      66666572 
 4742      00
 4743              	.LASF53:
 4744 00cf 63685F74 		.ascii	"ch_threads_queue\000"
 4744      68726561 
 4744      64735F71 
 4744      75657565 
 4744      00
 4745              	.LASF31:
 4746 00e0 705F7072 		.ascii	"p_prio\000"
 4746      696F00
 4747              	.LASF157:
 4748 00e7 74785F73 		.ascii	"tx_slot_len\000"
 4748      6C6F745F 
 4748      6C656E00 
 4749              	.LASF1:
 4750 00f3 7369676E 		.ascii	"signed char\000"
 4750      65642063 
 4750      68617200 
 4751              	.LASF149:
 4752 00ff 73656E64 		.ascii	"send_buffer\000"
 4752      5F627566 
 4752      66657200 
 4753              	.LASF47:
 4754 010b 705F6D70 		.ascii	"p_mpool\000"
 4754      6F6F6C00 
 4755              	.LASF155:
 4756 0113 74785F74 		.ascii	"tx_thread_wa\000"
 4756      68726561 
 4756      645F7761 
 4756      00
ARM GAS  /tmp/ccWx56sG.s 			page 86


 4757              	.LASF100:
 4758 0120 6D5F7175 		.ascii	"m_queue\000"
 4758      65756500 
 4759              	.LASF124:
 4760 0128 706F7274 		.ascii	"port_unlock\000"
 4760      5F756E6C 
 4760      6F636B00 
 4761              	.LASF22:
 4762 0134 74736C69 		.ascii	"tslices_t\000"
 4762      6365735F 
 4762      7400
 4763              	.LASF143:
 4764 013e 72786275 		.ascii	"rxbuf_ind\000"
 4764      665F696E 
 4764      6400
 4765              	.LASF77:
 4766 0148 63685F73 		.ascii	"ch_system\000"
 4766      79737465 
 4766      6D00
 4767              	.LASF8:
 4768 0152 6C6F6E67 		.ascii	"long int\000"
 4768      20696E74 
 4768      00
 4769              	.LASF20:
 4770 015b 74737461 		.ascii	"tstate_t\000"
 4770      74655F74 
 4770      00
 4771              	.LASF163:
 4772 0164 63684576 		.ascii	"chEvtWaitAny\000"
 4772      74576169 
 4772      74416E79 
 4772      00
 4773              	.LASF166:
 4774 0171 6D656D63 		.ascii	"memcpy\000"
 4774      707900
 4775              	.LASF113:
 4776 0178 75696E74 		.ascii	"uint8\000"
 4776      3800
 4777              	.LASF109:
 4778 017e 4D4F5445 		.ascii	"MOTE_PACKET_FILL_RX_BUFFER_LONG\000"
 4778      5F504143 
 4778      4B45545F 
 4778      46494C4C 
 4778      5F52585F 
 4779              	.LASF33:
 4780 019e 705F6E65 		.ascii	"p_newer\000"
 4780      77657200 
 4781              	.LASF97:
 4782 01a6 735F7175 		.ascii	"s_queue\000"
 4782      65756500 
 4783              	.LASF129:
 4784 01ae 63685379 		.ascii	"chSysUnlockFromISR\000"
 4784      73556E6C 
 4784      6F636B46 
 4784      726F6D49 
 4784      535200
 4785              	.LASF90:
ARM GAS  /tmp/ccWx56sG.s 			page 87


 4786 01c1 65786974 		.ascii	"exitcode\000"
 4786      636F6465 
 4786      00
 4787              	.LASF59:
 4788 01ca 725F6E65 		.ascii	"r_newer\000"
 4788      77657200 
 4789              	.LASF83:
 4790 01d2 72656761 		.ascii	"regarm_t\000"
 4790      726D5F74 
 4790      00
 4791              	.LASF66:
 4792 01db 76745F70 		.ascii	"vt_prev\000"
 4792      72657600 
 4793              	.LASF87:
 4794 01e3 6F666673 		.ascii	"offset\000"
 4794      657400
 4795              	.LASF159:
 4796 01ea 74785F73 		.ascii	"tx_slot_write\000"
 4796      6C6F745F 
 4796      77726974 
 4796      6500
 4797              	.LASF105:
 4798 01f8 6D757465 		.ascii	"mutex_t\000"
 4798      785F7400 
 4799              	.LASF174:
 4800 0200 62617369 		.ascii	"basicRfReceiveOn\000"
 4800      63526652 
 4800      65636569 
 4800      76654F6E 
 4800      00
 4801              	.LASF81:
 4802 0211 69646C65 		.ascii	"idle_thread_wa\000"
 4802      5F746872 
 4802      6561645F 
 4802      776100
 4803              	.LASF26:
 4804 0220 636E745F 		.ascii	"cnt_t\000"
 4804      7400
 4805              	.LASF0:
 4806 0226 756E7369 		.ascii	"unsigned int\000"
 4806      676E6564 
 4806      20696E74 
 4806      00
 4807              	.LASF65:
 4808 0233 76745F6E 		.ascii	"vt_next\000"
 4808      65787400 
 4809              	.LASF93:
 4810 023b 77747365 		.ascii	"wtsemp\000"
 4810      6D7000
 4811              	.LASF67:
 4812 0242 76745F64 		.ascii	"vt_delta\000"
 4812      656C7461 
 4812      00
 4813              	.LASF164:
 4814 024b 62617369 		.ascii	"basicRfSendPacket\000"
 4814      63526653 
 4814      656E6450 
ARM GAS  /tmp/ccWx56sG.s 			page 88


 4814      61636B65 
 4814      7400
 4815              	.LASF146:
 4816 025d 72665F63 		.ascii	"rf_control_send_packet\000"
 4816      6F6E7472 
 4816      6F6C5F73 
 4816      656E645F 
 4816      7061636B 
 4817              	.LASF145:
 4818 0274 72665F63 		.ascii	"rf_control_init\000"
 4818      6F6E7472 
 4818      6F6C5F69 
 4818      6E697400 
 4819              	.LASF127:
 4820 0284 6E616D65 		.ascii	"name\000"
 4820      00
 4821              	.LASF152:
 4822 0289 73656E64 		.ascii	"send_len\000"
 4822      5F6C656E 
 4822      00
 4823              	.LASF98:
 4824 0292 735F636E 		.ascii	"s_cnt\000"
 4824      7400
 4825              	.LASF147:
 4826 0298 64617461 		.ascii	"data\000"
 4826      00
 4827              	.LASF85:
 4828 029d 636F6E74 		.ascii	"context\000"
 4828      65787400 
 4829              	.LASF6:
 4830 02a5 73686F72 		.ascii	"short unsigned int\000"
 4830      7420756E 
 4830      7369676E 
 4830      65642069 
 4830      6E7400
 4831              	.LASF11:
 4832 02b8 6C6F6E67 		.ascii	"long long int\000"
 4832      206C6F6E 
 4832      6720696E 
 4832      7400
 4833              	.LASF52:
 4834 02c6 74687265 		.ascii	"threads_queue_t\000"
 4834      6164735F 
 4834      71756575 
 4834      655F7400 
 4835              	.LASF50:
 4836 02d6 63685F74 		.ascii	"ch_thread\000"
 4836      68726561 
 4836      6400
 4837              	.LASF138:
 4838 02e0 72785F74 		.ascii	"rx_thread\000"
 4838      68726561 
 4838      6400
 4839              	.LASF24:
 4840 02ea 6D73675F 		.ascii	"msg_t\000"
 4840      7400
 4841              	.LASF111:
ARM GAS  /tmp/ccWx56sG.s 			page 89


 4842 02f0 4D4F5445 		.ascii	"MOTE_PACKET_PROCESS_SHORT_BUFFER\000"
 4842      5F504143 
 4842      4B45545F 
 4842      50524F43 
 4842      4553535F 
 4843              	.LASF142:
 4844 0311 6372635F 		.ascii	"crc_low\000"
 4844      6C6F7700 
 4845              	.LASF76:
 4846 0319 63685F73 		.ascii	"ch_system_t\000"
 4846      79737465 
 4846      6D5F7400 
 4847              	.LASF119:
 4848 0325 61636B52 		.ascii	"ackRequest\000"
 4848      65717565 
 4848      737400
 4849              	.LASF19:
 4850 0330 746D6F64 		.ascii	"tmode_t\000"
 4850      655F7400 
 4851              	.LASF154:
 4852 0338 72785F74 		.ascii	"rx_thread_wa\000"
 4852      68726561 
 4852      645F7761 
 4852      00
 4853              	.LASF55:
 4854 0345 63685F72 		.ascii	"ch_ready_list\000"
 4854      65616479 
 4854      5F6C6973 
 4854      7400
 4855              	.LASF183:
 4856 0353 63685654 		.ascii	"chVTDoSetI\000"
 4856      446F5365 
 4856      744900
 4857              	.LASF7:
 4858 035e 5F5F696E 		.ascii	"__int32_t\000"
 4858      7433325F 
 4858      7400
 4859              	.LASF84:
 4860 0368 73746B61 		.ascii	"stkalign_t\000"
 4860      6C69676E 
 4860      5F7400
 4861              	.LASF175:
 4862 0373 63685468 		.ascii	"chThdCreateStatic\000"
 4862      64437265 
 4862      61746553 
 4862      74617469 
 4862      6300
 4863              	.LASF112:
 4864 0385 4D4F5445 		.ascii	"MOTE_PACKET\000"
 4864      5F504143 
 4864      4B455400 
 4865              	.LASF140:
 4866 0391 72786275 		.ascii	"rxbuf_len\000"
 4866      665F6C65 
 4866      6E00
 4867              	.LASF168:
 4868 039b 636F6D6D 		.ascii	"comm_usb_send_packet\000"
ARM GAS  /tmp/ccWx56sG.s 			page 90


 4868      5F757362 
 4868      5F73656E 
 4868      645F7061 
 4868      636B6574 
 4869              	.LASF172:
 4870 03b0 62617369 		.ascii	"basicRfInit\000"
 4870      63526649 
 4870      6E697400 
 4871              	.LASF18:
 4872 03bc 7274636E 		.ascii	"rtcnt_t\000"
 4872      745F7400 
 4873              	.LASF48:
 4874 03c4 74687265 		.ascii	"thread_reference_t\000"
 4874      61645F72 
 4874      65666572 
 4874      656E6365 
 4874      5F7400
 4875              	.LASF88:
 4876 03d7 746D5F63 		.ascii	"tm_calibration_t\000"
 4876      616C6962 
 4876      72617469 
 4876      6F6E5F74 
 4876      00
 4877              	.LASF71:
 4878 03e8 63685F76 		.ascii	"ch_virtual_timers_list\000"
 4878      69727475 
 4878      616C5F74 
 4878      696D6572 
 4878      735F6C69 
 4879              	.LASF92:
 4880 03ff 77747472 		.ascii	"wttrp\000"
 4880      7000
 4881              	.LASF44:
 4882 0405 705F6570 		.ascii	"p_epending\000"
 4882      656E6469 
 4882      6E6700
 4883              	.LASF150:
 4884 0410 656E645F 		.ascii	"end_a\000"
 4884      6100
 4885              	.LASF134:
 4886 0416 63685654 		.ascii	"chVTSetI\000"
 4886      53657449 
 4886      00
 4887              	.LASF34:
 4888 041f 705F6F6C 		.ascii	"p_older\000"
 4888      64657200 
 4889              	.LASF58:
 4890 0427 725F6374 		.ascii	"r_ctx\000"
 4890      7800
 4891              	.LASF144:
 4892 042d 77616B65 		.ascii	"wakeup_tx\000"
 4892      75705F74 
 4892      7800
 4893              	.LASF131:
 4894 0437 63685654 		.ascii	"chVTResetI\000"
 4894      52657365 
 4894      744900
ARM GAS  /tmp/ccWx56sG.s 			page 91


 4895              	.LASF45:
 4896 0442 705F6D74 		.ascii	"p_mtxlist\000"
 4896      786C6973 
 4896      7400
 4897              	.LASF108:
 4898 044c 4D4F5445 		.ascii	"MOTE_PACKET_FILL_RX_BUFFER\000"
 4898      5F504143 
 4898      4B45545F 
 4898      46494C4C 
 4898      5F52585F 
 4899              	.LASF68:
 4900 0467 76745F66 		.ascii	"vt_func\000"
 4900      756E6300 
 4901              	.LASF161:
 4902 046f 72785F62 		.ascii	"rx_buffer\000"
 4902      75666665 
 4902      7200
 4903              	.LASF38:
 4904 0479 705F7265 		.ascii	"p_refs\000"
 4904      667300
 4905              	.LASF139:
 4906 0480 7061636B 		.ascii	"packet\000"
 4906      657400
 4907              	.LASF61:
 4908 0487 725F6375 		.ascii	"r_current\000"
 4908      7272656E 
 4908      7400
 4909              	.LASF60:
 4910 0491 725F6F6C 		.ascii	"r_older\000"
 4910      64657200 
 4911              	.LASF122:
 4912 0499 5F5F656E 		.ascii	"__enable_irq\000"
 4912      61626C65 
 4912      5F697271 
 4912      00
 4913              	.LASF148:
 4914 04a6 72665F63 		.ascii	"rf_control_send_buffer\000"
 4914      6F6E7472 
 4914      6F6C5F73 
 4914      656E645F 
 4914      62756666 
 4915              	.LASF165:
 4916 04bd 6C65645F 		.ascii	"led_toggle\000"
 4916      746F6767 
 4916      6C6500
 4917              	.LASF12:
 4918 04c8 5F5F7569 		.ascii	"__uint64_t\000"
 4918      6E743634 
 4918      5F7400
 4919              	.LASF107:
 4920 04d3 666C6F61 		.ascii	"float\000"
 4920      7400
 4921              	.LASF121:
 4922 04d9 5F5F6469 		.ascii	"__disable_irq\000"
 4922      7361626C 
 4922      655F6972 
 4922      7100
ARM GAS  /tmp/ccWx56sG.s 			page 92


 4923              	.LASF110:
 4924 04e7 4D4F5445 		.ascii	"MOTE_PACKET_PROCESS_RX_BUFFER\000"
 4924      5F504143 
 4924      4B45545F 
 4924      50524F43 
 4924      4553535F 
 4925              	.LASF63:
 4926 0505 76697274 		.ascii	"virtual_timer_t\000"
 4926      75616C5F 
 4926      74696D65 
 4926      725F7400 
 4927              	.LASF30:
 4928 0515 705F7072 		.ascii	"p_prev\000"
 4928      657600
 4929              	.LASF23:
 4930 051c 74707269 		.ascii	"tprio_t\000"
 4930      6F5F7400 
 4931              	.LASF178:
 4932 0524 2F686F6D 		.ascii	"/home/benjamin/Skrivbord/SP-RCCar/Embedded/Mote/\000"
 4932      652F6265 
 4932      6E6A616D 
 4932      696E2F53 
 4932      6B726976 
 4933              	.LASF73:
 4934 0555 73797374 		.ascii	"system_debug_t\000"
 4934      656D5F64 
 4934      65627567 
 4934      5F7400
 4935              	.LASF74:
 4936 0564 63685F73 		.ascii	"ch_system_debug\000"
 4936      79737465 
 4936      6D5F6465 
 4936      62756700 
 4937              	.LASF106:
 4938 0574 5F426F6F 		.ascii	"_Bool\000"
 4938      6C00
 4939              	.LASF15:
 4940 057a 696E7433 		.ascii	"int32_t\000"
 4940      325F7400 
 4941              	.LASF4:
 4942 0582 756E7369 		.ascii	"unsigned char\000"
 4942      676E6564 
 4942      20636861 
 4942      7200
 4943              	.LASF135:
 4944 0590 64656C61 		.ascii	"delay\000"
 4944      7900
 4945              	.LASF5:
 4946 0596 73686F72 		.ascii	"short int\000"
 4946      7420696E 
 4946      7400
 4947              	.LASF36:
 4948 05a0 705F7374 		.ascii	"p_state\000"
 4948      61746500 
 4949              	.LASF182:
 4950 05a8 62617369 		.ascii	"basicRfPacketIsReady\000"
 4950      63526650 
ARM GAS  /tmp/ccWx56sG.s 			page 93


 4950      61636B65 
 4950      74497352 
 4950      65616479 
 4951              	.LASF39:
 4952 05bd 705F7072 		.ascii	"p_preempt\000"
 4952      65656D70 
 4952      7400
 4953              	.LASF57:
 4954 05c7 725F7072 		.ascii	"r_prio\000"
 4954      696F00
 4955              	.LASF169:
 4956 05ce 62617369 		.ascii	"basicRfReceive\000"
 4956      63526652 
 4956      65636569 
 4956      766500
 4957              	.LASF95:
 4958 05dd 65776D61 		.ascii	"ewmask\000"
 4958      736B00
 4959              	.LASF29:
 4960 05e4 705F6E65 		.ascii	"p_next\000"
 4960      787400
 4961              	.LASF37:
 4962 05eb 705F666C 		.ascii	"p_flags\000"
 4962      61677300 
 4963              	.LASF181:
 4964 05f3 5F5F6675 		.ascii	"__func__\000"
 4964      6E635F5F 
 4964      00
 4965              	.LASF132:
 4966 05fc 63685379 		.ascii	"chSysLock\000"
 4966      734C6F63 
 4966      6B00
 4967              	.LASF137:
 4968 0606 74785F74 		.ascii	"tx_thread\000"
 4968      68726561 
 4968      6400
 4969              	.LASF179:
 4970 0610 63685654 		.ascii	"chVTIsArmedI\000"
 4970      49734172 
 4970      6D656449 
 4970      00
 4971              	.LASF118:
 4972 061d 6368616E 		.ascii	"channel\000"
 4972      6E656C00 
 4973              	.LASF141:
 4974 0625 6372635F 		.ascii	"crc_high\000"
 4974      68696768 
 4974      00
 4975              	.LASF96:
 4976 062e 63685F73 		.ascii	"ch_semaphore\000"
 4976      656D6170 
 4976      686F7265 
 4976      00
 4977              	.LASF160:
 4978 063b 74785F74 		.ascii	"tx_tp\000"
 4978      7000
 4979              	.LASF16:
ARM GAS  /tmp/ccWx56sG.s 			page 94


 4980 0641 75696E74 		.ascii	"uint32_t\000"
 4980      33325F74 
 4980      00
 4981              	.LASF94:
 4982 064a 77746D74 		.ascii	"wtmtxp\000"
 4982      787000
 4983              	.LASF56:
 4984 0651 725F7175 		.ascii	"r_queue\000"
 4984      65756500 
 4985              	.LASF72:
 4986 0659 76745F73 		.ascii	"vt_systime\000"
 4986      79737469 
 4986      6D6500
 4987              	.LASF51:
 4988 0664 63685F74 		.ascii	"ch_threads_list\000"
 4988      68726561 
 4988      64735F6C 
 4988      69737400 
 4989              	.LASF10:
 4990 0674 6C6F6E67 		.ascii	"long unsigned int\000"
 4990      20756E73 
 4990      69676E65 
 4990      6420696E 
 4990      7400
 4991              	.LASF103:
 4992 0686 63686172 		.ascii	"char\000"
 4992      00
 4993              	.LASF173:
 4994 068b 68616C41 		.ascii	"halAssyInit\000"
 4994      73737949 
 4994      6E697400 
 4995              	.LASF167:
 4996 0697 63726331 		.ascii	"crc16\000"
 4996      3600
 4997              	.LASF126:
 4998 069d 706F7274 		.ascii	"port_unlock_from_isr\000"
 4998      5F756E6C 
 4998      6F636B5F 
 4998      66726F6D 
 4998      5F697372 
 4999              	.LASF28:
 5000 06b2 74687265 		.ascii	"thread_t\000"
 5000      61645F74 
 5000      00
 5001              	.LASF102:
 5002 06bb 6D5F6E65 		.ascii	"m_next\000"
 5002      787400
 5003              	.LASF27:
 5004 06c2 73797374 		.ascii	"systime_t\000"
 5004      696D655F 
 5004      7400
 5005              	.LASF46:
 5006 06cc 705F7265 		.ascii	"p_realprio\000"
 5006      616C7072 
 5006      696F00
 5007              	.LASF62:
 5008 06d7 76746675 		.ascii	"vtfunc_t\000"
ARM GAS  /tmp/ccWx56sG.s 			page 95


 5008      6E635F74 
 5008      00
 5009              	.LASF9:
 5010 06e0 5F5F7569 		.ascii	"__uint32_t\000"
 5010      6E743332 
 5010      5F7400
 5011              	.LASF75:
 5012 06eb 70616E69 		.ascii	"panic_msg\000"
 5012      635F6D73 
 5012      6700
 5013              	.LASF120:
 5014 06f5 62617369 		.ascii	"basicRfCfg_t\000"
 5014      63526643 
 5014      66675F74 
 5014      00
 5015              	.LASF40:
 5016 0702 705F7469 		.ascii	"p_time\000"
 5016      6D6500
 5017              	.LASF158:
 5018 0709 74785F73 		.ascii	"tx_slot_read\000"
 5018      6C6F745F 
 5018      72656164 
 5018      00
 5019              	.LASF64:
 5020 0716 63685F76 		.ascii	"ch_virtual_timer\000"
 5020      69727475 
 5020      616C5F74 
 5020      696D6572 
 5020      00
 5021              	.LASF153:
 5022 0727 62617369 		.ascii	"basicRfConfig\000"
 5022      63526643 
 5022      6F6E6669 
 5022      6700
 5023              	.LASF125:
 5024 0735 706F7274 		.ascii	"port_lock_from_isr\000"
 5024      5F6C6F63 
 5024      6B5F6672 
 5024      6F6D5F69 
 5024      737200
 5025              	.LASF42:
 5026 0748 705F6D73 		.ascii	"p_msgqueue\000"
 5026      67717565 
 5026      756500
 5027              	.LASF69:
 5028 0753 76745F70 		.ascii	"vt_par\000"
 5028      617200
 5029              	.LASF116:
 5030 075a 6D794164 		.ascii	"myAddr\000"
 5030      647200
 5031              	.LASF156:
 5032 0761 74785F62 		.ascii	"tx_buffer\000"
 5032      75666665 
 5032      7200
 5033              	.LASF136:
 5034 076b 76746675 		.ascii	"vtfunc\000"
 5034      6E6300
ARM GAS  /tmp/ccWx56sG.s 			page 96


 5035              	.LASF170:
 5036 0772 63685468 		.ascii	"chThdSleep\000"
 5036      64536C65 
 5036      657000
 5037              	.LASF21:
 5038 077d 74726566 		.ascii	"trefs_t\000"
 5038      735F7400 
 5039              	.LASF78:
 5040 0785 726C6973 		.ascii	"rlist\000"
 5040      7400
 5041              	.LASF180:
 5042 078b 63685468 		.ascii	"chThdGetSelfX\000"
 5042      64476574 
 5042      53656C66 
 5042      5800
 5043              	.LASF14:
 5044 0799 75696E74 		.ascii	"uint8_t\000"
 5044      385F7400 
 5045              	.LASF114:
 5046 07a1 696E7431 		.ascii	"int16\000"
 5046      3600
 5047              	.LASF82:
 5048 07a7 73697A65 		.ascii	"sizetype\000"
 5048      74797065 
 5048      00
 5049              	.LASF176:
 5050 07b0 474E5520 		.ascii	"GNU C 4.9.3 20150529 (release) [ARM/embedded-4_9-br"
 5050      4320342E 
 5050      392E3320 
 5050      32303135 
 5050      30353239 
 5051 07e3 616E6368 		.ascii	"anch revision 227977] -mcpu=cortex-m4 -mfloat-abi=h"
 5051      20726576 
 5051      6973696F 
 5051      6E203232 
 5051      37393737 
 5052 0816 61726420 		.ascii	"ard -mfpu=fpv4-sp-d16 -mno-thumb-interwork -mthumb "
 5052      2D6D6670 
 5052      753D6670 
 5052      76342D73 
 5052      702D6431 
 5053 0849 2D676764 		.ascii	"-ggdb -O2 -std=gnu99 -fomit-frame-pointer -falign-f"
 5053      62202D4F 
 5053      32202D73 
 5053      74643D67 
 5053      6E753939 
 5054 087c 756E6374 		.ascii	"unctions=16 -ffunction-sections -fdata-sections -fn"
 5054      696F6E73 
 5054      3D313620 
 5054      2D666675 
 5054      6E637469 
 5055 08af 6F2D636F 		.ascii	"o-common -fsingle-precision-constant\000"
 5055      6D6D6F6E 
 5055      202D6673 
 5055      696E676C 
 5055      652D7072 
 5056              	.LASF99:
ARM GAS  /tmp/ccWx56sG.s 			page 97


 5057 08d4 63685F6D 		.ascii	"ch_mutex\000"
 5057      75746578 
 5057      00
 5058              	.LASF35:
 5059 08dd 705F6E61 		.ascii	"p_name\000"
 5059      6D6500
 5060              	.LASF91:
 5061 08e4 77746F62 		.ascii	"wtobjp\000"
 5061      6A7000
 5062              	.LASF49:
 5063 08eb 74687265 		.ascii	"threads_list_t\000"
 5063      6164735F 
 5063      6C697374 
 5063      5F7400
 5064              	.LASF151:
 5065 08fa 6C656E32 		.ascii	"len2\000"
 5065      00
 5066              	.LASF133:
 5067 08ff 63685379 		.ascii	"chSysUnlock\000"
 5067      73556E6C 
 5067      6F636B00 
 5068              	.LASF43:
 5069 090b 705F6D73 		.ascii	"p_msg\000"
 5069      6700
 5070              	.LASF130:
 5071 0911 63685265 		.ascii	"chRegSetThreadName\000"
 5071      67536574 
 5071      54687265 
 5071      61644E61 
 5071      6D6500
 5072              	.LASF101:
 5073 0924 6D5F6F77 		.ascii	"m_owner\000"
 5073      6E657200 
 5074              	.LASF32:
 5075 092c 705F6374 		.ascii	"p_ctx\000"
 5075      7800
 5076              	.LASF41:
 5077 0932 705F7761 		.ascii	"p_waiting\000"
 5077      6974696E 
 5077      6700
 5078              	.LASF171:
 5079 093c 63684576 		.ascii	"chEvtSignalI\000"
 5079      74536967 
 5079      6E616C49 
 5079      00
 5080              		.ident	"GCC: (GNU Tools for ARM Embedded Processors) 4.9.3 20150529 (release) [ARM/embedded-4_9-br
ARM GAS  /tmp/ccWx56sG.s 			page 98


DEFINED SYMBOLS
                            *ABS*:0000000000000000 rf_control.c
     /tmp/ccWx56sG.s:21     .text.tx_thread:0000000000000000 $t
     /tmp/ccWx56sG.s:26     .text.tx_thread:0000000000000000 tx_thread
     /tmp/ccWx56sG.s:114    .text.tx_thread:0000000000000054 $d
     /tmp/ccWx56sG.s:125    .text.rx_thread:0000000000000000 $t
     /tmp/ccWx56sG.s:130    .text.rx_thread:0000000000000000 rx_thread
     /tmp/ccWx56sG.s:198    .text.rx_thread:000000000000003e $d
     /tmp/ccWx56sG.s:202    .text.rx_thread:0000000000000042 $t
     /tmp/ccWx56sG.s:293    .text.rx_thread:00000000000000b4 $d
     /tmp/ccWx56sG.s:306    .text.wakeup_tx:0000000000000000 $t
     /tmp/ccWx56sG.s:311    .text.wakeup_tx:0000000000000000 wakeup_tx
     /tmp/ccWx56sG.s:359    .text.wakeup_tx:0000000000000014 $d
     /tmp/ccWx56sG.s:369    .text.rf_control_init:0000000000000000 $t
     /tmp/ccWx56sG.s:375    .text.rf_control_init:0000000000000000 rf_control_init
     /tmp/ccWx56sG.s:456    .text.rf_control_init:0000000000000058 $d
     /tmp/ccWx56sG.s:467    .text.rf_control_send_packet:0000000000000000 $t
     /tmp/ccWx56sG.s:473    .text.rf_control_send_packet:0000000000000000 rf_control_send_packet
     /tmp/ccWx56sG.s:574    .text.rf_control_send_packet:0000000000000040 $d
     /tmp/ccWx56sG.s:588    .text.rf_control_send_buffer:0000000000000000 $t
     /tmp/ccWx56sG.s:594    .text.rf_control_send_buffer:0000000000000000 rf_control_send_buffer
     /tmp/ccWx56sG.s:843    .bss.buf.8601:0000000000000000 $d
     /tmp/ccWx56sG.s:847    .bss.buf.8601:0000000000000000 buf.8601
     /tmp/ccWx56sG.s:850    .bss.tx_buffer:0000000000000000 $d
     /tmp/ccWx56sG.s:854    .bss.tx_buffer:0000000000000000 tx_buffer
     /tmp/ccWx56sG.s:857    .bss.rx_buffer:0000000000000000 $d
     /tmp/ccWx56sG.s:861    .bss.rx_buffer:0000000000000000 rx_buffer
     /tmp/ccWx56sG.s:864    .bss.tx_tp:0000000000000000 $d
     /tmp/ccWx56sG.s:868    .bss.tx_tp:0000000000000000 tx_tp
     /tmp/ccWx56sG.s:871    .bss.tx_slot_write:0000000000000000 $d
     /tmp/ccWx56sG.s:875    .bss.tx_slot_write:0000000000000000 tx_slot_write
     /tmp/ccWx56sG.s:878    .bss.tx_slot_len:0000000000000000 $d
     /tmp/ccWx56sG.s:882    .bss.tx_slot_len:0000000000000000 tx_slot_len
     /tmp/ccWx56sG.s:885    .rodata.str1.4:0000000000000000 $d
     /tmp/ccWx56sG.s:892    .bss.vt:0000000000000000 $d
     /tmp/ccWx56sG.s:896    .bss.vt:0000000000000000 vt
     /tmp/ccWx56sG.s:899    .bss.rx_thread_wa:0000000000000000 $d
     /tmp/ccWx56sG.s:903    .bss.rx_thread_wa:0000000000000000 rx_thread_wa
     /tmp/ccWx56sG.s:906    .bss.basicRfConfig:0000000000000000 $d
     /tmp/ccWx56sG.s:910    .bss.basicRfConfig:0000000000000000 basicRfConfig
     /tmp/ccWx56sG.s:913    .bss.tx_slot_read:0000000000000000 $d
     /tmp/ccWx56sG.s:917    .bss.tx_slot_read:0000000000000000 tx_slot_read
     /tmp/ccWx56sG.s:920    .bss.tx_thread_wa:0000000000000000 $d
     /tmp/ccWx56sG.s:924    .bss.tx_thread_wa:0000000000000000 tx_thread_wa
                     .debug_frame:0000000000000010 $d

UNDEFINED SYMBOLS
chEvtWaitAny
basicRfSendPacket
led_toggle
ch
chThdSleep
basicRfPacketIsReady
basicRfReceive
comm_usb_send_packet
memcpy
crc16
ARM GAS  /tmp/ccWx56sG.s 			page 99


chEvtSignalI
halAssyInit
basicRfInit
basicRfReceiveOn
chThdCreateStatic
chVTDoSetI
