ARM GAS  /tmp/ccWx56sG.s 			page 1


   1              		.syntax unified
   2              		.cpu cortex-m4
   3              		.eabi_attribute 27, 1
   4              		.eabi_attribute 28, 1
   5              		.fpu fpv4-sp-d16
   6              		.eabi_attribute 20, 1
   7              		.eabi_attribute 21, 1
   8              		.eabi_attribute 23, 3
   9              		.eabi_attribute 24, 1
  10              		.eabi_attribute 25, 1
  11              		.eabi_attribute 26, 1
  12              		.eabi_attribute 30, 2
  13              		.eabi_attribute 34, 1
  14              		.eabi_attribute 18, 4
  15              		.thumb
  16              		.file	"rf_control.c"
  17              		.text
  18              	.Ltext0:
  19              		.cfi_sections	.debug_frame
  20              		.section	.text.tx_thread,"ax",%progbits
  21              		.align	2
  22              		.p2align 4,,15
  23              		.thumb
  24              		.thumb_func
  25              		.type	tx_thread, %function
  26              	tx_thread:
  27              	.LFB260:
  28              		.file 1 "rf_control.c"
  29              		.loc 1 231 0
  30              		.cfi_startproc
  31              		@ Volatile: function does not return.
  32              		@ args = 0, pretend = 0, frame = 0
  33              		@ frame_needed = 0, uses_anonymous_args = 0
  34              	.LVL0:
  35              	.LBB71:
  36              	.LBB72:
  37              		.file 2 "ChibiOS_3.0.2/os/rt/include/chregistry.h"
  38              		.loc 2 135 0
  39 0000 144B     		ldr	r3, .L9
  40              	.LBE72:
  41              	.LBE71:
  42              		.loc 1 236 0
  43 0002 154A     		ldr	r2, .L9+4
  44              	.LBB75:
  45              	.LBB73:
  46              		.loc 2 135 0
  47 0004 9B69     		ldr	r3, [r3, #24]
  48 0006 154C     		ldr	r4, .L9+8
  49 0008 1549     		ldr	r1, .L9+12
  50 000a 164D     		ldr	r5, .L9+16
  51 000c 164E     		ldr	r6, .L9+20
  52 000e DFF85C80 		ldr	r8, .L9+24
  53              	.LBE73:
  54              	.LBE75:
  55              		.loc 1 231 0
  56 0012 80B5     		push	{r7, lr}
  57              		.cfi_def_cfa_offset 8
ARM GAS  /tmp/ccWx56sG.s 			page 2


  58              		.cfi_offset 7, -8
  59              		.cfi_offset 14, -4
  60              	.LBB76:
  61              	.LBB74:
  62              		.loc 2 135 0
  63 0014 9961     		str	r1, [r3, #24]
  64              	.LBE74:
  65              	.LBE76:
  66              		.loc 1 236 0
  67 0016 1360     		str	r3, [r2]
  68              		.loc 1 245 0
  69 0018 2746     		mov	r7, r4
  70              	.LVL1:
  71              	.L5:
  72              		.loc 1 239 0
  73 001a 0120     		movs	r0, #1
  74 001c FFF7FEFF 		bl	chEvtWaitAny
  75              	.LVL2:
  76              	.L2:
  77 0020 2368     		ldr	r3, [r4]
  78              	.L3:
  79              		.loc 1 241 0
  80 0022 D8F80020 		ldr	r2, [r8]
  81              		.loc 1 242 0
  82 0026 03EB8311 		add	r1, r3, r3, lsl #6
  83              		.loc 1 241 0
  84 002a 9A42     		cmp	r2, r3
  85              		.loc 1 242 0
  86 002c 05EB4101 		add	r1, r5, r1, lsl #1
  87 0030 4FF6FF70 		movw	r0, #65535
  88              		.loc 1 241 0
  89 0034 F1D0     		beq	.L5
  90              		.loc 1 242 0
  91 0036 F25C     		ldrb	r2, [r6, r3]	@ zero_extendqisi2
  92 0038 FFF7FEFF 		bl	basicRfSendPacket
  93              	.LVL3:
  94              		.loc 1 243 0
  95 003c 0120     		movs	r0, #1
  96 003e FFF7FEFF 		bl	led_toggle
  97              	.LVL4:
  98              		.loc 1 245 0
  99 0042 2368     		ldr	r3, [r4]
 100 0044 0133     		adds	r3, r3, #1
 101              		.loc 1 246 0
 102 0046 092B     		cmp	r3, #9
 103              		.loc 1 245 0
 104 0048 2360     		str	r3, [r4]
 105              		.loc 1 246 0
 106 004a EADD     		ble	.L3
 107              		.loc 1 247 0
 108 004c 0023     		movs	r3, #0
 109 004e 3B60     		str	r3, [r7]
 110 0050 E6E7     		b	.L2
 111              	.L10:
 112 0052 00BF     		.align	2
 113              	.L9:
 114 0054 00000000 		.word	ch
ARM GAS  /tmp/ccWx56sG.s 			page 3


 115 0058 00000000 		.word	.LANCHOR0
 116 005c 00000000 		.word	.LANCHOR3
 117 0060 00000000 		.word	.LC0
 118 0064 00000000 		.word	.LANCHOR1
 119 0068 00000000 		.word	.LANCHOR2
 120 006c 00000000 		.word	.LANCHOR4
 121              		.cfi_endproc
 122              	.LFE260:
 123              		.size	tx_thread, .-tx_thread
 124              		.section	.text.rx_thread,"ax",%progbits
 125              		.align	2
 126              		.p2align 4,,15
 127              		.thumb
 128              		.thumb_func
 129              		.type	rx_thread, %function
 130              	rx_thread:
 131              	.LFB259:
 132              		.loc 1 165 0
 133              		.cfi_startproc
 134              		@ args = 0, pretend = 0, frame = 0
 135              		@ frame_needed = 0, uses_anonymous_args = 0
 136              	.LVL5:
 137 0000 2DE9F843 		push	{r3, r4, r5, r6, r7, r8, r9, lr}
 138              		.cfi_def_cfa_offset 32
 139              		.cfi_offset 3, -32
 140              		.cfi_offset 4, -28
 141              		.cfi_offset 5, -24
 142              		.cfi_offset 6, -20
 143              		.cfi_offset 7, -16
 144              		.cfi_offset 8, -12
 145              		.cfi_offset 9, -8
 146              		.cfi_offset 14, -4
 147              	.LBB77:
 148              	.LBB78:
 149              		.loc 2 135 0
 150 0004 2B4B     		ldr	r3, .L22
 151 0006 2C4D     		ldr	r5, .L22+4
 152 0008 9B69     		ldr	r3, [r3, #24]
 153 000a 2C4A     		ldr	r2, .L22+8
 154 000c 2C4F     		ldr	r7, .L22+12
 155 000e 9A61     		str	r2, [r3, #24]
 156              	.LBE78:
 157              	.LBE77:
 158              	.LBB79:
 159              		.loc 1 176 0
 160 0010 A846     		mov	r8, r5
 161 0012 02E0     		b	.L20
 162              	.LVL6:
 163              	.L13:
 164              	.LBE79:
 165              		.loc 1 227 0
 166 0014 0120     		movs	r0, #1
 167 0016 FFF7FEFF 		bl	chThdSleep
 168              	.LVL7:
 169              	.L20:
 170              		.loc 1 171 0
 171 001a FFF7FEFF 		bl	basicRfPacketIsReady
ARM GAS  /tmp/ccWx56sG.s 			page 4


 172              	.LVL8:
 173 001e 0028     		cmp	r0, #0
 174 0020 F8D0     		beq	.L13
 175              	.LVL9:
 176              	.LBB82:
 177              		.loc 1 176 0
 178 0022 2548     		ldr	r0, .L22+4
 179 0024 8221     		movs	r1, #130
 180 0026 0022     		movs	r2, #0
 181 0028 FFF7FEFF 		bl	basicRfReceive
 182              	.LVL10:
 183              		.loc 1 177 0
 184 002c 2C78     		ldrb	r4, [r5]	@ zero_extendqisi2
 185              		.loc 1 176 0
 186 002e 0646     		mov	r6, r0
 187              	.LVL11:
 188              		.loc 1 179 0
 189 0030 0020     		movs	r0, #0
 190              	.LVL12:
 191 0032 FFF7FEFF 		bl	led_toggle
 192              	.LVL13:
 193              		.loc 1 181 0
 194 0036 032C     		cmp	r4, #3
 195 0038 ECD8     		bhi	.L13
 196 003a DFE804F0 		tbb	[pc, r4]
 197              	.L15:
 198 003e 33       		.byte	(.L14-.L15)/2
 199 003f 26       		.byte	(.L16-.L15)/2
 200 0040 07       		.byte	(.L17-.L15)/2
 201 0041 02       		.byte	(.L18-.L15)/2
 202              		.p2align 1
 203              	.L18:
 204              		.loc 1 219 0
 205 0042 711E     		subs	r1, r6, #1
 206 0044 1F48     		ldr	r0, .L22+16
 207 0046 FFF7FEFF 		bl	comm_usb_send_packet
 208              	.LVL14:
 209              		.loc 1 220 0
 210 004a E3E7     		b	.L13
 211              	.L17:
 212              	.LVL15:
 213              	.LBB80:
 214              		.loc 1 197 0
 215 004c 6C78     		ldrb	r4, [r5, #1]	@ zero_extendqisi2
 216              	.LVL16:
 217              		.loc 1 198 0
 218 004e AB78     		ldrb	r3, [r5, #2]	@ zero_extendqisi2
 219 0050 43EA0424 		orr	r4, r3, r4, lsl #8
 220              	.LVL17:
 221              		.loc 1 200 0
 222 0054 B4F5806F 		cmp	r4, #1024
 223 0058 DCD8     		bhi	.L13
 224              	.LVL18:
 225 005a 601D     		adds	r0, r4, #5
 226              		.loc 1 207 0
 227 005c 801B     		subs	r0, r0, r6
 228 005e 721F     		subs	r2, r6, #5
ARM GAS  /tmp/ccWx56sG.s 			page 5


 229 0060 1949     		ldr	r1, .L22+20
 230              		.loc 1 204 0
 231 0062 98F80390 		ldrb	r9, [r8, #3]	@ zero_extendqisi2
 232              	.LVL19:
 233              		.loc 1 205 0
 234 0066 98F80460 		ldrb	r6, [r8, #4]	@ zero_extendqisi2
 235              	.LVL20:
 236              		.loc 1 207 0
 237 006a 3844     		add	r0, r0, r7
 238 006c FFF7FEFF 		bl	memcpy
 239              	.LVL21:
 240              		.loc 1 209 0
 241 0070 1348     		ldr	r0, .L22+12
 242 0072 2146     		mov	r1, r4
 243 0074 FFF7FEFF 		bl	crc16
 244              	.LVL22:
 245              		.loc 1 211 0
 246 0078 46EA0926 		orr	r6, r6, r9, lsl #8
 247              	.LVL23:
 248              		.loc 1 209 0
 249 007c B042     		cmp	r0, r6
 250 007e C9D1     		bne	.L13
 251              		.loc 1 213 0
 252 0080 2146     		mov	r1, r4
 253 0082 0F48     		ldr	r0, .L22+12
 254 0084 FFF7FEFF 		bl	comm_usb_send_packet
 255              	.LVL24:
 256 0088 C4E7     		b	.L13
 257              	.LVL25:
 258              	.L16:
 259              	.LBE80:
 260              	.LBB81:
 261              		.loc 1 187 0
 262 008a 6878     		ldrb	r0, [r5, #1]	@ zero_extendqisi2
 263              	.LVL26:
 264              		.loc 1 188 0
 265 008c AB78     		ldrb	r3, [r5, #2]	@ zero_extendqisi2
 266 008e 43EA0020 		orr	r0, r3, r0, lsl #8
 267              	.LVL27:
 268              		.loc 1 189 0
 269 0092 B0F5806F 		cmp	r0, #1024
 270 0096 BDDA     		bge	.L13
 271              		.loc 1 190 0
 272 0098 3844     		add	r0, r0, r7
 273              	.LVL28:
 274 009a F21E     		subs	r2, r6, #3
 275 009c 0B49     		ldr	r1, .L22+24
 276 009e FFF7FEFF 		bl	memcpy
 277              	.LVL29:
 278 00a2 B7E7     		b	.L13
 279              	.L14:
 280              	.LBE81:
 281              		.loc 1 183 0
 282 00a4 6878     		ldrb	r0, [r5, #1]	@ zero_extendqisi2
 283 00a6 0A49     		ldr	r1, .L22+28
 284 00a8 B21E     		subs	r2, r6, #2
 285 00aa 3844     		add	r0, r0, r7
ARM GAS  /tmp/ccWx56sG.s 			page 6


 286 00ac FFF7FEFF 		bl	memcpy
 287              	.LVL30:
 288              		.loc 1 184 0
 289 00b0 B0E7     		b	.L13
 290              	.L23:
 291 00b2 00BF     		.align	2
 292              	.L22:
 293 00b4 00000000 		.word	ch
 294 00b8 00000000 		.word	.LANCHOR5
 295 00bc 0C000000 		.word	.LC1
 296 00c0 00000000 		.word	.LANCHOR6
 297 00c4 01000000 		.word	.LANCHOR5+1
 298 00c8 05000000 		.word	.LANCHOR5+5
 299 00cc 03000000 		.word	.LANCHOR5+3
 300 00d0 02000000 		.word	.LANCHOR5+2
 301              	.LBE82:
 302              		.cfi_endproc
 303              	.LFE259:
 304              		.size	rx_thread, .-rx_thread
 305              		.section	.text.wakeup_tx,"ax",%progbits
 306              		.align	2
 307              		.p2align 4,,15
 308              		.thumb
 309              		.thumb_func
 310              		.type	wakeup_tx, %function
 311              	wakeup_tx:
 312              	.LFB261:
 313              		.loc 1 253 0
 314              		.cfi_startproc
 315              		@ args = 0, pretend = 0, frame = 0
 316              		@ frame_needed = 0, uses_anonymous_args = 0
 317              	.LVL31:
 318 0000 08B5     		push	{r3, lr}
 319              		.cfi_def_cfa_offset 8
 320              		.cfi_offset 3, -8
 321              		.cfi_offset 14, -4
 322              	.LBB83:
 323              	.LBB84:
 324              	.LBB85:
 325              	.LBB86:
 326              	.LBB87:
 327              		.file 3 "ChibiOS_3.0.2/os/ext/CMSIS/include/core_cmFunc.h"
 328              		.loc 3 342 0
 329              	@ 342 "ChibiOS_3.0.2/os/ext/CMSIS/include/core_cmFunc.h" 1
 330 0002 72B6     		cpsid i
 331              	@ 0 "" 2
 332              		.thumb
 333              	.LBE87:
 334              	.LBE86:
 335              	.LBE85:
 336              	.LBE84:
 337              	.LBE83:
 338              		.loc 1 257 0
 339 0004 034B     		ldr	r3, .L26
 340 0006 0121     		movs	r1, #1
 341 0008 1868     		ldr	r0, [r3]
 342              	.LVL32:
ARM GAS  /tmp/ccWx56sG.s 			page 7


 343 000a FFF7FEFF 		bl	chEvtSignalI
 344              	.LVL33:
 345              	.LBB88:
 346              	.LBB89:
 347              	.LBB90:
 348              	.LBB91:
 349              	.LBB92:
 350              		.loc 3 331 0
 351              	@ 331 "ChibiOS_3.0.2/os/ext/CMSIS/include/core_cmFunc.h" 1
 352 000e 62B6     		cpsie i
 353              	@ 0 "" 2
 354              		.thumb
 355 0010 08BD     		pop	{r3, pc}
 356              	.L27:
 357 0012 00BF     		.align	2
 358              	.L26:
 359 0014 00000000 		.word	.LANCHOR0
 360              	.LBE92:
 361              	.LBE91:
 362              	.LBE90:
 363              	.LBE89:
 364              	.LBE88:
 365              		.cfi_endproc
 366              	.LFE261:
 367              		.size	wakeup_tx, .-wakeup_tx
 368              		.section	.text.rf_control_init,"ax",%progbits
 369              		.align	2
 370              		.p2align 4,,15
 371              		.global	rf_control_init
 372              		.thumb
 373              		.thumb_func
 374              		.type	rf_control_init, %function
 375              	rf_control_init:
 376              	.LFB256:
 377              		.loc 1 53 0
 378              		.cfi_startproc
 379              		@ args = 0, pretend = 0, frame = 0
 380              		@ frame_needed = 0, uses_anonymous_args = 0
 381 0000 30B5     		push	{r4, r5, lr}
 382              		.cfi_def_cfa_offset 12
 383              		.cfi_offset 4, -12
 384              		.cfi_offset 5, -8
 385              		.cfi_offset 14, -4
 386              		.loc 1 54 0
 387 0002 154A     		ldr	r2, .L32
 388              		.loc 1 55 0
 389 0004 154B     		ldr	r3, .L32+4
 390              		.loc 1 54 0
 391 0006 0024     		movs	r4, #0
 392              		.loc 1 53 0
 393 0008 83B0     		sub	sp, sp, #12
 394              		.cfi_def_cfa_offset 24
 395              		.loc 1 54 0
 396 000a 1460     		str	r4, [r2]
 397              		.loc 1 55 0
 398 000c 1C60     		str	r4, [r3]
 399              		.loc 1 58 0
ARM GAS  /tmp/ccWx56sG.s 			page 8


 400 000e FFF7FEFF 		bl	halAssyInit
 401              	.LVL34:
 402              		.loc 1 59 0
 403 0012 134B     		ldr	r3, .L32+8
 404              		.loc 1 60 0
 405 0014 0C21     		movs	r1, #12
 406              		.loc 1 62 0
 407 0016 0122     		movs	r2, #1
 408              		.loc 1 59 0
 409 0018 4FF61125 		movw	r5, #64017
 410              		.loc 1 67 0
 411 001c 1846     		mov	r0, r3
 412              		.loc 1 61 0
 413 001e 5C71     		strb	r4, [r3, #5]
 414              		.loc 1 59 0
 415 0020 5D80     		strh	r5, [r3, #2]	@ movhi
 416              		.loc 1 60 0
 417 0022 1971     		strb	r1, [r3, #4]
 418              		.loc 1 62 0
 419 0024 1A80     		strh	r2, [r3]	@ movhi
 420              		.loc 1 67 0
 421 0026 FFF7FEFF 		bl	basicRfInit
 422              	.LVL35:
 423 002a 0128     		cmp	r0, #1
 424 002c 00D1     		bne	.L29
 425              	.L30:
 426              		.loc 1 68 0 discriminator 1
 427 002e FEE7     		b	.L30
 428              	.L29:
 429              		.loc 1 71 0
 430 0030 FFF7FEFF 		bl	basicRfReceiveOn
 431              	.LVL36:
 432              		.loc 1 73 0
 433 0034 0094     		str	r4, [sp]
 434 0036 0B4B     		ldr	r3, .L32+12
 435 0038 0B48     		ldr	r0, .L32+16
 436 003a 40F69811 		movw	r1, #2456
 437 003e 4022     		movs	r2, #64
 438 0040 FFF7FEFF 		bl	chThdCreateStatic
 439              	.LVL37:
 440              		.loc 1 75 0
 441 0044 0094     		str	r4, [sp]
 442 0046 094B     		ldr	r3, .L32+20
 443 0048 0948     		ldr	r0, .L32+24
 444 004a 4FF46671 		mov	r1, #920
 445 004e 4022     		movs	r2, #64
 446 0050 FFF7FEFF 		bl	chThdCreateStatic
 447              	.LVL38:
 448              		.loc 1 77 0
 449 0054 03B0     		add	sp, sp, #12
 450              		.cfi_def_cfa_offset 12
 451              		@ sp needed
 452 0056 30BD     		pop	{r4, r5, pc}
 453              	.L33:
 454              		.align	2
 455              	.L32:
 456 0058 00000000 		.word	.LANCHOR3
ARM GAS  /tmp/ccWx56sG.s 			page 9


 457 005c 00000000 		.word	.LANCHOR4
 458 0060 00000000 		.word	.LANCHOR7
 459 0064 00000000 		.word	rx_thread
 460 0068 00000000 		.word	.LANCHOR8
 461 006c 00000000 		.word	tx_thread
 462 0070 00000000 		.word	.LANCHOR9
 463              		.cfi_endproc
 464              	.LFE256:
 465              		.size	rf_control_init, .-rf_control_init
 466              		.section	.text.rf_control_send_packet,"ax",%progbits
 467              		.align	2
 468              		.p2align 4,,15
 469              		.global	rf_control_send_packet
 470              		.thumb
 471              		.thumb_func
 472              		.type	rf_control_send_packet, %function
 473              	rf_control_send_packet:
 474              	.LFB258:
 475              		.loc 1 149 0
 476              		.cfi_startproc
 477              		@ args = 0, pretend = 0, frame = 0
 478              		@ frame_needed = 0, uses_anonymous_args = 0
 479              	.LVL39:
 480 0000 70B5     		push	{r4, r5, r6, lr}
 481              		.cfi_def_cfa_offset 16
 482              		.cfi_offset 4, -16
 483              		.cfi_offset 5, -12
 484              		.cfi_offset 6, -8
 485              		.cfi_offset 14, -4
 486              		.loc 1 150 0
 487 0002 0F4D     		ldr	r5, .L41
 488 0004 0F4B     		ldr	r3, .L41+4
 489 0006 2C68     		ldr	r4, [r5]
 490              		.loc 1 149 0
 491 0008 0E46     		mov	r6, r1
 492              		.loc 1 150 0
 493 000a 04EB8412 		add	r2, r4, r4, lsl #6
 494 000e 0146     		mov	r1, r0
 495              	.LVL40:
 496 0010 03EB4200 		add	r0, r3, r2, lsl #1
 497              	.LVL41:
 498 0014 3246     		mov	r2, r6
 499 0016 FFF7FEFF 		bl	memcpy
 500              	.LVL42:
 501              		.loc 1 153 0
 502 001a 631C     		adds	r3, r4, #1
 503              		.loc 1 151 0
 504 001c 0A4A     		ldr	r2, .L41+8
 505              		.loc 1 154 0
 506 001e 092B     		cmp	r3, #9
 507              		.loc 1 155 0
 508 0020 C8BF     		it	gt
 509 0022 0023     		movgt	r3, #0
 510              		.loc 1 151 0
 511 0024 1655     		strb	r6, [r2, r4]
 512              		.loc 1 155 0
 513 0026 2B60     		str	r3, [r5]
ARM GAS  /tmp/ccWx56sG.s 			page 10


 514              	.LBB106:
 515              	.LBB107:
 516              	.LBB108:
 517              	.LBB109:
 518              		.loc 3 342 0
 519              	@ 342 "ChibiOS_3.0.2/os/ext/CMSIS/include/core_cmFunc.h" 1
 520 0028 72B6     		cpsid i
 521              	@ 0 "" 2
 522              	.LVL43:
 523              		.thumb
 524 002a 0848     		ldr	r0, .L41+12
 525              	.LBE109:
 526              	.LBE108:
 527              	.LBE107:
 528              	.LBE106:
 529              		.loc 1 159 0
 530 002c C368     		ldr	r3, [r0, #12]
 531 002e 0BB1     		cbz	r3, .L40
 532              	.LBB110:
 533              	.LBB111:
 534              	.LBB112:
 535              	.LBB113:
 536              	.LBB114:
 537              		.loc 3 331 0
 538              	@ 331 "ChibiOS_3.0.2/os/ext/CMSIS/include/core_cmFunc.h" 1
 539 0030 62B6     		cpsie i
 540              	@ 0 "" 2
 541              		.thumb
 542 0032 70BD     		pop	{r4, r5, r6, pc}
 543              	.L40:
 544              	.LVL44:
 545              	.LBE114:
 546              	.LBE113:
 547              	.LBE112:
 548              	.LBE111:
 549              	.LBE110:
 550              	.LBB119:
 551              	.LBB120:
 552              		.file 4 "ChibiOS_3.0.2/os/rt/include/chvt.h"
 553              		.loc 4 424 0
 554 0034 3221     		movs	r1, #50
 555 0036 064A     		ldr	r2, .L41+16
 556 0038 FFF7FEFF 		bl	chVTDoSetI
 557              	.LVL45:
 558              	.LBE120:
 559              	.LBE119:
 560              	.LBB121:
 561              	.LBB118:
 562              	.LBB117:
 563              	.LBB116:
 564              	.LBB115:
 565              		.loc 3 331 0
 566              	@ 331 "ChibiOS_3.0.2/os/ext/CMSIS/include/core_cmFunc.h" 1
 567 003c 62B6     		cpsie i
 568              	@ 0 "" 2
 569              		.thumb
 570 003e 70BD     		pop	{r4, r5, r6, pc}
ARM GAS  /tmp/ccWx56sG.s 			page 11


 571              	.L42:
 572              		.align	2
 573              	.L41:
 574 0040 00000000 		.word	.LANCHOR4
 575 0044 00000000 		.word	.LANCHOR1
 576 0048 00000000 		.word	.LANCHOR2
 577 004c 00000000 		.word	.LANCHOR10
 578 0050 00000000 		.word	wakeup_tx
 579              	.LBE115:
 580              	.LBE116:
 581              	.LBE117:
 582              	.LBE118:
 583              	.LBE121:
 584              		.cfi_endproc
 585              	.LFE258:
 586              		.size	rf_control_send_packet, .-rf_control_send_packet
 587              		.section	.text.rf_control_send_buffer,"ax",%progbits
 588              		.align	2
 589              		.p2align 4,,15
 590              		.global	rf_control_send_buffer
 591              		.thumb
 592              		.thumb_func
 593              		.type	rf_control_send_buffer, %function
 594              	rf_control_send_buffer:
 595              	.LFB257:
 596              		.loc 1 79 0
 597              		.cfi_startproc
 598              		@ args = 0, pretend = 0, frame = 112
 599              		@ frame_needed = 0, uses_anonymous_args = 0
 600              	.LVL46:
 601 0000 2DE9F04F 		push	{r4, r5, r6, r7, r8, r9, r10, fp, lr}
 602              		.cfi_def_cfa_offset 36
 603              		.cfi_offset 4, -36
 604              		.cfi_offset 5, -32
 605              		.cfi_offset 6, -28
 606              		.cfi_offset 7, -24
 607              		.cfi_offset 8, -20
 608              		.cfi_offset 9, -16
 609              		.cfi_offset 10, -12
 610              		.cfi_offset 11, -8
 611              		.cfi_offset 14, -4
 612              		.loc 1 82 0
 613 0004 6D29     		cmp	r1, #109
 614              		.loc 1 79 0
 615 0006 9DB0     		sub	sp, sp, #116
 616              		.cfi_def_cfa_offset 152
 617              		.loc 1 79 0
 618 0008 8946     		mov	r9, r1
 619 000a 8246     		mov	r10, r0
 620              		.loc 1 82 0
 621 000c 70D9     		bls	.L57
 622              	.LVL47:
 623              	.LBB122:
 624              		.loc 1 90 0
 625 000e A1F16907 		sub	r7, r1, #105
 626              	.LVL48:
 627 0012 FDB2     		uxtb	r5, r7
ARM GAS  /tmp/ccWx56sG.s 			page 12


 628 0014 AE1C     		adds	r6, r5, #2
 629              		.loc 1 89 0
 630 0016 0024     		movs	r4, #0
 631 0018 F6B2     		uxtb	r6, r6
 632              	.LBB123:
 633              	.LBB124:
 634              		.loc 1 100 0
 635 001a A346     		mov	fp, r4
 636 001c 8046     		mov	r8, r0
 637              	.LVL49:
 638              	.L46:
 639              		.loc 1 97 0
 640 001e 6C34     		adds	r4, r4, #108
 641              	.LVL50:
 642 0020 A4F16C03 		sub	r3, r4, #108
 643              		.loc 1 103 0
 644 0024 A742     		cmp	r7, r4
 645              		.loc 1 100 0
 646 0026 8DF800B0 		strb	fp, [sp]
 647              		.loc 1 101 0
 648 002a 8DF80130 		strb	r3, [sp, #1]
 649              		.loc 1 104 0
 650 002e 0DF10200 		add	r0, sp, #2
 651 0032 4146     		mov	r1, r8
 652 0034 4FF06C02 		mov	r2, #108
 653              		.loc 1 103 0
 654 0038 6DD3     		bcc	.L48
 655              		.loc 1 104 0
 656 003a FFF7FEFF 		bl	memcpy
 657              	.LVL51:
 658 003e 6E21     		movs	r1, #110
 659              	.LVL52:
 660              	.L49:
 661              		.loc 1 110 0 discriminator 2
 662 0040 6846     		mov	r0, sp
 663 0042 FFF7FEFF 		bl	rf_control_send_packet
 664              	.LVL53:
 665 0046 6C3E     		subs	r6, r6, #108
 666              	.LBE124:
 667              		.loc 1 92 0 discriminator 2
 668 0048 A742     		cmp	r7, r4
 669 004a F6B2     		uxtb	r6, r6
 670 004c 08F16C08 		add	r8, r8, #108
 671 0050 2DD9     		bls	.L54
 672              	.LBB125:
 673              		.loc 1 93 0
 674 0052 B4F5A27F 		cmp	r4, #324
 675 0056 E2D1     		bne	.L46
 676              	.LVL54:
 677 0058 413D     		subs	r5, r5, #65
 678 005a EDB2     		uxtb	r5, r5
 679 005c 0AF5A276 		add	r6, r10, #324
 680              	.LBE125:
 681              	.LBE123:
 682              	.LBB127:
 683              	.LBB128:
 684              		.loc 1 115 0
ARM GAS  /tmp/ccWx56sG.s 			page 13


 685 0060 4FF00108 		mov	r8, #1
 686 0064 0BE0     		b	.L53
 687              	.LVL55:
 688              	.L58:
 689              		.loc 1 120 0
 690 0066 FFF7FEFF 		bl	memcpy
 691              	.LVL56:
 692 006a 6E21     		movs	r1, #110
 693              	.L52:
 694              	.LVL57:
 695              		.loc 1 126 0 discriminator 2
 696 006c 6846     		mov	r0, sp
 697 006e FFF7FEFF 		bl	rf_control_send_packet
 698              	.LVL58:
 699 0072 6B3D     		subs	r5, r5, #107
 700              	.LBE128:
 701              		.loc 1 113 0 discriminator 2
 702 0074 A742     		cmp	r7, r4
 703 0076 06F16B06 		add	r6, r6, #107
 704 007a EDB2     		uxtb	r5, r5
 705 007c 17D9     		bls	.L54
 706              	.LVL59:
 707              	.L53:
 708              	.LBB129:
 709              		.loc 1 116 0
 710 007e 230A     		lsrs	r3, r4, #8
 711              		.loc 1 117 0
 712 0080 8DF80240 		strb	r4, [sp, #2]
 713              		.loc 1 119 0
 714 0084 6B34     		adds	r4, r4, #107
 715              	.LVL60:
 716 0086 A742     		cmp	r7, r4
 717              		.loc 1 115 0
 718 0088 8DF80080 		strb	r8, [sp]
 719              		.loc 1 116 0
 720 008c 8DF80130 		strb	r3, [sp, #1]
 721              		.loc 1 120 0
 722 0090 0DF10300 		add	r0, sp, #3
 723 0094 3146     		mov	r1, r6
 724 0096 4FF06B02 		mov	r2, #107
 725              		.loc 1 119 0
 726 009a E4D2     		bcs	.L58
 727 009c EA1E     		subs	r2, r5, #3
 728              		.loc 1 123 0
 729 009e 3146     		mov	r1, r6
 730 00a0 D2B2     		uxtb	r2, r2
 731 00a2 0DF10300 		add	r0, sp, #3
 732 00a6 FFF7FEFF 		bl	memcpy
 733              	.LVL61:
 734 00aa 2946     		mov	r1, r5
 735 00ac DEE7     		b	.L52
 736              	.LVL62:
 737              	.L54:
 738              	.LBE129:
 739              	.LBE127:
 740              		.loc 1 131 0
 741 00ae 4FEA1923 		lsr	r3, r9, #8
ARM GAS  /tmp/ccWx56sG.s 			page 14


 742              		.loc 1 130 0
 743 00b2 0222     		movs	r2, #2
 744              		.loc 1 133 0
 745 00b4 4946     		mov	r1, r9
 746 00b6 5046     		mov	r0, r10
 747              		.loc 1 130 0
 748 00b8 8DF80020 		strb	r2, [sp]
 749              	.LVL63:
 750              		.loc 1 131 0
 751 00bc 8DF80130 		strb	r3, [sp, #1]
 752              	.LVL64:
 753              		.loc 1 132 0
 754 00c0 8DF80290 		strb	r9, [sp, #2]
 755              		.loc 1 133 0
 756 00c4 FFF7FEFF 		bl	crc16
 757              	.LVL65:
 758              		.loc 1 136 0
 759 00c8 0AEB0701 		add	r1, r10, r7
 760              		.loc 1 133 0
 761 00cc 0346     		mov	r3, r0
 762              	.LVL66:
 763              		.loc 1 134 0
 764 00ce 040A     		lsrs	r4, r0, #8
 765              		.loc 1 136 0
 766 00d0 6922     		movs	r2, #105
 767 00d2 0DF10500 		add	r0, sp, #5
 768              	.LVL67:
 769              		.loc 1 135 0
 770 00d6 8DF80430 		strb	r3, [sp, #4]
 771              		.loc 1 134 0
 772 00da 8DF80340 		strb	r4, [sp, #3]
 773              	.LVL68:
 774              		.loc 1 136 0
 775 00de FFF7FEFF 		bl	memcpy
 776              	.LVL69:
 777              		.loc 1 139 0
 778 00e2 6846     		mov	r0, sp
 779 00e4 6E21     		movs	r1, #110
 780 00e6 FFF7FEFF 		bl	rf_control_send_packet
 781              	.LVL70:
 782              	.LBE122:
 783              		.loc 1 141 0
 784 00ea 1DB0     		add	sp, sp, #116
 785              		.cfi_remember_state
 786              		.cfi_def_cfa_offset 36
 787              		@ sp needed
 788 00ec BDE8F08F 		pop	{r4, r5, r6, r7, r8, r9, r10, fp, pc}
 789              	.LVL71:
 790              	.L57:
 791              		.cfi_restore_state
 792              	.LBB131:
 793              		.loc 1 84 0
 794 00f0 1CAC     		add	r4, sp, #112
 795 00f2 0323     		movs	r3, #3
 796 00f4 04F8703D 		strb	r3, [r4, #-112]!
 797              		.loc 1 85 0
 798 00f8 0146     		mov	r1, r0
ARM GAS  /tmp/ccWx56sG.s 			page 15


 799              	.LVL72:
 800 00fa 4A46     		mov	r2, r9
 801 00fc 0DF10100 		add	r0, sp, #1
 802              	.LVL73:
 803 0100 FFF7FEFF 		bl	memcpy
 804              	.LVL74:
 805              		.loc 1 86 0
 806 0104 09F10101 		add	r1, r9, #1
 807              	.LVL75:
 808              		.loc 1 87 0
 809 0108 2046     		mov	r0, r4
 810 010a C9B2     		uxtb	r1, r1
 811              	.LVL76:
 812 010c FFF7FEFF 		bl	rf_control_send_packet
 813              	.LVL77:
 814              	.LBE131:
 815              		.loc 1 141 0
 816 0110 1DB0     		add	sp, sp, #116
 817              		.cfi_remember_state
 818              		.cfi_def_cfa_offset 36
 819              		@ sp needed
 820 0112 BDE8F08F 		pop	{r4, r5, r6, r7, r8, r9, r10, fp, pc}
 821              	.LVL78:
 822              	.L48:
 823              		.cfi_restore_state
 824 0116 B21E     		subs	r2, r6, #2
 825              	.LBB132:
 826              	.LBB130:
 827              	.LBB126:
 828              		.loc 1 107 0
 829 0118 4146     		mov	r1, r8
 830 011a D2B2     		uxtb	r2, r2
 831 011c 0DF10200 		add	r0, sp, #2
 832 0120 FFF7FEFF 		bl	memcpy
 833              	.LVL79:
 834 0124 3146     		mov	r1, r6
 835 0126 8BE7     		b	.L49
 836              	.LBE126:
 837              	.LBE130:
 838              	.LBE132:
 839              		.cfi_endproc
 840              	.LFE257:
 841              		.size	rf_control_send_buffer, .-rf_control_send_buffer
 842              		.section	.bss.buf.8601,"aw",%nobits
 843              		.align	2
 844              		.set	.LANCHOR5,. + 0
 845              		.type	buf.8601, %object
 846              		.size	buf.8601, 130
 847              	buf.8601:
 848 0000 00000000 		.space	130
 848      00000000 
 848      00000000 
 848      00000000 
 848      00000000 
 849              		.section	.bss.tx_buffer,"aw",%nobits
 850              		.align	2
 851              		.set	.LANCHOR1,. + 0
ARM GAS  /tmp/ccWx56sG.s 			page 16


 852              		.type	tx_buffer, %object
 853              		.size	tx_buffer, 1300
 854              	tx_buffer:
 855 0000 00000000 		.space	1300
 855      00000000 
 855      00000000 
 855      00000000 
 855      00000000 
 856              		.section	.bss.rx_buffer,"aw",%nobits
 857              		.align	2
 858              		.set	.LANCHOR6,. + 0
 859              		.type	rx_buffer, %object
 860              		.size	rx_buffer, 1024
 861              	rx_buffer:
 862 0000 00000000 		.space	1024
 862      00000000 
 862      00000000 
 862      00000000 
 862      00000000 
 863              		.section	.bss.tx_tp,"aw",%nobits
 864              		.align	2
 865              		.set	.LANCHOR0,. + 0
 866              		.type	tx_tp, %object
 867              		.size	tx_tp, 4
 868              	tx_tp:
 869 0000 00000000 		.space	4
 870              		.section	.bss.tx_slot_write,"aw",%nobits
 871              		.align	2
 872              		.set	.LANCHOR4,. + 0
 873              		.type	tx_slot_write, %object
 874              		.size	tx_slot_write, 4
 875              	tx_slot_write:
 876 0000 00000000 		.space	4
 877              		.section	.bss.tx_slot_len,"aw",%nobits
 878              		.align	2
 879              		.set	.LANCHOR2,. + 0
 880              		.type	tx_slot_len, %object
 881              		.size	tx_slot_len, 10
 882              	tx_slot_len:
 883 0000 00000000 		.space	10
 883      00000000 
 883      0000
 884              		.section	.rodata.str1.4,"aMS",%progbits,1
 885              		.align	2
 886              	.LC0:
 887 0000 43433235 		.ascii	"CC2520 Tx\000"
 887      32302054 
 887      7800
 888 000a 0000     		.space	2
 889              	.LC1:
 890 000c 43433235 		.ascii	"CC2520 RX\000"
 890      32302052 
 890      5800
 891              		.section	.bss.vt,"aw",%nobits
 892              		.align	2
 893              		.set	.LANCHOR10,. + 0
 894              		.type	vt, %object
ARM GAS  /tmp/ccWx56sG.s 			page 17


 895              		.size	vt, 20
 896              	vt:
 897 0000 00000000 		.space	20
 897      00000000 
 897      00000000 
 897      00000000 
 897      00000000 
 898              		.section	.bss.rx_thread_wa,"aw",%nobits
 899              		.align	3
 900              		.set	.LANCHOR8,. + 0
 901              		.type	rx_thread_wa, %object
 902              		.size	rx_thread_wa, 2456
 903              	rx_thread_wa:
 904 0000 00000000 		.space	2456
 904      00000000 
 904      00000000 
 904      00000000 
 904      00000000 
 905              		.section	.bss.basicRfConfig,"aw",%nobits
 906              		.align	2
 907              		.set	.LANCHOR7,. + 0
 908              		.type	basicRfConfig, %object
 909              		.size	basicRfConfig, 6
 910              	basicRfConfig:
 911 0000 00000000 		.space	6
 911      0000
 912              		.section	.bss.tx_slot_read,"aw",%nobits
 913              		.align	2
 914              		.set	.LANCHOR3,. + 0
 915              		.type	tx_slot_read, %object
 916              		.size	tx_slot_read, 4
 917              	tx_slot_read:
 918 0000 00000000 		.space	4
 919              		.section	.bss.tx_thread_wa,"aw",%nobits
 920              		.align	3
 921              		.set	.LANCHOR9,. + 0
 922              		.type	tx_thread_wa, %object
 923              		.size	tx_thread_wa, 920
 924              	tx_thread_wa:
 925 0000 00000000 		.space	920
 925      00000000 
 925      00000000 
 925      00000000 
 925      00000000 
 926              		.text
 927              	.Letext0:
 928              		.file 5 "/usr/lib/gcc/arm-none-eabi/4.9.3/include/stddef.h"
 929              		.file 6 "/usr/arm-none-eabi/include/machine/_default_types.h"
 930              		.file 7 "/usr/arm-none-eabi/include/sys/_stdint.h"
 931              		.file 8 "ChibiOS_3.0.2/os/rt/ports/ARMCMx/compilers/GCC/chtypes.h"
 932              		.file 9 "ChibiOS_3.0.2/os/rt/include/chsystypes.h"
 933              		.file 10 "ChibiOS_3.0.2/os/rt/include/chschd.h"
 934              		.file 11 "ChibiOS_3.0.2/os/rt/ports/ARMCMx/chcore.h"
 935              		.file 12 "ChibiOS_3.0.2/os/rt/ports/ARMCMx/chcore_v7m.h"
 936              		.file 13 "ChibiOS_3.0.2/os/rt/include/chtm.h"
 937              		.file 14 "ChibiOS_3.0.2/os/rt/include/chsem.h"
 938              		.file 15 "ChibiOS_3.0.2/os/rt/include/chmtx.h"
ARM GAS  /tmp/ccWx56sG.s 			page 18


 939              		.file 16 "ChibiOS_3.0.2/os/rt/include/chthreads.h"
 940              		.file 17 "datatypes.h"
 941              		.file 18 "cc2520/driver/hal_types.h"
 942              		.file 19 "cc2520/basicrf/basic_rf.h"
 943              		.file 20 "ChibiOS_3.0.2/os/rt/include/chsys.h"
 944              		.file 21 "ChibiOS_3.0.2/os/rt/include/chevents.h"
 945              		.file 22 "crc.h"
 946              		.file 23 "led.h"
 947              		.file 24 "comm_usb.h"
 948              		.file 25 "cc2520/driver/stm32_hw.h"
 949              		.file 26 "ChibiOS_3.0.2/os/ext/CMSIS/include/core_cm4.h"