ARM GAS  /tmp/cckmECMG.s 			page 1


   1              		.syntax unified
   2              		.cpu cortex-m4
   3              		.eabi_attribute 27, 1
   4              		.eabi_attribute 28, 1
   5              		.fpu fpv4-sp-d16
   6              		.eabi_attribute 20, 1
   7              		.eabi_attribute 21, 1
   8              		.eabi_attribute 23, 3
   9              		.eabi_attribute 24, 1
  10              		.eabi_attribute 25, 1
  11              		.eabi_attribute 26, 1
  12              		.eabi_attribute 30, 2
  13              		.eabi_attribute 34, 1
  14              		.eabi_attribute 18, 4
  15              		.thumb
  16              		.file	"spi_sw.c"
  17              		.text
  18              	.Ltext0:
  19              		.cfi_sections	.debug_frame
  20              		.section	.text.spi_sw_init,"ax",%progbits
  21              		.align	2
  22              		.p2align 4,,15
  23              		.global	spi_sw_init
  24              		.thumb
  25              		.thumb_func
  26              		.type	spi_sw_init, %function
  27              	spi_sw_init:
  28              	.LFB256:
  29              		.file 1 "cc2520/driver/spi_sw.c"
  30              		.loc 1 30 0
  31              		.cfi_startproc
  32              		@ args = 0, pretend = 0, frame = 0
  33              		@ frame_needed = 0, uses_anonymous_args = 0
  34 0000 38B5     		push	{r3, r4, r5, lr}
  35              		.cfi_def_cfa_offset 16
  36              		.cfi_offset 3, -16
  37              		.cfi_offset 4, -12
  38              		.cfi_offset 5, -8
  39              		.cfi_offset 14, -4
  40              		.loc 1 31 0
  41 0002 124D     		ldr	r5, .L5
  42 0004 2A78     		ldrb	r2, [r5]	@ zero_extendqisi2
  43 0006 FAB9     		cbnz	r2, .L1
  44              		.loc 1 32 0
  45 0008 114C     		ldr	r4, .L5+4
  46 000a 4FF40041 		mov	r1, #32768
  47 000e 2046     		mov	r0, r4
  48 0010 FFF7FEFF 		bl	_pal_lld_setgroupmode
  49              	.LVL0:
  50              		.loc 1 33 0
  51 0014 2046     		mov	r0, r4
  52 0016 4FF48051 		mov	r1, #4096
  53 001a 0122     		movs	r2, #1
  54 001c FFF7FEFF 		bl	_pal_lld_setgroupmode
  55              	.LVL1:
  56              		.loc 1 34 0
  57 0020 2046     		mov	r0, r4
ARM GAS  /tmp/cckmECMG.s 			page 2


  58 0022 4FF40051 		mov	r1, #8192
  59 0026 0122     		movs	r2, #1
  60 0028 FFF7FEFF 		bl	_pal_lld_setgroupmode
  61              	.LVL2:
  62              		.loc 1 35 0
  63 002c 4FF48041 		mov	r1, #16384
  64 0030 0122     		movs	r2, #1
  65 0032 2046     		mov	r0, r4
  66 0034 FFF7FEFF 		bl	_pal_lld_setgroupmode
  67              	.LVL3:
  68              		.loc 1 37 0
  69 0038 4FF48051 		mov	r1, #4096
  70              		.loc 1 38 0
  71 003c 4FF40052 		mov	r2, #8192
  72              		.loc 1 39 0
  73 0040 0123     		movs	r3, #1
  74              		.loc 1 37 0
  75 0042 2183     		strh	r1, [r4, #24]	@ movhi
  76              		.loc 1 38 0
  77 0044 6283     		strh	r2, [r4, #26]	@ movhi
  78              		.loc 1 39 0
  79 0046 2B70     		strb	r3, [r5]
  80              	.L1:
  81 0048 38BD     		pop	{r3, r4, r5, pc}
  82              	.L6:
  83 004a 00BF     		.align	2
  84              	.L5:
  85 004c 00000000 		.word	.LANCHOR0
  86 0050 00040240 		.word	1073873920
  87              		.cfi_endproc
  88              	.LFE256:
  89              		.size	spi_sw_init, .-spi_sw_init
  90              		.section	.text.spi_sw_transfer,"ax",%progbits
  91              		.align	2
  92              		.p2align 4,,15
  93              		.global	spi_sw_transfer
  94              		.thumb
  95              		.thumb_func
  96              		.type	spi_sw_transfer, %function
  97              	spi_sw_transfer:
  98              	.LFB257:
  99              		.loc 1 43 0
 100              		.cfi_startproc
 101              		@ args = 0, pretend = 0, frame = 0
 102              		@ frame_needed = 0, uses_anonymous_args = 0
 103              	.LVL4:
 104 0000 2DE9F041 		push	{r4, r5, r6, r7, r8, lr}
 105              		.cfi_def_cfa_offset 24
 106              		.cfi_offset 4, -24
 107              		.cfi_offset 5, -20
 108              		.cfi_offset 6, -16
 109              		.cfi_offset 7, -12
 110              		.cfi_offset 8, -8
 111              		.cfi_offset 14, -4
 112              		.loc 1 44 0
 113 0004 1B4D     		ldr	r5, .L27
 114 0006 4FF40053 		mov	r3, #8192
ARM GAS  /tmp/cckmECMG.s 			page 3


 115 000a 6B83     		strh	r3, [r5, #26]	@ movhi
 116              	.LBB27:
 117              	.LBB28:
 118              	.LBB29:
 119              		.file 2 "ChibiOS_3.0.2/os/ext/CMSIS/include/core_cmInstr.h"
 120              		.loc 2 327 0
 121              	@ 327 "ChibiOS_3.0.2/os/ext/CMSIS/include/core_cmInstr.h" 1
 122 000c 00BF     		nop
 123              	@ 0 "" 2
 124              	.LVL5:
 125              		.thumb
 126              	.LBE29:
 127              	.LBE28:
 128              	.LBE27:
 129              	.LBB30:
 130              		.loc 1 47 0
 131 000e 002A     		cmp	r2, #0
 132 0010 2CDD     		ble	.L7
 133 0012 4FF00008 		mov	r8, #0
 134              	.LVL6:
 135              	.L8:
 136              	.LBB31:
 137              		.loc 1 48 0
 138 0016 59B3     		cbz	r1, .L16
 139              		.loc 1 48 0 is_stmt 0 discriminator 1
 140 0018 11F80840 		ldrb	r4, [r1, r8]	@ zero_extendqisi2
 141              	.L9:
 142              	.LVL7:
 143 001c 0827     		movs	r7, #8
 144 001e 0023     		movs	r3, #0
 145              	.LBB32:
 146              		.loc 1 62 0 is_stmt 1 discriminator 1
 147 0020 4FF4005C 		mov	ip, #8192	@ movhi
 148              	.LVL8:
 149              	.L12:
 150              		.loc 1 52 0
 151 0024 C4F3C71E 		ubfx	lr, r4, #7, #8
 152 0028 BEF1000F 		cmp	lr, #0
 153 002c 0CBF     		ite	eq
 154 002e 4FF08046 		moveq	r6, #1073741824
 155 0032 0026     		movne	r6, #0
 156 0034 46EA8E36 		orr	r6, r6, lr, lsl #14
 157              		.loc 1 53 0
 158 0038 6400     		lsls	r4, r4, #1
 159              	.LVL9:
 160 003a E4B2     		uxtb	r4, r4
 161              	.LVL10:
 162              		.loc 1 52 0
 163 003c AE61     		str	r6, [r5, #24]
 164              	.LBB33:
 165              	.LBB34:
 166              	.LBB35:
 167              		.loc 2 327 0
 168              	@ 327 "ChibiOS_3.0.2/os/ext/CMSIS/include/core_cmInstr.h" 1
 169 003e 00BF     		nop
 170              	@ 0 "" 2
 171              		.thumb
ARM GAS  /tmp/cckmECMG.s 			page 4


 172              	.LBE35:
 173              	.LBE34:
 174              	.LBE33:
 175              		.loc 1 58 0
 176 0040 2E69     		ldr	r6, [r5, #16]
 177              		.loc 1 62 0
 178 0042 A5F818C0 		strh	ip, [r5, #24]	@ movhi
 179              		.loc 1 57 0
 180 0046 5B00     		lsls	r3, r3, #1
 181              	.LVL11:
 182 0048 DBB2     		uxtb	r3, r3
 183              	.LVL12:
 184              		.loc 1 58 0
 185 004a 16F4004F 		tst	r6, #32768
 186              		.loc 1 59 0
 187 004e 18BF     		it	ne
 188 0050 43F00103 		orrne	r3, r3, #1
 189              	.LVL13:
 190              	.LBB36:
 191              	.LBB37:
 192              	.LBB38:
 193              		.loc 2 327 0
 194              	@ 327 "ChibiOS_3.0.2/os/ext/CMSIS/include/core_cmInstr.h" 1
 195 0054 00BF     		nop
 196              	@ 0 "" 2
 197              		.thumb
 198              	.LBE38:
 199              	.LBE37:
 200              	.LBE36:
 201              		.loc 1 51 0
 202 0056 013F     		subs	r7, r7, #1
 203              	.LVL14:
 204              		.loc 1 64 0
 205 0058 A5F81AC0 		strh	ip, [r5, #26]	@ movhi
 206              	.LVL15:
 207              		.loc 1 51 0
 208 005c E2D1     		bne	.L12
 209              	.LBE32:
 210              		.loc 1 67 0
 211 005e 08B1     		cbz	r0, .L13
 212              		.loc 1 68 0
 213 0060 00F80830 		strb	r3, [r0, r8]
 214              	.L13:
 215              	.LBE31:
 216              		.loc 1 47 0 discriminator 2
 217 0064 08F10108 		add	r8, r8, #1
 218              	.LVL16:
 219 0068 9045     		cmp	r8, r2
 220 006a D4D1     		bne	.L8
 221              	.LVL17:
 222              	.L7:
 223 006c BDE8F081 		pop	{r4, r5, r6, r7, r8, pc}
 224              	.LVL18:
 225              	.L16:
 226              	.LBB39:
 227              		.loc 1 48 0
 228 0070 0C46     		mov	r4, r1
ARM GAS  /tmp/cckmECMG.s 			page 5


 229 0072 D3E7     		b	.L9
 230              	.L28:
 231              		.align	2
 232              	.L27:
 233 0074 00040240 		.word	1073873920
 234              	.LBE39:
 235              	.LBE30:
 236              		.cfi_endproc
 237              	.LFE257:
 238              		.size	spi_sw_transfer, .-spi_sw_transfer
 239              		.section	.text.spi_sw_begin,"ax",%progbits
 240              		.align	2
 241              		.p2align 4,,15
 242              		.global	spi_sw_begin
 243              		.thumb
 244              		.thumb_func
 245              		.type	spi_sw_begin, %function
 246              	spi_sw_begin:
 247              	.LFB258:
 248              		.loc 1 73 0
 249              		.cfi_startproc
 250              		@ args = 0, pretend = 0, frame = 0
 251              		@ frame_needed = 0, uses_anonymous_args = 0
 252              		@ link register save eliminated.
 253              		.loc 1 74 0
 254 0000 024B     		ldr	r3, .L30
 255 0002 4FF48052 		mov	r2, #4096
 256 0006 5A83     		strh	r2, [r3, #26]	@ movhi
 257              	.LBB40:
 258              	.LBB41:
 259              	.LBB42:
 260              		.loc 2 327 0
 261              	@ 327 "ChibiOS_3.0.2/os/ext/CMSIS/include/core_cmInstr.h" 1
 262 0008 00BF     		nop
 263              	@ 0 "" 2
 264              		.thumb
 265 000a 7047     		bx	lr
 266              	.L31:
 267              		.align	2
 268              	.L30:
 269 000c 00040240 		.word	1073873920
 270              	.LBE42:
 271              	.LBE41:
 272              	.LBE40:
 273              		.cfi_endproc
 274              	.LFE258:
 275              		.size	spi_sw_begin, .-spi_sw_begin
 276              		.section	.text.spi_sw_end,"ax",%progbits
 277              		.align	2
 278              		.p2align 4,,15
 279              		.global	spi_sw_end
 280              		.thumb
 281              		.thumb_func
 282              		.type	spi_sw_end, %function
 283              	spi_sw_end:
 284              	.LFB259:
 285              		.loc 1 78 0
ARM GAS  /tmp/cckmECMG.s 			page 6


 286              		.cfi_startproc
 287              		@ args = 0, pretend = 0, frame = 0
 288              		@ frame_needed = 0, uses_anonymous_args = 0
 289              		@ link register save eliminated.
 290              	.LBB43:
 291              	.LBB44:
 292              	.LBB45:
 293              		.loc 2 327 0
 294              	@ 327 "ChibiOS_3.0.2/os/ext/CMSIS/include/core_cmInstr.h" 1
 295 0000 00BF     		nop
 296              	@ 0 "" 2
 297              		.thumb
 298              	.LBE45:
 299              	.LBE44:
 300              	.LBE43:
 301              		.loc 1 80 0
 302 0002 024B     		ldr	r3, .L33
 303 0004 4FF48052 		mov	r2, #4096
 304 0008 1A83     		strh	r2, [r3, #24]	@ movhi
 305 000a 7047     		bx	lr
 306              	.L34:
 307              		.align	2
 308              	.L33:
 309 000c 00040240 		.word	1073873920
 310              		.cfi_endproc
 311              	.LFE259:
 312              		.size	spi_sw_end, .-spi_sw_end
 313              		.section	.bss.init_done,"aw",%nobits
 314              		.set	.LANCHOR0,. + 0
 315              		.type	init_done, %object
 316              		.size	init_done, 1
 317              	init_done:
 318 0000 00       		.space	1
 319              		.text
 320              	.Letext0:
 321              		.file 3 "/usr/lib/gcc/arm-none-eabi/4.9.3/include/stddef.h"
 322              		.file 4 "/usr/arm-none-eabi/include/machine/_default_types.h"
 323              		.file 5 "/usr/arm-none-eabi/include/sys/_stdint.h"
 324              		.file 6 "ChibiOS_3.0.2/os/rt/ports/ARMCMx/compilers/GCC/chtypes.h"
 325              		.file 7 "ChibiOS_3.0.2/os/rt/include/chsystypes.h"
 326              		.file 8 "ChibiOS_3.0.2/os/rt/include/chschd.h"
 327              		.file 9 "ChibiOS_3.0.2/os/rt/ports/ARMCMx/chcore.h"
 328              		.file 10 "ChibiOS_3.0.2/os/rt/ports/ARMCMx/chcore_v7m.h"
 329              		.file 11 "ChibiOS_3.0.2/os/rt/include/chtm.h"
 330              		.file 12 "ChibiOS_3.0.2/os/rt/include/chsem.h"
 331              		.file 13 "ChibiOS_3.0.2/os/rt/include/chmtx.h"
 332              		.file 14 "ChibiOS_3.0.2/os/hal/ports/STM32/LLD/GPIOv2/pal_lld.h"
 333              		.file 15 "ChibiOS_3.0.2/os/ext/CMSIS/include/core_cm4.h"