ARM GAS  /tmp/ccJf3cLB.s 			page 1


   1              		.syntax unified
   2              		.cpu cortex-m4
   3              		.eabi_attribute 27, 1
   4              		.eabi_attribute 28, 1
   5              		.fpu fpv4-sp-d16
   6              		.eabi_attribute 20, 1
   7              		.eabi_attribute 21, 1
   8              		.eabi_attribute 23, 3
   9              		.eabi_attribute 24, 1
  10              		.eabi_attribute 25, 1
  11              		.eabi_attribute 26, 1
  12              		.eabi_attribute 30, 2
  13              		.eabi_attribute 34, 1
  14              		.eabi_attribute 18, 4
  15              		.thumb
  16              		.file	"st.c"
  17              		.text
  18              	.Ltext0:
  19              		.cfi_sections	.debug_frame
  20              		.section	.text.stInit,"ax",%progbits
  21              		.align	2
  22              		.p2align 4,,15
  23              		.global	stInit
  24              		.thumb
  25              		.thumb_func
  26              		.type	stInit, %function
  27              	stInit:
  28              	.LFB256:
  29              		.file 1 "ChibiOS_3.0.2/os/hal/src/st.c"
  30              		.loc 1 60 0
  31              		.cfi_startproc
  32              		@ args = 0, pretend = 0, frame = 0
  33              		@ frame_needed = 0, uses_anonymous_args = 0
  34              		@ link register save eliminated.
  35              		.loc 1 62 0
  36 0000 FFF7FEBF 		b	st_lld_init
  37              	.LVL0:
  38              		.cfi_endproc
  39              	.LFE256:
  40              		.size	stInit, .-stInit
  41              		.section	.text.stStartAlarm,"ax",%progbits
  42              		.align	2
  43              		.p2align 4,,15
  44              		.global	stStartAlarm
  45              		.thumb
  46              		.thumb_func
  47              		.type	stStartAlarm, %function
  48              	stStartAlarm:
  49              	.LFB257:
  50              		.loc 1 77 0
  51              		.cfi_startproc
  52              		@ args = 0, pretend = 0, frame = 0
  53              		@ frame_needed = 0, uses_anonymous_args = 0
  54              		@ link register save eliminated.
  55              	.LVL1:
  56              	.LBB10:
  57              	.LBB11:
ARM GAS  /tmp/ccJf3cLB.s 			page 2


  58              		.file 2 "ChibiOS_3.0.2/os/hal/ports/STM32/LLD/TIMv1/st_lld.h"
  59              		.loc 2 143 0
  60 0000 4FF08043 		mov	r3, #1073741824
  61              	.LVL2:
  62              		.loc 2 144 0
  63 0004 0021     		movs	r1, #0
  64              		.loc 2 145 0
  65 0006 0222     		movs	r2, #2
  66              		.loc 2 143 0
  67 0008 5863     		str	r0, [r3, #52]
  68              		.loc 2 144 0
  69 000a 1961     		str	r1, [r3, #16]
  70              		.loc 2 145 0
  71 000c DA60     		str	r2, [r3, #12]
  72 000e 7047     		bx	lr
  73              	.LBE11:
  74              	.LBE10:
  75              		.cfi_endproc
  76              	.LFE257:
  77              		.size	stStartAlarm, .-stStartAlarm
  78              		.section	.text.stStopAlarm,"ax",%progbits
  79              		.align	2
  80              		.p2align 4,,15
  81              		.global	stStopAlarm
  82              		.thumb
  83              		.thumb_func
  84              		.type	stStopAlarm, %function
  85              	stStopAlarm:
  86              	.LFB258:
  87              		.loc 1 91 0
  88              		.cfi_startproc
  89              		@ args = 0, pretend = 0, frame = 0
  90              		@ frame_needed = 0, uses_anonymous_args = 0
  91              		@ link register save eliminated.
  92              	.LBB12:
  93              	.LBB13:
  94              		.loc 2 155 0
  95 0000 4FF08043 		mov	r3, #1073741824
  96 0004 0022     		movs	r2, #0
  97 0006 DA60     		str	r2, [r3, #12]
  98 0008 7047     		bx	lr
  99              	.LBE13:
 100              	.LBE12:
 101              		.cfi_endproc
 102              	.LFE258:
 103              		.size	stStopAlarm, .-stStopAlarm
 104              		.section	.text.stSetAlarm,"ax",%progbits
 105              		.align	2
 106              		.p2align 4,,15
 107              		.global	stSetAlarm
 108              		.thumb
 109              		.thumb_func
 110              		.type	stSetAlarm, %function
 111              	stSetAlarm:
 112              	.LFB259:
 113              		.loc 1 105 0
 114              		.cfi_startproc
ARM GAS  /tmp/ccJf3cLB.s 			page 3


 115              		@ args = 0, pretend = 0, frame = 0
 116              		@ frame_needed = 0, uses_anonymous_args = 0
 117              		@ link register save eliminated.
 118              	.LVL3:
 119              	.LBB14:
 120              	.LBB15:
 121              		.loc 2 167 0
 122 0000 4FF08043 		mov	r3, #1073741824
 123              	.LVL4:
 124 0004 5863     		str	r0, [r3, #52]
 125 0006 7047     		bx	lr
 126              	.LBE15:
 127              	.LBE14:
 128              		.cfi_endproc
 129              	.LFE259:
 130              		.size	stSetAlarm, .-stSetAlarm
 131              		.section	.text.stGetAlarm,"ax",%progbits
 132              		.align	2
 133              		.p2align 4,,15
 134              		.global	stGetAlarm
 135              		.thumb
 136              		.thumb_func
 137              		.type	stGetAlarm, %function
 138              	stGetAlarm:
 139              	.LFB260:
 140              		.loc 1 121 0
 141              		.cfi_startproc
 142              		@ args = 0, pretend = 0, frame = 0
 143              		@ frame_needed = 0, uses_anonymous_args = 0
 144              		@ link register save eliminated.
 145              	.LBB16:
 146              	.LBB17:
 147              		.loc 2 179 0
 148 0000 4FF08043 		mov	r3, #1073741824
 149 0004 586B     		ldr	r0, [r3, #52]
 150              	.LBE17:
 151              	.LBE16:
 152              		.loc 1 126 0
 153 0006 7047     		bx	lr
 154              		.cfi_endproc
 155              	.LFE260:
 156              		.size	stGetAlarm, .-stGetAlarm
 157              		.text
 158              	.Letext0:
 159              		.file 3 "/usr/arm-none-eabi/include/machine/_default_types.h"
 160              		.file 4 "/usr/arm-none-eabi/include/sys/_stdint.h"
 161              		.file 5 "ChibiOS_3.0.2/os/rt/ports/ARMCMx/compilers/GCC/chtypes.h"
 162              		.file 6 "ChibiOS_3.0.2/os/rt/include/chsystypes.h"
 163              		.file 7 "ChibiOS_3.0.2/os/rt/include/chschd.h"
 164              		.file 8 "ChibiOS_3.0.2/os/rt/ports/ARMCMx/chcore.h"
 165              		.file 9 "ChibiOS_3.0.2/os/rt/ports/ARMCMx/chcore_v7m.h"
 166              		.file 10 "ChibiOS_3.0.2/os/rt/include/chtm.h"
 167              		.file 11 "ChibiOS_3.0.2/os/rt/include/chsem.h"
 168              		.file 12 "ChibiOS_3.0.2/os/rt/include/chmtx.h"
 169              		.file 13 "ChibiOS_3.0.2/os/hal/ports/STM32/LLD/TIMv1/stm32_tim.h"
 170              		.file 14 "ChibiOS_3.0.2/os/ext/CMSIS/include/core_cm4.h"
 171              		.section	.debug_info,"",%progbits
ARM GAS  /tmp/ccJf3cLB.s 			page 4


 172              	.Ldebug_info0:
 173 0000 E1090000 		.4byte	0x9e1
 174 0004 0400     		.2byte	0x4
 175 0006 00000000 		.4byte	.Ldebug_abbrev0
 176 000a 04       		.byte	0x4
 177 000b 01       		.uleb128 0x1
 178 000c 43040000 		.4byte	.LASF125
 179 0010 01       		.byte	0x1
 180 0011 C8010000 		.4byte	.LASF126
 181 0015 0B030000 		.4byte	.LASF127
 182 0019 00000000 		.4byte	.Ldebug_ranges0+0
 183 001d 00000000 		.4byte	0
 184 0021 00000000 		.4byte	.Ldebug_line0
 185 0025 02       		.uleb128 0x2
 186 0026 04       		.byte	0x4
 187 0027 05       		.byte	0x5
 188 0028 696E7400 		.ascii	"int\000"
 189 002c 03       		.uleb128 0x3
 190 002d 04       		.byte	0x4
 191 002e 07       		.byte	0x7
 192 002f 86010000 		.4byte	.LASF0
 193 0033 03       		.uleb128 0x3
 194 0034 01       		.byte	0x1
 195 0035 06       		.byte	0x6
 196 0036 D6000000 		.4byte	.LASF1
 197 003a 04       		.uleb128 0x4
 198 003b 28000000 		.4byte	.LASF5
 199 003f 03       		.byte	0x3
 200 0040 1D       		.byte	0x1d
 201 0041 45000000 		.4byte	0x45
 202 0045 03       		.uleb128 0x3
 203 0046 01       		.byte	0x1
 204 0047 08       		.byte	0x8
 205 0048 5A030000 		.4byte	.LASF2
 206 004c 03       		.uleb128 0x3
 207 004d 02       		.byte	0x2
 208 004e 05       		.byte	0x5
 209 004f 72030000 		.4byte	.LASF3
 210 0053 03       		.uleb128 0x3
 211 0054 02       		.byte	0x2
 212 0055 07       		.byte	0x7
 213 0056 2F010000 		.4byte	.LASF4
 214 005a 04       		.uleb128 0x4
 215 005b 28020000 		.4byte	.LASF6
 216 005f 03       		.byte	0x3
 217 0060 3F       		.byte	0x3f
 218 0061 65000000 		.4byte	0x65
 219 0065 03       		.uleb128 0x3
 220 0066 04       		.byte	0x4
 221 0067 05       		.byte	0x5
 222 0068 05010000 		.4byte	.LASF7
 223 006c 04       		.uleb128 0x4
 224 006d 91050000 		.4byte	.LASF8
 225 0071 03       		.byte	0x3
 226 0072 41       		.byte	0x41
 227 0073 77000000 		.4byte	0x77
 228 0077 03       		.uleb128 0x3
ARM GAS  /tmp/ccJf3cLB.s 			page 5


 229 0078 04       		.byte	0x4
 230 0079 07       		.byte	0x7
 231 007a 1B040000 		.4byte	.LASF9
 232 007e 03       		.uleb128 0x3
 233 007f 08       		.byte	0x8
 234 0080 05       		.byte	0x5
 235 0081 63010000 		.4byte	.LASF10
 236 0085 04       		.uleb128 0x4
 237 0086 D9020000 		.4byte	.LASF11
 238 008a 03       		.byte	0x3
 239 008b 5B       		.byte	0x5b
 240 008c 90000000 		.4byte	0x90
 241 0090 03       		.uleb128 0x3
 242 0091 08       		.byte	0x8
 243 0092 07       		.byte	0x7
 244 0093 4D000000 		.4byte	.LASF12
 245 0097 04       		.uleb128 0x4
 246 0098 A3030000 		.4byte	.LASF13
 247 009c 04       		.byte	0x4
 248 009d 14       		.byte	0x14
 249 009e 3A000000 		.4byte	0x3a
 250 00a2 04       		.uleb128 0x4
 251 00a3 52030000 		.4byte	.LASF14
 252 00a7 04       		.byte	0x4
 253 00a8 1F       		.byte	0x1f
 254 00a9 5A000000 		.4byte	0x5a
 255 00ad 04       		.uleb128 0x4
 256 00ae F3030000 		.4byte	.LASF15
 257 00b2 04       		.byte	0x4
 258 00b3 20       		.byte	0x20
 259 00b4 6C000000 		.4byte	0x6c
 260 00b8 04       		.uleb128 0x4
 261 00b9 1F000000 		.4byte	.LASF16
 262 00bd 04       		.byte	0x4
 263 00be 26       		.byte	0x26
 264 00bf 85000000 		.4byte	0x85
 265 00c3 05       		.uleb128 0x5
 266 00c4 A2000000 		.4byte	0xa2
 267 00c8 05       		.uleb128 0x5
 268 00c9 AD000000 		.4byte	0xad
 269 00cd 04       		.uleb128 0x4
 270 00ce C8050000 		.4byte	.LASF17
 271 00d2 05       		.byte	0x5
 272 00d3 45       		.byte	0x45
 273 00d4 AD000000 		.4byte	0xad
 274 00d8 04       		.uleb128 0x4
 275 00d9 0E010000 		.4byte	.LASF18
 276 00dd 05       		.byte	0x5
 277 00de 48       		.byte	0x48
 278 00df 97000000 		.4byte	0x97
 279 00e3 04       		.uleb128 0x4
 280 00e4 16010000 		.4byte	.LASF19
 281 00e8 05       		.byte	0x5
 282 00e9 49       		.byte	0x49
 283 00ea 97000000 		.4byte	0x97
 284 00ee 04       		.uleb128 0x4
 285 00ef E4020000 		.4byte	.LASF20
ARM GAS  /tmp/ccJf3cLB.s 			page 6


 286 00f3 05       		.byte	0x5
 287 00f4 4A       		.byte	0x4a
 288 00f5 97000000 		.4byte	0x97
 289 00f9 04       		.uleb128 0x4
 290 00fa F1000000 		.4byte	.LASF21
 291 00fe 05       		.byte	0x5
 292 00ff 4B       		.byte	0x4b
 293 0100 97000000 		.4byte	0x97
 294 0104 04       		.uleb128 0x4
 295 0105 03030000 		.4byte	.LASF22
 296 0109 05       		.byte	0x5
 297 010a 4C       		.byte	0x4c
 298 010b AD000000 		.4byte	0xad
 299 010f 04       		.uleb128 0x4
 300 0110 F0010000 		.4byte	.LASF23
 301 0114 05       		.byte	0x5
 302 0115 4D       		.byte	0x4d
 303 0116 A2000000 		.4byte	0xa2
 304 011a 04       		.uleb128 0x4
 305 011b 1C020000 		.4byte	.LASF24
 306 011f 05       		.byte	0x5
 307 0120 4F       		.byte	0x4f
 308 0121 AD000000 		.4byte	0xad
 309 0125 04       		.uleb128 0x4
 310 0126 80010000 		.4byte	.LASF25
 311 012a 05       		.byte	0x5
 312 012b 51       		.byte	0x51
 313 012c A2000000 		.4byte	0xa2
 314 0130 04       		.uleb128 0x4
 315 0131 73050000 		.4byte	.LASF26
 316 0135 06       		.byte	0x6
 317 0136 33       		.byte	0x33
 318 0137 AD000000 		.4byte	0xad
 319 013b 04       		.uleb128 0x4
 320 013c 09060000 		.4byte	.LASF27
 321 0140 06       		.byte	0x6
 322 0141 3F       		.byte	0x3f
 323 0142 46010000 		.4byte	0x146
 324 0146 06       		.uleb128 0x6
 325 0147 E6010000 		.4byte	.LASF49
 326 014b 48       		.byte	0x48
 327 014c 07       		.byte	0x7
 328 014d C2       		.byte	0xc2
 329 014e 4B020000 		.4byte	0x24b
 330 0152 07       		.uleb128 0x7
 331 0153 9C030000 		.4byte	.LASF28
 332 0157 07       		.byte	0x7
 333 0158 C3       		.byte	0xc3
 334 0159 56020000 		.4byte	0x256
 335 015d 00       		.byte	0
 336 015e 07       		.uleb128 0x7
 337 015f FC020000 		.4byte	.LASF29
 338 0163 07       		.byte	0x7
 339 0164 C5       		.byte	0xc5
 340 0165 56020000 		.4byte	0x256
 341 0169 04       		.byte	0x4
 342 016a 07       		.uleb128 0x7
ARM GAS  /tmp/ccJf3cLB.s 			page 7


 343 016b BD000000 		.4byte	.LASF30
 344 016f 07       		.byte	0x7
 345 0170 C7       		.byte	0xc7
 346 0171 04010000 		.4byte	0x104
 347 0175 08       		.byte	0x8
 348 0176 07       		.uleb128 0x7
 349 0177 78060000 		.4byte	.LASF31
 350 017b 07       		.byte	0x7
 351 017c C8       		.byte	0xc8
 352 017d A6040000 		.4byte	0x4a6
 353 0181 0C       		.byte	0xc
 354 0182 07       		.uleb128 0x7
 355 0183 1F010000 		.4byte	.LASF32
 356 0187 07       		.byte	0x7
 357 0188 CA       		.byte	0xca
 358 0189 56020000 		.4byte	0x256
 359 018d 10       		.byte	0x10
 360 018e 07       		.uleb128 0x7
 361 018f 9C020000 		.4byte	.LASF33
 362 0193 07       		.byte	0x7
 363 0194 CB       		.byte	0xcb
 364 0195 56020000 		.4byte	0x256
 365 0199 14       		.byte	0x14
 366 019a 07       		.uleb128 0x7
 367 019b 35060000 		.4byte	.LASF34
 368 019f 07       		.byte	0x7
 369 01a0 D2       		.byte	0xd2
 370 01a1 EB060000 		.4byte	0x6eb
 371 01a5 18       		.byte	0x18
 372 01a6 07       		.uleb128 0x7
 373 01a7 7C030000 		.4byte	.LASF35
 374 01ab 07       		.byte	0x7
 375 01ac DD       		.byte	0xdd
 376 01ad E3000000 		.4byte	0xe3
 377 01b1 1C       		.byte	0x1c
 378 01b2 07       		.uleb128 0x7
 379 01b3 4F060000 		.4byte	.LASF36
 380 01b7 07       		.byte	0x7
 381 01b8 E1       		.byte	0xe1
 382 01b9 D8000000 		.4byte	0xd8
 383 01bd 1D       		.byte	0x1d
 384 01be 07       		.uleb128 0x7
 385 01bf 02060000 		.4byte	.LASF37
 386 01c3 07       		.byte	0x7
 387 01c4 E6       		.byte	0xe6
 388 01c5 EE000000 		.4byte	0xee
 389 01c9 1E       		.byte	0x1e
 390 01ca 07       		.uleb128 0x7
 391 01cb 84030000 		.4byte	.LASF38
 392 01cf 07       		.byte	0x7
 393 01d0 EC       		.byte	0xec
 394 01d1 F9000000 		.4byte	0xf9
 395 01d5 1F       		.byte	0x1f
 396 01d6 07       		.uleb128 0x7
 397 01d7 9B010000 		.4byte	.LASF39
 398 01db 07       		.byte	0x7
 399 01dc F3       		.byte	0xf3
ARM GAS  /tmp/ccJf3cLB.s 			page 8


 400 01dd FD060000 		.4byte	0x6fd
 401 01e1 20       		.byte	0x20
 402 01e2 08       		.uleb128 0x8
 403 01e3 705F7500 		.ascii	"p_u\000"
 404 01e7 07       		.byte	0x7
 405 01e8 3101     		.2byte	0x131
 406 01ea 26060000 		.4byte	0x626
 407 01ee 24       		.byte	0x24
 408 01ef 09       		.uleb128 0x9
 409 01f0 5F020000 		.4byte	.LASF40
 410 01f4 07       		.byte	0x7
 411 01f5 3601     		.2byte	0x136
 412 01f7 5C020000 		.4byte	0x25c
 413 01fb 28       		.byte	0x28
 414 01fc 09       		.uleb128 0x9
 415 01fd B2010000 		.4byte	.LASF41
 416 0201 07       		.byte	0x7
 417 0202 3C01     		.2byte	0x13c
 418 0204 80020000 		.4byte	0x280
 419 0208 2C       		.byte	0x2c
 420 0209 09       		.uleb128 0x9
 421 020a C2050000 		.4byte	.LASF42
 422 020e 07       		.byte	0x7
 423 020f 4001     		.2byte	0x140
 424 0211 0F010000 		.4byte	0x10f
 425 0215 34       		.byte	0x34
 426 0216 09       		.uleb128 0x9
 427 0217 E8030000 		.4byte	.LASF43
 428 021b 07       		.byte	0x7
 429 021c 4601     		.2byte	0x146
 430 021e 1A010000 		.4byte	0x11a
 431 0222 38       		.byte	0x38
 432 0223 09       		.uleb128 0x9
 433 0224 68030000 		.4byte	.LASF44
 434 0228 07       		.byte	0x7
 435 0229 4D01     		.2byte	0x14d
 436 022b E5060000 		.4byte	0x6e5
 437 022f 3C       		.byte	0x3c
 438 0230 09       		.uleb128 0x9
 439 0231 7D050000 		.4byte	.LASF45
 440 0235 07       		.byte	0x7
 441 0236 5101     		.2byte	0x151
 442 0238 04010000 		.4byte	0x104
 443 023c 40       		.byte	0x40
 444 023d 09       		.uleb128 0x9
 445 023e 4A010000 		.4byte	.LASF46
 446 0242 07       		.byte	0x7
 447 0243 5801     		.2byte	0x158
 448 0245 33030000 		.4byte	0x333
 449 0249 44       		.byte	0x44
 450 024a 00       		.byte	0
 451 024b 04       		.uleb128 0x4
 452 024c 72020000 		.4byte	.LASF47
 453 0250 06       		.byte	0x6
 454 0251 44       		.byte	0x44
 455 0252 56020000 		.4byte	0x256
 456 0256 0A       		.uleb128 0xa
ARM GAS  /tmp/ccJf3cLB.s 			page 9


 457 0257 04       		.byte	0x4
 458 0258 3B010000 		.4byte	0x13b
 459 025c 04       		.uleb128 0x4
 460 025d 50020000 		.4byte	.LASF48
 461 0261 06       		.byte	0x6
 462 0262 49       		.byte	0x49
 463 0263 67020000 		.4byte	0x267
 464 0267 06       		.uleb128 0x6
 465 0268 0B040000 		.4byte	.LASF50
 466 026c 04       		.byte	0x4
 467 026d 07       		.byte	0x7
 468 026e B0       		.byte	0xb0
 469 026f 80020000 		.4byte	0x280
 470 0273 07       		.uleb128 0x7
 471 0274 9C030000 		.4byte	.LASF28
 472 0278 07       		.byte	0x7
 473 0279 B1       		.byte	0xb1
 474 027a 56020000 		.4byte	0x256
 475 027e 00       		.byte	0
 476 027f 00       		.byte	0
 477 0280 04       		.uleb128 0x4
 478 0281 E9050000 		.4byte	.LASF51
 479 0285 06       		.byte	0x6
 480 0286 50       		.byte	0x50
 481 0287 8B020000 		.4byte	0x28b
 482 028b 06       		.uleb128 0x6
 483 028c AC000000 		.4byte	.LASF52
 484 0290 08       		.byte	0x8
 485 0291 07       		.byte	0x7
 486 0292 B7       		.byte	0xb7
 487 0293 B0020000 		.4byte	0x2b0
 488 0297 07       		.uleb128 0x7
 489 0298 9C030000 		.4byte	.LASF28
 490 029c 07       		.byte	0x7
 491 029d B8       		.byte	0xb8
 492 029e 56020000 		.4byte	0x256
 493 02a2 00       		.byte	0
 494 02a3 07       		.uleb128 0x7
 495 02a4 FC020000 		.4byte	.LASF29
 496 02a8 07       		.byte	0x7
 497 02a9 B9       		.byte	0xb9
 498 02aa 56020000 		.4byte	0x256
 499 02ae 04       		.byte	0x4
 500 02af 00       		.byte	0
 501 02b0 04       		.uleb128 0x4
 502 02b1 00000000 		.4byte	.LASF53
 503 02b5 06       		.byte	0x6
 504 02b6 57       		.byte	0x57
 505 02b7 BB020000 		.4byte	0x2bb
 506 02bb 0B       		.uleb128 0xb
 507 02bc 0E020000 		.4byte	.LASF54
 508 02c0 1C       		.byte	0x1c
 509 02c1 07       		.byte	0x7
 510 02c2 9001     		.2byte	0x190
 511 02c4 17030000 		.4byte	0x317
 512 02c8 09       		.uleb128 0x9
 513 02c9 03040000 		.4byte	.LASF55
ARM GAS  /tmp/ccJf3cLB.s 			page 10


 514 02cd 07       		.byte	0x7
 515 02ce 9101     		.2byte	0x191
 516 02d0 80020000 		.4byte	0x280
 517 02d4 00       		.byte	0
 518 02d5 09       		.uleb128 0x9
 519 02d6 8E030000 		.4byte	.LASF56
 520 02da 07       		.byte	0x7
 521 02db 9201     		.2byte	0x192
 522 02dd 04010000 		.4byte	0x104
 523 02e1 08       		.byte	0x8
 524 02e2 09       		.uleb128 0x9
 525 02e3 AB020000 		.4byte	.LASF57
 526 02e7 07       		.byte	0x7
 527 02e8 9401     		.2byte	0x194
 528 02ea A6040000 		.4byte	0x4a6
 529 02ee 0C       		.byte	0xc
 530 02ef 09       		.uleb128 0x9
 531 02f0 42010000 		.4byte	.LASF58
 532 02f4 07       		.byte	0x7
 533 02f5 9701     		.2byte	0x197
 534 02f7 56020000 		.4byte	0x256
 535 02fb 10       		.byte	0x10
 536 02fc 09       		.uleb128 0x9
 537 02fd D1020000 		.4byte	.LASF59
 538 0301 07       		.byte	0x7
 539 0302 9801     		.2byte	0x198
 540 0304 56020000 		.4byte	0x256
 541 0308 14       		.byte	0x14
 542 0309 09       		.uleb128 0x9
 543 030a C7020000 		.4byte	.LASF60
 544 030e 07       		.byte	0x7
 545 030f 9B01     		.2byte	0x19b
 546 0311 56020000 		.4byte	0x256
 547 0315 18       		.byte	0x18
 548 0316 00       		.byte	0
 549 0317 04       		.uleb128 0x4
 550 0318 88050000 		.4byte	.LASF61
 551 031c 06       		.byte	0x6
 552 031d 5C       		.byte	0x5c
 553 031e 22030000 		.4byte	0x322
 554 0322 0A       		.uleb128 0xa
 555 0323 04       		.byte	0x4
 556 0324 28030000 		.4byte	0x328
 557 0328 0C       		.uleb128 0xc
 558 0329 33030000 		.4byte	0x333
 559 032d 0D       		.uleb128 0xd
 560 032e 33030000 		.4byte	0x333
 561 0332 00       		.byte	0
 562 0333 0E       		.uleb128 0xe
 563 0334 04       		.byte	0x4
 564 0335 04       		.uleb128 0x4
 565 0336 EC020000 		.4byte	.LASF62
 566 033a 06       		.byte	0x6
 567 033b 61       		.byte	0x61
 568 033c 40030000 		.4byte	0x340
 569 0340 0B       		.uleb128 0xb
 570 0341 B4030000 		.4byte	.LASF63
ARM GAS  /tmp/ccJf3cLB.s 			page 11


 571 0345 14       		.byte	0x14
 572 0346 07       		.byte	0x7
 573 0347 6B01     		.2byte	0x16b
 574 0349 8F030000 		.4byte	0x38f
 575 034d 09       		.uleb128 0x9
 576 034e 93010000 		.4byte	.LASF64
 577 0352 07       		.byte	0x7
 578 0353 6C01     		.2byte	0x16c
 579 0355 02070000 		.4byte	0x702
 580 0359 00       		.byte	0
 581 035a 09       		.uleb128 0x9
 582 035b 5B010000 		.4byte	.LASF65
 583 035f 07       		.byte	0x7
 584 0360 6D01     		.2byte	0x16d
 585 0362 02070000 		.4byte	0x702
 586 0366 04       		.byte	0x4
 587 0367 09       		.uleb128 0x9
 588 0368 A9010000 		.4byte	.LASF66
 589 036c 07       		.byte	0x7
 590 036d 6E01     		.2byte	0x16e
 591 036f 30010000 		.4byte	0x130
 592 0373 08       		.byte	0x8
 593 0374 09       		.uleb128 0x9
 594 0375 7E060000 		.4byte	.LASF67
 595 0379 07       		.byte	0x7
 596 037a 6F01     		.2byte	0x16f
 597 037c 17030000 		.4byte	0x317
 598 0380 0C       		.byte	0xc
 599 0381 09       		.uleb128 0x9
 600 0382 E2050000 		.4byte	.LASF68
 601 0386 07       		.byte	0x7
 602 0387 7101     		.2byte	0x171
 603 0389 33030000 		.4byte	0x333
 604 038d 10       		.byte	0x10
 605 038e 00       		.byte	0
 606 038f 04       		.uleb128 0x4
 607 0390 78000000 		.4byte	.LASF69
 608 0394 06       		.byte	0x6
 609 0395 66       		.byte	0x66
 610 0396 9A030000 		.4byte	0x39a
 611 039a 0B       		.uleb128 0xb
 612 039b 85020000 		.4byte	.LASF70
 613 039f 10       		.byte	0x10
 614 03a0 07       		.byte	0x7
 615 03a1 7B01     		.2byte	0x17b
 616 03a3 DC030000 		.4byte	0x3dc
 617 03a7 09       		.uleb128 0x9
 618 03a8 93010000 		.4byte	.LASF64
 619 03ac 07       		.byte	0x7
 620 03ad 7C01     		.2byte	0x17c
 621 03af 02070000 		.4byte	0x702
 622 03b3 00       		.byte	0
 623 03b4 09       		.uleb128 0x9
 624 03b5 5B010000 		.4byte	.LASF65
 625 03b9 07       		.byte	0x7
 626 03ba 7E01     		.2byte	0x17e
 627 03bc 02070000 		.4byte	0x702
ARM GAS  /tmp/ccJf3cLB.s 			page 12


 628 03c0 04       		.byte	0x4
 629 03c1 09       		.uleb128 0x9
 630 03c2 A9010000 		.4byte	.LASF66
 631 03c6 07       		.byte	0x7
 632 03c7 8001     		.2byte	0x180
 633 03c9 30010000 		.4byte	0x130
 634 03cd 08       		.byte	0x8
 635 03ce 09       		.uleb128 0x9
 636 03cf 3C060000 		.4byte	.LASF71
 637 03d3 07       		.byte	0x7
 638 03d4 8201     		.2byte	0x182
 639 03d6 FD060000 		.4byte	0x6fd
 640 03da 0C       		.byte	0xc
 641 03db 00       		.byte	0
 642 03dc 04       		.uleb128 0x4
 643 03dd 3E000000 		.4byte	.LASF72
 644 03e1 06       		.byte	0x6
 645 03e2 6B       		.byte	0x6b
 646 03e3 E7030000 		.4byte	0x3e7
 647 03e7 0B       		.uleb128 0xb
 648 03e8 3C030000 		.4byte	.LASF73
 649 03ec 04       		.byte	0x4
 650 03ed 07       		.byte	0x7
 651 03ee A201     		.2byte	0x1a2
 652 03f0 02040000 		.4byte	0x402
 653 03f4 09       		.uleb128 0x9
 654 03f5 9C050000 		.4byte	.LASF74
 655 03f9 07       		.byte	0x7
 656 03fa AA01     		.2byte	0x1aa
 657 03fc 08070000 		.4byte	0x708
 658 0400 00       		.byte	0
 659 0401 00       		.byte	0
 660 0402 04       		.uleb128 0x4
 661 0403 F6010000 		.4byte	.LASF75
 662 0407 06       		.byte	0x6
 663 0408 70       		.byte	0x70
 664 0409 0D040000 		.4byte	0x40d
 665 040d 0F       		.uleb128 0xf
 666 040e FB000000 		.4byte	.LASF76
 667 0412 5802     		.2byte	0x258
 668 0414 07       		.byte	0x7
 669 0415 C201     		.2byte	0x1c2
 670 0417 69040000 		.4byte	0x469
 671 041b 09       		.uleb128 0x9
 672 041c 12060000 		.4byte	.LASF77
 673 0420 07       		.byte	0x7
 674 0421 C601     		.2byte	0x1c6
 675 0423 B0020000 		.4byte	0x2b0
 676 0427 00       		.byte	0
 677 0428 09       		.uleb128 0x9
 678 0429 EA000000 		.4byte	.LASF78
 679 042d 07       		.byte	0x7
 680 042e CA01     		.2byte	0x1ca
 681 0430 8F030000 		.4byte	0x38f
 682 0434 1C       		.byte	0x1c
 683 0435 08       		.uleb128 0x8
 684 0436 64626700 		.ascii	"dbg\000"
ARM GAS  /tmp/ccJf3cLB.s 			page 13


 685 043a 07       		.byte	0x7
 686 043b CE01     		.2byte	0x1ce
 687 043d DC030000 		.4byte	0x3dc
 688 0441 2C       		.byte	0x2c
 689 0442 09       		.uleb128 0x9
 690 0443 6D000000 		.4byte	.LASF79
 691 0447 07       		.byte	0x7
 692 0448 D201     		.2byte	0x1d2
 693 044a 3B010000 		.4byte	0x13b
 694 044e 30       		.byte	0x30
 695 044f 08       		.uleb128 0x8
 696 0450 746D00   		.ascii	"tm\000"
 697 0453 07       		.byte	0x7
 698 0454 D701     		.2byte	0x1d7
 699 0456 1B060000 		.4byte	0x61b
 700 045a 78       		.byte	0x78
 701 045b 09       		.uleb128 0x9
 702 045c 71010000 		.4byte	.LASF80
 703 0460 07       		.byte	0x7
 704 0461 E301     		.2byte	0x1e3
 705 0463 0D070000 		.4byte	0x70d
 706 0467 80       		.byte	0x80
 707 0468 00       		.byte	0
 708 0469 03       		.uleb128 0x3
 709 046a 04       		.byte	0x4
 710 046b 07       		.byte	0x7
 711 046c 69020000 		.4byte	.LASF81
 712 0470 10       		.uleb128 0x10
 713 0471 AD000000 		.4byte	0xad
 714 0475 80040000 		.4byte	0x480
 715 0479 11       		.uleb128 0x11
 716 047a 69040000 		.4byte	0x469
 717 047e 01       		.byte	0x1
 718 047f 00       		.byte	0
 719 0480 10       		.uleb128 0x10
 720 0481 AD000000 		.4byte	0xad
 721 0485 90040000 		.4byte	0x490
 722 0489 11       		.uleb128 0x11
 723 048a 69040000 		.4byte	0x469
 724 048e 03       		.byte	0x3
 725 048f 00       		.byte	0
 726 0490 04       		.uleb128 0x4
 727 0491 52010000 		.4byte	.LASF82
 728 0495 08       		.byte	0x8
 729 0496 65       		.byte	0x65
 730 0497 33030000 		.4byte	0x333
 731 049b 04       		.uleb128 0x4
 732 049c 45020000 		.4byte	.LASF83
 733 04a0 08       		.byte	0x8
 734 04a1 6D       		.byte	0x6d
 735 04a2 B8000000 		.4byte	0xb8
 736 04a6 06       		.uleb128 0x6
 737 04a7 BA050000 		.4byte	.LASF84
 738 04ab 04       		.byte	0x4
 739 04ac 08       		.byte	0x8
 740 04ad 89       		.byte	0x89
 741 04ae BF040000 		.4byte	0x4bf
ARM GAS  /tmp/ccJf3cLB.s 			page 14


 742 04b2 12       		.uleb128 0x12
 743 04b3 72313300 		.ascii	"r13\000"
 744 04b7 08       		.byte	0x8
 745 04b8 8A       		.byte	0x8a
 746 04b9 00060000 		.4byte	0x600
 747 04bd 00       		.byte	0
 748 04be 00       		.byte	0
 749 04bf 06       		.uleb128 0x6
 750 04c0 32000000 		.4byte	.LASF85
 751 04c4 64       		.byte	0x64
 752 04c5 09       		.byte	0x9
 753 04c6 F4       		.byte	0xf4
 754 04c7 00060000 		.4byte	0x600
 755 04cb 12       		.uleb128 0x12
 756 04cc 73313600 		.ascii	"s16\000"
 757 04d0 09       		.byte	0x9
 758 04d1 F6       		.byte	0xf6
 759 04d2 90040000 		.4byte	0x490
 760 04d6 00       		.byte	0
 761 04d7 12       		.uleb128 0x12
 762 04d8 73313700 		.ascii	"s17\000"
 763 04dc 09       		.byte	0x9
 764 04dd F7       		.byte	0xf7
 765 04de 90040000 		.4byte	0x490
 766 04e2 04       		.byte	0x4
 767 04e3 12       		.uleb128 0x12
 768 04e4 73313800 		.ascii	"s18\000"
 769 04e8 09       		.byte	0x9
 770 04e9 F8       		.byte	0xf8
 771 04ea 90040000 		.4byte	0x490
 772 04ee 08       		.byte	0x8
 773 04ef 12       		.uleb128 0x12
 774 04f0 73313900 		.ascii	"s19\000"
 775 04f4 09       		.byte	0x9
 776 04f5 F9       		.byte	0xf9
 777 04f6 90040000 		.4byte	0x490
 778 04fa 0C       		.byte	0xc
 779 04fb 12       		.uleb128 0x12
 780 04fc 73323000 		.ascii	"s20\000"
 781 0500 09       		.byte	0x9
 782 0501 FA       		.byte	0xfa
 783 0502 90040000 		.4byte	0x490
 784 0506 10       		.byte	0x10
 785 0507 12       		.uleb128 0x12
 786 0508 73323100 		.ascii	"s21\000"
 787 050c 09       		.byte	0x9
 788 050d FB       		.byte	0xfb
 789 050e 90040000 		.4byte	0x490
 790 0512 14       		.byte	0x14
 791 0513 12       		.uleb128 0x12
 792 0514 73323200 		.ascii	"s22\000"
 793 0518 09       		.byte	0x9
 794 0519 FC       		.byte	0xfc
 795 051a 90040000 		.4byte	0x490
 796 051e 18       		.byte	0x18
 797 051f 12       		.uleb128 0x12
 798 0520 73323300 		.ascii	"s23\000"
ARM GAS  /tmp/ccJf3cLB.s 			page 15


 799 0524 09       		.byte	0x9
 800 0525 FD       		.byte	0xfd
 801 0526 90040000 		.4byte	0x490
 802 052a 1C       		.byte	0x1c
 803 052b 12       		.uleb128 0x12
 804 052c 73323400 		.ascii	"s24\000"
 805 0530 09       		.byte	0x9
 806 0531 FE       		.byte	0xfe
 807 0532 90040000 		.4byte	0x490
 808 0536 20       		.byte	0x20
 809 0537 12       		.uleb128 0x12
 810 0538 73323500 		.ascii	"s25\000"
 811 053c 09       		.byte	0x9
 812 053d FF       		.byte	0xff
 813 053e 90040000 		.4byte	0x490
 814 0542 24       		.byte	0x24
 815 0543 08       		.uleb128 0x8
 816 0544 73323600 		.ascii	"s26\000"
 817 0548 09       		.byte	0x9
 818 0549 0001     		.2byte	0x100
 819 054b 90040000 		.4byte	0x490
 820 054f 28       		.byte	0x28
 821 0550 08       		.uleb128 0x8
 822 0551 73323700 		.ascii	"s27\000"
 823 0555 09       		.byte	0x9
 824 0556 0101     		.2byte	0x101
 825 0558 90040000 		.4byte	0x490
 826 055c 2C       		.byte	0x2c
 827 055d 08       		.uleb128 0x8
 828 055e 73323800 		.ascii	"s28\000"
 829 0562 09       		.byte	0x9
 830 0563 0201     		.2byte	0x102
 831 0565 90040000 		.4byte	0x490
 832 0569 30       		.byte	0x30
 833 056a 08       		.uleb128 0x8
 834 056b 73323900 		.ascii	"s29\000"
 835 056f 09       		.byte	0x9
 836 0570 0301     		.2byte	0x103
 837 0572 90040000 		.4byte	0x490
 838 0576 34       		.byte	0x34
 839 0577 08       		.uleb128 0x8
 840 0578 73333000 		.ascii	"s30\000"
 841 057c 09       		.byte	0x9
 842 057d 0401     		.2byte	0x104
 843 057f 90040000 		.4byte	0x490
 844 0583 38       		.byte	0x38
 845 0584 08       		.uleb128 0x8
 846 0585 73333100 		.ascii	"s31\000"
 847 0589 09       		.byte	0x9
 848 058a 0501     		.2byte	0x105
 849 058c 90040000 		.4byte	0x490
 850 0590 3C       		.byte	0x3c
 851 0591 08       		.uleb128 0x8
 852 0592 723400   		.ascii	"r4\000"
 853 0595 09       		.byte	0x9
 854 0596 0701     		.2byte	0x107
 855 0598 90040000 		.4byte	0x490
ARM GAS  /tmp/ccJf3cLB.s 			page 16


 856 059c 40       		.byte	0x40
 857 059d 08       		.uleb128 0x8
 858 059e 723500   		.ascii	"r5\000"
 859 05a1 09       		.byte	0x9
 860 05a2 0801     		.2byte	0x108
 861 05a4 90040000 		.4byte	0x490
 862 05a8 44       		.byte	0x44
 863 05a9 08       		.uleb128 0x8
 864 05aa 723600   		.ascii	"r6\000"
 865 05ad 09       		.byte	0x9
 866 05ae 0901     		.2byte	0x109
 867 05b0 90040000 		.4byte	0x490
 868 05b4 48       		.byte	0x48
 869 05b5 08       		.uleb128 0x8
 870 05b6 723700   		.ascii	"r7\000"
 871 05b9 09       		.byte	0x9
 872 05ba 0A01     		.2byte	0x10a
 873 05bc 90040000 		.4byte	0x490
 874 05c0 4C       		.byte	0x4c
 875 05c1 08       		.uleb128 0x8
 876 05c2 723800   		.ascii	"r8\000"
 877 05c5 09       		.byte	0x9
 878 05c6 0B01     		.2byte	0x10b
 879 05c8 90040000 		.4byte	0x490
 880 05cc 50       		.byte	0x50
 881 05cd 08       		.uleb128 0x8
 882 05ce 723900   		.ascii	"r9\000"
 883 05d1 09       		.byte	0x9
 884 05d2 0C01     		.2byte	0x10c
 885 05d4 90040000 		.4byte	0x490
 886 05d8 54       		.byte	0x54
 887 05d9 08       		.uleb128 0x8
 888 05da 72313000 		.ascii	"r10\000"
 889 05de 09       		.byte	0x9
 890 05df 0D01     		.2byte	0x10d
 891 05e1 90040000 		.4byte	0x490
 892 05e5 58       		.byte	0x58
 893 05e6 08       		.uleb128 0x8
 894 05e7 72313100 		.ascii	"r11\000"
 895 05eb 09       		.byte	0x9
 896 05ec 0E01     		.2byte	0x10e
 897 05ee 90040000 		.4byte	0x490
 898 05f2 5C       		.byte	0x5c
 899 05f3 08       		.uleb128 0x8
 900 05f4 6C7200   		.ascii	"lr\000"
 901 05f7 09       		.byte	0x9
 902 05f8 0F01     		.2byte	0x10f
 903 05fa 90040000 		.4byte	0x490
 904 05fe 60       		.byte	0x60
 905 05ff 00       		.byte	0
 906 0600 0A       		.uleb128 0xa
 907 0601 04       		.byte	0x4
 908 0602 BF040000 		.4byte	0x4bf
 909 0606 13       		.uleb128 0x13
 910 0607 04       		.byte	0x4
 911 0608 0A       		.byte	0xa
 912 0609 38       		.byte	0x38
ARM GAS  /tmp/ccJf3cLB.s 			page 17


 913 060a 1B060000 		.4byte	0x61b
 914 060e 07       		.uleb128 0x7
 915 060f A6050000 		.4byte	.LASF86
 916 0613 0A       		.byte	0xa
 917 0614 3C       		.byte	0x3c
 918 0615 CD000000 		.4byte	0xcd
 919 0619 00       		.byte	0
 920 061a 00       		.byte	0
 921 061b 04       		.uleb128 0x4
 922 061c B1020000 		.4byte	.LASF87
 923 0620 0A       		.byte	0xa
 924 0621 3D       		.byte	0x3d
 925 0622 06060000 		.4byte	0x606
 926 0626 14       		.uleb128 0x14
 927 0627 04       		.byte	0x4
 928 0628 07       		.byte	0x7
 929 0629 FA       		.byte	0xfa
 930 062a 83060000 		.4byte	0x683
 931 062e 15       		.uleb128 0x15
 932 062f 18000000 		.4byte	.LASF88
 933 0633 07       		.byte	0x7
 934 0634 0101     		.2byte	0x101
 935 0636 0F010000 		.4byte	0x10f
 936 063a 15       		.uleb128 0x15
 937 063b 64000000 		.4byte	.LASF89
 938 063f 07       		.byte	0x7
 939 0640 0801     		.2byte	0x108
 940 0642 0F010000 		.4byte	0x10f
 941 0646 15       		.uleb128 0x15
 942 0647 2E060000 		.4byte	.LASF90
 943 064b 07       		.byte	0x7
 944 064c 0F01     		.2byte	0x10f
 945 064e 33030000 		.4byte	0x333
 946 0652 15       		.uleb128 0x15
 947 0653 12000000 		.4byte	.LASF91
 948 0657 07       		.byte	0x7
 949 0658 1601     		.2byte	0x116
 950 065a 83060000 		.4byte	0x683
 951 065e 15       		.uleb128 0x15
 952 065f A2010000 		.4byte	.LASF92
 953 0663 07       		.byte	0x7
 954 0664 1E01     		.2byte	0x11e
 955 0666 AE060000 		.4byte	0x6ae
 956 066a 15       		.uleb128 0x15
 957 066b FC030000 		.4byte	.LASF93
 958 066f 07       		.byte	0x7
 959 0670 2701     		.2byte	0x127
 960 0672 E5060000 		.4byte	0x6e5
 961 0676 15       		.uleb128 0x15
 962 0677 95030000 		.4byte	.LASF94
 963 067b 07       		.byte	0x7
 964 067c 2F01     		.2byte	0x12f
 965 067e 1A010000 		.4byte	0x11a
 966 0682 00       		.byte	0
 967 0683 0A       		.uleb128 0xa
 968 0684 04       		.byte	0x4
 969 0685 4B020000 		.4byte	0x24b
ARM GAS  /tmp/ccJf3cLB.s 			page 18


 970 0689 06       		.uleb128 0x6
 971 068a D6030000 		.4byte	.LASF95
 972 068e 0C       		.byte	0xc
 973 068f 0B       		.byte	0xb
 974 0690 34       		.byte	0x34
 975 0691 AE060000 		.4byte	0x6ae
 976 0695 07       		.uleb128 0x7
 977 0696 27010000 		.4byte	.LASF96
 978 069a 0B       		.byte	0xb
 979 069b 35       		.byte	0x35
 980 069c 80020000 		.4byte	0x280
 981 06a0 00       		.byte	0
 982 06a1 07       		.uleb128 0x7
 983 06a2 BD010000 		.4byte	.LASF97
 984 06a6 0B       		.byte	0xb
 985 06a7 37       		.byte	0x37
 986 06a8 25010000 		.4byte	0x125
 987 06ac 08       		.byte	0x8
 988 06ad 00       		.byte	0
 989 06ae 0A       		.uleb128 0xa
 990 06af 04       		.byte	0x4
 991 06b0 89060000 		.4byte	0x689
 992 06b4 06       		.uleb128 0x6
 993 06b5 F9050000 		.4byte	.LASF98
 994 06b9 10       		.byte	0x10
 995 06ba 0C       		.byte	0xc
 996 06bb 39       		.byte	0x39
 997 06bc E5060000 		.4byte	0x6e5
 998 06c0 07       		.uleb128 0x7
 999 06c1 E2000000 		.4byte	.LASF99
 1000 06c5 0C       		.byte	0xc
 1001 06c6 3A       		.byte	0x3a
 1002 06c7 80020000 		.4byte	0x280
 1003 06cb 00       		.byte	0
 1004 06cc 07       		.uleb128 0x7
 1005 06cd 70060000 		.4byte	.LASF100
 1006 06d1 0C       		.byte	0xc
 1007 06d2 3C       		.byte	0x3c
 1008 06d3 56020000 		.4byte	0x256
 1009 06d7 08       		.byte	0x8
 1010 06d8 07       		.uleb128 0x7
 1011 06d9 6C050000 		.4byte	.LASF101
 1012 06dd 0C       		.byte	0xc
 1013 06de 3E       		.byte	0x3e
 1014 06df 28070000 		.4byte	0x728
 1015 06e3 0C       		.byte	0xc
 1016 06e4 00       		.byte	0
 1017 06e5 0A       		.uleb128 0xa
 1018 06e6 04       		.byte	0x4
 1019 06e7 B4060000 		.4byte	0x6b4
 1020 06eb 0A       		.uleb128 0xa
 1021 06ec 04       		.byte	0x4
 1022 06ed F1060000 		.4byte	0x6f1
 1023 06f1 16       		.uleb128 0x16
 1024 06f2 F6060000 		.4byte	0x6f6
 1025 06f6 03       		.uleb128 0x3
 1026 06f7 01       		.byte	0x1
ARM GAS  /tmp/ccJf3cLB.s 			page 19


 1027 06f8 08       		.byte	0x8
 1028 06f9 39040000 		.4byte	.LASF102
 1029 06fd 05       		.uleb128 0x5
 1030 06fe 30010000 		.4byte	0x130
 1031 0702 0A       		.uleb128 0xa
 1032 0703 04       		.byte	0x4
 1033 0704 35030000 		.4byte	0x335
 1034 0708 05       		.uleb128 0x5
 1035 0709 EB060000 		.4byte	0x6eb
 1036 070d 10       		.uleb128 0x10
 1037 070e 9B040000 		.4byte	0x49b
 1038 0712 1D070000 		.4byte	0x71d
 1039 0716 11       		.uleb128 0x11
 1040 0717 69040000 		.4byte	0x469
 1041 071b 3A       		.byte	0x3a
 1042 071c 00       		.byte	0
 1043 071d 04       		.uleb128 0x4
 1044 071e 68060000 		.4byte	.LASF103
 1045 0722 0C       		.byte	0xc
 1046 0723 34       		.byte	0x34
 1047 0724 B4060000 		.4byte	0x6b4
 1048 0728 0A       		.uleb128 0xa
 1049 0729 04       		.byte	0x4
 1050 072a 1D070000 		.4byte	0x71d
 1051 072e 03       		.uleb128 0x3
 1052 072f 01       		.byte	0x1
 1053 0730 02       		.byte	0x2
 1054 0731 4C030000 		.4byte	.LASF104
 1055 0735 17       		.uleb128 0x17
 1056 0736 60       		.byte	0x60
 1057 0737 0D       		.byte	0xd
 1058 0738 9E01     		.2byte	0x19e
 1059 073a 41080000 		.4byte	0x841
 1060 073e 08       		.uleb128 0x8
 1061 073f 43523100 		.ascii	"CR1\000"
 1062 0743 0D       		.byte	0xd
 1063 0744 9F01     		.2byte	0x19f
 1064 0746 C8000000 		.4byte	0xc8
 1065 074a 00       		.byte	0
 1066 074b 08       		.uleb128 0x8
 1067 074c 43523200 		.ascii	"CR2\000"
 1068 0750 0D       		.byte	0xd
 1069 0751 A001     		.2byte	0x1a0
 1070 0753 C8000000 		.4byte	0xc8
 1071 0757 04       		.byte	0x4
 1072 0758 09       		.uleb128 0x9
 1073 0759 C3010000 		.4byte	.LASF105
 1074 075d 0D       		.byte	0xd
 1075 075e A101     		.2byte	0x1a1
 1076 0760 C8000000 		.4byte	0xc8
 1077 0764 08       		.byte	0x8
 1078 0765 09       		.uleb128 0x9
 1079 0766 0D000000 		.4byte	.LASF106
 1080 076a 0D       		.byte	0xd
 1081 076b A201     		.2byte	0x1a2
 1082 076d C8000000 		.4byte	0xc8
 1083 0771 0C       		.byte	0xc
ARM GAS  /tmp/ccJf3cLB.s 			page 20


 1084 0772 08       		.uleb128 0x8
 1085 0773 535200   		.ascii	"SR\000"
 1086 0776 0D       		.byte	0xd
 1087 0777 A301     		.2byte	0x1a3
 1088 0779 C8000000 		.4byte	0xc8
 1089 077d 10       		.byte	0x10
 1090 077e 08       		.uleb128 0x8
 1091 077f 45475200 		.ascii	"EGR\000"
 1092 0783 0D       		.byte	0xd
 1093 0784 A401     		.2byte	0x1a4
 1094 0786 C8000000 		.4byte	0xc8
 1095 078a 14       		.byte	0x14
 1096 078b 09       		.uleb128 0x9
 1097 078c C4000000 		.4byte	.LASF107
 1098 0790 0D       		.byte	0xd
 1099 0791 A501     		.2byte	0x1a5
 1100 0793 C8000000 		.4byte	0xc8
 1101 0797 18       		.byte	0x18
 1102 0798 09       		.uleb128 0x9
 1103 0799 CA000000 		.4byte	.LASF108
 1104 079d 0D       		.byte	0xd
 1105 079e A601     		.2byte	0x1a6
 1106 07a0 C8000000 		.4byte	0xc8
 1107 07a4 1C       		.byte	0x1c
 1108 07a5 09       		.uleb128 0x9
 1109 07a6 67050000 		.4byte	.LASF109
 1110 07aa 0D       		.byte	0xd
 1111 07ab A701     		.2byte	0x1a7
 1112 07ad C8000000 		.4byte	0xc8
 1113 07b1 20       		.byte	0x20
 1114 07b2 08       		.uleb128 0x8
 1115 07b3 434E5400 		.ascii	"CNT\000"
 1116 07b7 0D       		.byte	0xd
 1117 07b8 A801     		.2byte	0x1a8
 1118 07ba C8000000 		.4byte	0xc8
 1119 07be 24       		.byte	0x24
 1120 07bf 08       		.uleb128 0x8
 1121 07c0 50534300 		.ascii	"PSC\000"
 1122 07c4 0D       		.byte	0xd
 1123 07c5 A901     		.2byte	0x1a9
 1124 07c7 C8000000 		.4byte	0xc8
 1125 07cb 28       		.byte	0x28
 1126 07cc 08       		.uleb128 0x8
 1127 07cd 41525200 		.ascii	"ARR\000"
 1128 07d1 0D       		.byte	0xd
 1129 07d2 AA01     		.2byte	0x1aa
 1130 07d4 C8000000 		.4byte	0xc8
 1131 07d8 2C       		.byte	0x2c
 1132 07d9 08       		.uleb128 0x8
 1133 07da 52435200 		.ascii	"RCR\000"
 1134 07de 0D       		.byte	0xd
 1135 07df AB01     		.2byte	0x1ab
 1136 07e1 C8000000 		.4byte	0xc8
 1137 07e5 30       		.byte	0x30
 1138 07e6 08       		.uleb128 0x8
 1139 07e7 43435200 		.ascii	"CCR\000"
 1140 07eb 0D       		.byte	0xd
ARM GAS  /tmp/ccJf3cLB.s 			page 21


 1141 07ec AC01     		.2byte	0x1ac
 1142 07ee 41080000 		.4byte	0x841
 1143 07f2 34       		.byte	0x34
 1144 07f3 09       		.uleb128 0x9
 1145 07f4 A7000000 		.4byte	.LASF110
 1146 07f8 0D       		.byte	0xd
 1147 07f9 AD01     		.2byte	0x1ad
 1148 07fb C8000000 		.4byte	0xc8
 1149 07ff 44       		.byte	0x44
 1150 0800 08       		.uleb128 0x8
 1151 0801 44435200 		.ascii	"DCR\000"
 1152 0805 0D       		.byte	0xd
 1153 0806 AE01     		.2byte	0x1ae
 1154 0808 C8000000 		.4byte	0xc8
 1155 080c 48       		.byte	0x48
 1156 080d 09       		.uleb128 0x9
 1157 080e 3E040000 		.4byte	.LASF111
 1158 0812 0D       		.byte	0xd
 1159 0813 AF01     		.2byte	0x1af
 1160 0815 C8000000 		.4byte	0xc8
 1161 0819 4C       		.byte	0x4c
 1162 081a 08       		.uleb128 0x8
 1163 081b 4F5200   		.ascii	"OR\000"
 1164 081e 0D       		.byte	0xd
 1165 081f B001     		.2byte	0x1b0
 1166 0821 C8000000 		.4byte	0xc8
 1167 0825 50       		.byte	0x50
 1168 0826 09       		.uleb128 0x9
 1169 0827 D0000000 		.4byte	.LASF112
 1170 082b 0D       		.byte	0xd
 1171 082c B101     		.2byte	0x1b1
 1172 082e C8000000 		.4byte	0xc8
 1173 0832 54       		.byte	0x54
 1174 0833 09       		.uleb128 0x9
 1175 0834 E3030000 		.4byte	.LASF113
 1176 0838 0D       		.byte	0xd
 1177 0839 B201     		.2byte	0x1b2
 1178 083b 46080000 		.4byte	0x846
 1179 083f 58       		.byte	0x58
 1180 0840 00       		.byte	0
 1181 0841 05       		.uleb128 0x5
 1182 0842 80040000 		.4byte	0x480
 1183 0846 05       		.uleb128 0x5
 1184 0847 70040000 		.4byte	0x470
 1185 084b 18       		.uleb128 0x18
 1186 084c 02020000 		.4byte	.LASF114
 1187 0850 0D       		.byte	0xd
 1188 0851 B301     		.2byte	0x1b3
 1189 0853 35070000 		.4byte	0x735
 1190 0857 19       		.uleb128 0x19
 1191 0858 32020000 		.4byte	.LASF115
 1192 085c 02       		.byte	0x2
 1193 085d 8D       		.byte	0x8d
 1194 085e 03       		.byte	0x3
 1195 085f 6F080000 		.4byte	0x86f
 1196 0863 1A       		.uleb128 0x1a
 1197 0864 C2020000 		.4byte	.LASF117
ARM GAS  /tmp/ccJf3cLB.s 			page 22


 1198 0868 02       		.byte	0x2
 1199 0869 8D       		.byte	0x8d
 1200 086a 30010000 		.4byte	0x130
 1201 086e 00       		.byte	0
 1202 086f 1B       		.uleb128 0x1b
 1203 0870 D0050000 		.4byte	.LASF128
 1204 0874 02       		.byte	0x2
 1205 0875 99       		.byte	0x99
 1206 0876 03       		.byte	0x3
 1207 0877 19       		.uleb128 0x19
 1208 0878 57060000 		.4byte	.LASF116
 1209 087c 02       		.byte	0x2
 1210 087d A5       		.byte	0xa5
 1211 087e 03       		.byte	0x3
 1212 087f 8F080000 		.4byte	0x88f
 1213 0883 1A       		.uleb128 0x1a
 1214 0884 C2020000 		.4byte	.LASF117
 1215 0888 02       		.byte	0x2
 1216 0889 A5       		.byte	0xa5
 1217 088a 30010000 		.4byte	0x130
 1218 088e 00       		.byte	0
 1219 088f 1C       		.uleb128 0x1c
 1220 0890 C5030000 		.4byte	.LASF129
 1221 0894 02       		.byte	0x2
 1222 0895 B1       		.byte	0xb1
 1223 0896 30010000 		.4byte	0x130
 1224 089a 03       		.byte	0x3
 1225 089b 1D       		.uleb128 0x1d
 1226 089c A4020000 		.4byte	.LASF118
 1227 08a0 01       		.byte	0x1
 1228 08a1 3C       		.byte	0x3c
 1229 08a2 00000000 		.4byte	.LFB256
 1230 08a6 04000000 		.4byte	.LFE256-.LFB256
 1231 08aa 01       		.uleb128 0x1
 1232 08ab 9C       		.byte	0x9c
 1233 08ac BA080000 		.4byte	0x8ba
 1234 08b0 1E       		.uleb128 0x1e
 1235 08b1 04000000 		.4byte	.LVL0
 1236 08b5 DD090000 		.4byte	0x9dd
 1237 08b9 00       		.byte	0
 1238 08ba 1D       		.uleb128 0x1d
 1239 08bb AD050000 		.4byte	.LASF119
 1240 08bf 01       		.byte	0x1
 1241 08c0 4D       		.byte	0x4d
 1242 08c1 00000000 		.4byte	.LFB257
 1243 08c5 10000000 		.4byte	.LFE257-.LFB257
 1244 08c9 01       		.uleb128 0x1
 1245 08ca 9C       		.byte	0x9c
 1246 08cb FD080000 		.4byte	0x8fd
 1247 08cf 1F       		.uleb128 0x1f
 1248 08d0 47060000 		.4byte	.LASF122
 1249 08d4 01       		.byte	0x1
 1250 08d5 4D       		.byte	0x4d
 1251 08d6 30010000 		.4byte	0x130
 1252 08da 01       		.uleb128 0x1
 1253 08db 50       		.byte	0x50
 1254 08dc 20       		.uleb128 0x20
ARM GAS  /tmp/ccJf3cLB.s 			page 23


 1255 08dd AB030000 		.4byte	.LASF123
 1256 08e1 0D090000 		.4byte	0x90d
 1257 08e5 21       		.uleb128 0x21
 1258 08e6 57080000 		.4byte	0x857
 1259 08ea 00000000 		.4byte	.LBB10
 1260 08ee 10000000 		.4byte	.LBE10-.LBB10
 1261 08f2 01       		.byte	0x1
 1262 08f3 51       		.byte	0x51
 1263 08f4 22       		.uleb128 0x22
 1264 08f5 63080000 		.4byte	0x863
 1265 08f9 01       		.uleb128 0x1
 1266 08fa 50       		.byte	0x50
 1267 08fb 00       		.byte	0
 1268 08fc 00       		.byte	0
 1269 08fd 10       		.uleb128 0x10
 1270 08fe F6060000 		.4byte	0x6f6
 1271 0902 0D090000 		.4byte	0x90d
 1272 0906 11       		.uleb128 0x11
 1273 0907 69040000 		.4byte	0x469
 1274 090b 0C       		.byte	0xc
 1275 090c 00       		.byte	0
 1276 090d 16       		.uleb128 0x16
 1277 090e FD080000 		.4byte	0x8fd
 1278 0912 1D       		.uleb128 0x1d
 1279 0913 2D040000 		.4byte	.LASF120
 1280 0917 01       		.byte	0x1
 1281 0918 5B       		.byte	0x5b
 1282 0919 00000000 		.4byte	.LFB258
 1283 091d 0A000000 		.4byte	.LFE258-.LFB258
 1284 0921 01       		.uleb128 0x1
 1285 0922 9C       		.byte	0x9c
 1286 0923 37090000 		.4byte	0x937
 1287 0927 23       		.uleb128 0x23
 1288 0928 6F080000 		.4byte	0x86f
 1289 092c 00000000 		.4byte	.LBB12
 1290 0930 0A000000 		.4byte	.LBE12-.LBB12
 1291 0934 01       		.byte	0x1
 1292 0935 5D       		.byte	0x5d
 1293 0936 00       		.byte	0
 1294 0937 1D       		.uleb128 0x1d
 1295 0938 18060000 		.4byte	.LASF121
 1296 093c 01       		.byte	0x1
 1297 093d 69       		.byte	0x69
 1298 093e 00000000 		.4byte	.LFB259
 1299 0942 08000000 		.4byte	.LFE259-.LFB259
 1300 0946 01       		.uleb128 0x1
 1301 0947 9C       		.byte	0x9c
 1302 0948 7A090000 		.4byte	0x97a
 1303 094c 1F       		.uleb128 0x1f
 1304 094d 47060000 		.4byte	.LASF122
 1305 0951 01       		.byte	0x1
 1306 0952 69       		.byte	0x69
 1307 0953 30010000 		.4byte	0x130
 1308 0957 01       		.uleb128 0x1
 1309 0958 50       		.byte	0x50
 1310 0959 20       		.uleb128 0x20
 1311 095a AB030000 		.4byte	.LASF123
ARM GAS  /tmp/ccJf3cLB.s 			page 24


 1312 095e 8A090000 		.4byte	0x98a
 1313 0962 21       		.uleb128 0x21
 1314 0963 77080000 		.4byte	0x877
 1315 0967 00000000 		.4byte	.LBB14
 1316 096b 08000000 		.4byte	.LBE14-.LBB14
 1317 096f 01       		.byte	0x1
 1318 0970 6D       		.byte	0x6d
 1319 0971 22       		.uleb128 0x22
 1320 0972 83080000 		.4byte	0x883
 1321 0976 01       		.uleb128 0x1
 1322 0977 50       		.byte	0x50
 1323 0978 00       		.byte	0
 1324 0979 00       		.byte	0
 1325 097a 10       		.uleb128 0x10
 1326 097b F6060000 		.4byte	0x6f6
 1327 097f 8A090000 		.4byte	0x98a
 1328 0983 11       		.uleb128 0x11
 1329 0984 69040000 		.4byte	0x469
 1330 0988 0A       		.byte	0xa
 1331 0989 00       		.byte	0
 1332 098a 16       		.uleb128 0x16
 1333 098b 7A090000 		.4byte	0x97a
 1334 098f 24       		.uleb128 0x24
 1335 0990 23060000 		.4byte	.LASF130
 1336 0994 01       		.byte	0x1
 1337 0995 79       		.byte	0x79
 1338 0996 30010000 		.4byte	0x130
 1339 099a 00000000 		.4byte	.LFB260
 1340 099e 08000000 		.4byte	.LFE260-.LFB260
 1341 09a2 01       		.uleb128 0x1
 1342 09a3 9C       		.byte	0x9c
 1343 09a4 C1090000 		.4byte	0x9c1
 1344 09a8 20       		.uleb128 0x20
 1345 09a9 AB030000 		.4byte	.LASF123
 1346 09ad C1090000 		.4byte	0x9c1
 1347 09b1 23       		.uleb128 0x23
 1348 09b2 8F080000 		.4byte	0x88f
 1349 09b6 00000000 		.4byte	.LBB16
 1350 09ba 06000000 		.4byte	.LBE16-.LBB16
 1351 09be 01       		.byte	0x1
 1352 09bf 7D       		.byte	0x7d
 1353 09c0 00       		.byte	0
 1354 09c1 16       		.uleb128 0x16
 1355 09c2 7A090000 		.4byte	0x97a
 1356 09c6 25       		.uleb128 0x25
 1357 09c7 8E000000 		.4byte	.LASF124
 1358 09cb 0E       		.byte	0xe
 1359 09cc A706     		.2byte	0x6a7
 1360 09ce C3000000 		.4byte	0xc3
 1361 09d2 26       		.uleb128 0x26
 1362 09d3 636800   		.ascii	"ch\000"
 1363 09d6 07       		.byte	0x7
 1364 09d7 0902     		.2byte	0x209
 1365 09d9 02040000 		.4byte	0x402
 1366 09dd 27       		.uleb128 0x27
 1367 09de 9B000000 		.4byte	.LASF131
 1368 09e2 02       		.byte	0x2
ARM GAS  /tmp/ccJf3cLB.s 			page 25


 1369 09e3 6F       		.byte	0x6f
 1370 09e4 00       		.byte	0
 1371              		.section	.debug_abbrev,"",%progbits
 1372              	.Ldebug_abbrev0:
 1373 0000 01       		.uleb128 0x1
 1374 0001 11       		.uleb128 0x11
 1375 0002 01       		.byte	0x1
 1376 0003 25       		.uleb128 0x25
 1377 0004 0E       		.uleb128 0xe
 1378 0005 13       		.uleb128 0x13
 1379 0006 0B       		.uleb128 0xb
 1380 0007 03       		.uleb128 0x3
 1381 0008 0E       		.uleb128 0xe
 1382 0009 1B       		.uleb128 0x1b
 1383 000a 0E       		.uleb128 0xe
 1384 000b 55       		.uleb128 0x55
 1385 000c 17       		.uleb128 0x17
 1386 000d 11       		.uleb128 0x11
 1387 000e 01       		.uleb128 0x1
 1388 000f 10       		.uleb128 0x10
 1389 0010 17       		.uleb128 0x17
 1390 0011 00       		.byte	0
 1391 0012 00       		.byte	0
 1392 0013 02       		.uleb128 0x2
 1393 0014 24       		.uleb128 0x24
 1394 0015 00       		.byte	0
 1395 0016 0B       		.uleb128 0xb
 1396 0017 0B       		.uleb128 0xb
 1397 0018 3E       		.uleb128 0x3e
 1398 0019 0B       		.uleb128 0xb
 1399 001a 03       		.uleb128 0x3
 1400 001b 08       		.uleb128 0x8
 1401 001c 00       		.byte	0
 1402 001d 00       		.byte	0
 1403 001e 03       		.uleb128 0x3
 1404 001f 24       		.uleb128 0x24
 1405 0020 00       		.byte	0
 1406 0021 0B       		.uleb128 0xb
 1407 0022 0B       		.uleb128 0xb
 1408 0023 3E       		.uleb128 0x3e
 1409 0024 0B       		.uleb128 0xb
 1410 0025 03       		.uleb128 0x3
 1411 0026 0E       		.uleb128 0xe
 1412 0027 00       		.byte	0
 1413 0028 00       		.byte	0
 1414 0029 04       		.uleb128 0x4
 1415 002a 16       		.uleb128 0x16
 1416 002b 00       		.byte	0
 1417 002c 03       		.uleb128 0x3
 1418 002d 0E       		.uleb128 0xe
 1419 002e 3A       		.uleb128 0x3a
 1420 002f 0B       		.uleb128 0xb
 1421 0030 3B       		.uleb128 0x3b
 1422 0031 0B       		.uleb128 0xb
 1423 0032 49       		.uleb128 0x49
 1424 0033 13       		.uleb128 0x13
 1425 0034 00       		.byte	0
ARM GAS  /tmp/ccJf3cLB.s 			page 26


 1426 0035 00       		.byte	0
 1427 0036 05       		.uleb128 0x5
 1428 0037 35       		.uleb128 0x35
 1429 0038 00       		.byte	0
 1430 0039 49       		.uleb128 0x49
 1431 003a 13       		.uleb128 0x13
 1432 003b 00       		.byte	0
 1433 003c 00       		.byte	0
 1434 003d 06       		.uleb128 0x6
 1435 003e 13       		.uleb128 0x13
 1436 003f 01       		.byte	0x1
 1437 0040 03       		.uleb128 0x3
 1438 0041 0E       		.uleb128 0xe
 1439 0042 0B       		.uleb128 0xb
 1440 0043 0B       		.uleb128 0xb
 1441 0044 3A       		.uleb128 0x3a
 1442 0045 0B       		.uleb128 0xb
 1443 0046 3B       		.uleb128 0x3b
 1444 0047 0B       		.uleb128 0xb
 1445 0048 01       		.uleb128 0x1
 1446 0049 13       		.uleb128 0x13
 1447 004a 00       		.byte	0
 1448 004b 00       		.byte	0
 1449 004c 07       		.uleb128 0x7
 1450 004d 0D       		.uleb128 0xd
 1451 004e 00       		.byte	0
 1452 004f 03       		.uleb128 0x3
 1453 0050 0E       		.uleb128 0xe
 1454 0051 3A       		.uleb128 0x3a
 1455 0052 0B       		.uleb128 0xb
 1456 0053 3B       		.uleb128 0x3b
 1457 0054 0B       		.uleb128 0xb
 1458 0055 49       		.uleb128 0x49
 1459 0056 13       		.uleb128 0x13
 1460 0057 38       		.uleb128 0x38
 1461 0058 0B       		.uleb128 0xb
 1462 0059 00       		.byte	0
 1463 005a 00       		.byte	0
 1464 005b 08       		.uleb128 0x8
 1465 005c 0D       		.uleb128 0xd
 1466 005d 00       		.byte	0
 1467 005e 03       		.uleb128 0x3
 1468 005f 08       		.uleb128 0x8
 1469 0060 3A       		.uleb128 0x3a
 1470 0061 0B       		.uleb128 0xb
 1471 0062 3B       		.uleb128 0x3b
 1472 0063 05       		.uleb128 0x5
 1473 0064 49       		.uleb128 0x49
 1474 0065 13       		.uleb128 0x13
 1475 0066 38       		.uleb128 0x38
 1476 0067 0B       		.uleb128 0xb
 1477 0068 00       		.byte	0
 1478 0069 00       		.byte	0
 1479 006a 09       		.uleb128 0x9
 1480 006b 0D       		.uleb128 0xd
 1481 006c 00       		.byte	0
 1482 006d 03       		.uleb128 0x3
ARM GAS  /tmp/ccJf3cLB.s 			page 27


 1483 006e 0E       		.uleb128 0xe
 1484 006f 3A       		.uleb128 0x3a
 1485 0070 0B       		.uleb128 0xb
 1486 0071 3B       		.uleb128 0x3b
 1487 0072 05       		.uleb128 0x5
 1488 0073 49       		.uleb128 0x49
 1489 0074 13       		.uleb128 0x13
 1490 0075 38       		.uleb128 0x38
 1491 0076 0B       		.uleb128 0xb
 1492 0077 00       		.byte	0
 1493 0078 00       		.byte	0
 1494 0079 0A       		.uleb128 0xa
 1495 007a 0F       		.uleb128 0xf
 1496 007b 00       		.byte	0
 1497 007c 0B       		.uleb128 0xb
 1498 007d 0B       		.uleb128 0xb
 1499 007e 49       		.uleb128 0x49
 1500 007f 13       		.uleb128 0x13
 1501 0080 00       		.byte	0
 1502 0081 00       		.byte	0
 1503 0082 0B       		.uleb128 0xb
 1504 0083 13       		.uleb128 0x13
 1505 0084 01       		.byte	0x1
 1506 0085 03       		.uleb128 0x3
 1507 0086 0E       		.uleb128 0xe
 1508 0087 0B       		.uleb128 0xb
 1509 0088 0B       		.uleb128 0xb
 1510 0089 3A       		.uleb128 0x3a
 1511 008a 0B       		.uleb128 0xb
 1512 008b 3B       		.uleb128 0x3b
 1513 008c 05       		.uleb128 0x5
 1514 008d 01       		.uleb128 0x1
 1515 008e 13       		.uleb128 0x13
 1516 008f 00       		.byte	0
 1517 0090 00       		.byte	0
 1518 0091 0C       		.uleb128 0xc
 1519 0092 15       		.uleb128 0x15
 1520 0093 01       		.byte	0x1
 1521 0094 27       		.uleb128 0x27
 1522 0095 19       		.uleb128 0x19
 1523 0096 01       		.uleb128 0x1
 1524 0097 13       		.uleb128 0x13
 1525 0098 00       		.byte	0
 1526 0099 00       		.byte	0
 1527 009a 0D       		.uleb128 0xd
 1528 009b 05       		.uleb128 0x5
 1529 009c 00       		.byte	0
 1530 009d 49       		.uleb128 0x49
 1531 009e 13       		.uleb128 0x13
 1532 009f 00       		.byte	0
 1533 00a0 00       		.byte	0
 1534 00a1 0E       		.uleb128 0xe
 1535 00a2 0F       		.uleb128 0xf
 1536 00a3 00       		.byte	0
 1537 00a4 0B       		.uleb128 0xb
 1538 00a5 0B       		.uleb128 0xb
 1539 00a6 00       		.byte	0
ARM GAS  /tmp/ccJf3cLB.s 			page 28


 1540 00a7 00       		.byte	0
 1541 00a8 0F       		.uleb128 0xf
 1542 00a9 13       		.uleb128 0x13
 1543 00aa 01       		.byte	0x1
 1544 00ab 03       		.uleb128 0x3
 1545 00ac 0E       		.uleb128 0xe
 1546 00ad 0B       		.uleb128 0xb
 1547 00ae 05       		.uleb128 0x5
 1548 00af 3A       		.uleb128 0x3a
 1549 00b0 0B       		.uleb128 0xb
 1550 00b1 3B       		.uleb128 0x3b
 1551 00b2 05       		.uleb128 0x5
 1552 00b3 01       		.uleb128 0x1
 1553 00b4 13       		.uleb128 0x13
 1554 00b5 00       		.byte	0
 1555 00b6 00       		.byte	0
 1556 00b7 10       		.uleb128 0x10
 1557 00b8 01       		.uleb128 0x1
 1558 00b9 01       		.byte	0x1
 1559 00ba 49       		.uleb128 0x49
 1560 00bb 13       		.uleb128 0x13
 1561 00bc 01       		.uleb128 0x1
 1562 00bd 13       		.uleb128 0x13
 1563 00be 00       		.byte	0
 1564 00bf 00       		.byte	0
 1565 00c0 11       		.uleb128 0x11
 1566 00c1 21       		.uleb128 0x21
 1567 00c2 00       		.byte	0
 1568 00c3 49       		.uleb128 0x49
 1569 00c4 13       		.uleb128 0x13
 1570 00c5 2F       		.uleb128 0x2f
 1571 00c6 0B       		.uleb128 0xb
 1572 00c7 00       		.byte	0
 1573 00c8 00       		.byte	0
 1574 00c9 12       		.uleb128 0x12
 1575 00ca 0D       		.uleb128 0xd
 1576 00cb 00       		.byte	0
 1577 00cc 03       		.uleb128 0x3
 1578 00cd 08       		.uleb128 0x8
 1579 00ce 3A       		.uleb128 0x3a
 1580 00cf 0B       		.uleb128 0xb
 1581 00d0 3B       		.uleb128 0x3b
 1582 00d1 0B       		.uleb128 0xb
 1583 00d2 49       		.uleb128 0x49
 1584 00d3 13       		.uleb128 0x13
 1585 00d4 38       		.uleb128 0x38
 1586 00d5 0B       		.uleb128 0xb
 1587 00d6 00       		.byte	0
 1588 00d7 00       		.byte	0
 1589 00d8 13       		.uleb128 0x13
 1590 00d9 13       		.uleb128 0x13
 1591 00da 01       		.byte	0x1
 1592 00db 0B       		.uleb128 0xb
 1593 00dc 0B       		.uleb128 0xb
 1594 00dd 3A       		.uleb128 0x3a
 1595 00de 0B       		.uleb128 0xb
 1596 00df 3B       		.uleb128 0x3b
ARM GAS  /tmp/ccJf3cLB.s 			page 29


 1597 00e0 0B       		.uleb128 0xb
 1598 00e1 01       		.uleb128 0x1
 1599 00e2 13       		.uleb128 0x13
 1600 00e3 00       		.byte	0
 1601 00e4 00       		.byte	0
 1602 00e5 14       		.uleb128 0x14
 1603 00e6 17       		.uleb128 0x17
 1604 00e7 01       		.byte	0x1
 1605 00e8 0B       		.uleb128 0xb
 1606 00e9 0B       		.uleb128 0xb
 1607 00ea 3A       		.uleb128 0x3a
 1608 00eb 0B       		.uleb128 0xb
 1609 00ec 3B       		.uleb128 0x3b
 1610 00ed 0B       		.uleb128 0xb
 1611 00ee 01       		.uleb128 0x1
 1612 00ef 13       		.uleb128 0x13
 1613 00f0 00       		.byte	0
 1614 00f1 00       		.byte	0
 1615 00f2 15       		.uleb128 0x15
 1616 00f3 0D       		.uleb128 0xd
 1617 00f4 00       		.byte	0
 1618 00f5 03       		.uleb128 0x3
 1619 00f6 0E       		.uleb128 0xe
 1620 00f7 3A       		.uleb128 0x3a
 1621 00f8 0B       		.uleb128 0xb
 1622 00f9 3B       		.uleb128 0x3b
 1623 00fa 05       		.uleb128 0x5
 1624 00fb 49       		.uleb128 0x49
 1625 00fc 13       		.uleb128 0x13
 1626 00fd 00       		.byte	0
 1627 00fe 00       		.byte	0
 1628 00ff 16       		.uleb128 0x16
 1629 0100 26       		.uleb128 0x26
 1630 0101 00       		.byte	0
 1631 0102 49       		.uleb128 0x49
 1632 0103 13       		.uleb128 0x13
 1633 0104 00       		.byte	0
 1634 0105 00       		.byte	0
 1635 0106 17       		.uleb128 0x17
 1636 0107 13       		.uleb128 0x13
 1637 0108 01       		.byte	0x1
 1638 0109 0B       		.uleb128 0xb
 1639 010a 0B       		.uleb128 0xb
 1640 010b 3A       		.uleb128 0x3a
 1641 010c 0B       		.uleb128 0xb
 1642 010d 3B       		.uleb128 0x3b
 1643 010e 05       		.uleb128 0x5
 1644 010f 01       		.uleb128 0x1
 1645 0110 13       		.uleb128 0x13
 1646 0111 00       		.byte	0
 1647 0112 00       		.byte	0
 1648 0113 18       		.uleb128 0x18
 1649 0114 16       		.uleb128 0x16
 1650 0115 00       		.byte	0
 1651 0116 03       		.uleb128 0x3
 1652 0117 0E       		.uleb128 0xe
 1653 0118 3A       		.uleb128 0x3a
ARM GAS  /tmp/ccJf3cLB.s 			page 30


 1654 0119 0B       		.uleb128 0xb
 1655 011a 3B       		.uleb128 0x3b
 1656 011b 05       		.uleb128 0x5
 1657 011c 49       		.uleb128 0x49
 1658 011d 13       		.uleb128 0x13
 1659 011e 00       		.byte	0
 1660 011f 00       		.byte	0
 1661 0120 19       		.uleb128 0x19
 1662 0121 2E       		.uleb128 0x2e
 1663 0122 01       		.byte	0x1
 1664 0123 03       		.uleb128 0x3
 1665 0124 0E       		.uleb128 0xe
 1666 0125 3A       		.uleb128 0x3a
 1667 0126 0B       		.uleb128 0xb
 1668 0127 3B       		.uleb128 0x3b
 1669 0128 0B       		.uleb128 0xb
 1670 0129 27       		.uleb128 0x27
 1671 012a 19       		.uleb128 0x19
 1672 012b 20       		.uleb128 0x20
 1673 012c 0B       		.uleb128 0xb
 1674 012d 01       		.uleb128 0x1
 1675 012e 13       		.uleb128 0x13
 1676 012f 00       		.byte	0
 1677 0130 00       		.byte	0
 1678 0131 1A       		.uleb128 0x1a
 1679 0132 05       		.uleb128 0x5
 1680 0133 00       		.byte	0
 1681 0134 03       		.uleb128 0x3
 1682 0135 0E       		.uleb128 0xe
 1683 0136 3A       		.uleb128 0x3a
 1684 0137 0B       		.uleb128 0xb
 1685 0138 3B       		.uleb128 0x3b
 1686 0139 0B       		.uleb128 0xb
 1687 013a 49       		.uleb128 0x49
 1688 013b 13       		.uleb128 0x13
 1689 013c 00       		.byte	0
 1690 013d 00       		.byte	0
 1691 013e 1B       		.uleb128 0x1b
 1692 013f 2E       		.uleb128 0x2e
 1693 0140 00       		.byte	0
 1694 0141 03       		.uleb128 0x3
 1695 0142 0E       		.uleb128 0xe
 1696 0143 3A       		.uleb128 0x3a
 1697 0144 0B       		.uleb128 0xb
 1698 0145 3B       		.uleb128 0x3b
 1699 0146 0B       		.uleb128 0xb
 1700 0147 27       		.uleb128 0x27
 1701 0148 19       		.uleb128 0x19
 1702 0149 20       		.uleb128 0x20
 1703 014a 0B       		.uleb128 0xb
 1704 014b 00       		.byte	0
 1705 014c 00       		.byte	0
 1706 014d 1C       		.uleb128 0x1c
 1707 014e 2E       		.uleb128 0x2e
 1708 014f 00       		.byte	0
 1709 0150 03       		.uleb128 0x3
 1710 0151 0E       		.uleb128 0xe
ARM GAS  /tmp/ccJf3cLB.s 			page 31


 1711 0152 3A       		.uleb128 0x3a
 1712 0153 0B       		.uleb128 0xb
 1713 0154 3B       		.uleb128 0x3b
 1714 0155 0B       		.uleb128 0xb
 1715 0156 27       		.uleb128 0x27
 1716 0157 19       		.uleb128 0x19
 1717 0158 49       		.uleb128 0x49
 1718 0159 13       		.uleb128 0x13
 1719 015a 20       		.uleb128 0x20
 1720 015b 0B       		.uleb128 0xb
 1721 015c 00       		.byte	0
 1722 015d 00       		.byte	0
 1723 015e 1D       		.uleb128 0x1d
 1724 015f 2E       		.uleb128 0x2e
 1725 0160 01       		.byte	0x1
 1726 0161 3F       		.uleb128 0x3f
 1727 0162 19       		.uleb128 0x19
 1728 0163 03       		.uleb128 0x3
 1729 0164 0E       		.uleb128 0xe
 1730 0165 3A       		.uleb128 0x3a
 1731 0166 0B       		.uleb128 0xb
 1732 0167 3B       		.uleb128 0x3b
 1733 0168 0B       		.uleb128 0xb
 1734 0169 27       		.uleb128 0x27
 1735 016a 19       		.uleb128 0x19
 1736 016b 11       		.uleb128 0x11
 1737 016c 01       		.uleb128 0x1
 1738 016d 12       		.uleb128 0x12
 1739 016e 06       		.uleb128 0x6
 1740 016f 40       		.uleb128 0x40
 1741 0170 18       		.uleb128 0x18
 1742 0171 9742     		.uleb128 0x2117
 1743 0173 19       		.uleb128 0x19
 1744 0174 01       		.uleb128 0x1
 1745 0175 13       		.uleb128 0x13
 1746 0176 00       		.byte	0
 1747 0177 00       		.byte	0
 1748 0178 1E       		.uleb128 0x1e
 1749 0179 898201   		.uleb128 0x4109
 1750 017c 00       		.byte	0
 1751 017d 11       		.uleb128 0x11
 1752 017e 01       		.uleb128 0x1
 1753 017f 9542     		.uleb128 0x2115
 1754 0181 19       		.uleb128 0x19
 1755 0182 31       		.uleb128 0x31
 1756 0183 13       		.uleb128 0x13
 1757 0184 00       		.byte	0
 1758 0185 00       		.byte	0
 1759 0186 1F       		.uleb128 0x1f
 1760 0187 05       		.uleb128 0x5
 1761 0188 00       		.byte	0
 1762 0189 03       		.uleb128 0x3
 1763 018a 0E       		.uleb128 0xe
 1764 018b 3A       		.uleb128 0x3a
 1765 018c 0B       		.uleb128 0xb
 1766 018d 3B       		.uleb128 0x3b
 1767 018e 0B       		.uleb128 0xb
ARM GAS  /tmp/ccJf3cLB.s 			page 32


 1768 018f 49       		.uleb128 0x49
 1769 0190 13       		.uleb128 0x13
 1770 0191 02       		.uleb128 0x2
 1771 0192 18       		.uleb128 0x18
 1772 0193 00       		.byte	0
 1773 0194 00       		.byte	0
 1774 0195 20       		.uleb128 0x20
 1775 0196 34       		.uleb128 0x34
 1776 0197 00       		.byte	0
 1777 0198 03       		.uleb128 0x3
 1778 0199 0E       		.uleb128 0xe
 1779 019a 49       		.uleb128 0x49
 1780 019b 13       		.uleb128 0x13
 1781 019c 34       		.uleb128 0x34
 1782 019d 19       		.uleb128 0x19
 1783 019e 00       		.byte	0
 1784 019f 00       		.byte	0
 1785 01a0 21       		.uleb128 0x21
 1786 01a1 1D       		.uleb128 0x1d
 1787 01a2 01       		.byte	0x1
 1788 01a3 31       		.uleb128 0x31
 1789 01a4 13       		.uleb128 0x13
 1790 01a5 11       		.uleb128 0x11
 1791 01a6 01       		.uleb128 0x1
 1792 01a7 12       		.uleb128 0x12
 1793 01a8 06       		.uleb128 0x6
 1794 01a9 58       		.uleb128 0x58
 1795 01aa 0B       		.uleb128 0xb
 1796 01ab 59       		.uleb128 0x59
 1797 01ac 0B       		.uleb128 0xb
 1798 01ad 00       		.byte	0
 1799 01ae 00       		.byte	0
 1800 01af 22       		.uleb128 0x22
 1801 01b0 05       		.uleb128 0x5
 1802 01b1 00       		.byte	0
 1803 01b2 31       		.uleb128 0x31
 1804 01b3 13       		.uleb128 0x13
 1805 01b4 02       		.uleb128 0x2
 1806 01b5 18       		.uleb128 0x18
 1807 01b6 00       		.byte	0
 1808 01b7 00       		.byte	0
 1809 01b8 23       		.uleb128 0x23
 1810 01b9 1D       		.uleb128 0x1d
 1811 01ba 00       		.byte	0
 1812 01bb 31       		.uleb128 0x31
 1813 01bc 13       		.uleb128 0x13
 1814 01bd 11       		.uleb128 0x11
 1815 01be 01       		.uleb128 0x1
 1816 01bf 12       		.uleb128 0x12
 1817 01c0 06       		.uleb128 0x6
 1818 01c1 58       		.uleb128 0x58
 1819 01c2 0B       		.uleb128 0xb
 1820 01c3 59       		.uleb128 0x59
 1821 01c4 0B       		.uleb128 0xb
 1822 01c5 00       		.byte	0
 1823 01c6 00       		.byte	0
 1824 01c7 24       		.uleb128 0x24
ARM GAS  /tmp/ccJf3cLB.s 			page 33


 1825 01c8 2E       		.uleb128 0x2e
 1826 01c9 01       		.byte	0x1
 1827 01ca 3F       		.uleb128 0x3f
 1828 01cb 19       		.uleb128 0x19
 1829 01cc 03       		.uleb128 0x3
 1830 01cd 0E       		.uleb128 0xe
 1831 01ce 3A       		.uleb128 0x3a
 1832 01cf 0B       		.uleb128 0xb
 1833 01d0 3B       		.uleb128 0x3b
 1834 01d1 0B       		.uleb128 0xb
 1835 01d2 27       		.uleb128 0x27
 1836 01d3 19       		.uleb128 0x19
 1837 01d4 49       		.uleb128 0x49
 1838 01d5 13       		.uleb128 0x13
 1839 01d6 11       		.uleb128 0x11
 1840 01d7 01       		.uleb128 0x1
 1841 01d8 12       		.uleb128 0x12
 1842 01d9 06       		.uleb128 0x6
 1843 01da 40       		.uleb128 0x40
 1844 01db 18       		.uleb128 0x18
 1845 01dc 9742     		.uleb128 0x2117
 1846 01de 19       		.uleb128 0x19
 1847 01df 01       		.uleb128 0x1
 1848 01e0 13       		.uleb128 0x13
 1849 01e1 00       		.byte	0
 1850 01e2 00       		.byte	0
 1851 01e3 25       		.uleb128 0x25
 1852 01e4 34       		.uleb128 0x34
 1853 01e5 00       		.byte	0
 1854 01e6 03       		.uleb128 0x3
 1855 01e7 0E       		.uleb128 0xe
 1856 01e8 3A       		.uleb128 0x3a
 1857 01e9 0B       		.uleb128 0xb
 1858 01ea 3B       		.uleb128 0x3b
 1859 01eb 05       		.uleb128 0x5
 1860 01ec 49       		.uleb128 0x49
 1861 01ed 13       		.uleb128 0x13
 1862 01ee 3F       		.uleb128 0x3f
 1863 01ef 19       		.uleb128 0x19
 1864 01f0 3C       		.uleb128 0x3c
 1865 01f1 19       		.uleb128 0x19
 1866 01f2 00       		.byte	0
 1867 01f3 00       		.byte	0
 1868 01f4 26       		.uleb128 0x26
 1869 01f5 34       		.uleb128 0x34
 1870 01f6 00       		.byte	0
 1871 01f7 03       		.uleb128 0x3
 1872 01f8 08       		.uleb128 0x8
 1873 01f9 3A       		.uleb128 0x3a
 1874 01fa 0B       		.uleb128 0xb
 1875 01fb 3B       		.uleb128 0x3b
 1876 01fc 05       		.uleb128 0x5
 1877 01fd 49       		.uleb128 0x49
 1878 01fe 13       		.uleb128 0x13
 1879 01ff 3F       		.uleb128 0x3f
 1880 0200 19       		.uleb128 0x19
 1881 0201 3C       		.uleb128 0x3c
ARM GAS  /tmp/ccJf3cLB.s 			page 34


 1882 0202 19       		.uleb128 0x19
 1883 0203 00       		.byte	0
 1884 0204 00       		.byte	0
 1885 0205 27       		.uleb128 0x27
 1886 0206 2E       		.uleb128 0x2e
 1887 0207 00       		.byte	0
 1888 0208 3F       		.uleb128 0x3f
 1889 0209 19       		.uleb128 0x19
 1890 020a 03       		.uleb128 0x3
 1891 020b 0E       		.uleb128 0xe
 1892 020c 3A       		.uleb128 0x3a
 1893 020d 0B       		.uleb128 0xb
 1894 020e 3B       		.uleb128 0x3b
 1895 020f 0B       		.uleb128 0xb
 1896 0210 27       		.uleb128 0x27
 1897 0211 19       		.uleb128 0x19
 1898 0212 3C       		.uleb128 0x3c
 1899 0213 19       		.uleb128 0x19
 1900 0214 00       		.byte	0
 1901 0215 00       		.byte	0
 1902 0216 00       		.byte	0
 1903              		.section	.debug_aranges,"",%progbits
 1904 0000 3C000000 		.4byte	0x3c
 1905 0004 0200     		.2byte	0x2
 1906 0006 00000000 		.4byte	.Ldebug_info0
 1907 000a 04       		.byte	0x4
 1908 000b 00       		.byte	0
 1909 000c 0000     		.2byte	0
 1910 000e 0000     		.2byte	0
 1911 0010 00000000 		.4byte	.LFB256
 1912 0014 04000000 		.4byte	.LFE256-.LFB256
 1913 0018 00000000 		.4byte	.LFB257
 1914 001c 10000000 		.4byte	.LFE257-.LFB257
 1915 0020 00000000 		.4byte	.LFB258
 1916 0024 0A000000 		.4byte	.LFE258-.LFB258
 1917 0028 00000000 		.4byte	.LFB259
 1918 002c 08000000 		.4byte	.LFE259-.LFB259
 1919 0030 00000000 		.4byte	.LFB260
 1920 0034 08000000 		.4byte	.LFE260-.LFB260
 1921 0038 00000000 		.4byte	0
 1922 003c 00000000 		.4byte	0
 1923              		.section	.debug_ranges,"",%progbits
 1924              	.Ldebug_ranges0:
 1925 0000 00000000 		.4byte	.LFB256
 1926 0004 04000000 		.4byte	.LFE256
 1927 0008 00000000 		.4byte	.LFB257
 1928 000c 10000000 		.4byte	.LFE257
 1929 0010 00000000 		.4byte	.LFB258
 1930 0014 0A000000 		.4byte	.LFE258
 1931 0018 00000000 		.4byte	.LFB259
 1932 001c 08000000 		.4byte	.LFE259
 1933 0020 00000000 		.4byte	.LFB260
 1934 0024 08000000 		.4byte	.LFE260
 1935 0028 00000000 		.4byte	0
 1936 002c 00000000 		.4byte	0
 1937              		.section	.debug_line,"",%progbits
 1938              	.Ldebug_line0:
ARM GAS  /tmp/ccJf3cLB.s 			page 35


 1939 0000 55020000 		.section	.debug_str,"MS",%progbits,1
 1939      0200DF01 
 1939      00000201 
 1939      FB0E0D00 
 1939      01010101 
 1940              	.LASF53:
 1941 0000 72656164 		.ascii	"ready_list_t\000"
 1941      795F6C69 
 1941      73745F74 
 1941      00
 1942              	.LASF106:
 1943 000d 44494552 		.ascii	"DIER\000"
 1943      00
 1944              	.LASF91:
 1945 0012 77747472 		.ascii	"wttrp\000"
 1945      7000
 1946              	.LASF88:
 1947 0018 7264796D 		.ascii	"rdymsg\000"
 1947      736700
 1948              	.LASF16:
 1949 001f 75696E74 		.ascii	"uint64_t\000"
 1949      36345F74 
 1949      00
 1950              	.LASF5:
 1951 0028 5F5F7569 		.ascii	"__uint8_t\000"
 1951      6E74385F 
 1951      7400
 1952              	.LASF85:
 1953 0032 706F7274 		.ascii	"port_intctx\000"
 1953      5F696E74 
 1953      63747800 
 1954              	.LASF72:
 1955 003e 73797374 		.ascii	"system_debug_t\000"
 1955      656D5F64 
 1955      65627567 
 1955      5F7400
 1956              	.LASF12:
 1957 004d 6C6F6E67 		.ascii	"long long unsigned int\000"
 1957      206C6F6E 
 1957      6720756E 
 1957      7369676E 
 1957      65642069 
 1958              	.LASF89:
 1959 0064 65786974 		.ascii	"exitcode\000"
 1959      636F6465 
 1959      00
 1960              	.LASF79:
 1961 006d 6D61696E 		.ascii	"mainthread\000"
 1961      74687265 
 1961      616400
 1962              	.LASF69:
 1963 0078 76697274 		.ascii	"virtual_timers_list_t\000"
 1963      75616C5F 
 1963      74696D65 
 1963      72735F6C 
 1963      6973745F 
 1964              	.LASF124:
ARM GAS  /tmp/ccJf3cLB.s 			page 36


 1965 008e 49544D5F 		.ascii	"ITM_RxBuffer\000"
 1965      52784275 
 1965      66666572 
 1965      00
 1966              	.LASF131:
 1967 009b 73745F6C 		.ascii	"st_lld_init\000"
 1967      6C645F69 
 1967      6E697400 
 1968              	.LASF110:
 1969 00a7 42445452 		.ascii	"BDTR\000"
 1969      00
 1970              	.LASF52:
 1971 00ac 63685F74 		.ascii	"ch_threads_queue\000"
 1971      68726561 
 1971      64735F71 
 1971      75657565 
 1971      00
 1972              	.LASF30:
 1973 00bd 705F7072 		.ascii	"p_prio\000"
 1973      696F00
 1974              	.LASF107:
 1975 00c4 43434D52 		.ascii	"CCMR1\000"
 1975      3100
 1976              	.LASF108:
 1977 00ca 43434D52 		.ascii	"CCMR2\000"
 1977      3200
 1978              	.LASF112:
 1979 00d0 43434D52 		.ascii	"CCMR3\000"
 1979      3300
 1980              	.LASF1:
 1981 00d6 7369676E 		.ascii	"signed char\000"
 1981      65642063 
 1981      68617200 
 1982              	.LASF99:
 1983 00e2 6D5F7175 		.ascii	"m_queue\000"
 1983      65756500 
 1984              	.LASF78:
 1985 00ea 76746C69 		.ascii	"vtlist\000"
 1985      737400
 1986              	.LASF21:
 1987 00f1 74736C69 		.ascii	"tslices_t\000"
 1987      6365735F 
 1987      7400
 1988              	.LASF76:
 1989 00fb 63685F73 		.ascii	"ch_system\000"
 1989      79737465 
 1989      6D00
 1990              	.LASF7:
 1991 0105 6C6F6E67 		.ascii	"long int\000"
 1991      20696E74 
 1991      00
 1992              	.LASF18:
 1993 010e 746D6F64 		.ascii	"tmode_t\000"
 1993      655F7400 
 1994              	.LASF19:
 1995 0116 74737461 		.ascii	"tstate_t\000"
 1995      74655F74 
ARM GAS  /tmp/ccJf3cLB.s 			page 37


 1995      00
 1996              	.LASF32:
 1997 011f 705F6E65 		.ascii	"p_newer\000"
 1997      77657200 
 1998              	.LASF96:
 1999 0127 735F7175 		.ascii	"s_queue\000"
 1999      65756500 
 2000              	.LASF4:
 2001 012f 73686F72 		.ascii	"short unsigned int\000"
 2001      7420756E 
 2001      7369676E 
 2001      65642069 
 2001      6E7400
 2002              	.LASF58:
 2003 0142 725F6E65 		.ascii	"r_newer\000"
 2003      77657200 
 2004              	.LASF46:
 2005 014a 705F6D70 		.ascii	"p_mpool\000"
 2005      6F6F6C00 
 2006              	.LASF82:
 2007 0152 72656761 		.ascii	"regarm_t\000"
 2007      726D5F74 
 2007      00
 2008              	.LASF65:
 2009 015b 76745F70 		.ascii	"vt_prev\000"
 2009      72657600 
 2010              	.LASF10:
 2011 0163 6C6F6E67 		.ascii	"long long int\000"
 2011      206C6F6E 
 2011      6720696E 
 2011      7400
 2012              	.LASF80:
 2013 0171 69646C65 		.ascii	"idle_thread_wa\000"
 2013      5F746872 
 2013      6561645F 
 2013      776100
 2014              	.LASF25:
 2015 0180 636E745F 		.ascii	"cnt_t\000"
 2015      7400
 2016              	.LASF0:
 2017 0186 756E7369 		.ascii	"unsigned int\000"
 2017      676E6564 
 2017      20696E74 
 2017      00
 2018              	.LASF64:
 2019 0193 76745F6E 		.ascii	"vt_next\000"
 2019      65787400 
 2020              	.LASF39:
 2021 019b 705F7469 		.ascii	"p_time\000"
 2021      6D6500
 2022              	.LASF92:
 2023 01a2 77747365 		.ascii	"wtsemp\000"
 2023      6D7000
 2024              	.LASF66:
 2025 01a9 76745F64 		.ascii	"vt_delta\000"
 2025      656C7461 
 2025      00
ARM GAS  /tmp/ccJf3cLB.s 			page 38


 2026              	.LASF41:
 2027 01b2 705F6D73 		.ascii	"p_msgqueue\000"
 2027      67717565 
 2027      756500
 2028              	.LASF97:
 2029 01bd 735F636E 		.ascii	"s_cnt\000"
 2029      7400
 2030              	.LASF105:
 2031 01c3 534D4352 		.ascii	"SMCR\000"
 2031      00
 2032              	.LASF126:
 2033 01c8 43686962 		.ascii	"ChibiOS_3.0.2/os/hal/src/st.c\000"
 2033      694F535F 
 2033      332E302E 
 2033      322F6F73 
 2033      2F68616C 
 2034              	.LASF49:
 2035 01e6 63685F74 		.ascii	"ch_thread\000"
 2035      68726561 
 2035      6400
 2036              	.LASF23:
 2037 01f0 6D73675F 		.ascii	"msg_t\000"
 2037      7400
 2038              	.LASF75:
 2039 01f6 63685F73 		.ascii	"ch_system_t\000"
 2039      79737465 
 2039      6D5F7400 
 2040              	.LASF114:
 2041 0202 73746D33 		.ascii	"stm32_tim_t\000"
 2041      325F7469 
 2041      6D5F7400 
 2042              	.LASF54:
 2043 020e 63685F72 		.ascii	"ch_ready_list\000"
 2043      65616479 
 2043      5F6C6973 
 2043      7400
 2044              	.LASF24:
 2045 021c 6576656E 		.ascii	"eventmask_t\000"
 2045      746D6173 
 2045      6B5F7400 
 2046              	.LASF6:
 2047 0228 5F5F696E 		.ascii	"__int32_t\000"
 2047      7433325F 
 2047      7400
 2048              	.LASF115:
 2049 0232 73745F6C 		.ascii	"st_lld_start_alarm\000"
 2049      6C645F73 
 2049      74617274 
 2049      5F616C61 
 2049      726D00
 2050              	.LASF83:
 2051 0245 73746B61 		.ascii	"stkalign_t\000"
 2051      6C69676E 
 2051      5F7400
 2052              	.LASF48:
 2053 0250 74687265 		.ascii	"threads_list_t\000"
 2053      6164735F 
ARM GAS  /tmp/ccJf3cLB.s 			page 39


 2053      6C697374 
 2053      5F7400
 2054              	.LASF40:
 2055 025f 705F7761 		.ascii	"p_waiting\000"
 2055      6974696E 
 2055      6700
 2056              	.LASF81:
 2057 0269 73697A65 		.ascii	"sizetype\000"
 2057      74797065 
 2057      00
 2058              	.LASF47:
 2059 0272 74687265 		.ascii	"thread_reference_t\000"
 2059      61645F72 
 2059      65666572 
 2059      656E6365 
 2059      5F7400
 2060              	.LASF70:
 2061 0285 63685F76 		.ascii	"ch_virtual_timers_list\000"
 2061      69727475 
 2061      616C5F74 
 2061      696D6572 
 2061      735F6C69 
 2062              	.LASF33:
 2063 029c 705F6F6C 		.ascii	"p_older\000"
 2063      64657200 
 2064              	.LASF118:
 2065 02a4 7374496E 		.ascii	"stInit\000"
 2065      697400
 2066              	.LASF57:
 2067 02ab 725F6374 		.ascii	"r_ctx\000"
 2067      7800
 2068              	.LASF87:
 2069 02b1 746D5F63 		.ascii	"tm_calibration_t\000"
 2069      616C6962 
 2069      72617469 
 2069      6F6E5F74 
 2069      00
 2070              	.LASF117:
 2071 02c2 74696D65 		.ascii	"time\000"
 2071      00
 2072              	.LASF60:
 2073 02c7 725F6375 		.ascii	"r_current\000"
 2073      7272656E 
 2073      7400
 2074              	.LASF59:
 2075 02d1 725F6F6C 		.ascii	"r_older\000"
 2075      64657200 
 2076              	.LASF11:
 2077 02d9 5F5F7569 		.ascii	"__uint64_t\000"
 2077      6E743634 
 2077      5F7400
 2078              	.LASF20:
 2079 02e4 74726566 		.ascii	"trefs_t\000"
 2079      735F7400 
 2080              	.LASF62:
 2081 02ec 76697274 		.ascii	"virtual_timer_t\000"
 2081      75616C5F 
ARM GAS  /tmp/ccJf3cLB.s 			page 40


 2081      74696D65 
 2081      725F7400 
 2082              	.LASF29:
 2083 02fc 705F7072 		.ascii	"p_prev\000"
 2083      657600
 2084              	.LASF22:
 2085 0303 74707269 		.ascii	"tprio_t\000"
 2085      6F5F7400 
 2086              	.LASF127:
 2087 030b 2F686F6D 		.ascii	"/home/benjamin/Skrivbord/SP-RCCar/Embedded/Mote/\000"
 2087      652F6265 
 2087      6E6A616D 
 2087      696E2F53 
 2087      6B726976 
 2088              	.LASF73:
 2089 033c 63685F73 		.ascii	"ch_system_debug\000"
 2089      79737465 
 2089      6D5F6465 
 2089      62756700 
 2090              	.LASF104:
 2091 034c 5F426F6F 		.ascii	"_Bool\000"
 2091      6C00
 2092              	.LASF14:
 2093 0352 696E7433 		.ascii	"int32_t\000"
 2093      325F7400 
 2094              	.LASF2:
 2095 035a 756E7369 		.ascii	"unsigned char\000"
 2095      676E6564 
 2095      20636861 
 2095      7200
 2096              	.LASF44:
 2097 0368 705F6D74 		.ascii	"p_mtxlist\000"
 2097      786C6973 
 2097      7400
 2098              	.LASF3:
 2099 0372 73686F72 		.ascii	"short int\000"
 2099      7420696E 
 2099      7400
 2100              	.LASF35:
 2101 037c 705F7374 		.ascii	"p_state\000"
 2101      61746500 
 2102              	.LASF38:
 2103 0384 705F7072 		.ascii	"p_preempt\000"
 2103      65656D70 
 2103      7400
 2104              	.LASF56:
 2105 038e 725F7072 		.ascii	"r_prio\000"
 2105      696F00
 2106              	.LASF94:
 2107 0395 65776D61 		.ascii	"ewmask\000"
 2107      736B00
 2108              	.LASF28:
 2109 039c 705F6E65 		.ascii	"p_next\000"
 2109      787400
 2110              	.LASF13:
 2111 03a3 75696E74 		.ascii	"uint8_t\000"
 2111      385F7400 
ARM GAS  /tmp/ccJf3cLB.s 			page 41


 2112              	.LASF123:
 2113 03ab 5F5F6675 		.ascii	"__func__\000"
 2113      6E635F5F 
 2113      00
 2114              	.LASF63:
 2115 03b4 63685F76 		.ascii	"ch_virtual_timer\000"
 2115      69727475 
 2115      616C5F74 
 2115      696D6572 
 2115      00
 2116              	.LASF129:
 2117 03c5 73745F6C 		.ascii	"st_lld_get_alarm\000"
 2117      6C645F67 
 2117      65745F61 
 2117      6C61726D 
 2117      00
 2118              	.LASF95:
 2119 03d6 63685F73 		.ascii	"ch_semaphore\000"
 2119      656D6170 
 2119      686F7265 
 2119      00
 2120              	.LASF113:
 2121 03e3 43435852 		.ascii	"CCXR\000"
 2121      00
 2122              	.LASF43:
 2123 03e8 705F6570 		.ascii	"p_epending\000"
 2123      656E6469 
 2123      6E6700
 2124              	.LASF15:
 2125 03f3 75696E74 		.ascii	"uint32_t\000"
 2125      33325F74 
 2125      00
 2126              	.LASF93:
 2127 03fc 77746D74 		.ascii	"wtmtxp\000"
 2127      787000
 2128              	.LASF55:
 2129 0403 725F7175 		.ascii	"r_queue\000"
 2129      65756500 
 2130              	.LASF50:
 2131 040b 63685F74 		.ascii	"ch_threads_list\000"
 2131      68726561 
 2131      64735F6C 
 2131      69737400 
 2132              	.LASF9:
 2133 041b 6C6F6E67 		.ascii	"long unsigned int\000"
 2133      20756E73 
 2133      69676E65 
 2133      6420696E 
 2133      7400
 2134              	.LASF120:
 2135 042d 73745374 		.ascii	"stStopAlarm\000"
 2135      6F70416C 
 2135      61726D00 
 2136              	.LASF102:
 2137 0439 63686172 		.ascii	"char\000"
 2137      00
 2138              	.LASF111:
ARM GAS  /tmp/ccJf3cLB.s 			page 42


 2139 043e 444D4152 		.ascii	"DMAR\000"
 2139      00
 2140              	.LASF125:
 2141 0443 474E5520 		.ascii	"GNU C 4.9.3 20150529 (release) [ARM/embedded-4_9-br"
 2141      4320342E 
 2141      392E3320 
 2141      32303135 
 2141      30353239 
 2142 0476 616E6368 		.ascii	"anch revision 227977] -mcpu=cortex-m4 -mfloat-abi=h"
 2142      20726576 
 2142      6973696F 
 2142      6E203232 
 2142      37393737 
 2143 04a9 61726420 		.ascii	"ard -mfpu=fpv4-sp-d16 -mno-thumb-interwork -mthumb "
 2143      2D6D6670 
 2143      753D6670 
 2143      76342D73 
 2143      702D6431 
 2144 04dc 2D676764 		.ascii	"-ggdb -O2 -std=gnu99 -fomit-frame-pointer -falign-f"
 2144      62202D4F 
 2144      32202D73 
 2144      74643D67 
 2144      6E753939 
 2145 050f 756E6374 		.ascii	"unctions=16 -ffunction-sections -fdata-sections -fn"
 2145      696F6E73 
 2145      3D313620 
 2145      2D666675 
 2145      6E637469 
 2146 0542 6F2D636F 		.ascii	"o-common -fsingle-precision-constant\000"
 2146      6D6D6F6E 
 2146      202D6673 
 2146      696E676C 
 2146      652D7072 
 2147              	.LASF109:
 2148 0567 43434552 		.ascii	"CCER\000"
 2148      00
 2149              	.LASF101:
 2150 056c 6D5F6E65 		.ascii	"m_next\000"
 2150      787400
 2151              	.LASF26:
 2152 0573 73797374 		.ascii	"systime_t\000"
 2152      696D655F 
 2152      7400
 2153              	.LASF45:
 2154 057d 705F7265 		.ascii	"p_realprio\000"
 2154      616C7072 
 2154      696F00
 2155              	.LASF61:
 2156 0588 76746675 		.ascii	"vtfunc_t\000"
 2156      6E635F74 
 2156      00
 2157              	.LASF8:
 2158 0591 5F5F7569 		.ascii	"__uint32_t\000"
 2158      6E743332 
 2158      5F7400
 2159              	.LASF74:
 2160 059c 70616E69 		.ascii	"panic_msg\000"
ARM GAS  /tmp/ccJf3cLB.s 			page 43


 2160      635F6D73 
 2160      6700
 2161              	.LASF86:
 2162 05a6 6F666673 		.ascii	"offset\000"
 2162      657400
 2163              	.LASF119:
 2164 05ad 73745374 		.ascii	"stStartAlarm\000"
 2164      61727441 
 2164      6C61726D 
 2164      00
 2165              	.LASF84:
 2166 05ba 636F6E74 		.ascii	"context\000"
 2166      65787400 
 2167              	.LASF42:
 2168 05c2 705F6D73 		.ascii	"p_msg\000"
 2168      6700
 2169              	.LASF17:
 2170 05c8 7274636E 		.ascii	"rtcnt_t\000"
 2170      745F7400 
 2171              	.LASF128:
 2172 05d0 73745F6C 		.ascii	"st_lld_stop_alarm\000"
 2172      6C645F73 
 2172      746F705F 
 2172      616C6172 
 2172      6D00
 2173              	.LASF68:
 2174 05e2 76745F70 		.ascii	"vt_par\000"
 2174      617200
 2175              	.LASF51:
 2176 05e9 74687265 		.ascii	"threads_queue_t\000"
 2176      6164735F 
 2176      71756575 
 2176      655F7400 
 2177              	.LASF98:
 2178 05f9 63685F6D 		.ascii	"ch_mutex\000"
 2178      75746578 
 2178      00
 2179              	.LASF37:
 2180 0602 705F7265 		.ascii	"p_refs\000"
 2180      667300
 2181              	.LASF27:
 2182 0609 74687265 		.ascii	"thread_t\000"
 2182      61645F74 
 2182      00
 2183              	.LASF77:
 2184 0612 726C6973 		.ascii	"rlist\000"
 2184      7400
 2185              	.LASF121:
 2186 0618 73745365 		.ascii	"stSetAlarm\000"
 2186      74416C61 
 2186      726D00
 2187              	.LASF130:
 2188 0623 73744765 		.ascii	"stGetAlarm\000"
 2188      74416C61 
 2188      726D00
 2189              	.LASF90:
 2190 062e 77746F62 		.ascii	"wtobjp\000"
ARM GAS  /tmp/ccJf3cLB.s 			page 44


 2190      6A7000
 2191              	.LASF34:
 2192 0635 705F6E61 		.ascii	"p_name\000"
 2192      6D6500
 2193              	.LASF71:
 2194 063c 76745F73 		.ascii	"vt_systime\000"
 2194      79737469 
 2194      6D6500
 2195              	.LASF122:
 2196 0647 61627374 		.ascii	"abstime\000"
 2196      696D6500 
 2197              	.LASF36:
 2198 064f 705F666C 		.ascii	"p_flags\000"
 2198      61677300 
 2199              	.LASF116:
 2200 0657 73745F6C 		.ascii	"st_lld_set_alarm\000"
 2200      6C645F73 
 2200      65745F61 
 2200      6C61726D 
 2200      00
 2201              	.LASF103:
 2202 0668 6D757465 		.ascii	"mutex_t\000"
 2202      785F7400 
 2203              	.LASF100:
 2204 0670 6D5F6F77 		.ascii	"m_owner\000"
 2204      6E657200 
 2205              	.LASF31:
 2206 0678 705F6374 		.ascii	"p_ctx\000"
 2206      7800
 2207              	.LASF67:
 2208 067e 76745F66 		.ascii	"vt_func\000"
 2208      756E6300 
 2209              		.ident	"GCC: (GNU Tools for ARM Embedded Processors) 4.9.3 20150529 (release) [ARM/embedded-4_9-br
ARM GAS  /tmp/ccJf3cLB.s 			page 45


DEFINED SYMBOLS
                            *ABS*:0000000000000000 st.c
     /tmp/ccJf3cLB.s:21     .text.stInit:0000000000000000 $t
     /tmp/ccJf3cLB.s:27     .text.stInit:0000000000000000 stInit
     /tmp/ccJf3cLB.s:42     .text.stStartAlarm:0000000000000000 $t
     /tmp/ccJf3cLB.s:48     .text.stStartAlarm:0000000000000000 stStartAlarm
     /tmp/ccJf3cLB.s:79     .text.stStopAlarm:0000000000000000 $t
     /tmp/ccJf3cLB.s:85     .text.stStopAlarm:0000000000000000 stStopAlarm
     /tmp/ccJf3cLB.s:105    .text.stSetAlarm:0000000000000000 $t
     /tmp/ccJf3cLB.s:111    .text.stSetAlarm:0000000000000000 stSetAlarm
     /tmp/ccJf3cLB.s:132    .text.stGetAlarm:0000000000000000 $t
     /tmp/ccJf3cLB.s:138    .text.stGetAlarm:0000000000000000 stGetAlarm
                     .debug_frame:0000000000000010 $d

UNDEFINED SYMBOLS
st_lld_init
