ARM GAS  /tmp/ccJf3cLB.s 			page 1


   1              		.syntax unified
   2              		.cpu cortex-m4
   3              		.eabi_attribute 27, 1
   4              		.eabi_attribute 28, 1
   5              		.fpu fpv4-sp-d16
   6              		.eabi_attribute 20, 1
   7              		.eabi_attribute 21, 1
   8              		.eabi_attribute 23, 3
   9              		.eabi_attribute 24, 1
  10              		.eabi_attribute 25, 1
  11              		.eabi_attribute 26, 1
  12              		.eabi_attribute 30, 2
  13              		.eabi_attribute 34, 1
  14              		.eabi_attribute 18, 4
  15              		.thumb
  16              		.file	"st.c"
  17              		.text
  18              	.Ltext0:
  19              		.cfi_sections	.debug_frame
  20              		.section	.text.stInit,"ax",%progbits
  21              		.align	2
  22              		.p2align 4,,15
  23              		.global	stInit
  24              		.thumb
  25              		.thumb_func
  26              		.type	stInit, %function
  27              	stInit:
  28              	.LFB256:
  29              		.file 1 "ChibiOS_3.0.2/os/hal/src/st.c"
  30              		.loc 1 60 0
  31              		.cfi_startproc
  32              		@ args = 0, pretend = 0, frame = 0
  33              		@ frame_needed = 0, uses_anonymous_args = 0
  34              		@ link register save eliminated.
  35              		.loc 1 62 0
  36 0000 FFF7FEBF 		b	st_lld_init
  37              	.LVL0:
  38              		.cfi_endproc
  39              	.LFE256:
  40              		.size	stInit, .-stInit
  41              		.section	.text.stStartAlarm,"ax",%progbits
  42              		.align	2
  43              		.p2align 4,,15
  44              		.global	stStartAlarm
  45              		.thumb
  46              		.thumb_func
  47              		.type	stStartAlarm, %function
  48              	stStartAlarm:
  49              	.LFB257:
  50              		.loc 1 77 0
  51              		.cfi_startproc
  52              		@ args = 0, pretend = 0, frame = 0
  53              		@ frame_needed = 0, uses_anonymous_args = 0
  54              		@ link register save eliminated.
  55              	.LVL1:
  56              	.LBB10:
  57              	.LBB11:
ARM GAS  /tmp/ccJf3cLB.s 			page 2


  58              		.file 2 "ChibiOS_3.0.2/os/hal/ports/STM32/LLD/TIMv1/st_lld.h"
  59              		.loc 2 143 0
  60 0000 4FF08043 		mov	r3, #1073741824
  61              	.LVL2:
  62              		.loc 2 144 0
  63 0004 0021     		movs	r1, #0
  64              		.loc 2 145 0
  65 0006 0222     		movs	r2, #2
  66              		.loc 2 143 0
  67 0008 5863     		str	r0, [r3, #52]
  68              		.loc 2 144 0
  69 000a 1961     		str	r1, [r3, #16]
  70              		.loc 2 145 0
  71 000c DA60     		str	r2, [r3, #12]
  72 000e 7047     		bx	lr
  73              	.LBE11:
  74              	.LBE10:
  75              		.cfi_endproc
  76              	.LFE257:
  77              		.size	stStartAlarm, .-stStartAlarm
  78              		.section	.text.stStopAlarm,"ax",%progbits
  79              		.align	2
  80              		.p2align 4,,15
  81              		.global	stStopAlarm
  82              		.thumb
  83              		.thumb_func
  84              		.type	stStopAlarm, %function
  85              	stStopAlarm:
  86              	.LFB258:
  87              		.loc 1 91 0
  88              		.cfi_startproc
  89              		@ args = 0, pretend = 0, frame = 0
  90              		@ frame_needed = 0, uses_anonymous_args = 0
  91              		@ link register save eliminated.
  92              	.LBB12:
  93              	.LBB13:
  94              		.loc 2 155 0
  95 0000 4FF08043 		mov	r3, #1073741824
  96 0004 0022     		movs	r2, #0
  97 0006 DA60     		str	r2, [r3, #12]
  98 0008 7047     		bx	lr
  99              	.LBE13:
 100              	.LBE12:
 101              		.cfi_endproc
 102              	.LFE258:
 103              		.size	stStopAlarm, .-stStopAlarm
 104              		.section	.text.stSetAlarm,"ax",%progbits
 105              		.align	2
 106              		.p2align 4,,15
 107              		.global	stSetAlarm
 108              		.thumb
 109              		.thumb_func
 110              		.type	stSetAlarm, %function
 111              	stSetAlarm:
 112              	.LFB259:
 113              		.loc 1 105 0
 114              		.cfi_startproc
ARM GAS  /tmp/ccJf3cLB.s 			page 3


 115              		@ args = 0, pretend = 0, frame = 0
 116              		@ frame_needed = 0, uses_anonymous_args = 0
 117              		@ link register save eliminated.
 118              	.LVL3:
 119              	.LBB14:
 120              	.LBB15:
 121              		.loc 2 167 0
 122 0000 4FF08043 		mov	r3, #1073741824
 123              	.LVL4:
 124 0004 5863     		str	r0, [r3, #52]
 125 0006 7047     		bx	lr
 126              	.LBE15:
 127              	.LBE14:
 128              		.cfi_endproc
 129              	.LFE259:
 130              		.size	stSetAlarm, .-stSetAlarm
 131              		.section	.text.stGetAlarm,"ax",%progbits
 132              		.align	2
 133              		.p2align 4,,15
 134              		.global	stGetAlarm
 135              		.thumb
 136              		.thumb_func
 137              		.type	stGetAlarm, %function
 138              	stGetAlarm:
 139              	.LFB260:
 140              		.loc 1 121 0
 141              		.cfi_startproc
 142              		@ args = 0, pretend = 0, frame = 0
 143              		@ frame_needed = 0, uses_anonymous_args = 0
 144              		@ link register save eliminated.
 145              	.LBB16:
 146              	.LBB17:
 147              		.loc 2 179 0
 148 0000 4FF08043 		mov	r3, #1073741824
 149 0004 586B     		ldr	r0, [r3, #52]
 150              	.LBE17:
 151              	.LBE16:
 152              		.loc 1 126 0
 153 0006 7047     		bx	lr
 154              		.cfi_endproc
 155              	.LFE260:
 156              		.size	stGetAlarm, .-stGetAlarm
 157              		.text
 158              	.Letext0:
 159              		.file 3 "/usr/arm-none-eabi/include/machine/_default_types.h"
 160              		.file 4 "/usr/arm-none-eabi/include/sys/_stdint.h"
 161              		.file 5 "ChibiOS_3.0.2/os/rt/ports/ARMCMx/compilers/GCC/chtypes.h"
 162              		.file 6 "ChibiOS_3.0.2/os/rt/include/chsystypes.h"
 163              		.file 7 "ChibiOS_3.0.2/os/rt/include/chschd.h"
 164              		.file 8 "ChibiOS_3.0.2/os/rt/ports/ARMCMx/chcore.h"
 165              		.file 9 "ChibiOS_3.0.2/os/rt/ports/ARMCMx/chcore_v7m.h"
 166              		.file 10 "ChibiOS_3.0.2/os/rt/include/chtm.h"
 167              		.file 11 "ChibiOS_3.0.2/os/rt/include/chsem.h"
 168              		.file 12 "ChibiOS_3.0.2/os/rt/include/chmtx.h"
 169              		.file 13 "ChibiOS_3.0.2/os/hal/ports/STM32/LLD/TIMv1/stm32_tim.h"
 170              		.file 14 "ChibiOS_3.0.2/os/ext/CMSIS/include/core_cm4.h"