ARM GAS  /tmp/ccXBGXmL.s 			page 1


   1              		.syntax unified
   2              		.cpu cortex-m4
   3              		.eabi_attribute 27, 1
   4              		.eabi_attribute 28, 1
   5              		.fpu fpv4-sp-d16
   6              		.eabi_attribute 20, 1
   7              		.eabi_attribute 21, 1
   8              		.eabi_attribute 23, 3
   9              		.eabi_attribute 24, 1
  10              		.eabi_attribute 25, 1
  11              		.eabi_attribute 26, 1
  12              		.eabi_attribute 30, 2
  13              		.eabi_attribute 34, 1
  14              		.eabi_attribute 18, 4
  15              		.thumb
  16              		.file	"stm32_dma.c"
  17              		.text
  18              	.Ltext0:
  19              		.cfi_sections	.debug_frame
  20              		.section	.text.Vector6C,"ax",%progbits
  21              		.align	2
  22              		.p2align 4,,15
  23              		.global	Vector6C
  24              		.thumb
  25              		.thumb_func
  26              		.type	Vector6C, %function
  27              	Vector6C:
  28              	.LFB256:
  29              		.file 1 "ChibiOS_3.0.2/os/hal/ports/STM32/STM32F4xx/stm32_dma.c"
  30              		.loc 1 127 0
  31              		.cfi_startproc
  32              		@ args = 0, pretend = 0, frame = 0
  33              		@ frame_needed = 0, uses_anonymous_args = 0
  34 0000 08B5     		push	{r3, lr}
  35              		.cfi_def_cfa_offset 8
  36              		.cfi_offset 3, -8
  37              		.cfi_offset 14, -4
  38              		.loc 1 132 0
  39 0002 074B     		ldr	r3, .L8
  40              		.loc 1 134 0
  41 0004 074A     		ldr	r2, .L8+4
  42              		.loc 1 132 0
  43 0006 1968     		ldr	r1, [r3]
  44 0008 01F03D01 		and	r1, r1, #61
  45              	.LVL0:
  46              		.loc 1 133 0
  47 000c 9960     		str	r1, [r3, #8]
  48              		.loc 1 134 0
  49 000e 1368     		ldr	r3, [r2]
  50 0010 0BB1     		cbz	r3, .L2
  51              		.loc 1 135 0
  52 0012 5068     		ldr	r0, [r2, #4]
  53 0014 9847     		blx	r3
  54              	.LVL1:
  55              	.L2:
  56              		.loc 1 138 0
  57 0016 BDE80840 		pop	{r3, lr}
ARM GAS  /tmp/ccXBGXmL.s 			page 2


  58              		.cfi_restore 14
  59              		.cfi_restore 3
  60              		.cfi_def_cfa_offset 0
  61              		.loc 1 137 0
  62 001a FFF7FEBF 		b	_port_irq_epilogue
  63              	.LVL2:
  64              	.L9:
  65 001e 00BF     		.align	2
  66              	.L8:
  67 0020 00600240 		.word	1073897472
  68 0024 00000000 		.word	.LANCHOR0
  69              		.cfi_endproc
  70              	.LFE256:
  71              		.size	Vector6C, .-Vector6C
  72              		.section	.text.Vector70,"ax",%progbits
  73              		.align	2
  74              		.p2align 4,,15
  75              		.global	Vector70
  76              		.thumb
  77              		.thumb_func
  78              		.type	Vector70, %function
  79              	Vector70:
  80              	.LFB257:
  81              		.loc 1 145 0
  82              		.cfi_startproc
  83              		@ args = 0, pretend = 0, frame = 0
  84              		@ frame_needed = 0, uses_anonymous_args = 0
  85              		.loc 1 150 0
  86 0000 084B     		ldr	r3, .L16
  87              		.loc 1 152 0
  88 0002 0948     		ldr	r0, .L16+4
  89              		.loc 1 150 0
  90 0004 1968     		ldr	r1, [r3]
  91              		.loc 1 152 0
  92 0006 8268     		ldr	r2, [r0, #8]
  93              		.loc 1 150 0
  94 0008 8909     		lsrs	r1, r1, #6
  95 000a 01F03D01 		and	r1, r1, #61
  96              	.LVL3:
  97              		.loc 1 145 0
  98 000e 10B5     		push	{r4, lr}
  99              		.cfi_def_cfa_offset 8
 100              		.cfi_offset 4, -8
 101              		.cfi_offset 14, -4
 102              		.loc 1 151 0
 103 0010 8C01     		lsls	r4, r1, #6
 104 0012 9C60     		str	r4, [r3, #8]
 105              		.loc 1 152 0
 106 0014 0AB1     		cbz	r2, .L11
 107              		.loc 1 153 0
 108 0016 C068     		ldr	r0, [r0, #12]
 109 0018 9047     		blx	r2
 110              	.LVL4:
 111              	.L11:
 112              		.loc 1 156 0
 113 001a BDE81040 		pop	{r4, lr}
 114              		.cfi_restore 14
ARM GAS  /tmp/ccXBGXmL.s 			page 3


 115              		.cfi_restore 4
 116              		.cfi_def_cfa_offset 0
 117              		.loc 1 155 0
 118 001e FFF7FEBF 		b	_port_irq_epilogue
 119              	.LVL5:
 120              	.L17:
 121 0022 00BF     		.align	2
 122              	.L16:
 123 0024 00600240 		.word	1073897472
 124 0028 00000000 		.word	.LANCHOR0
 125              		.cfi_endproc
 126              	.LFE257:
 127              		.size	Vector70, .-Vector70
 128              		.section	.text.Vector74,"ax",%progbits
 129              		.align	2
 130              		.p2align 4,,15
 131              		.global	Vector74
 132              		.thumb
 133              		.thumb_func
 134              		.type	Vector74, %function
 135              	Vector74:
 136              	.LFB258:
 137              		.loc 1 163 0
 138              		.cfi_startproc
 139              		@ args = 0, pretend = 0, frame = 0
 140              		@ frame_needed = 0, uses_anonymous_args = 0
 141              		.loc 1 168 0
 142 0000 084B     		ldr	r3, .L24
 143              		.loc 1 170 0
 144 0002 0948     		ldr	r0, .L24+4
 145              		.loc 1 168 0
 146 0004 1968     		ldr	r1, [r3]
 147              		.loc 1 170 0
 148 0006 0269     		ldr	r2, [r0, #16]
 149              		.loc 1 168 0
 150 0008 090C     		lsrs	r1, r1, #16
 151 000a 01F03D01 		and	r1, r1, #61
 152              	.LVL6:
 153              		.loc 1 163 0
 154 000e 10B5     		push	{r4, lr}
 155              		.cfi_def_cfa_offset 8
 156              		.cfi_offset 4, -8
 157              		.cfi_offset 14, -4
 158              		.loc 1 169 0
 159 0010 0C04     		lsls	r4, r1, #16
 160 0012 9C60     		str	r4, [r3, #8]
 161              		.loc 1 170 0
 162 0014 0AB1     		cbz	r2, .L19
 163              		.loc 1 171 0
 164 0016 4069     		ldr	r0, [r0, #20]
 165 0018 9047     		blx	r2
 166              	.LVL7:
 167              	.L19:
 168              		.loc 1 174 0
 169 001a BDE81040 		pop	{r4, lr}
 170              		.cfi_restore 14
 171              		.cfi_restore 4
ARM GAS  /tmp/ccXBGXmL.s 			page 4


 172              		.cfi_def_cfa_offset 0
 173              		.loc 1 173 0
 174 001e FFF7FEBF 		b	_port_irq_epilogue
 175              	.LVL8:
 176              	.L25:
 177 0022 00BF     		.align	2
 178              	.L24:
 179 0024 00600240 		.word	1073897472
 180 0028 00000000 		.word	.LANCHOR0
 181              		.cfi_endproc
 182              	.LFE258:
 183              		.size	Vector74, .-Vector74
 184              		.section	.text.Vector78,"ax",%progbits
 185              		.align	2
 186              		.p2align 4,,15
 187              		.global	Vector78
 188              		.thumb
 189              		.thumb_func
 190              		.type	Vector78, %function
 191              	Vector78:
 192              	.LFB259:
 193              		.loc 1 181 0
 194              		.cfi_startproc
 195              		@ args = 0, pretend = 0, frame = 0
 196              		@ frame_needed = 0, uses_anonymous_args = 0
 197              		.loc 1 186 0
 198 0000 084B     		ldr	r3, .L32
 199              		.loc 1 188 0
 200 0002 0948     		ldr	r0, .L32+4
 201              		.loc 1 186 0
 202 0004 1968     		ldr	r1, [r3]
 203              		.loc 1 188 0
 204 0006 8269     		ldr	r2, [r0, #24]
 205              		.loc 1 186 0
 206 0008 890D     		lsrs	r1, r1, #22
 207 000a 01F03D01 		and	r1, r1, #61
 208              	.LVL9:
 209              		.loc 1 181 0
 210 000e 10B5     		push	{r4, lr}
 211              		.cfi_def_cfa_offset 8
 212              		.cfi_offset 4, -8
 213              		.cfi_offset 14, -4
 214              		.loc 1 187 0
 215 0010 8C05     		lsls	r4, r1, #22
 216 0012 9C60     		str	r4, [r3, #8]
 217              		.loc 1 188 0
 218 0014 0AB1     		cbz	r2, .L27
 219              		.loc 1 189 0
 220 0016 C069     		ldr	r0, [r0, #28]
 221 0018 9047     		blx	r2
 222              	.LVL10:
 223              	.L27:
 224              		.loc 1 192 0
 225 001a BDE81040 		pop	{r4, lr}
 226              		.cfi_restore 14
 227              		.cfi_restore 4
 228              		.cfi_def_cfa_offset 0
ARM GAS  /tmp/ccXBGXmL.s 			page 5


 229              		.loc 1 191 0
 230 001e FFF7FEBF 		b	_port_irq_epilogue
 231              	.LVL11:
 232              	.L33:
 233 0022 00BF     		.align	2
 234              	.L32:
 235 0024 00600240 		.word	1073897472
 236 0028 00000000 		.word	.LANCHOR0
 237              		.cfi_endproc
 238              	.LFE259:
 239              		.size	Vector78, .-Vector78
 240              		.section	.text.Vector7C,"ax",%progbits
 241              		.align	2
 242              		.p2align 4,,15
 243              		.global	Vector7C
 244              		.thumb
 245              		.thumb_func
 246              		.type	Vector7C, %function
 247              	Vector7C:
 248              	.LFB260:
 249              		.loc 1 199 0
 250              		.cfi_startproc
 251              		@ args = 0, pretend = 0, frame = 0
 252              		@ frame_needed = 0, uses_anonymous_args = 0
 253 0000 08B5     		push	{r3, lr}
 254              		.cfi_def_cfa_offset 8
 255              		.cfi_offset 3, -8
 256              		.cfi_offset 14, -4
 257              		.loc 1 204 0
 258 0002 074B     		ldr	r3, .L40
 259              		.loc 1 206 0
 260 0004 0748     		ldr	r0, .L40+4
 261              		.loc 1 204 0
 262 0006 5968     		ldr	r1, [r3, #4]
 263              		.loc 1 206 0
 264 0008 026A     		ldr	r2, [r0, #32]
 265              		.loc 1 204 0
 266 000a 01F03D01 		and	r1, r1, #61
 267              	.LVL12:
 268              		.loc 1 205 0
 269 000e D960     		str	r1, [r3, #12]
 270              		.loc 1 206 0
 271 0010 0AB1     		cbz	r2, .L35
 272              		.loc 1 207 0
 273 0012 406A     		ldr	r0, [r0, #36]
 274 0014 9047     		blx	r2
 275              	.LVL13:
 276              	.L35:
 277              		.loc 1 210 0
 278 0016 BDE80840 		pop	{r3, lr}
 279              		.cfi_restore 14
 280              		.cfi_restore 3
 281              		.cfi_def_cfa_offset 0
 282              		.loc 1 209 0
 283 001a FFF7FEBF 		b	_port_irq_epilogue
 284              	.LVL14:
 285              	.L41:
ARM GAS  /tmp/ccXBGXmL.s 			page 6


 286 001e 00BF     		.align	2
 287              	.L40:
 288 0020 00600240 		.word	1073897472
 289 0024 00000000 		.word	.LANCHOR0
 290              		.cfi_endproc
 291              	.LFE260:
 292              		.size	Vector7C, .-Vector7C
 293              		.section	.text.Vector80,"ax",%progbits
 294              		.align	2
 295              		.p2align 4,,15
 296              		.global	Vector80
 297              		.thumb
 298              		.thumb_func
 299              		.type	Vector80, %function
 300              	Vector80:
 301              	.LFB261:
 302              		.loc 1 217 0
 303              		.cfi_startproc
 304              		@ args = 0, pretend = 0, frame = 0
 305              		@ frame_needed = 0, uses_anonymous_args = 0
 306              		.loc 1 222 0
 307 0000 084B     		ldr	r3, .L48
 308              		.loc 1 224 0
 309 0002 0948     		ldr	r0, .L48+4
 310              		.loc 1 222 0
 311 0004 5968     		ldr	r1, [r3, #4]
 312              		.loc 1 224 0
 313 0006 826A     		ldr	r2, [r0, #40]
 314              		.loc 1 222 0
 315 0008 8909     		lsrs	r1, r1, #6
 316 000a 01F03D01 		and	r1, r1, #61
 317              	.LVL15:
 318              		.loc 1 217 0
 319 000e 10B5     		push	{r4, lr}
 320              		.cfi_def_cfa_offset 8
 321              		.cfi_offset 4, -8
 322              		.cfi_offset 14, -4
 323              		.loc 1 223 0
 324 0010 8C01     		lsls	r4, r1, #6
 325 0012 DC60     		str	r4, [r3, #12]
 326              		.loc 1 224 0
 327 0014 0AB1     		cbz	r2, .L43
 328              		.loc 1 225 0
 329 0016 C06A     		ldr	r0, [r0, #44]
 330 0018 9047     		blx	r2
 331              	.LVL16:
 332              	.L43:
 333              		.loc 1 228 0
 334 001a BDE81040 		pop	{r4, lr}
 335              		.cfi_restore 14
 336              		.cfi_restore 4
 337              		.cfi_def_cfa_offset 0
 338              		.loc 1 227 0
 339 001e FFF7FEBF 		b	_port_irq_epilogue
 340              	.LVL17:
 341              	.L49:
 342 0022 00BF     		.align	2
ARM GAS  /tmp/ccXBGXmL.s 			page 7


 343              	.L48:
 344 0024 00600240 		.word	1073897472
 345 0028 00000000 		.word	.LANCHOR0
 346              		.cfi_endproc
 347              	.LFE261:
 348              		.size	Vector80, .-Vector80
 349              		.section	.text.Vector84,"ax",%progbits
 350              		.align	2
 351              		.p2align 4,,15
 352              		.global	Vector84
 353              		.thumb
 354              		.thumb_func
 355              		.type	Vector84, %function
 356              	Vector84:
 357              	.LFB262:
 358              		.loc 1 235 0
 359              		.cfi_startproc
 360              		@ args = 0, pretend = 0, frame = 0
 361              		@ frame_needed = 0, uses_anonymous_args = 0
 362              		.loc 1 240 0
 363 0000 084B     		ldr	r3, .L56
 364              		.loc 1 242 0
 365 0002 0948     		ldr	r0, .L56+4
 366              		.loc 1 240 0
 367 0004 5968     		ldr	r1, [r3, #4]
 368              		.loc 1 242 0
 369 0006 026B     		ldr	r2, [r0, #48]
 370              		.loc 1 240 0
 371 0008 090C     		lsrs	r1, r1, #16
 372 000a 01F03D01 		and	r1, r1, #61
 373              	.LVL18:
 374              		.loc 1 235 0
 375 000e 10B5     		push	{r4, lr}
 376              		.cfi_def_cfa_offset 8
 377              		.cfi_offset 4, -8
 378              		.cfi_offset 14, -4
 379              		.loc 1 241 0
 380 0010 0C04     		lsls	r4, r1, #16
 381 0012 DC60     		str	r4, [r3, #12]
 382              		.loc 1 242 0
 383 0014 0AB1     		cbz	r2, .L51
 384              		.loc 1 243 0
 385 0016 406B     		ldr	r0, [r0, #52]
 386 0018 9047     		blx	r2
 387              	.LVL19:
 388              	.L51:
 389              		.loc 1 246 0
 390 001a BDE81040 		pop	{r4, lr}
 391              		.cfi_restore 14
 392              		.cfi_restore 4
 393              		.cfi_def_cfa_offset 0
 394              		.loc 1 245 0
 395 001e FFF7FEBF 		b	_port_irq_epilogue
 396              	.LVL20:
 397              	.L57:
 398 0022 00BF     		.align	2
 399              	.L56:
ARM GAS  /tmp/ccXBGXmL.s 			page 8


 400 0024 00600240 		.word	1073897472
 401 0028 00000000 		.word	.LANCHOR0
 402              		.cfi_endproc
 403              	.LFE262:
 404              		.size	Vector84, .-Vector84
 405              		.section	.text.VectorFC,"ax",%progbits
 406              		.align	2
 407              		.p2align 4,,15
 408              		.global	VectorFC
 409              		.thumb
 410              		.thumb_func
 411              		.type	VectorFC, %function
 412              	VectorFC:
 413              	.LFB263:
 414              		.loc 1 253 0
 415              		.cfi_startproc
 416              		@ args = 0, pretend = 0, frame = 0
 417              		@ frame_needed = 0, uses_anonymous_args = 0
 418              		.loc 1 258 0
 419 0000 084B     		ldr	r3, .L64
 420              		.loc 1 260 0
 421 0002 0948     		ldr	r0, .L64+4
 422              		.loc 1 258 0
 423 0004 5968     		ldr	r1, [r3, #4]
 424              		.loc 1 260 0
 425 0006 826B     		ldr	r2, [r0, #56]
 426              		.loc 1 258 0
 427 0008 890D     		lsrs	r1, r1, #22
 428 000a 01F03D01 		and	r1, r1, #61
 429              	.LVL21:
 430              		.loc 1 253 0
 431 000e 10B5     		push	{r4, lr}
 432              		.cfi_def_cfa_offset 8
 433              		.cfi_offset 4, -8
 434              		.cfi_offset 14, -4
 435              		.loc 1 259 0
 436 0010 8C05     		lsls	r4, r1, #22
 437 0012 DC60     		str	r4, [r3, #12]
 438              		.loc 1 260 0
 439 0014 0AB1     		cbz	r2, .L59
 440              		.loc 1 261 0
 441 0016 C06B     		ldr	r0, [r0, #60]
 442 0018 9047     		blx	r2
 443              	.LVL22:
 444              	.L59:
 445              		.loc 1 264 0
 446 001a BDE81040 		pop	{r4, lr}
 447              		.cfi_restore 14
 448              		.cfi_restore 4
 449              		.cfi_def_cfa_offset 0
 450              		.loc 1 263 0
 451 001e FFF7FEBF 		b	_port_irq_epilogue
 452              	.LVL23:
 453              	.L65:
 454 0022 00BF     		.align	2
 455              	.L64:
 456 0024 00600240 		.word	1073897472
ARM GAS  /tmp/ccXBGXmL.s 			page 9


 457 0028 00000000 		.word	.LANCHOR0
 458              		.cfi_endproc
 459              	.LFE263:
 460              		.size	VectorFC, .-VectorFC
 461              		.section	.text.Vector120,"ax",%progbits
 462              		.align	2
 463              		.p2align 4,,15
 464              		.global	Vector120
 465              		.thumb
 466              		.thumb_func
 467              		.type	Vector120, %function
 468              	Vector120:
 469              	.LFB264:
 470              		.loc 1 271 0
 471              		.cfi_startproc
 472              		@ args = 0, pretend = 0, frame = 0
 473              		@ frame_needed = 0, uses_anonymous_args = 0
 474 0000 08B5     		push	{r3, lr}
 475              		.cfi_def_cfa_offset 8
 476              		.cfi_offset 3, -8
 477              		.cfi_offset 14, -4
 478              		.loc 1 276 0
 479 0002 074B     		ldr	r3, .L72
 480              		.loc 1 278 0
 481 0004 0748     		ldr	r0, .L72+4
 482              		.loc 1 276 0
 483 0006 1968     		ldr	r1, [r3]
 484              		.loc 1 278 0
 485 0008 026C     		ldr	r2, [r0, #64]
 486              		.loc 1 276 0
 487 000a 01F03D01 		and	r1, r1, #61
 488              	.LVL24:
 489              		.loc 1 277 0
 490 000e 9960     		str	r1, [r3, #8]
 491              		.loc 1 278 0
 492 0010 0AB1     		cbz	r2, .L67
 493              		.loc 1 279 0
 494 0012 406C     		ldr	r0, [r0, #68]
 495 0014 9047     		blx	r2
 496              	.LVL25:
 497              	.L67:
 498              		.loc 1 282 0
 499 0016 BDE80840 		pop	{r3, lr}
 500              		.cfi_restore 14
 501              		.cfi_restore 3
 502              		.cfi_def_cfa_offset 0
 503              		.loc 1 281 0
 504 001a FFF7FEBF 		b	_port_irq_epilogue
 505              	.LVL26:
 506              	.L73:
 507 001e 00BF     		.align	2
 508              	.L72:
 509 0020 00640240 		.word	1073898496
 510 0024 00000000 		.word	.LANCHOR0
 511              		.cfi_endproc
 512              	.LFE264:
 513              		.size	Vector120, .-Vector120
ARM GAS  /tmp/ccXBGXmL.s 			page 10


 514              		.section	.text.Vector124,"ax",%progbits
 515              		.align	2
 516              		.p2align 4,,15
 517              		.global	Vector124
 518              		.thumb
 519              		.thumb_func
 520              		.type	Vector124, %function
 521              	Vector124:
 522              	.LFB265:
 523              		.loc 1 289 0
 524              		.cfi_startproc
 525              		@ args = 0, pretend = 0, frame = 0
 526              		@ frame_needed = 0, uses_anonymous_args = 0
 527              		.loc 1 294 0
 528 0000 084B     		ldr	r3, .L80
 529              		.loc 1 296 0
 530 0002 0948     		ldr	r0, .L80+4
 531              		.loc 1 294 0
 532 0004 1968     		ldr	r1, [r3]
 533              		.loc 1 296 0
 534 0006 826C     		ldr	r2, [r0, #72]
 535              		.loc 1 294 0
 536 0008 8909     		lsrs	r1, r1, #6
 537 000a 01F03D01 		and	r1, r1, #61
 538              	.LVL27:
 539              		.loc 1 289 0
 540 000e 10B5     		push	{r4, lr}
 541              		.cfi_def_cfa_offset 8
 542              		.cfi_offset 4, -8
 543              		.cfi_offset 14, -4
 544              		.loc 1 295 0
 545 0010 8C01     		lsls	r4, r1, #6
 546 0012 9C60     		str	r4, [r3, #8]
 547              		.loc 1 296 0
 548 0014 0AB1     		cbz	r2, .L75
 549              		.loc 1 297 0
 550 0016 C06C     		ldr	r0, [r0, #76]
 551 0018 9047     		blx	r2
 552              	.LVL28:
 553              	.L75:
 554              		.loc 1 300 0
 555 001a BDE81040 		pop	{r4, lr}
 556              		.cfi_restore 14
 557              		.cfi_restore 4
 558              		.cfi_def_cfa_offset 0
 559              		.loc 1 299 0
 560 001e FFF7FEBF 		b	_port_irq_epilogue
 561              	.LVL29:
 562              	.L81:
 563 0022 00BF     		.align	2
 564              	.L80:
 565 0024 00640240 		.word	1073898496
 566 0028 00000000 		.word	.LANCHOR0
 567              		.cfi_endproc
 568              	.LFE265:
 569              		.size	Vector124, .-Vector124
 570              		.section	.text.Vector128,"ax",%progbits
ARM GAS  /tmp/ccXBGXmL.s 			page 11


 571              		.align	2
 572              		.p2align 4,,15
 573              		.global	Vector128
 574              		.thumb
 575              		.thumb_func
 576              		.type	Vector128, %function
 577              	Vector128:
 578              	.LFB266:
 579              		.loc 1 307 0
 580              		.cfi_startproc
 581              		@ args = 0, pretend = 0, frame = 0
 582              		@ frame_needed = 0, uses_anonymous_args = 0
 583              		.loc 1 312 0
 584 0000 084B     		ldr	r3, .L88
 585              		.loc 1 314 0
 586 0002 0948     		ldr	r0, .L88+4
 587              		.loc 1 312 0
 588 0004 1968     		ldr	r1, [r3]
 589              		.loc 1 314 0
 590 0006 026D     		ldr	r2, [r0, #80]
 591              		.loc 1 312 0
 592 0008 090C     		lsrs	r1, r1, #16
 593 000a 01F03D01 		and	r1, r1, #61
 594              	.LVL30:
 595              		.loc 1 307 0
 596 000e 10B5     		push	{r4, lr}
 597              		.cfi_def_cfa_offset 8
 598              		.cfi_offset 4, -8
 599              		.cfi_offset 14, -4
 600              		.loc 1 313 0
 601 0010 0C04     		lsls	r4, r1, #16
 602 0012 9C60     		str	r4, [r3, #8]
 603              		.loc 1 314 0
 604 0014 0AB1     		cbz	r2, .L83
 605              		.loc 1 315 0
 606 0016 406D     		ldr	r0, [r0, #84]
 607 0018 9047     		blx	r2
 608              	.LVL31:
 609              	.L83:
 610              		.loc 1 318 0
 611 001a BDE81040 		pop	{r4, lr}
 612              		.cfi_restore 14
 613              		.cfi_restore 4
 614              		.cfi_def_cfa_offset 0
 615              		.loc 1 317 0
 616 001e FFF7FEBF 		b	_port_irq_epilogue
 617              	.LVL32:
 618              	.L89:
 619 0022 00BF     		.align	2
 620              	.L88:
 621 0024 00640240 		.word	1073898496
 622 0028 00000000 		.word	.LANCHOR0
 623              		.cfi_endproc
 624              	.LFE266:
 625              		.size	Vector128, .-Vector128
 626              		.section	.text.Vector12C,"ax",%progbits
 627              		.align	2
ARM GAS  /tmp/ccXBGXmL.s 			page 12


 628              		.p2align 4,,15
 629              		.global	Vector12C
 630              		.thumb
 631              		.thumb_func
 632              		.type	Vector12C, %function
 633              	Vector12C:
 634              	.LFB267:
 635              		.loc 1 325 0
 636              		.cfi_startproc
 637              		@ args = 0, pretend = 0, frame = 0
 638              		@ frame_needed = 0, uses_anonymous_args = 0
 639              		.loc 1 330 0
 640 0000 084B     		ldr	r3, .L96
 641              		.loc 1 332 0
 642 0002 0948     		ldr	r0, .L96+4
 643              		.loc 1 330 0
 644 0004 1968     		ldr	r1, [r3]
 645              		.loc 1 332 0
 646 0006 826D     		ldr	r2, [r0, #88]
 647              		.loc 1 330 0
 648 0008 890D     		lsrs	r1, r1, #22
 649 000a 01F03D01 		and	r1, r1, #61
 650              	.LVL33:
 651              		.loc 1 325 0
 652 000e 10B5     		push	{r4, lr}
 653              		.cfi_def_cfa_offset 8
 654              		.cfi_offset 4, -8
 655              		.cfi_offset 14, -4
 656              		.loc 1 331 0
 657 0010 8C05     		lsls	r4, r1, #22
 658 0012 9C60     		str	r4, [r3, #8]
 659              		.loc 1 332 0
 660 0014 0AB1     		cbz	r2, .L91
 661              		.loc 1 333 0
 662 0016 C06D     		ldr	r0, [r0, #92]
 663 0018 9047     		blx	r2
 664              	.LVL34:
 665              	.L91:
 666              		.loc 1 336 0
 667 001a BDE81040 		pop	{r4, lr}
 668              		.cfi_restore 14
 669              		.cfi_restore 4
 670              		.cfi_def_cfa_offset 0
 671              		.loc 1 335 0
 672 001e FFF7FEBF 		b	_port_irq_epilogue
 673              	.LVL35:
 674              	.L97:
 675 0022 00BF     		.align	2
 676              	.L96:
 677 0024 00640240 		.word	1073898496
 678 0028 00000000 		.word	.LANCHOR0
 679              		.cfi_endproc
 680              	.LFE267:
 681              		.size	Vector12C, .-Vector12C
 682              		.section	.text.Vector130,"ax",%progbits
 683              		.align	2
 684              		.p2align 4,,15
ARM GAS  /tmp/ccXBGXmL.s 			page 13


 685              		.global	Vector130
 686              		.thumb
 687              		.thumb_func
 688              		.type	Vector130, %function
 689              	Vector130:
 690              	.LFB268:
 691              		.loc 1 343 0
 692              		.cfi_startproc
 693              		@ args = 0, pretend = 0, frame = 0
 694              		@ frame_needed = 0, uses_anonymous_args = 0
 695 0000 08B5     		push	{r3, lr}
 696              		.cfi_def_cfa_offset 8
 697              		.cfi_offset 3, -8
 698              		.cfi_offset 14, -4
 699              		.loc 1 348 0
 700 0002 074B     		ldr	r3, .L104
 701              		.loc 1 350 0
 702 0004 0748     		ldr	r0, .L104+4
 703              		.loc 1 348 0
 704 0006 5968     		ldr	r1, [r3, #4]
 705              		.loc 1 350 0
 706 0008 026E     		ldr	r2, [r0, #96]
 707              		.loc 1 348 0
 708 000a 01F03D01 		and	r1, r1, #61
 709              	.LVL36:
 710              		.loc 1 349 0
 711 000e D960     		str	r1, [r3, #12]
 712              		.loc 1 350 0
 713 0010 0AB1     		cbz	r2, .L99
 714              		.loc 1 351 0
 715 0012 406E     		ldr	r0, [r0, #100]
 716 0014 9047     		blx	r2
 717              	.LVL37:
 718              	.L99:
 719              		.loc 1 354 0
 720 0016 BDE80840 		pop	{r3, lr}
 721              		.cfi_restore 14
 722              		.cfi_restore 3
 723              		.cfi_def_cfa_offset 0
 724              		.loc 1 353 0
 725 001a FFF7FEBF 		b	_port_irq_epilogue
 726              	.LVL38:
 727              	.L105:
 728 001e 00BF     		.align	2
 729              	.L104:
 730 0020 00640240 		.word	1073898496
 731 0024 00000000 		.word	.LANCHOR0
 732              		.cfi_endproc
 733              	.LFE268:
 734              		.size	Vector130, .-Vector130
 735              		.section	.text.Vector150,"ax",%progbits
 736              		.align	2
 737              		.p2align 4,,15
 738              		.global	Vector150
 739              		.thumb
 740              		.thumb_func
 741              		.type	Vector150, %function
ARM GAS  /tmp/ccXBGXmL.s 			page 14


 742              	Vector150:
 743              	.LFB269:
 744              		.loc 1 361 0
 745              		.cfi_startproc
 746              		@ args = 0, pretend = 0, frame = 0
 747              		@ frame_needed = 0, uses_anonymous_args = 0
 748              		.loc 1 366 0
 749 0000 084B     		ldr	r3, .L112
 750              		.loc 1 368 0
 751 0002 0948     		ldr	r0, .L112+4
 752              		.loc 1 366 0
 753 0004 5968     		ldr	r1, [r3, #4]
 754              		.loc 1 368 0
 755 0006 826E     		ldr	r2, [r0, #104]
 756              		.loc 1 366 0
 757 0008 8909     		lsrs	r1, r1, #6
 758 000a 01F03D01 		and	r1, r1, #61
 759              	.LVL39:
 760              		.loc 1 361 0
 761 000e 10B5     		push	{r4, lr}
 762              		.cfi_def_cfa_offset 8
 763              		.cfi_offset 4, -8
 764              		.cfi_offset 14, -4
 765              		.loc 1 367 0
 766 0010 8C01     		lsls	r4, r1, #6
 767 0012 DC60     		str	r4, [r3, #12]
 768              		.loc 1 368 0
 769 0014 0AB1     		cbz	r2, .L107
 770              		.loc 1 369 0
 771 0016 C06E     		ldr	r0, [r0, #108]
 772 0018 9047     		blx	r2
 773              	.LVL40:
 774              	.L107:
 775              		.loc 1 372 0
 776 001a BDE81040 		pop	{r4, lr}
 777              		.cfi_restore 14
 778              		.cfi_restore 4
 779              		.cfi_def_cfa_offset 0
 780              		.loc 1 371 0
 781 001e FFF7FEBF 		b	_port_irq_epilogue
 782              	.LVL41:
 783              	.L113:
 784 0022 00BF     		.align	2
 785              	.L112:
 786 0024 00640240 		.word	1073898496
 787 0028 00000000 		.word	.LANCHOR0
 788              		.cfi_endproc
 789              	.LFE269:
 790              		.size	Vector150, .-Vector150
 791              		.section	.text.Vector154,"ax",%progbits
 792              		.align	2
 793              		.p2align 4,,15
 794              		.global	Vector154
 795              		.thumb
 796              		.thumb_func
 797              		.type	Vector154, %function
 798              	Vector154:
ARM GAS  /tmp/ccXBGXmL.s 			page 15


 799              	.LFB270:
 800              		.loc 1 379 0
 801              		.cfi_startproc
 802              		@ args = 0, pretend = 0, frame = 0
 803              		@ frame_needed = 0, uses_anonymous_args = 0
 804              		.loc 1 384 0
 805 0000 084B     		ldr	r3, .L120
 806              		.loc 1 386 0
 807 0002 0948     		ldr	r0, .L120+4
 808              		.loc 1 384 0
 809 0004 5968     		ldr	r1, [r3, #4]
 810              		.loc 1 386 0
 811 0006 026F     		ldr	r2, [r0, #112]
 812              		.loc 1 384 0
 813 0008 090C     		lsrs	r1, r1, #16
 814 000a 01F03D01 		and	r1, r1, #61
 815              	.LVL42:
 816              		.loc 1 379 0
 817 000e 10B5     		push	{r4, lr}
 818              		.cfi_def_cfa_offset 8
 819              		.cfi_offset 4, -8
 820              		.cfi_offset 14, -4
 821              		.loc 1 385 0
 822 0010 0C04     		lsls	r4, r1, #16
 823 0012 DC60     		str	r4, [r3, #12]
 824              		.loc 1 386 0
 825 0014 0AB1     		cbz	r2, .L115
 826              		.loc 1 387 0
 827 0016 406F     		ldr	r0, [r0, #116]
 828 0018 9047     		blx	r2
 829              	.LVL43:
 830              	.L115:
 831              		.loc 1 390 0
 832 001a BDE81040 		pop	{r4, lr}
 833              		.cfi_restore 14
 834              		.cfi_restore 4
 835              		.cfi_def_cfa_offset 0
 836              		.loc 1 389 0
 837 001e FFF7FEBF 		b	_port_irq_epilogue
 838              	.LVL44:
 839              	.L121:
 840 0022 00BF     		.align	2
 841              	.L120:
 842 0024 00640240 		.word	1073898496
 843 0028 00000000 		.word	.LANCHOR0
 844              		.cfi_endproc
 845              	.LFE270:
 846              		.size	Vector154, .-Vector154
 847              		.section	.text.Vector158,"ax",%progbits
 848              		.align	2
 849              		.p2align 4,,15
 850              		.global	Vector158
 851              		.thumb
 852              		.thumb_func
 853              		.type	Vector158, %function
 854              	Vector158:
 855              	.LFB271:
ARM GAS  /tmp/ccXBGXmL.s 			page 16


 856              		.loc 1 397 0
 857              		.cfi_startproc
 858              		@ args = 0, pretend = 0, frame = 0
 859              		@ frame_needed = 0, uses_anonymous_args = 0
 860              		.loc 1 402 0
 861 0000 084B     		ldr	r3, .L128
 862              		.loc 1 404 0
 863 0002 0948     		ldr	r0, .L128+4
 864              		.loc 1 402 0
 865 0004 5968     		ldr	r1, [r3, #4]
 866              		.loc 1 404 0
 867 0006 826F     		ldr	r2, [r0, #120]
 868              		.loc 1 402 0
 869 0008 890D     		lsrs	r1, r1, #22
 870 000a 01F03D01 		and	r1, r1, #61
 871              	.LVL45:
 872              		.loc 1 397 0
 873 000e 10B5     		push	{r4, lr}
 874              		.cfi_def_cfa_offset 8
 875              		.cfi_offset 4, -8
 876              		.cfi_offset 14, -4
 877              		.loc 1 403 0
 878 0010 8C05     		lsls	r4, r1, #22
 879 0012 DC60     		str	r4, [r3, #12]
 880              		.loc 1 404 0
 881 0014 0AB1     		cbz	r2, .L123
 882              		.loc 1 405 0
 883 0016 C06F     		ldr	r0, [r0, #124]
 884 0018 9047     		blx	r2
 885              	.LVL46:
 886              	.L123:
 887              		.loc 1 408 0
 888 001a BDE81040 		pop	{r4, lr}
 889              		.cfi_restore 14
 890              		.cfi_restore 4
 891              		.cfi_def_cfa_offset 0
 892              		.loc 1 407 0
 893 001e FFF7FEBF 		b	_port_irq_epilogue
 894              	.LVL47:
 895              	.L129:
 896 0022 00BF     		.align	2
 897              	.L128:
 898 0024 00640240 		.word	1073898496
 899 0028 00000000 		.word	.LANCHOR0
 900              		.cfi_endproc
 901              	.LFE271:
 902              		.size	Vector158, .-Vector158
 903              		.section	.text.dmaInit,"ax",%progbits
 904              		.align	2
 905              		.p2align 4,,15
 906              		.global	dmaInit
 907              		.thumb
 908              		.thumb_func
 909              		.type	dmaInit, %function
 910              	dmaInit:
 911              	.LFB272:
 912              		.loc 1 419 0
ARM GAS  /tmp/ccXBGXmL.s 			page 17


 913              		.cfi_startproc
 914              		@ args = 0, pretend = 0, frame = 0
 915              		@ frame_needed = 0, uses_anonymous_args = 0
 916              		@ link register save eliminated.
 917              		.loc 1 422 0
 918 0000 0D4B     		ldr	r3, .L134
 919              		.loc 1 419 0
 920 0002 30B4     		push	{r4, r5}
 921              		.cfi_def_cfa_offset 8
 922              		.cfi_offset 4, -8
 923              		.cfi_offset 5, -4
 924              		.loc 1 422 0
 925 0004 0022     		movs	r2, #0
 926 0006 0D4D     		ldr	r5, .L134+4
 927 0008 0D4C     		ldr	r4, .L134+8
 928 000a 1A60     		str	r2, [r3]
 929              	.LVL48:
 930              		.loc 1 424 0
 931 000c 1146     		mov	r1, r2
 932              		.loc 1 423 0
 933 000e 1346     		mov	r3, r2
 934              	.LVL49:
 935              	.L131:
 936              		.loc 1 424 0 discriminator 3
 937 0010 A858     		ldr	r0, [r5, r2]
 938 0012 0160     		str	r1, [r0]
 939              		.loc 1 425 0 discriminator 3
 940 0014 44F83310 		str	r1, [r4, r3, lsl #3]
 941              		.loc 1 423 0 discriminator 3
 942 0018 0133     		adds	r3, r3, #1
 943              	.LVL50:
 944 001a 102B     		cmp	r3, #16
 945 001c 02F10C02 		add	r2, r2, #12
 946 0020 F6D1     		bne	.L131
 947              		.loc 1 427 0
 948 0022 0849     		ldr	r1, .L134+12
 949              		.loc 1 429 0
 950 0024 084A     		ldr	r2, .L134+16
 951              		.loc 1 427 0
 952 0026 4FF0FF33 		mov	r3, #-1
 953              	.LVL51:
 954 002a 8B60     		str	r3, [r1, #8]
 955              		.loc 1 431 0
 956 002c 30BC     		pop	{r4, r5}
 957              		.cfi_restore 5
 958              		.cfi_restore 4
 959              		.cfi_def_cfa_offset 0
 960              		.loc 1 428 0
 961 002e CB60     		str	r3, [r1, #12]
 962              		.loc 1 429 0
 963 0030 9360     		str	r3, [r2, #8]
 964              		.loc 1 430 0
 965 0032 D360     		str	r3, [r2, #12]
 966              		.loc 1 431 0
 967 0034 7047     		bx	lr
 968              	.L135:
 969 0036 00BF     		.align	2
ARM GAS  /tmp/ccXBGXmL.s 			page 18


 970              	.L134:
 971 0038 00000000 		.word	.LANCHOR1
 972 003c 00000000 		.word	.LANCHOR2
 973 0040 00000000 		.word	.LANCHOR0
 974 0044 00600240 		.word	1073897472
 975 0048 00640240 		.word	1073898496
 976              		.cfi_endproc
 977              	.LFE272:
 978              		.size	dmaInit, .-dmaInit
 979              		.section	.text.dmaStreamAllocate,"ax",%progbits
 980              		.align	2
 981              		.p2align 4,,15
 982              		.global	dmaStreamAllocate
 983              		.thumb
 984              		.thumb_func
 985              		.type	dmaStreamAllocate, %function
 986              	dmaStreamAllocate:
 987              	.LFB273:
 988              		.loc 1 460 0
 989              		.cfi_startproc
 990              		@ args = 0, pretend = 0, frame = 0
 991              		@ frame_needed = 0, uses_anonymous_args = 0
 992              	.LVL52:
 993 0000 F8B5     		push	{r3, r4, r5, r6, r7, lr}
 994              		.cfi_def_cfa_offset 24
 995              		.cfi_offset 3, -24
 996              		.cfi_offset 4, -20
 997              		.cfi_offset 5, -16
 998              		.cfi_offset 6, -12
 999              		.cfi_offset 7, -8
 1000              		.cfi_offset 14, -4
 1001              		.loc 1 465 0
 1002 0002 1F4F     		ldr	r7, .L152
 1003 0004 467A     		ldrb	r6, [r0, #9]	@ zero_extendqisi2
 1004 0006 3D68     		ldr	r5, [r7]
 1005 0008 0124     		movs	r4, #1
 1006 000a 04FA06FE 		lsl	lr, r4, r6
 1007 000e 1EEA050F 		tst	lr, r5
 1008 0012 31D1     		bne	.L141
 1009              		.loc 1 469 0
 1010 0014 1B4C     		ldr	r4, .L152+4
 1011              		.loc 1 471 0
 1012 0016 4EEA0505 		orr	r5, lr, r5
 1013              		.loc 1 470 0
 1014 001a 04EBC60C 		add	ip, r4, r6, lsl #3
 1015              		.loc 1 474 0
 1016 001e 15F0FF0F 		tst	r5, #255
 1017              		.loc 1 471 0
 1018 0022 3D60     		str	r5, [r7]
 1019              		.loc 1 469 0
 1020 0024 44F83620 		str	r2, [r4, r6, lsl #3]
 1021              		.loc 1 470 0
 1022 0028 CCF80430 		str	r3, [ip, #4]
 1023              		.loc 1 474 0
 1024 002c 04D0     		beq	.L138
 1025              		.loc 1 475 0
 1026 002e 164C     		ldr	r4, .L152+8
ARM GAS  /tmp/ccXBGXmL.s 			page 19


 1027 0030 236B     		ldr	r3, [r4, #48]
 1028              	.LVL53:
 1029 0032 43F40013 		orr	r3, r3, #2097152
 1030 0036 2363     		str	r3, [r4, #48]
 1031              	.L138:
 1032              		.loc 1 476 0
 1033 0038 15F47F4F 		tst	r5, #65280
 1034 003c 16D1     		bne	.L151
 1035              	.L139:
 1036              		.loc 1 480 0
 1037 003e 0568     		ldr	r5, [r0]
 1038 0040 2B68     		ldr	r3, [r5]
 1039 0042 23F01F03 		bic	r3, r3, #31
 1040 0046 2B60     		str	r3, [r5]
 1041              	.L140:
 1042              		.loc 1 480 0 is_stmt 0 discriminator 2
 1043 0048 2B68     		ldr	r3, [r5]
 1044 004a 13F00104 		ands	r4, r3, #1
 1045 004e FBD1     		bne	.L140
 1046              		.loc 1 480 0 discriminator 3
 1047 0050 077A     		ldrb	r7, [r0, #8]	@ zero_extendqisi2
 1048 0052 4668     		ldr	r6, [r0, #4]
 1049 0054 3D23     		movs	r3, #61
 1050 0056 BB40     		lsls	r3, r3, r7
 1051              		.loc 1 482 0 is_stmt 1 discriminator 3
 1052 0058 2127     		movs	r7, #33
 1053              		.loc 1 480 0 discriminator 3
 1054 005a 3360     		str	r3, [r6]
 1055              		.loc 1 481 0 discriminator 3
 1056 005c 2C60     		str	r4, [r5]
 1057              		.loc 1 482 0 discriminator 3
 1058 005e 6F61     		str	r7, [r5, #20]
 1059              		.loc 1 485 0 discriminator 3
 1060 0060 62B1     		cbz	r2, .L142
 1061              		.loc 1 486 0
 1062 0062 807A     		ldrb	r0, [r0, #10]	@ zero_extendqisi2
 1063              	.LVL54:
 1064 0064 FFF7FEFF 		bl	nvicEnableVector
 1065              	.LVL55:
 1066              		.loc 1 488 0
 1067 0068 2046     		mov	r0, r4
 1068 006a F8BD     		pop	{r3, r4, r5, r6, r7, pc}
 1069              	.LVL56:
 1070              	.L151:
 1071              		.loc 1 477 0
 1072 006c 064C     		ldr	r4, .L152+8
 1073 006e 236B     		ldr	r3, [r4, #48]
 1074 0070 43F48003 		orr	r3, r3, #4194304
 1075 0074 2363     		str	r3, [r4, #48]
 1076 0076 E2E7     		b	.L139
 1077              	.LVL57:
 1078              	.L141:
 1079              		.loc 1 466 0
 1080 0078 2046     		mov	r0, r4
 1081              	.LVL58:
 1082 007a F8BD     		pop	{r3, r4, r5, r6, r7, pc}
 1083              	.LVL59:
ARM GAS  /tmp/ccXBGXmL.s 			page 20


 1084              	.L142:
 1085              		.loc 1 488 0
 1086 007c 1046     		mov	r0, r2
 1087              	.LVL60:
 1088              		.loc 1 489 0
 1089 007e F8BD     		pop	{r3, r4, r5, r6, r7, pc}
 1090              	.L153:
 1091              		.align	2
 1092              	.L152:
 1093 0080 00000000 		.word	.LANCHOR1
 1094 0084 00000000 		.word	.LANCHOR0
 1095 0088 00380240 		.word	1073887232
 1096              		.cfi_endproc
 1097              	.LFE273:
 1098              		.size	dmaStreamAllocate, .-dmaStreamAllocate
 1099              		.section	.text.dmaStreamRelease,"ax",%progbits
 1100              		.align	2
 1101              		.p2align 4,,15
 1102              		.global	dmaStreamRelease
 1103              		.thumb
 1104              		.thumb_func
 1105              		.type	dmaStreamRelease, %function
 1106              	dmaStreamRelease:
 1107              	.LFB274:
 1108              		.loc 1 504 0
 1109              		.cfi_startproc
 1110              		@ args = 0, pretend = 0, frame = 0
 1111              		@ frame_needed = 0, uses_anonymous_args = 0
 1112              	.LVL61:
 1113 0000 10B5     		push	{r4, lr}
 1114              		.cfi_def_cfa_offset 8
 1115              		.cfi_offset 4, -8
 1116              		.cfi_offset 14, -4
 1117              		.loc 1 504 0
 1118 0002 0446     		mov	r4, r0
 1119              		.loc 1 513 0
 1120 0004 807A     		ldrb	r0, [r0, #10]	@ zero_extendqisi2
 1121              	.LVL62:
 1122 0006 FFF7FEFF 		bl	nvicDisableVector
 1123              	.LVL63:
 1124              		.loc 1 516 0
 1125 000a 0C49     		ldr	r1, .L158
 1126 000c 607A     		ldrb	r0, [r4, #9]	@ zero_extendqisi2
 1127 000e 0A68     		ldr	r2, [r1]
 1128 0010 0123     		movs	r3, #1
 1129 0012 8340     		lsls	r3, r3, r0
 1130 0014 22EA0303 		bic	r3, r2, r3
 1131              		.loc 1 519 0
 1132 0018 13F0FF0F 		tst	r3, #255
 1133              		.loc 1 516 0
 1134 001c 0B60     		str	r3, [r1]
 1135              		.loc 1 519 0
 1136 001e 04D1     		bne	.L155
 1137              		.loc 1 520 0
 1138 0020 0749     		ldr	r1, .L158+4
 1139 0022 0A6B     		ldr	r2, [r1, #48]
 1140 0024 22F40012 		bic	r2, r2, #2097152
ARM GAS  /tmp/ccXBGXmL.s 			page 21


 1141 0028 0A63     		str	r2, [r1, #48]
 1142              	.L155:
 1143              		.loc 1 521 0
 1144 002a 13F47F4F 		tst	r3, #65280
 1145 002e 04D1     		bne	.L154
 1146              		.loc 1 522 0
 1147 0030 034A     		ldr	r2, .L158+4
 1148 0032 136B     		ldr	r3, [r2, #48]
 1149 0034 23F48003 		bic	r3, r3, #4194304
 1150 0038 1363     		str	r3, [r2, #48]
 1151              	.L154:
 1152 003a 10BD     		pop	{r4, pc}
 1153              	.LVL64:
 1154              	.L159:
 1155              		.align	2
 1156              	.L158:
 1157 003c 00000000 		.word	.LANCHOR1
 1158 0040 00380240 		.word	1073887232
 1159              		.cfi_endproc
 1160              	.LFE274:
 1161              		.size	dmaStreamRelease, .-dmaStreamRelease
 1162              		.global	_stm32_dma_streams
 1163              		.section	.bss.dma_isr_redir,"aw",%nobits
 1164              		.align	2
 1165              		.set	.LANCHOR0,. + 0
 1166              		.type	dma_isr_redir, %object
 1167              		.size	dma_isr_redir, 128
 1168              	dma_isr_redir:
 1169 0000 00000000 		.space	128
 1169      00000000 
 1169      00000000 
 1169      00000000 
 1169      00000000 
 1170              		.section	.rodata._stm32_dma_streams,"a",%progbits
 1171              		.align	2
 1172              		.set	.LANCHOR2,. + 0
 1173              		.type	_stm32_dma_streams, %object
 1174              		.size	_stm32_dma_streams, 192
 1175              	_stm32_dma_streams:
 1176 0000 10600240 		.word	1073897488
 1177 0004 08600240 		.word	1073897480
 1178 0008 00       		.byte	0
 1179 0009 00       		.byte	0
 1180 000a 0B       		.byte	11
 1181 000b 00       		.space	1
 1182 000c 28600240 		.word	1073897512
 1183 0010 08600240 		.word	1073897480
 1184 0014 06       		.byte	6
 1185 0015 01       		.byte	1
 1186 0016 0C       		.byte	12
 1187 0017 00       		.space	1
 1188 0018 40600240 		.word	1073897536
 1189 001c 08600240 		.word	1073897480
 1190 0020 10       		.byte	16
 1191 0021 02       		.byte	2
 1192 0022 0D       		.byte	13
 1193 0023 00       		.space	1
ARM GAS  /tmp/ccXBGXmL.s 			page 22


 1194 0024 58600240 		.word	1073897560
 1195 0028 08600240 		.word	1073897480
 1196 002c 16       		.byte	22
 1197 002d 03       		.byte	3
 1198 002e 0E       		.byte	14
 1199 002f 00       		.space	1
 1200 0030 70600240 		.word	1073897584
 1201 0034 0C600240 		.word	1073897484
 1202 0038 00       		.byte	0
 1203 0039 04       		.byte	4
 1204 003a 0F       		.byte	15
 1205 003b 00       		.space	1
 1206 003c 88600240 		.word	1073897608
 1207 0040 0C600240 		.word	1073897484
 1208 0044 06       		.byte	6
 1209 0045 05       		.byte	5
 1210 0046 10       		.byte	16
 1211 0047 00       		.space	1
 1212 0048 A0600240 		.word	1073897632
 1213 004c 0C600240 		.word	1073897484
 1214 0050 10       		.byte	16
 1215 0051 06       		.byte	6
 1216 0052 11       		.byte	17
 1217 0053 00       		.space	1
 1218 0054 B8600240 		.word	1073897656
 1219 0058 0C600240 		.word	1073897484
 1220 005c 16       		.byte	22
 1221 005d 07       		.byte	7
 1222 005e 2F       		.byte	47
 1223 005f 00       		.space	1
 1224 0060 10640240 		.word	1073898512
 1225 0064 08640240 		.word	1073898504
 1226 0068 00       		.byte	0
 1227 0069 08       		.byte	8
 1228 006a 38       		.byte	56
 1229 006b 00       		.space	1
 1230 006c 28640240 		.word	1073898536
 1231 0070 08640240 		.word	1073898504
 1232 0074 06       		.byte	6
 1233 0075 09       		.byte	9
 1234 0076 39       		.byte	57
 1235 0077 00       		.space	1
 1236 0078 40640240 		.word	1073898560
 1237 007c 08640240 		.word	1073898504
 1238 0080 10       		.byte	16
 1239 0081 0A       		.byte	10
 1240 0082 3A       		.byte	58
 1241 0083 00       		.space	1
 1242 0084 58640240 		.word	1073898584
 1243 0088 08640240 		.word	1073898504
 1244 008c 16       		.byte	22
 1245 008d 0B       		.byte	11
 1246 008e 3B       		.byte	59
 1247 008f 00       		.space	1
 1248 0090 70640240 		.word	1073898608
 1249 0094 0C640240 		.word	1073898508
 1250 0098 00       		.byte	0
ARM GAS  /tmp/ccXBGXmL.s 			page 23


 1251 0099 0C       		.byte	12
 1252 009a 3C       		.byte	60
 1253 009b 00       		.space	1
 1254 009c 88640240 		.word	1073898632
 1255 00a0 0C640240 		.word	1073898508
 1256 00a4 06       		.byte	6
 1257 00a5 0D       		.byte	13
 1258 00a6 44       		.byte	68
 1259 00a7 00       		.space	1
 1260 00a8 A0640240 		.word	1073898656
 1261 00ac 0C640240 		.word	1073898508
 1262 00b0 10       		.byte	16
 1263 00b1 0E       		.byte	14
 1264 00b2 45       		.byte	69
 1265 00b3 00       		.space	1
 1266 00b4 B8640240 		.word	1073898680
 1267 00b8 0C640240 		.word	1073898508
 1268 00bc 16       		.byte	22
 1269 00bd 0F       		.byte	15
 1270 00be 46       		.byte	70
 1271 00bf 00       		.space	1
 1272              		.section	.bss.dma_streams_mask,"aw",%nobits
 1273              		.align	2
 1274              		.set	.LANCHOR1,. + 0
 1275              		.type	dma_streams_mask, %object
 1276              		.size	dma_streams_mask, 4
 1277              	dma_streams_mask:
 1278 0000 00000000 		.space	4
 1279              		.text
 1280              	.Letext0:
 1281              		.file 2 "/usr/lib/gcc/arm-none-eabi/4.9.3/include/stddef.h"
 1282              		.file 3 "/usr/arm-none-eabi/include/machine/_default_types.h"
 1283              		.file 4 "/usr/arm-none-eabi/include/sys/_stdint.h"
 1284              		.file 5 "ChibiOS_3.0.2/os/rt/ports/ARMCMx/compilers/GCC/chtypes.h"
 1285              		.file 6 "ChibiOS_3.0.2/os/rt/include/chsystypes.h"
 1286              		.file 7 "ChibiOS_3.0.2/os/rt/include/chschd.h"
 1287              		.file 8 "ChibiOS_3.0.2/os/ext/CMSIS/ST/stm32f407xx.h"
 1288              		.file 9 "ChibiOS_3.0.2/os/rt/ports/ARMCMx/chcore.h"
 1289              		.file 10 "ChibiOS_3.0.2/os/rt/ports/ARMCMx/chcore_v7m.h"
 1290              		.file 11 "ChibiOS_3.0.2/os/rt/include/chtm.h"
 1291              		.file 12 "ChibiOS_3.0.2/os/rt/include/chsem.h"
 1292              		.file 13 "ChibiOS_3.0.2/os/rt/include/chmtx.h"
 1293              		.file 14 "ChibiOS_3.0.2/os/hal/ports/STM32/STM32F4xx/stm32_dma.h"
 1294              		.file 15 "ChibiOS_3.0.2/os/ext/CMSIS/include/core_cm4.h"
 1295              		.file 16 "ChibiOS_3.0.2/os/hal/ports/common/ARMCMx/nvic.h"