ARM GAS  /tmp/ccljeNQA.s 			page 1


   1              		.syntax unified
   2              		.cpu cortex-m4
   3              		.eabi_attribute 27, 1
   4              		.eabi_attribute 28, 1
   5              		.fpu fpv4-sp-d16
   6              		.eabi_attribute 20, 1
   7              		.eabi_attribute 21, 1
   8              		.eabi_attribute 23, 3
   9              		.eabi_attribute 24, 1
  10              		.eabi_attribute 25, 1
  11              		.eabi_attribute 26, 1
  12              		.eabi_attribute 30, 2
  13              		.eabi_attribute 34, 1
  14              		.eabi_attribute 18, 4
  15              		.thumb
  16              		.file	"stm32_hw.c"
  17              		.text
  18              	.Ltext0:
  19              		.cfi_sections	.debug_frame
  20              		.section	.text.halAssyInit,"ax",%progbits
  21              		.align	2
  22              		.p2align 4,,15
  23              		.global	halAssyInit
  24              		.thumb
  25              		.thumb_func
  26              		.type	halAssyInit, %function
  27              	halAssyInit:
  28              	.LFB258:
  29              		.file 1 "cc2520/driver/stm32_hw.c"
  30              		.loc 1 78 0
  31              		.cfi_startproc
  32              		@ args = 0, pretend = 0, frame = 0
  33              		@ frame_needed = 0, uses_anonymous_args = 0
  34 0000 38B5     		push	{r3, r4, r5, lr}
  35              		.cfi_def_cfa_offset 16
  36              		.cfi_offset 3, -16
  37              		.cfi_offset 4, -12
  38              		.cfi_offset 5, -8
  39              		.cfi_offset 14, -4
  40              		.loc 1 80 0
  41 0002 244D     		ldr	r5, .L3
  42              		.loc 1 79 0
  43 0004 2448     		ldr	r0, .L3+4
  44              		.loc 1 82 0
  45 0006 254C     		ldr	r4, .L3+8
  46              		.loc 1 79 0
  47 0008 8021     		movs	r1, #128
  48 000a 0022     		movs	r2, #0
  49 000c FFF7FEFF 		bl	_pal_lld_setgroupmode
  50              	.LVL0:
  51              		.loc 1 80 0
  52 0010 2846     		mov	r0, r5
  53 0012 1021     		movs	r1, #16
  54 0014 0022     		movs	r2, #0
  55 0016 FFF7FEFF 		bl	_pal_lld_setgroupmode
  56              	.LVL1:
  57              		.loc 1 81 0
ARM GAS  /tmp/ccljeNQA.s 			page 2


  58 001a 2846     		mov	r0, r5
  59 001c 2021     		movs	r1, #32
  60 001e 0022     		movs	r2, #0
  61 0020 FFF7FEFF 		bl	_pal_lld_setgroupmode
  62              	.LVL2:
  63              		.loc 1 82 0
  64 0024 2046     		mov	r0, r4
  65 0026 0121     		movs	r1, #1
  66 0028 0022     		movs	r2, #0
  67 002a FFF7FEFF 		bl	_pal_lld_setgroupmode
  68              	.LVL3:
  69              		.loc 1 83 0
  70 002e 2046     		mov	r0, r4
  71 0030 0221     		movs	r1, #2
  72 0032 0022     		movs	r2, #0
  73 0034 FFF7FEFF 		bl	_pal_lld_setgroupmode
  74              	.LVL4:
  75              		.loc 1 84 0
  76 0038 2046     		mov	r0, r4
  77 003a 4FF48061 		mov	r1, #1024
  78 003e 0022     		movs	r2, #0
  79 0040 FFF7FEFF 		bl	_pal_lld_setgroupmode
  80              	.LVL5:
  81              	.LBB8:
  82              	.LBB9:
  83              		.loc 1 40 0
  84 0044 4FF48051 		mov	r1, #4096
  85 0048 2183     		strh	r1, [r4, #24]	@ movhi
  86              		.loc 1 41 0
  87 004a 2046     		mov	r0, r4
  88 004c 1922     		movs	r2, #25
  89 004e FFF7FEFF 		bl	_pal_lld_setgroupmode
  90              	.LVL6:
  91              		.loc 1 42 0
  92 0052 2046     		mov	r0, r4
  93 0054 4FF40041 		mov	r1, #32768
  94 0058 0022     		movs	r2, #0
  95 005a FFF7FEFF 		bl	_pal_lld_setgroupmode
  96              	.LVL7:
  97 005e 2046     		mov	r0, r4
  98 0060 4FF40051 		mov	r1, #8192
  99 0064 0122     		movs	r2, #1
 100 0066 FFF7FEFF 		bl	_pal_lld_setgroupmode
 101              	.LVL8:
 102 006a 2046     		mov	r0, r4
 103 006c 4FF48041 		mov	r1, #16384
 104 0070 0122     		movs	r2, #1
 105 0072 FFF7FEFF 		bl	_pal_lld_setgroupmode
 106              	.LVL9:
 107 0076 4FF40052 		mov	r2, #8192
 108              	.LBE9:
 109              	.LBE8:
 110              	.LBB11:
 111              	.LBB12:
 112              		.loc 1 63 0
 113 007a 4FF00063 		mov	r3, #134217728
 114              	.LBE12:
ARM GAS  /tmp/ccljeNQA.s 			page 3


 115              	.LBE11:
 116              	.LBB15:
 117              	.LBB10:
 118              		.loc 1 42 0
 119 007e 6283     		strh	r2, [r4, #26]	@ movhi
 120              	.LBE10:
 121              	.LBE15:
 122              	.LBB16:
 123              	.LBB13:
 124              		.loc 1 63 0
 125 0080 A361     		str	r3, [r4, #24]
 126              		.loc 1 64 0
 127 0082 2046     		mov	r0, r4
 128 0084 4FF40061 		mov	r1, #2048
 129 0088 1922     		movs	r2, #25
 130              	.LBE13:
 131              	.LBE16:
 132              		.loc 1 91 0
 133 008a BDE83840 		pop	{r3, r4, r5, lr}
 134              		.cfi_restore 14
 135              		.cfi_restore 5
 136              		.cfi_restore 4
 137              		.cfi_restore 3
 138              		.cfi_def_cfa_offset 0
 139              	.LBB17:
 140              	.LBB14:
 141              		.loc 1 64 0
 142 008e FFF7FEBF 		b	_pal_lld_setgroupmode
 143              	.LVL10:
 144              	.L4:
 145 0092 00BF     		.align	2
 146              	.L3:
 147 0094 00080240 		.word	1073874944
 148 0098 00000240 		.word	1073872896
 149 009c 00040240 		.word	1073873920
 150              	.LBE14:
 151              	.LBE17:
 152              		.cfi_endproc
 153              	.LFE258:
 154              		.size	halAssyInit, .-halAssyInit
 155              		.section	.text.halSpiExc,"ax",%progbits
 156              		.align	2
 157              		.p2align 4,,15
 158              		.global	halSpiExc
 159              		.thumb
 160              		.thumb_func
 161              		.type	halSpiExc, %function
 162              	halSpiExc:
 163              	.LFB259:
 164              		.loc 1 93 0
 165              		.cfi_startproc
 166              		@ args = 0, pretend = 0, frame = 16
 167              		@ frame_needed = 0, uses_anonymous_args = 0
 168              	.LVL11:
 169 0000 00B5     		push	{lr}
 170              		.cfi_def_cfa_offset 4
 171              		.cfi_offset 14, -4
ARM GAS  /tmp/ccljeNQA.s 			page 4


 172 0002 85B0     		sub	sp, sp, #20
 173              		.cfi_def_cfa_offset 24
 174              		.loc 1 96 0
 175 0004 0DF10701 		add	r1, sp, #7
 176              		.loc 1 93 0
 177 0008 8DF80700 		strb	r0, [sp, #7]
 178              		.loc 1 96 0
 179 000c 0122     		movs	r2, #1
 180 000e 0DF10F00 		add	r0, sp, #15
 181              	.LVL12:
 182 0012 FFF7FEFF 		bl	spi_sw_transfer
 183              	.LVL13:
 184              		.loc 1 101 0
 185 0016 9DF80F00 		ldrb	r0, [sp, #15]	@ zero_extendqisi2
 186 001a 05B0     		add	sp, sp, #20
 187              		.cfi_def_cfa_offset 4
 188              		@ sp needed
 189 001c 5DF804FB 		ldr	pc, [sp], #4
 190              		.cfi_endproc
 191              	.LFE259:
 192              		.size	halSpiExc, .-halSpiExc
 193              		.text
 194              	.Letext0:
 195              		.file 2 "/usr/arm-none-eabi/include/machine/_default_types.h"
 196              		.file 3 "/usr/arm-none-eabi/include/sys/_stdint.h"
 197              		.file 4 "ChibiOS_3.0.2/os/rt/ports/ARMCMx/compilers/GCC/chtypes.h"
 198              		.file 5 "ChibiOS_3.0.2/os/rt/include/chsystypes.h"
 199              		.file 6 "ChibiOS_3.0.2/os/rt/include/chschd.h"
 200              		.file 7 "ChibiOS_3.0.2/os/ext/CMSIS/ST/stm32f407xx.h"
 201              		.file 8 "ChibiOS_3.0.2/os/rt/ports/ARMCMx/chcore.h"
 202              		.file 9 "ChibiOS_3.0.2/os/rt/ports/ARMCMx/chcore_v7m.h"
 203              		.file 10 "ChibiOS_3.0.2/os/rt/include/chtm.h"
 204              		.file 11 "ChibiOS_3.0.2/os/rt/include/chsem.h"
 205              		.file 12 "ChibiOS_3.0.2/os/rt/include/chmtx.h"
 206              		.file 13 "ChibiOS_3.0.2/os/hal/ports/STM32/STM32F4xx/stm32_dma.h"
 207              		.file 14 "ChibiOS_3.0.2/os/hal/ports/STM32/LLD/GPIOv2/pal_lld.h"
 208              		.file 15 "ChibiOS_3.0.2/os/hal/include/spi.h"
 209              		.file 16 "ChibiOS_3.0.2/os/hal/ports/STM32/LLD/SPIv1/spi_lld.h"
 210              		.file 17 "cc2520/driver/spi_sw.h"
 211              		.file 18 "ChibiOS_3.0.2/os/ext/CMSIS/include/core_cm4.h"
 212              		.section	.debug_info,"",%progbits
 213              	.Ldebug_info0:
 214 0000 180D0000 		.4byte	0xd18
 215 0004 0400     		.2byte	0x4
 216 0006 00000000 		.4byte	.Ldebug_abbrev0
 217 000a 04       		.byte	0x4
 218 000b 01       		.uleb128 0x1
 219 000c 36050000 		.4byte	.LASF162
 220 0010 01       		.byte	0x1
 221 0011 FF010000 		.4byte	.LASF163
 222 0015 FD030000 		.4byte	.LASF164
 223 0019 38000000 		.4byte	.Ldebug_ranges0+0x38
 224 001d 00000000 		.4byte	0
 225 0021 00000000 		.4byte	.Ldebug_line0
 226 0025 02       		.uleb128 0x2
 227 0026 04       		.byte	0x4
 228 0027 05       		.byte	0x5
ARM GAS  /tmp/ccljeNQA.s 			page 5


 229 0028 696E7400 		.ascii	"int\000"
 230 002c 03       		.uleb128 0x3
 231 002d 04       		.byte	0x4
 232 002e 07       		.byte	0x7
 233 002f 1E020000 		.4byte	.LASF0
 234 0033 03       		.uleb128 0x3
 235 0034 01       		.byte	0x1
 236 0035 06       		.byte	0x6
 237 0036 3F000000 		.4byte	.LASF1
 238 003a 04       		.uleb128 0x4
 239 003b 4B000000 		.4byte	.LASF4
 240 003f 02       		.byte	0x2
 241 0040 1D       		.byte	0x1d
 242 0041 45000000 		.4byte	0x45
 243 0045 03       		.uleb128 0x3
 244 0046 01       		.byte	0x1
 245 0047 08       		.byte	0x8
 246 0048 52040000 		.4byte	.LASF2
 247 004c 03       		.uleb128 0x3
 248 004d 02       		.byte	0x2
 249 004e 05       		.byte	0x5
 250 004f 6A040000 		.4byte	.LASF3
 251 0053 04       		.uleb128 0x4
 252 0054 2B050000 		.4byte	.LASF5
 253 0058 02       		.byte	0x2
 254 0059 2B       		.byte	0x2b
 255 005a 5E000000 		.4byte	0x5e
 256 005e 03       		.uleb128 0x3
 257 005f 02       		.byte	0x2
 258 0060 07       		.byte	0x7
 259 0061 70020000 		.4byte	.LASF6
 260 0065 04       		.uleb128 0x4
 261 0066 C8020000 		.4byte	.LASF7
 262 006a 02       		.byte	0x2
 263 006b 3F       		.byte	0x3f
 264 006c 70000000 		.4byte	0x70
 265 0070 03       		.uleb128 0x3
 266 0071 04       		.byte	0x4
 267 0072 05       		.byte	0x5
 268 0073 69010000 		.4byte	.LASF8
 269 0077 04       		.uleb128 0x4
 270 0078 8A060000 		.4byte	.LASF9
 271 007c 02       		.byte	0x2
 272 007d 41       		.byte	0x41
 273 007e 82000000 		.4byte	0x82
 274 0082 03       		.uleb128 0x3
 275 0083 04       		.byte	0x4
 276 0084 07       		.byte	0x7
 277 0085 E8040000 		.4byte	.LASF10
 278 0089 03       		.uleb128 0x3
 279 008a 08       		.byte	0x8
 280 008b 05       		.byte	0x5
 281 008c 1C010000 		.4byte	.LASF11
 282 0090 04       		.uleb128 0x4
 283 0091 A8030000 		.4byte	.LASF12
 284 0095 02       		.byte	0x2
 285 0096 5B       		.byte	0x5b
ARM GAS  /tmp/ccljeNQA.s 			page 6


 286 0097 9B000000 		.4byte	0x9b
 287 009b 03       		.uleb128 0x3
 288 009c 08       		.byte	0x8
 289 009d 07       		.byte	0x7
 290 009e 8F000000 		.4byte	.LASF13
 291 00a2 04       		.uleb128 0x4
 292 00a3 6E070000 		.4byte	.LASF14
 293 00a7 03       		.byte	0x3
 294 00a8 14       		.byte	0x14
 295 00a9 3A000000 		.4byte	0x3a
 296 00ad 04       		.uleb128 0x4
 297 00ae 33020000 		.4byte	.LASF15
 298 00b2 03       		.byte	0x3
 299 00b3 1A       		.byte	0x1a
 300 00b4 53000000 		.4byte	0x53
 301 00b8 04       		.uleb128 0x4
 302 00b9 4A040000 		.4byte	.LASF16
 303 00bd 03       		.byte	0x3
 304 00be 1F       		.byte	0x1f
 305 00bf 65000000 		.4byte	0x65
 306 00c3 04       		.uleb128 0x4
 307 00c4 C0040000 		.4byte	.LASF17
 308 00c8 03       		.byte	0x3
 309 00c9 20       		.byte	0x20
 310 00ca 77000000 		.4byte	0x77
 311 00ce 04       		.uleb128 0x4
 312 00cf 2F000000 		.4byte	.LASF18
 313 00d3 03       		.byte	0x3
 314 00d4 26       		.byte	0x26
 315 00d5 90000000 		.4byte	0x90
 316 00d9 05       		.uleb128 0x5
 317 00da B8000000 		.4byte	0xb8
 318 00de 05       		.uleb128 0x5
 319 00df C3000000 		.4byte	0xc3
 320 00e3 04       		.uleb128 0x4
 321 00e4 FF060000 		.4byte	.LASF19
 322 00e8 04       		.byte	0x4
 323 00e9 45       		.byte	0x45
 324 00ea C3000000 		.4byte	0xc3
 325 00ee 04       		.uleb128 0x4
 326 00ef 9F020000 		.4byte	.LASF20
 327 00f3 04       		.byte	0x4
 328 00f4 48       		.byte	0x48
 329 00f5 A2000000 		.4byte	0xa2
 330 00f9 04       		.uleb128 0x4
 331 00fa 72010000 		.4byte	.LASF21
 332 00fe 04       		.byte	0x4
 333 00ff 49       		.byte	0x49
 334 0100 A2000000 		.4byte	0xa2
 335 0104 04       		.uleb128 0x4
 336 0105 C3030000 		.4byte	.LASF22
 337 0109 04       		.byte	0x4
 338 010a 4A       		.byte	0x4a
 339 010b A2000000 		.4byte	0xa2
 340 010f 04       		.uleb128 0x4
 341 0110 4F010000 		.4byte	.LASF23
 342 0114 04       		.byte	0x4
ARM GAS  /tmp/ccljeNQA.s 			page 7


 343 0115 4B       		.byte	0x4b
 344 0116 A2000000 		.4byte	0xa2
 345 011a 04       		.uleb128 0x4
 346 011b F5030000 		.4byte	.LASF24
 347 011f 04       		.byte	0x4
 348 0120 4C       		.byte	0x4c
 349 0121 C3000000 		.4byte	0xc3
 350 0125 04       		.uleb128 0x4
 351 0126 8D020000 		.4byte	.LASF25
 352 012a 04       		.byte	0x4
 353 012b 4D       		.byte	0x4d
 354 012c B8000000 		.4byte	0xb8
 355 0130 04       		.uleb128 0x4
 356 0131 BC020000 		.4byte	.LASF26
 357 0135 04       		.byte	0x4
 358 0136 4F       		.byte	0x4f
 359 0137 C3000000 		.4byte	0xc3
 360 013b 04       		.uleb128 0x4
 361 013c 18020000 		.4byte	.LASF27
 362 0140 04       		.byte	0x4
 363 0141 51       		.byte	0x51
 364 0142 B8000000 		.4byte	0xb8
 365 0146 04       		.uleb128 0x4
 366 0147 6C060000 		.4byte	.LASF28
 367 014b 05       		.byte	0x5
 368 014c 33       		.byte	0x33
 369 014d C3000000 		.4byte	0xc3
 370 0151 04       		.uleb128 0x4
 371 0152 58070000 		.4byte	.LASF29
 372 0156 05       		.byte	0x5
 373 0157 3F       		.byte	0x3f
 374 0158 5C010000 		.4byte	0x15c
 375 015c 06       		.uleb128 0x6
 376 015d 83020000 		.4byte	.LASF51
 377 0161 48       		.byte	0x48
 378 0162 06       		.byte	0x6
 379 0163 C2       		.byte	0xc2
 380 0164 61020000 		.4byte	0x261
 381 0168 07       		.uleb128 0x7
 382 0169 94040000 		.4byte	.LASF30
 383 016d 06       		.byte	0x6
 384 016e C3       		.byte	0xc3
 385 016f 6C020000 		.4byte	0x26c
 386 0173 00       		.byte	0
 387 0174 07       		.uleb128 0x7
 388 0175 DB030000 		.4byte	.LASF31
 389 0179 06       		.byte	0x6
 390 017a C5       		.byte	0xc5
 391 017b 6C020000 		.4byte	0x26c
 392 017f 04       		.byte	0x4
 393 0180 07       		.uleb128 0x7
 394 0181 0F010000 		.4byte	.LASF32
 395 0185 06       		.byte	0x6
 396 0186 C7       		.byte	0xc7
 397 0187 1A010000 		.4byte	0x11a
 398 018b 08       		.byte	0x8
 399 018c 07       		.uleb128 0x7
ARM GAS  /tmp/ccljeNQA.s 			page 8


 400 018d B0070000 		.4byte	.LASF33
 401 0191 06       		.byte	0x6
 402 0192 C8       		.byte	0xc8
 403 0193 88050000 		.4byte	0x588
 404 0197 0C       		.byte	0xc
 405 0198 07       		.uleb128 0x7
 406 0199 7B010000 		.4byte	.LASF34
 407 019d 06       		.byte	0x6
 408 019e CA       		.byte	0xca
 409 019f 6C020000 		.4byte	0x26c
 410 01a3 10       		.byte	0x10
 411 01a4 07       		.uleb128 0x7
 412 01a5 61030000 		.4byte	.LASF35
 413 01a9 06       		.byte	0x6
 414 01aa CB       		.byte	0xcb
 415 01ab 6C020000 		.4byte	0x26c
 416 01af 14       		.byte	0x14
 417 01b0 07       		.uleb128 0x7
 418 01b1 7D070000 		.4byte	.LASF36
 419 01b5 06       		.byte	0x6
 420 01b6 D2       		.byte	0xd2
 421 01b7 CD070000 		.4byte	0x7cd
 422 01bb 18       		.byte	0x18
 423 01bc 07       		.uleb128 0x7
 424 01bd 74040000 		.4byte	.LASF37
 425 01c1 06       		.byte	0x6
 426 01c2 DD       		.byte	0xdd
 427 01c3 F9000000 		.4byte	0xf9
 428 01c7 1C       		.byte	0x1c
 429 01c8 07       		.uleb128 0x7
 430 01c9 9B040000 		.4byte	.LASF38
 431 01cd 06       		.byte	0x6
 432 01ce E1       		.byte	0xe1
 433 01cf EE000000 		.4byte	0xee
 434 01d3 1D       		.byte	0x1d
 435 01d4 07       		.uleb128 0x7
 436 01d5 41070000 		.4byte	.LASF39
 437 01d9 06       		.byte	0x6
 438 01da E6       		.byte	0xe6
 439 01db 04010000 		.4byte	0x104
 440 01df 1E       		.byte	0x1e
 441 01e0 07       		.uleb128 0x7
 442 01e1 7C040000 		.4byte	.LASF40
 443 01e5 06       		.byte	0x6
 444 01e6 EC       		.byte	0xec
 445 01e7 0F010000 		.4byte	0x10f
 446 01eb 1F       		.byte	0x1f
 447 01ec 07       		.uleb128 0x7
 448 01ed 3C020000 		.4byte	.LASF41
 449 01f1 06       		.byte	0x6
 450 01f2 F3       		.byte	0xf3
 451 01f3 DF070000 		.4byte	0x7df
 452 01f7 20       		.byte	0x20
 453 01f8 08       		.uleb128 0x8
 454 01f9 705F7500 		.ascii	"p_u\000"
 455 01fd 06       		.byte	0x6
 456 01fe 3101     		.2byte	0x131
ARM GAS  /tmp/ccljeNQA.s 			page 9


 457 0200 08070000 		.4byte	0x708
 458 0204 24       		.byte	0x24
 459 0205 09       		.uleb128 0x9
 460 0206 F4020000 		.4byte	.LASF42
 461 020a 06       		.byte	0x6
 462 020b 3601     		.2byte	0x136
 463 020d 72020000 		.4byte	0x272
 464 0211 28       		.byte	0x28
 465 0212 09       		.uleb128 0x9
 466 0213 53020000 		.4byte	.LASF43
 467 0217 06       		.byte	0x6
 468 0218 3C01     		.2byte	0x13c
 469 021a 96020000 		.4byte	0x296
 470 021e 2C       		.byte	0x2c
 471 021f 09       		.uleb128 0x9
 472 0220 99070000 		.4byte	.LASF44
 473 0224 06       		.byte	0x6
 474 0225 4001     		.2byte	0x140
 475 0227 25010000 		.4byte	0x125
 476 022b 34       		.byte	0x34
 477 022c 09       		.uleb128 0x9
 478 022d B0040000 		.4byte	.LASF45
 479 0231 06       		.byte	0x6
 480 0232 4601     		.2byte	0x146
 481 0234 30010000 		.4byte	0x130
 482 0238 38       		.byte	0x38
 483 0239 09       		.uleb128 0x9
 484 023a 60040000 		.4byte	.LASF46
 485 023e 06       		.byte	0x6
 486 023f 4D01     		.2byte	0x14d
 487 0241 C7070000 		.4byte	0x7c7
 488 0245 3C       		.byte	0x3c
 489 0246 09       		.uleb128 0x9
 490 0247 76060000 		.4byte	.LASF47
 491 024b 06       		.byte	0x6
 492 024c 5101     		.2byte	0x151
 493 024e 1A010000 		.4byte	0x11a
 494 0252 40       		.byte	0x40
 495 0253 09       		.uleb128 0x9
 496 0254 AA010000 		.4byte	.LASF48
 497 0258 06       		.byte	0x6
 498 0259 5801     		.2byte	0x158
 499 025b 49030000 		.4byte	0x349
 500 025f 44       		.byte	0x44
 501 0260 00       		.byte	0
 502 0261 04       		.uleb128 0x4
 503 0262 0D030000 		.4byte	.LASF49
 504 0266 05       		.byte	0x5
 505 0267 44       		.byte	0x44
 506 0268 6C020000 		.4byte	0x26c
 507 026c 0A       		.uleb128 0xa
 508 026d 04       		.byte	0x4
 509 026e 51010000 		.4byte	0x151
 510 0272 04       		.uleb128 0x4
 511 0273 DD020000 		.4byte	.LASF50
 512 0277 05       		.byte	0x5
 513 0278 49       		.byte	0x49
ARM GAS  /tmp/ccljeNQA.s 			page 10


 514 0279 7D020000 		.4byte	0x27d
 515 027d 06       		.uleb128 0x6
 516 027e D8040000 		.4byte	.LASF52
 517 0282 04       		.byte	0x4
 518 0283 06       		.byte	0x6
 519 0284 B0       		.byte	0xb0
 520 0285 96020000 		.4byte	0x296
 521 0289 07       		.uleb128 0x7
 522 028a 94040000 		.4byte	.LASF30
 523 028e 06       		.byte	0x6
 524 028f B1       		.byte	0xb1
 525 0290 6C020000 		.4byte	0x26c
 526 0294 00       		.byte	0
 527 0295 00       		.byte	0
 528 0296 04       		.uleb128 0x4
 529 0297 28070000 		.4byte	.LASF53
 530 029b 05       		.byte	0x5
 531 029c 50       		.byte	0x50
 532 029d A1020000 		.4byte	0x2a1
 533 02a1 06       		.uleb128 0x6
 534 02a2 FE000000 		.4byte	.LASF54
 535 02a6 08       		.byte	0x8
 536 02a7 06       		.byte	0x6
 537 02a8 B7       		.byte	0xb7
 538 02a9 C6020000 		.4byte	0x2c6
 539 02ad 07       		.uleb128 0x7
 540 02ae 94040000 		.4byte	.LASF30
 541 02b2 06       		.byte	0x6
 542 02b3 B8       		.byte	0xb8
 543 02b4 6C020000 		.4byte	0x26c
 544 02b8 00       		.byte	0
 545 02b9 07       		.uleb128 0x7
 546 02ba DB030000 		.4byte	.LASF31
 547 02be 06       		.byte	0x6
 548 02bf B9       		.byte	0xb9
 549 02c0 6C020000 		.4byte	0x26c
 550 02c4 04       		.byte	0x4
 551 02c5 00       		.byte	0
 552 02c6 04       		.uleb128 0x4
 553 02c7 16000000 		.4byte	.LASF55
 554 02cb 05       		.byte	0x5
 555 02cc 57       		.byte	0x57
 556 02cd D1020000 		.4byte	0x2d1
 557 02d1 0B       		.uleb128 0xb
 558 02d2 AE020000 		.4byte	.LASF56
 559 02d6 1C       		.byte	0x1c
 560 02d7 06       		.byte	0x6
 561 02d8 9001     		.2byte	0x190
 562 02da 2D030000 		.4byte	0x32d
 563 02de 09       		.uleb128 0x9
 564 02df D0040000 		.4byte	.LASF57
 565 02e3 06       		.byte	0x6
 566 02e4 9101     		.2byte	0x191
 567 02e6 96020000 		.4byte	0x296
 568 02ea 00       		.byte	0
 569 02eb 09       		.uleb128 0x9
 570 02ec 86040000 		.4byte	.LASF58
ARM GAS  /tmp/ccljeNQA.s 			page 11


 571 02f0 06       		.byte	0x6
 572 02f1 9201     		.2byte	0x192
 573 02f3 1A010000 		.4byte	0x11a
 574 02f7 08       		.byte	0x8
 575 02f8 09       		.uleb128 0x9
 576 02f9 69030000 		.4byte	.LASF59
 577 02fd 06       		.byte	0x6
 578 02fe 9401     		.2byte	0x194
 579 0300 88050000 		.4byte	0x588
 580 0304 0C       		.byte	0xc
 581 0305 09       		.uleb128 0x9
 582 0306 A2010000 		.4byte	.LASF60
 583 030a 06       		.byte	0x6
 584 030b 9701     		.2byte	0x197
 585 030d 6C020000 		.4byte	0x26c
 586 0311 10       		.byte	0x10
 587 0312 09       		.uleb128 0x9
 588 0313 A0030000 		.4byte	.LASF61
 589 0317 06       		.byte	0x6
 590 0318 9801     		.2byte	0x198
 591 031a 6C020000 		.4byte	0x26c
 592 031e 14       		.byte	0x14
 593 031f 09       		.uleb128 0x9
 594 0320 96030000 		.4byte	.LASF62
 595 0324 06       		.byte	0x6
 596 0325 9B01     		.2byte	0x19b
 597 0327 6C020000 		.4byte	0x26c
 598 032b 18       		.byte	0x18
 599 032c 00       		.byte	0
 600 032d 04       		.uleb128 0x4
 601 032e 81060000 		.4byte	.LASF63
 602 0332 05       		.byte	0x5
 603 0333 5C       		.byte	0x5c
 604 0334 38030000 		.4byte	0x338
 605 0338 0A       		.uleb128 0xa
 606 0339 04       		.byte	0x4
 607 033a 3E030000 		.4byte	0x33e
 608 033e 0C       		.uleb128 0xc
 609 033f 49030000 		.4byte	0x349
 610 0343 0D       		.uleb128 0xd
 611 0344 49030000 		.4byte	0x349
 612 0348 00       		.byte	0
 613 0349 0E       		.uleb128 0xe
 614 034a 04       		.byte	0x4
 615 034b 04       		.uleb128 0x4
 616 034c CB030000 		.4byte	.LASF64
 617 0350 05       		.byte	0x5
 618 0351 61       		.byte	0x61
 619 0352 56030000 		.4byte	0x356
 620 0356 0B       		.uleb128 0xb
 621 0357 EE060000 		.4byte	.LASF65
 622 035b 14       		.byte	0x14
 623 035c 06       		.byte	0x6
 624 035d 6B01     		.2byte	0x16b
 625 035f A5030000 		.4byte	0x3a5
 626 0363 09       		.uleb128 0x9
 627 0364 2B020000 		.4byte	.LASF66
ARM GAS  /tmp/ccljeNQA.s 			page 12


 628 0368 06       		.byte	0x6
 629 0369 6C01     		.2byte	0x16c
 630 036b E4070000 		.4byte	0x7e4
 631 036f 00       		.byte	0
 632 0370 09       		.uleb128 0x9
 633 0371 BB010000 		.4byte	.LASF67
 634 0375 06       		.byte	0x6
 635 0376 6D01     		.2byte	0x16d
 636 0378 E4070000 		.4byte	0x7e4
 637 037c 04       		.byte	0x4
 638 037d 09       		.uleb128 0x9
 639 037e 4A020000 		.4byte	.LASF68
 640 0382 06       		.byte	0x6
 641 0383 6E01     		.2byte	0x16e
 642 0385 46010000 		.4byte	0x146
 643 0389 08       		.byte	0x8
 644 038a 09       		.uleb128 0x9
 645 038b B6070000 		.4byte	.LASF69
 646 038f 06       		.byte	0x6
 647 0390 6F01     		.2byte	0x16f
 648 0392 2D030000 		.4byte	0x32d
 649 0396 0C       		.byte	0xc
 650 0397 09       		.uleb128 0x9
 651 0398 21070000 		.4byte	.LASF70
 652 039c 06       		.byte	0x6
 653 039d 7101     		.2byte	0x171
 654 039f 49030000 		.4byte	0x349
 655 03a3 10       		.byte	0x10
 656 03a4 00       		.byte	0
 657 03a5 04       		.uleb128 0x4
 658 03a6 DB000000 		.4byte	.LASF71
 659 03aa 05       		.byte	0x5
 660 03ab 66       		.byte	0x66
 661 03ac B0030000 		.4byte	0x3b0
 662 03b0 0B       		.uleb128 0xb
 663 03b1 20030000 		.4byte	.LASF72
 664 03b5 10       		.byte	0x10
 665 03b6 06       		.byte	0x6
 666 03b7 7B01     		.2byte	0x17b
 667 03b9 F2030000 		.4byte	0x3f2
 668 03bd 09       		.uleb128 0x9
 669 03be 2B020000 		.4byte	.LASF66
 670 03c2 06       		.byte	0x6
 671 03c3 7C01     		.2byte	0x17c
 672 03c5 E4070000 		.4byte	0x7e4
 673 03c9 00       		.byte	0
 674 03ca 09       		.uleb128 0x9
 675 03cb BB010000 		.4byte	.LASF67
 676 03cf 06       		.byte	0x6
 677 03d0 7E01     		.2byte	0x17e
 678 03d2 E4070000 		.4byte	0x7e4
 679 03d6 04       		.byte	0x4
 680 03d7 09       		.uleb128 0x9
 681 03d8 4A020000 		.4byte	.LASF68
 682 03dc 06       		.byte	0x6
 683 03dd 8001     		.2byte	0x180
 684 03df 46010000 		.4byte	0x146
ARM GAS  /tmp/ccljeNQA.s 			page 13


 685 03e3 08       		.byte	0x8
 686 03e4 09       		.uleb128 0x9
 687 03e5 84070000 		.4byte	.LASF73
 688 03e9 06       		.byte	0x6
 689 03ea 8201     		.2byte	0x182
 690 03ec DF070000 		.4byte	0x7df
 691 03f0 0C       		.byte	0xc
 692 03f1 00       		.byte	0
 693 03f2 04       		.uleb128 0x4
 694 03f3 6C000000 		.4byte	.LASF74
 695 03f7 05       		.byte	0x5
 696 03f8 6B       		.byte	0x6b
 697 03f9 FD030000 		.4byte	0x3fd
 698 03fd 0B       		.uleb128 0xb
 699 03fe 34040000 		.4byte	.LASF75
 700 0402 04       		.byte	0x4
 701 0403 06       		.byte	0x6
 702 0404 A201     		.2byte	0x1a2
 703 0406 18040000 		.4byte	0x418
 704 040a 09       		.uleb128 0x9
 705 040b A1060000 		.4byte	.LASF76
 706 040f 06       		.byte	0x6
 707 0410 AA01     		.2byte	0x1aa
 708 0412 EA070000 		.4byte	0x7ea
 709 0416 00       		.byte	0
 710 0417 00       		.byte	0
 711 0418 04       		.uleb128 0x4
 712 0419 93020000 		.4byte	.LASF77
 713 041d 05       		.byte	0x5
 714 041e 70       		.byte	0x70
 715 041f 23040000 		.4byte	0x423
 716 0423 0F       		.uleb128 0xf
 717 0424 5F010000 		.4byte	.LASF78
 718 0428 5802     		.2byte	0x258
 719 042a 06       		.byte	0x6
 720 042b C201     		.2byte	0x1c2
 721 042d 7F040000 		.4byte	0x47f
 722 0431 09       		.uleb128 0x9
 723 0432 68070000 		.4byte	.LASF79
 724 0436 06       		.byte	0x6
 725 0437 C601     		.2byte	0x1c6
 726 0439 C6020000 		.4byte	0x2c6
 727 043d 00       		.byte	0
 728 043e 09       		.uleb128 0x9
 729 043f 48010000 		.4byte	.LASF80
 730 0443 06       		.byte	0x6
 731 0444 CA01     		.2byte	0x1ca
 732 0446 A5030000 		.4byte	0x3a5
 733 044a 1C       		.byte	0x1c
 734 044b 08       		.uleb128 0x8
 735 044c 64626700 		.ascii	"dbg\000"
 736 0450 06       		.byte	0x6
 737 0451 CE01     		.2byte	0x1ce
 738 0453 F2030000 		.4byte	0x3f2
 739 0457 2C       		.byte	0x2c
 740 0458 09       		.uleb128 0x9
 741 0459 BF000000 		.4byte	.LASF81
ARM GAS  /tmp/ccljeNQA.s 			page 14


 742 045d 06       		.byte	0x6
 743 045e D201     		.2byte	0x1d2
 744 0460 51010000 		.4byte	0x151
 745 0464 30       		.byte	0x30
 746 0465 08       		.uleb128 0x8
 747 0466 746D00   		.ascii	"tm\000"
 748 0469 06       		.byte	0x6
 749 046a D701     		.2byte	0x1d7
 750 046c FD060000 		.4byte	0x6fd
 751 0470 78       		.byte	0x78
 752 0471 09       		.uleb128 0x9
 753 0472 F0010000 		.4byte	.LASF82
 754 0476 06       		.byte	0x6
 755 0477 E301     		.2byte	0x1e3
 756 0479 EF070000 		.4byte	0x7ef
 757 047d 80       		.byte	0x80
 758 047e 00       		.byte	0
 759 047f 03       		.uleb128 0x3
 760 0480 04       		.byte	0x4
 761 0481 07       		.byte	0x7
 762 0482 04030000 		.4byte	.LASF83
 763 0486 10       		.uleb128 0x10
 764 0487 18       		.byte	0x18
 765 0488 07       		.byte	0x7
 766 0489 6B01     		.2byte	0x16b
 767 048b DD040000 		.4byte	0x4dd
 768 048f 08       		.uleb128 0x8
 769 0490 435200   		.ascii	"CR\000"
 770 0493 07       		.byte	0x7
 771 0494 6D01     		.2byte	0x16d
 772 0496 DE000000 		.4byte	0xde
 773 049a 00       		.byte	0
 774 049b 09       		.uleb128 0x9
 775 049c 9C060000 		.4byte	.LASF84
 776 04a0 07       		.byte	0x7
 777 04a1 6E01     		.2byte	0x16e
 778 04a3 DE000000 		.4byte	0xde
 779 04a7 04       		.byte	0x4
 780 04a8 08       		.uleb128 0x8
 781 04a9 50415200 		.ascii	"PAR\000"
 782 04ad 07       		.byte	0x7
 783 04ae 6F01     		.2byte	0x16f
 784 04b0 DE000000 		.4byte	0xde
 785 04b4 08       		.byte	0x8
 786 04b5 09       		.uleb128 0x9
 787 04b6 23000000 		.4byte	.LASF85
 788 04ba 07       		.byte	0x7
 789 04bb 7001     		.2byte	0x170
 790 04bd DE000000 		.4byte	0xde
 791 04c1 0C       		.byte	0xc
 792 04c2 09       		.uleb128 0x9
 793 04c3 07070000 		.4byte	.LASF86
 794 04c7 07       		.byte	0x7
 795 04c8 7101     		.2byte	0x171
 796 04ca DE000000 		.4byte	0xde
 797 04ce 10       		.byte	0x10
 798 04cf 08       		.uleb128 0x8
ARM GAS  /tmp/ccljeNQA.s 			page 15


 799 04d0 46435200 		.ascii	"FCR\000"
 800 04d4 07       		.byte	0x7
 801 04d5 7201     		.2byte	0x172
 802 04d7 DE000000 		.4byte	0xde
 803 04db 14       		.byte	0x14
 804 04dc 00       		.byte	0
 805 04dd 11       		.uleb128 0x11
 806 04de B2060000 		.4byte	.LASF87
 807 04e2 07       		.byte	0x7
 808 04e3 7301     		.2byte	0x173
 809 04e5 86040000 		.4byte	0x486
 810 04e9 10       		.uleb128 0x10
 811 04ea 24       		.byte	0x24
 812 04eb 07       		.byte	0x7
 813 04ec DB02     		.2byte	0x2db
 814 04ee 66050000 		.4byte	0x566
 815 04f2 08       		.uleb128 0x8
 816 04f3 43523100 		.ascii	"CR1\000"
 817 04f7 07       		.byte	0x7
 818 04f8 DD02     		.2byte	0x2dd
 819 04fa DE000000 		.4byte	0xde
 820 04fe 00       		.byte	0
 821 04ff 08       		.uleb128 0x8
 822 0500 43523200 		.ascii	"CR2\000"
 823 0504 07       		.byte	0x7
 824 0505 DE02     		.2byte	0x2de
 825 0507 DE000000 		.4byte	0xde
 826 050b 04       		.byte	0x4
 827 050c 08       		.uleb128 0x8
 828 050d 535200   		.ascii	"SR\000"
 829 0510 07       		.byte	0x7
 830 0511 DF02     		.2byte	0x2df
 831 0513 DE000000 		.4byte	0xde
 832 0517 08       		.byte	0x8
 833 0518 08       		.uleb128 0x8
 834 0519 445200   		.ascii	"DR\000"
 835 051c 07       		.byte	0x7
 836 051d E002     		.2byte	0x2e0
 837 051f DE000000 		.4byte	0xde
 838 0523 0C       		.byte	0xc
 839 0524 09       		.uleb128 0x9
 840 0525 B8030000 		.4byte	.LASF88
 841 0529 07       		.byte	0x7
 842 052a E102     		.2byte	0x2e1
 843 052c DE000000 		.4byte	0xde
 844 0530 10       		.byte	0x10
 845 0531 09       		.uleb128 0x9
 846 0532 61070000 		.4byte	.LASF89
 847 0536 07       		.byte	0x7
 848 0537 E202     		.2byte	0x2e2
 849 0539 DE000000 		.4byte	0xde
 850 053d 14       		.byte	0x14
 851 053e 09       		.uleb128 0x9
 852 053f A7020000 		.4byte	.LASF90
 853 0543 07       		.byte	0x7
 854 0544 E302     		.2byte	0x2e3
 855 0546 DE000000 		.4byte	0xde
ARM GAS  /tmp/ccljeNQA.s 			page 16


 856 054a 18       		.byte	0x18
 857 054b 09       		.uleb128 0x9
 858 054c 38010000 		.4byte	.LASF91
 859 0550 07       		.byte	0x7
 860 0551 E402     		.2byte	0x2e4
 861 0553 DE000000 		.4byte	0xde
 862 0557 1C       		.byte	0x1c
 863 0558 09       		.uleb128 0x9
 864 0559 FE020000 		.4byte	.LASF92
 865 055d 07       		.byte	0x7
 866 055e E502     		.2byte	0x2e5
 867 0560 DE000000 		.4byte	0xde
 868 0564 20       		.byte	0x20
 869 0565 00       		.byte	0
 870 0566 11       		.uleb128 0x11
 871 0567 FA040000 		.4byte	.LASF93
 872 056b 07       		.byte	0x7
 873 056c E602     		.2byte	0x2e6
 874 056e E9040000 		.4byte	0x4e9
 875 0572 04       		.uleb128 0x4
 876 0573 B2010000 		.4byte	.LASF94
 877 0577 08       		.byte	0x8
 878 0578 65       		.byte	0x65
 879 0579 49030000 		.4byte	0x349
 880 057d 04       		.uleb128 0x4
 881 057e D2020000 		.4byte	.LASF95
 882 0582 08       		.byte	0x8
 883 0583 6D       		.byte	0x6d
 884 0584 CE000000 		.4byte	0xce
 885 0588 06       		.uleb128 0x6
 886 0589 D0060000 		.4byte	.LASF96
 887 058d 04       		.byte	0x4
 888 058e 08       		.byte	0x8
 889 058f 89       		.byte	0x89
 890 0590 A1050000 		.4byte	0x5a1
 891 0594 12       		.uleb128 0x12
 892 0595 72313300 		.ascii	"r13\000"
 893 0599 08       		.byte	0x8
 894 059a 8A       		.byte	0x8a
 895 059b E2060000 		.4byte	0x6e2
 896 059f 00       		.byte	0
 897 05a0 00       		.byte	0
 898 05a1 06       		.uleb128 0x6
 899 05a2 60000000 		.4byte	.LASF97
 900 05a6 64       		.byte	0x64
 901 05a7 09       		.byte	0x9
 902 05a8 F4       		.byte	0xf4
 903 05a9 E2060000 		.4byte	0x6e2
 904 05ad 12       		.uleb128 0x12
 905 05ae 73313600 		.ascii	"s16\000"
 906 05b2 09       		.byte	0x9
 907 05b3 F6       		.byte	0xf6
 908 05b4 72050000 		.4byte	0x572
 909 05b8 00       		.byte	0
 910 05b9 12       		.uleb128 0x12
 911 05ba 73313700 		.ascii	"s17\000"
 912 05be 09       		.byte	0x9
ARM GAS  /tmp/ccljeNQA.s 			page 17


 913 05bf F7       		.byte	0xf7
 914 05c0 72050000 		.4byte	0x572
 915 05c4 04       		.byte	0x4
 916 05c5 12       		.uleb128 0x12
 917 05c6 73313800 		.ascii	"s18\000"
 918 05ca 09       		.byte	0x9
 919 05cb F8       		.byte	0xf8
 920 05cc 72050000 		.4byte	0x572
 921 05d0 08       		.byte	0x8
 922 05d1 12       		.uleb128 0x12
 923 05d2 73313900 		.ascii	"s19\000"
 924 05d6 09       		.byte	0x9
 925 05d7 F9       		.byte	0xf9
 926 05d8 72050000 		.4byte	0x572
 927 05dc 0C       		.byte	0xc
 928 05dd 12       		.uleb128 0x12
 929 05de 73323000 		.ascii	"s20\000"
 930 05e2 09       		.byte	0x9
 931 05e3 FA       		.byte	0xfa
 932 05e4 72050000 		.4byte	0x572
 933 05e8 10       		.byte	0x10
 934 05e9 12       		.uleb128 0x12
 935 05ea 73323100 		.ascii	"s21\000"
 936 05ee 09       		.byte	0x9
 937 05ef FB       		.byte	0xfb
 938 05f0 72050000 		.4byte	0x572
 939 05f4 14       		.byte	0x14
 940 05f5 12       		.uleb128 0x12
 941 05f6 73323200 		.ascii	"s22\000"
 942 05fa 09       		.byte	0x9
 943 05fb FC       		.byte	0xfc
 944 05fc 72050000 		.4byte	0x572
 945 0600 18       		.byte	0x18
 946 0601 12       		.uleb128 0x12
 947 0602 73323300 		.ascii	"s23\000"
 948 0606 09       		.byte	0x9
 949 0607 FD       		.byte	0xfd
 950 0608 72050000 		.4byte	0x572
 951 060c 1C       		.byte	0x1c
 952 060d 12       		.uleb128 0x12
 953 060e 73323400 		.ascii	"s24\000"
 954 0612 09       		.byte	0x9
 955 0613 FE       		.byte	0xfe
 956 0614 72050000 		.4byte	0x572
 957 0618 20       		.byte	0x20
 958 0619 12       		.uleb128 0x12
 959 061a 73323500 		.ascii	"s25\000"
 960 061e 09       		.byte	0x9
 961 061f FF       		.byte	0xff
 962 0620 72050000 		.4byte	0x572
 963 0624 24       		.byte	0x24
 964 0625 08       		.uleb128 0x8
 965 0626 73323600 		.ascii	"s26\000"
 966 062a 09       		.byte	0x9
 967 062b 0001     		.2byte	0x100
 968 062d 72050000 		.4byte	0x572
 969 0631 28       		.byte	0x28
ARM GAS  /tmp/ccljeNQA.s 			page 18


 970 0632 08       		.uleb128 0x8
 971 0633 73323700 		.ascii	"s27\000"
 972 0637 09       		.byte	0x9
 973 0638 0101     		.2byte	0x101
 974 063a 72050000 		.4byte	0x572
 975 063e 2C       		.byte	0x2c
 976 063f 08       		.uleb128 0x8
 977 0640 73323800 		.ascii	"s28\000"
 978 0644 09       		.byte	0x9
 979 0645 0201     		.2byte	0x102
 980 0647 72050000 		.4byte	0x572
 981 064b 30       		.byte	0x30
 982 064c 08       		.uleb128 0x8
 983 064d 73323900 		.ascii	"s29\000"
 984 0651 09       		.byte	0x9
 985 0652 0301     		.2byte	0x103
 986 0654 72050000 		.4byte	0x572
 987 0658 34       		.byte	0x34
 988 0659 08       		.uleb128 0x8
 989 065a 73333000 		.ascii	"s30\000"
 990 065e 09       		.byte	0x9
 991 065f 0401     		.2byte	0x104
 992 0661 72050000 		.4byte	0x572
 993 0665 38       		.byte	0x38
 994 0666 08       		.uleb128 0x8
 995 0667 73333100 		.ascii	"s31\000"
 996 066b 09       		.byte	0x9
 997 066c 0501     		.2byte	0x105
 998 066e 72050000 		.4byte	0x572
 999 0672 3C       		.byte	0x3c
 1000 0673 08       		.uleb128 0x8
 1001 0674 723400   		.ascii	"r4\000"
 1002 0677 09       		.byte	0x9
 1003 0678 0701     		.2byte	0x107
 1004 067a 72050000 		.4byte	0x572
 1005 067e 40       		.byte	0x40
 1006 067f 08       		.uleb128 0x8
 1007 0680 723500   		.ascii	"r5\000"
 1008 0683 09       		.byte	0x9
 1009 0684 0801     		.2byte	0x108
 1010 0686 72050000 		.4byte	0x572
 1011 068a 44       		.byte	0x44
 1012 068b 08       		.uleb128 0x8
 1013 068c 723600   		.ascii	"r6\000"
 1014 068f 09       		.byte	0x9
 1015 0690 0901     		.2byte	0x109
 1016 0692 72050000 		.4byte	0x572
 1017 0696 48       		.byte	0x48
 1018 0697 08       		.uleb128 0x8
 1019 0698 723700   		.ascii	"r7\000"
 1020 069b 09       		.byte	0x9
 1021 069c 0A01     		.2byte	0x10a
 1022 069e 72050000 		.4byte	0x572
 1023 06a2 4C       		.byte	0x4c
 1024 06a3 08       		.uleb128 0x8
 1025 06a4 723800   		.ascii	"r8\000"
 1026 06a7 09       		.byte	0x9
ARM GAS  /tmp/ccljeNQA.s 			page 19


 1027 06a8 0B01     		.2byte	0x10b
 1028 06aa 72050000 		.4byte	0x572
 1029 06ae 50       		.byte	0x50
 1030 06af 08       		.uleb128 0x8
 1031 06b0 723900   		.ascii	"r9\000"
 1032 06b3 09       		.byte	0x9
 1033 06b4 0C01     		.2byte	0x10c
 1034 06b6 72050000 		.4byte	0x572
 1035 06ba 54       		.byte	0x54
 1036 06bb 08       		.uleb128 0x8
 1037 06bc 72313000 		.ascii	"r10\000"
 1038 06c0 09       		.byte	0x9
 1039 06c1 0D01     		.2byte	0x10d
 1040 06c3 72050000 		.4byte	0x572
 1041 06c7 58       		.byte	0x58
 1042 06c8 08       		.uleb128 0x8
 1043 06c9 72313100 		.ascii	"r11\000"
 1044 06cd 09       		.byte	0x9
 1045 06ce 0E01     		.2byte	0x10e
 1046 06d0 72050000 		.4byte	0x572
 1047 06d4 5C       		.byte	0x5c
 1048 06d5 08       		.uleb128 0x8
 1049 06d6 6C7200   		.ascii	"lr\000"
 1050 06d9 09       		.byte	0x9
 1051 06da 0F01     		.2byte	0x10f
 1052 06dc 72050000 		.4byte	0x572
 1053 06e0 60       		.byte	0x60
 1054 06e1 00       		.byte	0
 1055 06e2 0A       		.uleb128 0xa
 1056 06e3 04       		.byte	0x4
 1057 06e4 A1050000 		.4byte	0x5a1
 1058 06e8 13       		.uleb128 0x13
 1059 06e9 04       		.byte	0x4
 1060 06ea 0A       		.byte	0xa
 1061 06eb 38       		.byte	0x38
 1062 06ec FD060000 		.4byte	0x6fd
 1063 06f0 07       		.uleb128 0x7
 1064 06f1 AB060000 		.4byte	.LASF98
 1065 06f5 0A       		.byte	0xa
 1066 06f6 3C       		.byte	0x3c
 1067 06f7 E3000000 		.4byte	0xe3
 1068 06fb 00       		.byte	0
 1069 06fc 00       		.byte	0
 1070 06fd 04       		.uleb128 0x4
 1071 06fe 43030000 		.4byte	.LASF99
 1072 0702 0A       		.byte	0xa
 1073 0703 3D       		.byte	0x3d
 1074 0704 E8060000 		.4byte	0x6e8
 1075 0708 14       		.uleb128 0x14
 1076 0709 04       		.byte	0x4
 1077 070a 06       		.byte	0x6
 1078 070b FA       		.byte	0xfa
 1079 070c 65070000 		.4byte	0x765
 1080 0710 15       		.uleb128 0x15
 1081 0711 28000000 		.4byte	.LASF100
 1082 0715 06       		.byte	0x6
 1083 0716 0101     		.2byte	0x101
ARM GAS  /tmp/ccljeNQA.s 			page 20


 1084 0718 25010000 		.4byte	0x125
 1085 071c 15       		.uleb128 0x15
 1086 071d B6000000 		.4byte	.LASF101
 1087 0721 06       		.byte	0x6
 1088 0722 0801     		.2byte	0x108
 1089 0724 25010000 		.4byte	0x125
 1090 0728 15       		.uleb128 0x15
 1091 0729 76070000 		.4byte	.LASF102
 1092 072d 06       		.byte	0x6
 1093 072e 0F01     		.2byte	0x10f
 1094 0730 49030000 		.4byte	0x349
 1095 0734 15       		.uleb128 0x15
 1096 0735 3D030000 		.4byte	.LASF103
 1097 0739 06       		.byte	0x6
 1098 073a 1601     		.2byte	0x116
 1099 073c 65070000 		.4byte	0x765
 1100 0740 15       		.uleb128 0x15
 1101 0741 43020000 		.4byte	.LASF104
 1102 0745 06       		.byte	0x6
 1103 0746 1E01     		.2byte	0x11e
 1104 0748 90070000 		.4byte	0x790
 1105 074c 15       		.uleb128 0x15
 1106 074d C9040000 		.4byte	.LASF105
 1107 0751 06       		.byte	0x6
 1108 0752 2701     		.2byte	0x127
 1109 0754 C7070000 		.4byte	0x7c7
 1110 0758 15       		.uleb128 0x15
 1111 0759 8D040000 		.4byte	.LASF106
 1112 075d 06       		.byte	0x6
 1113 075e 2F01     		.2byte	0x12f
 1114 0760 30010000 		.4byte	0x130
 1115 0764 00       		.byte	0
 1116 0765 0A       		.uleb128 0xa
 1117 0766 04       		.byte	0x4
 1118 0767 61020000 		.4byte	0x261
 1119 076b 06       		.uleb128 0x6
 1120 076c A3040000 		.4byte	.LASF107
 1121 0770 0C       		.byte	0xc
 1122 0771 0B       		.byte	0xb
 1123 0772 34       		.byte	0x34
 1124 0773 90070000 		.4byte	0x790
 1125 0777 07       		.uleb128 0x7
 1126 0778 EC020000 		.4byte	.LASF108
 1127 077c 0B       		.byte	0xb
 1128 077d 35       		.byte	0x35
 1129 077e 96020000 		.4byte	0x296
 1130 0782 00       		.byte	0
 1131 0783 07       		.uleb128 0x7
 1132 0784 6A020000 		.4byte	.LASF109
 1133 0788 0B       		.byte	0xb
 1134 0789 37       		.byte	0x37
 1135 078a 3B010000 		.4byte	0x13b
 1136 078e 08       		.byte	0x8
 1137 078f 00       		.byte	0
 1138 0790 0A       		.uleb128 0xa
 1139 0791 04       		.byte	0x4
 1140 0792 6B070000 		.4byte	0x76b
ARM GAS  /tmp/ccljeNQA.s 			page 21


 1141 0796 06       		.uleb128 0x6
 1142 0797 38070000 		.4byte	.LASF110
 1143 079b 10       		.byte	0x10
 1144 079c 0C       		.byte	0xc
 1145 079d 39       		.byte	0x39
 1146 079e C7070000 		.4byte	0x7c7
 1147 07a2 07       		.uleb128 0x7
 1148 07a3 40010000 		.4byte	.LASF111
 1149 07a7 0C       		.byte	0xc
 1150 07a8 3A       		.byte	0x3a
 1151 07a9 96020000 		.4byte	0x296
 1152 07ad 00       		.byte	0
 1153 07ae 07       		.uleb128 0x7
 1154 07af A8070000 		.4byte	.LASF112
 1155 07b3 0C       		.byte	0xc
 1156 07b4 3C       		.byte	0x3c
 1157 07b5 6C020000 		.4byte	0x26c
 1158 07b9 08       		.byte	0x8
 1159 07ba 07       		.uleb128 0x7
 1160 07bb 65060000 		.4byte	.LASF113
 1161 07bf 0C       		.byte	0xc
 1162 07c0 3E       		.byte	0x3e
 1163 07c1 0A080000 		.4byte	0x80a
 1164 07c5 0C       		.byte	0xc
 1165 07c6 00       		.byte	0
 1166 07c7 0A       		.uleb128 0xa
 1167 07c8 04       		.byte	0x4
 1168 07c9 96070000 		.4byte	0x796
 1169 07cd 0A       		.uleb128 0xa
 1170 07ce 04       		.byte	0x4
 1171 07cf D3070000 		.4byte	0x7d3
 1172 07d3 16       		.uleb128 0x16
 1173 07d4 D8070000 		.4byte	0x7d8
 1174 07d8 03       		.uleb128 0x3
 1175 07d9 01       		.byte	0x1
 1176 07da 08       		.byte	0x8
 1177 07db 06050000 		.4byte	.LASF114
 1178 07df 05       		.uleb128 0x5
 1179 07e0 46010000 		.4byte	0x146
 1180 07e4 0A       		.uleb128 0xa
 1181 07e5 04       		.byte	0x4
 1182 07e6 4B030000 		.4byte	0x34b
 1183 07ea 05       		.uleb128 0x5
 1184 07eb CD070000 		.4byte	0x7cd
 1185 07ef 17       		.uleb128 0x17
 1186 07f0 7D050000 		.4byte	0x57d
 1187 07f4 FF070000 		.4byte	0x7ff
 1188 07f8 18       		.uleb128 0x18
 1189 07f9 7F040000 		.4byte	0x47f
 1190 07fd 3A       		.byte	0x3a
 1191 07fe 00       		.byte	0
 1192 07ff 04       		.uleb128 0x4
 1193 0800 E8010000 		.4byte	.LASF115
 1194 0804 0C       		.byte	0xc
 1195 0805 34       		.byte	0x34
 1196 0806 96070000 		.4byte	0x796
 1197 080a 0A       		.uleb128 0xa
ARM GAS  /tmp/ccljeNQA.s 			page 22


 1198 080b 04       		.byte	0x4
 1199 080c FF070000 		.4byte	0x7ff
 1200 0810 13       		.uleb128 0x13
 1201 0811 0C       		.byte	0xc
 1202 0812 0D       		.byte	0xd
 1203 0813 DA       		.byte	0xda
 1204 0814 55080000 		.4byte	0x855
 1205 0818 07       		.uleb128 0x7
 1206 0819 82000000 		.4byte	.LASF116
 1207 081d 0D       		.byte	0xd
 1208 081e DB       		.byte	0xdb
 1209 081f 55080000 		.4byte	0x855
 1210 0823 00       		.byte	0
 1211 0824 07       		.uleb128 0x7
 1212 0825 BB040000 		.4byte	.LASF117
 1213 0829 0D       		.byte	0xd
 1214 082a DC       		.byte	0xdc
 1215 082b 5B080000 		.4byte	0x85b
 1216 082f 04       		.byte	0x4
 1217 0830 07       		.uleb128 0x7
 1218 0831 63020000 		.4byte	.LASF118
 1219 0835 0D       		.byte	0xd
 1220 0836 DD       		.byte	0xdd
 1221 0837 A2000000 		.4byte	0xa2
 1222 083b 08       		.byte	0x8
 1223 083c 07       		.uleb128 0x7
 1224 083d 17070000 		.4byte	.LASF119
 1225 0841 0D       		.byte	0xd
 1226 0842 DF       		.byte	0xdf
 1227 0843 A2000000 		.4byte	0xa2
 1228 0847 09       		.byte	0x9
 1229 0848 07       		.uleb128 0x7
 1230 0849 38000000 		.4byte	.LASF120
 1231 084d 0D       		.byte	0xd
 1232 084e E0       		.byte	0xe0
 1233 084f A2000000 		.4byte	0xa2
 1234 0853 0A       		.byte	0xa
 1235 0854 00       		.byte	0
 1236 0855 0A       		.uleb128 0xa
 1237 0856 04       		.byte	0x4
 1238 0857 DD040000 		.4byte	0x4dd
 1239 085b 0A       		.uleb128 0xa
 1240 085c 04       		.byte	0x4
 1241 085d DE000000 		.4byte	0xde
 1242 0861 04       		.uleb128 0x4
 1243 0862 E2030000 		.4byte	.LASF121
 1244 0866 0D       		.byte	0xd
 1245 0867 E1       		.byte	0xe1
 1246 0868 10080000 		.4byte	0x810
 1247 086c 03       		.uleb128 0x3
 1248 086d 01       		.byte	0x1
 1249 086e 02       		.byte	0x2
 1250 086f 44040000 		.4byte	.LASF122
 1251 0873 13       		.uleb128 0x13
 1252 0874 04       		.byte	0x4
 1253 0875 0E       		.byte	0xe
 1254 0876 B3       		.byte	0xb3
ARM GAS  /tmp/ccljeNQA.s 			page 23


 1255 0877 94080000 		.4byte	0x894
 1256 087b 12       		.uleb128 0x12
 1257 087c 73657400 		.ascii	"set\000"
 1258 0880 0E       		.byte	0xe
 1259 0881 B4       		.byte	0xb4
 1260 0882 AD000000 		.4byte	0xad
 1261 0886 00       		.byte	0
 1262 0887 07       		.uleb128 0x7
 1263 0888 37030000 		.4byte	.LASF123
 1264 088c 0E       		.byte	0xe
 1265 088d B5       		.byte	0xb5
 1266 088e AD000000 		.4byte	0xad
 1267 0892 02       		.byte	0x2
 1268 0893 00       		.byte	0
 1269 0894 14       		.uleb128 0x14
 1270 0895 04       		.byte	0x4
 1271 0896 0E       		.byte	0xe
 1272 0897 B1       		.byte	0xb1
 1273 0898 AF080000 		.4byte	0x8af
 1274 089c 19       		.uleb128 0x19
 1275 089d 5700     		.ascii	"W\000"
 1276 089f 0E       		.byte	0xe
 1277 08a0 B2       		.byte	0xb2
 1278 08a1 C3000000 		.4byte	0xc3
 1279 08a5 19       		.uleb128 0x19
 1280 08a6 4800     		.ascii	"H\000"
 1281 08a8 0E       		.byte	0xe
 1282 08a9 B6       		.byte	0xb6
 1283 08aa 73080000 		.4byte	0x873
 1284 08ae 00       		.byte	0
 1285 08af 13       		.uleb128 0x13
 1286 08b0 2C       		.byte	0x2c
 1287 08b1 0E       		.byte	0xe
 1288 08b2 A9       		.byte	0xa9
 1289 08b3 3C090000 		.4byte	0x93c
 1290 08b7 07       		.uleb128 0x7
 1291 08b8 89000000 		.4byte	.LASF124
 1292 08bc 0E       		.byte	0xe
 1293 08bd AB       		.byte	0xab
 1294 08be DE000000 		.4byte	0xde
 1295 08c2 00       		.byte	0
 1296 08c3 07       		.uleb128 0x7
 1297 08c4 7B000000 		.4byte	.LASF125
 1298 08c8 0E       		.byte	0xe
 1299 08c9 AC       		.byte	0xac
 1300 08ca DE000000 		.4byte	0xde
 1301 08ce 04       		.byte	0x4
 1302 08cf 07       		.uleb128 0x7
 1303 08d0 9A010000 		.4byte	.LASF126
 1304 08d4 0E       		.byte	0xe
 1305 08d5 AD       		.byte	0xad
 1306 08d6 DE000000 		.4byte	0xde
 1307 08da 08       		.byte	0x8
 1308 08db 07       		.uleb128 0x7
 1309 08dc B0000000 		.4byte	.LASF127
 1310 08e0 0E       		.byte	0xe
 1311 08e1 AE       		.byte	0xae
ARM GAS  /tmp/ccljeNQA.s 			page 24


 1312 08e2 DE000000 		.4byte	0xde
 1313 08e6 0C       		.byte	0xc
 1314 08e7 12       		.uleb128 0x12
 1315 08e8 49445200 		.ascii	"IDR\000"
 1316 08ec 0E       		.byte	0xe
 1317 08ed AF       		.byte	0xaf
 1318 08ee DE000000 		.4byte	0xde
 1319 08f2 10       		.byte	0x10
 1320 08f3 12       		.uleb128 0x12
 1321 08f4 4F445200 		.ascii	"ODR\000"
 1322 08f8 0E       		.byte	0xe
 1323 08f9 B0       		.byte	0xb0
 1324 08fa DE000000 		.4byte	0xde
 1325 08fe 14       		.byte	0x14
 1326 08ff 07       		.uleb128 0x7
 1327 0900 2A010000 		.4byte	.LASF128
 1328 0904 0E       		.byte	0xe
 1329 0905 B7       		.byte	0xb7
 1330 0906 3C090000 		.4byte	0x93c
 1331 090a 18       		.byte	0x18
 1332 090b 07       		.uleb128 0x7
 1333 090c 5E020000 		.4byte	.LASF129
 1334 0910 0E       		.byte	0xe
 1335 0911 B8       		.byte	0xb8
 1336 0912 DE000000 		.4byte	0xde
 1337 0916 1C       		.byte	0x1c
 1338 0917 07       		.uleb128 0x7
 1339 0918 BE030000 		.4byte	.LASF130
 1340 091c 0E       		.byte	0xe
 1341 091d B9       		.byte	0xb9
 1342 091e DE000000 		.4byte	0xde
 1343 0922 20       		.byte	0x20
 1344 0923 07       		.uleb128 0x7
 1345 0924 B3030000 		.4byte	.LASF131
 1346 0928 0E       		.byte	0xe
 1347 0929 BA       		.byte	0xba
 1348 092a DE000000 		.4byte	0xde
 1349 092e 24       		.byte	0x24
 1350 092f 12       		.uleb128 0x12
 1351 0930 42525200 		.ascii	"BRR\000"
 1352 0934 0E       		.byte	0xe
 1353 0935 BB       		.byte	0xbb
 1354 0936 DE000000 		.4byte	0xde
 1355 093a 28       		.byte	0x28
 1356 093b 00       		.byte	0
 1357 093c 05       		.uleb128 0x5
 1358 093d 94080000 		.4byte	0x894
 1359 0941 04       		.uleb128 0x4
 1360 0942 DB010000 		.4byte	.LASF132
 1361 0946 0E       		.byte	0xe
 1362 0947 BC       		.byte	0xbc
 1363 0948 AF080000 		.4byte	0x8af
 1364 094c 11       		.uleb128 0x11
 1365 094d 54030000 		.4byte	.LASF133
 1366 0951 0E       		.byte	0xe
 1367 0952 0E01     		.2byte	0x10e
 1368 0954 C3000000 		.4byte	0xc3
ARM GAS  /tmp/ccljeNQA.s 			page 25


 1369 0958 11       		.uleb128 0x11
 1370 0959 9F070000 		.4byte	.LASF134
 1371 095d 0E       		.byte	0xe
 1372 095e 1301     		.2byte	0x113
 1373 0960 C3000000 		.4byte	0xc3
 1374 0964 11       		.uleb128 0x11
 1375 0965 C5060000 		.4byte	.LASF135
 1376 0969 0E       		.byte	0xe
 1377 096a 1B01     		.2byte	0x11b
 1378 096c 70090000 		.4byte	0x970
 1379 0970 0A       		.uleb128 0xa
 1380 0971 04       		.byte	0x4
 1381 0972 41090000 		.4byte	0x941
 1382 0976 0A       		.uleb128 0xa
 1383 0977 04       		.byte	0x4
 1384 0978 7C090000 		.4byte	0x97c
 1385 097c 16       		.uleb128 0x16
 1386 097d 61080000 		.4byte	0x861
 1387 0981 1A       		.uleb128 0x1a
 1388 0982 01       		.byte	0x1
 1389 0983 0F       		.byte	0xf
 1390 0984 46       		.byte	0x46
 1391 0985 A8090000 		.4byte	0x9a8
 1392 0989 1B       		.uleb128 0x1b
 1393 098a 0C070000 		.4byte	.LASF136
 1394 098e 00       		.sleb128 0
 1395 098f 1B       		.uleb128 0x1b
 1396 0990 2F010000 		.4byte	.LASF137
 1397 0994 01       		.sleb128 1
 1398 0995 1B       		.uleb128 0x1b
 1399 0996 A6000000 		.4byte	.LASF138
 1400 099a 02       		.sleb128 2
 1401 099b 1B       		.uleb128 0x1b
 1402 099c 55000000 		.4byte	.LASF139
 1403 09a0 03       		.sleb128 3
 1404 09a1 1B       		.uleb128 0x1b
 1405 09a2 17050000 		.4byte	.LASF140
 1406 09a6 04       		.sleb128 4
 1407 09a7 00       		.byte	0
 1408 09a8 04       		.uleb128 0x4
 1409 09a9 5A060000 		.4byte	.LASF141
 1410 09ad 0F       		.byte	0xf
 1411 09ae 4C       		.byte	0x4c
 1412 09af 81090000 		.4byte	0x981
 1413 09b3 11       		.uleb128 0x11
 1414 09b4 CA000000 		.4byte	.LASF142
 1415 09b8 10       		.byte	0x10
 1416 09b9 9601     		.2byte	0x196
 1417 09bb BF090000 		.4byte	0x9bf
 1418 09bf 0B       		.uleb128 0xb
 1419 09c0 CA000000 		.4byte	.LASF142
 1420 09c4 30       		.byte	0x30
 1421 09c5 10       		.byte	0x10
 1422 09c6 BA01     		.2byte	0x1ba
 1423 09c8 420A0000 		.4byte	0xa42
 1424 09cc 09       		.uleb128 0x9
 1425 09cd 59010000 		.4byte	.LASF143
ARM GAS  /tmp/ccljeNQA.s 			page 26


 1426 09d1 10       		.byte	0x10
 1427 09d2 BE01     		.2byte	0x1be
 1428 09d4 A8090000 		.4byte	0x9a8
 1429 09d8 00       		.byte	0
 1430 09d9 09       		.uleb128 0x9
 1431 09da 24050000 		.4byte	.LASF144
 1432 09de 10       		.byte	0x10
 1433 09df C201     		.2byte	0x1c2
 1434 09e1 AF0A0000 		.4byte	0xaaf
 1435 09e5 04       		.byte	0x4
 1436 09e6 09       		.uleb128 0x9
 1437 09e7 95060000 		.4byte	.LASF145
 1438 09eb 10       		.byte	0x10
 1439 09ec C701     		.2byte	0x1c7
 1440 09ee 61020000 		.4byte	0x261
 1441 09f2 08       		.byte	0x8
 1442 09f3 09       		.uleb128 0x9
 1443 09f4 2E040000 		.4byte	.LASF146
 1444 09f8 10       		.byte	0x10
 1445 09f9 CD01     		.2byte	0x1cd
 1446 09fb FF070000 		.4byte	0x7ff
 1447 09ff 0C       		.byte	0xc
 1448 0a00 08       		.uleb128 0x8
 1449 0a01 73706900 		.ascii	"spi\000"
 1450 0a05 10       		.byte	0x10
 1451 0a06 D601     		.2byte	0x1d6
 1452 0a08 BA0A0000 		.4byte	0xaba
 1453 0a0c 1C       		.byte	0x1c
 1454 0a0d 09       		.uleb128 0x9
 1455 0a0e 10000000 		.4byte	.LASF147
 1456 0a12 10       		.byte	0x10
 1457 0a13 DA01     		.2byte	0x1da
 1458 0a15 76090000 		.4byte	0x976
 1459 0a19 20       		.byte	0x20
 1460 0a1a 09       		.uleb128 0x9
 1461 0a1b 94010000 		.4byte	.LASF148
 1462 0a1f 10       		.byte	0x10
 1463 0a20 DE01     		.2byte	0x1de
 1464 0a22 76090000 		.4byte	0x976
 1465 0a26 24       		.byte	0x24
 1466 0a27 09       		.uleb128 0x9
 1467 0a28 8A010000 		.4byte	.LASF149
 1468 0a2c 10       		.byte	0x10
 1469 0a2d E201     		.2byte	0x1e2
 1470 0a2f C3000000 		.4byte	0xc3
 1471 0a33 28       		.byte	0x28
 1472 0a34 09       		.uleb128 0x9
 1473 0a35 85030000 		.4byte	.LASF150
 1474 0a39 10       		.byte	0x10
 1475 0a3a E601     		.2byte	0x1e6
 1476 0a3c C3000000 		.4byte	0xc3
 1477 0a40 2C       		.byte	0x2c
 1478 0a41 00       		.byte	0
 1479 0a42 11       		.uleb128 0x11
 1480 0a43 CD010000 		.4byte	.LASF151
 1481 0a47 10       		.byte	0x10
 1482 0a48 9E01     		.2byte	0x19e
ARM GAS  /tmp/ccljeNQA.s 			page 27


 1483 0a4a 4E0A0000 		.4byte	0xa4e
 1484 0a4e 0A       		.uleb128 0xa
 1485 0a4f 04       		.byte	0x4
 1486 0a50 540A0000 		.4byte	0xa54
 1487 0a54 0C       		.uleb128 0xc
 1488 0a55 5F0A0000 		.4byte	0xa5f
 1489 0a59 0D       		.uleb128 0xd
 1490 0a5a 5F0A0000 		.4byte	0xa5f
 1491 0a5e 00       		.byte	0
 1492 0a5f 0A       		.uleb128 0xa
 1493 0a60 04       		.byte	0x4
 1494 0a61 B3090000 		.4byte	0x9b3
 1495 0a65 10       		.uleb128 0x10
 1496 0a66 0C       		.byte	0xc
 1497 0a67 10       		.byte	0x10
 1498 0a68 A301     		.2byte	0x1a3
 1499 0a6a A30A0000 		.4byte	0xaa3
 1500 0a6e 09       		.uleb128 0x9
 1501 0a6f 83010000 		.4byte	.LASF152
 1502 0a73 10       		.byte	0x10
 1503 0a74 A701     		.2byte	0x1a7
 1504 0a76 420A0000 		.4byte	0xa42
 1505 0a7a 00       		.byte	0
 1506 0a7b 09       		.uleb128 0x9
 1507 0a7c D4000000 		.4byte	.LASF153
 1508 0a80 10       		.byte	0x10
 1509 0a81 AC01     		.2byte	0x1ac
 1510 0a83 64090000 		.4byte	0x964
 1511 0a87 04       		.byte	0x4
 1512 0a88 09       		.uleb128 0x9
 1513 0a89 16010000 		.4byte	.LASF154
 1514 0a8d 10       		.byte	0x10
 1515 0a8e B001     		.2byte	0x1b0
 1516 0a90 AD000000 		.4byte	0xad
 1517 0a94 08       		.byte	0x8
 1518 0a95 08       		.uleb128 0x8
 1519 0a96 63723100 		.ascii	"cr1\000"
 1520 0a9a 10       		.byte	0x10
 1521 0a9b B401     		.2byte	0x1b4
 1522 0a9d AD000000 		.4byte	0xad
 1523 0aa1 0A       		.byte	0xa
 1524 0aa2 00       		.byte	0
 1525 0aa3 11       		.uleb128 0x11
 1526 0aa4 8F070000 		.4byte	.LASF155
 1527 0aa8 10       		.byte	0x10
 1528 0aa9 B501     		.2byte	0x1b5
 1529 0aab 650A0000 		.4byte	0xa65
 1530 0aaf 0A       		.uleb128 0xa
 1531 0ab0 04       		.byte	0x4
 1532 0ab1 B50A0000 		.4byte	0xab5
 1533 0ab5 16       		.uleb128 0x16
 1534 0ab6 A30A0000 		.4byte	0xaa3
 1535 0aba 0A       		.uleb128 0xa
 1536 0abb 04       		.byte	0x4
 1537 0abc 66050000 		.4byte	0x566
 1538 0ac0 1C       		.uleb128 0x1c
 1539 0ac1 6F030000 		.4byte	.LASF156
ARM GAS  /tmp/ccljeNQA.s 			page 28


 1540 0ac5 01       		.byte	0x1
 1541 0ac6 3C       		.byte	0x3c
 1542 0ac7 01       		.byte	0x1
 1543 0ac8 1C       		.uleb128 0x1c
 1544 0ac9 00000000 		.4byte	.LASF157
 1545 0acd 01       		.byte	0x1
 1546 0ace 26       		.byte	0x26
 1547 0acf 01       		.byte	0x1
 1548 0ad0 1D       		.uleb128 0x1d
 1549 0ad1 0B050000 		.4byte	.LASF165
 1550 0ad5 01       		.byte	0x1
 1551 0ad6 4D       		.byte	0x4d
 1552 0ad7 00000000 		.4byte	.LFB258
 1553 0adb A0000000 		.4byte	.LFE258-.LFB258
 1554 0adf 01       		.uleb128 0x1
 1555 0ae0 9C       		.byte	0x9c
 1556 0ae1 600C0000 		.4byte	0xc60
 1557 0ae5 1E       		.uleb128 0x1e
 1558 0ae6 C80A0000 		.4byte	0xac8
 1559 0aea 44000000 		.4byte	.LBB8
 1560 0aee 00000000 		.4byte	.Ldebug_ranges0+0
 1561 0af2 01       		.byte	0x1
 1562 0af3 56       		.byte	0x56
 1563 0af4 750B0000 		.4byte	0xb75
 1564 0af8 1F       		.uleb128 0x1f
 1565 0af9 52000000 		.4byte	.LVL6
 1566 0afd DE0C0000 		.4byte	0xcde
 1567 0b01 180B0000 		.4byte	0xb18
 1568 0b05 20       		.uleb128 0x20
 1569 0b06 01       		.uleb128 0x1
 1570 0b07 52       		.byte	0x52
 1571 0b08 01       		.uleb128 0x1
 1572 0b09 49       		.byte	0x49
 1573 0b0a 20       		.uleb128 0x20
 1574 0b0b 01       		.uleb128 0x1
 1575 0b0c 51       		.byte	0x51
 1576 0b0d 03       		.uleb128 0x3
 1577 0b0e 0A       		.byte	0xa
 1578 0b0f 0010     		.2byte	0x1000
 1579 0b11 20       		.uleb128 0x20
 1580 0b12 01       		.uleb128 0x1
 1581 0b13 50       		.byte	0x50
 1582 0b14 02       		.uleb128 0x2
 1583 0b15 74       		.byte	0x74
 1584 0b16 00       		.sleb128 0
 1585 0b17 00       		.byte	0
 1586 0b18 1F       		.uleb128 0x1f
 1587 0b19 5E000000 		.4byte	.LVL7
 1588 0b1d DE0C0000 		.4byte	0xcde
 1589 0b21 380B0000 		.4byte	0xb38
 1590 0b25 20       		.uleb128 0x20
 1591 0b26 01       		.uleb128 0x1
 1592 0b27 52       		.byte	0x52
 1593 0b28 01       		.uleb128 0x1
 1594 0b29 30       		.byte	0x30
 1595 0b2a 20       		.uleb128 0x20
 1596 0b2b 01       		.uleb128 0x1
ARM GAS  /tmp/ccljeNQA.s 			page 29


 1597 0b2c 51       		.byte	0x51
 1598 0b2d 03       		.uleb128 0x3
 1599 0b2e 0A       		.byte	0xa
 1600 0b2f 0080     		.2byte	0x8000
 1601 0b31 20       		.uleb128 0x20
 1602 0b32 01       		.uleb128 0x1
 1603 0b33 50       		.byte	0x50
 1604 0b34 02       		.uleb128 0x2
 1605 0b35 74       		.byte	0x74
 1606 0b36 00       		.sleb128 0
 1607 0b37 00       		.byte	0
 1608 0b38 1F       		.uleb128 0x1f
 1609 0b39 6A000000 		.4byte	.LVL8
 1610 0b3d DE0C0000 		.4byte	0xcde
 1611 0b41 580B0000 		.4byte	0xb58
 1612 0b45 20       		.uleb128 0x20
 1613 0b46 01       		.uleb128 0x1
 1614 0b47 52       		.byte	0x52
 1615 0b48 01       		.uleb128 0x1
 1616 0b49 31       		.byte	0x31
 1617 0b4a 20       		.uleb128 0x20
 1618 0b4b 01       		.uleb128 0x1
 1619 0b4c 51       		.byte	0x51
 1620 0b4d 03       		.uleb128 0x3
 1621 0b4e 0A       		.byte	0xa
 1622 0b4f 0020     		.2byte	0x2000
 1623 0b51 20       		.uleb128 0x20
 1624 0b52 01       		.uleb128 0x1
 1625 0b53 50       		.byte	0x50
 1626 0b54 02       		.uleb128 0x2
 1627 0b55 74       		.byte	0x74
 1628 0b56 00       		.sleb128 0
 1629 0b57 00       		.byte	0
 1630 0b58 21       		.uleb128 0x21
 1631 0b59 76000000 		.4byte	.LVL9
 1632 0b5d DE0C0000 		.4byte	0xcde
 1633 0b61 20       		.uleb128 0x20
 1634 0b62 01       		.uleb128 0x1
 1635 0b63 52       		.byte	0x52
 1636 0b64 01       		.uleb128 0x1
 1637 0b65 31       		.byte	0x31
 1638 0b66 20       		.uleb128 0x20
 1639 0b67 01       		.uleb128 0x1
 1640 0b68 51       		.byte	0x51
 1641 0b69 03       		.uleb128 0x3
 1642 0b6a 0A       		.byte	0xa
 1643 0b6b 0040     		.2byte	0x4000
 1644 0b6d 20       		.uleb128 0x20
 1645 0b6e 01       		.uleb128 0x1
 1646 0b6f 50       		.byte	0x50
 1647 0b70 02       		.uleb128 0x2
 1648 0b71 74       		.byte	0x74
 1649 0b72 00       		.sleb128 0
 1650 0b73 00       		.byte	0
 1651 0b74 00       		.byte	0
 1652 0b75 1E       		.uleb128 0x1e
 1653 0b76 C00A0000 		.4byte	0xac0
ARM GAS  /tmp/ccljeNQA.s 			page 30


 1654 0b7a 7A000000 		.4byte	.LBB11
 1655 0b7e 18000000 		.4byte	.Ldebug_ranges0+0x18
 1656 0b82 01       		.byte	0x1
 1657 0b83 57       		.byte	0x57
 1658 0b84 A80B0000 		.4byte	0xba8
 1659 0b88 22       		.uleb128 0x22
 1660 0b89 92000000 		.4byte	.LVL10
 1661 0b8d DE0C0000 		.4byte	0xcde
 1662 0b91 20       		.uleb128 0x20
 1663 0b92 01       		.uleb128 0x1
 1664 0b93 52       		.byte	0x52
 1665 0b94 01       		.uleb128 0x1
 1666 0b95 49       		.byte	0x49
 1667 0b96 20       		.uleb128 0x20
 1668 0b97 01       		.uleb128 0x1
 1669 0b98 51       		.byte	0x51
 1670 0b99 03       		.uleb128 0x3
 1671 0b9a 0A       		.byte	0xa
 1672 0b9b 0008     		.2byte	0x800
 1673 0b9d 20       		.uleb128 0x20
 1674 0b9e 01       		.uleb128 0x1
 1675 0b9f 50       		.byte	0x50
 1676 0ba0 05       		.uleb128 0x5
 1677 0ba1 0C       		.byte	0xc
 1678 0ba2 00040240 		.4byte	0x40020400
 1679 0ba6 00       		.byte	0
 1680 0ba7 00       		.byte	0
 1681 0ba8 1F       		.uleb128 0x1f
 1682 0ba9 10000000 		.4byte	.LVL0
 1683 0bad DE0C0000 		.4byte	0xcde
 1684 0bb1 CA0B0000 		.4byte	0xbca
 1685 0bb5 20       		.uleb128 0x20
 1686 0bb6 01       		.uleb128 0x1
 1687 0bb7 52       		.byte	0x52
 1688 0bb8 01       		.uleb128 0x1
 1689 0bb9 30       		.byte	0x30
 1690 0bba 20       		.uleb128 0x20
 1691 0bbb 01       		.uleb128 0x1
 1692 0bbc 51       		.byte	0x51
 1693 0bbd 02       		.uleb128 0x2
 1694 0bbe 08       		.byte	0x8
 1695 0bbf 80       		.byte	0x80
 1696 0bc0 20       		.uleb128 0x20
 1697 0bc1 01       		.uleb128 0x1
 1698 0bc2 50       		.byte	0x50
 1699 0bc3 05       		.uleb128 0x5
 1700 0bc4 0C       		.byte	0xc
 1701 0bc5 00000240 		.4byte	0x40020000
 1702 0bc9 00       		.byte	0
 1703 0bca 1F       		.uleb128 0x1f
 1704 0bcb 1A000000 		.4byte	.LVL1
 1705 0bcf DE0C0000 		.4byte	0xcde
 1706 0bd3 E80B0000 		.4byte	0xbe8
 1707 0bd7 20       		.uleb128 0x20
 1708 0bd8 01       		.uleb128 0x1
 1709 0bd9 52       		.byte	0x52
 1710 0bda 01       		.uleb128 0x1
ARM GAS  /tmp/ccljeNQA.s 			page 31


 1711 0bdb 30       		.byte	0x30
 1712 0bdc 20       		.uleb128 0x20
 1713 0bdd 01       		.uleb128 0x1
 1714 0bde 51       		.byte	0x51
 1715 0bdf 01       		.uleb128 0x1
 1716 0be0 40       		.byte	0x40
 1717 0be1 20       		.uleb128 0x20
 1718 0be2 01       		.uleb128 0x1
 1719 0be3 50       		.byte	0x50
 1720 0be4 02       		.uleb128 0x2
 1721 0be5 75       		.byte	0x75
 1722 0be6 00       		.sleb128 0
 1723 0be7 00       		.byte	0
 1724 0be8 1F       		.uleb128 0x1f
 1725 0be9 24000000 		.4byte	.LVL2
 1726 0bed DE0C0000 		.4byte	0xcde
 1727 0bf1 070C0000 		.4byte	0xc07
 1728 0bf5 20       		.uleb128 0x20
 1729 0bf6 01       		.uleb128 0x1
 1730 0bf7 52       		.byte	0x52
 1731 0bf8 01       		.uleb128 0x1
 1732 0bf9 30       		.byte	0x30
 1733 0bfa 20       		.uleb128 0x20
 1734 0bfb 01       		.uleb128 0x1
 1735 0bfc 51       		.byte	0x51
 1736 0bfd 02       		.uleb128 0x2
 1737 0bfe 08       		.byte	0x8
 1738 0bff 20       		.byte	0x20
 1739 0c00 20       		.uleb128 0x20
 1740 0c01 01       		.uleb128 0x1
 1741 0c02 50       		.byte	0x50
 1742 0c03 02       		.uleb128 0x2
 1743 0c04 75       		.byte	0x75
 1744 0c05 00       		.sleb128 0
 1745 0c06 00       		.byte	0
 1746 0c07 1F       		.uleb128 0x1f
 1747 0c08 2E000000 		.4byte	.LVL3
 1748 0c0c DE0C0000 		.4byte	0xcde
 1749 0c10 250C0000 		.4byte	0xc25
 1750 0c14 20       		.uleb128 0x20
 1751 0c15 01       		.uleb128 0x1
 1752 0c16 52       		.byte	0x52
 1753 0c17 01       		.uleb128 0x1
 1754 0c18 30       		.byte	0x30
 1755 0c19 20       		.uleb128 0x20
 1756 0c1a 01       		.uleb128 0x1
 1757 0c1b 51       		.byte	0x51
 1758 0c1c 01       		.uleb128 0x1
 1759 0c1d 31       		.byte	0x31
 1760 0c1e 20       		.uleb128 0x20
 1761 0c1f 01       		.uleb128 0x1
 1762 0c20 50       		.byte	0x50
 1763 0c21 02       		.uleb128 0x2
 1764 0c22 74       		.byte	0x74
 1765 0c23 00       		.sleb128 0
 1766 0c24 00       		.byte	0
 1767 0c25 1F       		.uleb128 0x1f
ARM GAS  /tmp/ccljeNQA.s 			page 32


 1768 0c26 38000000 		.4byte	.LVL4
 1769 0c2a DE0C0000 		.4byte	0xcde
 1770 0c2e 430C0000 		.4byte	0xc43
 1771 0c32 20       		.uleb128 0x20
 1772 0c33 01       		.uleb128 0x1
 1773 0c34 52       		.byte	0x52
 1774 0c35 01       		.uleb128 0x1
 1775 0c36 30       		.byte	0x30
 1776 0c37 20       		.uleb128 0x20
 1777 0c38 01       		.uleb128 0x1
 1778 0c39 51       		.byte	0x51
 1779 0c3a 01       		.uleb128 0x1
 1780 0c3b 32       		.byte	0x32
 1781 0c3c 20       		.uleb128 0x20
 1782 0c3d 01       		.uleb128 0x1
 1783 0c3e 50       		.byte	0x50
 1784 0c3f 02       		.uleb128 0x2
 1785 0c40 74       		.byte	0x74
 1786 0c41 00       		.sleb128 0
 1787 0c42 00       		.byte	0
 1788 0c43 21       		.uleb128 0x21
 1789 0c44 44000000 		.4byte	.LVL5
 1790 0c48 DE0C0000 		.4byte	0xcde
 1791 0c4c 20       		.uleb128 0x20
 1792 0c4d 01       		.uleb128 0x1
 1793 0c4e 52       		.byte	0x52
 1794 0c4f 01       		.uleb128 0x1
 1795 0c50 30       		.byte	0x30
 1796 0c51 20       		.uleb128 0x20
 1797 0c52 01       		.uleb128 0x1
 1798 0c53 51       		.byte	0x51
 1799 0c54 03       		.uleb128 0x3
 1800 0c55 0A       		.byte	0xa
 1801 0c56 0004     		.2byte	0x400
 1802 0c58 20       		.uleb128 0x20
 1803 0c59 01       		.uleb128 0x1
 1804 0c5a 50       		.byte	0x50
 1805 0c5b 02       		.uleb128 0x2
 1806 0c5c 74       		.byte	0x74
 1807 0c5d 00       		.sleb128 0
 1808 0c5e 00       		.byte	0
 1809 0c5f 00       		.byte	0
 1810 0c60 23       		.uleb128 0x23
 1811 0c61 C3010000 		.4byte	.LASF166
 1812 0c65 01       		.byte	0x1
 1813 0c66 5D       		.byte	0x5d
 1814 0c67 45000000 		.4byte	0x45
 1815 0c6b 00000000 		.4byte	.LFB259
 1816 0c6f 20000000 		.4byte	.LFE259-.LFB259
 1817 0c73 01       		.uleb128 0x1
 1818 0c74 9C       		.byte	0x9c
 1819 0c75 AF0C0000 		.4byte	0xcaf
 1820 0c79 24       		.uleb128 0x24
 1821 0c7a 7800     		.ascii	"x\000"
 1822 0c7c 01       		.byte	0x1
 1823 0c7d 5D       		.byte	0x5d
 1824 0c7e 45000000 		.4byte	0x45
ARM GAS  /tmp/ccljeNQA.s 			page 33


 1825 0c82 00000000 		.4byte	.LLST0
 1826 0c86 25       		.uleb128 0x25
 1827 0c87 727800   		.ascii	"rx\000"
 1828 0c8a 01       		.byte	0x1
 1829 0c8b 5E       		.byte	0x5e
 1830 0c8c 45000000 		.4byte	0x45
 1831 0c90 02       		.uleb128 0x2
 1832 0c91 91       		.byte	0x91
 1833 0c92 77       		.sleb128 -9
 1834 0c93 21       		.uleb128 0x21
 1835 0c94 16000000 		.4byte	.LVL13
 1836 0c98 FA0C0000 		.4byte	0xcfa
 1837 0c9c 20       		.uleb128 0x20
 1838 0c9d 01       		.uleb128 0x1
 1839 0c9e 52       		.byte	0x52
 1840 0c9f 01       		.uleb128 0x1
 1841 0ca0 31       		.byte	0x31
 1842 0ca1 20       		.uleb128 0x20
 1843 0ca2 01       		.uleb128 0x1
 1844 0ca3 51       		.byte	0x51
 1845 0ca4 02       		.uleb128 0x2
 1846 0ca5 91       		.byte	0x91
 1847 0ca6 6F       		.sleb128 -17
 1848 0ca7 20       		.uleb128 0x20
 1849 0ca8 01       		.uleb128 0x1
 1850 0ca9 50       		.byte	0x50
 1851 0caa 02       		.uleb128 0x2
 1852 0cab 91       		.byte	0x91
 1853 0cac 77       		.sleb128 -9
 1854 0cad 00       		.byte	0
 1855 0cae 00       		.byte	0
 1856 0caf 26       		.uleb128 0x26
 1857 0cb0 8F030000 		.4byte	.LASF158
 1858 0cb4 01       		.byte	0x1
 1859 0cb5 0F       		.byte	0xf
 1860 0cb6 B50A0000 		.4byte	0xab5
 1861 0cba 0C       		.byte	0xc
 1862 0cbb 00       		.byte	0
 1863 0cbc 00       		.byte	0
 1864 0cbd 00       		.byte	0
 1865 0cbe 00       		.byte	0
 1866 0cbf 00       		.byte	0
 1867 0cc0 04       		.byte	0x4
 1868 0cc1 02       		.byte	0x2
 1869 0cc2 40       		.byte	0x40
 1870 0cc3 0C       		.byte	0xc
 1871 0cc4 00       		.byte	0
 1872 0cc5 10       		.byte	0x10
 1873 0cc6 00       		.byte	0
 1874 0cc7 27       		.uleb128 0x27
 1875 0cc8 F1000000 		.4byte	.LASF159
 1876 0ccc 12       		.byte	0x12
 1877 0ccd A706     		.2byte	0x6a7
 1878 0ccf D9000000 		.4byte	0xd9
 1879 0cd3 28       		.uleb128 0x28
 1880 0cd4 636800   		.ascii	"ch\000"
 1881 0cd7 06       		.byte	0x6
ARM GAS  /tmp/ccljeNQA.s 			page 34


 1882 0cd8 0902     		.2byte	0x209
 1883 0cda 18040000 		.4byte	0x418
 1884 0cde 29       		.uleb128 0x29
 1885 0cdf D8060000 		.4byte	.LASF160
 1886 0ce3 0E       		.byte	0xe
 1887 0ce4 E001     		.2byte	0x1e0
 1888 0ce6 FA0C0000 		.4byte	0xcfa
 1889 0cea 0D       		.uleb128 0xd
 1890 0ceb 64090000 		.4byte	0x964
 1891 0cef 0D       		.uleb128 0xd
 1892 0cf0 4C090000 		.4byte	0x94c
 1893 0cf4 0D       		.uleb128 0xd
 1894 0cf5 58090000 		.4byte	0x958
 1895 0cf9 00       		.byte	0
 1896 0cfa 2A       		.uleb128 0x2a
 1897 0cfb 48070000 		.4byte	.LASF161
 1898 0cff 11       		.byte	0x11
 1899 0d00 0D       		.byte	0xd
 1900 0d01 150D0000 		.4byte	0xd15
 1901 0d05 0D       		.uleb128 0xd
 1902 0d06 150D0000 		.4byte	0xd15
 1903 0d0a 0D       		.uleb128 0xd
 1904 0d0b CD070000 		.4byte	0x7cd
 1905 0d0f 0D       		.uleb128 0xd
 1906 0d10 25000000 		.4byte	0x25
 1907 0d14 00       		.byte	0
 1908 0d15 0A       		.uleb128 0xa
 1909 0d16 04       		.byte	0x4
 1910 0d17 D8070000 		.4byte	0x7d8
 1911 0d1b 00       		.byte	0
 1912              		.section	.debug_abbrev,"",%progbits
 1913              	.Ldebug_abbrev0:
 1914 0000 01       		.uleb128 0x1
 1915 0001 11       		.uleb128 0x11
 1916 0002 01       		.byte	0x1
 1917 0003 25       		.uleb128 0x25
 1918 0004 0E       		.uleb128 0xe
 1919 0005 13       		.uleb128 0x13
 1920 0006 0B       		.uleb128 0xb
 1921 0007 03       		.uleb128 0x3
 1922 0008 0E       		.uleb128 0xe
 1923 0009 1B       		.uleb128 0x1b
 1924 000a 0E       		.uleb128 0xe
 1925 000b 55       		.uleb128 0x55
 1926 000c 17       		.uleb128 0x17
 1927 000d 11       		.uleb128 0x11
 1928 000e 01       		.uleb128 0x1
 1929 000f 10       		.uleb128 0x10
 1930 0010 17       		.uleb128 0x17
 1931 0011 00       		.byte	0
 1932 0012 00       		.byte	0
 1933 0013 02       		.uleb128 0x2
 1934 0014 24       		.uleb128 0x24
 1935 0015 00       		.byte	0
 1936 0016 0B       		.uleb128 0xb
 1937 0017 0B       		.uleb128 0xb
 1938 0018 3E       		.uleb128 0x3e
ARM GAS  /tmp/ccljeNQA.s 			page 35


 1939 0019 0B       		.uleb128 0xb
 1940 001a 03       		.uleb128 0x3
 1941 001b 08       		.uleb128 0x8
 1942 001c 00       		.byte	0
 1943 001d 00       		.byte	0
 1944 001e 03       		.uleb128 0x3
 1945 001f 24       		.uleb128 0x24
 1946 0020 00       		.byte	0
 1947 0021 0B       		.uleb128 0xb
 1948 0022 0B       		.uleb128 0xb
 1949 0023 3E       		.uleb128 0x3e
 1950 0024 0B       		.uleb128 0xb
 1951 0025 03       		.uleb128 0x3
 1952 0026 0E       		.uleb128 0xe
 1953 0027 00       		.byte	0
 1954 0028 00       		.byte	0
 1955 0029 04       		.uleb128 0x4
 1956 002a 16       		.uleb128 0x16
 1957 002b 00       		.byte	0
 1958 002c 03       		.uleb128 0x3
 1959 002d 0E       		.uleb128 0xe
 1960 002e 3A       		.uleb128 0x3a
 1961 002f 0B       		.uleb128 0xb
 1962 0030 3B       		.uleb128 0x3b
 1963 0031 0B       		.uleb128 0xb
 1964 0032 49       		.uleb128 0x49
 1965 0033 13       		.uleb128 0x13
 1966 0034 00       		.byte	0
 1967 0035 00       		.byte	0
 1968 0036 05       		.uleb128 0x5
 1969 0037 35       		.uleb128 0x35
 1970 0038 00       		.byte	0
 1971 0039 49       		.uleb128 0x49
 1972 003a 13       		.uleb128 0x13
 1973 003b 00       		.byte	0
 1974 003c 00       		.byte	0
 1975 003d 06       		.uleb128 0x6
 1976 003e 13       		.uleb128 0x13
 1977 003f 01       		.byte	0x1
 1978 0040 03       		.uleb128 0x3
 1979 0041 0E       		.uleb128 0xe
 1980 0042 0B       		.uleb128 0xb
 1981 0043 0B       		.uleb128 0xb
 1982 0044 3A       		.uleb128 0x3a
 1983 0045 0B       		.uleb128 0xb
 1984 0046 3B       		.uleb128 0x3b
 1985 0047 0B       		.uleb128 0xb
 1986 0048 01       		.uleb128 0x1
 1987 0049 13       		.uleb128 0x13
 1988 004a 00       		.byte	0
 1989 004b 00       		.byte	0
 1990 004c 07       		.uleb128 0x7
 1991 004d 0D       		.uleb128 0xd
 1992 004e 00       		.byte	0
 1993 004f 03       		.uleb128 0x3
 1994 0050 0E       		.uleb128 0xe
 1995 0051 3A       		.uleb128 0x3a
ARM GAS  /tmp/ccljeNQA.s 			page 36


 1996 0052 0B       		.uleb128 0xb
 1997 0053 3B       		.uleb128 0x3b
 1998 0054 0B       		.uleb128 0xb
 1999 0055 49       		.uleb128 0x49
 2000 0056 13       		.uleb128 0x13
 2001 0057 38       		.uleb128 0x38
 2002 0058 0B       		.uleb128 0xb
 2003 0059 00       		.byte	0
 2004 005a 00       		.byte	0
 2005 005b 08       		.uleb128 0x8
 2006 005c 0D       		.uleb128 0xd
 2007 005d 00       		.byte	0
 2008 005e 03       		.uleb128 0x3
 2009 005f 08       		.uleb128 0x8
 2010 0060 3A       		.uleb128 0x3a
 2011 0061 0B       		.uleb128 0xb
 2012 0062 3B       		.uleb128 0x3b
 2013 0063 05       		.uleb128 0x5
 2014 0064 49       		.uleb128 0x49
 2015 0065 13       		.uleb128 0x13
 2016 0066 38       		.uleb128 0x38
 2017 0067 0B       		.uleb128 0xb
 2018 0068 00       		.byte	0
 2019 0069 00       		.byte	0
 2020 006a 09       		.uleb128 0x9
 2021 006b 0D       		.uleb128 0xd
 2022 006c 00       		.byte	0
 2023 006d 03       		.uleb128 0x3
 2024 006e 0E       		.uleb128 0xe
 2025 006f 3A       		.uleb128 0x3a
 2026 0070 0B       		.uleb128 0xb
 2027 0071 3B       		.uleb128 0x3b
 2028 0072 05       		.uleb128 0x5
 2029 0073 49       		.uleb128 0x49
 2030 0074 13       		.uleb128 0x13
 2031 0075 38       		.uleb128 0x38
 2032 0076 0B       		.uleb128 0xb
 2033 0077 00       		.byte	0
 2034 0078 00       		.byte	0
 2035 0079 0A       		.uleb128 0xa
 2036 007a 0F       		.uleb128 0xf
 2037 007b 00       		.byte	0
 2038 007c 0B       		.uleb128 0xb
 2039 007d 0B       		.uleb128 0xb
 2040 007e 49       		.uleb128 0x49
 2041 007f 13       		.uleb128 0x13
 2042 0080 00       		.byte	0
 2043 0081 00       		.byte	0
 2044 0082 0B       		.uleb128 0xb
 2045 0083 13       		.uleb128 0x13
 2046 0084 01       		.byte	0x1
 2047 0085 03       		.uleb128 0x3
 2048 0086 0E       		.uleb128 0xe
 2049 0087 0B       		.uleb128 0xb
 2050 0088 0B       		.uleb128 0xb
 2051 0089 3A       		.uleb128 0x3a
 2052 008a 0B       		.uleb128 0xb
ARM GAS  /tmp/ccljeNQA.s 			page 37


 2053 008b 3B       		.uleb128 0x3b
 2054 008c 05       		.uleb128 0x5
 2055 008d 01       		.uleb128 0x1
 2056 008e 13       		.uleb128 0x13
 2057 008f 00       		.byte	0
 2058 0090 00       		.byte	0
 2059 0091 0C       		.uleb128 0xc
 2060 0092 15       		.uleb128 0x15
 2061 0093 01       		.byte	0x1
 2062 0094 27       		.uleb128 0x27
 2063 0095 19       		.uleb128 0x19
 2064 0096 01       		.uleb128 0x1
 2065 0097 13       		.uleb128 0x13
 2066 0098 00       		.byte	0
 2067 0099 00       		.byte	0
 2068 009a 0D       		.uleb128 0xd
 2069 009b 05       		.uleb128 0x5
 2070 009c 00       		.byte	0
 2071 009d 49       		.uleb128 0x49
 2072 009e 13       		.uleb128 0x13
 2073 009f 00       		.byte	0
 2074 00a0 00       		.byte	0
 2075 00a1 0E       		.uleb128 0xe
 2076 00a2 0F       		.uleb128 0xf
 2077 00a3 00       		.byte	0
 2078 00a4 0B       		.uleb128 0xb
 2079 00a5 0B       		.uleb128 0xb
 2080 00a6 00       		.byte	0
 2081 00a7 00       		.byte	0
 2082 00a8 0F       		.uleb128 0xf
 2083 00a9 13       		.uleb128 0x13
 2084 00aa 01       		.byte	0x1
 2085 00ab 03       		.uleb128 0x3
 2086 00ac 0E       		.uleb128 0xe
 2087 00ad 0B       		.uleb128 0xb
 2088 00ae 05       		.uleb128 0x5
 2089 00af 3A       		.uleb128 0x3a
 2090 00b0 0B       		.uleb128 0xb
 2091 00b1 3B       		.uleb128 0x3b
 2092 00b2 05       		.uleb128 0x5
 2093 00b3 01       		.uleb128 0x1
 2094 00b4 13       		.uleb128 0x13
 2095 00b5 00       		.byte	0
 2096 00b6 00       		.byte	0
 2097 00b7 10       		.uleb128 0x10
 2098 00b8 13       		.uleb128 0x13
 2099 00b9 01       		.byte	0x1
 2100 00ba 0B       		.uleb128 0xb
 2101 00bb 0B       		.uleb128 0xb
 2102 00bc 3A       		.uleb128 0x3a
 2103 00bd 0B       		.uleb128 0xb
 2104 00be 3B       		.uleb128 0x3b
 2105 00bf 05       		.uleb128 0x5
 2106 00c0 01       		.uleb128 0x1
 2107 00c1 13       		.uleb128 0x13
 2108 00c2 00       		.byte	0
 2109 00c3 00       		.byte	0
ARM GAS  /tmp/ccljeNQA.s 			page 38


 2110 00c4 11       		.uleb128 0x11
 2111 00c5 16       		.uleb128 0x16
 2112 00c6 00       		.byte	0
 2113 00c7 03       		.uleb128 0x3
 2114 00c8 0E       		.uleb128 0xe
 2115 00c9 3A       		.uleb128 0x3a
 2116 00ca 0B       		.uleb128 0xb
 2117 00cb 3B       		.uleb128 0x3b
 2118 00cc 05       		.uleb128 0x5
 2119 00cd 49       		.uleb128 0x49
 2120 00ce 13       		.uleb128 0x13
 2121 00cf 00       		.byte	0
 2122 00d0 00       		.byte	0
 2123 00d1 12       		.uleb128 0x12
 2124 00d2 0D       		.uleb128 0xd
 2125 00d3 00       		.byte	0
 2126 00d4 03       		.uleb128 0x3
 2127 00d5 08       		.uleb128 0x8
 2128 00d6 3A       		.uleb128 0x3a
 2129 00d7 0B       		.uleb128 0xb
 2130 00d8 3B       		.uleb128 0x3b
 2131 00d9 0B       		.uleb128 0xb
 2132 00da 49       		.uleb128 0x49
 2133 00db 13       		.uleb128 0x13
 2134 00dc 38       		.uleb128 0x38
 2135 00dd 0B       		.uleb128 0xb
 2136 00de 00       		.byte	0
 2137 00df 00       		.byte	0
 2138 00e0 13       		.uleb128 0x13
 2139 00e1 13       		.uleb128 0x13
 2140 00e2 01       		.byte	0x1
 2141 00e3 0B       		.uleb128 0xb
 2142 00e4 0B       		.uleb128 0xb
 2143 00e5 3A       		.uleb128 0x3a
 2144 00e6 0B       		.uleb128 0xb
 2145 00e7 3B       		.uleb128 0x3b
 2146 00e8 0B       		.uleb128 0xb
 2147 00e9 01       		.uleb128 0x1
 2148 00ea 13       		.uleb128 0x13
 2149 00eb 00       		.byte	0
 2150 00ec 00       		.byte	0
 2151 00ed 14       		.uleb128 0x14
 2152 00ee 17       		.uleb128 0x17
 2153 00ef 01       		.byte	0x1
 2154 00f0 0B       		.uleb128 0xb
 2155 00f1 0B       		.uleb128 0xb
 2156 00f2 3A       		.uleb128 0x3a
 2157 00f3 0B       		.uleb128 0xb
 2158 00f4 3B       		.uleb128 0x3b
 2159 00f5 0B       		.uleb128 0xb
 2160 00f6 01       		.uleb128 0x1
 2161 00f7 13       		.uleb128 0x13
 2162 00f8 00       		.byte	0
 2163 00f9 00       		.byte	0
 2164 00fa 15       		.uleb128 0x15
 2165 00fb 0D       		.uleb128 0xd
 2166 00fc 00       		.byte	0
ARM GAS  /tmp/ccljeNQA.s 			page 39


 2167 00fd 03       		.uleb128 0x3
 2168 00fe 0E       		.uleb128 0xe
 2169 00ff 3A       		.uleb128 0x3a
 2170 0100 0B       		.uleb128 0xb
 2171 0101 3B       		.uleb128 0x3b
 2172 0102 05       		.uleb128 0x5
 2173 0103 49       		.uleb128 0x49
 2174 0104 13       		.uleb128 0x13
 2175 0105 00       		.byte	0
 2176 0106 00       		.byte	0
 2177 0107 16       		.uleb128 0x16
 2178 0108 26       		.uleb128 0x26
 2179 0109 00       		.byte	0
 2180 010a 49       		.uleb128 0x49
 2181 010b 13       		.uleb128 0x13
 2182 010c 00       		.byte	0
 2183 010d 00       		.byte	0
 2184 010e 17       		.uleb128 0x17
 2185 010f 01       		.uleb128 0x1
 2186 0110 01       		.byte	0x1
 2187 0111 49       		.uleb128 0x49
 2188 0112 13       		.uleb128 0x13
 2189 0113 01       		.uleb128 0x1
 2190 0114 13       		.uleb128 0x13
 2191 0115 00       		.byte	0
 2192 0116 00       		.byte	0
 2193 0117 18       		.uleb128 0x18
 2194 0118 21       		.uleb128 0x21
 2195 0119 00       		.byte	0
 2196 011a 49       		.uleb128 0x49
 2197 011b 13       		.uleb128 0x13
 2198 011c 2F       		.uleb128 0x2f
 2199 011d 0B       		.uleb128 0xb
 2200 011e 00       		.byte	0
 2201 011f 00       		.byte	0
 2202 0120 19       		.uleb128 0x19
 2203 0121 0D       		.uleb128 0xd
 2204 0122 00       		.byte	0
 2205 0123 03       		.uleb128 0x3
 2206 0124 08       		.uleb128 0x8
 2207 0125 3A       		.uleb128 0x3a
 2208 0126 0B       		.uleb128 0xb
 2209 0127 3B       		.uleb128 0x3b
 2210 0128 0B       		.uleb128 0xb
 2211 0129 49       		.uleb128 0x49
 2212 012a 13       		.uleb128 0x13
 2213 012b 00       		.byte	0
 2214 012c 00       		.byte	0
 2215 012d 1A       		.uleb128 0x1a
 2216 012e 04       		.uleb128 0x4
 2217 012f 01       		.byte	0x1
 2218 0130 0B       		.uleb128 0xb
 2219 0131 0B       		.uleb128 0xb
 2220 0132 3A       		.uleb128 0x3a
 2221 0133 0B       		.uleb128 0xb
 2222 0134 3B       		.uleb128 0x3b
 2223 0135 0B       		.uleb128 0xb
ARM GAS  /tmp/ccljeNQA.s 			page 40


 2224 0136 01       		.uleb128 0x1
 2225 0137 13       		.uleb128 0x13
 2226 0138 00       		.byte	0
 2227 0139 00       		.byte	0
 2228 013a 1B       		.uleb128 0x1b
 2229 013b 28       		.uleb128 0x28
 2230 013c 00       		.byte	0
 2231 013d 03       		.uleb128 0x3
 2232 013e 0E       		.uleb128 0xe
 2233 013f 1C       		.uleb128 0x1c
 2234 0140 0D       		.uleb128 0xd
 2235 0141 00       		.byte	0
 2236 0142 00       		.byte	0
 2237 0143 1C       		.uleb128 0x1c
 2238 0144 2E       		.uleb128 0x2e
 2239 0145 00       		.byte	0
 2240 0146 03       		.uleb128 0x3
 2241 0147 0E       		.uleb128 0xe
 2242 0148 3A       		.uleb128 0x3a
 2243 0149 0B       		.uleb128 0xb
 2244 014a 3B       		.uleb128 0x3b
 2245 014b 0B       		.uleb128 0xb
 2246 014c 27       		.uleb128 0x27
 2247 014d 19       		.uleb128 0x19
 2248 014e 20       		.uleb128 0x20
 2249 014f 0B       		.uleb128 0xb
 2250 0150 00       		.byte	0
 2251 0151 00       		.byte	0
 2252 0152 1D       		.uleb128 0x1d
 2253 0153 2E       		.uleb128 0x2e
 2254 0154 01       		.byte	0x1
 2255 0155 3F       		.uleb128 0x3f
 2256 0156 19       		.uleb128 0x19
 2257 0157 03       		.uleb128 0x3
 2258 0158 0E       		.uleb128 0xe
 2259 0159 3A       		.uleb128 0x3a
 2260 015a 0B       		.uleb128 0xb
 2261 015b 3B       		.uleb128 0x3b
 2262 015c 0B       		.uleb128 0xb
 2263 015d 27       		.uleb128 0x27
 2264 015e 19       		.uleb128 0x19
 2265 015f 11       		.uleb128 0x11
 2266 0160 01       		.uleb128 0x1
 2267 0161 12       		.uleb128 0x12
 2268 0162 06       		.uleb128 0x6
 2269 0163 40       		.uleb128 0x40
 2270 0164 18       		.uleb128 0x18
 2271 0165 9742     		.uleb128 0x2117
 2272 0167 19       		.uleb128 0x19
 2273 0168 01       		.uleb128 0x1
 2274 0169 13       		.uleb128 0x13
 2275 016a 00       		.byte	0
 2276 016b 00       		.byte	0
 2277 016c 1E       		.uleb128 0x1e
 2278 016d 1D       		.uleb128 0x1d
 2279 016e 01       		.byte	0x1
 2280 016f 31       		.uleb128 0x31
ARM GAS  /tmp/ccljeNQA.s 			page 41


 2281 0170 13       		.uleb128 0x13
 2282 0171 52       		.uleb128 0x52
 2283 0172 01       		.uleb128 0x1
 2284 0173 55       		.uleb128 0x55
 2285 0174 17       		.uleb128 0x17
 2286 0175 58       		.uleb128 0x58
 2287 0176 0B       		.uleb128 0xb
 2288 0177 59       		.uleb128 0x59
 2289 0178 0B       		.uleb128 0xb
 2290 0179 01       		.uleb128 0x1
 2291 017a 13       		.uleb128 0x13
 2292 017b 00       		.byte	0
 2293 017c 00       		.byte	0
 2294 017d 1F       		.uleb128 0x1f
 2295 017e 898201   		.uleb128 0x4109
 2296 0181 01       		.byte	0x1
 2297 0182 11       		.uleb128 0x11
 2298 0183 01       		.uleb128 0x1
 2299 0184 31       		.uleb128 0x31
 2300 0185 13       		.uleb128 0x13
 2301 0186 01       		.uleb128 0x1
 2302 0187 13       		.uleb128 0x13
 2303 0188 00       		.byte	0
 2304 0189 00       		.byte	0
 2305 018a 20       		.uleb128 0x20
 2306 018b 8A8201   		.uleb128 0x410a
 2307 018e 00       		.byte	0
 2308 018f 02       		.uleb128 0x2
 2309 0190 18       		.uleb128 0x18
 2310 0191 9142     		.uleb128 0x2111
 2311 0193 18       		.uleb128 0x18
 2312 0194 00       		.byte	0
 2313 0195 00       		.byte	0
 2314 0196 21       		.uleb128 0x21
 2315 0197 898201   		.uleb128 0x4109
 2316 019a 01       		.byte	0x1
 2317 019b 11       		.uleb128 0x11
 2318 019c 01       		.uleb128 0x1
 2319 019d 31       		.uleb128 0x31
 2320 019e 13       		.uleb128 0x13
 2321 019f 00       		.byte	0
 2322 01a0 00       		.byte	0
 2323 01a1 22       		.uleb128 0x22
 2324 01a2 898201   		.uleb128 0x4109
 2325 01a5 01       		.byte	0x1
 2326 01a6 11       		.uleb128 0x11
 2327 01a7 01       		.uleb128 0x1
 2328 01a8 9542     		.uleb128 0x2115
 2329 01aa 19       		.uleb128 0x19
 2330 01ab 31       		.uleb128 0x31
 2331 01ac 13       		.uleb128 0x13
 2332 01ad 00       		.byte	0
 2333 01ae 00       		.byte	0
 2334 01af 23       		.uleb128 0x23
 2335 01b0 2E       		.uleb128 0x2e
 2336 01b1 01       		.byte	0x1
 2337 01b2 3F       		.uleb128 0x3f
ARM GAS  /tmp/ccljeNQA.s 			page 42


 2338 01b3 19       		.uleb128 0x19
 2339 01b4 03       		.uleb128 0x3
 2340 01b5 0E       		.uleb128 0xe
 2341 01b6 3A       		.uleb128 0x3a
 2342 01b7 0B       		.uleb128 0xb
 2343 01b8 3B       		.uleb128 0x3b
 2344 01b9 0B       		.uleb128 0xb
 2345 01ba 27       		.uleb128 0x27
 2346 01bb 19       		.uleb128 0x19
 2347 01bc 49       		.uleb128 0x49
 2348 01bd 13       		.uleb128 0x13
 2349 01be 11       		.uleb128 0x11
 2350 01bf 01       		.uleb128 0x1
 2351 01c0 12       		.uleb128 0x12
 2352 01c1 06       		.uleb128 0x6
 2353 01c2 40       		.uleb128 0x40
 2354 01c3 18       		.uleb128 0x18
 2355 01c4 9742     		.uleb128 0x2117
 2356 01c6 19       		.uleb128 0x19
 2357 01c7 01       		.uleb128 0x1
 2358 01c8 13       		.uleb128 0x13
 2359 01c9 00       		.byte	0
 2360 01ca 00       		.byte	0
 2361 01cb 24       		.uleb128 0x24
 2362 01cc 05       		.uleb128 0x5
 2363 01cd 00       		.byte	0
 2364 01ce 03       		.uleb128 0x3
 2365 01cf 08       		.uleb128 0x8
 2366 01d0 3A       		.uleb128 0x3a
 2367 01d1 0B       		.uleb128 0xb
 2368 01d2 3B       		.uleb128 0x3b
 2369 01d3 0B       		.uleb128 0xb
 2370 01d4 49       		.uleb128 0x49
 2371 01d5 13       		.uleb128 0x13
 2372 01d6 02       		.uleb128 0x2
 2373 01d7 17       		.uleb128 0x17
 2374 01d8 00       		.byte	0
 2375 01d9 00       		.byte	0
 2376 01da 25       		.uleb128 0x25
 2377 01db 34       		.uleb128 0x34
 2378 01dc 00       		.byte	0
 2379 01dd 03       		.uleb128 0x3
 2380 01de 08       		.uleb128 0x8
 2381 01df 3A       		.uleb128 0x3a
 2382 01e0 0B       		.uleb128 0xb
 2383 01e1 3B       		.uleb128 0x3b
 2384 01e2 0B       		.uleb128 0xb
 2385 01e3 49       		.uleb128 0x49
 2386 01e4 13       		.uleb128 0x13
 2387 01e5 02       		.uleb128 0x2
 2388 01e6 18       		.uleb128 0x18
 2389 01e7 00       		.byte	0
 2390 01e8 00       		.byte	0
 2391 01e9 26       		.uleb128 0x26
 2392 01ea 34       		.uleb128 0x34
 2393 01eb 00       		.byte	0
 2394 01ec 03       		.uleb128 0x3
ARM GAS  /tmp/ccljeNQA.s 			page 43


 2395 01ed 0E       		.uleb128 0xe
 2396 01ee 3A       		.uleb128 0x3a
 2397 01ef 0B       		.uleb128 0xb
 2398 01f0 3B       		.uleb128 0x3b
 2399 01f1 0B       		.uleb128 0xb
 2400 01f2 49       		.uleb128 0x49
 2401 01f3 13       		.uleb128 0x13
 2402 01f4 1C       		.uleb128 0x1c
 2403 01f5 0A       		.uleb128 0xa
 2404 01f6 00       		.byte	0
 2405 01f7 00       		.byte	0
 2406 01f8 27       		.uleb128 0x27
 2407 01f9 34       		.uleb128 0x34
 2408 01fa 00       		.byte	0
 2409 01fb 03       		.uleb128 0x3
 2410 01fc 0E       		.uleb128 0xe
 2411 01fd 3A       		.uleb128 0x3a
 2412 01fe 0B       		.uleb128 0xb
 2413 01ff 3B       		.uleb128 0x3b
 2414 0200 05       		.uleb128 0x5
 2415 0201 49       		.uleb128 0x49
 2416 0202 13       		.uleb128 0x13
 2417 0203 3F       		.uleb128 0x3f
 2418 0204 19       		.uleb128 0x19
 2419 0205 3C       		.uleb128 0x3c
 2420 0206 19       		.uleb128 0x19
 2421 0207 00       		.byte	0
 2422 0208 00       		.byte	0
 2423 0209 28       		.uleb128 0x28
 2424 020a 34       		.uleb128 0x34
 2425 020b 00       		.byte	0
 2426 020c 03       		.uleb128 0x3
 2427 020d 08       		.uleb128 0x8
 2428 020e 3A       		.uleb128 0x3a
 2429 020f 0B       		.uleb128 0xb
 2430 0210 3B       		.uleb128 0x3b
 2431 0211 05       		.uleb128 0x5
 2432 0212 49       		.uleb128 0x49
 2433 0213 13       		.uleb128 0x13
 2434 0214 3F       		.uleb128 0x3f
 2435 0215 19       		.uleb128 0x19
 2436 0216 3C       		.uleb128 0x3c
 2437 0217 19       		.uleb128 0x19
 2438 0218 00       		.byte	0
 2439 0219 00       		.byte	0
 2440 021a 29       		.uleb128 0x29
 2441 021b 2E       		.uleb128 0x2e
 2442 021c 01       		.byte	0x1
 2443 021d 3F       		.uleb128 0x3f
 2444 021e 19       		.uleb128 0x19
 2445 021f 03       		.uleb128 0x3
 2446 0220 0E       		.uleb128 0xe
 2447 0221 3A       		.uleb128 0x3a
 2448 0222 0B       		.uleb128 0xb
 2449 0223 3B       		.uleb128 0x3b
 2450 0224 05       		.uleb128 0x5
 2451 0225 27       		.uleb128 0x27
ARM GAS  /tmp/ccljeNQA.s 			page 44


 2452 0226 19       		.uleb128 0x19
 2453 0227 3C       		.uleb128 0x3c
 2454 0228 19       		.uleb128 0x19
 2455 0229 01       		.uleb128 0x1
 2456 022a 13       		.uleb128 0x13
 2457 022b 00       		.byte	0
 2458 022c 00       		.byte	0
 2459 022d 2A       		.uleb128 0x2a
 2460 022e 2E       		.uleb128 0x2e
 2461 022f 01       		.byte	0x1
 2462 0230 3F       		.uleb128 0x3f
 2463 0231 19       		.uleb128 0x19
 2464 0232 03       		.uleb128 0x3
 2465 0233 0E       		.uleb128 0xe
 2466 0234 3A       		.uleb128 0x3a
 2467 0235 0B       		.uleb128 0xb
 2468 0236 3B       		.uleb128 0x3b
 2469 0237 0B       		.uleb128 0xb
 2470 0238 27       		.uleb128 0x27
 2471 0239 19       		.uleb128 0x19
 2472 023a 3C       		.uleb128 0x3c
 2473 023b 19       		.uleb128 0x19
 2474 023c 01       		.uleb128 0x1
 2475 023d 13       		.uleb128 0x13
 2476 023e 00       		.byte	0
 2477 023f 00       		.byte	0
 2478 0240 00       		.byte	0
 2479              		.section	.debug_loc,"",%progbits
 2480              	.Ldebug_loc0:
 2481              	.LLST0:
 2482 0000 00000000 		.4byte	.LVL11
 2483 0004 12000000 		.4byte	.LVL12
 2484 0008 0100     		.2byte	0x1
 2485 000a 50       		.byte	0x50
 2486 000b 12000000 		.4byte	.LVL12
 2487 000f 15000000 		.4byte	.LVL13-1
 2488 0013 0200     		.2byte	0x2
 2489 0015 71       		.byte	0x71
 2490 0016 00       		.sleb128 0
 2491 0017 15000000 		.4byte	.LVL13-1
 2492 001b 20000000 		.4byte	.LFE259
 2493 001f 0200     		.2byte	0x2
 2494 0021 91       		.byte	0x91
 2495 0022 6F       		.sleb128 -17
 2496 0023 00000000 		.4byte	0
 2497 0027 00000000 		.4byte	0
 2498              		.section	.debug_aranges,"",%progbits
 2499 0000 24000000 		.4byte	0x24
 2500 0004 0200     		.2byte	0x2
 2501 0006 00000000 		.4byte	.Ldebug_info0
 2502 000a 04       		.byte	0x4
 2503 000b 00       		.byte	0
 2504 000c 0000     		.2byte	0
 2505 000e 0000     		.2byte	0
 2506 0010 00000000 		.4byte	.LFB258
 2507 0014 A0000000 		.4byte	.LFE258-.LFB258
 2508 0018 00000000 		.4byte	.LFB259
ARM GAS  /tmp/ccljeNQA.s 			page 45


 2509 001c 20000000 		.4byte	.LFE259-.LFB259
 2510 0020 00000000 		.4byte	0
 2511 0024 00000000 		.4byte	0
 2512              		.section	.debug_ranges,"",%progbits
 2513              	.Ldebug_ranges0:
 2514 0000 44000000 		.4byte	.LBB8
 2515 0004 7A000000 		.4byte	.LBE8
 2516 0008 7E000000 		.4byte	.LBB15
 2517 000c 80000000 		.4byte	.LBE15
 2518 0010 00000000 		.4byte	0
 2519 0014 00000000 		.4byte	0
 2520 0018 7A000000 		.4byte	.LBB11
 2521 001c 7E000000 		.4byte	.LBE11
 2522 0020 80000000 		.4byte	.LBB16
 2523 0024 8A000000 		.4byte	.LBE16
 2524 0028 8E000000 		.4byte	.LBB17
 2525 002c A0000000 		.4byte	.LBE17
 2526 0030 00000000 		.4byte	0
 2527 0034 00000000 		.4byte	0
 2528 0038 00000000 		.4byte	.LFB258
 2529 003c A0000000 		.4byte	.LFE258
 2530 0040 00000000 		.4byte	.LFB259
 2531 0044 20000000 		.4byte	.LFE259
 2532 0048 00000000 		.4byte	0
 2533 004c 00000000 		.4byte	0
 2534              		.section	.debug_line,"",%progbits
 2535              	.Ldebug_line0:
 2536 0000 E9020000 		.section	.debug_str,"MS",%progbits,1
 2536      0200A002 
 2536      00000201 
 2536      FB0E0D00 
 2536      01010101 
 2537              	.LASF157:
 2538 0000 68616C52 		.ascii	"halRadioSpiInit\000"
 2538      6164696F 
 2538      53706949 
 2538      6E697400 
 2539              	.LASF147:
 2540 0010 646D6172 		.ascii	"dmarx\000"
 2540      7800
 2541              	.LASF55:
 2542 0016 72656164 		.ascii	"ready_list_t\000"
 2542      795F6C69 
 2542      73745F74 
 2542      00
 2543              	.LASF85:
 2544 0023 4D304152 		.ascii	"M0AR\000"
 2544      00
 2545              	.LASF100:
 2546 0028 7264796D 		.ascii	"rdymsg\000"
 2546      736700
 2547              	.LASF18:
 2548 002f 75696E74 		.ascii	"uint64_t\000"
 2548      36345F74 
 2548      00
 2549              	.LASF120:
 2550 0038 76656374 		.ascii	"vector\000"
ARM GAS  /tmp/ccljeNQA.s 			page 46


 2550      6F7200
 2551              	.LASF1:
 2552 003f 7369676E 		.ascii	"signed char\000"
 2552      65642063 
 2552      68617200 
 2553              	.LASF4:
 2554 004b 5F5F7569 		.ascii	"__uint8_t\000"
 2554      6E74385F 
 2554      7400
 2555              	.LASF139:
 2556 0055 5350495F 		.ascii	"SPI_ACTIVE\000"
 2556      41435449 
 2556      564500
 2557              	.LASF97:
 2558 0060 706F7274 		.ascii	"port_intctx\000"
 2558      5F696E74 
 2558      63747800 
 2559              	.LASF74:
 2560 006c 73797374 		.ascii	"system_debug_t\000"
 2560      656D5F64 
 2560      65627567 
 2560      5F7400
 2561              	.LASF125:
 2562 007b 4F545950 		.ascii	"OTYPER\000"
 2562      455200
 2563              	.LASF116:
 2564 0082 73747265 		.ascii	"stream\000"
 2564      616D00
 2565              	.LASF124:
 2566 0089 4D4F4445 		.ascii	"MODER\000"
 2566      5200
 2567              	.LASF13:
 2568 008f 6C6F6E67 		.ascii	"long long unsigned int\000"
 2568      206C6F6E 
 2568      6720756E 
 2568      7369676E 
 2568      65642069 
 2569              	.LASF138:
 2570 00a6 5350495F 		.ascii	"SPI_READY\000"
 2570      52454144 
 2570      5900
 2571              	.LASF127:
 2572 00b0 50555044 		.ascii	"PUPDR\000"
 2572      5200
 2573              	.LASF101:
 2574 00b6 65786974 		.ascii	"exitcode\000"
 2574      636F6465 
 2574      00
 2575              	.LASF81:
 2576 00bf 6D61696E 		.ascii	"mainthread\000"
 2576      74687265 
 2576      616400
 2577              	.LASF142:
 2578 00ca 53504944 		.ascii	"SPIDriver\000"
 2578      72697665 
 2578      7200
 2579              	.LASF153:
ARM GAS  /tmp/ccljeNQA.s 			page 47


 2580 00d4 7373706F 		.ascii	"ssport\000"
 2580      727400
 2581              	.LASF71:
 2582 00db 76697274 		.ascii	"virtual_timers_list_t\000"
 2582      75616C5F 
 2582      74696D65 
 2582      72735F6C 
 2582      6973745F 
 2583              	.LASF159:
 2584 00f1 49544D5F 		.ascii	"ITM_RxBuffer\000"
 2584      52784275 
 2584      66666572 
 2584      00
 2585              	.LASF54:
 2586 00fe 63685F74 		.ascii	"ch_threads_queue\000"
 2586      68726561 
 2586      64735F71 
 2586      75657565 
 2586      00
 2587              	.LASF32:
 2588 010f 705F7072 		.ascii	"p_prio\000"
 2588      696F00
 2589              	.LASF154:
 2590 0116 73737061 		.ascii	"sspad\000"
 2590      6400
 2591              	.LASF11:
 2592 011c 6C6F6E67 		.ascii	"long long int\000"
 2592      206C6F6E 
 2592      6720696E 
 2592      7400
 2593              	.LASF128:
 2594 012a 42535252 		.ascii	"BSRR\000"
 2594      00
 2595              	.LASF137:
 2596 012f 5350495F 		.ascii	"SPI_STOP\000"
 2596      53544F50 
 2596      00
 2597              	.LASF91:
 2598 0138 49325343 		.ascii	"I2SCFGR\000"
 2598      46475200 
 2599              	.LASF111:
 2600 0140 6D5F7175 		.ascii	"m_queue\000"
 2600      65756500 
 2601              	.LASF80:
 2602 0148 76746C69 		.ascii	"vtlist\000"
 2602      737400
 2603              	.LASF23:
 2604 014f 74736C69 		.ascii	"tslices_t\000"
 2604      6365735F 
 2604      7400
 2605              	.LASF143:
 2606 0159 73746174 		.ascii	"state\000"
 2606      6500
 2607              	.LASF78:
 2608 015f 63685F73 		.ascii	"ch_system\000"
 2608      79737465 
 2608      6D00
ARM GAS  /tmp/ccljeNQA.s 			page 48


 2609              	.LASF8:
 2610 0169 6C6F6E67 		.ascii	"long int\000"
 2610      20696E74 
 2610      00
 2611              	.LASF21:
 2612 0172 74737461 		.ascii	"tstate_t\000"
 2612      74655F74 
 2612      00
 2613              	.LASF34:
 2614 017b 705F6E65 		.ascii	"p_newer\000"
 2614      77657200 
 2615              	.LASF152:
 2616 0183 656E645F 		.ascii	"end_cb\000"
 2616      636200
 2617              	.LASF149:
 2618 018a 7278646D 		.ascii	"rxdmamode\000"
 2618      616D6F64 
 2618      6500
 2619              	.LASF148:
 2620 0194 646D6174 		.ascii	"dmatx\000"
 2620      7800
 2621              	.LASF126:
 2622 019a 4F535045 		.ascii	"OSPEEDR\000"
 2622      45445200 
 2623              	.LASF60:
 2624 01a2 725F6E65 		.ascii	"r_newer\000"
 2624      77657200 
 2625              	.LASF48:
 2626 01aa 705F6D70 		.ascii	"p_mpool\000"
 2626      6F6F6C00 
 2627              	.LASF94:
 2628 01b2 72656761 		.ascii	"regarm_t\000"
 2628      726D5F74 
 2628      00
 2629              	.LASF67:
 2630 01bb 76745F70 		.ascii	"vt_prev\000"
 2630      72657600 
 2631              	.LASF166:
 2632 01c3 68616C53 		.ascii	"halSpiExc\000"
 2632      70694578 
 2632      6300
 2633              	.LASF151:
 2634 01cd 73706963 		.ascii	"spicallback_t\000"
 2634      616C6C62 
 2634      61636B5F 
 2634      7400
 2635              	.LASF132:
 2636 01db 73746D33 		.ascii	"stm32_gpio_t\000"
 2636      325F6770 
 2636      696F5F74 
 2636      00
 2637              	.LASF115:
 2638 01e8 6D757465 		.ascii	"mutex_t\000"
 2638      785F7400 
 2639              	.LASF82:
 2640 01f0 69646C65 		.ascii	"idle_thread_wa\000"
 2640      5F746872 
ARM GAS  /tmp/ccljeNQA.s 			page 49


 2640      6561645F 
 2640      776100
 2641              	.LASF163:
 2642 01ff 63633235 		.ascii	"cc2520/driver/stm32_hw.c\000"
 2642      32302F64 
 2642      72697665 
 2642      722F7374 
 2642      6D33325F 
 2643              	.LASF27:
 2644 0218 636E745F 		.ascii	"cnt_t\000"
 2644      7400
 2645              	.LASF0:
 2646 021e 756E7369 		.ascii	"unsigned int\000"
 2646      676E6564 
 2646      20696E74 
 2646      00
 2647              	.LASF66:
 2648 022b 76745F6E 		.ascii	"vt_next\000"
 2648      65787400 
 2649              	.LASF15:
 2650 0233 75696E74 		.ascii	"uint16_t\000"
 2650      31365F74 
 2650      00
 2651              	.LASF41:
 2652 023c 705F7469 		.ascii	"p_time\000"
 2652      6D6500
 2653              	.LASF104:
 2654 0243 77747365 		.ascii	"wtsemp\000"
 2654      6D7000
 2655              	.LASF68:
 2656 024a 76745F64 		.ascii	"vt_delta\000"
 2656      656C7461 
 2656      00
 2657              	.LASF43:
 2658 0253 705F6D73 		.ascii	"p_msgqueue\000"
 2658      67717565 
 2658      756500
 2659              	.LASF129:
 2660 025e 4C434B52 		.ascii	"LCKR\000"
 2660      00
 2661              	.LASF118:
 2662 0263 69736869 		.ascii	"ishift\000"
 2662      667400
 2663              	.LASF109:
 2664 026a 735F636E 		.ascii	"s_cnt\000"
 2664      7400
 2665              	.LASF6:
 2666 0270 73686F72 		.ascii	"short unsigned int\000"
 2666      7420756E 
 2666      7369676E 
 2666      65642069 
 2666      6E7400
 2667              	.LASF51:
 2668 0283 63685F74 		.ascii	"ch_thread\000"
 2668      68726561 
 2668      6400
 2669              	.LASF25:
ARM GAS  /tmp/ccljeNQA.s 			page 50


 2670 028d 6D73675F 		.ascii	"msg_t\000"
 2670      7400
 2671              	.LASF77:
 2672 0293 63685F73 		.ascii	"ch_system_t\000"
 2672      79737465 
 2672      6D5F7400 
 2673              	.LASF20:
 2674 029f 746D6F64 		.ascii	"tmode_t\000"
 2674      655F7400 
 2675              	.LASF90:
 2676 02a7 54584352 		.ascii	"TXCRCR\000"
 2676      435200
 2677              	.LASF56:
 2678 02ae 63685F72 		.ascii	"ch_ready_list\000"
 2678      65616479 
 2678      5F6C6973 
 2678      7400
 2679              	.LASF26:
 2680 02bc 6576656E 		.ascii	"eventmask_t\000"
 2680      746D6173 
 2680      6B5F7400 
 2681              	.LASF7:
 2682 02c8 5F5F696E 		.ascii	"__int32_t\000"
 2682      7433325F 
 2682      7400
 2683              	.LASF95:
 2684 02d2 73746B61 		.ascii	"stkalign_t\000"
 2684      6C69676E 
 2684      5F7400
 2685              	.LASF50:
 2686 02dd 74687265 		.ascii	"threads_list_t\000"
 2686      6164735F 
 2686      6C697374 
 2686      5F7400
 2687              	.LASF108:
 2688 02ec 735F7175 		.ascii	"s_queue\000"
 2688      65756500 
 2689              	.LASF42:
 2690 02f4 705F7761 		.ascii	"p_waiting\000"
 2690      6974696E 
 2690      6700
 2691              	.LASF92:
 2692 02fe 49325350 		.ascii	"I2SPR\000"
 2692      5200
 2693              	.LASF83:
 2694 0304 73697A65 		.ascii	"sizetype\000"
 2694      74797065 
 2694      00
 2695              	.LASF49:
 2696 030d 74687265 		.ascii	"thread_reference_t\000"
 2696      61645F72 
 2696      65666572 
 2696      656E6365 
 2696      5F7400
 2697              	.LASF72:
 2698 0320 63685F76 		.ascii	"ch_virtual_timers_list\000"
 2698      69727475 
ARM GAS  /tmp/ccljeNQA.s 			page 51


 2698      616C5F74 
 2698      696D6572 
 2698      735F6C69 
 2699              	.LASF123:
 2700 0337 636C6561 		.ascii	"clear\000"
 2700      7200
 2701              	.LASF103:
 2702 033d 77747472 		.ascii	"wttrp\000"
 2702      7000
 2703              	.LASF99:
 2704 0343 746D5F63 		.ascii	"tm_calibration_t\000"
 2704      616C6962 
 2704      72617469 
 2704      6F6E5F74 
 2704      00
 2705              	.LASF133:
 2706 0354 696F706F 		.ascii	"ioportmask_t\000"
 2706      72746D61 
 2706      736B5F74 
 2706      00
 2707              	.LASF35:
 2708 0361 705F6F6C 		.ascii	"p_older\000"
 2708      64657200 
 2709              	.LASF59:
 2710 0369 725F6374 		.ascii	"r_ctx\000"
 2710      7800
 2711              	.LASF156:
 2712 036f 68616C4D 		.ascii	"halMcuRfInterfaceInit\000"
 2712      63755266 
 2712      496E7465 
 2712      72666163 
 2712      65496E69 
 2713              	.LASF150:
 2714 0385 7478646D 		.ascii	"txdmamode\000"
 2714      616D6F64 
 2714      6500
 2715              	.LASF158:
 2716 038f 73706963 		.ascii	"spicfg\000"
 2716      666700
 2717              	.LASF62:
 2718 0396 725F6375 		.ascii	"r_current\000"
 2718      7272656E 
 2718      7400
 2719              	.LASF61:
 2720 03a0 725F6F6C 		.ascii	"r_older\000"
 2720      64657200 
 2721              	.LASF12:
 2722 03a8 5F5F7569 		.ascii	"__uint64_t\000"
 2722      6E743634 
 2722      5F7400
 2723              	.LASF131:
 2724 03b3 41465248 		.ascii	"AFRH\000"
 2724      00
 2725              	.LASF88:
 2726 03b8 43524350 		.ascii	"CRCPR\000"
 2726      5200
 2727              	.LASF130:
ARM GAS  /tmp/ccljeNQA.s 			page 52


 2728 03be 4146524C 		.ascii	"AFRL\000"
 2728      00
 2729              	.LASF22:
 2730 03c3 74726566 		.ascii	"trefs_t\000"
 2730      735F7400 
 2731              	.LASF64:
 2732 03cb 76697274 		.ascii	"virtual_timer_t\000"
 2732      75616C5F 
 2732      74696D65 
 2732      725F7400 
 2733              	.LASF31:
 2734 03db 705F7072 		.ascii	"p_prev\000"
 2734      657600
 2735              	.LASF121:
 2736 03e2 73746D33 		.ascii	"stm32_dma_stream_t\000"
 2736      325F646D 
 2736      615F7374 
 2736      7265616D 
 2736      5F7400
 2737              	.LASF24:
 2738 03f5 74707269 		.ascii	"tprio_t\000"
 2738      6F5F7400 
 2739              	.LASF164:
 2740 03fd 2F686F6D 		.ascii	"/home/benjamin/Skrivbord/SP-RCCar/Embedded/Mote/\000"
 2740      652F6265 
 2740      6E6A616D 
 2740      696E2F53 
 2740      6B726976 
 2741              	.LASF146:
 2742 042e 6D757465 		.ascii	"mutex\000"
 2742      7800
 2743              	.LASF75:
 2744 0434 63685F73 		.ascii	"ch_system_debug\000"
 2744      79737465 
 2744      6D5F6465 
 2744      62756700 
 2745              	.LASF122:
 2746 0444 5F426F6F 		.ascii	"_Bool\000"
 2746      6C00
 2747              	.LASF16:
 2748 044a 696E7433 		.ascii	"int32_t\000"
 2748      325F7400 
 2749              	.LASF2:
 2750 0452 756E7369 		.ascii	"unsigned char\000"
 2750      676E6564 
 2750      20636861 
 2750      7200
 2751              	.LASF46:
 2752 0460 705F6D74 		.ascii	"p_mtxlist\000"
 2752      786C6973 
 2752      7400
 2753              	.LASF3:
 2754 046a 73686F72 		.ascii	"short int\000"
 2754      7420696E 
 2754      7400
 2755              	.LASF37:
 2756 0474 705F7374 		.ascii	"p_state\000"
ARM GAS  /tmp/ccljeNQA.s 			page 53


 2756      61746500 
 2757              	.LASF40:
 2758 047c 705F7072 		.ascii	"p_preempt\000"
 2758      65656D70 
 2758      7400
 2759              	.LASF58:
 2760 0486 725F7072 		.ascii	"r_prio\000"
 2760      696F00
 2761              	.LASF106:
 2762 048d 65776D61 		.ascii	"ewmask\000"
 2762      736B00
 2763              	.LASF30:
 2764 0494 705F6E65 		.ascii	"p_next\000"
 2764      787400
 2765              	.LASF38:
 2766 049b 705F666C 		.ascii	"p_flags\000"
 2766      61677300 
 2767              	.LASF107:
 2768 04a3 63685F73 		.ascii	"ch_semaphore\000"
 2768      656D6170 
 2768      686F7265 
 2768      00
 2769              	.LASF45:
 2770 04b0 705F6570 		.ascii	"p_epending\000"
 2770      656E6469 
 2770      6E6700
 2771              	.LASF117:
 2772 04bb 69666372 		.ascii	"ifcr\000"
 2772      00
 2773              	.LASF17:
 2774 04c0 75696E74 		.ascii	"uint32_t\000"
 2774      33325F74 
 2774      00
 2775              	.LASF105:
 2776 04c9 77746D74 		.ascii	"wtmtxp\000"
 2776      787000
 2777              	.LASF57:
 2778 04d0 725F7175 		.ascii	"r_queue\000"
 2778      65756500 
 2779              	.LASF52:
 2780 04d8 63685F74 		.ascii	"ch_threads_list\000"
 2780      68726561 
 2780      64735F6C 
 2780      69737400 
 2781              	.LASF10:
 2782 04e8 6C6F6E67 		.ascii	"long unsigned int\000"
 2782      20756E73 
 2782      69676E65 
 2782      6420696E 
 2782      7400
 2783              	.LASF93:
 2784 04fa 5350495F 		.ascii	"SPI_TypeDef\000"
 2784      54797065 
 2784      44656600 
 2785              	.LASF114:
 2786 0506 63686172 		.ascii	"char\000"
 2786      00
ARM GAS  /tmp/ccljeNQA.s 			page 54


 2787              	.LASF165:
 2788 050b 68616C41 		.ascii	"halAssyInit\000"
 2788      73737949 
 2788      6E697400 
 2789              	.LASF140:
 2790 0517 5350495F 		.ascii	"SPI_COMPLETE\000"
 2790      434F4D50 
 2790      4C455445 
 2790      00
 2791              	.LASF144:
 2792 0524 636F6E66 		.ascii	"config\000"
 2792      696700
 2793              	.LASF5:
 2794 052b 5F5F7569 		.ascii	"__uint16_t\000"
 2794      6E743136 
 2794      5F7400
 2795              	.LASF162:
 2796 0536 474E5520 		.ascii	"GNU C 4.9.3 20150529 (release) [ARM/embedded-4_9-br"
 2796      4320342E 
 2796      392E3320 
 2796      32303135 
 2796      30353239 
 2797 0569 616E6368 		.ascii	"anch revision 227977] -mcpu=cortex-m4 -mfloat-abi=h"
 2797      20726576 
 2797      6973696F 
 2797      6E203232 
 2797      37393737 
 2798 059c 61726420 		.ascii	"ard -mfpu=fpv4-sp-d16 -mno-thumb-interwork -mthumb "
 2798      2D6D6670 
 2798      753D6670 
 2798      76342D73 
 2798      702D6431 
 2799 05cf 2D676764 		.ascii	"-ggdb -O2 -std=gnu99 -fomit-frame-pointer -falign-f"
 2799      62202D4F 
 2799      32202D73 
 2799      74643D67 
 2799      6E753939 
 2800 0602 756E6374 		.ascii	"unctions=16 -ffunction-sections -fdata-sections -fn"
 2800      696F6E73 
 2800      3D313620 
 2800      2D666675 
 2800      6E637469 
 2801 0635 6F2D636F 		.ascii	"o-common -fsingle-precision-constant\000"
 2801      6D6D6F6E 
 2801      202D6673 
 2801      696E676C 
 2801      652D7072 
 2802              	.LASF141:
 2803 065a 73706973 		.ascii	"spistate_t\000"
 2803      74617465 
 2803      5F7400
 2804              	.LASF113:
 2805 0665 6D5F6E65 		.ascii	"m_next\000"
 2805      787400
 2806              	.LASF28:
 2807 066c 73797374 		.ascii	"systime_t\000"
 2807      696D655F 
ARM GAS  /tmp/ccljeNQA.s 			page 55


 2807      7400
 2808              	.LASF47:
 2809 0676 705F7265 		.ascii	"p_realprio\000"
 2809      616C7072 
 2809      696F00
 2810              	.LASF63:
 2811 0681 76746675 		.ascii	"vtfunc_t\000"
 2811      6E635F74 
 2811      00
 2812              	.LASF9:
 2813 068a 5F5F7569 		.ascii	"__uint32_t\000"
 2813      6E743332 
 2813      5F7400
 2814              	.LASF145:
 2815 0695 74687265 		.ascii	"thread\000"
 2815      616400
 2816              	.LASF84:
 2817 069c 4E445452 		.ascii	"NDTR\000"
 2817      00
 2818              	.LASF76:
 2819 06a1 70616E69 		.ascii	"panic_msg\000"
 2819      635F6D73 
 2819      6700
 2820              	.LASF98:
 2821 06ab 6F666673 		.ascii	"offset\000"
 2821      657400
 2822              	.LASF87:
 2823 06b2 444D415F 		.ascii	"DMA_Stream_TypeDef\000"
 2823      53747265 
 2823      616D5F54 
 2823      79706544 
 2823      656600
 2824              	.LASF135:
 2825 06c5 696F706F 		.ascii	"ioportid_t\000"
 2825      72746964 
 2825      5F7400
 2826              	.LASF96:
 2827 06d0 636F6E74 		.ascii	"context\000"
 2827      65787400 
 2828              	.LASF160:
 2829 06d8 5F70616C 		.ascii	"_pal_lld_setgroupmode\000"
 2829      5F6C6C64 
 2829      5F736574 
 2829      67726F75 
 2829      706D6F64 
 2830              	.LASF65:
 2831 06ee 63685F76 		.ascii	"ch_virtual_timer\000"
 2831      69727475 
 2831      616C5F74 
 2831      696D6572 
 2831      00
 2832              	.LASF19:
 2833 06ff 7274636E 		.ascii	"rtcnt_t\000"
 2833      745F7400 
 2834              	.LASF86:
 2835 0707 4D314152 		.ascii	"M1AR\000"
 2835      00
ARM GAS  /tmp/ccljeNQA.s 			page 56


 2836              	.LASF136:
 2837 070c 5350495F 		.ascii	"SPI_UNINIT\000"
 2837      554E494E 
 2837      495400
 2838              	.LASF119:
 2839 0717 73656C66 		.ascii	"selfindex\000"
 2839      696E6465 
 2839      7800
 2840              	.LASF70:
 2841 0721 76745F70 		.ascii	"vt_par\000"
 2841      617200
 2842              	.LASF53:
 2843 0728 74687265 		.ascii	"threads_queue_t\000"
 2843      6164735F 
 2843      71756575 
 2843      655F7400 
 2844              	.LASF110:
 2845 0738 63685F6D 		.ascii	"ch_mutex\000"
 2845      75746578 
 2845      00
 2846              	.LASF39:
 2847 0741 705F7265 		.ascii	"p_refs\000"
 2847      667300
 2848              	.LASF161:
 2849 0748 7370695F 		.ascii	"spi_sw_transfer\000"
 2849      73775F74 
 2849      72616E73 
 2849      66657200 
 2850              	.LASF29:
 2851 0758 74687265 		.ascii	"thread_t\000"
 2851      61645F74 
 2851      00
 2852              	.LASF89:
 2853 0761 52584352 		.ascii	"RXCRCR\000"
 2853      435200
 2854              	.LASF79:
 2855 0768 726C6973 		.ascii	"rlist\000"
 2855      7400
 2856              	.LASF14:
 2857 076e 75696E74 		.ascii	"uint8_t\000"
 2857      385F7400 
 2858              	.LASF102:
 2859 0776 77746F62 		.ascii	"wtobjp\000"
 2859      6A7000
 2860              	.LASF36:
 2861 077d 705F6E61 		.ascii	"p_name\000"
 2861      6D6500
 2862              	.LASF73:
 2863 0784 76745F73 		.ascii	"vt_systime\000"
 2863      79737469 
 2863      6D6500
 2864              	.LASF155:
 2865 078f 53504943 		.ascii	"SPIConfig\000"
 2865      6F6E6669 
 2865      6700
 2866              	.LASF44:
 2867 0799 705F6D73 		.ascii	"p_msg\000"
ARM GAS  /tmp/ccljeNQA.s 			page 57


 2867      6700
 2868              	.LASF134:
 2869 079f 696F6D6F 		.ascii	"iomode_t\000"
 2869      64655F74 
 2869      00
 2870              	.LASF112:
 2871 07a8 6D5F6F77 		.ascii	"m_owner\000"
 2871      6E657200 
 2872              	.LASF33:
 2873 07b0 705F6374 		.ascii	"p_ctx\000"
 2873      7800
 2874              	.LASF69:
 2875 07b6 76745F66 		.ascii	"vt_func\000"
 2875      756E6300 
 2876              		.ident	"GCC: (GNU Tools for ARM Embedded Processors) 4.9.3 20150529 (release) [ARM/embedded-4_9-br
ARM GAS  /tmp/ccljeNQA.s 			page 58


DEFINED SYMBOLS
                            *ABS*:0000000000000000 stm32_hw.c
     /tmp/ccljeNQA.s:21     .text.halAssyInit:0000000000000000 $t
     /tmp/ccljeNQA.s:27     .text.halAssyInit:0000000000000000 halAssyInit
     /tmp/ccljeNQA.s:147    .text.halAssyInit:0000000000000094 $d
     /tmp/ccljeNQA.s:156    .text.halSpiExc:0000000000000000 $t
     /tmp/ccljeNQA.s:162    .text.halSpiExc:0000000000000000 halSpiExc
                     .debug_frame:0000000000000010 $d

UNDEFINED SYMBOLS
_pal_lld_setgroupmode
spi_sw_transfer
