ARM GAS  /tmp/ccFc3tJS.s 			page 1


   1              		.syntax unified
   2              		.cpu cortex-m4
   3              		.eabi_attribute 27, 1
   4              		.eabi_attribute 28, 1
   5              		.fpu fpv4-sp-d16
   6              		.eabi_attribute 20, 1
   7              		.eabi_attribute 21, 1
   8              		.eabi_attribute 23, 3
   9              		.eabi_attribute 24, 1
  10              		.eabi_attribute 25, 1
  11              		.eabi_attribute 26, 1
  12              		.eabi_attribute 30, 2
  13              		.eabi_attribute 34, 1
  14              		.eabi_attribute 18, 4
  15              		.thumb
  16              		.file	"stm32f4xx_rng.c"
  17              		.text
  18              	.Ltext0:
  19              		.cfi_sections	.debug_frame
  20              		.section	.text.RNG_DeInit,"ax",%progbits
  21              		.align	2
  22              		.p2align 4,,15
  23              		.global	RNG_DeInit
  24              		.thumb
  25              		.thumb_func
  26              		.type	RNG_DeInit, %function
  27              	RNG_DeInit:
  28              	.LFB112:
  29              		.file 1 "ChibiOS_3.0.2/ext/stdperiph_stm32f4/src/stm32f4xx_rng.c"
  30              		.loc 1 104 0
  31              		.cfi_startproc
  32              		@ args = 0, pretend = 0, frame = 0
  33              		@ frame_needed = 0, uses_anonymous_args = 0
  34 0000 08B5     		push	{r3, lr}
  35              		.cfi_def_cfa_offset 8
  36              		.cfi_offset 3, -8
  37              		.cfi_offset 14, -4
  38              		.loc 1 107 0
  39 0002 4020     		movs	r0, #64
  40 0004 0121     		movs	r1, #1
  41 0006 FFF7FEFF 		bl	RCC_AHB2PeriphResetCmd
  42              	.LVL0:
  43              		.loc 1 110 0
  44 000a 4020     		movs	r0, #64
  45 000c 0021     		movs	r1, #0
  46              		.loc 1 119 0
  47 000e BDE80840 		pop	{r3, lr}
  48              		.cfi_restore 14
  49              		.cfi_restore 3
  50              		.cfi_def_cfa_offset 0
  51              		.loc 1 110 0
  52 0012 FFF7FEBF 		b	RCC_AHB2PeriphResetCmd
  53              	.LVL1:
  54              		.cfi_endproc
  55              	.LFE112:
  56              		.size	RNG_DeInit, .-RNG_DeInit
  57              		.section	.text.RNG_Cmd,"ax",%progbits
ARM GAS  /tmp/ccFc3tJS.s 			page 2


  58              		.align	2
  59              		.p2align 4,,15
  60              		.global	RNG_Cmd
  61              		.thumb
  62              		.thumb_func
  63              		.type	RNG_Cmd, %function
  64              	RNG_Cmd:
  65              	.LFB113:
  66              		.loc 1 128 0
  67              		.cfi_startproc
  68              		@ args = 0, pretend = 0, frame = 0
  69              		@ frame_needed = 0, uses_anonymous_args = 0
  70              		@ link register save eliminated.
  71              	.LVL2:
  72              		.loc 1 135 0
  73 0000 054A     		ldr	r2, .L8
  74 0002 1368     		ldr	r3, [r2]
  75              		.loc 1 132 0
  76 0004 18B9     		cbnz	r0, .L7
  77              		.loc 1 140 0
  78 0006 23F00403 		bic	r3, r3, #4
  79 000a 1360     		str	r3, [r2]
  80 000c 7047     		bx	lr
  81              	.L7:
  82              		.loc 1 135 0
  83 000e 43F00403 		orr	r3, r3, #4
  84 0012 1360     		str	r3, [r2]
  85 0014 7047     		bx	lr
  86              	.L9:
  87 0016 00BF     		.align	2
  88              	.L8:
  89 0018 00080650 		.word	1342572544
  90              		.cfi_endproc
  91              	.LFE113:
  92              		.size	RNG_Cmd, .-RNG_Cmd
  93              		.section	.text.RNG_GetRandomNumber,"ax",%progbits
  94              		.align	2
  95              		.p2align 4,,15
  96              		.global	RNG_GetRandomNumber
  97              		.thumb
  98              		.thumb_func
  99              		.type	RNG_GetRandomNumber, %function
 100              	RNG_GetRandomNumber:
 101              	.LFB114:
 102              		.loc 1 190 0
 103              		.cfi_startproc
 104              		@ args = 0, pretend = 0, frame = 0
 105              		@ frame_needed = 0, uses_anonymous_args = 0
 106              		@ link register save eliminated.
 107              		.loc 1 192 0
 108 0000 014B     		ldr	r3, .L11
 109 0002 9868     		ldr	r0, [r3, #8]
 110              		.loc 1 193 0
 111 0004 7047     		bx	lr
 112              	.L12:
 113 0006 00BF     		.align	2
 114              	.L11:
ARM GAS  /tmp/ccFc3tJS.s 			page 3


 115 0008 00080650 		.word	1342572544
 116              		.cfi_endproc
 117              	.LFE114:
 118              		.size	RNG_GetRandomNumber, .-RNG_GetRandomNumber
 119              		.section	.text.RNG_ITConfig,"ax",%progbits
 120              		.align	2
 121              		.p2align 4,,15
 122              		.global	RNG_ITConfig
 123              		.thumb
 124              		.thumb_func
 125              		.type	RNG_ITConfig, %function
 126              	RNG_ITConfig:
 127              	.LFB115:
 128              		.loc 1 281 0
 129              		.cfi_startproc
 130              		@ args = 0, pretend = 0, frame = 0
 131              		@ frame_needed = 0, uses_anonymous_args = 0
 132              		@ link register save eliminated.
 133              	.LVL3:
 134              		.loc 1 288 0
 135 0000 054A     		ldr	r2, .L17
 136 0002 1368     		ldr	r3, [r2]
 137              		.loc 1 285 0
 138 0004 18B9     		cbnz	r0, .L16
 139              		.loc 1 293 0
 140 0006 23F00803 		bic	r3, r3, #8
 141 000a 1360     		str	r3, [r2]
 142 000c 7047     		bx	lr
 143              	.L16:
 144              		.loc 1 288 0
 145 000e 43F00803 		orr	r3, r3, #8
 146 0012 1360     		str	r3, [r2]
 147 0014 7047     		bx	lr
 148              	.L18:
 149 0016 00BF     		.align	2
 150              	.L17:
 151 0018 00080650 		.word	1342572544
 152              		.cfi_endproc
 153              	.LFE115:
 154              		.size	RNG_ITConfig, .-RNG_ITConfig
 155              		.section	.text.RNG_GetFlagStatus,"ax",%progbits
 156              		.align	2
 157              		.p2align 4,,15
 158              		.global	RNG_GetFlagStatus
 159              		.thumb
 160              		.thumb_func
 161              		.type	RNG_GetFlagStatus, %function
 162              	RNG_GetFlagStatus:
 163              	.LFB116:
 164              		.loc 1 307 0
 165              		.cfi_startproc
 166              		@ args = 0, pretend = 0, frame = 0
 167              		@ frame_needed = 0, uses_anonymous_args = 0
 168              		@ link register save eliminated.
 169              	.LVL4:
 170              		.loc 1 313 0
 171 0000 034B     		ldr	r3, .L20
ARM GAS  /tmp/ccFc3tJS.s 			page 4


 172 0002 5B68     		ldr	r3, [r3, #4]
 173              	.LVL5:
 174 0004 1842     		tst	r0, r3
 175              		.loc 1 325 0
 176 0006 14BF     		ite	ne
 177 0008 0120     		movne	r0, #1
 178              	.LVL6:
 179 000a 0020     		moveq	r0, #0
 180 000c 7047     		bx	lr
 181              	.L21:
 182 000e 00BF     		.align	2
 183              	.L20:
 184 0010 00080650 		.word	1342572544
 185              		.cfi_endproc
 186              	.LFE116:
 187              		.size	RNG_GetFlagStatus, .-RNG_GetFlagStatus
 188              		.section	.text.RNG_ClearFlag,"ax",%progbits
 189              		.align	2
 190              		.p2align 4,,15
 191              		.global	RNG_ClearFlag
 192              		.thumb
 193              		.thumb_func
 194              		.type	RNG_ClearFlag, %function
 195              	RNG_ClearFlag:
 196              	.LFB117:
 197              		.loc 1 340 0
 198              		.cfi_startproc
 199              		@ args = 0, pretend = 0, frame = 0
 200              		@ frame_needed = 0, uses_anonymous_args = 0
 201              		@ link register save eliminated.
 202              	.LVL7:
 203              		.loc 1 344 0
 204 0000 024B     		ldr	r3, .L23
 205 0002 6FEA0010 		mvn	r0, r0, lsl #4
 206              	.LVL8:
 207 0006 5860     		str	r0, [r3, #4]
 208 0008 7047     		bx	lr
 209              	.L24:
 210 000a 00BF     		.align	2
 211              	.L23:
 212 000c 00080650 		.word	1342572544
 213              		.cfi_endproc
 214              	.LFE117:
 215              		.size	RNG_ClearFlag, .-RNG_ClearFlag
 216              		.section	.text.RNG_GetITStatus,"ax",%progbits
 217              		.align	2
 218              		.p2align 4,,15
 219              		.global	RNG_GetITStatus
 220              		.thumb
 221              		.thumb_func
 222              		.type	RNG_GetITStatus, %function
 223              	RNG_GetITStatus:
 224              	.LFB118:
 225              		.loc 1 356 0
 226              		.cfi_startproc
 227              		@ args = 0, pretend = 0, frame = 0
 228              		@ frame_needed = 0, uses_anonymous_args = 0
ARM GAS  /tmp/ccFc3tJS.s 			page 5


 229              		@ link register save eliminated.
 230              	.LVL9:
 231              		.loc 1 362 0
 232 0000 034B     		ldr	r3, .L26
 233 0002 5B68     		ldr	r3, [r3, #4]
 234              	.LVL10:
 235 0004 1842     		tst	r0, r3
 236              		.loc 1 374 0
 237 0006 14BF     		ite	ne
 238 0008 0120     		movne	r0, #1
 239              	.LVL11:
 240 000a 0020     		moveq	r0, #0
 241 000c 7047     		bx	lr
 242              	.L27:
 243 000e 00BF     		.align	2
 244              	.L26:
 245 0010 00080650 		.word	1342572544
 246              		.cfi_endproc
 247              	.LFE118:
 248              		.size	RNG_GetITStatus, .-RNG_GetITStatus
 249              		.section	.text.RNG_ClearITPendingBit,"ax",%progbits
 250              		.align	2
 251              		.p2align 4,,15
 252              		.global	RNG_ClearITPendingBit
 253              		.thumb
 254              		.thumb_func
 255              		.type	RNG_ClearITPendingBit, %function
 256              	RNG_ClearITPendingBit:
 257              	.LFB119:
 258              		.loc 1 386 0
 259              		.cfi_startproc
 260              		@ args = 0, pretend = 0, frame = 0
 261              		@ frame_needed = 0, uses_anonymous_args = 0
 262              		@ link register save eliminated.
 263              	.LVL12:
 264              		.loc 1 391 0
 265 0000 C043     		mvns	r0, r0
 266              	.LVL13:
 267 0002 024B     		ldr	r3, .L29
 268 0004 C0B2     		uxtb	r0, r0
 269 0006 5860     		str	r0, [r3, #4]
 270 0008 7047     		bx	lr
 271              	.L30:
 272 000a 00BF     		.align	2
 273              	.L29:
 274 000c 00080650 		.word	1342572544
 275              		.cfi_endproc
 276              	.LFE119:
 277              		.size	RNG_ClearITPendingBit, .-RNG_ClearITPendingBit
 278              		.text
 279              	.Letext0:
 280              		.file 2 "/usr/arm-none-eabi/include/machine/_default_types.h"
 281              		.file 3 "/usr/arm-none-eabi/include/sys/_stdint.h"
 282              		.file 4 "ChibiOS_3.0.2/os/ext/CMSIS/ST/stm32f407xx.h"
 283              		.file 5 "ChibiOS_3.0.2/os/ext/CMSIS/ST/stm32f4xx.h"
 284              		.file 6 "ChibiOS_3.0.2/os/ext/CMSIS/include/core_cm4.h"
 285              		.file 7 "ChibiOS_3.0.2/ext/stdperiph_stm32f4/inc/stm32f4xx_rcc.h"
ARM GAS  /tmp/ccFc3tJS.s 			page 6

