ARM GAS  /tmp/ccljeNQA.s 			page 1


   1              		.syntax unified
   2              		.cpu cortex-m4
   3              		.eabi_attribute 27, 1
   4              		.eabi_attribute 28, 1
   5              		.fpu fpv4-sp-d16
   6              		.eabi_attribute 20, 1
   7              		.eabi_attribute 21, 1
   8              		.eabi_attribute 23, 3
   9              		.eabi_attribute 24, 1
  10              		.eabi_attribute 25, 1
  11              		.eabi_attribute 26, 1
  12              		.eabi_attribute 30, 2
  13              		.eabi_attribute 34, 1
  14              		.eabi_attribute 18, 4
  15              		.thumb
  16              		.file	"stm32_hw.c"
  17              		.text
  18              	.Ltext0:
  19              		.cfi_sections	.debug_frame
  20              		.section	.text.halAssyInit,"ax",%progbits
  21              		.align	2
  22              		.p2align 4,,15
  23              		.global	halAssyInit
  24              		.thumb
  25              		.thumb_func
  26              		.type	halAssyInit, %function
  27              	halAssyInit:
  28              	.LFB258:
  29              		.file 1 "cc2520/driver/stm32_hw.c"
  30              		.loc 1 78 0
  31              		.cfi_startproc
  32              		@ args = 0, pretend = 0, frame = 0
  33              		@ frame_needed = 0, uses_anonymous_args = 0
  34 0000 38B5     		push	{r3, r4, r5, lr}
  35              		.cfi_def_cfa_offset 16
  36              		.cfi_offset 3, -16
  37              		.cfi_offset 4, -12
  38              		.cfi_offset 5, -8
  39              		.cfi_offset 14, -4
  40              		.loc 1 80 0
  41 0002 244D     		ldr	r5, .L3
  42              		.loc 1 79 0
  43 0004 2448     		ldr	r0, .L3+4
  44              		.loc 1 82 0
  45 0006 254C     		ldr	r4, .L3+8
  46              		.loc 1 79 0
  47 0008 8021     		movs	r1, #128
  48 000a 0022     		movs	r2, #0
  49 000c FFF7FEFF 		bl	_pal_lld_setgroupmode
  50              	.LVL0:
  51              		.loc 1 80 0
  52 0010 2846     		mov	r0, r5
  53 0012 1021     		movs	r1, #16
  54 0014 0022     		movs	r2, #0
  55 0016 FFF7FEFF 		bl	_pal_lld_setgroupmode
  56              	.LVL1:
  57              		.loc 1 81 0
ARM GAS  /tmp/ccljeNQA.s 			page 2


  58 001a 2846     		mov	r0, r5
  59 001c 2021     		movs	r1, #32
  60 001e 0022     		movs	r2, #0
  61 0020 FFF7FEFF 		bl	_pal_lld_setgroupmode
  62              	.LVL2:
  63              		.loc 1 82 0
  64 0024 2046     		mov	r0, r4
  65 0026 0121     		movs	r1, #1
  66 0028 0022     		movs	r2, #0
  67 002a FFF7FEFF 		bl	_pal_lld_setgroupmode
  68              	.LVL3:
  69              		.loc 1 83 0
  70 002e 2046     		mov	r0, r4
  71 0030 0221     		movs	r1, #2
  72 0032 0022     		movs	r2, #0
  73 0034 FFF7FEFF 		bl	_pal_lld_setgroupmode
  74              	.LVL4:
  75              		.loc 1 84 0
  76 0038 2046     		mov	r0, r4
  77 003a 4FF48061 		mov	r1, #1024
  78 003e 0022     		movs	r2, #0
  79 0040 FFF7FEFF 		bl	_pal_lld_setgroupmode
  80              	.LVL5:
  81              	.LBB8:
  82              	.LBB9:
  83              		.loc 1 40 0
  84 0044 4FF48051 		mov	r1, #4096
  85 0048 2183     		strh	r1, [r4, #24]	@ movhi
  86              		.loc 1 41 0
  87 004a 2046     		mov	r0, r4
  88 004c 1922     		movs	r2, #25
  89 004e FFF7FEFF 		bl	_pal_lld_setgroupmode
  90              	.LVL6:
  91              		.loc 1 42 0
  92 0052 2046     		mov	r0, r4
  93 0054 4FF40041 		mov	r1, #32768
  94 0058 0022     		movs	r2, #0
  95 005a FFF7FEFF 		bl	_pal_lld_setgroupmode
  96              	.LVL7:
  97 005e 2046     		mov	r0, r4
  98 0060 4FF40051 		mov	r1, #8192
  99 0064 0122     		movs	r2, #1
 100 0066 FFF7FEFF 		bl	_pal_lld_setgroupmode
 101              	.LVL8:
 102 006a 2046     		mov	r0, r4
 103 006c 4FF48041 		mov	r1, #16384
 104 0070 0122     		movs	r2, #1
 105 0072 FFF7FEFF 		bl	_pal_lld_setgroupmode
 106              	.LVL9:
 107 0076 4FF40052 		mov	r2, #8192
 108              	.LBE9:
 109              	.LBE8:
 110              	.LBB11:
 111              	.LBB12:
 112              		.loc 1 63 0
 113 007a 4FF00063 		mov	r3, #134217728
 114              	.LBE12:
ARM GAS  /tmp/ccljeNQA.s 			page 3


 115              	.LBE11:
 116              	.LBB15:
 117              	.LBB10:
 118              		.loc 1 42 0
 119 007e 6283     		strh	r2, [r4, #26]	@ movhi
 120              	.LBE10:
 121              	.LBE15:
 122              	.LBB16:
 123              	.LBB13:
 124              		.loc 1 63 0
 125 0080 A361     		str	r3, [r4, #24]
 126              		.loc 1 64 0
 127 0082 2046     		mov	r0, r4
 128 0084 4FF40061 		mov	r1, #2048
 129 0088 1922     		movs	r2, #25
 130              	.LBE13:
 131              	.LBE16:
 132              		.loc 1 91 0
 133 008a BDE83840 		pop	{r3, r4, r5, lr}
 134              		.cfi_restore 14
 135              		.cfi_restore 5
 136              		.cfi_restore 4
 137              		.cfi_restore 3
 138              		.cfi_def_cfa_offset 0
 139              	.LBB17:
 140              	.LBB14:
 141              		.loc 1 64 0
 142 008e FFF7FEBF 		b	_pal_lld_setgroupmode
 143              	.LVL10:
 144              	.L4:
 145 0092 00BF     		.align	2
 146              	.L3:
 147 0094 00080240 		.word	1073874944
 148 0098 00000240 		.word	1073872896
 149 009c 00040240 		.word	1073873920
 150              	.LBE14:
 151              	.LBE17:
 152              		.cfi_endproc
 153              	.LFE258:
 154              		.size	halAssyInit, .-halAssyInit
 155              		.section	.text.halSpiExc,"ax",%progbits
 156              		.align	2
 157              		.p2align 4,,15
 158              		.global	halSpiExc
 159              		.thumb
 160              		.thumb_func
 161              		.type	halSpiExc, %function
 162              	halSpiExc:
 163              	.LFB259:
 164              		.loc 1 93 0
 165              		.cfi_startproc
 166              		@ args = 0, pretend = 0, frame = 16
 167              		@ frame_needed = 0, uses_anonymous_args = 0
 168              	.LVL11:
 169 0000 00B5     		push	{lr}
 170              		.cfi_def_cfa_offset 4
 171              		.cfi_offset 14, -4
ARM GAS  /tmp/ccljeNQA.s 			page 4


 172 0002 85B0     		sub	sp, sp, #20
 173              		.cfi_def_cfa_offset 24
 174              		.loc 1 96 0
 175 0004 0DF10701 		add	r1, sp, #7
 176              		.loc 1 93 0
 177 0008 8DF80700 		strb	r0, [sp, #7]
 178              		.loc 1 96 0
 179 000c 0122     		movs	r2, #1
 180 000e 0DF10F00 		add	r0, sp, #15
 181              	.LVL12:
 182 0012 FFF7FEFF 		bl	spi_sw_transfer
 183              	.LVL13:
 184              		.loc 1 101 0
 185 0016 9DF80F00 		ldrb	r0, [sp, #15]	@ zero_extendqisi2
 186 001a 05B0     		add	sp, sp, #20
 187              		.cfi_def_cfa_offset 4
 188              		@ sp needed
 189 001c 5DF804FB 		ldr	pc, [sp], #4
 190              		.cfi_endproc
 191              	.LFE259:
 192              		.size	halSpiExc, .-halSpiExc
 193              		.text
 194              	.Letext0:
 195              		.file 2 "/usr/arm-none-eabi/include/machine/_default_types.h"
 196              		.file 3 "/usr/arm-none-eabi/include/sys/_stdint.h"
 197              		.file 4 "ChibiOS_3.0.2/os/rt/ports/ARMCMx/compilers/GCC/chtypes.h"
 198              		.file 5 "ChibiOS_3.0.2/os/rt/include/chsystypes.h"
 199              		.file 6 "ChibiOS_3.0.2/os/rt/include/chschd.h"
 200              		.file 7 "ChibiOS_3.0.2/os/ext/CMSIS/ST/stm32f407xx.h"
 201              		.file 8 "ChibiOS_3.0.2/os/rt/ports/ARMCMx/chcore.h"
 202              		.file 9 "ChibiOS_3.0.2/os/rt/ports/ARMCMx/chcore_v7m.h"
 203              		.file 10 "ChibiOS_3.0.2/os/rt/include/chtm.h"
 204              		.file 11 "ChibiOS_3.0.2/os/rt/include/chsem.h"
 205              		.file 12 "ChibiOS_3.0.2/os/rt/include/chmtx.h"
 206              		.file 13 "ChibiOS_3.0.2/os/hal/ports/STM32/STM32F4xx/stm32_dma.h"
 207              		.file 14 "ChibiOS_3.0.2/os/hal/ports/STM32/LLD/GPIOv2/pal_lld.h"
 208              		.file 15 "ChibiOS_3.0.2/os/hal/include/spi.h"
 209              		.file 16 "ChibiOS_3.0.2/os/hal/ports/STM32/LLD/SPIv1/spi_lld.h"
 210              		.file 17 "cc2520/driver/spi_sw.h"
 211              		.file 18 "ChibiOS_3.0.2/os/ext/CMSIS/include/core_cm4.h"