ARM GAS  /tmp/ccbz3FP1.s 			page 1


   1              		.syntax unified
   2              		.cpu cortex-m4
   3              		.eabi_attribute 27, 1
   4              		.eabi_attribute 28, 1
   5              		.fpu fpv4-sp-d16
   6              		.eabi_attribute 20, 1
   7              		.eabi_attribute 21, 1
   8              		.eabi_attribute 23, 3
   9              		.eabi_attribute 24, 1
  10              		.eabi_attribute 25, 1
  11              		.eabi_attribute 26, 1
  12              		.eabi_attribute 30, 2
  13              		.eabi_attribute 34, 1
  14              		.eabi_attribute 18, 4
  15              		.thumb
  16              		.file	"stm32f4xx_dma.c"
  17              		.text
  18              	.Ltext0:
  19              		.cfi_sections	.debug_frame
  20              		.section	.text.DMA_DeInit,"ax",%progbits
  21              		.align	2
  22              		.p2align 4,,15
  23              		.global	DMA_DeInit
  24              		.thumb
  25              		.thumb_func
  26              		.type	DMA_DeInit, %function
  27              	DMA_DeInit:
  28              	.LFB112:
  29              		.file 1 "ChibiOS_3.0.2/ext/stdperiph_stm32f4/src/stm32f4xx_dma.c"
  30              		.loc 1 201 0
  31              		.cfi_startproc
  32              		@ args = 0, pretend = 0, frame = 0
  33              		@ frame_needed = 0, uses_anonymous_args = 0
  34              		@ link register save eliminated.
  35              	.LVL0:
  36              		.loc 1 206 0
  37 0000 0268     		ldr	r2, [r0]
  38              		.loc 1 227 0
  39 0002 3749     		ldr	r1, .L29
  40              		.loc 1 209 0
  41 0004 0023     		movs	r3, #0
  42              		.loc 1 201 0
  43 0006 10B4     		push	{r4}
  44              		.cfi_def_cfa_offset 4
  45              		.cfi_offset 4, -4
  46              		.loc 1 206 0
  47 0008 22F00102 		bic	r2, r2, #1
  48              		.loc 1 224 0
  49 000c 2124     		movs	r4, #33
  50              		.loc 1 227 0
  51 000e 8842     		cmp	r0, r1
  52              		.loc 1 206 0
  53 0010 0260     		str	r2, [r0]
  54              		.loc 1 209 0
  55 0012 0360     		str	r3, [r0]
  56              		.loc 1 212 0
  57 0014 4360     		str	r3, [r0, #4]
ARM GAS  /tmp/ccbz3FP1.s 			page 2


  58              		.loc 1 215 0
  59 0016 8360     		str	r3, [r0, #8]
  60              		.loc 1 218 0
  61 0018 C360     		str	r3, [r0, #12]
  62              		.loc 1 221 0
  63 001a 0361     		str	r3, [r0, #16]
  64              		.loc 1 224 0
  65 001c 4461     		str	r4, [r0, #20]
  66              		.loc 1 227 0
  67 001e 4DD0     		beq	.L27
  68              		.loc 1 232 0
  69 0020 304B     		ldr	r3, .L29+4
  70 0022 9842     		cmp	r0, r3
  71 0024 35D0     		beq	.L19
  72              		.loc 1 237 0
  73 0026 304B     		ldr	r3, .L29+8
  74 0028 9842     		cmp	r0, r3
  75 002a 39D0     		beq	.L20
  76              		.loc 1 242 0
  77 002c 2F4B     		ldr	r3, .L29+12
  78 002e 9842     		cmp	r0, r3
  79 0030 3DD0     		beq	.L21
  80              		.loc 1 247 0
  81 0032 2F4B     		ldr	r3, .L29+16
  82 0034 9842     		cmp	r0, r3
  83 0036 47D0     		beq	.L22
  84              		.loc 1 252 0
  85 0038 2E4B     		ldr	r3, .L29+20
  86 003a 9842     		cmp	r0, r3
  87 003c 48D0     		beq	.L23
  88              		.loc 1 257 0
  89 003e 2E4B     		ldr	r3, .L29+24
  90 0040 9842     		cmp	r0, r3
  91 0042 1DD0     		beq	.L24
  92              		.loc 1 262 0
  93 0044 2D4B     		ldr	r3, .L29+28
  94 0046 9842     		cmp	r0, r3
  95 0048 1ED0     		beq	.L25
  96              		.loc 1 267 0
  97 004a 2D4B     		ldr	r3, .L29+32
  98 004c 9842     		cmp	r0, r3
  99 004e 43D0     		beq	.L28
 100              		.loc 1 272 0
 101 0050 2C4B     		ldr	r3, .L29+36
 102 0052 9842     		cmp	r0, r3
 103 0054 1DD0     		beq	.L19
 104              		.loc 1 277 0
 105 0056 2C4B     		ldr	r3, .L29+40
 106 0058 9842     		cmp	r0, r3
 107 005a 21D0     		beq	.L20
 108              		.loc 1 282 0
 109 005c 2B4B     		ldr	r3, .L29+44
 110 005e 9842     		cmp	r0, r3
 111 0060 25D0     		beq	.L21
 112              		.loc 1 287 0
 113 0062 2B4B     		ldr	r3, .L29+48
 114 0064 9842     		cmp	r0, r3
ARM GAS  /tmp/ccbz3FP1.s 			page 3


 115 0066 2FD0     		beq	.L22
 116              		.loc 1 292 0
 117 0068 2A4B     		ldr	r3, .L29+52
 118 006a 9842     		cmp	r0, r3
 119 006c 30D0     		beq	.L23
 120              		.loc 1 297 0
 121 006e 2A4B     		ldr	r3, .L29+56
 122 0070 9842     		cmp	r0, r3
 123 0072 05D0     		beq	.L24
 124              		.loc 1 304 0
 125 0074 294B     		ldr	r3, .L29+60
 126 0076 9842     		cmp	r0, r3
 127 0078 06D0     		beq	.L25
 128              	.L1:
 129              		.loc 1 310 0
 130 007a 5DF8044B 		ldr	r4, [sp], #4
 131              		.cfi_remember_state
 132              		.cfi_restore 4
 133              		.cfi_def_cfa_offset 0
 134 007e 7047     		bx	lr
 135              	.L24:
 136              		.cfi_restore_state
 137              		.loc 1 300 0
 138 0080 274A     		ldr	r2, .L29+64
 139 0082 43F8942C 		str	r2, [r3, #-148]
 140 0086 F8E7     		b	.L1
 141              	.L25:
 142              		.loc 1 307 0
 143 0088 4FF03D52 		mov	r2, #792723456
 144 008c 43F8AC2C 		str	r2, [r3, #-172]
 145 0090 F3E7     		b	.L1
 146              	.L19:
 147              		.loc 1 275 0
 148 0092 4FF47462 		mov	r2, #3904
 149 0096 43F8202C 		str	r2, [r3, #-32]
 150              		.loc 1 310 0
 151 009a 5DF8044B 		ldr	r4, [sp], #4
 152              		.cfi_remember_state
 153              		.cfi_restore 4
 154              		.cfi_def_cfa_offset 0
 155 009e 7047     		bx	lr
 156              	.L20:
 157              		.cfi_restore_state
 158              		.loc 1 280 0
 159 00a0 4FF47412 		mov	r2, #3997696
 160 00a4 43F8382C 		str	r2, [r3, #-56]
 161              		.loc 1 310 0
 162 00a8 5DF8044B 		ldr	r4, [sp], #4
 163              		.cfi_remember_state
 164              		.cfi_restore 4
 165              		.cfi_def_cfa_offset 0
 166 00ac 7047     		bx	lr
 167              	.L21:
 168              		.cfi_restore_state
 169              		.loc 1 285 0
 170 00ae 4FF07462 		mov	r2, #255852544
 171 00b2 43F8502C 		str	r2, [r3, #-80]
ARM GAS  /tmp/ccbz3FP1.s 			page 4


 172              		.loc 1 310 0
 173 00b6 5DF8044B 		ldr	r4, [sp], #4
 174              		.cfi_remember_state
 175              		.cfi_restore 4
 176              		.cfi_def_cfa_offset 0
 177 00ba 7047     		bx	lr
 178              	.L27:
 179              		.cfi_restore_state
 180              		.loc 1 230 0
 181 00bc 194B     		ldr	r3, .L29+68
 182              		.loc 1 310 0
 183 00be 5DF8044B 		ldr	r4, [sp], #4
 184              		.cfi_remember_state
 185              		.cfi_restore 4
 186              		.cfi_def_cfa_offset 0
 187              		.loc 1 230 0
 188 00c2 3D22     		movs	r2, #61
 189 00c4 9A60     		str	r2, [r3, #8]
 190              		.loc 1 310 0
 191 00c6 7047     		bx	lr
 192              	.L22:
 193              		.cfi_restore_state
 194              		.loc 1 290 0
 195 00c8 174A     		ldr	r2, .L29+72
 196 00ca 43F8642C 		str	r2, [r3, #-100]
 197 00ce D4E7     		b	.L1
 198              	.L23:
 199              		.loc 1 295 0
 200 00d0 164A     		ldr	r2, .L29+76
 201 00d2 43F87C2C 		str	r2, [r3, #-124]
 202 00d6 D0E7     		b	.L1
 203              	.L28:
 204              		.loc 1 270 0
 205 00d8 3D22     		movs	r2, #61
 206 00da 43F8082C 		str	r2, [r3, #-8]
 207 00de CCE7     		b	.L1
 208              	.L30:
 209              		.align	2
 210              	.L29:
 211 00e0 10600240 		.word	1073897488
 212 00e4 28600240 		.word	1073897512
 213 00e8 40600240 		.word	1073897536
 214 00ec 58600240 		.word	1073897560
 215 00f0 70600240 		.word	1073897584
 216 00f4 88600240 		.word	1073897608
 217 00f8 A0600240 		.word	1073897632
 218 00fc B8600240 		.word	1073897656
 219 0100 10640240 		.word	1073898512
 220 0104 28640240 		.word	1073898536
 221 0108 40640240 		.word	1073898560
 222 010c 58640240 		.word	1073898584
 223 0110 70640240 		.word	1073898608
 224 0114 88640240 		.word	1073898632
 225 0118 A0640240 		.word	1073898656
 226 011c B8640240 		.word	1073898680
 227 0120 00003D20 		.word	540868608
 228 0124 00600240 		.word	1073897472
ARM GAS  /tmp/ccbz3FP1.s 			page 5


 229 0128 3D000020 		.word	536870973
 230 012c 400F0020 		.word	536874816
 231              		.cfi_endproc
 232              	.LFE112:
 233              		.size	DMA_DeInit, .-DMA_DeInit
 234              		.section	.text.DMA_Init,"ax",%progbits
 235              		.align	2
 236              		.p2align 4,,15
 237              		.global	DMA_Init
 238              		.thumb
 239              		.thumb_func
 240              		.type	DMA_Init, %function
 241              	DMA_Init:
 242              	.LFB113:
 243              		.loc 1 324 0
 244              		.cfi_startproc
 245              		@ args = 0, pretend = 0, frame = 8
 246              		@ frame_needed = 0, uses_anonymous_args = 0
 247              	.LVL1:
 248 0000 2DE9F041 		push	{r4, r5, r6, r7, r8, lr}
 249              		.cfi_def_cfa_offset 24
 250              		.cfi_offset 4, -24
 251              		.cfi_offset 5, -20
 252              		.cfi_offset 6, -16
 253              		.cfi_offset 7, -12
 254              		.cfi_offset 8, -8
 255              		.cfi_offset 14, -4
 256 0004 82B0     		sub	sp, sp, #8
 257              		.cfi_def_cfa_offset 32
 258              		.loc 1 367 0
 259 0006 8B6A     		ldr	r3, [r1, #40]
 260 0008 0193     		str	r3, [sp, #4]
 261              		.loc 1 364 0
 262 000a CB68     		ldr	r3, [r1, #12]
 263 000c 4F69     		ldr	r7, [r1, #20]
 264              		.loc 1 365 0
 265 000e 8E69     		ldr	r6, [r1, #24]
 266 0010 CD69     		ldr	r5, [r1, #28]
 267              		.loc 1 366 0
 268 0012 0C6A     		ldr	r4, [r1, #32]
 269 0014 4A6A     		ldr	r2, [r1, #36]
 270              		.loc 1 345 0
 271 0016 D0F800C0 		ldr	ip, [r0]
 272              	.LVL2:
 273              		.loc 1 348 0
 274 001a DFF850E0 		ldr	lr, .L33
 275              		.loc 1 364 0
 276 001e 9846     		mov	r8, r3
 277 0020 0B68     		ldr	r3, [r1]
 278 0022 48EA0308 		orr	r8, r8, r3
 279 0026 48EA0707 		orr	r7, r8, r7
 280              		.loc 1 365 0
 281 002a 3E43     		orrs	r6, r6, r7
 282 002c 3543     		orrs	r5, r5, r6
 283              		.loc 1 366 0
 284 002e 2C43     		orrs	r4, r4, r5
 285              		.loc 1 367 0
ARM GAS  /tmp/ccbz3FP1.s 			page 6


 286 0030 019B     		ldr	r3, [sp, #4]
 287              		.loc 1 383 0
 288 0032 0E6B     		ldr	r6, [r1, #48]
 289              		.loc 1 390 0
 290 0034 0D69     		ldr	r5, [r1, #16]
 291              		.loc 1 366 0
 292 0036 2243     		orrs	r2, r2, r4
 293              		.loc 1 367 0
 294 0038 1343     		orrs	r3, r3, r2
 295 003a 4A6B     		ldr	r2, [r1, #52]
 296              		.loc 1 394 0
 297 003c 4C68     		ldr	r4, [r1, #4]
 298              		.loc 1 367 0
 299 003e 1343     		orrs	r3, r3, r2
 300              		.loc 1 368 0
 301 0040 8A6B     		ldr	r2, [r1, #56]
 302              		.loc 1 348 0
 303 0042 0CEA0E0E 		and	lr, ip, lr
 304              	.LVL3:
 305              		.loc 1 368 0
 306 0046 1343     		orrs	r3, r3, r2
 307              		.loc 1 364 0
 308 0048 43EA0E03 		orr	r3, r3, lr
 309              	.LVL4:
 310              		.loc 1 371 0
 311 004c 0360     		str	r3, [r0]
 312              		.loc 1 375 0
 313 004e 4269     		ldr	r2, [r0, #20]
 314              	.LVL5:
 315              		.loc 1 383 0
 316 0050 CB6A     		ldr	r3, [r1, #44]
 317              		.loc 1 398 0
 318 0052 8968     		ldr	r1, [r1, #8]
 319              	.LVL6:
 320              		.loc 1 378 0
 321 0054 22F00702 		bic	r2, r2, #7
 322              	.LVL7:
 323              		.loc 1 383 0
 324 0058 3343     		orrs	r3, r3, r6
 325 005a 1343     		orrs	r3, r3, r2
 326              	.LVL8:
 327              		.loc 1 386 0
 328 005c 4361     		str	r3, [r0, #20]
 329              		.loc 1 390 0
 330 005e 4560     		str	r5, [r0, #4]
 331              		.loc 1 394 0
 332 0060 8460     		str	r4, [r0, #8]
 333              		.loc 1 398 0
 334 0062 C160     		str	r1, [r0, #12]
 335              		.loc 1 399 0
 336 0064 02B0     		add	sp, sp, #8
 337              		.cfi_def_cfa_offset 24
 338              		@ sp needed
 339 0066 BDE8F081 		pop	{r4, r5, r6, r7, r8, pc}
 340              	.L34:
 341 006a 00BF     		.align	2
 342              	.L33:
ARM GAS  /tmp/ccbz3FP1.s 			page 7


 343 006c 3F801CF0 		.word	-266567617
 344              		.cfi_endproc
 345              	.LFE113:
 346              		.size	DMA_Init, .-DMA_Init
 347              		.section	.text.DMA_StructInit,"ax",%progbits
 348              		.align	2
 349              		.p2align 4,,15
 350              		.global	DMA_StructInit
 351              		.thumb
 352              		.thumb_func
 353              		.type	DMA_StructInit, %function
 354              	DMA_StructInit:
 355              	.LFB114:
 356              		.loc 1 408 0
 357              		.cfi_startproc
 358              		@ args = 0, pretend = 0, frame = 0
 359              		@ frame_needed = 0, uses_anonymous_args = 0
 360              		@ link register save eliminated.
 361              	.LVL9:
 362              		.loc 1 411 0
 363 0000 0023     		movs	r3, #0
 364 0002 0360     		str	r3, [r0]
 365              		.loc 1 414 0
 366 0004 4360     		str	r3, [r0, #4]
 367              		.loc 1 417 0
 368 0006 8360     		str	r3, [r0, #8]
 369              		.loc 1 420 0
 370 0008 C360     		str	r3, [r0, #12]
 371              		.loc 1 423 0
 372 000a 0361     		str	r3, [r0, #16]
 373              		.loc 1 426 0
 374 000c 4361     		str	r3, [r0, #20]
 375              		.loc 1 429 0
 376 000e 8361     		str	r3, [r0, #24]
 377              		.loc 1 432 0
 378 0010 C361     		str	r3, [r0, #28]
 379              		.loc 1 435 0
 380 0012 0362     		str	r3, [r0, #32]
 381              		.loc 1 438 0
 382 0014 4362     		str	r3, [r0, #36]
 383              		.loc 1 441 0
 384 0016 8362     		str	r3, [r0, #40]
 385              		.loc 1 444 0
 386 0018 C362     		str	r3, [r0, #44]
 387              		.loc 1 447 0
 388 001a 0363     		str	r3, [r0, #48]
 389              		.loc 1 450 0
 390 001c 4363     		str	r3, [r0, #52]
 391              		.loc 1 453 0
 392 001e 8363     		str	r3, [r0, #56]
 393 0020 7047     		bx	lr
 394              		.cfi_endproc
 395              	.LFE114:
 396              		.size	DMA_StructInit, .-DMA_StructInit
 397 0022 00BF     		.section	.text.DMA_Cmd,"ax",%progbits
 398              		.align	2
 399              		.p2align 4,,15
ARM GAS  /tmp/ccbz3FP1.s 			page 8


 400              		.global	DMA_Cmd
 401              		.thumb
 402              		.thumb_func
 403              		.type	DMA_Cmd, %function
 404              	DMA_Cmd:
 405              	.LFB115:
 406              		.loc 1 483 0
 407              		.cfi_startproc
 408              		@ args = 0, pretend = 0, frame = 0
 409              		@ frame_needed = 0, uses_anonymous_args = 0
 410              		@ link register save eliminated.
 411              	.LVL10:
 412              		.loc 1 491 0
 413 0000 0368     		ldr	r3, [r0]
 414              		.loc 1 488 0
 415 0002 19B9     		cbnz	r1, .L39
 416              		.loc 1 496 0
 417 0004 23F00103 		bic	r3, r3, #1
 418 0008 0360     		str	r3, [r0]
 419 000a 7047     		bx	lr
 420              	.L39:
 421              		.loc 1 491 0
 422 000c 43F00103 		orr	r3, r3, #1
 423 0010 0360     		str	r3, [r0]
 424 0012 7047     		bx	lr
 425              		.cfi_endproc
 426              	.LFE115:
 427              		.size	DMA_Cmd, .-DMA_Cmd
 428              		.section	.text.DMA_PeriphIncOffsetSizeConfig,"ax",%progbits
 429              		.align	2
 430              		.p2align 4,,15
 431              		.global	DMA_PeriphIncOffsetSizeConfig
 432              		.thumb
 433              		.thumb_func
 434              		.type	DMA_PeriphIncOffsetSizeConfig, %function
 435              	DMA_PeriphIncOffsetSizeConfig:
 436              	.LFB116:
 437              		.loc 1 519 0
 438              		.cfi_startproc
 439              		@ args = 0, pretend = 0, frame = 0
 440              		@ frame_needed = 0, uses_anonymous_args = 0
 441              		@ link register save eliminated.
 442              	.LVL11:
 443              		.loc 1 528 0
 444 0000 0368     		ldr	r3, [r0]
 445              		.loc 1 525 0
 446 0002 19B9     		cbnz	r1, .L43
 447              		.loc 1 533 0
 448 0004 23F40043 		bic	r3, r3, #32768
 449 0008 0360     		str	r3, [r0]
 450 000a 7047     		bx	lr
 451              	.L43:
 452              		.loc 1 528 0
 453 000c 43F40043 		orr	r3, r3, #32768
 454 0010 0360     		str	r3, [r0]
 455 0012 7047     		bx	lr
 456              		.cfi_endproc
ARM GAS  /tmp/ccbz3FP1.s 			page 9


 457              	.LFE116:
 458              		.size	DMA_PeriphIncOffsetSizeConfig, .-DMA_PeriphIncOffsetSizeConfig
 459              		.section	.text.DMA_FlowControllerConfig,"ax",%progbits
 460              		.align	2
 461              		.p2align 4,,15
 462              		.global	DMA_FlowControllerConfig
 463              		.thumb
 464              		.thumb_func
 465              		.type	DMA_FlowControllerConfig, %function
 466              	DMA_FlowControllerConfig:
 467              	.LFB117:
 468              		.loc 1 555 0
 469              		.cfi_startproc
 470              		@ args = 0, pretend = 0, frame = 0
 471              		@ frame_needed = 0, uses_anonymous_args = 0
 472              		@ link register save eliminated.
 473              	.LVL12:
 474              		.loc 1 564 0
 475 0000 0368     		ldr	r3, [r0]
 476              		.loc 1 561 0
 477 0002 19B9     		cbnz	r1, .L47
 478              		.loc 1 569 0
 479 0004 23F02003 		bic	r3, r3, #32
 480 0008 0360     		str	r3, [r0]
 481 000a 7047     		bx	lr
 482              	.L47:
 483              		.loc 1 564 0
 484 000c 43F02003 		orr	r3, r3, #32
 485 0010 0360     		str	r3, [r0]
 486 0012 7047     		bx	lr
 487              		.cfi_endproc
 488              	.LFE117:
 489              		.size	DMA_FlowControllerConfig, .-DMA_FlowControllerConfig
 490              		.section	.text.DMA_SetCurrDataCounter,"ax",%progbits
 491              		.align	2
 492              		.p2align 4,,15
 493              		.global	DMA_SetCurrDataCounter
 494              		.thumb
 495              		.thumb_func
 496              		.type	DMA_SetCurrDataCounter, %function
 497              	DMA_SetCurrDataCounter:
 498              	.LFB118:
 499              		.loc 1 637 0
 500              		.cfi_startproc
 501              		@ args = 0, pretend = 0, frame = 0
 502              		@ frame_needed = 0, uses_anonymous_args = 0
 503              		@ link register save eliminated.
 504              	.LVL13:
 505              		.loc 1 642 0
 506 0000 4160     		str	r1, [r0, #4]
 507 0002 7047     		bx	lr
 508              		.cfi_endproc
 509              	.LFE118:
 510              		.size	DMA_SetCurrDataCounter, .-DMA_SetCurrDataCounter
 511              		.section	.text.DMA_GetCurrDataCounter,"ax",%progbits
 512              		.align	2
 513              		.p2align 4,,15
ARM GAS  /tmp/ccbz3FP1.s 			page 10


 514              		.global	DMA_GetCurrDataCounter
 515              		.thumb
 516              		.thumb_func
 517              		.type	DMA_GetCurrDataCounter, %function
 518              	DMA_GetCurrDataCounter:
 519              	.LFB119:
 520              		.loc 1 652 0
 521              		.cfi_startproc
 522              		@ args = 0, pretend = 0, frame = 0
 523              		@ frame_needed = 0, uses_anonymous_args = 0
 524              		@ link register save eliminated.
 525              	.LVL14:
 526              		.loc 1 657 0
 527 0000 4068     		ldr	r0, [r0, #4]
 528              	.LVL15:
 529              		.loc 1 658 0
 530 0002 80B2     		uxth	r0, r0
 531 0004 7047     		bx	lr
 532              		.cfi_endproc
 533              	.LFE119:
 534              		.size	DMA_GetCurrDataCounter, .-DMA_GetCurrDataCounter
 535 0006 00BF     		.section	.text.DMA_DoubleBufferModeConfig,"ax",%progbits
 536              		.align	2
 537              		.p2align 4,,15
 538              		.global	DMA_DoubleBufferModeConfig
 539              		.thumb
 540              		.thumb_func
 541              		.type	DMA_DoubleBufferModeConfig, %function
 542              	DMA_DoubleBufferModeConfig:
 543              	.LFB120:
 544              		.loc 1 736 0
 545              		.cfi_startproc
 546              		@ args = 0, pretend = 0, frame = 0
 547              		@ frame_needed = 0, uses_anonymous_args = 0
 548              		@ link register save eliminated.
 549              	.LVL16:
 550              		.loc 1 744 0
 551 0000 0368     		ldr	r3, [r0]
 552              		.loc 1 741 0
 553 0002 22B9     		cbnz	r2, .L53
 554              		.loc 1 749 0
 555 0004 23F40023 		bic	r3, r3, #524288
 556 0008 0360     		str	r3, [r0]
 557              		.loc 1 753 0
 558 000a 0161     		str	r1, [r0, #16]
 559 000c 7047     		bx	lr
 560              	.L53:
 561              		.loc 1 744 0
 562 000e 43F40023 		orr	r3, r3, #524288
 563 0012 0360     		str	r3, [r0]
 564              		.loc 1 753 0
 565 0014 0161     		str	r1, [r0, #16]
 566 0016 7047     		bx	lr
 567              		.cfi_endproc
 568              	.LFE120:
 569              		.size	DMA_DoubleBufferModeConfig, .-DMA_DoubleBufferModeConfig
 570              		.section	.text.DMA_DoubleBufferModeCmd,"ax",%progbits
ARM GAS  /tmp/ccbz3FP1.s 			page 11


 571              		.align	2
 572              		.p2align 4,,15
 573              		.global	DMA_DoubleBufferModeCmd
 574              		.thumb
 575              		.thumb_func
 576              		.type	DMA_DoubleBufferModeCmd, %function
 577              	DMA_DoubleBufferModeCmd:
 578              	.LFB121:
 579              		.loc 1 766 0
 580              		.cfi_startproc
 581              		@ args = 0, pretend = 0, frame = 0
 582              		@ frame_needed = 0, uses_anonymous_args = 0
 583              		@ link register save eliminated.
 584              	.LVL17:
 585              		.loc 1 775 0
 586 0000 0368     		ldr	r3, [r0]
 587              		.loc 1 772 0
 588 0002 19B9     		cbnz	r1, .L57
 589              		.loc 1 780 0
 590 0004 23F48023 		bic	r3, r3, #262144
 591 0008 0360     		str	r3, [r0]
 592 000a 7047     		bx	lr
 593              	.L57:
 594              		.loc 1 775 0
 595 000c 43F48023 		orr	r3, r3, #262144
 596 0010 0360     		str	r3, [r0]
 597 0012 7047     		bx	lr
 598              		.cfi_endproc
 599              	.LFE121:
 600              		.size	DMA_DoubleBufferModeCmd, .-DMA_DoubleBufferModeCmd
 601              		.section	.text.DMA_MemoryTargetConfig,"ax",%progbits
 602              		.align	2
 603              		.p2align 4,,15
 604              		.global	DMA_MemoryTargetConfig
 605              		.thumb
 606              		.thumb_func
 607              		.type	DMA_MemoryTargetConfig, %function
 608              	DMA_MemoryTargetConfig:
 609              	.LFB122:
 610              		.loc 1 808 0
 611              		.cfi_startproc
 612              		@ args = 0, pretend = 0, frame = 0
 613              		@ frame_needed = 0, uses_anonymous_args = 0
 614              		@ link register save eliminated.
 615              	.LVL18:
 616              		.loc 1 814 0
 617 0000 0AB9     		cbnz	r2, .L61
 618              		.loc 1 822 0
 619 0002 C160     		str	r1, [r0, #12]
 620 0004 7047     		bx	lr
 621              	.L61:
 622              		.loc 1 817 0
 623 0006 0161     		str	r1, [r0, #16]
 624 0008 7047     		bx	lr
 625              		.cfi_endproc
 626              	.LFE122:
 627              		.size	DMA_MemoryTargetConfig, .-DMA_MemoryTargetConfig
ARM GAS  /tmp/ccbz3FP1.s 			page 12


 628 000a 00BF     		.section	.text.DMA_GetCurrentMemoryTarget,"ax",%progbits
 629              		.align	2
 630              		.p2align 4,,15
 631              		.global	DMA_GetCurrentMemoryTarget
 632              		.thumb
 633              		.thumb_func
 634              		.type	DMA_GetCurrentMemoryTarget, %function
 635              	DMA_GetCurrentMemoryTarget:
 636              	.LFB123:
 637              		.loc 1 833 0
 638              		.cfi_startproc
 639              		@ args = 0, pretend = 0, frame = 0
 640              		@ frame_needed = 0, uses_anonymous_args = 0
 641              		@ link register save eliminated.
 642              	.LVL19:
 643              		.loc 1 840 0
 644 0000 0068     		ldr	r0, [r0]
 645              	.LVL20:
 646              		.loc 1 851 0
 647 0002 C0F3C040 		ubfx	r0, r0, #19, #1
 648              	.LVL21:
 649 0006 7047     		bx	lr
 650              		.cfi_endproc
 651              	.LFE123:
 652              		.size	DMA_GetCurrentMemoryTarget, .-DMA_GetCurrentMemoryTarget
 653              		.section	.text.DMA_GetCmdStatus,"ax",%progbits
 654              		.align	2
 655              		.p2align 4,,15
 656              		.global	DMA_GetCmdStatus
 657              		.thumb
 658              		.thumb_func
 659              		.type	DMA_GetCmdStatus, %function
 660              	DMA_GetCmdStatus:
 661              	.LFB124:
 662              		.loc 1 948 0
 663              		.cfi_startproc
 664              		@ args = 0, pretend = 0, frame = 0
 665              		@ frame_needed = 0, uses_anonymous_args = 0
 666              		@ link register save eliminated.
 667              	.LVL22:
 668              		.loc 1 954 0
 669 0000 0068     		ldr	r0, [r0]
 670              	.LVL23:
 671              		.loc 1 966 0
 672 0002 00F00100 		and	r0, r0, #1
 673              	.LVL24:
 674 0006 7047     		bx	lr
 675              		.cfi_endproc
 676              	.LFE124:
 677              		.size	DMA_GetCmdStatus, .-DMA_GetCmdStatus
 678              		.section	.text.DMA_GetFIFOStatus,"ax",%progbits
 679              		.align	2
 680              		.p2align 4,,15
 681              		.global	DMA_GetFIFOStatus
 682              		.thumb
 683              		.thumb_func
 684              		.type	DMA_GetFIFOStatus, %function
ARM GAS  /tmp/ccbz3FP1.s 			page 13


 685              	DMA_GetFIFOStatus:
 686              	.LFB125:
 687              		.loc 1 982 0
 688              		.cfi_startproc
 689              		@ args = 0, pretend = 0, frame = 0
 690              		@ frame_needed = 0, uses_anonymous_args = 0
 691              		@ link register save eliminated.
 692              	.LVL25:
 693              		.loc 1 989 0
 694 0000 4069     		ldr	r0, [r0, #20]
 695              	.LVL26:
 696              		.loc 1 992 0
 697 0002 00F03800 		and	r0, r0, #56
 698              	.LVL27:
 699 0006 7047     		bx	lr
 700              		.cfi_endproc
 701              	.LFE125:
 702              		.size	DMA_GetFIFOStatus, .-DMA_GetFIFOStatus
 703              		.section	.text.DMA_GetFlagStatus,"ax",%progbits
 704              		.align	2
 705              		.p2align 4,,15
 706              		.global	DMA_GetFlagStatus
 707              		.thumb
 708              		.thumb_func
 709              		.type	DMA_GetFlagStatus, %function
 710              	DMA_GetFlagStatus:
 711              	.LFB126:
 712              		.loc 1 1009 0
 713              		.cfi_startproc
 714              		@ args = 0, pretend = 0, frame = 0
 715              		@ frame_needed = 0, uses_anonymous_args = 0
 716              		@ link register save eliminated.
 717              	.LVL28:
 718              		.loc 1 1027 0
 719 0000 0B4B     		ldr	r3, .L71
 720 0002 0C4A     		ldr	r2, .L71+4
 721              		.loc 1 1009 0
 722 0004 10B4     		push	{r4}
 723              		.cfi_def_cfa_offset 4
 724              		.cfi_offset 4, -4
 725              		.loc 1 1019 0
 726 0006 0C4C     		ldr	r4, .L71+8
 727              		.loc 1 1027 0
 728 0008 A042     		cmp	r0, r4
 729 000a 94BF     		ite	ls
 730 000c 1846     		movls	r0, r3
 731 000e 1046     		movhi	r0, r2
 732              	.LVL29:
 733              		.loc 1 1031 0
 734 0010 8B00     		lsls	r3, r1, #2
 735              		.loc 1 1034 0
 736 0012 4CBF     		ite	mi
 737 0014 4368     		ldrmi	r3, [r0, #4]
 738              	.LVL30:
 739              		.loc 1 1039 0
 740 0016 0368     		ldrpl	r3, [r0]
 741              	.LVL31:
ARM GAS  /tmp/ccbz3FP1.s 			page 14


 742              		.loc 1 1059 0
 743 0018 5DF8044B 		ldr	r4, [sp], #4
 744              		.cfi_restore 4
 745              		.cfi_def_cfa_offset 0
 746 001c 21F0F021 		bic	r1, r1, #-268374016
 747              	.LVL32:
 748 0020 21F08211 		bic	r1, r1, #8519810
 749              		.loc 1 1046 0
 750 0024 1942     		tst	r1, r3
 751              		.loc 1 1059 0
 752 0026 14BF     		ite	ne
 753 0028 0120     		movne	r0, #1
 754              	.LVL33:
 755 002a 0020     		moveq	r0, #0
 756 002c 7047     		bx	lr
 757              	.L72:
 758 002e 00BF     		.align	2
 759              	.L71:
 760 0030 00600240 		.word	1073897472
 761 0034 00640240 		.word	1073898496
 762 0038 0F640240 		.word	1073898511
 763              		.cfi_endproc
 764              	.LFE126:
 765              		.size	DMA_GetFlagStatus, .-DMA_GetFlagStatus
 766              		.section	.text.DMA_ClearFlag,"ax",%progbits
 767              		.align	2
 768              		.p2align 4,,15
 769              		.global	DMA_ClearFlag
 770              		.thumb
 771              		.thumb_func
 772              		.type	DMA_ClearFlag, %function
 773              	DMA_ClearFlag:
 774              	.LFB127:
 775              		.loc 1 1076 0
 776              		.cfi_startproc
 777              		@ args = 0, pretend = 0, frame = 0
 778              		@ frame_needed = 0, uses_anonymous_args = 0
 779              		@ link register save eliminated.
 780              	.LVL34:
 781 0000 10B4     		push	{r4}
 782              		.cfi_def_cfa_offset 4
 783              		.cfi_offset 4, -4
 784              		.loc 1 1092 0
 785 0002 094B     		ldr	r3, .L79
 786              		.loc 1 1084 0
 787 0004 094C     		ldr	r4, .L79+4
 788              		.loc 1 1092 0
 789 0006 0A4A     		ldr	r2, .L79+8
 790 0008 A042     		cmp	r0, r4
 791 000a 94BF     		ite	ls
 792 000c 1846     		movls	r0, r3
 793 000e 1046     		movhi	r0, r2
 794              	.LVL35:
 795              		.loc 1 1096 0
 796 0010 11F0005F 		tst	r1, #536870912
 797              		.loc 1 1099 0
 798 0014 21F0F021 		bic	r1, r1, #-268374016
ARM GAS  /tmp/ccbz3FP1.s 			page 15


 799              	.LVL36:
 800 0018 21F08211 		bic	r1, r1, #8519810
 801 001c 14BF     		ite	ne
 802 001e C160     		strne	r1, [r0, #12]
 803              		.loc 1 1104 0
 804 0020 8160     		streq	r1, [r0, #8]
 805              		.loc 1 1106 0
 806 0022 5DF8044B 		ldr	r4, [sp], #4
 807              		.cfi_restore 4
 808              		.cfi_def_cfa_offset 0
 809 0026 7047     		bx	lr
 810              	.L80:
 811              		.align	2
 812              	.L79:
 813 0028 00600240 		.word	1073897472
 814 002c 0F640240 		.word	1073898511
 815 0030 00640240 		.word	1073898496
 816              		.cfi_endproc
 817              	.LFE127:
 818              		.size	DMA_ClearFlag, .-DMA_ClearFlag
 819              		.section	.text.DMA_ITConfig,"ax",%progbits
 820              		.align	2
 821              		.p2align 4,,15
 822              		.global	DMA_ITConfig
 823              		.thumb
 824              		.thumb_func
 825              		.type	DMA_ITConfig, %function
 826              	DMA_ITConfig:
 827              	.LFB128:
 828              		.loc 1 1123 0
 829              		.cfi_startproc
 830              		@ args = 0, pretend = 0, frame = 0
 831              		@ frame_needed = 0, uses_anonymous_args = 0
 832              		@ link register save eliminated.
 833              	.LVL37:
 834              		.loc 1 1130 0
 835 0000 0B06     		lsls	r3, r1, #24
 836 0002 0CD5     		bpl	.L82
 837              		.loc 1 1135 0
 838 0004 4369     		ldr	r3, [r0, #20]
 839              		.loc 1 1132 0
 840 0006 AAB1     		cbz	r2, .L83
 841              		.loc 1 1135 0
 842 0008 43F08003 		orr	r3, r3, #128
 843              		.loc 1 1145 0
 844 000c 8029     		cmp	r1, #128
 845              		.loc 1 1135 0
 846 000e 4361     		str	r3, [r0, #20]
 847              		.loc 1 1145 0
 848 0010 0FD0     		beq	.L81
 849              	.L84:
 850              		.loc 1 1150 0
 851 0012 0368     		ldr	r3, [r0]
 852 0014 01F01E01 		and	r1, r1, #30
 853              	.LVL38:
 854 0018 1943     		orrs	r1, r1, r3
 855 001a 0160     		str	r1, [r0]
ARM GAS  /tmp/ccbz3FP1.s 			page 16


 856 001c 7047     		bx	lr
 857              	.LVL39:
 858              	.L82:
 859              		.loc 1 1145 0
 860 001e 8029     		cmp	r1, #128
 861 0020 07D0     		beq	.L81
 862              		.loc 1 1147 0
 863 0022 002A     		cmp	r2, #0
 864 0024 F5D1     		bne	.L84
 865              	.L86:
 866              		.loc 1 1155 0
 867 0026 0368     		ldr	r3, [r0]
 868 0028 01F01E01 		and	r1, r1, #30
 869              	.LVL40:
 870 002c 23EA0101 		bic	r1, r3, r1
 871 0030 0160     		str	r1, [r0]
 872              	.L81:
 873 0032 7047     		bx	lr
 874              	.LVL41:
 875              	.L83:
 876              		.loc 1 1140 0
 877 0034 23F08003 		bic	r3, r3, #128
 878              		.loc 1 1145 0
 879 0038 8029     		cmp	r1, #128
 880              		.loc 1 1140 0
 881 003a 4361     		str	r3, [r0, #20]
 882              		.loc 1 1145 0
 883 003c F3D1     		bne	.L86
 884 003e 7047     		bx	lr
 885              		.cfi_endproc
 886              	.LFE128:
 887              		.size	DMA_ITConfig, .-DMA_ITConfig
 888              		.section	.text.DMA_GetITStatus,"ax",%progbits
 889              		.align	2
 890              		.p2align 4,,15
 891              		.global	DMA_GetITStatus
 892              		.thumb
 893              		.thumb_func
 894              		.type	DMA_GetITStatus, %function
 895              	DMA_GetITStatus:
 896              	.LFB129:
 897              		.loc 1 1175 0
 898              		.cfi_startproc
 899              		@ args = 0, pretend = 0, frame = 0
 900              		@ frame_needed = 0, uses_anonymous_args = 0
 901              		@ link register save eliminated.
 902              	.LVL42:
 903 0000 70B4     		push	{r4, r5, r6}
 904              		.cfi_def_cfa_offset 12
 905              		.cfi_offset 4, -12
 906              		.cfi_offset 5, -8
 907              		.cfi_offset 6, -4
 908              		.loc 1 1193 0
 909 0002 104A     		ldr	r2, .L101
 910              		.loc 1 1185 0
 911 0004 104E     		ldr	r6, .L101+4
 912              		.loc 1 1193 0
ARM GAS  /tmp/ccbz3FP1.s 			page 17


 913 0006 114C     		ldr	r4, .L101+8
 914              		.loc 1 1197 0
 915 0008 21F0F023 		bic	r3, r1, #-268374016
 916 000c 23F0C315 		bic	r5, r3, #12779715
 917              		.loc 1 1193 0
 918 0010 B042     		cmp	r0, r6
 919 0012 98BF     		it	ls
 920 0014 1446     		movls	r4, r2
 921              	.LVL43:
 922              		.loc 1 1197 0
 923 0016 8DB1     		cbz	r5, .L93
 924              	.LVL44:
 925              		.loc 1 1203 0
 926 0018 0068     		ldr	r0, [r0]
 927              	.LVL45:
 928 001a 00F01E00 		and	r0, r0, #30
 929 001e 00EAD122 		and	r2, r0, r1, lsr #11
 930              	.LVL46:
 931              	.L94:
 932              		.loc 1 1212 0
 933 0022 8900     		lsls	r1, r1, #2
 934              	.LVL47:
 935              		.loc 1 1215 0
 936 0024 4CBF     		ite	mi
 937 0026 6068     		ldrmi	r0, [r4, #4]
 938              	.LVL48:
 939              		.loc 1 1220 0
 940 0028 2068     		ldrpl	r0, [r4]
 941              	.LVL49:
 942 002a 23F08213 		bic	r3, r3, #8519810
 943              		.loc 1 1227 0
 944 002e 1840     		ands	r0, r3, r0
 945              	.LVL50:
 946 0030 02D0     		beq	.L97
 947              		.loc 1 1230 0 discriminator 1
 948 0032 101C     		adds	r0, r2, #0
 949 0034 18BF     		it	ne
 950 0036 0120     		movne	r0, #1
 951              	.L97:
 952              	.LVL51:
 953              		.loc 1 1240 0
 954 0038 70BC     		pop	{r4, r5, r6}
 955              		.cfi_remember_state
 956              		.cfi_restore 6
 957              		.cfi_restore 5
 958              		.cfi_restore 4
 959              		.cfi_def_cfa_offset 0
 960              	.LVL52:
 961 003a 7047     		bx	lr
 962              	.LVL53:
 963              	.L93:
 964              		.cfi_restore_state
 965              		.loc 1 1208 0
 966 003c 4069     		ldr	r0, [r0, #20]
 967              	.LVL54:
 968 003e 00F08002 		and	r2, r0, #128
 969              	.LVL55:
ARM GAS  /tmp/ccbz3FP1.s 			page 18


 970 0042 EEE7     		b	.L94
 971              	.L102:
 972              		.align	2
 973              	.L101:
 974 0044 00600240 		.word	1073897472
 975 0048 0F640240 		.word	1073898511
 976 004c 00640240 		.word	1073898496
 977              		.cfi_endproc
 978              	.LFE129:
 979              		.size	DMA_GetITStatus, .-DMA_GetITStatus
 980              		.section	.text.DMA_ClearITPendingBit,"ax",%progbits
 981              		.align	2
 982              		.p2align 4,,15
 983              		.global	DMA_ClearITPendingBit
 984              		.thumb
 985              		.thumb_func
 986              		.type	DMA_ClearITPendingBit, %function
 987              	DMA_ClearITPendingBit:
 988              	.LFB130:
 989              		.loc 1 1257 0
 990              		.cfi_startproc
 991              		@ args = 0, pretend = 0, frame = 0
 992              		@ frame_needed = 0, uses_anonymous_args = 0
 993              		@ link register save eliminated.
 994              	.LVL56:
 995 0000 10B4     		push	{r4}
 996              		.cfi_def_cfa_offset 4
 997              		.cfi_offset 4, -4
 998              		.loc 1 1273 0
 999 0002 094B     		ldr	r3, .L109
 1000              		.loc 1 1265 0
 1001 0004 094C     		ldr	r4, .L109+4
 1002              		.loc 1 1273 0
 1003 0006 0A4A     		ldr	r2, .L109+8
 1004 0008 A042     		cmp	r0, r4
 1005 000a 94BF     		ite	ls
 1006 000c 1846     		movls	r0, r3
 1007 000e 1046     		movhi	r0, r2
 1008              	.LVL57:
 1009              		.loc 1 1277 0
 1010 0010 11F0005F 		tst	r1, #536870912
 1011              		.loc 1 1280 0
 1012 0014 21F0F021 		bic	r1, r1, #-268374016
 1013              	.LVL58:
 1014 0018 21F08211 		bic	r1, r1, #8519810
 1015 001c 14BF     		ite	ne
 1016 001e C160     		strne	r1, [r0, #12]
 1017              		.loc 1 1285 0
 1018 0020 8160     		streq	r1, [r0, #8]
 1019              		.loc 1 1287 0
 1020 0022 5DF8044B 		ldr	r4, [sp], #4
 1021              		.cfi_restore 4
 1022              		.cfi_def_cfa_offset 0
 1023 0026 7047     		bx	lr
 1024              	.L110:
 1025              		.align	2
 1026              	.L109:
ARM GAS  /tmp/ccbz3FP1.s 			page 19


 1027 0028 00600240 		.word	1073897472
 1028 002c 0F640240 		.word	1073898511
 1029 0030 00640240 		.word	1073898496
 1030              		.cfi_endproc
 1031              	.LFE130:
 1032              		.size	DMA_ClearITPendingBit, .-DMA_ClearITPendingBit
 1033              		.text
 1034              	.Letext0:
 1035              		.file 2 "/usr/arm-none-eabi/include/machine/_default_types.h"
 1036              		.file 3 "/usr/arm-none-eabi/include/sys/_stdint.h"
 1037              		.file 4 "ChibiOS_3.0.2/os/ext/CMSIS/ST/stm32f407xx.h"
 1038              		.file 5 "ChibiOS_3.0.2/os/ext/CMSIS/ST/stm32f4xx.h"
 1039              		.file 6 "ChibiOS_3.0.2/ext/stdperiph_stm32f4/inc/stm32f4xx_dma.h"
 1040              		.file 7 "ChibiOS_3.0.2/os/ext/CMSIS/include/core_cm4.h"