ARM GAS  /tmp/ccJZ9K5Y.s 			page 1


   1              		.syntax unified
   2              		.cpu cortex-m4
   3              		.eabi_attribute 27, 1
   4              		.eabi_attribute 28, 1
   5              		.fpu fpv4-sp-d16
   6              		.eabi_attribute 20, 1
   7              		.eabi_attribute 21, 1
   8              		.eabi_attribute 23, 3
   9              		.eabi_attribute 24, 1
  10              		.eabi_attribute 25, 1
  11              		.eabi_attribute 26, 1
  12              		.eabi_attribute 30, 2
  13              		.eabi_attribute 34, 1
  14              		.eabi_attribute 18, 4
  15              		.thumb
  16              		.file	"stm32f4xx_tim.c"
  17              		.text
  18              	.Ltext0:
  19              		.cfi_sections	.debug_frame
  20              		.section	.text.TIM_DeInit,"ax",%progbits
  21              		.align	2
  22              		.p2align 4,,15
  23              		.global	TIM_DeInit
  24              		.thumb
  25              		.thumb_func
  26              		.type	TIM_DeInit, %function
  27              	TIM_DeInit:
  28              	.LFB112:
  29              		.file 1 "ChibiOS_3.0.2/ext/stdperiph_stm32f4/src/stm32f4xx_tim.c"
  30              		.loc 1 205 0
  31              		.cfi_startproc
  32              		@ args = 0, pretend = 0, frame = 0
  33              		@ frame_needed = 0, uses_anonymous_args = 0
  34              	.LVL0:
  35 0000 08B5     		push	{r3, lr}
  36              		.cfi_def_cfa_offset 8
  37              		.cfi_offset 3, -8
  38              		.cfi_offset 14, -4
  39              		.loc 1 209 0
  40 0002 604B     		ldr	r3, .L32
  41 0004 9842     		cmp	r0, r3
  42 0006 35D0     		beq	.L18
  43              		.loc 1 214 0
  44 0008 B0F1804F 		cmp	r0, #1073741824
  45 000c 3CD0     		beq	.L19
  46              		.loc 1 219 0
  47 000e 5E4B     		ldr	r3, .L32+4
  48 0010 9842     		cmp	r0, r3
  49 0012 43D0     		beq	.L20
  50              		.loc 1 224 0
  51 0014 5D4B     		ldr	r3, .L32+8
  52 0016 9842     		cmp	r0, r3
  53 0018 4AD0     		beq	.L21
  54              		.loc 1 229 0
  55 001a 5D4B     		ldr	r3, .L32+12
  56 001c 9842     		cmp	r0, r3
  57 001e 51D0     		beq	.L22
ARM GAS  /tmp/ccJZ9K5Y.s 			page 2


  58              		.loc 1 234 0
  59 0020 5C4B     		ldr	r3, .L32+16
  60 0022 9842     		cmp	r0, r3
  61 0024 58D0     		beq	.L23
  62              		.loc 1 239 0
  63 0026 5C4B     		ldr	r3, .L32+20
  64 0028 9842     		cmp	r0, r3
  65 002a 5FD0     		beq	.L24
  66              		.loc 1 244 0
  67 002c 5B4B     		ldr	r3, .L32+24
  68 002e 9842     		cmp	r0, r3
  69 0030 66D0     		beq	.L25
  70              		.loc 1 249 0
  71 0032 5B4B     		ldr	r3, .L32+28
  72 0034 9842     		cmp	r0, r3
  73 0036 6DD0     		beq	.L26
  74              		.loc 1 254 0
  75 0038 5A4B     		ldr	r3, .L32+32
  76 003a 9842     		cmp	r0, r3
  77 003c 76D0     		beq	.L27
  78              		.loc 1 259 0
  79 003e 5A4B     		ldr	r3, .L32+36
  80 0040 9842     		cmp	r0, r3
  81 0042 7FD0     		beq	.L28
  82              		.loc 1 264 0
  83 0044 594B     		ldr	r3, .L32+40
  84 0046 9842     		cmp	r0, r3
  85 0048 00F08880 		beq	.L29
  86              		.loc 1 269 0
  87 004c 584B     		ldr	r3, .L32+44
  88 004e 9842     		cmp	r0, r3
  89 0050 00F08E80 		beq	.L30
  90              		.loc 1 276 0
  91 0054 574B     		ldr	r3, .L32+48
  92 0056 9842     		cmp	r0, r3
  93 0058 00D0     		beq	.L31
  94 005a 08BD     		pop	{r3, pc}
  95              	.L31:
  96              		.loc 1 278 0
  97 005c 4FF48070 		mov	r0, #256
  98              	.LVL1:
  99 0060 0121     		movs	r1, #1
 100 0062 FFF7FEFF 		bl	RCC_APB1PeriphResetCmd
 101              	.LVL2:
 102              		.loc 1 279 0
 103 0066 4FF48070 		mov	r0, #256
 104 006a 0021     		movs	r1, #0
 105              		.loc 1 282 0
 106 006c BDE80840 		pop	{r3, lr}
 107              		.cfi_remember_state
 108              		.cfi_restore 14
 109              		.cfi_restore 3
 110              		.cfi_def_cfa_offset 0
 111              		.loc 1 279 0
 112 0070 FFF7FEBF 		b	RCC_APB1PeriphResetCmd
 113              	.LVL3:
 114              	.L18:
ARM GAS  /tmp/ccJZ9K5Y.s 			page 3


 115              		.cfi_restore_state
 116              		.loc 1 211 0
 117 0074 0120     		movs	r0, #1
 118              	.LVL4:
 119 0076 0146     		mov	r1, r0
 120 0078 FFF7FEFF 		bl	RCC_APB2PeriphResetCmd
 121              	.LVL5:
 122              		.loc 1 212 0
 123 007c 0120     		movs	r0, #1
 124 007e 0021     		movs	r1, #0
 125              		.loc 1 282 0
 126 0080 BDE80840 		pop	{r3, lr}
 127              		.cfi_remember_state
 128              		.cfi_restore 14
 129              		.cfi_restore 3
 130              		.cfi_def_cfa_offset 0
 131              		.loc 1 212 0
 132 0084 FFF7FEBF 		b	RCC_APB2PeriphResetCmd
 133              	.LVL6:
 134              	.L19:
 135              		.cfi_restore_state
 136              		.loc 1 216 0
 137 0088 0120     		movs	r0, #1
 138              	.LVL7:
 139 008a 0146     		mov	r1, r0
 140 008c FFF7FEFF 		bl	RCC_APB1PeriphResetCmd
 141              	.LVL8:
 142              		.loc 1 217 0
 143 0090 0120     		movs	r0, #1
 144 0092 0021     		movs	r1, #0
 145              		.loc 1 282 0
 146 0094 BDE80840 		pop	{r3, lr}
 147              		.cfi_remember_state
 148              		.cfi_restore 14
 149              		.cfi_restore 3
 150              		.cfi_def_cfa_offset 0
 151              		.loc 1 217 0
 152 0098 FFF7FEBF 		b	RCC_APB1PeriphResetCmd
 153              	.LVL9:
 154              	.L20:
 155              		.cfi_restore_state
 156              		.loc 1 221 0
 157 009c 0220     		movs	r0, #2
 158              	.LVL10:
 159 009e 0121     		movs	r1, #1
 160 00a0 FFF7FEFF 		bl	RCC_APB1PeriphResetCmd
 161              	.LVL11:
 162              		.loc 1 222 0
 163 00a4 0220     		movs	r0, #2
 164 00a6 0021     		movs	r1, #0
 165              		.loc 1 282 0
 166 00a8 BDE80840 		pop	{r3, lr}
 167              		.cfi_remember_state
 168              		.cfi_restore 14
 169              		.cfi_restore 3
 170              		.cfi_def_cfa_offset 0
 171              		.loc 1 222 0
ARM GAS  /tmp/ccJZ9K5Y.s 			page 4


 172 00ac FFF7FEBF 		b	RCC_APB1PeriphResetCmd
 173              	.LVL12:
 174              	.L21:
 175              		.cfi_restore_state
 176              		.loc 1 226 0
 177 00b0 0420     		movs	r0, #4
 178              	.LVL13:
 179 00b2 0121     		movs	r1, #1
 180 00b4 FFF7FEFF 		bl	RCC_APB1PeriphResetCmd
 181              	.LVL14:
 182              		.loc 1 227 0
 183 00b8 0420     		movs	r0, #4
 184 00ba 0021     		movs	r1, #0
 185              		.loc 1 282 0
 186 00bc BDE80840 		pop	{r3, lr}
 187              		.cfi_remember_state
 188              		.cfi_restore 14
 189              		.cfi_restore 3
 190              		.cfi_def_cfa_offset 0
 191              		.loc 1 227 0
 192 00c0 FFF7FEBF 		b	RCC_APB1PeriphResetCmd
 193              	.LVL15:
 194              	.L22:
 195              		.cfi_restore_state
 196              		.loc 1 231 0
 197 00c4 0820     		movs	r0, #8
 198              	.LVL16:
 199 00c6 0121     		movs	r1, #1
 200 00c8 FFF7FEFF 		bl	RCC_APB1PeriphResetCmd
 201              	.LVL17:
 202              		.loc 1 232 0
 203 00cc 0820     		movs	r0, #8
 204 00ce 0021     		movs	r1, #0
 205              		.loc 1 282 0
 206 00d0 BDE80840 		pop	{r3, lr}
 207              		.cfi_remember_state
 208              		.cfi_restore 14
 209              		.cfi_restore 3
 210              		.cfi_def_cfa_offset 0
 211              		.loc 1 232 0
 212 00d4 FFF7FEBF 		b	RCC_APB1PeriphResetCmd
 213              	.LVL18:
 214              	.L23:
 215              		.cfi_restore_state
 216              		.loc 1 236 0
 217 00d8 1020     		movs	r0, #16
 218              	.LVL19:
 219 00da 0121     		movs	r1, #1
 220 00dc FFF7FEFF 		bl	RCC_APB1PeriphResetCmd
 221              	.LVL20:
 222              		.loc 1 237 0
 223 00e0 1020     		movs	r0, #16
 224 00e2 0021     		movs	r1, #0
 225              		.loc 1 282 0
 226 00e4 BDE80840 		pop	{r3, lr}
 227              		.cfi_remember_state
 228              		.cfi_restore 14
ARM GAS  /tmp/ccJZ9K5Y.s 			page 5


 229              		.cfi_restore 3
 230              		.cfi_def_cfa_offset 0
 231              		.loc 1 237 0
 232 00e8 FFF7FEBF 		b	RCC_APB1PeriphResetCmd
 233              	.LVL21:
 234              	.L24:
 235              		.cfi_restore_state
 236              		.loc 1 241 0
 237 00ec 2020     		movs	r0, #32
 238              	.LVL22:
 239 00ee 0121     		movs	r1, #1
 240 00f0 FFF7FEFF 		bl	RCC_APB1PeriphResetCmd
 241              	.LVL23:
 242              		.loc 1 242 0
 243 00f4 2020     		movs	r0, #32
 244 00f6 0021     		movs	r1, #0
 245              		.loc 1 282 0
 246 00f8 BDE80840 		pop	{r3, lr}
 247              		.cfi_remember_state
 248              		.cfi_restore 14
 249              		.cfi_restore 3
 250              		.cfi_def_cfa_offset 0
 251              		.loc 1 242 0
 252 00fc FFF7FEBF 		b	RCC_APB1PeriphResetCmd
 253              	.LVL24:
 254              	.L25:
 255              		.cfi_restore_state
 256              		.loc 1 246 0
 257 0100 0220     		movs	r0, #2
 258              	.LVL25:
 259 0102 0121     		movs	r1, #1
 260 0104 FFF7FEFF 		bl	RCC_APB2PeriphResetCmd
 261              	.LVL26:
 262              		.loc 1 247 0
 263 0108 0220     		movs	r0, #2
 264 010a 0021     		movs	r1, #0
 265              		.loc 1 282 0
 266 010c BDE80840 		pop	{r3, lr}
 267              		.cfi_remember_state
 268              		.cfi_restore 14
 269              		.cfi_restore 3
 270              		.cfi_def_cfa_offset 0
 271              		.loc 1 247 0
 272 0110 FFF7FEBF 		b	RCC_APB2PeriphResetCmd
 273              	.LVL27:
 274              	.L26:
 275              		.cfi_restore_state
 276              		.loc 1 251 0
 277 0114 4FF48030 		mov	r0, #65536
 278              	.LVL28:
 279 0118 0121     		movs	r1, #1
 280 011a FFF7FEFF 		bl	RCC_APB2PeriphResetCmd
 281              	.LVL29:
 282              		.loc 1 252 0
 283 011e 4FF48030 		mov	r0, #65536
 284 0122 0021     		movs	r1, #0
 285              		.loc 1 282 0
ARM GAS  /tmp/ccJZ9K5Y.s 			page 6


 286 0124 BDE80840 		pop	{r3, lr}
 287              		.cfi_remember_state
 288              		.cfi_restore 14
 289              		.cfi_restore 3
 290              		.cfi_def_cfa_offset 0
 291              		.loc 1 252 0
 292 0128 FFF7FEBF 		b	RCC_APB2PeriphResetCmd
 293              	.LVL30:
 294              	.L27:
 295              		.cfi_restore_state
 296              		.loc 1 256 0
 297 012c 4FF40030 		mov	r0, #131072
 298              	.LVL31:
 299 0130 0121     		movs	r1, #1
 300 0132 FFF7FEFF 		bl	RCC_APB2PeriphResetCmd
 301              	.LVL32:
 302              		.loc 1 257 0
 303 0136 4FF40030 		mov	r0, #131072
 304 013a 0021     		movs	r1, #0
 305              		.loc 1 282 0
 306 013c BDE80840 		pop	{r3, lr}
 307              		.cfi_remember_state
 308              		.cfi_restore 14
 309              		.cfi_restore 3
 310              		.cfi_def_cfa_offset 0
 311              		.loc 1 257 0
 312 0140 FFF7FEBF 		b	RCC_APB2PeriphResetCmd
 313              	.LVL33:
 314              	.L28:
 315              		.cfi_restore_state
 316              		.loc 1 261 0
 317 0144 4FF48020 		mov	r0, #262144
 318              	.LVL34:
 319 0148 0121     		movs	r1, #1
 320 014a FFF7FEFF 		bl	RCC_APB2PeriphResetCmd
 321              	.LVL35:
 322              		.loc 1 262 0
 323 014e 4FF48020 		mov	r0, #262144
 324 0152 0021     		movs	r1, #0
 325              		.loc 1 282 0
 326 0154 BDE80840 		pop	{r3, lr}
 327              		.cfi_remember_state
 328              		.cfi_restore 14
 329              		.cfi_restore 3
 330              		.cfi_def_cfa_offset 0
 331              		.loc 1 262 0
 332 0158 FFF7FEBF 		b	RCC_APB2PeriphResetCmd
 333              	.LVL36:
 334              	.L29:
 335              		.cfi_restore_state
 336              		.loc 1 266 0
 337 015c 4020     		movs	r0, #64
 338              	.LVL37:
 339 015e 0121     		movs	r1, #1
 340 0160 FFF7FEFF 		bl	RCC_APB1PeriphResetCmd
 341              	.LVL38:
 342              		.loc 1 267 0
ARM GAS  /tmp/ccJZ9K5Y.s 			page 7


 343 0164 4020     		movs	r0, #64
 344 0166 0021     		movs	r1, #0
 345              		.loc 1 282 0
 346 0168 BDE80840 		pop	{r3, lr}
 347              		.cfi_remember_state
 348              		.cfi_restore 14
 349              		.cfi_restore 3
 350              		.cfi_def_cfa_offset 0
 351              		.loc 1 267 0
 352 016c FFF7FEBF 		b	RCC_APB1PeriphResetCmd
 353              	.LVL39:
 354              	.L30:
 355              		.cfi_restore_state
 356              		.loc 1 271 0
 357 0170 8020     		movs	r0, #128
 358              	.LVL40:
 359 0172 0121     		movs	r1, #1
 360 0174 FFF7FEFF 		bl	RCC_APB1PeriphResetCmd
 361              	.LVL41:
 362              		.loc 1 272 0
 363 0178 8020     		movs	r0, #128
 364 017a 0021     		movs	r1, #0
 365              		.loc 1 282 0
 366 017c BDE80840 		pop	{r3, lr}
 367              		.cfi_restore 14
 368              		.cfi_restore 3
 369              		.cfi_def_cfa_offset 0
 370              		.loc 1 272 0
 371 0180 FFF7FEBF 		b	RCC_APB1PeriphResetCmd
 372              	.LVL42:
 373              	.L33:
 374              		.align	2
 375              	.L32:
 376 0184 00000140 		.word	1073807360
 377 0188 00040040 		.word	1073742848
 378 018c 00080040 		.word	1073743872
 379 0190 000C0040 		.word	1073744896
 380 0194 00100040 		.word	1073745920
 381 0198 00140040 		.word	1073746944
 382 019c 00040140 		.word	1073808384
 383 01a0 00400140 		.word	1073823744
 384 01a4 00440140 		.word	1073824768
 385 01a8 00480140 		.word	1073825792
 386 01ac 00180040 		.word	1073747968
 387 01b0 001C0040 		.word	1073748992
 388 01b4 00200040 		.word	1073750016
 389              		.cfi_endproc
 390              	.LFE112:
 391              		.size	TIM_DeInit, .-TIM_DeInit
 392              		.section	.text.TIM_TimeBaseInit,"ax",%progbits
 393              		.align	2
 394              		.p2align 4,,15
 395              		.global	TIM_TimeBaseInit
 396              		.thumb
 397              		.thumb_func
 398              		.type	TIM_TimeBaseInit, %function
 399              	TIM_TimeBaseInit:
ARM GAS  /tmp/ccJZ9K5Y.s 			page 8


 400              	.LFB113:
 401              		.loc 1 293 0
 402              		.cfi_startproc
 403              		@ args = 0, pretend = 0, frame = 0
 404              		@ frame_needed = 0, uses_anonymous_args = 0
 405              		@ link register save eliminated.
 406              	.LVL43:
 407              		.loc 1 303 0
 408 0000 224A     		ldr	r2, .L48
 409              		.loc 1 301 0
 410 0002 0368     		ldr	r3, [r0]
 411              		.loc 1 303 0
 412 0004 9042     		cmp	r0, r2
 413              		.loc 1 301 0
 414 0006 9BB2     		uxth	r3, r3
 415              	.LVL44:
 416              		.loc 1 303 0
 417 0008 12D0     		beq	.L35
 418              		.loc 1 303 0 is_stmt 0 discriminator 1
 419 000a 02F58062 		add	r2, r2, #1024
 420 000e 9042     		cmp	r0, r2
 421 0010 0ED0     		beq	.L35
 422              		.loc 1 303 0 discriminator 2
 423 0012 B0F1804F 		cmp	r0, #1073741824
 424 0016 0BD0     		beq	.L35
 425              		.loc 1 304 0 is_stmt 1
 426 0018 A2F58032 		sub	r2, r2, #65536
 427 001c 9042     		cmp	r0, r2
 428 001e 07D0     		beq	.L35
 429              		.loc 1 304 0 is_stmt 0 discriminator 1
 430 0020 02F58062 		add	r2, r2, #1024
 431 0024 9042     		cmp	r0, r2
 432 0026 03D0     		beq	.L35
 433              		.loc 1 305 0 is_stmt 1
 434 0028 02F58062 		add	r2, r2, #1024
 435 002c 9042     		cmp	r0, r2
 436 002e 03D1     		bne	.L36
 437              	.L35:
 438              		.loc 1 309 0
 439 0030 4A88     		ldrh	r2, [r1, #2]
 440              		.loc 1 308 0
 441 0032 23F07003 		bic	r3, r3, #112
 442              	.LVL45:
 443              		.loc 1 309 0
 444 0036 1343     		orrs	r3, r3, r2
 445              	.LVL46:
 446              	.L36:
 447              		.loc 1 312 0
 448 0038 154A     		ldr	r2, .L48+4
 449 003a 9042     		cmp	r0, r2
 450 003c 1ED0     		beq	.L37
 451              		.loc 1 312 0 is_stmt 0 discriminator 1
 452 003e 02F58062 		add	r2, r2, #1024
 453 0042 9042     		cmp	r0, r2
 454 0044 1AD0     		beq	.L37
 455              		.loc 1 316 0 is_stmt 1
 456 0046 0A89     		ldrh	r2, [r1, #8]
ARM GAS  /tmp/ccJZ9K5Y.s 			page 9


 457              		.loc 1 293 0
 458 0048 70B4     		push	{r4, r5, r6}
 459              		.cfi_def_cfa_offset 12
 460              		.cfi_offset 4, -12
 461              		.cfi_offset 5, -8
 462              		.cfi_offset 6, -4
 463              		.loc 1 315 0
 464 004a 23F44073 		bic	r3, r3, #768
 465              	.LVL47:
 466              		.loc 1 327 0
 467 004e 0F4C     		ldr	r4, .L48
 468              		.loc 1 322 0
 469 0050 4E68     		ldr	r6, [r1, #4]
 470              		.loc 1 325 0
 471 0052 0D88     		ldrh	r5, [r1]
 472              		.loc 1 315 0
 473 0054 9BB2     		uxth	r3, r3
 474              	.LVL48:
 475              		.loc 1 319 0
 476 0056 1343     		orrs	r3, r3, r2
 477              	.LVL49:
 478              		.loc 1 327 0
 479 0058 A042     		cmp	r0, r4
 480              		.loc 1 319 0
 481 005a 0360     		str	r3, [r0]
 482              		.loc 1 322 0
 483 005c C662     		str	r6, [r0, #44]
 484              		.loc 1 325 0
 485 005e 8562     		str	r5, [r0, #40]
 486              		.loc 1 327 0
 487 0060 06D0     		beq	.L41
 488              		.loc 1 327 0 is_stmt 0 discriminator 1
 489 0062 0C4B     		ldr	r3, .L48+8
 490 0064 9842     		cmp	r0, r3
 491 0066 03D0     		beq	.L41
 492              		.loc 1 335 0 is_stmt 1
 493 0068 0123     		movs	r3, #1
 494 006a 4361     		str	r3, [r0, #20]
 495              		.loc 1 336 0
 496 006c 70BC     		pop	{r4, r5, r6}
 497              		.cfi_remember_state
 498              		.cfi_restore 6
 499              		.cfi_restore 5
 500              		.cfi_restore 4
 501              		.cfi_def_cfa_offset 0
 502 006e 7047     		bx	lr
 503              	.L41:
 504              		.cfi_restore_state
 505              		.loc 1 330 0
 506 0070 8B7A     		ldrb	r3, [r1, #10]	@ zero_extendqisi2
 507 0072 0363     		str	r3, [r0, #48]
 508              		.loc 1 335 0
 509 0074 0123     		movs	r3, #1
 510 0076 4361     		str	r3, [r0, #20]
 511              		.loc 1 336 0
 512 0078 70BC     		pop	{r4, r5, r6}
 513              		.cfi_restore 4
ARM GAS  /tmp/ccJZ9K5Y.s 			page 10


 514              		.cfi_restore 5
 515              		.cfi_restore 6
 516              		.cfi_def_cfa_offset 0
 517 007a 7047     		bx	lr
 518              	.LVL50:
 519              	.L37:
 520              		.loc 1 319 0
 521 007c 0360     		str	r3, [r0]
 522              		.loc 1 322 0
 523 007e 4A68     		ldr	r2, [r1, #4]
 524              		.loc 1 325 0
 525 0080 0B88     		ldrh	r3, [r1]
 526              	.LVL51:
 527              		.loc 1 322 0
 528 0082 C262     		str	r2, [r0, #44]
 529              		.loc 1 325 0
 530 0084 8362     		str	r3, [r0, #40]
 531              		.loc 1 335 0
 532 0086 0123     		movs	r3, #1
 533 0088 4361     		str	r3, [r0, #20]
 534 008a 7047     		bx	lr
 535              	.L49:
 536              		.align	2
 537              	.L48:
 538 008c 00000140 		.word	1073807360
 539 0090 00100040 		.word	1073745920
 540 0094 00040140 		.word	1073808384
 541              		.cfi_endproc
 542              	.LFE113:
 543              		.size	TIM_TimeBaseInit, .-TIM_TimeBaseInit
 544              		.section	.text.TIM_TimeBaseStructInit,"ax",%progbits
 545              		.align	2
 546              		.p2align 4,,15
 547              		.global	TIM_TimeBaseStructInit
 548              		.thumb
 549              		.thumb_func
 550              		.type	TIM_TimeBaseStructInit, %function
 551              	TIM_TimeBaseStructInit:
 552              	.LFB114:
 553              		.loc 1 345 0
 554              		.cfi_startproc
 555              		@ args = 0, pretend = 0, frame = 0
 556              		@ frame_needed = 0, uses_anonymous_args = 0
 557              		@ link register save eliminated.
 558              	.LVL52:
 559              		.loc 1 348 0
 560 0000 0023     		movs	r3, #0
 561              		.loc 1 347 0
 562 0002 4FF0FF32 		mov	r2, #-1
 563 0006 4260     		str	r2, [r0, #4]
 564              		.loc 1 348 0
 565 0008 0380     		strh	r3, [r0]	@ movhi
 566              		.loc 1 349 0
 567 000a 0381     		strh	r3, [r0, #8]	@ movhi
 568              		.loc 1 350 0
 569 000c 4380     		strh	r3, [r0, #2]	@ movhi
 570              		.loc 1 351 0
ARM GAS  /tmp/ccJZ9K5Y.s 			page 11


 571 000e 8372     		strb	r3, [r0, #10]
 572 0010 7047     		bx	lr
 573              		.cfi_endproc
 574              	.LFE114:
 575              		.size	TIM_TimeBaseStructInit, .-TIM_TimeBaseStructInit
 576 0012 00BF     		.section	.text.TIM_PrescalerConfig,"ax",%progbits
 577              		.align	2
 578              		.p2align 4,,15
 579              		.global	TIM_PrescalerConfig
 580              		.thumb
 581              		.thumb_func
 582              		.type	TIM_PrescalerConfig, %function
 583              	TIM_PrescalerConfig:
 584              	.LFB115:
 585              		.loc 1 365 0
 586              		.cfi_startproc
 587              		@ args = 0, pretend = 0, frame = 0
 588              		@ frame_needed = 0, uses_anonymous_args = 0
 589              		@ link register save eliminated.
 590              	.LVL53:
 591              		.loc 1 370 0
 592 0000 8162     		str	r1, [r0, #40]
 593              		.loc 1 372 0
 594 0002 4261     		str	r2, [r0, #20]
 595 0004 7047     		bx	lr
 596              		.cfi_endproc
 597              	.LFE115:
 598              		.size	TIM_PrescalerConfig, .-TIM_PrescalerConfig
 599 0006 00BF     		.section	.text.TIM_CounterModeConfig,"ax",%progbits
 600              		.align	2
 601              		.p2align 4,,15
 602              		.global	TIM_CounterModeConfig
 603              		.thumb
 604              		.thumb_func
 605              		.type	TIM_CounterModeConfig, %function
 606              	TIM_CounterModeConfig:
 607              	.LFB116:
 608              		.loc 1 388 0
 609              		.cfi_startproc
 610              		@ args = 0, pretend = 0, frame = 0
 611              		@ frame_needed = 0, uses_anonymous_args = 0
 612              		@ link register save eliminated.
 613              	.LVL54:
 614              		.loc 1 395 0
 615 0000 0268     		ldr	r2, [r0]
 616              	.LVL55:
 617              		.loc 1 398 0
 618 0002 4FF68F73 		movw	r3, #65423
 619 0006 1340     		ands	r3, r3, r2
 620              	.LVL56:
 621              		.loc 1 404 0
 622 0008 1943     		orrs	r1, r1, r3
 623              	.LVL57:
 624 000a 0160     		str	r1, [r0]
 625 000c 7047     		bx	lr
 626              		.cfi_endproc
 627              	.LFE116:
ARM GAS  /tmp/ccJZ9K5Y.s 			page 12


 628              		.size	TIM_CounterModeConfig, .-TIM_CounterModeConfig
 629 000e 00BF     		.section	.text.TIM_SetCounter,"ax",%progbits
 630              		.align	2
 631              		.p2align 4,,15
 632              		.global	TIM_SetCounter
 633              		.thumb
 634              		.thumb_func
 635              		.type	TIM_SetCounter, %function
 636              	TIM_SetCounter:
 637              	.LFB117:
 638              		.loc 1 414 0
 639              		.cfi_startproc
 640              		@ args = 0, pretend = 0, frame = 0
 641              		@ frame_needed = 0, uses_anonymous_args = 0
 642              		@ link register save eliminated.
 643              	.LVL58:
 644              		.loc 1 419 0
 645 0000 4162     		str	r1, [r0, #36]
 646 0002 7047     		bx	lr
 647              		.cfi_endproc
 648              	.LFE117:
 649              		.size	TIM_SetCounter, .-TIM_SetCounter
 650              		.section	.text.TIM_SetAutoreload,"ax",%progbits
 651              		.align	2
 652              		.p2align 4,,15
 653              		.global	TIM_SetAutoreload
 654              		.thumb
 655              		.thumb_func
 656              		.type	TIM_SetAutoreload, %function
 657              	TIM_SetAutoreload:
 658              	.LFB118:
 659              		.loc 1 429 0
 660              		.cfi_startproc
 661              		@ args = 0, pretend = 0, frame = 0
 662              		@ frame_needed = 0, uses_anonymous_args = 0
 663              		@ link register save eliminated.
 664              	.LVL59:
 665              		.loc 1 434 0
 666 0000 C162     		str	r1, [r0, #44]
 667 0002 7047     		bx	lr
 668              		.cfi_endproc
 669              	.LFE118:
 670              		.size	TIM_SetAutoreload, .-TIM_SetAutoreload
 671              		.section	.text.TIM_GetCounter,"ax",%progbits
 672              		.align	2
 673              		.p2align 4,,15
 674              		.global	TIM_GetCounter
 675              		.thumb
 676              		.thumb_func
 677              		.type	TIM_GetCounter, %function
 678              	TIM_GetCounter:
 679              	.LFB119:
 680              		.loc 1 443 0
 681              		.cfi_startproc
 682              		@ args = 0, pretend = 0, frame = 0
 683              		@ frame_needed = 0, uses_anonymous_args = 0
 684              		@ link register save eliminated.
ARM GAS  /tmp/ccJZ9K5Y.s 			page 13


 685              	.LVL60:
 686              		.loc 1 448 0
 687 0000 406A     		ldr	r0, [r0, #36]
 688              	.LVL61:
 689              		.loc 1 449 0
 690 0002 7047     		bx	lr
 691              		.cfi_endproc
 692              	.LFE119:
 693              		.size	TIM_GetCounter, .-TIM_GetCounter
 694              		.section	.text.TIM_GetPrescaler,"ax",%progbits
 695              		.align	2
 696              		.p2align 4,,15
 697              		.global	TIM_GetPrescaler
 698              		.thumb
 699              		.thumb_func
 700              		.type	TIM_GetPrescaler, %function
 701              	TIM_GetPrescaler:
 702              	.LFB120:
 703              		.loc 1 457 0
 704              		.cfi_startproc
 705              		@ args = 0, pretend = 0, frame = 0
 706              		@ frame_needed = 0, uses_anonymous_args = 0
 707              		@ link register save eliminated.
 708              	.LVL62:
 709              		.loc 1 462 0
 710 0000 806A     		ldr	r0, [r0, #40]
 711              	.LVL63:
 712              		.loc 1 463 0
 713 0002 80B2     		uxth	r0, r0
 714 0004 7047     		bx	lr
 715              		.cfi_endproc
 716              	.LFE120:
 717              		.size	TIM_GetPrescaler, .-TIM_GetPrescaler
 718 0006 00BF     		.section	.text.TIM_UpdateDisableConfig,"ax",%progbits
 719              		.align	2
 720              		.p2align 4,,15
 721              		.global	TIM_UpdateDisableConfig
 722              		.thumb
 723              		.thumb_func
 724              		.type	TIM_UpdateDisableConfig, %function
 725              	TIM_UpdateDisableConfig:
 726              	.LFB121:
 727              		.loc 1 473 0
 728              		.cfi_startproc
 729              		@ args = 0, pretend = 0, frame = 0
 730              		@ frame_needed = 0, uses_anonymous_args = 0
 731              		@ link register save eliminated.
 732              	.LVL64:
 733              		.loc 1 478 0
 734 0000 29B9     		cbnz	r1, .L60
 735              		.loc 1 486 0
 736 0002 0268     		ldr	r2, [r0]
 737 0004 4FF6FD73 		movw	r3, #65533
 738 0008 1340     		ands	r3, r3, r2
 739 000a 0360     		str	r3, [r0]
 740 000c 7047     		bx	lr
 741              	.L60:
ARM GAS  /tmp/ccJZ9K5Y.s 			page 14


 742              		.loc 1 481 0
 743 000e 0368     		ldr	r3, [r0]
 744 0010 43F00203 		orr	r3, r3, #2
 745 0014 0360     		str	r3, [r0]
 746 0016 7047     		bx	lr
 747              		.cfi_endproc
 748              	.LFE121:
 749              		.size	TIM_UpdateDisableConfig, .-TIM_UpdateDisableConfig
 750              		.section	.text.TIM_UpdateRequestConfig,"ax",%progbits
 751              		.align	2
 752              		.p2align 4,,15
 753              		.global	TIM_UpdateRequestConfig
 754              		.thumb
 755              		.thumb_func
 756              		.type	TIM_UpdateRequestConfig, %function
 757              	TIM_UpdateRequestConfig:
 758              	.LFB122:
 759              		.loc 1 502 0
 760              		.cfi_startproc
 761              		@ args = 0, pretend = 0, frame = 0
 762              		@ frame_needed = 0, uses_anonymous_args = 0
 763              		@ link register save eliminated.
 764              	.LVL65:
 765              		.loc 1 507 0
 766 0000 29B9     		cbnz	r1, .L64
 767              		.loc 1 515 0
 768 0002 0268     		ldr	r2, [r0]
 769 0004 4FF6FB73 		movw	r3, #65531
 770 0008 1340     		ands	r3, r3, r2
 771 000a 0360     		str	r3, [r0]
 772 000c 7047     		bx	lr
 773              	.L64:
 774              		.loc 1 510 0
 775 000e 0368     		ldr	r3, [r0]
 776 0010 43F00403 		orr	r3, r3, #4
 777 0014 0360     		str	r3, [r0]
 778 0016 7047     		bx	lr
 779              		.cfi_endproc
 780              	.LFE122:
 781              		.size	TIM_UpdateRequestConfig, .-TIM_UpdateRequestConfig
 782              		.section	.text.TIM_ARRPreloadConfig,"ax",%progbits
 783              		.align	2
 784              		.p2align 4,,15
 785              		.global	TIM_ARRPreloadConfig
 786              		.thumb
 787              		.thumb_func
 788              		.type	TIM_ARRPreloadConfig, %function
 789              	TIM_ARRPreloadConfig:
 790              	.LFB123:
 791              		.loc 1 527 0
 792              		.cfi_startproc
 793              		@ args = 0, pretend = 0, frame = 0
 794              		@ frame_needed = 0, uses_anonymous_args = 0
 795              		@ link register save eliminated.
 796              	.LVL66:
 797              		.loc 1 532 0
 798 0000 29B9     		cbnz	r1, .L68
ARM GAS  /tmp/ccJZ9K5Y.s 			page 15


 799              		.loc 1 540 0
 800 0002 0268     		ldr	r2, [r0]
 801 0004 4FF67F73 		movw	r3, #65407
 802 0008 1340     		ands	r3, r3, r2
 803 000a 0360     		str	r3, [r0]
 804 000c 7047     		bx	lr
 805              	.L68:
 806              		.loc 1 535 0
 807 000e 0368     		ldr	r3, [r0]
 808 0010 43F08003 		orr	r3, r3, #128
 809 0014 0360     		str	r3, [r0]
 810 0016 7047     		bx	lr
 811              		.cfi_endproc
 812              	.LFE123:
 813              		.size	TIM_ARRPreloadConfig, .-TIM_ARRPreloadConfig
 814              		.section	.text.TIM_SelectOnePulseMode,"ax",%progbits
 815              		.align	2
 816              		.p2align 4,,15
 817              		.global	TIM_SelectOnePulseMode
 818              		.thumb
 819              		.thumb_func
 820              		.type	TIM_SelectOnePulseMode, %function
 821              	TIM_SelectOnePulseMode:
 822              	.LFB124:
 823              		.loc 1 554 0
 824              		.cfi_startproc
 825              		@ args = 0, pretend = 0, frame = 0
 826              		@ frame_needed = 0, uses_anonymous_args = 0
 827              		@ link register save eliminated.
 828              	.LVL67:
 829              		.loc 1 560 0
 830 0000 0268     		ldr	r2, [r0]
 831 0002 4FF6F773 		movw	r3, #65527
 832 0006 1340     		ands	r3, r3, r2
 833 0008 0360     		str	r3, [r0]
 834              		.loc 1 563 0
 835 000a 0368     		ldr	r3, [r0]
 836 000c 1943     		orrs	r1, r1, r3
 837              	.LVL68:
 838 000e 0160     		str	r1, [r0]
 839 0010 7047     		bx	lr
 840              		.cfi_endproc
 841              	.LFE124:
 842              		.size	TIM_SelectOnePulseMode, .-TIM_SelectOnePulseMode
 843 0012 00BF     		.section	.text.TIM_SetClockDivision,"ax",%progbits
 844              		.align	2
 845              		.p2align 4,,15
 846              		.global	TIM_SetClockDivision
 847              		.thumb
 848              		.thumb_func
 849              		.type	TIM_SetClockDivision, %function
 850              	TIM_SetClockDivision:
 851              	.LFB125:
 852              		.loc 1 577 0
 853              		.cfi_startproc
 854              		@ args = 0, pretend = 0, frame = 0
 855              		@ frame_needed = 0, uses_anonymous_args = 0
ARM GAS  /tmp/ccJZ9K5Y.s 			page 16


 856              		@ link register save eliminated.
 857              	.LVL69:
 858              		.loc 1 583 0
 859 0000 0268     		ldr	r2, [r0]
 860 0002 4FF6FF43 		movw	r3, #64767
 861 0006 1340     		ands	r3, r3, r2
 862 0008 0360     		str	r3, [r0]
 863              		.loc 1 586 0
 864 000a 0368     		ldr	r3, [r0]
 865 000c 1943     		orrs	r1, r1, r3
 866              	.LVL70:
 867 000e 0160     		str	r1, [r0]
 868 0010 7047     		bx	lr
 869              		.cfi_endproc
 870              	.LFE125:
 871              		.size	TIM_SetClockDivision, .-TIM_SetClockDivision
 872 0012 00BF     		.section	.text.TIM_Cmd,"ax",%progbits
 873              		.align	2
 874              		.p2align 4,,15
 875              		.global	TIM_Cmd
 876              		.thumb
 877              		.thumb_func
 878              		.type	TIM_Cmd, %function
 879              	TIM_Cmd:
 880              	.LFB126:
 881              		.loc 1 597 0
 882              		.cfi_startproc
 883              		@ args = 0, pretend = 0, frame = 0
 884              		@ frame_needed = 0, uses_anonymous_args = 0
 885              		@ link register save eliminated.
 886              	.LVL71:
 887              		.loc 1 602 0
 888 0000 29B9     		cbnz	r1, .L74
 889              		.loc 1 610 0
 890 0002 0268     		ldr	r2, [r0]
 891 0004 4FF6FE73 		movw	r3, #65534
 892 0008 1340     		ands	r3, r3, r2
 893 000a 0360     		str	r3, [r0]
 894 000c 7047     		bx	lr
 895              	.L74:
 896              		.loc 1 605 0
 897 000e 0368     		ldr	r3, [r0]
 898 0010 43F00103 		orr	r3, r3, #1
 899 0014 0360     		str	r3, [r0]
 900 0016 7047     		bx	lr
 901              		.cfi_endproc
 902              	.LFE126:
 903              		.size	TIM_Cmd, .-TIM_Cmd
 904              		.section	.text.TIM_OC1Init,"ax",%progbits
 905              		.align	2
 906              		.p2align 4,,15
 907              		.global	TIM_OC1Init
 908              		.thumb
 909              		.thumb_func
 910              		.type	TIM_OC1Init, %function
 911              	TIM_OC1Init:
 912              	.LFB127:
ARM GAS  /tmp/ccJZ9K5Y.s 			page 17


 913              		.loc 1 678 0
 914              		.cfi_startproc
 915              		@ args = 0, pretend = 0, frame = 0
 916              		@ frame_needed = 0, uses_anonymous_args = 0
 917              	.LVL72:
 918              		.loc 1 688 0
 919 0000 026A     		ldr	r2, [r0, #32]
 920 0002 4FF6FE73 		movw	r3, #65534
 921 0006 1340     		ands	r3, r3, r2
 922 0008 0362     		str	r3, [r0, #32]
 923              		.loc 1 678 0
 924 000a F0B5     		push	{r4, r5, r6, r7, lr}
 925              		.cfi_def_cfa_offset 20
 926              		.cfi_offset 4, -20
 927              		.cfi_offset 5, -16
 928              		.cfi_offset 6, -12
 929              		.cfi_offset 7, -8
 930              		.cfi_offset 14, -4
 931 000c 8A89     		ldrh	r2, [r1, #12]
 932              		.loc 1 691 0
 933 000e 046A     		ldr	r4, [r0, #32]
 934              	.LVL73:
 935 0010 4B88     		ldrh	r3, [r1, #2]
 936              		.loc 1 693 0
 937 0012 4668     		ldr	r6, [r0, #4]
 938              		.loc 1 712 0
 939 0014 174F     		ldr	r7, .L79
 940              		.loc 1 696 0
 941 0016 D0F818C0 		ldr	ip, [r0, #24]
 942              		.loc 1 702 0
 943 001a B1F800E0 		ldrh	lr, [r1]
 944              		.loc 1 705 0
 945 001e 4FF6FD75 		movw	r5, #65533
 946 0022 2540     		ands	r5, r5, r4
 947 0024 1343     		orrs	r3, r3, r2
 948              		.loc 1 700 0
 949 0026 4FF68C74 		movw	r4, #65420
 950              	.LVL74:
 951              		.loc 1 710 0
 952 002a 2B43     		orrs	r3, r3, r5
 953              		.loc 1 700 0
 954 002c 0CEA0404 		and	r4, ip, r4
 955              		.loc 1 712 0
 956 0030 B842     		cmp	r0, r7
 957              		.loc 1 710 0
 958 0032 9BB2     		uxth	r3, r3
 959              		.loc 1 693 0
 960 0034 B2B2     		uxth	r2, r6
 961              	.LVL75:
 962              		.loc 1 702 0
 963 0036 44EA0E04 		orr	r4, r4, lr
 964              	.LVL76:
 965              		.loc 1 712 0
 966 003a 08D0     		beq	.L76
 967              		.loc 1 712 0 is_stmt 0 discriminator 1
 968 003c 0E4D     		ldr	r5, .L79+4
 969 003e A842     		cmp	r0, r5
ARM GAS  /tmp/ccJZ9K5Y.s 			page 18


 970 0040 05D0     		beq	.L76
 971              	.L77:
 972              		.loc 1 743 0 is_stmt 1
 973 0042 8968     		ldr	r1, [r1, #8]
 974              	.LVL77:
 975              		.loc 1 737 0
 976 0044 4260     		str	r2, [r0, #4]
 977              		.loc 1 740 0
 978 0046 8461     		str	r4, [r0, #24]
 979              		.loc 1 743 0
 980 0048 4163     		str	r1, [r0, #52]
 981              		.loc 1 746 0
 982 004a 0362     		str	r3, [r0, #32]
 983 004c F0BD     		pop	{r4, r5, r6, r7, pc}
 984              	.LVL78:
 985              	.L76:
 986              		.loc 1 722 0
 987 004e CE89     		ldrh	r6, [r1, #14]
 988 0050 B1F812E0 		ldrh	lr, [r1, #18]
 989 0054 0D8A     		ldrh	r5, [r1, #16]
 990              		.loc 1 727 0
 991 0056 8F88     		ldrh	r7, [r1, #4]
 992              		.loc 1 720 0
 993 0058 23F00803 		bic	r3, r3, #8
 994              	.LVL79:
 995              		.loc 1 730 0
 996 005c 22F44072 		bic	r2, r2, #768
 997              	.LVL80:
 998              		.loc 1 722 0
 999 0060 3343     		orrs	r3, r3, r6
 1000              	.LVL81:
 1001 0062 4EEA0505 		orr	r5, lr, r5
 1002              		.loc 1 724 0
 1003 0066 23F00403 		bic	r3, r3, #4
 1004              	.LVL82:
 1005              		.loc 1 734 0
 1006 006a 2A43     		orrs	r2, r2, r5
 1007              		.loc 1 727 0
 1008 006c 3B43     		orrs	r3, r3, r7
 1009              	.LVL83:
 1010              		.loc 1 734 0
 1011 006e 92B2     		uxth	r2, r2
 1012              	.LVL84:
 1013 0070 E7E7     		b	.L77
 1014              	.L80:
 1015 0072 00BF     		.align	2
 1016              	.L79:
 1017 0074 00000140 		.word	1073807360
 1018 0078 00040140 		.word	1073808384
 1019              		.cfi_endproc
 1020              	.LFE127:
 1021              		.size	TIM_OC1Init, .-TIM_OC1Init
 1022              		.section	.text.TIM_OC2Init,"ax",%progbits
 1023              		.align	2
 1024              		.p2align 4,,15
 1025              		.global	TIM_OC2Init
 1026              		.thumb
ARM GAS  /tmp/ccJZ9K5Y.s 			page 19


 1027              		.thumb_func
 1028              		.type	TIM_OC2Init, %function
 1029              	TIM_OC2Init:
 1030              	.LFB128:
 1031              		.loc 1 759 0
 1032              		.cfi_startproc
 1033              		@ args = 0, pretend = 0, frame = 0
 1034              		@ frame_needed = 0, uses_anonymous_args = 0
 1035              	.LVL85:
 1036              		.loc 1 769 0
 1037 0000 026A     		ldr	r2, [r0, #32]
 1038              		.loc 1 792 0
 1039 0002 B1F802C0 		ldrh	ip, [r1, #2]
 1040              		.loc 1 769 0
 1041 0006 4FF6EF73 		movw	r3, #65519
 1042 000a 1340     		ands	r3, r3, r2
 1043 000c 0362     		str	r3, [r0, #32]
 1044              		.loc 1 759 0
 1045 000e 2DE9F041 		push	{r4, r5, r6, r7, r8, lr}
 1046              		.cfi_def_cfa_offset 24
 1047              		.cfi_offset 4, -24
 1048              		.cfi_offset 5, -20
 1049              		.cfi_offset 6, -16
 1050              		.cfi_offset 7, -12
 1051              		.cfi_offset 8, -8
 1052              		.cfi_offset 14, -4
 1053              		.loc 1 772 0
 1054 0012 D0F82080 		ldr	r8, [r0, #32]
 1055              	.LVL86:
 1056              		.loc 1 789 0
 1057 0016 8D89     		ldrh	r5, [r1, #12]
 1058              		.loc 1 774 0
 1059 0018 4468     		ldr	r4, [r0, #4]
 1060              		.loc 1 777 0
 1061 001a D0F818E0 		ldr	lr, [r0, #24]
 1062              		.loc 1 794 0
 1063 001e 1C4E     		ldr	r6, .L85
 1064              		.loc 1 784 0
 1065 0020 0F88     		ldrh	r7, [r1]
 1066              		.loc 1 787 0
 1067 0022 4FF6DF72 		movw	r2, #65503
 1068              		.loc 1 781 0
 1069 0026 48F6FF43 		movw	r3, #36095
 1070              		.loc 1 787 0
 1071 002a 08EA0202 		and	r2, r8, r2
 1072 002e 4CEA0505 		orr	r5, ip, r5
 1073              		.loc 1 781 0
 1074 0032 0EEA0303 		and	r3, lr, r3
 1075              		.loc 1 792 0
 1076 0036 42EA0512 		orr	r2, r2, r5, lsl #4
 1077              		.loc 1 784 0
 1078 003a 43EA0723 		orr	r3, r3, r7, lsl #8
 1079              		.loc 1 794 0
 1080 003e B042     		cmp	r0, r6
 1081              		.loc 1 792 0
 1082 0040 92B2     		uxth	r2, r2
 1083              		.loc 1 774 0
ARM GAS  /tmp/ccJZ9K5Y.s 			page 20


 1084 0042 A4B2     		uxth	r4, r4
 1085              	.LVL87:
 1086              		.loc 1 784 0
 1087 0044 9BB2     		uxth	r3, r3
 1088              	.LVL88:
 1089              		.loc 1 794 0
 1090 0046 09D0     		beq	.L82
 1091              		.loc 1 794 0 is_stmt 0 discriminator 1
 1092 0048 124D     		ldr	r5, .L85+4
 1093 004a A842     		cmp	r0, r5
 1094 004c 06D0     		beq	.L82
 1095              	.L83:
 1096              		.loc 1 825 0 is_stmt 1
 1097 004e 8968     		ldr	r1, [r1, #8]
 1098              	.LVL89:
 1099              		.loc 1 819 0
 1100 0050 4460     		str	r4, [r0, #4]
 1101              		.loc 1 822 0
 1102 0052 8361     		str	r3, [r0, #24]
 1103              		.loc 1 825 0
 1104 0054 8163     		str	r1, [r0, #56]
 1105              		.loc 1 828 0
 1106 0056 0262     		str	r2, [r0, #32]
 1107 0058 BDE8F081 		pop	{r4, r5, r6, r7, r8, pc}
 1108              	.LVL90:
 1109              	.L82:
 1110              		.loc 1 804 0
 1111 005c CD89     		ldrh	r5, [r1, #14]
 1112              		.loc 1 816 0
 1113 005e B1F81280 		ldrh	r8, [r1, #18]
 1114              		.loc 1 814 0
 1115 0062 0F8A     		ldrh	r7, [r1, #16]
 1116              		.loc 1 809 0
 1117 0064 B1F804C0 		ldrh	ip, [r1, #4]
 1118              		.loc 1 802 0
 1119 0068 22F0800E 		bic	lr, r2, #128
 1120              	.LVL91:
 1121              		.loc 1 804 0
 1122 006c 4EEA051E 		orr	lr, lr, r5, lsl #4
 1123              	.LVL92:
 1124              		.loc 1 806 0
 1125 0070 4FF6BF75 		movw	r5, #65471
 1126              		.loc 1 812 0
 1127 0074 24F44066 		bic	r6, r4, #3072
 1128              		.loc 1 806 0
 1129 0078 0EEA0505 		and	r5, lr, r5
 1130              	.LVL93:
 1131 007c 48EA0704 		orr	r4, r8, r7
 1132              	.LVL94:
 1133              		.loc 1 809 0
 1134 0080 45EA0C12 		orr	r2, r5, ip, lsl #4
 1135              		.loc 1 816 0
 1136 0084 46EA8404 		orr	r4, r6, r4, lsl #2
 1137              		.loc 1 809 0
 1138 0088 92B2     		uxth	r2, r2
 1139              	.LVL95:
 1140              		.loc 1 816 0
ARM GAS  /tmp/ccJZ9K5Y.s 			page 21


 1141 008a A4B2     		uxth	r4, r4
 1142              	.LVL96:
 1143 008c DFE7     		b	.L83
 1144              	.L86:
 1145 008e 00BF     		.align	2
 1146              	.L85:
 1147 0090 00000140 		.word	1073807360
 1148 0094 00040140 		.word	1073808384
 1149              		.cfi_endproc
 1150              	.LFE128:
 1151              		.size	TIM_OC2Init, .-TIM_OC2Init
 1152              		.section	.text.TIM_OC3Init,"ax",%progbits
 1153              		.align	2
 1154              		.p2align 4,,15
 1155              		.global	TIM_OC3Init
 1156              		.thumb
 1157              		.thumb_func
 1158              		.type	TIM_OC3Init, %function
 1159              	TIM_OC3Init:
 1160              	.LFB129:
 1161              		.loc 1 840 0
 1162              		.cfi_startproc
 1163              		@ args = 0, pretend = 0, frame = 0
 1164              		@ frame_needed = 0, uses_anonymous_args = 0
 1165              	.LVL97:
 1166              		.loc 1 850 0
 1167 0000 026A     		ldr	r2, [r0, #32]
 1168              		.loc 1 864 0
 1169 0002 B1F800C0 		ldrh	ip, [r1]
 1170              		.loc 1 850 0
 1171 0006 4FF6FF63 		movw	r3, #65279
 1172 000a 1340     		ands	r3, r3, r2
 1173 000c 0362     		str	r3, [r0, #32]
 1174              		.loc 1 840 0
 1175 000e 2DE9F041 		push	{r4, r5, r6, r7, r8, lr}
 1176              		.cfi_def_cfa_offset 24
 1177              		.cfi_offset 4, -24
 1178              		.cfi_offset 5, -20
 1179              		.cfi_offset 6, -16
 1180              		.cfi_offset 7, -12
 1181              		.cfi_offset 8, -8
 1182              		.cfi_offset 14, -4
 1183              		.loc 1 853 0
 1184 0012 026A     		ldr	r2, [r0, #32]
 1185              	.LVL98:
 1186              		.loc 1 872 0
 1187 0014 B1F802E0 		ldrh	lr, [r1, #2]
 1188              		.loc 1 869 0
 1189 0018 8C89     		ldrh	r4, [r1, #12]
 1190              		.loc 1 855 0
 1191 001a 4568     		ldr	r5, [r0, #4]
 1192              		.loc 1 874 0
 1193 001c 1A4E     		ldr	r6, .L91
 1194              		.loc 1 858 0
 1195 001e C769     		ldr	r7, [r0, #28]
 1196              		.loc 1 867 0
 1197 0020 4FF6FF53 		movw	r3, #65023
ARM GAS  /tmp/ccJZ9K5Y.s 			page 22


 1198 0024 1340     		ands	r3, r3, r2
 1199 0026 4EEA0404 		orr	r4, lr, r4
 1200              		.loc 1 862 0
 1201 002a 4FF68C72 		movw	r2, #65420
 1202              	.LVL99:
 1203              		.loc 1 872 0
 1204 002e 43EA0423 		orr	r3, r3, r4, lsl #8
 1205              		.loc 1 862 0
 1206 0032 3A40     		ands	r2, r2, r7
 1207              		.loc 1 874 0
 1208 0034 B042     		cmp	r0, r6
 1209              		.loc 1 872 0
 1210 0036 9BB2     		uxth	r3, r3
 1211              		.loc 1 855 0
 1212 0038 ADB2     		uxth	r5, r5
 1213              	.LVL100:
 1214              		.loc 1 864 0
 1215 003a 42EA0C02 		orr	r2, r2, ip
 1216              	.LVL101:
 1217              		.loc 1 874 0
 1218 003e 09D0     		beq	.L88
 1219              		.loc 1 874 0 is_stmt 0 discriminator 1
 1220 0040 124C     		ldr	r4, .L91+4
 1221 0042 A042     		cmp	r0, r4
 1222 0044 06D0     		beq	.L88
 1223              	.L89:
 1224              		.loc 1 905 0 is_stmt 1
 1225 0046 8968     		ldr	r1, [r1, #8]
 1226              	.LVL102:
 1227              		.loc 1 899 0
 1228 0048 4560     		str	r5, [r0, #4]
 1229              		.loc 1 902 0
 1230 004a C261     		str	r2, [r0, #28]
 1231              		.loc 1 905 0
 1232 004c C163     		str	r1, [r0, #60]
 1233              		.loc 1 908 0
 1234 004e 0362     		str	r3, [r0, #32]
 1235 0050 BDE8F081 		pop	{r4, r5, r6, r7, r8, pc}
 1236              	.LVL103:
 1237              	.L88:
 1238              		.loc 1 884 0
 1239 0054 CC89     		ldrh	r4, [r1, #14]
 1240              		.loc 1 896 0
 1241 0056 B1F81280 		ldrh	r8, [r1, #18]
 1242              		.loc 1 894 0
 1243 005a 0F8A     		ldrh	r7, [r1, #16]
 1244              		.loc 1 889 0
 1245 005c B1F804C0 		ldrh	ip, [r1, #4]
 1246              		.loc 1 882 0
 1247 0060 23F4006E 		bic	lr, r3, #2048
 1248              	.LVL104:
 1249              		.loc 1 884 0
 1250 0064 4EEA042E 		orr	lr, lr, r4, lsl #8
 1251              	.LVL105:
 1252              		.loc 1 886 0
 1253 0068 4FF6FF34 		movw	r4, #64511
 1254              		.loc 1 892 0
ARM GAS  /tmp/ccJZ9K5Y.s 			page 23


 1255 006c 25F44056 		bic	r6, r5, #12288
 1256              		.loc 1 886 0
 1257 0070 0EEA0404 		and	r4, lr, r4
 1258              	.LVL106:
 1259 0074 48EA0705 		orr	r5, r8, r7
 1260              	.LVL107:
 1261              		.loc 1 889 0
 1262 0078 44EA0C23 		orr	r3, r4, ip, lsl #8
 1263              		.loc 1 896 0
 1264 007c 46EA0515 		orr	r5, r6, r5, lsl #4
 1265              		.loc 1 889 0
 1266 0080 9BB2     		uxth	r3, r3
 1267              	.LVL108:
 1268              		.loc 1 896 0
 1269 0082 ADB2     		uxth	r5, r5
 1270              	.LVL109:
 1271 0084 DFE7     		b	.L89
 1272              	.L92:
 1273 0086 00BF     		.align	2
 1274              	.L91:
 1275 0088 00000140 		.word	1073807360
 1276 008c 00040140 		.word	1073808384
 1277              		.cfi_endproc
 1278              	.LFE129:
 1279              		.size	TIM_OC3Init, .-TIM_OC3Init
 1280              		.section	.text.TIM_OC4Init,"ax",%progbits
 1281              		.align	2
 1282              		.p2align 4,,15
 1283              		.global	TIM_OC4Init
 1284              		.thumb
 1285              		.thumb_func
 1286              		.type	TIM_OC4Init, %function
 1287              	TIM_OC4Init:
 1288              	.LFB130:
 1289              		.loc 1 920 0
 1290              		.cfi_startproc
 1291              		@ args = 0, pretend = 0, frame = 0
 1292              		@ frame_needed = 0, uses_anonymous_args = 0
 1293              	.LVL110:
 1294              		.loc 1 930 0
 1295 0000 026A     		ldr	r2, [r0, #32]
 1296              		.loc 1 953 0
 1297 0002 B1F802C0 		ldrh	ip, [r1, #2]
 1298              		.loc 1 930 0
 1299 0006 4EF6FF73 		movw	r3, #61439
 1300 000a 1340     		ands	r3, r3, r2
 1301 000c 0362     		str	r3, [r0, #32]
 1302              		.loc 1 920 0
 1303 000e 2DE9F041 		push	{r4, r5, r6, r7, r8, lr}
 1304              		.cfi_def_cfa_offset 24
 1305              		.cfi_offset 4, -24
 1306              		.cfi_offset 5, -20
 1307              		.cfi_offset 6, -16
 1308              		.cfi_offset 7, -12
 1309              		.cfi_offset 8, -8
 1310              		.cfi_offset 14, -4
 1311              		.loc 1 933 0
ARM GAS  /tmp/ccJZ9K5Y.s 			page 24


 1312 0012 D0F82080 		ldr	r8, [r0, #32]
 1313              	.LVL111:
 1314              		.loc 1 950 0
 1315 0016 8D89     		ldrh	r5, [r1, #12]
 1316              		.loc 1 935 0
 1317 0018 4468     		ldr	r4, [r0, #4]
 1318              		.loc 1 938 0
 1319 001a D0F81CE0 		ldr	lr, [r0, #28]
 1320              		.loc 1 955 0
 1321 001e 134E     		ldr	r6, .L97
 1322              		.loc 1 945 0
 1323 0020 0F88     		ldrh	r7, [r1]
 1324              		.loc 1 948 0
 1325 0022 4DF6FF73 		movw	r3, #57343
 1326              		.loc 1 942 0
 1327 0026 48F6FF42 		movw	r2, #36095
 1328              		.loc 1 948 0
 1329 002a 08EA0303 		and	r3, r8, r3
 1330 002e 4CEA0505 		orr	r5, ip, r5
 1331              		.loc 1 942 0
 1332 0032 0EEA0202 		and	r2, lr, r2
 1333              		.loc 1 953 0
 1334 0036 43EA0533 		orr	r3, r3, r5, lsl #12
 1335              		.loc 1 945 0
 1336 003a 42EA0722 		orr	r2, r2, r7, lsl #8
 1337              		.loc 1 955 0
 1338 003e B042     		cmp	r0, r6
 1339              		.loc 1 953 0
 1340 0040 9BB2     		uxth	r3, r3
 1341              		.loc 1 935 0
 1342 0042 A4B2     		uxth	r4, r4
 1343              	.LVL112:
 1344              		.loc 1 945 0
 1345 0044 92B2     		uxth	r2, r2
 1346              	.LVL113:
 1347              		.loc 1 955 0
 1348 0046 09D0     		beq	.L94
 1349              		.loc 1 955 0 is_stmt 0 discriminator 1
 1350 0048 094D     		ldr	r5, .L97+4
 1351 004a A842     		cmp	r0, r5
 1352 004c 06D0     		beq	.L94
 1353              	.L95:
 1354              		.loc 1 970 0 is_stmt 1
 1355 004e 8968     		ldr	r1, [r1, #8]
 1356              	.LVL114:
 1357              		.loc 1 964 0
 1358 0050 4460     		str	r4, [r0, #4]
 1359              		.loc 1 967 0
 1360 0052 C261     		str	r2, [r0, #28]
 1361              		.loc 1 970 0
 1362 0054 0164     		str	r1, [r0, #64]
 1363              		.loc 1 973 0
 1364 0056 0362     		str	r3, [r0, #32]
 1365 0058 BDE8F081 		pop	{r4, r5, r6, r7, r8, pc}
 1366              	.LVL115:
 1367              	.L94:
 1368              		.loc 1 961 0
ARM GAS  /tmp/ccJZ9K5Y.s 			page 25


 1369 005c 0D8A     		ldrh	r5, [r1, #16]
 1370              		.loc 1 959 0
 1371 005e 24F48044 		bic	r4, r4, #16384
 1372              	.LVL116:
 1373              		.loc 1 961 0
 1374 0062 44EA8514 		orr	r4, r4, r5, lsl #6
 1375              	.LVL117:
 1376 0066 A4B2     		uxth	r4, r4
 1377              	.LVL118:
 1378 0068 F1E7     		b	.L95
 1379              	.L98:
 1380 006a 00BF     		.align	2
 1381              	.L97:
 1382 006c 00000140 		.word	1073807360
 1383 0070 00040140 		.word	1073808384
 1384              		.cfi_endproc
 1385              	.LFE130:
 1386              		.size	TIM_OC4Init, .-TIM_OC4Init
 1387              		.section	.text.TIM_OCStructInit,"ax",%progbits
 1388              		.align	2
 1389              		.p2align 4,,15
 1390              		.global	TIM_OCStructInit
 1391              		.thumb
 1392              		.thumb_func
 1393              		.type	TIM_OCStructInit, %function
 1394              	TIM_OCStructInit:
 1395              	.LFB131:
 1396              		.loc 1 983 0
 1397              		.cfi_startproc
 1398              		@ args = 0, pretend = 0, frame = 0
 1399              		@ frame_needed = 0, uses_anonymous_args = 0
 1400              		@ link register save eliminated.
 1401              	.LVL119:
 1402              		.loc 1 985 0
 1403 0000 0023     		movs	r3, #0
 1404 0002 0380     		strh	r3, [r0]	@ movhi
 1405              		.loc 1 986 0
 1406 0004 4380     		strh	r3, [r0, #2]	@ movhi
 1407              		.loc 1 987 0
 1408 0006 8380     		strh	r3, [r0, #4]	@ movhi
 1409              		.loc 1 988 0
 1410 0008 8360     		str	r3, [r0, #8]
 1411              		.loc 1 989 0
 1412 000a 8381     		strh	r3, [r0, #12]	@ movhi
 1413              		.loc 1 990 0
 1414 000c C381     		strh	r3, [r0, #14]	@ movhi
 1415              		.loc 1 991 0
 1416 000e 0382     		strh	r3, [r0, #16]	@ movhi
 1417              		.loc 1 992 0
 1418 0010 4382     		strh	r3, [r0, #18]	@ movhi
 1419 0012 7047     		bx	lr
 1420              		.cfi_endproc
 1421              	.LFE131:
 1422              		.size	TIM_OCStructInit, .-TIM_OCStructInit
 1423              		.section	.text.TIM_SelectOCxM,"ax",%progbits
 1424              		.align	2
 1425              		.p2align 4,,15
ARM GAS  /tmp/ccJZ9K5Y.s 			page 26


 1426              		.global	TIM_SelectOCxM
 1427              		.thumb
 1428              		.thumb_func
 1429              		.type	TIM_SelectOCxM, %function
 1430              	TIM_SelectOCxM:
 1431              	.LFB132:
 1432              		.loc 1 1019 0
 1433              		.cfi_startproc
 1434              		@ args = 0, pretend = 0, frame = 0
 1435              		@ frame_needed = 0, uses_anonymous_args = 0
 1436              		@ link register save eliminated.
 1437              	.LVL120:
 1438              		.loc 1 1031 0
 1439 0000 0123     		movs	r3, #1
 1440 0002 8B40     		lsls	r3, r3, r1
 1441              		.loc 1 1019 0
 1442 0004 10B4     		push	{r4}
 1443              		.cfi_def_cfa_offset 4
 1444              		.cfi_offset 4, -4
 1445              		.loc 1 1034 0
 1446 0006 DB43     		mvns	r3, r3
 1447 0008 046A     		ldr	r4, [r0, #32]
 1448 000a 9BB2     		uxth	r3, r3
 1449 000c 2340     		ands	r3, r3, r4
 1450              		.loc 1 1036 0
 1451 000e 21F00804 		bic	r4, r1, #8
 1452              		.loc 1 1034 0
 1453 0012 0362     		str	r3, [r0, #32]
 1454              		.loc 1 1029 0
 1455 0014 1830     		adds	r0, r0, #24
 1456              	.LVL121:
 1457              		.loc 1 1036 0
 1458 0016 7CB1     		cbz	r4, .L104
 1459              	.LVL122:
 1460              		.loc 1 1048 0
 1461 0018 0439     		subs	r1, r1, #4
 1462              	.LVL123:
 1463 001a C1F34E01 		ubfx	r1, r1, #1, #15
 1464              		.loc 1 1051 0
 1465 001e 48F6FF73 		movw	r3, #36863
 1466 0022 0C58     		ldr	r4, [r1, r0]
 1467 0024 2340     		ands	r3, r3, r4
 1468 0026 0B50     		str	r3, [r1, r0]
 1469              		.loc 1 1054 0
 1470 0028 1202     		lsls	r2, r2, #8
 1471              	.LVL124:
 1472 002a 0B58     		ldr	r3, [r1, r0]
 1473              		.loc 1 1056 0
 1474 002c 5DF8044B 		ldr	r4, [sp], #4
 1475              		.cfi_remember_state
 1476              		.cfi_restore 4
 1477              		.cfi_def_cfa_offset 0
 1478              		.loc 1 1054 0
 1479 0030 92B2     		uxth	r2, r2
 1480 0032 1A43     		orrs	r2, r2, r3
 1481 0034 0A50     		str	r2, [r1, r0]
 1482              		.loc 1 1056 0
ARM GAS  /tmp/ccJZ9K5Y.s 			page 27


 1483 0036 7047     		bx	lr
 1484              	.LVL125:
 1485              	.L104:
 1486              		.cfi_restore_state
 1487              		.loc 1 1038 0
 1488 0038 4908     		lsrs	r1, r1, #1
 1489              	.LVL126:
 1490              		.loc 1 1041 0
 1491 003a 4FF68F73 		movw	r3, #65423
 1492 003e 4458     		ldr	r4, [r0, r1]
 1493 0040 2340     		ands	r3, r3, r4
 1494 0042 4350     		str	r3, [r0, r1]
 1495              		.loc 1 1044 0
 1496 0044 4358     		ldr	r3, [r0, r1]
 1497              		.loc 1 1056 0
 1498 0046 5DF8044B 		ldr	r4, [sp], #4
 1499              		.cfi_restore 4
 1500              		.cfi_def_cfa_offset 0
 1501              		.loc 1 1044 0
 1502 004a 1A43     		orrs	r2, r2, r3
 1503              	.LVL127:
 1504 004c 4250     		str	r2, [r0, r1]
 1505              		.loc 1 1056 0
 1506 004e 7047     		bx	lr
 1507              		.cfi_endproc
 1508              	.LFE132:
 1509              		.size	TIM_SelectOCxM, .-TIM_SelectOCxM
 1510              		.section	.text.TIM_SetCompare1,"ax",%progbits
 1511              		.align	2
 1512              		.p2align 4,,15
 1513              		.global	TIM_SetCompare1
 1514              		.thumb
 1515              		.thumb_func
 1516              		.type	TIM_SetCompare1, %function
 1517              	TIM_SetCompare1:
 1518              	.LFB133:
 1519              		.loc 1 1065 0
 1520              		.cfi_startproc
 1521              		@ args = 0, pretend = 0, frame = 0
 1522              		@ frame_needed = 0, uses_anonymous_args = 0
 1523              		@ link register save eliminated.
 1524              	.LVL128:
 1525              		.loc 1 1070 0
 1526 0000 4163     		str	r1, [r0, #52]
 1527 0002 7047     		bx	lr
 1528              		.cfi_endproc
 1529              	.LFE133:
 1530              		.size	TIM_SetCompare1, .-TIM_SetCompare1
 1531              		.section	.text.TIM_SetCompare2,"ax",%progbits
 1532              		.align	2
 1533              		.p2align 4,,15
 1534              		.global	TIM_SetCompare2
 1535              		.thumb
 1536              		.thumb_func
 1537              		.type	TIM_SetCompare2, %function
 1538              	TIM_SetCompare2:
 1539              	.LFB134:
ARM GAS  /tmp/ccJZ9K5Y.s 			page 28


 1540              		.loc 1 1081 0
 1541              		.cfi_startproc
 1542              		@ args = 0, pretend = 0, frame = 0
 1543              		@ frame_needed = 0, uses_anonymous_args = 0
 1544              		@ link register save eliminated.
 1545              	.LVL129:
 1546              		.loc 1 1086 0
 1547 0000 8163     		str	r1, [r0, #56]
 1548 0002 7047     		bx	lr
 1549              		.cfi_endproc
 1550              	.LFE134:
 1551              		.size	TIM_SetCompare2, .-TIM_SetCompare2
 1552              		.section	.text.TIM_SetCompare3,"ax",%progbits
 1553              		.align	2
 1554              		.p2align 4,,15
 1555              		.global	TIM_SetCompare3
 1556              		.thumb
 1557              		.thumb_func
 1558              		.type	TIM_SetCompare3, %function
 1559              	TIM_SetCompare3:
 1560              	.LFB135:
 1561              		.loc 1 1096 0
 1562              		.cfi_startproc
 1563              		@ args = 0, pretend = 0, frame = 0
 1564              		@ frame_needed = 0, uses_anonymous_args = 0
 1565              		@ link register save eliminated.
 1566              	.LVL130:
 1567              		.loc 1 1101 0
 1568 0000 C163     		str	r1, [r0, #60]
 1569 0002 7047     		bx	lr
 1570              		.cfi_endproc
 1571              	.LFE135:
 1572              		.size	TIM_SetCompare3, .-TIM_SetCompare3
 1573              		.section	.text.TIM_SetCompare4,"ax",%progbits
 1574              		.align	2
 1575              		.p2align 4,,15
 1576              		.global	TIM_SetCompare4
 1577              		.thumb
 1578              		.thumb_func
 1579              		.type	TIM_SetCompare4, %function
 1580              	TIM_SetCompare4:
 1581              	.LFB136:
 1582              		.loc 1 1111 0
 1583              		.cfi_startproc
 1584              		@ args = 0, pretend = 0, frame = 0
 1585              		@ frame_needed = 0, uses_anonymous_args = 0
 1586              		@ link register save eliminated.
 1587              	.LVL131:
 1588              		.loc 1 1116 0
 1589 0000 0164     		str	r1, [r0, #64]
 1590 0002 7047     		bx	lr
 1591              		.cfi_endproc
 1592              	.LFE136:
 1593              		.size	TIM_SetCompare4, .-TIM_SetCompare4
 1594              		.section	.text.TIM_ForcedOC1Config,"ax",%progbits
 1595              		.align	2
 1596              		.p2align 4,,15
ARM GAS  /tmp/ccJZ9K5Y.s 			page 29


 1597              		.global	TIM_ForcedOC1Config
 1598              		.thumb
 1599              		.thumb_func
 1600              		.type	TIM_ForcedOC1Config, %function
 1601              	TIM_ForcedOC1Config:
 1602              	.LFB137:
 1603              		.loc 1 1129 0
 1604              		.cfi_startproc
 1605              		@ args = 0, pretend = 0, frame = 0
 1606              		@ frame_needed = 0, uses_anonymous_args = 0
 1607              		@ link register save eliminated.
 1608              	.LVL132:
 1609              		.loc 1 1135 0
 1610 0000 8269     		ldr	r2, [r0, #24]
 1611              	.LVL133:
 1612              		.loc 1 1138 0
 1613 0002 4FF68F73 		movw	r3, #65423
 1614 0006 1340     		ands	r3, r3, r2
 1615              	.LVL134:
 1616              		.loc 1 1144 0
 1617 0008 1943     		orrs	r1, r1, r3
 1618              	.LVL135:
 1619 000a 8161     		str	r1, [r0, #24]
 1620 000c 7047     		bx	lr
 1621              		.cfi_endproc
 1622              	.LFE137:
 1623              		.size	TIM_ForcedOC1Config, .-TIM_ForcedOC1Config
 1624 000e 00BF     		.section	.text.TIM_ForcedOC2Config,"ax",%progbits
 1625              		.align	2
 1626              		.p2align 4,,15
 1627              		.global	TIM_ForcedOC2Config
 1628              		.thumb
 1629              		.thumb_func
 1630              		.type	TIM_ForcedOC2Config, %function
 1631              	TIM_ForcedOC2Config:
 1632              	.LFB138:
 1633              		.loc 1 1158 0
 1634              		.cfi_startproc
 1635              		@ args = 0, pretend = 0, frame = 0
 1636              		@ frame_needed = 0, uses_anonymous_args = 0
 1637              		@ link register save eliminated.
 1638              	.LVL136:
 1639              		.loc 1 1164 0
 1640 0000 8269     		ldr	r2, [r0, #24]
 1641              	.LVL137:
 1642              		.loc 1 1167 0
 1643 0002 48F6FF73 		movw	r3, #36863
 1644 0006 1340     		ands	r3, r3, r2
 1645              	.LVL138:
 1646              		.loc 1 1170 0
 1647 0008 43EA0121 		orr	r1, r3, r1, lsl #8
 1648              	.LVL139:
 1649              		.loc 1 1173 0
 1650 000c 89B2     		uxth	r1, r1
 1651 000e 8161     		str	r1, [r0, #24]
 1652 0010 7047     		bx	lr
 1653              		.cfi_endproc
ARM GAS  /tmp/ccJZ9K5Y.s 			page 30


 1654              	.LFE138:
 1655              		.size	TIM_ForcedOC2Config, .-TIM_ForcedOC2Config
 1656 0012 00BF     		.section	.text.TIM_ForcedOC3Config,"ax",%progbits
 1657              		.align	2
 1658              		.p2align 4,,15
 1659              		.global	TIM_ForcedOC3Config
 1660              		.thumb
 1661              		.thumb_func
 1662              		.type	TIM_ForcedOC3Config, %function
 1663              	TIM_ForcedOC3Config:
 1664              	.LFB139:
 1665              		.loc 1 1186 0
 1666              		.cfi_startproc
 1667              		@ args = 0, pretend = 0, frame = 0
 1668              		@ frame_needed = 0, uses_anonymous_args = 0
 1669              		@ link register save eliminated.
 1670              	.LVL140:
 1671              		.loc 1 1193 0
 1672 0000 C269     		ldr	r2, [r0, #28]
 1673              	.LVL141:
 1674              		.loc 1 1196 0
 1675 0002 4FF68F73 		movw	r3, #65423
 1676 0006 1340     		ands	r3, r3, r2
 1677              	.LVL142:
 1678              		.loc 1 1202 0
 1679 0008 1943     		orrs	r1, r1, r3
 1680              	.LVL143:
 1681 000a C161     		str	r1, [r0, #28]
 1682 000c 7047     		bx	lr
 1683              		.cfi_endproc
 1684              	.LFE139:
 1685              		.size	TIM_ForcedOC3Config, .-TIM_ForcedOC3Config
 1686 000e 00BF     		.section	.text.TIM_ForcedOC4Config,"ax",%progbits
 1687              		.align	2
 1688              		.p2align 4,,15
 1689              		.global	TIM_ForcedOC4Config
 1690              		.thumb
 1691              		.thumb_func
 1692              		.type	TIM_ForcedOC4Config, %function
 1693              	TIM_ForcedOC4Config:
 1694              	.LFB140:
 1695              		.loc 1 1215 0
 1696              		.cfi_startproc
 1697              		@ args = 0, pretend = 0, frame = 0
 1698              		@ frame_needed = 0, uses_anonymous_args = 0
 1699              		@ link register save eliminated.
 1700              	.LVL144:
 1701              		.loc 1 1221 0
 1702 0000 C269     		ldr	r2, [r0, #28]
 1703              	.LVL145:
 1704              		.loc 1 1224 0
 1705 0002 48F6FF73 		movw	r3, #36863
 1706 0006 1340     		ands	r3, r3, r2
 1707              	.LVL146:
 1708              		.loc 1 1227 0
 1709 0008 43EA0121 		orr	r1, r3, r1, lsl #8
 1710              	.LVL147:
ARM GAS  /tmp/ccJZ9K5Y.s 			page 31


 1711              		.loc 1 1230 0
 1712 000c 89B2     		uxth	r1, r1
 1713 000e C161     		str	r1, [r0, #28]
 1714 0010 7047     		bx	lr
 1715              		.cfi_endproc
 1716              	.LFE140:
 1717              		.size	TIM_ForcedOC4Config, .-TIM_ForcedOC4Config
 1718 0012 00BF     		.section	.text.TIM_OC1PreloadConfig,"ax",%progbits
 1719              		.align	2
 1720              		.p2align 4,,15
 1721              		.global	TIM_OC1PreloadConfig
 1722              		.thumb
 1723              		.thumb_func
 1724              		.type	TIM_OC1PreloadConfig, %function
 1725              	TIM_OC1PreloadConfig:
 1726              	.LFB141:
 1727              		.loc 1 1243 0
 1728              		.cfi_startproc
 1729              		@ args = 0, pretend = 0, frame = 0
 1730              		@ frame_needed = 0, uses_anonymous_args = 0
 1731              		@ link register save eliminated.
 1732              	.LVL148:
 1733              		.loc 1 1250 0
 1734 0000 8269     		ldr	r2, [r0, #24]
 1735              	.LVL149:
 1736              		.loc 1 1253 0
 1737 0002 4FF6F773 		movw	r3, #65527
 1738 0006 1340     		ands	r3, r3, r2
 1739              	.LVL150:
 1740              		.loc 1 1259 0
 1741 0008 1943     		orrs	r1, r1, r3
 1742              	.LVL151:
 1743 000a 8161     		str	r1, [r0, #24]
 1744 000c 7047     		bx	lr
 1745              		.cfi_endproc
 1746              	.LFE141:
 1747              		.size	TIM_OC1PreloadConfig, .-TIM_OC1PreloadConfig
 1748 000e 00BF     		.section	.text.TIM_OC2PreloadConfig,"ax",%progbits
 1749              		.align	2
 1750              		.p2align 4,,15
 1751              		.global	TIM_OC2PreloadConfig
 1752              		.thumb
 1753              		.thumb_func
 1754              		.type	TIM_OC2PreloadConfig, %function
 1755              	TIM_OC2PreloadConfig:
 1756              	.LFB142:
 1757              		.loc 1 1273 0
 1758              		.cfi_startproc
 1759              		@ args = 0, pretend = 0, frame = 0
 1760              		@ frame_needed = 0, uses_anonymous_args = 0
 1761              		@ link register save eliminated.
 1762              	.LVL152:
 1763              		.loc 1 1280 0
 1764 0000 8269     		ldr	r2, [r0, #24]
 1765              	.LVL153:
 1766              		.loc 1 1283 0
 1767 0002 4FF2FF73 		movw	r3, #63487
ARM GAS  /tmp/ccJZ9K5Y.s 			page 32


 1768 0006 1340     		ands	r3, r3, r2
 1769              	.LVL154:
 1770              		.loc 1 1286 0
 1771 0008 43EA0121 		orr	r1, r3, r1, lsl #8
 1772              	.LVL155:
 1773              		.loc 1 1289 0
 1774 000c 89B2     		uxth	r1, r1
 1775 000e 8161     		str	r1, [r0, #24]
 1776 0010 7047     		bx	lr
 1777              		.cfi_endproc
 1778              	.LFE142:
 1779              		.size	TIM_OC2PreloadConfig, .-TIM_OC2PreloadConfig
 1780 0012 00BF     		.section	.text.TIM_OC3PreloadConfig,"ax",%progbits
 1781              		.align	2
 1782              		.p2align 4,,15
 1783              		.global	TIM_OC3PreloadConfig
 1784              		.thumb
 1785              		.thumb_func
 1786              		.type	TIM_OC3PreloadConfig, %function
 1787              	TIM_OC3PreloadConfig:
 1788              	.LFB143:
 1789              		.loc 1 1302 0
 1790              		.cfi_startproc
 1791              		@ args = 0, pretend = 0, frame = 0
 1792              		@ frame_needed = 0, uses_anonymous_args = 0
 1793              		@ link register save eliminated.
 1794              	.LVL156:
 1795              		.loc 1 1309 0
 1796 0000 C269     		ldr	r2, [r0, #28]
 1797              	.LVL157:
 1798              		.loc 1 1312 0
 1799 0002 4FF6F773 		movw	r3, #65527
 1800 0006 1340     		ands	r3, r3, r2
 1801              	.LVL158:
 1802              		.loc 1 1318 0
 1803 0008 1943     		orrs	r1, r1, r3
 1804              	.LVL159:
 1805 000a C161     		str	r1, [r0, #28]
 1806 000c 7047     		bx	lr
 1807              		.cfi_endproc
 1808              	.LFE143:
 1809              		.size	TIM_OC3PreloadConfig, .-TIM_OC3PreloadConfig
 1810 000e 00BF     		.section	.text.TIM_OC4PreloadConfig,"ax",%progbits
 1811              		.align	2
 1812              		.p2align 4,,15
 1813              		.global	TIM_OC4PreloadConfig
 1814              		.thumb
 1815              		.thumb_func
 1816              		.type	TIM_OC4PreloadConfig, %function
 1817              	TIM_OC4PreloadConfig:
 1818              	.LFB144:
 1819              		.loc 1 1331 0
 1820              		.cfi_startproc
 1821              		@ args = 0, pretend = 0, frame = 0
 1822              		@ frame_needed = 0, uses_anonymous_args = 0
 1823              		@ link register save eliminated.
 1824              	.LVL160:
ARM GAS  /tmp/ccJZ9K5Y.s 			page 33


 1825              		.loc 1 1338 0
 1826 0000 C269     		ldr	r2, [r0, #28]
 1827              	.LVL161:
 1828              		.loc 1 1341 0
 1829 0002 4FF2FF73 		movw	r3, #63487
 1830 0006 1340     		ands	r3, r3, r2
 1831              	.LVL162:
 1832              		.loc 1 1344 0
 1833 0008 43EA0121 		orr	r1, r3, r1, lsl #8
 1834              	.LVL163:
 1835              		.loc 1 1347 0
 1836 000c 89B2     		uxth	r1, r1
 1837 000e C161     		str	r1, [r0, #28]
 1838 0010 7047     		bx	lr
 1839              		.cfi_endproc
 1840              	.LFE144:
 1841              		.size	TIM_OC4PreloadConfig, .-TIM_OC4PreloadConfig
 1842 0012 00BF     		.section	.text.TIM_OC1FastConfig,"ax",%progbits
 1843              		.align	2
 1844              		.p2align 4,,15
 1845              		.global	TIM_OC1FastConfig
 1846              		.thumb
 1847              		.thumb_func
 1848              		.type	TIM_OC1FastConfig, %function
 1849              	TIM_OC1FastConfig:
 1850              	.LFB145:
 1851              		.loc 1 1360 0
 1852              		.cfi_startproc
 1853              		@ args = 0, pretend = 0, frame = 0
 1854              		@ frame_needed = 0, uses_anonymous_args = 0
 1855              		@ link register save eliminated.
 1856              	.LVL164:
 1857              		.loc 1 1368 0
 1858 0000 8269     		ldr	r2, [r0, #24]
 1859              	.LVL165:
 1860              		.loc 1 1371 0
 1861 0002 4FF6FB73 		movw	r3, #65531
 1862 0006 1340     		ands	r3, r3, r2
 1863              	.LVL166:
 1864              		.loc 1 1377 0
 1865 0008 1943     		orrs	r1, r1, r3
 1866              	.LVL167:
 1867 000a 8161     		str	r1, [r0, #24]
 1868 000c 7047     		bx	lr
 1869              		.cfi_endproc
 1870              	.LFE145:
 1871              		.size	TIM_OC1FastConfig, .-TIM_OC1FastConfig
 1872 000e 00BF     		.section	.text.TIM_OC2FastConfig,"ax",%progbits
 1873              		.align	2
 1874              		.p2align 4,,15
 1875              		.global	TIM_OC2FastConfig
 1876              		.thumb
 1877              		.thumb_func
 1878              		.type	TIM_OC2FastConfig, %function
 1879              	TIM_OC2FastConfig:
 1880              	.LFB146:
 1881              		.loc 1 1391 0
ARM GAS  /tmp/ccJZ9K5Y.s 			page 34


 1882              		.cfi_startproc
 1883              		@ args = 0, pretend = 0, frame = 0
 1884              		@ frame_needed = 0, uses_anonymous_args = 0
 1885              		@ link register save eliminated.
 1886              	.LVL168:
 1887              		.loc 1 1399 0
 1888 0000 8269     		ldr	r2, [r0, #24]
 1889              	.LVL169:
 1890              		.loc 1 1402 0
 1891 0002 4FF6FF33 		movw	r3, #64511
 1892 0006 1340     		ands	r3, r3, r2
 1893              	.LVL170:
 1894              		.loc 1 1405 0
 1895 0008 43EA0121 		orr	r1, r3, r1, lsl #8
 1896              	.LVL171:
 1897              		.loc 1 1408 0
 1898 000c 89B2     		uxth	r1, r1
 1899 000e 8161     		str	r1, [r0, #24]
 1900 0010 7047     		bx	lr
 1901              		.cfi_endproc
 1902              	.LFE146:
 1903              		.size	TIM_OC2FastConfig, .-TIM_OC2FastConfig
 1904 0012 00BF     		.section	.text.TIM_OC3FastConfig,"ax",%progbits
 1905              		.align	2
 1906              		.p2align 4,,15
 1907              		.global	TIM_OC3FastConfig
 1908              		.thumb
 1909              		.thumb_func
 1910              		.type	TIM_OC3FastConfig, %function
 1911              	TIM_OC3FastConfig:
 1912              	.LFB147:
 1913              		.loc 1 1421 0
 1914              		.cfi_startproc
 1915              		@ args = 0, pretend = 0, frame = 0
 1916              		@ frame_needed = 0, uses_anonymous_args = 0
 1917              		@ link register save eliminated.
 1918              	.LVL172:
 1919              		.loc 1 1429 0
 1920 0000 C269     		ldr	r2, [r0, #28]
 1921              	.LVL173:
 1922              		.loc 1 1432 0
 1923 0002 4FF6FB73 		movw	r3, #65531
 1924 0006 1340     		ands	r3, r3, r2
 1925              	.LVL174:
 1926              		.loc 1 1438 0
 1927 0008 1943     		orrs	r1, r1, r3
 1928              	.LVL175:
 1929 000a C161     		str	r1, [r0, #28]
 1930 000c 7047     		bx	lr
 1931              		.cfi_endproc
 1932              	.LFE147:
 1933              		.size	TIM_OC3FastConfig, .-TIM_OC3FastConfig
 1934 000e 00BF     		.section	.text.TIM_OC4FastConfig,"ax",%progbits
 1935              		.align	2
 1936              		.p2align 4,,15
 1937              		.global	TIM_OC4FastConfig
 1938              		.thumb
ARM GAS  /tmp/ccJZ9K5Y.s 			page 35


 1939              		.thumb_func
 1940              		.type	TIM_OC4FastConfig, %function
 1941              	TIM_OC4FastConfig:
 1942              	.LFB148:
 1943              		.loc 1 1451 0
 1944              		.cfi_startproc
 1945              		@ args = 0, pretend = 0, frame = 0
 1946              		@ frame_needed = 0, uses_anonymous_args = 0
 1947              		@ link register save eliminated.
 1948              	.LVL176:
 1949              		.loc 1 1459 0
 1950 0000 C269     		ldr	r2, [r0, #28]
 1951              	.LVL177:
 1952              		.loc 1 1462 0
 1953 0002 4FF6FF33 		movw	r3, #64511
 1954 0006 1340     		ands	r3, r3, r2
 1955              	.LVL178:
 1956              		.loc 1 1465 0
 1957 0008 43EA0121 		orr	r1, r3, r1, lsl #8
 1958              	.LVL179:
 1959              		.loc 1 1468 0
 1960 000c 89B2     		uxth	r1, r1
 1961 000e C161     		str	r1, [r0, #28]
 1962 0010 7047     		bx	lr
 1963              		.cfi_endproc
 1964              	.LFE148:
 1965              		.size	TIM_OC4FastConfig, .-TIM_OC4FastConfig
 1966 0012 00BF     		.section	.text.TIM_ClearOC1Ref,"ax",%progbits
 1967              		.align	2
 1968              		.p2align 4,,15
 1969              		.global	TIM_ClearOC1Ref
 1970              		.thumb
 1971              		.thumb_func
 1972              		.type	TIM_ClearOC1Ref, %function
 1973              	TIM_ClearOC1Ref:
 1974              	.LFB149:
 1975              		.loc 1 1481 0
 1976              		.cfi_startproc
 1977              		@ args = 0, pretend = 0, frame = 0
 1978              		@ frame_needed = 0, uses_anonymous_args = 0
 1979              		@ link register save eliminated.
 1980              	.LVL180:
 1981              		.loc 1 1488 0
 1982 0000 8269     		ldr	r2, [r0, #24]
 1983              	.LVL181:
 1984              		.loc 1 1491 0
 1985 0002 4FF67F73 		movw	r3, #65407
 1986 0006 1340     		ands	r3, r3, r2
 1987              	.LVL182:
 1988              		.loc 1 1497 0
 1989 0008 1943     		orrs	r1, r1, r3
 1990              	.LVL183:
 1991 000a 8161     		str	r1, [r0, #24]
 1992 000c 7047     		bx	lr
 1993              		.cfi_endproc
 1994              	.LFE149:
 1995              		.size	TIM_ClearOC1Ref, .-TIM_ClearOC1Ref
ARM GAS  /tmp/ccJZ9K5Y.s 			page 36


 1996 000e 00BF     		.section	.text.TIM_ClearOC2Ref,"ax",%progbits
 1997              		.align	2
 1998              		.p2align 4,,15
 1999              		.global	TIM_ClearOC2Ref
 2000              		.thumb
 2001              		.thumb_func
 2002              		.type	TIM_ClearOC2Ref, %function
 2003              	TIM_ClearOC2Ref:
 2004              	.LFB150:
 2005              		.loc 1 1511 0
 2006              		.cfi_startproc
 2007              		@ args = 0, pretend = 0, frame = 0
 2008              		@ frame_needed = 0, uses_anonymous_args = 0
 2009              		@ link register save eliminated.
 2010              	.LVL184:
 2011              		.loc 1 1518 0
 2012 0000 8369     		ldr	r3, [r0, #24]
 2013              	.LVL185:
 2014              		.loc 1 1521 0
 2015 0002 C3F30E03 		ubfx	r3, r3, #0, #15
 2016              	.LVL186:
 2017              		.loc 1 1524 0
 2018 0006 43EA0121 		orr	r1, r3, r1, lsl #8
 2019              	.LVL187:
 2020              		.loc 1 1527 0
 2021 000a 89B2     		uxth	r1, r1
 2022 000c 8161     		str	r1, [r0, #24]
 2023 000e 7047     		bx	lr
 2024              		.cfi_endproc
 2025              	.LFE150:
 2026              		.size	TIM_ClearOC2Ref, .-TIM_ClearOC2Ref
 2027              		.section	.text.TIM_ClearOC3Ref,"ax",%progbits
 2028              		.align	2
 2029              		.p2align 4,,15
 2030              		.global	TIM_ClearOC3Ref
 2031              		.thumb
 2032              		.thumb_func
 2033              		.type	TIM_ClearOC3Ref, %function
 2034              	TIM_ClearOC3Ref:
 2035              	.LFB151:
 2036              		.loc 1 1540 0
 2037              		.cfi_startproc
 2038              		@ args = 0, pretend = 0, frame = 0
 2039              		@ frame_needed = 0, uses_anonymous_args = 0
 2040              		@ link register save eliminated.
 2041              	.LVL188:
 2042              		.loc 1 1547 0
 2043 0000 C269     		ldr	r2, [r0, #28]
 2044              	.LVL189:
 2045              		.loc 1 1550 0
 2046 0002 4FF67F73 		movw	r3, #65407
 2047 0006 1340     		ands	r3, r3, r2
 2048              	.LVL190:
 2049              		.loc 1 1556 0
 2050 0008 1943     		orrs	r1, r1, r3
 2051              	.LVL191:
 2052 000a C161     		str	r1, [r0, #28]
ARM GAS  /tmp/ccJZ9K5Y.s 			page 37


 2053 000c 7047     		bx	lr
 2054              		.cfi_endproc
 2055              	.LFE151:
 2056              		.size	TIM_ClearOC3Ref, .-TIM_ClearOC3Ref
 2057 000e 00BF     		.section	.text.TIM_ClearOC4Ref,"ax",%progbits
 2058              		.align	2
 2059              		.p2align 4,,15
 2060              		.global	TIM_ClearOC4Ref
 2061              		.thumb
 2062              		.thumb_func
 2063              		.type	TIM_ClearOC4Ref, %function
 2064              	TIM_ClearOC4Ref:
 2065              	.LFB152:
 2066              		.loc 1 1569 0
 2067              		.cfi_startproc
 2068              		@ args = 0, pretend = 0, frame = 0
 2069              		@ frame_needed = 0, uses_anonymous_args = 0
 2070              		@ link register save eliminated.
 2071              	.LVL192:
 2072              		.loc 1 1576 0
 2073 0000 C369     		ldr	r3, [r0, #28]
 2074              	.LVL193:
 2075              		.loc 1 1579 0
 2076 0002 C3F30E03 		ubfx	r3, r3, #0, #15
 2077              	.LVL194:
 2078              		.loc 1 1582 0
 2079 0006 43EA0121 		orr	r1, r3, r1, lsl #8
 2080              	.LVL195:
 2081              		.loc 1 1585 0
 2082 000a 89B2     		uxth	r1, r1
 2083 000c C161     		str	r1, [r0, #28]
 2084 000e 7047     		bx	lr
 2085              		.cfi_endproc
 2086              	.LFE152:
 2087              		.size	TIM_ClearOC4Ref, .-TIM_ClearOC4Ref
 2088              		.section	.text.TIM_OC1PolarityConfig,"ax",%progbits
 2089              		.align	2
 2090              		.p2align 4,,15
 2091              		.global	TIM_OC1PolarityConfig
 2092              		.thumb
 2093              		.thumb_func
 2094              		.type	TIM_OC1PolarityConfig, %function
 2095              	TIM_OC1PolarityConfig:
 2096              	.LFB153:
 2097              		.loc 1 1598 0
 2098              		.cfi_startproc
 2099              		@ args = 0, pretend = 0, frame = 0
 2100              		@ frame_needed = 0, uses_anonymous_args = 0
 2101              		@ link register save eliminated.
 2102              	.LVL196:
 2103              		.loc 1 1605 0
 2104 0000 026A     		ldr	r2, [r0, #32]
 2105              	.LVL197:
 2106              		.loc 1 1608 0
 2107 0002 4FF6FD73 		movw	r3, #65533
 2108 0006 1340     		ands	r3, r3, r2
 2109              	.LVL198:
ARM GAS  /tmp/ccJZ9K5Y.s 			page 38


 2110              		.loc 1 1612 0
 2111 0008 1943     		orrs	r1, r1, r3
 2112              	.LVL199:
 2113 000a 0162     		str	r1, [r0, #32]
 2114 000c 7047     		bx	lr
 2115              		.cfi_endproc
 2116              	.LFE153:
 2117              		.size	TIM_OC1PolarityConfig, .-TIM_OC1PolarityConfig
 2118 000e 00BF     		.section	.text.TIM_OC1NPolarityConfig,"ax",%progbits
 2119              		.align	2
 2120              		.p2align 4,,15
 2121              		.global	TIM_OC1NPolarityConfig
 2122              		.thumb
 2123              		.thumb_func
 2124              		.type	TIM_OC1NPolarityConfig, %function
 2125              	TIM_OC1NPolarityConfig:
 2126              	.LFB154:
 2127              		.loc 1 1625 0
 2128              		.cfi_startproc
 2129              		@ args = 0, pretend = 0, frame = 0
 2130              		@ frame_needed = 0, uses_anonymous_args = 0
 2131              		@ link register save eliminated.
 2132              	.LVL200:
 2133              		.loc 1 1631 0
 2134 0000 026A     		ldr	r2, [r0, #32]
 2135              	.LVL201:
 2136              		.loc 1 1634 0
 2137 0002 4FF6F773 		movw	r3, #65527
 2138 0006 1340     		ands	r3, r3, r2
 2139              	.LVL202:
 2140              		.loc 1 1638 0
 2141 0008 1943     		orrs	r1, r1, r3
 2142              	.LVL203:
 2143 000a 0162     		str	r1, [r0, #32]
 2144 000c 7047     		bx	lr
 2145              		.cfi_endproc
 2146              	.LFE154:
 2147              		.size	TIM_OC1NPolarityConfig, .-TIM_OC1NPolarityConfig
 2148 000e 00BF     		.section	.text.TIM_OC2PolarityConfig,"ax",%progbits
 2149              		.align	2
 2150              		.p2align 4,,15
 2151              		.global	TIM_OC2PolarityConfig
 2152              		.thumb
 2153              		.thumb_func
 2154              		.type	TIM_OC2PolarityConfig, %function
 2155              	TIM_OC2PolarityConfig:
 2156              	.LFB155:
 2157              		.loc 1 1652 0
 2158              		.cfi_startproc
 2159              		@ args = 0, pretend = 0, frame = 0
 2160              		@ frame_needed = 0, uses_anonymous_args = 0
 2161              		@ link register save eliminated.
 2162              	.LVL204:
 2163              		.loc 1 1659 0
 2164 0000 026A     		ldr	r2, [r0, #32]
 2165              	.LVL205:
 2166              		.loc 1 1662 0
ARM GAS  /tmp/ccJZ9K5Y.s 			page 39


 2167 0002 4FF6DF73 		movw	r3, #65503
 2168 0006 1340     		ands	r3, r3, r2
 2169              	.LVL206:
 2170              		.loc 1 1663 0
 2171 0008 43EA0111 		orr	r1, r3, r1, lsl #4
 2172              	.LVL207:
 2173              		.loc 1 1666 0
 2174 000c 89B2     		uxth	r1, r1
 2175 000e 0162     		str	r1, [r0, #32]
 2176 0010 7047     		bx	lr
 2177              		.cfi_endproc
 2178              	.LFE155:
 2179              		.size	TIM_OC2PolarityConfig, .-TIM_OC2PolarityConfig
 2180 0012 00BF     		.section	.text.TIM_OC2NPolarityConfig,"ax",%progbits
 2181              		.align	2
 2182              		.p2align 4,,15
 2183              		.global	TIM_OC2NPolarityConfig
 2184              		.thumb
 2185              		.thumb_func
 2186              		.type	TIM_OC2NPolarityConfig, %function
 2187              	TIM_OC2NPolarityConfig:
 2188              	.LFB156:
 2189              		.loc 1 1679 0
 2190              		.cfi_startproc
 2191              		@ args = 0, pretend = 0, frame = 0
 2192              		@ frame_needed = 0, uses_anonymous_args = 0
 2193              		@ link register save eliminated.
 2194              	.LVL208:
 2195              		.loc 1 1686 0
 2196 0000 026A     		ldr	r2, [r0, #32]
 2197              	.LVL209:
 2198              		.loc 1 1689 0
 2199 0002 4FF67F73 		movw	r3, #65407
 2200 0006 1340     		ands	r3, r3, r2
 2201              	.LVL210:
 2202              		.loc 1 1690 0
 2203 0008 43EA0111 		orr	r1, r3, r1, lsl #4
 2204              	.LVL211:
 2205              		.loc 1 1693 0
 2206 000c 89B2     		uxth	r1, r1
 2207 000e 0162     		str	r1, [r0, #32]
 2208 0010 7047     		bx	lr
 2209              		.cfi_endproc
 2210              	.LFE156:
 2211              		.size	TIM_OC2NPolarityConfig, .-TIM_OC2NPolarityConfig
 2212 0012 00BF     		.section	.text.TIM_OC3PolarityConfig,"ax",%progbits
 2213              		.align	2
 2214              		.p2align 4,,15
 2215              		.global	TIM_OC3PolarityConfig
 2216              		.thumb
 2217              		.thumb_func
 2218              		.type	TIM_OC3PolarityConfig, %function
 2219              	TIM_OC3PolarityConfig:
 2220              	.LFB157:
 2221              		.loc 1 1706 0
 2222              		.cfi_startproc
 2223              		@ args = 0, pretend = 0, frame = 0
ARM GAS  /tmp/ccJZ9K5Y.s 			page 40


 2224              		@ frame_needed = 0, uses_anonymous_args = 0
 2225              		@ link register save eliminated.
 2226              	.LVL212:
 2227              		.loc 1 1713 0
 2228 0000 026A     		ldr	r2, [r0, #32]
 2229              	.LVL213:
 2230              		.loc 1 1716 0
 2231 0002 4FF6FF53 		movw	r3, #65023
 2232 0006 1340     		ands	r3, r3, r2
 2233              	.LVL214:
 2234              		.loc 1 1717 0
 2235 0008 43EA0121 		orr	r1, r3, r1, lsl #8
 2236              	.LVL215:
 2237              		.loc 1 1720 0
 2238 000c 89B2     		uxth	r1, r1
 2239 000e 0162     		str	r1, [r0, #32]
 2240 0010 7047     		bx	lr
 2241              		.cfi_endproc
 2242              	.LFE157:
 2243              		.size	TIM_OC3PolarityConfig, .-TIM_OC3PolarityConfig
 2244 0012 00BF     		.section	.text.TIM_OC3NPolarityConfig,"ax",%progbits
 2245              		.align	2
 2246              		.p2align 4,,15
 2247              		.global	TIM_OC3NPolarityConfig
 2248              		.thumb
 2249              		.thumb_func
 2250              		.type	TIM_OC3NPolarityConfig, %function
 2251              	TIM_OC3NPolarityConfig:
 2252              	.LFB158:
 2253              		.loc 1 1733 0
 2254              		.cfi_startproc
 2255              		@ args = 0, pretend = 0, frame = 0
 2256              		@ frame_needed = 0, uses_anonymous_args = 0
 2257              		@ link register save eliminated.
 2258              	.LVL216:
 2259              		.loc 1 1740 0
 2260 0000 026A     		ldr	r2, [r0, #32]
 2261              	.LVL217:
 2262              		.loc 1 1743 0
 2263 0002 4FF2FF73 		movw	r3, #63487
 2264 0006 1340     		ands	r3, r3, r2
 2265              	.LVL218:
 2266              		.loc 1 1744 0
 2267 0008 43EA0121 		orr	r1, r3, r1, lsl #8
 2268              	.LVL219:
 2269              		.loc 1 1747 0
 2270 000c 89B2     		uxth	r1, r1
 2271 000e 0162     		str	r1, [r0, #32]
 2272 0010 7047     		bx	lr
 2273              		.cfi_endproc
 2274              	.LFE158:
 2275              		.size	TIM_OC3NPolarityConfig, .-TIM_OC3NPolarityConfig
 2276 0012 00BF     		.section	.text.TIM_OC4PolarityConfig,"ax",%progbits
 2277              		.align	2
 2278              		.p2align 4,,15
 2279              		.global	TIM_OC4PolarityConfig
 2280              		.thumb
ARM GAS  /tmp/ccJZ9K5Y.s 			page 41


 2281              		.thumb_func
 2282              		.type	TIM_OC4PolarityConfig, %function
 2283              	TIM_OC4PolarityConfig:
 2284              	.LFB159:
 2285              		.loc 1 1760 0
 2286              		.cfi_startproc
 2287              		@ args = 0, pretend = 0, frame = 0
 2288              		@ frame_needed = 0, uses_anonymous_args = 0
 2289              		@ link register save eliminated.
 2290              	.LVL220:
 2291              		.loc 1 1767 0
 2292 0000 026A     		ldr	r2, [r0, #32]
 2293              	.LVL221:
 2294              		.loc 1 1770 0
 2295 0002 4DF6FF73 		movw	r3, #57343
 2296 0006 1340     		ands	r3, r3, r2
 2297              	.LVL222:
 2298              		.loc 1 1771 0
 2299 0008 43EA0131 		orr	r1, r3, r1, lsl #12
 2300              	.LVL223:
 2301              		.loc 1 1774 0
 2302 000c 89B2     		uxth	r1, r1
 2303 000e 0162     		str	r1, [r0, #32]
 2304 0010 7047     		bx	lr
 2305              		.cfi_endproc
 2306              	.LFE159:
 2307              		.size	TIM_OC4PolarityConfig, .-TIM_OC4PolarityConfig
 2308 0012 00BF     		.section	.text.TIM_CCxCmd,"ax",%progbits
 2309              		.align	2
 2310              		.p2align 4,,15
 2311              		.global	TIM_CCxCmd
 2312              		.thumb
 2313              		.thumb_func
 2314              		.type	TIM_CCxCmd, %function
 2315              	TIM_CCxCmd:
 2316              	.LFB160:
 2317              		.loc 1 1791 0
 2318              		.cfi_startproc
 2319              		@ args = 0, pretend = 0, frame = 0
 2320              		@ frame_needed = 0, uses_anonymous_args = 0
 2321              		@ link register save eliminated.
 2322              	.LVL224:
 2323              		.loc 1 1799 0
 2324 0000 0123     		movs	r3, #1
 2325 0002 8B40     		lsls	r3, r3, r1
 2326              		.loc 1 1791 0
 2327 0004 10B4     		push	{r4}
 2328              		.cfi_def_cfa_offset 4
 2329              		.cfi_offset 4, -4
 2330              		.loc 1 1802 0
 2331 0006 DB43     		mvns	r3, r3
 2332 0008 046A     		ldr	r4, [r0, #32]
 2333 000a 9BB2     		uxth	r3, r3
 2334 000c 2340     		ands	r3, r3, r4
 2335 000e 0362     		str	r3, [r0, #32]
 2336              		.loc 1 1805 0
 2337 0010 036A     		ldr	r3, [r0, #32]
ARM GAS  /tmp/ccJZ9K5Y.s 			page 42


 2338              		.loc 1 1806 0
 2339 0012 5DF8044B 		ldr	r4, [sp], #4
 2340              		.cfi_restore 4
 2341              		.cfi_def_cfa_offset 0
 2342              		.loc 1 1805 0
 2343 0016 8A40     		lsls	r2, r2, r1
 2344              	.LVL225:
 2345 0018 92B2     		uxth	r2, r2
 2346 001a 1A43     		orrs	r2, r2, r3
 2347 001c 0262     		str	r2, [r0, #32]
 2348              		.loc 1 1806 0
 2349 001e 7047     		bx	lr
 2350              		.cfi_endproc
 2351              	.LFE160:
 2352              		.size	TIM_CCxCmd, .-TIM_CCxCmd
 2353              		.section	.text.TIM_CCxNCmd,"ax",%progbits
 2354              		.align	2
 2355              		.p2align 4,,15
 2356              		.global	TIM_CCxNCmd
 2357              		.thumb
 2358              		.thumb_func
 2359              		.type	TIM_CCxNCmd, %function
 2360              	TIM_CCxNCmd:
 2361              	.LFB161:
 2362              		.loc 1 1821 0
 2363              		.cfi_startproc
 2364              		@ args = 0, pretend = 0, frame = 0
 2365              		@ frame_needed = 0, uses_anonymous_args = 0
 2366              		@ link register save eliminated.
 2367              	.LVL226:
 2368              		.loc 1 1829 0
 2369 0000 0423     		movs	r3, #4
 2370 0002 8B40     		lsls	r3, r3, r1
 2371              		.loc 1 1821 0
 2372 0004 10B4     		push	{r4}
 2373              		.cfi_def_cfa_offset 4
 2374              		.cfi_offset 4, -4
 2375              		.loc 1 1832 0
 2376 0006 DB43     		mvns	r3, r3
 2377 0008 046A     		ldr	r4, [r0, #32]
 2378 000a 9BB2     		uxth	r3, r3
 2379 000c 2340     		ands	r3, r3, r4
 2380 000e 0362     		str	r3, [r0, #32]
 2381              		.loc 1 1835 0
 2382 0010 036A     		ldr	r3, [r0, #32]
 2383              		.loc 1 1836 0
 2384 0012 5DF8044B 		ldr	r4, [sp], #4
 2385              		.cfi_restore 4
 2386              		.cfi_def_cfa_offset 0
 2387              		.loc 1 1835 0
 2388 0016 8A40     		lsls	r2, r2, r1
 2389              	.LVL227:
 2390 0018 92B2     		uxth	r2, r2
 2391 001a 1A43     		orrs	r2, r2, r3
 2392 001c 0262     		str	r2, [r0, #32]
 2393              		.loc 1 1836 0
 2394 001e 7047     		bx	lr
ARM GAS  /tmp/ccJZ9K5Y.s 			page 43


 2395              		.cfi_endproc
 2396              	.LFE161:
 2397              		.size	TIM_CCxNCmd, .-TIM_CCxNCmd
 2398              		.section	.text.TIM_ICInit,"ax",%progbits
 2399              		.align	2
 2400              		.p2align 4,,15
 2401              		.global	TIM_ICInit
 2402              		.thumb
 2403              		.thumb_func
 2404              		.type	TIM_ICInit, %function
 2405              	TIM_ICInit:
 2406              	.LFB162:
 2407              		.loc 1 1905 0
 2408              		.cfi_startproc
 2409              		@ args = 0, pretend = 0, frame = 0
 2410              		@ frame_needed = 0, uses_anonymous_args = 0
 2411              	.LVL228:
 2412              		.loc 1 1913 0
 2413 0000 0B88     		ldrh	r3, [r1]
 2414              		.loc 1 1905 0
 2415 0002 F0B5     		push	{r4, r5, r6, r7, lr}
 2416              		.cfi_def_cfa_offset 20
 2417              		.cfi_offset 4, -20
 2418              		.cfi_offset 5, -16
 2419              		.cfi_offset 6, -12
 2420              		.cfi_offset 7, -8
 2421              		.cfi_offset 14, -4
 2422              		.loc 1 1913 0
 2423 0004 6BB3     		cbz	r3, .L142
 2424              		.loc 1 1922 0
 2425 0006 042B     		cmp	r3, #4
 2426 0008 4ED0     		beq	.L143
 2427              		.loc 1 1932 0
 2428 000a 082B     		cmp	r3, #8
 2429              		.loc 1 1936 0
 2430 000c 4E88     		ldrh	r6, [r1, #2]
 2431              	.LBB46:
 2432              	.LBB47:
 2433              		.loc 1 3297 0
 2434 000e 036A     		ldr	r3, [r0, #32]
 2435              	.LBE47:
 2436              	.LBE46:
 2437              		.loc 1 1936 0
 2438 0010 8C88     		ldrh	r4, [r1, #4]
 2439 0012 0A89     		ldrh	r2, [r1, #8]
 2440              	.LVL229:
 2441              		.loc 1 1940 0
 2442 0014 CD88     		ldrh	r5, [r1, #6]
 2443              		.loc 1 1932 0
 2444 0016 71D0     		beq	.L144
 2445              	.LBB49:
 2446              	.LBB50:
 2447              		.loc 1 3338 0
 2448 0018 4EF6FF71 		movw	r1, #61439
 2449              	.LVL230:
 2450 001c 1940     		ands	r1, r1, r3
 2451 001e 0162     		str	r1, [r0, #32]
ARM GAS  /tmp/ccJZ9K5Y.s 			page 44


 2452              		.loc 1 3339 0
 2453 0020 C769     		ldr	r7, [r0, #28]
 2454              	.LVL231:
 2455              		.loc 1 3340 0
 2456 0022 D0F820E0 		ldr	lr, [r0, #32]
 2457              	.LVL232:
 2458              		.loc 1 3349 0
 2459 0026 45F6FF73 		movw	r3, #24575
 2460              		.loc 1 3345 0
 2461 002a 2102     		lsls	r1, r4, #8
 2462              		.loc 1 3349 0
 2463 002c 0EEA0303 		and	r3, lr, r3
 2464              		.loc 1 3344 0
 2465 0030 40F6FF44 		movw	r4, #3327
 2466              	.LVL233:
 2467 0034 41EA0232 		orr	r2, r1, r2, lsl #12
 2468              	.LVL234:
 2469 0038 3C40     		ands	r4, r4, r7
 2470              	.LVL235:
 2471 003a 43EA0633 		orr	r3, r3, r6, lsl #12
 2472              	.LVL236:
 2473              		.loc 1 3346 0
 2474 003e 2243     		orrs	r2, r2, r4
 2475              		.loc 1 3350 0
 2476 0040 43F48053 		orr	r3, r3, #4096
 2477              		.loc 1 3353 0
 2478 0044 92B2     		uxth	r2, r2
 2479              		.loc 1 3354 0
 2480 0046 9BB2     		uxth	r3, r3
 2481              		.loc 1 3353 0
 2482 0048 C261     		str	r2, [r0, #28]
 2483              		.loc 1 3354 0
 2484 004a 0362     		str	r3, [r0, #32]
 2485              	.LBE50:
 2486              	.LBE49:
 2487              	.LBB51:
 2488              	.LBB52:
 2489              		.loc 1 2179 0
 2490 004c C269     		ldr	r2, [r0, #28]
 2491 004e 4FF2FF33 		movw	r3, #62463
 2492 0052 1340     		ands	r3, r3, r2
 2493 0054 C361     		str	r3, [r0, #28]
 2494              		.loc 1 2182 0
 2495 0056 C269     		ldr	r2, [r0, #28]
 2496 0058 2B02     		lsls	r3, r5, #8
 2497 005a 9BB2     		uxth	r3, r3
 2498 005c 1343     		orrs	r3, r3, r2
 2499 005e C361     		str	r3, [r0, #28]
 2500 0060 F0BD     		pop	{r4, r5, r6, r7, pc}
 2501              	.LVL237:
 2502              	.L142:
 2503              	.LBE52:
 2504              	.LBE51:
 2505              	.LBB53:
 2506              	.LBB54:
 2507              		.loc 1 3214 0
 2508 0062 056A     		ldr	r5, [r0, #32]
ARM GAS  /tmp/ccJZ9K5Y.s 			page 45


 2509              	.LBE54:
 2510              	.LBE53:
 2511              		.loc 1 1916 0
 2512 0064 8A88     		ldrh	r2, [r1, #4]
 2513 0066 4C88     		ldrh	r4, [r1, #2]
 2514 0068 0B89     		ldrh	r3, [r1, #8]
 2515              	.LVL238:
 2516              		.loc 1 1920 0
 2517 006a CE88     		ldrh	r6, [r1, #6]
 2518              	.LBB56:
 2519              	.LBB55:
 2520              		.loc 1 3214 0
 2521 006c 4FF6FE71 		movw	r1, #65534
 2522              	.LVL239:
 2523 0070 2940     		ands	r1, r1, r5
 2524 0072 0162     		str	r1, [r0, #32]
 2525              		.loc 1 3215 0
 2526 0074 8169     		ldr	r1, [r0, #24]
 2527              	.LVL240:
 2528              		.loc 1 3216 0
 2529 0076 076A     		ldr	r7, [r0, #32]
 2530              	.LVL241:
 2531              		.loc 1 3219 0
 2532 0078 4FF60C75 		movw	r5, #65292
 2533              		.loc 1 3220 0
 2534 007c 42EA0313 		orr	r3, r2, r3, lsl #4
 2535              	.LVL242:
 2536              		.loc 1 3219 0
 2537 0080 0D40     		ands	r5, r5, r1
 2538              	.LVL243:
 2539              		.loc 1 3223 0
 2540 0082 4FF6F571 		movw	r1, #65525
 2541 0086 44F00102 		orr	r2, r4, #1
 2542              	.LVL244:
 2543              		.loc 1 3220 0
 2544 008a 2B43     		orrs	r3, r3, r5
 2545              		.loc 1 3223 0
 2546 008c 3940     		ands	r1, r1, r7
 2547              	.LVL245:
 2548              		.loc 1 3227 0
 2549 008e 9BB2     		uxth	r3, r3
 2550              		.loc 1 3228 0
 2551 0090 0A43     		orrs	r2, r2, r1
 2552              		.loc 1 3227 0
 2553 0092 8361     		str	r3, [r0, #24]
 2554              		.loc 1 3228 0
 2555 0094 0262     		str	r2, [r0, #32]
 2556              	.LBE55:
 2557              	.LBE56:
 2558              	.LBB57:
 2559              	.LBB58:
 2560              		.loc 1 2106 0
 2561 0096 8369     		ldr	r3, [r0, #24]
 2562 0098 4FF6F372 		movw	r2, #65523
 2563 009c 1A40     		ands	r2, r2, r3
 2564 009e 8261     		str	r2, [r0, #24]
 2565              		.loc 1 2109 0
ARM GAS  /tmp/ccJZ9K5Y.s 			page 46


 2566 00a0 8369     		ldr	r3, [r0, #24]
 2567 00a2 3343     		orrs	r3, r3, r6
 2568 00a4 8361     		str	r3, [r0, #24]
 2569 00a6 F0BD     		pop	{r4, r5, r6, r7, pc}
 2570              	.LVL246:
 2571              	.L143:
 2572              	.LBE58:
 2573              	.LBE57:
 2574              	.LBB59:
 2575              	.LBB60:
 2576              		.loc 1 3255 0
 2577 00a8 036A     		ldr	r3, [r0, #32]
 2578              	.LBE60:
 2579              	.LBE59:
 2580              		.loc 1 1926 0
 2581 00aa 0C89     		ldrh	r4, [r1, #8]
 2582              	.LVL247:
 2583 00ac 4E88     		ldrh	r6, [r1, #2]
 2584              	.LVL248:
 2585 00ae 8A88     		ldrh	r2, [r1, #4]
 2586              	.LVL249:
 2587              		.loc 1 1930 0
 2588 00b0 CD88     		ldrh	r5, [r1, #6]
 2589              	.LBB62:
 2590              	.LBB61:
 2591              		.loc 1 3255 0
 2592 00b2 4FF6EF71 		movw	r1, #65519
 2593              	.LVL250:
 2594 00b6 1940     		ands	r1, r1, r3
 2595 00b8 0162     		str	r1, [r0, #32]
 2596              		.loc 1 3256 0
 2597 00ba 8769     		ldr	r7, [r0, #24]
 2598              	.LVL251:
 2599              		.loc 1 3257 0
 2600 00bc D0F820E0 		ldr	lr, [r0, #32]
 2601              	.LVL252:
 2602              		.loc 1 3266 0
 2603 00c0 4FF65F73 		movw	r3, #65375
 2604              		.loc 1 3262 0
 2605 00c4 2103     		lsls	r1, r4, #12
 2606              		.loc 1 3266 0
 2607 00c6 0EEA0303 		and	r3, lr, r3
 2608              		.loc 1 3261 0
 2609 00ca 40F6FF44 		movw	r4, #3327
 2610              	.LVL253:
 2611 00ce 41EA0222 		orr	r2, r1, r2, lsl #8
 2612              	.LVL254:
 2613 00d2 3C40     		ands	r4, r4, r7
 2614              	.LVL255:
 2615 00d4 43EA0613 		orr	r3, r3, r6, lsl #4
 2616              	.LVL256:
 2617              		.loc 1 3263 0
 2618 00d8 2243     		orrs	r2, r2, r4
 2619              		.loc 1 3267 0
 2620 00da 43F01003 		orr	r3, r3, #16
 2621              		.loc 1 3270 0
 2622 00de 92B2     		uxth	r2, r2
ARM GAS  /tmp/ccJZ9K5Y.s 			page 47


 2623              		.loc 1 3271 0
 2624 00e0 9BB2     		uxth	r3, r3
 2625              		.loc 1 3270 0
 2626 00e2 8261     		str	r2, [r0, #24]
 2627              		.loc 1 3271 0
 2628 00e4 0362     		str	r3, [r0, #32]
 2629              	.LBE61:
 2630              	.LBE62:
 2631              	.LBB63:
 2632              	.LBB64:
 2633              		.loc 1 2131 0
 2634 00e6 8269     		ldr	r2, [r0, #24]
 2635 00e8 4FF2FF33 		movw	r3, #62463
 2636 00ec 1340     		ands	r3, r3, r2
 2637 00ee 8361     		str	r3, [r0, #24]
 2638              		.loc 1 2134 0
 2639 00f0 8269     		ldr	r2, [r0, #24]
 2640 00f2 2B02     		lsls	r3, r5, #8
 2641 00f4 9BB2     		uxth	r3, r3
 2642 00f6 1343     		orrs	r3, r3, r2
 2643 00f8 8361     		str	r3, [r0, #24]
 2644 00fa F0BD     		pop	{r4, r5, r6, r7, pc}
 2645              	.LVL257:
 2646              	.L144:
 2647              	.LBE64:
 2648              	.LBE63:
 2649              	.LBB65:
 2650              	.LBB48:
 2651              		.loc 1 3297 0
 2652 00fc 4FF6FF61 		movw	r1, #65279
 2653              	.LVL258:
 2654 0100 1940     		ands	r1, r1, r3
 2655 0102 0162     		str	r1, [r0, #32]
 2656              		.loc 1 3298 0
 2657 0104 C769     		ldr	r7, [r0, #28]
 2658              	.LVL259:
 2659              		.loc 1 3299 0
 2660 0106 D0F820E0 		ldr	lr, [r0, #32]
 2661              	.LVL260:
 2662              		.loc 1 3307 0
 2663 010a 4FF2FF53 		movw	r3, #62975
 2664              		.loc 1 3303 0
 2665 010e 4FF60C71 		movw	r1, #65292
 2666              		.loc 1 3307 0
 2667 0112 0EEA0303 		and	r3, lr, r3
 2668              		.loc 1 3304 0
 2669 0116 44EA0212 		orr	r2, r4, r2, lsl #4
 2670              	.LVL261:
 2671              		.loc 1 3303 0
 2672 011a 3940     		ands	r1, r1, r7
 2673              	.LVL262:
 2674 011c 43EA0623 		orr	r3, r3, r6, lsl #8
 2675              	.LVL263:
 2676              		.loc 1 3304 0
 2677 0120 0A43     		orrs	r2, r2, r1
 2678              		.loc 1 3308 0
 2679 0122 43F48073 		orr	r3, r3, #256
ARM GAS  /tmp/ccJZ9K5Y.s 			page 48


 2680              		.loc 1 3311 0
 2681 0126 92B2     		uxth	r2, r2
 2682              		.loc 1 3312 0
 2683 0128 9BB2     		uxth	r3, r3
 2684              		.loc 1 3311 0
 2685 012a C261     		str	r2, [r0, #28]
 2686              		.loc 1 3312 0
 2687 012c 0362     		str	r3, [r0, #32]
 2688              	.LBE48:
 2689              	.LBE65:
 2690              	.LBB66:
 2691              	.LBB67:
 2692              		.loc 1 2155 0
 2693 012e C369     		ldr	r3, [r0, #28]
 2694 0130 4FF6F372 		movw	r2, #65523
 2695 0134 1A40     		ands	r2, r2, r3
 2696 0136 C261     		str	r2, [r0, #28]
 2697              		.loc 1 2158 0
 2698 0138 C369     		ldr	r3, [r0, #28]
 2699 013a 2B43     		orrs	r3, r3, r5
 2700 013c C361     		str	r3, [r0, #28]
 2701 013e F0BD     		pop	{r4, r5, r6, r7, pc}
 2702              	.LBE67:
 2703              	.LBE66:
 2704              		.cfi_endproc
 2705              	.LFE162:
 2706              		.size	TIM_ICInit, .-TIM_ICInit
 2707              		.section	.text.TIM_ICStructInit,"ax",%progbits
 2708              		.align	2
 2709              		.p2align 4,,15
 2710              		.global	TIM_ICStructInit
 2711              		.thumb
 2712              		.thumb_func
 2713              		.type	TIM_ICStructInit, %function
 2714              	TIM_ICStructInit:
 2715              	.LFB163:
 2716              		.loc 1 1961 0
 2717              		.cfi_startproc
 2718              		@ args = 0, pretend = 0, frame = 0
 2719              		@ frame_needed = 0, uses_anonymous_args = 0
 2720              		@ link register save eliminated.
 2721              	.LVL264:
 2722              		.loc 1 1963 0
 2723 0000 0023     		movs	r3, #0
 2724              		.loc 1 1965 0
 2725 0002 0122     		movs	r2, #1
 2726 0004 8280     		strh	r2, [r0, #4]	@ movhi
 2727              		.loc 1 1963 0
 2728 0006 0380     		strh	r3, [r0]	@ movhi
 2729              		.loc 1 1964 0
 2730 0008 4380     		strh	r3, [r0, #2]	@ movhi
 2731              		.loc 1 1966 0
 2732 000a C380     		strh	r3, [r0, #6]	@ movhi
 2733              		.loc 1 1967 0
 2734 000c 0381     		strh	r3, [r0, #8]	@ movhi
 2735 000e 7047     		bx	lr
 2736              		.cfi_endproc
ARM GAS  /tmp/ccJZ9K5Y.s 			page 49


 2737              	.LFE163:
 2738              		.size	TIM_ICStructInit, .-TIM_ICStructInit
 2739              		.section	.text.TIM_PWMIConfig,"ax",%progbits
 2740              		.align	2
 2741              		.p2align 4,,15
 2742              		.global	TIM_PWMIConfig
 2743              		.thumb
 2744              		.thumb_func
 2745              		.type	TIM_PWMIConfig, %function
 2746              	TIM_PWMIConfig:
 2747              	.LFB164:
 2748              		.loc 1 1980 0
 2749              		.cfi_startproc
 2750              		@ args = 0, pretend = 0, frame = 0
 2751              		@ frame_needed = 0, uses_anonymous_args = 0
 2752              	.LVL265:
 2753              		.loc 1 1988 0
 2754 0000 B1F802C0 		ldrh	ip, [r1, #2]
 2755              		.loc 1 2005 0
 2756 0004 0B88     		ldrh	r3, [r1]
 2757              	.LBB68:
 2758              	.LBB69:
 2759              		.loc 1 3214 0
 2760 0006 026A     		ldr	r2, [r0, #32]
 2761              	.LBE69:
 2762              	.LBE68:
 2763              		.loc 1 1980 0
 2764 0008 2DE9F043 		push	{r4, r5, r6, r7, r8, r9, lr}
 2765              		.cfi_def_cfa_offset 28
 2766              		.cfi_offset 4, -28
 2767              		.cfi_offset 5, -24
 2768              		.cfi_offset 6, -20
 2769              		.cfi_offset 7, -16
 2770              		.cfi_offset 8, -12
 2771              		.cfi_offset 9, -8
 2772              		.cfi_offset 14, -4
 2773              		.loc 1 1997 0
 2774 000c 8C88     		ldrh	r4, [r1, #4]
 2775              		.loc 1 1988 0
 2776 000e BCF1000F 		cmp	ip, #0
 2777              		.loc 1 1994 0
 2778 0012 0CBF     		ite	eq
 2779 0014 0225     		moveq	r5, #2
 2780 0016 0025     		movne	r5, #0
 2781              	.LVL266:
 2782              		.loc 1 1997 0
 2783 0018 012C     		cmp	r4, #1
 2784              		.loc 1 2003 0
 2785 001a 0CBF     		ite	eq
 2786 001c 0226     		moveq	r6, #2
 2787 001e 0126     		movne	r6, #1
 2788              	.LVL267:
 2789              		.loc 1 2005 0
 2790 0020 002B     		cmp	r3, #0
 2791 0022 48D0     		beq	.L154
 2792              	.LBB72:
 2793              	.LBB73:
ARM GAS  /tmp/ccJZ9K5Y.s 			page 50


 2794              		.loc 1 3255 0
 2795 0024 4FF6EF77 		movw	r7, #65519
 2796 0028 1740     		ands	r7, r7, r2
 2797              	.LBE73:
 2798              	.LBE72:
 2799              		.loc 1 2020 0
 2800 002a 0B89     		ldrh	r3, [r1, #8]
 2801              	.LVL268:
 2802              		.loc 1 2023 0
 2803 002c C988     		ldrh	r1, [r1, #6]
 2804              	.LVL269:
 2805              	.LBB75:
 2806              	.LBB74:
 2807              		.loc 1 3255 0
 2808 002e 0762     		str	r7, [r0, #32]
 2809              		.loc 1 3256 0
 2810 0030 D0F81880 		ldr	r8, [r0, #24]
 2811              	.LVL270:
 2812              		.loc 1 3257 0
 2813 0034 D0F82090 		ldr	r9, [r0, #32]
 2814              	.LVL271:
 2815              		.loc 1 3266 0
 2816 0038 4FF65F72 		movw	r2, #65375
 2817              		.loc 1 3262 0
 2818 003c 1F03     		lsls	r7, r3, #12
 2819              		.loc 1 3261 0
 2820 003e 40F6FF4E 		movw	lr, #3327
 2821              		.loc 1 3266 0
 2822 0042 09EA0202 		and	r2, r9, r2
 2823              		.loc 1 3261 0
 2824 0046 08EA0E0E 		and	lr, r8, lr
 2825              	.LVL272:
 2826 004a 47EA0424 		orr	r4, r7, r4, lsl #8
 2827              	.LVL273:
 2828 004e 42EA0C12 		orr	r2, r2, ip, lsl #4
 2829              	.LVL274:
 2830              		.loc 1 3263 0
 2831 0052 4EEA0404 		orr	r4, lr, r4
 2832              		.loc 1 3267 0
 2833 0056 42F01002 		orr	r2, r2, #16
 2834              		.loc 1 3270 0
 2835 005a A4B2     		uxth	r4, r4
 2836              		.loc 1 3271 0
 2837 005c 92B2     		uxth	r2, r2
 2838              		.loc 1 3270 0
 2839 005e 8461     		str	r4, [r0, #24]
 2840              		.loc 1 3271 0
 2841 0060 0262     		str	r2, [r0, #32]
 2842              	.LBE74:
 2843              	.LBE75:
 2844              	.LBB76:
 2845              	.LBB77:
 2846              		.loc 1 2131 0
 2847 0062 8469     		ldr	r4, [r0, #24]
 2848 0064 4FF2FF32 		movw	r2, #62463
 2849 0068 2240     		ands	r2, r2, r4
 2850 006a 8261     		str	r2, [r0, #24]
ARM GAS  /tmp/ccJZ9K5Y.s 			page 51


 2851              		.loc 1 2134 0
 2852 006c 8469     		ldr	r4, [r0, #24]
 2853 006e 0A02     		lsls	r2, r1, #8
 2854 0070 92B2     		uxth	r2, r2
 2855 0072 2243     		orrs	r2, r2, r4
 2856 0074 8261     		str	r2, [r0, #24]
 2857              	.LVL275:
 2858              	.LBE77:
 2859              	.LBE76:
 2860              	.LBB78:
 2861              	.LBB79:
 2862              		.loc 1 3214 0
 2863 0076 046A     		ldr	r4, [r0, #32]
 2864 0078 4FF6FE72 		movw	r2, #65534
 2865 007c 2240     		ands	r2, r2, r4
 2866 007e 0262     		str	r2, [r0, #32]
 2867              		.loc 1 3215 0
 2868 0080 8269     		ldr	r2, [r0, #24]
 2869              		.loc 1 3216 0
 2870 0082 046A     		ldr	r4, [r0, #32]
 2871              		.loc 1 3215 0
 2872 0084 92B2     		uxth	r2, r2
 2873              	.LVL276:
 2874              		.loc 1 3219 0
 2875 0086 22F0F302 		bic	r2, r2, #243
 2876              	.LVL277:
 2877              		.loc 1 3216 0
 2878 008a A4B2     		uxth	r4, r4
 2879              	.LVL278:
 2880 008c 42EA0313 		orr	r3, r2, r3, lsl #4
 2881              	.LVL279:
 2882              		.loc 1 3223 0
 2883 0090 24F00A02 		bic	r2, r4, #10
 2884 0094 42F00102 		orr	r2, r2, #1
 2885 0098 9BB2     		uxth	r3, r3
 2886              	.LVL280:
 2887              		.loc 1 3227 0
 2888 009a 3343     		orrs	r3, r3, r6
 2889              	.LVL281:
 2890              		.loc 1 3228 0
 2891 009c 1543     		orrs	r5, r5, r2
 2892              	.LVL282:
 2893              		.loc 1 3227 0
 2894 009e 8361     		str	r3, [r0, #24]
 2895              		.loc 1 3228 0
 2896 00a0 0562     		str	r5, [r0, #32]
 2897              	.LVL283:
 2898              	.LBE79:
 2899              	.LBE78:
 2900              	.LBB80:
 2901              	.LBB81:
 2902              		.loc 1 2106 0
 2903 00a2 8269     		ldr	r2, [r0, #24]
 2904 00a4 4FF6F373 		movw	r3, #65523
 2905 00a8 1340     		ands	r3, r3, r2
 2906 00aa 8361     		str	r3, [r0, #24]
 2907              		.loc 1 2109 0
ARM GAS  /tmp/ccJZ9K5Y.s 			page 52


 2908 00ac 8369     		ldr	r3, [r0, #24]
 2909 00ae 1943     		orrs	r1, r1, r3
 2910              	.LVL284:
 2911 00b0 8161     		str	r1, [r0, #24]
 2912 00b2 BDE8F083 		pop	{r4, r5, r6, r7, r8, r9, pc}
 2913              	.LVL285:
 2914              	.L154:
 2915              	.LBE81:
 2916              	.LBE80:
 2917              	.LBB82:
 2918              	.LBB70:
 2919              		.loc 1 3214 0
 2920 00b6 4FF6FE73 		movw	r3, #65534
 2921 00ba 1340     		ands	r3, r3, r2
 2922              	.LBE70:
 2923              	.LBE82:
 2924              		.loc 1 2008 0
 2925 00bc 0F89     		ldrh	r7, [r1, #8]
 2926              	.LVL286:
 2927              		.loc 1 2011 0
 2928 00be C988     		ldrh	r1, [r1, #6]
 2929              	.LVL287:
 2930              	.LBB83:
 2931              	.LBB71:
 2932              		.loc 1 3214 0
 2933 00c0 0362     		str	r3, [r0, #32]
 2934              		.loc 1 3215 0
 2935 00c2 8269     		ldr	r2, [r0, #24]
 2936              	.LVL288:
 2937              		.loc 1 3216 0
 2938 00c4 D0F82080 		ldr	r8, [r0, #32]
 2939              	.LVL289:
 2940              		.loc 1 3219 0
 2941 00c8 4FF60C7E 		movw	lr, #65292
 2942 00cc 02EA0E0E 		and	lr, r2, lr
 2943              	.LVL290:
 2944              		.loc 1 3220 0
 2945 00d0 44EA0714 		orr	r4, r4, r7, lsl #4
 2946              	.LVL291:
 2947              		.loc 1 3223 0
 2948 00d4 4FF6F573 		movw	r3, #65525
 2949 00d8 08EA0303 		and	r3, r8, r3
 2950              	.LVL292:
 2951 00dc 4CF00102 		orr	r2, ip, #1
 2952              		.loc 1 3220 0
 2953 00e0 4EEA0404 		orr	r4, lr, r4
 2954              		.loc 1 3228 0
 2955 00e4 1A43     		orrs	r2, r2, r3
 2956              		.loc 1 3227 0
 2957 00e6 A4B2     		uxth	r4, r4
 2958 00e8 8461     		str	r4, [r0, #24]
 2959              		.loc 1 3228 0
 2960 00ea 0262     		str	r2, [r0, #32]
 2961              	.LBE71:
 2962              	.LBE83:
 2963              	.LBB84:
 2964              	.LBB85:
ARM GAS  /tmp/ccJZ9K5Y.s 			page 53


 2965              		.loc 1 2106 0
 2966 00ec 8269     		ldr	r2, [r0, #24]
 2967 00ee 4FF6F373 		movw	r3, #65523
 2968              	.LVL293:
 2969 00f2 1340     		ands	r3, r3, r2
 2970 00f4 8361     		str	r3, [r0, #24]
 2971              		.loc 1 2109 0
 2972 00f6 8369     		ldr	r3, [r0, #24]
 2973 00f8 0B43     		orrs	r3, r3, r1
 2974 00fa 8361     		str	r3, [r0, #24]
 2975              	.LVL294:
 2976              	.LBE85:
 2977              	.LBE84:
 2978              	.LBB86:
 2979              	.LBB87:
 2980              		.loc 1 3255 0
 2981 00fc 026A     		ldr	r2, [r0, #32]
 2982 00fe 4FF6EF73 		movw	r3, #65519
 2983 0102 1340     		ands	r3, r3, r2
 2984 0104 0362     		str	r3, [r0, #32]
 2985              		.loc 1 3256 0
 2986 0106 8469     		ldr	r4, [r0, #24]
 2987              	.LVL295:
 2988              		.loc 1 3257 0
 2989 0108 026A     		ldr	r2, [r0, #32]
 2990              		.loc 1 3261 0
 2991 010a 40F6FF43 		movw	r3, #3327
 2992 010e 2340     		ands	r3, r3, r4
 2993              		.loc 1 3257 0
 2994 0110 92B2     		uxth	r2, r2
 2995              	.LVL296:
 2996              		.loc 1 3262 0
 2997 0112 43EA0733 		orr	r3, r3, r7, lsl #12
 2998              	.LVL297:
 2999              		.loc 1 3266 0
 3000 0116 22F0A002 		bic	r2, r2, #160
 3001              	.LVL298:
 3002              		.loc 1 3262 0
 3003 011a 9BB2     		uxth	r3, r3
 3004              	.LVL299:
 3005 011c 42F01002 		orr	r2, r2, #16
 3006              	.LVL300:
 3007              		.loc 1 3270 0
 3008 0120 43EA0626 		orr	r6, r3, r6, lsl #8
 3009              	.LVL301:
 3010              		.loc 1 3271 0
 3011 0124 42EA0515 		orr	r5, r2, r5, lsl #4
 3012              	.LVL302:
 3013              		.loc 1 3270 0
 3014 0128 8661     		str	r6, [r0, #24]
 3015              		.loc 1 3271 0
 3016 012a 0562     		str	r5, [r0, #32]
 3017              	.LVL303:
 3018              	.LBE87:
 3019              	.LBE86:
 3020              	.LBB88:
 3021              	.LBB89:
ARM GAS  /tmp/ccJZ9K5Y.s 			page 54


 3022              		.loc 1 2131 0
 3023 012c 8269     		ldr	r2, [r0, #24]
 3024 012e 4FF2FF33 		movw	r3, #62463
 3025 0132 1340     		ands	r3, r3, r2
 3026 0134 8361     		str	r3, [r0, #24]
 3027              		.loc 1 2134 0
 3028 0136 8369     		ldr	r3, [r0, #24]
 3029 0138 0902     		lsls	r1, r1, #8
 3030              	.LVL304:
 3031 013a 89B2     		uxth	r1, r1
 3032 013c 1943     		orrs	r1, r1, r3
 3033 013e 8161     		str	r1, [r0, #24]
 3034 0140 BDE8F083 		pop	{r4, r5, r6, r7, r8, r9, pc}
 3035              	.LBE89:
 3036              	.LBE88:
 3037              		.cfi_endproc
 3038              	.LFE164:
 3039              		.size	TIM_PWMIConfig, .-TIM_PWMIConfig
 3040              		.section	.text.TIM_GetCapture1,"ax",%progbits
 3041              		.align	2
 3042              		.p2align 4,,15
 3043              		.global	TIM_GetCapture1
 3044              		.thumb
 3045              		.thumb_func
 3046              		.type	TIM_GetCapture1, %function
 3047              	TIM_GetCapture1:
 3048              	.LFB165:
 3049              		.loc 1 2037 0
 3050              		.cfi_startproc
 3051              		@ args = 0, pretend = 0, frame = 0
 3052              		@ frame_needed = 0, uses_anonymous_args = 0
 3053              		@ link register save eliminated.
 3054              	.LVL305:
 3055              		.loc 1 2042 0
 3056 0000 406B     		ldr	r0, [r0, #52]
 3057              	.LVL306:
 3058              		.loc 1 2043 0
 3059 0002 7047     		bx	lr
 3060              		.cfi_endproc
 3061              	.LFE165:
 3062              		.size	TIM_GetCapture1, .-TIM_GetCapture1
 3063              		.section	.text.TIM_GetCapture2,"ax",%progbits
 3064              		.align	2
 3065              		.p2align 4,,15
 3066              		.global	TIM_GetCapture2
 3067              		.thumb
 3068              		.thumb_func
 3069              		.type	TIM_GetCapture2, %function
 3070              	TIM_GetCapture2:
 3071              	.LFB166:
 3072              		.loc 1 2052 0
 3073              		.cfi_startproc
 3074              		@ args = 0, pretend = 0, frame = 0
 3075              		@ frame_needed = 0, uses_anonymous_args = 0
 3076              		@ link register save eliminated.
 3077              	.LVL307:
 3078              		.loc 1 2057 0
ARM GAS  /tmp/ccJZ9K5Y.s 			page 55


 3079 0000 806B     		ldr	r0, [r0, #56]
 3080              	.LVL308:
 3081              		.loc 1 2058 0
 3082 0002 7047     		bx	lr
 3083              		.cfi_endproc
 3084              	.LFE166:
 3085              		.size	TIM_GetCapture2, .-TIM_GetCapture2
 3086              		.section	.text.TIM_GetCapture3,"ax",%progbits
 3087              		.align	2
 3088              		.p2align 4,,15
 3089              		.global	TIM_GetCapture3
 3090              		.thumb
 3091              		.thumb_func
 3092              		.type	TIM_GetCapture3, %function
 3093              	TIM_GetCapture3:
 3094              	.LFB167:
 3095              		.loc 1 2066 0
 3096              		.cfi_startproc
 3097              		@ args = 0, pretend = 0, frame = 0
 3098              		@ frame_needed = 0, uses_anonymous_args = 0
 3099              		@ link register save eliminated.
 3100              	.LVL309:
 3101              		.loc 1 2071 0
 3102 0000 C06B     		ldr	r0, [r0, #60]
 3103              	.LVL310:
 3104              		.loc 1 2072 0
 3105 0002 7047     		bx	lr
 3106              		.cfi_endproc
 3107              	.LFE167:
 3108              		.size	TIM_GetCapture3, .-TIM_GetCapture3
 3109              		.section	.text.TIM_GetCapture4,"ax",%progbits
 3110              		.align	2
 3111              		.p2align 4,,15
 3112              		.global	TIM_GetCapture4
 3113              		.thumb
 3114              		.thumb_func
 3115              		.type	TIM_GetCapture4, %function
 3116              	TIM_GetCapture4:
 3117              	.LFB168:
 3118              		.loc 1 2080 0
 3119              		.cfi_startproc
 3120              		@ args = 0, pretend = 0, frame = 0
 3121              		@ frame_needed = 0, uses_anonymous_args = 0
 3122              		@ link register save eliminated.
 3123              	.LVL311:
 3124              		.loc 1 2085 0
 3125 0000 006C     		ldr	r0, [r0, #64]
 3126              	.LVL312:
 3127              		.loc 1 2086 0
 3128 0002 7047     		bx	lr
 3129              		.cfi_endproc
 3130              	.LFE168:
 3131              		.size	TIM_GetCapture4, .-TIM_GetCapture4
 3132              		.section	.text.TIM_SetIC1Prescaler,"ax",%progbits
 3133              		.align	2
 3134              		.p2align 4,,15
 3135              		.global	TIM_SetIC1Prescaler
ARM GAS  /tmp/ccJZ9K5Y.s 			page 56


 3136              		.thumb
 3137              		.thumb_func
 3138              		.type	TIM_SetIC1Prescaler, %function
 3139              	TIM_SetIC1Prescaler:
 3140              	.LFB169:
 3141              		.loc 1 2100 0
 3142              		.cfi_startproc
 3143              		@ args = 0, pretend = 0, frame = 0
 3144              		@ frame_needed = 0, uses_anonymous_args = 0
 3145              		@ link register save eliminated.
 3146              	.LVL313:
 3147              		.loc 1 2106 0
 3148 0000 8269     		ldr	r2, [r0, #24]
 3149 0002 4FF6F373 		movw	r3, #65523
 3150 0006 1340     		ands	r3, r3, r2
 3151 0008 8361     		str	r3, [r0, #24]
 3152              		.loc 1 2109 0
 3153 000a 8369     		ldr	r3, [r0, #24]
 3154 000c 1943     		orrs	r1, r1, r3
 3155              	.LVL314:
 3156 000e 8161     		str	r1, [r0, #24]
 3157 0010 7047     		bx	lr
 3158              		.cfi_endproc
 3159              	.LFE169:
 3160              		.size	TIM_SetIC1Prescaler, .-TIM_SetIC1Prescaler
 3161 0012 00BF     		.section	.text.TIM_SetIC2Prescaler,"ax",%progbits
 3162              		.align	2
 3163              		.p2align 4,,15
 3164              		.global	TIM_SetIC2Prescaler
 3165              		.thumb
 3166              		.thumb_func
 3167              		.type	TIM_SetIC2Prescaler, %function
 3168              	TIM_SetIC2Prescaler:
 3169              	.LFB170:
 3170              		.loc 1 2125 0
 3171              		.cfi_startproc
 3172              		@ args = 0, pretend = 0, frame = 0
 3173              		@ frame_needed = 0, uses_anonymous_args = 0
 3174              		@ link register save eliminated.
 3175              	.LVL315:
 3176              		.loc 1 2131 0
 3177 0000 8269     		ldr	r2, [r0, #24]
 3178 0002 4FF2FF33 		movw	r3, #62463
 3179 0006 1340     		ands	r3, r3, r2
 3180 0008 8361     		str	r3, [r0, #24]
 3181              		.loc 1 2134 0
 3182 000a 8369     		ldr	r3, [r0, #24]
 3183 000c 0902     		lsls	r1, r1, #8
 3184              	.LVL316:
 3185 000e 89B2     		uxth	r1, r1
 3186 0010 1943     		orrs	r1, r1, r3
 3187 0012 8161     		str	r1, [r0, #24]
 3188 0014 7047     		bx	lr
 3189              		.cfi_endproc
 3190              	.LFE170:
 3191              		.size	TIM_SetIC2Prescaler, .-TIM_SetIC2Prescaler
 3192 0016 00BF     		.section	.text.TIM_SetIC3Prescaler,"ax",%progbits
ARM GAS  /tmp/ccJZ9K5Y.s 			page 57


 3193              		.align	2
 3194              		.p2align 4,,15
 3195              		.global	TIM_SetIC3Prescaler
 3196              		.thumb
 3197              		.thumb_func
 3198              		.type	TIM_SetIC3Prescaler, %function
 3199              	TIM_SetIC3Prescaler:
 3200              	.LFB171:
 3201              		.loc 1 2149 0
 3202              		.cfi_startproc
 3203              		@ args = 0, pretend = 0, frame = 0
 3204              		@ frame_needed = 0, uses_anonymous_args = 0
 3205              		@ link register save eliminated.
 3206              	.LVL317:
 3207              		.loc 1 2155 0
 3208 0000 C269     		ldr	r2, [r0, #28]
 3209 0002 4FF6F373 		movw	r3, #65523
 3210 0006 1340     		ands	r3, r3, r2
 3211 0008 C361     		str	r3, [r0, #28]
 3212              		.loc 1 2158 0
 3213 000a C369     		ldr	r3, [r0, #28]
 3214 000c 1943     		orrs	r1, r1, r3
 3215              	.LVL318:
 3216 000e C161     		str	r1, [r0, #28]
 3217 0010 7047     		bx	lr
 3218              		.cfi_endproc
 3219              	.LFE171:
 3220              		.size	TIM_SetIC3Prescaler, .-TIM_SetIC3Prescaler
 3221 0012 00BF     		.section	.text.TIM_SetIC4Prescaler,"ax",%progbits
 3222              		.align	2
 3223              		.p2align 4,,15
 3224              		.global	TIM_SetIC4Prescaler
 3225              		.thumb
 3226              		.thumb_func
 3227              		.type	TIM_SetIC4Prescaler, %function
 3228              	TIM_SetIC4Prescaler:
 3229              	.LFB172:
 3230              		.loc 1 2173 0
 3231              		.cfi_startproc
 3232              		@ args = 0, pretend = 0, frame = 0
 3233              		@ frame_needed = 0, uses_anonymous_args = 0
 3234              		@ link register save eliminated.
 3235              	.LVL319:
 3236              		.loc 1 2179 0
 3237 0000 C269     		ldr	r2, [r0, #28]
 3238 0002 4FF2FF33 		movw	r3, #62463
 3239 0006 1340     		ands	r3, r3, r2
 3240 0008 C361     		str	r3, [r0, #28]
 3241              		.loc 1 2182 0
 3242 000a C369     		ldr	r3, [r0, #28]
 3243 000c 0902     		lsls	r1, r1, #8
 3244              	.LVL320:
 3245 000e 89B2     		uxth	r1, r1
 3246 0010 1943     		orrs	r1, r1, r3
 3247 0012 C161     		str	r1, [r0, #28]
 3248 0014 7047     		bx	lr
 3249              		.cfi_endproc
ARM GAS  /tmp/ccJZ9K5Y.s 			page 58


 3250              	.LFE172:
 3251              		.size	TIM_SetIC4Prescaler, .-TIM_SetIC4Prescaler
 3252 0016 00BF     		.section	.text.TIM_BDTRConfig,"ax",%progbits
 3253              		.align	2
 3254              		.p2align 4,,15
 3255              		.global	TIM_BDTRConfig
 3256              		.thumb
 3257              		.thumb_func
 3258              		.type	TIM_BDTRConfig, %function
 3259              	TIM_BDTRConfig:
 3260              	.LFB173:
 3261              		.loc 1 2226 0
 3262              		.cfi_startproc
 3263              		@ args = 0, pretend = 0, frame = 0
 3264              		@ frame_needed = 0, uses_anonymous_args = 0
 3265              	.LVL321:
 3266 0000 F0B5     		push	{r4, r5, r6, r7, lr}
 3267              		.cfi_def_cfa_offset 20
 3268              		.cfi_offset 4, -20
 3269              		.cfi_offset 5, -16
 3270              		.cfi_offset 6, -12
 3271              		.cfi_offset 7, -8
 3272              		.cfi_offset 14, -4
 3273              		.loc 1 2240 0
 3274 0002 0B88     		ldrh	r3, [r1]
 3275 0004 B1F802E0 		ldrh	lr, [r1, #2]
 3276 0008 8F88     		ldrh	r7, [r1, #4]
 3277 000a CE88     		ldrh	r6, [r1, #6]
 3278 000c 0D89     		ldrh	r5, [r1, #8]
 3279 000e 4C89     		ldrh	r4, [r1, #10]
 3280 0010 8A89     		ldrh	r2, [r1, #12]
 3281 0012 4EEA0303 		orr	r3, lr, r3
 3282 0016 3B43     		orrs	r3, r3, r7
 3283 0018 3343     		orrs	r3, r3, r6
 3284 001a 2B43     		orrs	r3, r3, r5
 3285 001c 2343     		orrs	r3, r3, r4
 3286 001e 1343     		orrs	r3, r3, r2
 3287 0020 9BB2     		uxth	r3, r3
 3288              		.loc 1 2238 0
 3289 0022 4364     		str	r3, [r0, #68]
 3290 0024 F0BD     		pop	{r4, r5, r6, r7, pc}
 3291              		.cfi_endproc
 3292              	.LFE173:
 3293              		.size	TIM_BDTRConfig, .-TIM_BDTRConfig
 3294 0026 00BF     		.section	.text.TIM_BDTRStructInit,"ax",%progbits
 3295              		.align	2
 3296              		.p2align 4,,15
 3297              		.global	TIM_BDTRStructInit
 3298              		.thumb
 3299              		.thumb_func
 3300              		.type	TIM_BDTRStructInit, %function
 3301              	TIM_BDTRStructInit:
 3302              	.LFB174:
 3303              		.loc 1 2251 0
 3304              		.cfi_startproc
 3305              		@ args = 0, pretend = 0, frame = 0
 3306              		@ frame_needed = 0, uses_anonymous_args = 0
ARM GAS  /tmp/ccJZ9K5Y.s 			page 59


 3307              		@ link register save eliminated.
 3308              	.LVL322:
 3309              		.loc 1 2253 0
 3310 0000 0023     		movs	r3, #0
 3311 0002 0380     		strh	r3, [r0]	@ movhi
 3312              		.loc 1 2254 0
 3313 0004 4380     		strh	r3, [r0, #2]	@ movhi
 3314              		.loc 1 2255 0
 3315 0006 8380     		strh	r3, [r0, #4]	@ movhi
 3316              		.loc 1 2256 0
 3317 0008 C380     		strh	r3, [r0, #6]	@ movhi
 3318              		.loc 1 2257 0
 3319 000a 0381     		strh	r3, [r0, #8]	@ movhi
 3320              		.loc 1 2258 0
 3321 000c 4381     		strh	r3, [r0, #10]	@ movhi
 3322              		.loc 1 2259 0
 3323 000e 8381     		strh	r3, [r0, #12]	@ movhi
 3324 0010 7047     		bx	lr
 3325              		.cfi_endproc
 3326              	.LFE174:
 3327              		.size	TIM_BDTRStructInit, .-TIM_BDTRStructInit
 3328 0012 00BF     		.section	.text.TIM_CtrlPWMOutputs,"ax",%progbits
 3329              		.align	2
 3330              		.p2align 4,,15
 3331              		.global	TIM_CtrlPWMOutputs
 3332              		.thumb
 3333              		.thumb_func
 3334              		.type	TIM_CtrlPWMOutputs, %function
 3335              	TIM_CtrlPWMOutputs:
 3336              	.LFB175:
 3337              		.loc 1 2270 0
 3338              		.cfi_startproc
 3339              		@ args = 0, pretend = 0, frame = 0
 3340              		@ frame_needed = 0, uses_anonymous_args = 0
 3341              		@ link register save eliminated.
 3342              	.LVL323:
 3343              		.loc 1 2278 0
 3344 0000 436C     		ldr	r3, [r0, #68]
 3345              		.loc 1 2275 0
 3346 0002 19B9     		cbnz	r1, .L169
 3347              		.loc 1 2283 0
 3348 0004 C3F30E03 		ubfx	r3, r3, #0, #15
 3349 0008 4364     		str	r3, [r0, #68]
 3350 000a 7047     		bx	lr
 3351              	.L169:
 3352              		.loc 1 2278 0
 3353 000c 43F40043 		orr	r3, r3, #32768
 3354 0010 4364     		str	r3, [r0, #68]
 3355 0012 7047     		bx	lr
 3356              		.cfi_endproc
 3357              	.LFE175:
 3358              		.size	TIM_CtrlPWMOutputs, .-TIM_CtrlPWMOutputs
 3359              		.section	.text.TIM_SelectCOM,"ax",%progbits
 3360              		.align	2
 3361              		.p2align 4,,15
 3362              		.global	TIM_SelectCOM
 3363              		.thumb
ARM GAS  /tmp/ccJZ9K5Y.s 			page 60


 3364              		.thumb_func
 3365              		.type	TIM_SelectCOM, %function
 3366              	TIM_SelectCOM:
 3367              	.LFB176:
 3368              		.loc 1 2295 0
 3369              		.cfi_startproc
 3370              		@ args = 0, pretend = 0, frame = 0
 3371              		@ frame_needed = 0, uses_anonymous_args = 0
 3372              		@ link register save eliminated.
 3373              	.LVL324:
 3374              		.loc 1 2300 0
 3375 0000 29B9     		cbnz	r1, .L173
 3376              		.loc 1 2308 0
 3377 0002 4268     		ldr	r2, [r0, #4]
 3378 0004 4FF6FB73 		movw	r3, #65531
 3379 0008 1340     		ands	r3, r3, r2
 3380 000a 4360     		str	r3, [r0, #4]
 3381 000c 7047     		bx	lr
 3382              	.L173:
 3383              		.loc 1 2303 0
 3384 000e 4368     		ldr	r3, [r0, #4]
 3385 0010 43F00403 		orr	r3, r3, #4
 3386 0014 4360     		str	r3, [r0, #4]
 3387 0016 7047     		bx	lr
 3388              		.cfi_endproc
 3389              	.LFE176:
 3390              		.size	TIM_SelectCOM, .-TIM_SelectCOM
 3391              		.section	.text.TIM_CCPreloadControl,"ax",%progbits
 3392              		.align	2
 3393              		.p2align 4,,15
 3394              		.global	TIM_CCPreloadControl
 3395              		.thumb
 3396              		.thumb_func
 3397              		.type	TIM_CCPreloadControl, %function
 3398              	TIM_CCPreloadControl:
 3399              	.LFB177:
 3400              		.loc 1 2320 0
 3401              		.cfi_startproc
 3402              		@ args = 0, pretend = 0, frame = 0
 3403              		@ frame_needed = 0, uses_anonymous_args = 0
 3404              		@ link register save eliminated.
 3405              	.LVL325:
 3406              		.loc 1 2324 0
 3407 0000 29B9     		cbnz	r1, .L177
 3408              		.loc 1 2332 0
 3409 0002 4268     		ldr	r2, [r0, #4]
 3410 0004 4FF6FE73 		movw	r3, #65534
 3411 0008 1340     		ands	r3, r3, r2
 3412 000a 4360     		str	r3, [r0, #4]
 3413 000c 7047     		bx	lr
 3414              	.L177:
 3415              		.loc 1 2327 0
 3416 000e 4368     		ldr	r3, [r0, #4]
 3417 0010 43F00103 		orr	r3, r3, #1
 3418 0014 4360     		str	r3, [r0, #4]
 3419 0016 7047     		bx	lr
 3420              		.cfi_endproc
ARM GAS  /tmp/ccJZ9K5Y.s 			page 61


 3421              	.LFE177:
 3422              		.size	TIM_CCPreloadControl, .-TIM_CCPreloadControl
 3423              		.section	.text.TIM_ITConfig,"ax",%progbits
 3424              		.align	2
 3425              		.p2align 4,,15
 3426              		.global	TIM_ITConfig
 3427              		.thumb
 3428              		.thumb_func
 3429              		.type	TIM_ITConfig, %function
 3430              	TIM_ITConfig:
 3431              	.LFB178:
 3432              		.loc 1 2377 0
 3433              		.cfi_startproc
 3434              		@ args = 0, pretend = 0, frame = 0
 3435              		@ frame_needed = 0, uses_anonymous_args = 0
 3436              		@ link register save eliminated.
 3437              	.LVL326:
 3438              		.loc 1 2383 0
 3439 0000 2AB9     		cbnz	r2, .L181
 3440              		.loc 1 2391 0
 3441 0002 C368     		ldr	r3, [r0, #12]
 3442 0004 C943     		mvns	r1, r1
 3443              	.LVL327:
 3444 0006 89B2     		uxth	r1, r1
 3445 0008 1940     		ands	r1, r1, r3
 3446 000a C160     		str	r1, [r0, #12]
 3447 000c 7047     		bx	lr
 3448              	.LVL328:
 3449              	.L181:
 3450              		.loc 1 2386 0
 3451 000e C368     		ldr	r3, [r0, #12]
 3452 0010 1943     		orrs	r1, r1, r3
 3453              	.LVL329:
 3454 0012 C160     		str	r1, [r0, #12]
 3455 0014 7047     		bx	lr
 3456              		.cfi_endproc
 3457              	.LFE178:
 3458              		.size	TIM_ITConfig, .-TIM_ITConfig
 3459 0016 00BF     		.section	.text.TIM_GenerateEvent,"ax",%progbits
 3460              		.align	2
 3461              		.p2align 4,,15
 3462              		.global	TIM_GenerateEvent
 3463              		.thumb
 3464              		.thumb_func
 3465              		.type	TIM_GenerateEvent, %function
 3466              	TIM_GenerateEvent:
 3467              	.LFB179:
 3468              		.loc 1 2415 0
 3469              		.cfi_startproc
 3470              		@ args = 0, pretend = 0, frame = 0
 3471              		@ frame_needed = 0, uses_anonymous_args = 0
 3472              		@ link register save eliminated.
 3473              	.LVL330:
 3474              		.loc 1 2421 0
 3475 0000 4161     		str	r1, [r0, #20]
 3476 0002 7047     		bx	lr
 3477              		.cfi_endproc
ARM GAS  /tmp/ccJZ9K5Y.s 			page 62


 3478              	.LFE179:
 3479              		.size	TIM_GenerateEvent, .-TIM_GenerateEvent
 3480              		.section	.text.TIM_GetFlagStatus,"ax",%progbits
 3481              		.align	2
 3482              		.p2align 4,,15
 3483              		.global	TIM_GetFlagStatus
 3484              		.thumb
 3485              		.thumb_func
 3486              		.type	TIM_GetFlagStatus, %function
 3487              	TIM_GetFlagStatus:
 3488              	.LFB180:
 3489              		.loc 1 2448 0
 3490              		.cfi_startproc
 3491              		@ args = 0, pretend = 0, frame = 0
 3492              		@ frame_needed = 0, uses_anonymous_args = 0
 3493              		@ link register save eliminated.
 3494              	.LVL331:
 3495              		.loc 1 2455 0
 3496 0000 0369     		ldr	r3, [r0, #16]
 3497              	.LVL332:
 3498 0002 1942     		tst	r1, r3
 3499              		.loc 1 2464 0
 3500 0004 14BF     		ite	ne
 3501 0006 0120     		movne	r0, #1
 3502              	.LVL333:
 3503 0008 0020     		moveq	r0, #0
 3504 000a 7047     		bx	lr
 3505              		.cfi_endproc
 3506              	.LFE180:
 3507              		.size	TIM_GetFlagStatus, .-TIM_GetFlagStatus
 3508              		.section	.text.TIM_ClearFlag,"ax",%progbits
 3509              		.align	2
 3510              		.p2align 4,,15
 3511              		.global	TIM_ClearFlag
 3512              		.thumb
 3513              		.thumb_func
 3514              		.type	TIM_ClearFlag, %function
 3515              	TIM_ClearFlag:
 3516              	.LFB181:
 3517              		.loc 1 2490 0
 3518              		.cfi_startproc
 3519              		@ args = 0, pretend = 0, frame = 0
 3520              		@ frame_needed = 0, uses_anonymous_args = 0
 3521              		@ link register save eliminated.
 3522              	.LVL334:
 3523              		.loc 1 2495 0
 3524 0000 C943     		mvns	r1, r1
 3525              	.LVL335:
 3526 0002 89B2     		uxth	r1, r1
 3527 0004 0161     		str	r1, [r0, #16]
 3528 0006 7047     		bx	lr
 3529              		.cfi_endproc
 3530              	.LFE181:
 3531              		.size	TIM_ClearFlag, .-TIM_ClearFlag
 3532              		.section	.text.TIM_GetITStatus,"ax",%progbits
 3533              		.align	2
 3534              		.p2align 4,,15
ARM GAS  /tmp/ccJZ9K5Y.s 			page 63


 3535              		.global	TIM_GetITStatus
 3536              		.thumb
 3537              		.thumb_func
 3538              		.type	TIM_GetITStatus, %function
 3539              	TIM_GetITStatus:
 3540              	.LFB182:
 3541              		.loc 1 2518 0
 3542              		.cfi_startproc
 3543              		@ args = 0, pretend = 0, frame = 0
 3544              		@ frame_needed = 0, uses_anonymous_args = 0
 3545              		@ link register save eliminated.
 3546              	.LVL336:
 3547              		.loc 1 2525 0
 3548 0000 0369     		ldr	r3, [r0, #16]
 3549              	.LVL337:
 3550              		.loc 1 2527 0
 3551 0002 C268     		ldr	r2, [r0, #12]
 3552              	.LVL338:
 3553              		.loc 1 2528 0
 3554 0004 11EA0300 		ands	r0, r1, r3
 3555              	.LVL339:
 3556 0008 03D0     		beq	.L186
 3557              		.loc 1 2528 0 is_stmt 0 discriminator 1
 3558 000a 1142     		tst	r1, r2
 3559              		.loc 1 2530 0 is_stmt 1 discriminator 1
 3560 000c 14BF     		ite	ne
 3561 000e 0120     		movne	r0, #1
 3562 0010 0020     		moveq	r0, #0
 3563              	.L186:
 3564              	.LVL340:
 3565              		.loc 1 2537 0
 3566 0012 7047     		bx	lr
 3567              		.cfi_endproc
 3568              	.LFE182:
 3569              		.size	TIM_GetITStatus, .-TIM_GetITStatus
 3570              		.section	.text.TIM_ClearITPendingBit,"ax",%progbits
 3571              		.align	2
 3572              		.p2align 4,,15
 3573              		.global	TIM_ClearITPendingBit
 3574              		.thumb
 3575              		.thumb_func
 3576              		.type	TIM_ClearITPendingBit, %function
 3577              	TIM_ClearITPendingBit:
 3578              	.LFB183:
 3579              		.loc 1 2559 0
 3580              		.cfi_startproc
 3581              		@ args = 0, pretend = 0, frame = 0
 3582              		@ frame_needed = 0, uses_anonymous_args = 0
 3583              		@ link register save eliminated.
 3584              	.LVL341:
 3585              		.loc 1 2564 0
 3586 0000 C943     		mvns	r1, r1
 3587              	.LVL342:
 3588 0002 89B2     		uxth	r1, r1
 3589 0004 0161     		str	r1, [r0, #16]
 3590 0006 7047     		bx	lr
 3591              		.cfi_endproc
ARM GAS  /tmp/ccJZ9K5Y.s 			page 64


 3592              	.LFE183:
 3593              		.size	TIM_ClearITPendingBit, .-TIM_ClearITPendingBit
 3594              		.section	.text.TIM_DMAConfig,"ax",%progbits
 3595              		.align	2
 3596              		.p2align 4,,15
 3597              		.global	TIM_DMAConfig
 3598              		.thumb
 3599              		.thumb_func
 3600              		.type	TIM_DMAConfig, %function
 3601              	TIM_DMAConfig:
 3602              	.LFB184:
 3603              		.loc 1 2596 0
 3604              		.cfi_startproc
 3605              		@ args = 0, pretend = 0, frame = 0
 3606              		@ frame_needed = 0, uses_anonymous_args = 0
 3607              		@ link register save eliminated.
 3608              	.LVL343:
 3609              		.loc 1 2603 0
 3610 0000 0A43     		orrs	r2, r2, r1
 3611              	.LVL344:
 3612 0002 8264     		str	r2, [r0, #72]
 3613 0004 7047     		bx	lr
 3614              		.cfi_endproc
 3615              	.LFE184:
 3616              		.size	TIM_DMAConfig, .-TIM_DMAConfig
 3617 0006 00BF     		.section	.text.TIM_DMACmd,"ax",%progbits
 3618              		.align	2
 3619              		.p2align 4,,15
 3620              		.global	TIM_DMACmd
 3621              		.thumb
 3622              		.thumb_func
 3623              		.type	TIM_DMACmd, %function
 3624              	TIM_DMACmd:
 3625              	.LFB185:
 3626              		.loc 1 2623 0
 3627              		.cfi_startproc
 3628              		@ args = 0, pretend = 0, frame = 0
 3629              		@ frame_needed = 0, uses_anonymous_args = 0
 3630              		@ link register save eliminated.
 3631              	.LVL345:
 3632              		.loc 1 2629 0
 3633 0000 2AB9     		cbnz	r2, .L193
 3634              		.loc 1 2637 0
 3635 0002 C368     		ldr	r3, [r0, #12]
 3636 0004 C943     		mvns	r1, r1
 3637              	.LVL346:
 3638 0006 89B2     		uxth	r1, r1
 3639 0008 1940     		ands	r1, r1, r3
 3640 000a C160     		str	r1, [r0, #12]
 3641 000c 7047     		bx	lr
 3642              	.LVL347:
 3643              	.L193:
 3644              		.loc 1 2632 0
 3645 000e C368     		ldr	r3, [r0, #12]
 3646 0010 1943     		orrs	r1, r1, r3
 3647              	.LVL348:
 3648 0012 C160     		str	r1, [r0, #12]
ARM GAS  /tmp/ccJZ9K5Y.s 			page 65


 3649 0014 7047     		bx	lr
 3650              		.cfi_endproc
 3651              	.LFE185:
 3652              		.size	TIM_DMACmd, .-TIM_DMACmd
 3653 0016 00BF     		.section	.text.TIM_SelectCCDMA,"ax",%progbits
 3654              		.align	2
 3655              		.p2align 4,,15
 3656              		.global	TIM_SelectCCDMA
 3657              		.thumb
 3658              		.thumb_func
 3659              		.type	TIM_SelectCCDMA, %function
 3660              	TIM_SelectCCDMA:
 3661              	.LFB186:
 3662              		.loc 1 2649 0
 3663              		.cfi_startproc
 3664              		@ args = 0, pretend = 0, frame = 0
 3665              		@ frame_needed = 0, uses_anonymous_args = 0
 3666              		@ link register save eliminated.
 3667              	.LVL349:
 3668              		.loc 1 2654 0
 3669 0000 29B9     		cbnz	r1, .L197
 3670              		.loc 1 2662 0
 3671 0002 4268     		ldr	r2, [r0, #4]
 3672 0004 4FF6F773 		movw	r3, #65527
 3673 0008 1340     		ands	r3, r3, r2
 3674 000a 4360     		str	r3, [r0, #4]
 3675 000c 7047     		bx	lr
 3676              	.L197:
 3677              		.loc 1 2657 0
 3678 000e 4368     		ldr	r3, [r0, #4]
 3679 0010 43F00803 		orr	r3, r3, #8
 3680 0014 4360     		str	r3, [r0, #4]
 3681 0016 7047     		bx	lr
 3682              		.cfi_endproc
 3683              	.LFE186:
 3684              		.size	TIM_SelectCCDMA, .-TIM_SelectCCDMA
 3685              		.section	.text.TIM_InternalClockConfig,"ax",%progbits
 3686              		.align	2
 3687              		.p2align 4,,15
 3688              		.global	TIM_InternalClockConfig
 3689              		.thumb
 3690              		.thumb_func
 3691              		.type	TIM_InternalClockConfig, %function
 3692              	TIM_InternalClockConfig:
 3693              	.LFB187:
 3694              		.loc 1 2688 0
 3695              		.cfi_startproc
 3696              		@ args = 0, pretend = 0, frame = 0
 3697              		@ frame_needed = 0, uses_anonymous_args = 0
 3698              		@ link register save eliminated.
 3699              	.LVL350:
 3700              		.loc 1 2693 0
 3701 0000 8268     		ldr	r2, [r0, #8]
 3702 0002 4FF6F873 		movw	r3, #65528
 3703 0006 1340     		ands	r3, r3, r2
 3704 0008 8360     		str	r3, [r0, #8]
 3705 000a 7047     		bx	lr
ARM GAS  /tmp/ccJZ9K5Y.s 			page 66


 3706              		.cfi_endproc
 3707              	.LFE187:
 3708              		.size	TIM_InternalClockConfig, .-TIM_InternalClockConfig
 3709              		.section	.text.TIM_ITRxExternalClockConfig,"ax",%progbits
 3710              		.align	2
 3711              		.p2align 4,,15
 3712              		.global	TIM_ITRxExternalClockConfig
 3713              		.thumb
 3714              		.thumb_func
 3715              		.type	TIM_ITRxExternalClockConfig, %function
 3716              	TIM_ITRxExternalClockConfig:
 3717              	.LFB188:
 3718              		.loc 1 2709 0
 3719              		.cfi_startproc
 3720              		@ args = 0, pretend = 0, frame = 0
 3721              		@ frame_needed = 0, uses_anonymous_args = 0
 3722              		@ link register save eliminated.
 3723              	.LVL351:
 3724              	.LBB90:
 3725              	.LBB91:
 3726              		.loc 1 2905 0
 3727 0000 8268     		ldr	r2, [r0, #8]
 3728              	.LVL352:
 3729              		.loc 1 2908 0
 3730 0002 4FF68F73 		movw	r3, #65423
 3731 0006 1340     		ands	r3, r3, r2
 3732              	.LVL353:
 3733              		.loc 1 2914 0
 3734 0008 1943     		orrs	r1, r1, r3
 3735              	.LVL354:
 3736 000a 8160     		str	r1, [r0, #8]
 3737              	.LBE91:
 3738              	.LBE90:
 3739              		.loc 1 2718 0
 3740 000c 8368     		ldr	r3, [r0, #8]
 3741              	.LVL355:
 3742 000e 43F00703 		orr	r3, r3, #7
 3743 0012 8360     		str	r3, [r0, #8]
 3744 0014 7047     		bx	lr
 3745              		.cfi_endproc
 3746              	.LFE188:
 3747              		.size	TIM_ITRxExternalClockConfig, .-TIM_ITRxExternalClockConfig
 3748 0016 00BF     		.section	.text.TIM_TIxExternalClockConfig,"ax",%progbits
 3749              		.align	2
 3750              		.p2align 4,,15
 3751              		.global	TIM_TIxExternalClockConfig
 3752              		.thumb
 3753              		.thumb_func
 3754              		.type	TIM_TIxExternalClockConfig, %function
 3755              	TIM_TIxExternalClockConfig:
 3756              	.LFB189:
 3757              		.loc 1 2740 0
 3758              		.cfi_startproc
 3759              		@ args = 0, pretend = 0, frame = 0
 3760              		@ frame_needed = 0, uses_anonymous_args = 0
 3761              		@ link register save eliminated.
 3762              	.LVL356:
ARM GAS  /tmp/ccJZ9K5Y.s 			page 67


 3763              		.loc 1 2747 0
 3764 0000 6029     		cmp	r1, #96
 3765              		.loc 1 2740 0
 3766 0002 70B4     		push	{r4, r5, r6}
 3767              		.cfi_def_cfa_offset 12
 3768              		.cfi_offset 4, -12
 3769              		.cfi_offset 5, -8
 3770              		.cfi_offset 6, -4
 3771              	.LBB92:
 3772              	.LBB93:
 3773              		.loc 1 3255 0
 3774 0004 056A     		ldr	r5, [r0, #32]
 3775              	.LBE93:
 3776              	.LBE92:
 3777              		.loc 1 2747 0
 3778 0006 21D0     		beq	.L204
 3779              	.LVL357:
 3780              	.LBB95:
 3781              	.LBB96:
 3782              		.loc 1 3214 0
 3783 0008 4FF6FE74 		movw	r4, #65534
 3784 000c 2C40     		ands	r4, r4, r5
 3785 000e 0462     		str	r4, [r0, #32]
 3786              		.loc 1 3215 0
 3787 0010 8469     		ldr	r4, [r0, #24]
 3788              		.loc 1 3216 0
 3789 0012 056A     		ldr	r5, [r0, #32]
 3790              		.loc 1 3215 0
 3791 0014 A4B2     		uxth	r4, r4
 3792              	.LVL358:
 3793              		.loc 1 3219 0
 3794 0016 24F0F304 		bic	r4, r4, #243
 3795              	.LVL359:
 3796              		.loc 1 3216 0
 3797 001a ADB2     		uxth	r5, r5
 3798              	.LVL360:
 3799 001c 44F00104 		orr	r4, r4, #1
 3800              	.LVL361:
 3801              		.loc 1 3223 0
 3802 0020 25F00A05 		bic	r5, r5, #10
 3803              	.LVL362:
 3804              		.loc 1 3220 0
 3805 0024 44EA0313 		orr	r3, r4, r3, lsl #4
 3806              	.LVL363:
 3807 0028 45F00104 		orr	r4, r5, #1
 3808              	.LVL364:
 3809              		.loc 1 3227 0
 3810 002c 9BB2     		uxth	r3, r3
 3811              		.loc 1 3228 0
 3812 002e 2243     		orrs	r2, r2, r4
 3813              	.LVL365:
 3814              		.loc 1 3227 0
 3815 0030 8361     		str	r3, [r0, #24]
 3816              		.loc 1 3228 0
 3817 0032 0262     		str	r2, [r0, #32]
 3818              	.LVL366:
 3819              	.L202:
ARM GAS  /tmp/ccJZ9K5Y.s 			page 68


 3820              	.LBE96:
 3821              	.LBE95:
 3822              	.LBB97:
 3823              	.LBB98:
 3824              		.loc 1 2905 0
 3825 0034 8268     		ldr	r2, [r0, #8]
 3826              	.LVL367:
 3827              		.loc 1 2908 0
 3828 0036 4FF68F73 		movw	r3, #65423
 3829 003a 1340     		ands	r3, r3, r2
 3830              	.LVL368:
 3831              		.loc 1 2914 0
 3832 003c 1943     		orrs	r1, r1, r3
 3833              	.LVL369:
 3834 003e 8160     		str	r1, [r0, #8]
 3835              	.LBE98:
 3836              	.LBE97:
 3837              		.loc 1 2758 0
 3838 0040 8368     		ldr	r3, [r0, #8]
 3839              	.LVL370:
 3840 0042 43F00703 		orr	r3, r3, #7
 3841 0046 8360     		str	r3, [r0, #8]
 3842              		.loc 1 2759 0
 3843 0048 70BC     		pop	{r4, r5, r6}
 3844              		.cfi_remember_state
 3845              		.cfi_restore 6
 3846              		.cfi_restore 5
 3847              		.cfi_restore 4
 3848              		.cfi_def_cfa_offset 0
 3849 004a 7047     		bx	lr
 3850              	.LVL371:
 3851              	.L204:
 3852              		.cfi_restore_state
 3853              	.LBB99:
 3854              	.LBB94:
 3855              		.loc 1 3255 0
 3856 004c 4FF6EF74 		movw	r4, #65519
 3857 0050 2C40     		ands	r4, r4, r5
 3858 0052 0462     		str	r4, [r0, #32]
 3859              		.loc 1 3256 0
 3860 0054 8669     		ldr	r6, [r0, #24]
 3861              	.LVL372:
 3862              		.loc 1 3257 0
 3863 0056 046A     		ldr	r4, [r0, #32]
 3864              		.loc 1 3261 0
 3865 0058 40F6FF45 		movw	r5, #3327
 3866              		.loc 1 3257 0
 3867 005c A4B2     		uxth	r4, r4
 3868              	.LVL373:
 3869              		.loc 1 3261 0
 3870 005e 3540     		ands	r5, r5, r6
 3871              		.loc 1 3266 0
 3872 0060 24F0A004 		bic	r4, r4, #160
 3873              	.LVL374:
 3874 0064 45F48075 		orr	r5, r5, #256
 3875              	.LVL375:
 3876 0068 44F01004 		orr	r4, r4, #16
ARM GAS  /tmp/ccJZ9K5Y.s 			page 69


 3877              	.LVL376:
 3878              		.loc 1 3263 0
 3879 006c 45EA0333 		orr	r3, r5, r3, lsl #12
 3880              	.LVL377:
 3881              		.loc 1 3267 0
 3882 0070 44EA0212 		orr	r2, r4, r2, lsl #4
 3883              	.LVL378:
 3884              		.loc 1 3270 0
 3885 0074 9BB2     		uxth	r3, r3
 3886              		.loc 1 3271 0
 3887 0076 92B2     		uxth	r2, r2
 3888              		.loc 1 3270 0
 3889 0078 8361     		str	r3, [r0, #24]
 3890              		.loc 1 3271 0
 3891 007a 0262     		str	r2, [r0, #32]
 3892 007c DAE7     		b	.L202
 3893              	.LBE94:
 3894              	.LBE99:
 3895              		.cfi_endproc
 3896              	.LFE189:
 3897              		.size	TIM_TIxExternalClockConfig, .-TIM_TIxExternalClockConfig
 3898 007e 00BF     		.section	.text.TIM_ETRClockMode1Config,"ax",%progbits
 3899              		.align	2
 3900              		.p2align 4,,15
 3901              		.global	TIM_ETRClockMode1Config
 3902              		.thumb
 3903              		.thumb_func
 3904              		.type	TIM_ETRClockMode1Config, %function
 3905              	TIM_ETRClockMode1Config:
 3906              	.LFB190:
 3907              		.loc 1 2780 0
 3908              		.cfi_startproc
 3909              		@ args = 0, pretend = 0, frame = 0
 3910              		@ frame_needed = 0, uses_anonymous_args = 0
 3911              		@ link register save eliminated.
 3912              	.LVL379:
 3913 0000 10B4     		push	{r4}
 3914              		.cfi_def_cfa_offset 4
 3915              		.cfi_offset 4, -4
 3916              	.LBB100:
 3917              	.LBB101:
 3918              		.loc 1 3027 0
 3919 0002 8468     		ldr	r4, [r0, #8]
 3920              	.LVL380:
 3921              		.loc 1 3033 0
 3922 0004 42EA0323 		orr	r3, r2, r3, lsl #8
 3923              	.LVL381:
 3924              		.loc 1 3030 0
 3925 0008 E4B2     		uxtb	r4, r4
 3926              	.LVL382:
 3927 000a 2343     		orrs	r3, r3, r4
 3928 000c 9BB2     		uxth	r3, r3
 3929              	.LVL383:
 3930              		.loc 1 3036 0
 3931 000e 1943     		orrs	r1, r1, r3
 3932              	.LVL384:
 3933 0010 8160     		str	r1, [r0, #8]
ARM GAS  /tmp/ccJZ9K5Y.s 			page 70


 3934              	.LBE101:
 3935              	.LBE100:
 3936              		.loc 1 2792 0
 3937 0012 8368     		ldr	r3, [r0, #8]
 3938              	.LVL385:
 3939              		.loc 1 2806 0
 3940 0014 5DF8044B 		ldr	r4, [sp], #4
 3941              		.cfi_restore 4
 3942              		.cfi_def_cfa_offset 0
 3943              		.loc 1 2801 0
 3944 0018 23F07703 		bic	r3, r3, #119
 3945              	.LVL386:
 3946 001c 9BB2     		uxth	r3, r3
 3947              	.LVL387:
 3948              		.loc 1 2805 0
 3949 001e 43F07703 		orr	r3, r3, #119
 3950              	.LVL388:
 3951 0022 8360     		str	r3, [r0, #8]
 3952              		.loc 1 2806 0
 3953 0024 7047     		bx	lr
 3954              		.cfi_endproc
 3955              	.LFE190:
 3956              		.size	TIM_ETRClockMode1Config, .-TIM_ETRClockMode1Config
 3957 0026 00BF     		.section	.text.TIM_ETRClockMode2Config,"ax",%progbits
 3958              		.align	2
 3959              		.p2align 4,,15
 3960              		.global	TIM_ETRClockMode2Config
 3961              		.thumb
 3962              		.thumb_func
 3963              		.type	TIM_ETRClockMode2Config, %function
 3964              	TIM_ETRClockMode2Config:
 3965              	.LFB191:
 3966              		.loc 1 2827 0
 3967              		.cfi_startproc
 3968              		@ args = 0, pretend = 0, frame = 0
 3969              		@ frame_needed = 0, uses_anonymous_args = 0
 3970              		@ link register save eliminated.
 3971              	.LVL389:
 3972 0000 10B4     		push	{r4}
 3973              		.cfi_def_cfa_offset 4
 3974              		.cfi_offset 4, -4
 3975              	.LBB102:
 3976              	.LBB103:
 3977              		.loc 1 3027 0
 3978 0002 8468     		ldr	r4, [r0, #8]
 3979              	.LVL390:
 3980              		.loc 1 3033 0
 3981 0004 42EA0323 		orr	r3, r2, r3, lsl #8
 3982              	.LVL391:
 3983              		.loc 1 3030 0
 3984 0008 E4B2     		uxtb	r4, r4
 3985              	.LVL392:
 3986 000a 2343     		orrs	r3, r3, r4
 3987 000c 9BB2     		uxth	r3, r3
 3988              	.LVL393:
 3989              		.loc 1 3036 0
 3990 000e 1943     		orrs	r1, r1, r3
ARM GAS  /tmp/ccJZ9K5Y.s 			page 71


 3991              	.LVL394:
 3992 0010 8160     		str	r1, [r0, #8]
 3993              	.LBE103:
 3994              	.LBE102:
 3995              		.loc 1 2838 0
 3996 0012 8368     		ldr	r3, [r0, #8]
 3997              	.LVL395:
 3998              		.loc 1 2839 0
 3999 0014 5DF8044B 		ldr	r4, [sp], #4
 4000              		.cfi_restore 4
 4001              		.cfi_def_cfa_offset 0
 4002              		.loc 1 2838 0
 4003 0018 43F48043 		orr	r3, r3, #16384
 4004 001c 8360     		str	r3, [r0, #8]
 4005              		.loc 1 2839 0
 4006 001e 7047     		bx	lr
 4007              		.cfi_endproc
 4008              	.LFE191:
 4009              		.size	TIM_ETRClockMode2Config, .-TIM_ETRClockMode2Config
 4010              		.section	.text.TIM_SelectInputTrigger,"ax",%progbits
 4011              		.align	2
 4012              		.p2align 4,,15
 4013              		.global	TIM_SelectInputTrigger
 4014              		.thumb
 4015              		.thumb_func
 4016              		.type	TIM_SelectInputTrigger, %function
 4017              	TIM_SelectInputTrigger:
 4018              	.LFB192:
 4019              		.loc 1 2897 0
 4020              		.cfi_startproc
 4021              		@ args = 0, pretend = 0, frame = 0
 4022              		@ frame_needed = 0, uses_anonymous_args = 0
 4023              		@ link register save eliminated.
 4024              	.LVL396:
 4025              		.loc 1 2905 0
 4026 0000 8268     		ldr	r2, [r0, #8]
 4027              	.LVL397:
 4028              		.loc 1 2908 0
 4029 0002 4FF68F73 		movw	r3, #65423
 4030 0006 1340     		ands	r3, r3, r2
 4031              	.LVL398:
 4032              		.loc 1 2914 0
 4033 0008 1943     		orrs	r1, r1, r3
 4034              	.LVL399:
 4035 000a 8160     		str	r1, [r0, #8]
 4036 000c 7047     		bx	lr
 4037              		.cfi_endproc
 4038              	.LFE192:
 4039              		.size	TIM_SelectInputTrigger, .-TIM_SelectInputTrigger
 4040 000e 00BF     		.section	.text.TIM_SelectOutputTrigger,"ax",%progbits
 4041              		.align	2
 4042              		.p2align 4,,15
 4043              		.global	TIM_SelectOutputTrigger
 4044              		.thumb
 4045              		.thumb_func
 4046              		.type	TIM_SelectOutputTrigger, %function
 4047              	TIM_SelectOutputTrigger:
ARM GAS  /tmp/ccJZ9K5Y.s 			page 72


 4048              	.LFB193:
 4049              		.loc 1 2940 0
 4050              		.cfi_startproc
 4051              		@ args = 0, pretend = 0, frame = 0
 4052              		@ frame_needed = 0, uses_anonymous_args = 0
 4053              		@ link register save eliminated.
 4054              	.LVL400:
 4055              		.loc 1 2946 0
 4056 0000 4268     		ldr	r2, [r0, #4]
 4057 0002 4FF68F73 		movw	r3, #65423
 4058 0006 1340     		ands	r3, r3, r2
 4059 0008 4360     		str	r3, [r0, #4]
 4060              		.loc 1 2948 0
 4061 000a 4368     		ldr	r3, [r0, #4]
 4062 000c 1943     		orrs	r1, r1, r3
 4063              	.LVL401:
 4064 000e 4160     		str	r1, [r0, #4]
 4065 0010 7047     		bx	lr
 4066              		.cfi_endproc
 4067              	.LFE193:
 4068              		.size	TIM_SelectOutputTrigger, .-TIM_SelectOutputTrigger
 4069 0012 00BF     		.section	.text.TIM_SelectSlaveMode,"ax",%progbits
 4070              		.align	2
 4071              		.p2align 4,,15
 4072              		.global	TIM_SelectSlaveMode
 4073              		.thumb
 4074              		.thumb_func
 4075              		.type	TIM_SelectSlaveMode, %function
 4076              	TIM_SelectSlaveMode:
 4077              	.LFB194:
 4078              		.loc 1 2964 0
 4079              		.cfi_startproc
 4080              		@ args = 0, pretend = 0, frame = 0
 4081              		@ frame_needed = 0, uses_anonymous_args = 0
 4082              		@ link register save eliminated.
 4083              	.LVL402:
 4084              		.loc 1 2970 0
 4085 0000 8268     		ldr	r2, [r0, #8]
 4086 0002 4FF6F873 		movw	r3, #65528
 4087 0006 1340     		ands	r3, r3, r2
 4088 0008 8360     		str	r3, [r0, #8]
 4089              		.loc 1 2973 0
 4090 000a 8368     		ldr	r3, [r0, #8]
 4091 000c 1943     		orrs	r1, r1, r3
 4092              	.LVL403:
 4093 000e 8160     		str	r1, [r0, #8]
 4094 0010 7047     		bx	lr
 4095              		.cfi_endproc
 4096              	.LFE194:
 4097              		.size	TIM_SelectSlaveMode, .-TIM_SelectSlaveMode
 4098 0012 00BF     		.section	.text.TIM_SelectMasterSlaveMode,"ax",%progbits
 4099              		.align	2
 4100              		.p2align 4,,15
 4101              		.global	TIM_SelectMasterSlaveMode
 4102              		.thumb
 4103              		.thumb_func
 4104              		.type	TIM_SelectMasterSlaveMode, %function
ARM GAS  /tmp/ccJZ9K5Y.s 			page 73


 4105              	TIM_SelectMasterSlaveMode:
 4106              	.LFB195:
 4107              		.loc 1 2987 0
 4108              		.cfi_startproc
 4109              		@ args = 0, pretend = 0, frame = 0
 4110              		@ frame_needed = 0, uses_anonymous_args = 0
 4111              		@ link register save eliminated.
 4112              	.LVL404:
 4113              		.loc 1 2993 0
 4114 0000 8268     		ldr	r2, [r0, #8]
 4115 0002 4FF67F73 		movw	r3, #65407
 4116 0006 1340     		ands	r3, r3, r2
 4117 0008 8360     		str	r3, [r0, #8]
 4118              		.loc 1 2996 0
 4119 000a 8368     		ldr	r3, [r0, #8]
 4120 000c 1943     		orrs	r1, r1, r3
 4121              	.LVL405:
 4122 000e 8160     		str	r1, [r0, #8]
 4123 0010 7047     		bx	lr
 4124              		.cfi_endproc
 4125              	.LFE195:
 4126              		.size	TIM_SelectMasterSlaveMode, .-TIM_SelectMasterSlaveMode
 4127 0012 00BF     		.section	.text.TIM_ETRConfig,"ax",%progbits
 4128              		.align	2
 4129              		.p2align 4,,15
 4130              		.global	TIM_ETRConfig
 4131              		.thumb
 4132              		.thumb_func
 4133              		.type	TIM_ETRConfig, %function
 4134              	TIM_ETRConfig:
 4135              	.LFB196:
 4136              		.loc 1 3018 0
 4137              		.cfi_startproc
 4138              		@ args = 0, pretend = 0, frame = 0
 4139              		@ frame_needed = 0, uses_anonymous_args = 0
 4140              		@ link register save eliminated.
 4141              	.LVL406:
 4142 0000 10B4     		push	{r4}
 4143              		.cfi_def_cfa_offset 4
 4144              		.cfi_offset 4, -4
 4145              		.loc 1 3027 0
 4146 0002 8468     		ldr	r4, [r0, #8]
 4147              	.LVL407:
 4148              		.loc 1 3030 0
 4149 0004 E4B2     		uxtb	r4, r4
 4150              	.LVL408:
 4151 0006 2143     		orrs	r1, r1, r4
 4152              	.LVL409:
 4153 0008 0A43     		orrs	r2, r2, r1
 4154              	.LVL410:
 4155              		.loc 1 3033 0
 4156 000a 42EA0323 		orr	r3, r2, r3, lsl #8
 4157              	.LVL411:
 4158              		.loc 1 3036 0
 4159 000e 99B2     		uxth	r1, r3
 4160 0010 8160     		str	r1, [r0, #8]
 4161              		.loc 1 3037 0
ARM GAS  /tmp/ccJZ9K5Y.s 			page 74


 4162 0012 5DF8044B 		ldr	r4, [sp], #4
 4163              		.cfi_restore 4
 4164              		.cfi_def_cfa_offset 0
 4165 0016 7047     		bx	lr
 4166              		.cfi_endproc
 4167              	.LFE196:
 4168              		.size	TIM_ETRConfig, .-TIM_ETRConfig
 4169              		.section	.text.TIM_EncoderInterfaceConfig,"ax",%progbits
 4170              		.align	2
 4171              		.p2align 4,,15
 4172              		.global	TIM_EncoderInterfaceConfig
 4173              		.thumb
 4174              		.thumb_func
 4175              		.type	TIM_EncoderInterfaceConfig, %function
 4176              	TIM_EncoderInterfaceConfig:
 4177              	.LFB197:
 4178              		.loc 1 3076 0
 4179              		.cfi_startproc
 4180              		@ args = 0, pretend = 0, frame = 0
 4181              		@ frame_needed = 0, uses_anonymous_args = 0
 4182              	.LVL412:
 4183 0000 F0B5     		push	{r4, r5, r6, r7, lr}
 4184              		.cfi_def_cfa_offset 20
 4185              		.cfi_offset 4, -20
 4186              		.cfi_offset 5, -16
 4187              		.cfi_offset 6, -12
 4188              		.cfi_offset 7, -8
 4189              		.cfi_offset 14, -4
 4190              		.loc 1 3088 0
 4191 0002 8768     		ldr	r7, [r0, #8]
 4192              	.LVL413:
 4193              		.loc 1 3091 0
 4194 0004 D0F818E0 		ldr	lr, [r0, #24]
 4195              	.LVL414:
 4196              		.loc 1 3094 0
 4197 0008 046A     		ldr	r4, [r0, #32]
 4198 000a A4B2     		uxth	r4, r4
 4199              	.LVL415:
 4200              		.loc 1 3101 0
 4201 000c 4FF6FC45 		movw	r5, #64764
 4202              		.loc 1 3105 0
 4203 0010 24F02204 		bic	r4, r4, #34
 4204              	.LVL416:
 4205 0014 2243     		orrs	r2, r2, r4
 4206              	.LVL417:
 4207              		.loc 1 3097 0
 4208 0016 4FF6F876 		movw	r6, #65528
 4209              		.loc 1 3101 0
 4210 001a 0EEA0505 		and	r5, lr, r5
 4211              		.loc 1 3097 0
 4212 001e 3E40     		ands	r6, r6, r7
 4213              	.LVL418:
 4214              		.loc 1 3106 0
 4215 0020 42EA0313 		orr	r3, r2, r3, lsl #4
 4216              	.LVL419:
 4217              		.loc 1 3112 0
 4218 0024 45F48075 		orr	r5, r5, #256
ARM GAS  /tmp/ccJZ9K5Y.s 			page 75


 4219              	.LVL420:
 4220              		.loc 1 3109 0
 4221 0028 3143     		orrs	r1, r1, r6
 4222              	.LVL421:
 4223              		.loc 1 3115 0
 4224 002a 9AB2     		uxth	r2, r3
 4225              	.LVL422:
 4226              		.loc 1 3112 0
 4227 002c 45F00105 		orr	r5, r5, #1
 4228              		.loc 1 3109 0
 4229 0030 8160     		str	r1, [r0, #8]
 4230              		.loc 1 3112 0
 4231 0032 8561     		str	r5, [r0, #24]
 4232              		.loc 1 3115 0
 4233 0034 0262     		str	r2, [r0, #32]
 4234 0036 F0BD     		pop	{r4, r5, r6, r7, pc}
 4235              		.cfi_endproc
 4236              	.LFE197:
 4237              		.size	TIM_EncoderInterfaceConfig, .-TIM_EncoderInterfaceConfig
 4238              		.section	.text.TIM_SelectHallSensor,"ax",%progbits
 4239              		.align	2
 4240              		.p2align 4,,15
 4241              		.global	TIM_SelectHallSensor
 4242              		.thumb
 4243              		.thumb_func
 4244              		.type	TIM_SelectHallSensor, %function
 4245              	TIM_SelectHallSensor:
 4246              	.LFB198:
 4247              		.loc 1 3127 0
 4248              		.cfi_startproc
 4249              		@ args = 0, pretend = 0, frame = 0
 4250              		@ frame_needed = 0, uses_anonymous_args = 0
 4251              		@ link register save eliminated.
 4252              	.LVL423:
 4253              		.loc 1 3132 0
 4254 0000 29B9     		cbnz	r1, .L220
 4255              		.loc 1 3140 0
 4256 0002 4268     		ldr	r2, [r0, #4]
 4257 0004 4FF67F73 		movw	r3, #65407
 4258 0008 1340     		ands	r3, r3, r2
 4259 000a 4360     		str	r3, [r0, #4]
 4260 000c 7047     		bx	lr
 4261              	.L220:
 4262              		.loc 1 3135 0
 4263 000e 4368     		ldr	r3, [r0, #4]
 4264 0010 43F08003 		orr	r3, r3, #128
 4265 0014 4360     		str	r3, [r0, #4]
 4266 0016 7047     		bx	lr
 4267              		.cfi_endproc
 4268              	.LFE198:
 4269              		.size	TIM_SelectHallSensor, .-TIM_SelectHallSensor
 4270              		.section	.text.TIM_RemapConfig,"ax",%progbits
 4271              		.align	2
 4272              		.p2align 4,,15
 4273              		.global	TIM_RemapConfig
 4274              		.thumb
 4275              		.thumb_func
ARM GAS  /tmp/ccJZ9K5Y.s 			page 76


 4276              		.type	TIM_RemapConfig, %function
 4277              	TIM_RemapConfig:
 4278              	.LFB199:
 4279              		.loc 1 3178 0
 4280              		.cfi_startproc
 4281              		@ args = 0, pretend = 0, frame = 0
 4282              		@ frame_needed = 0, uses_anonymous_args = 0
 4283              		@ link register save eliminated.
 4284              	.LVL424:
 4285              		.loc 1 3184 0
 4286 0000 0165     		str	r1, [r0, #80]
 4287 0002 7047     		bx	lr
 4288              		.cfi_endproc
 4289              	.LFE199:
 4290              		.size	TIM_RemapConfig, .-TIM_RemapConfig
 4291              		.text
 4292              	.Letext0:
 4293              		.file 2 "/usr/arm-none-eabi/include/machine/_default_types.h"
 4294              		.file 3 "/usr/arm-none-eabi/include/sys/_stdint.h"
 4295              		.file 4 "ChibiOS_3.0.2/os/ext/CMSIS/ST/stm32f407xx.h"
 4296              		.file 5 "ChibiOS_3.0.2/os/ext/CMSIS/ST/stm32f4xx.h"
 4297              		.file 6 "ChibiOS_3.0.2/ext/stdperiph_stm32f4/inc/stm32f4xx_tim.h"
 4298              		.file 7 "ChibiOS_3.0.2/ext/stdperiph_stm32f4/inc/stm32f4xx_rcc.h"
 4299              		.file 8 "ChibiOS_3.0.2/os/ext/CMSIS/include/core_cm4.h"