ARM GAS  /tmp/ccJZ9K5Y.s 			page 1


   1              		.syntax unified
   2              		.cpu cortex-m4
   3              		.eabi_attribute 27, 1
   4              		.eabi_attribute 28, 1
   5              		.fpu fpv4-sp-d16
   6              		.eabi_attribute 20, 1
   7              		.eabi_attribute 21, 1
   8              		.eabi_attribute 23, 3
   9              		.eabi_attribute 24, 1
  10              		.eabi_attribute 25, 1
  11              		.eabi_attribute 26, 1
  12              		.eabi_attribute 30, 2
  13              		.eabi_attribute 34, 1
  14              		.eabi_attribute 18, 4
  15              		.thumb
  16              		.file	"stm32f4xx_tim.c"
  17              		.text
  18              	.Ltext0:
  19              		.cfi_sections	.debug_frame
  20              		.section	.text.TIM_DeInit,"ax",%progbits
  21              		.align	2
  22              		.p2align 4,,15
  23              		.global	TIM_DeInit
  24              		.thumb
  25              		.thumb_func
  26              		.type	TIM_DeInit, %function
  27              	TIM_DeInit:
  28              	.LFB112:
  29              		.file 1 "ChibiOS_3.0.2/ext/stdperiph_stm32f4/src/stm32f4xx_tim.c"
  30              		.loc 1 205 0
  31              		.cfi_startproc
  32              		@ args = 0, pretend = 0, frame = 0
  33              		@ frame_needed = 0, uses_anonymous_args = 0
  34              	.LVL0:
  35 0000 08B5     		push	{r3, lr}
  36              		.cfi_def_cfa_offset 8
  37              		.cfi_offset 3, -8
  38              		.cfi_offset 14, -4
  39              		.loc 1 209 0
  40 0002 604B     		ldr	r3, .L32
  41 0004 9842     		cmp	r0, r3
  42 0006 35D0     		beq	.L18
  43              		.loc 1 214 0
  44 0008 B0F1804F 		cmp	r0, #1073741824
  45 000c 3CD0     		beq	.L19
  46              		.loc 1 219 0
  47 000e 5E4B     		ldr	r3, .L32+4
  48 0010 9842     		cmp	r0, r3
  49 0012 43D0     		beq	.L20
  50              		.loc 1 224 0
  51 0014 5D4B     		ldr	r3, .L32+8
  52 0016 9842     		cmp	r0, r3
  53 0018 4AD0     		beq	.L21
  54              		.loc 1 229 0
  55 001a 5D4B     		ldr	r3, .L32+12
  56 001c 9842     		cmp	r0, r3
  57 001e 51D0     		beq	.L22
ARM GAS  /tmp/ccJZ9K5Y.s 			page 2


  58              		.loc 1 234 0
  59 0020 5C4B     		ldr	r3, .L32+16
  60 0022 9842     		cmp	r0, r3
  61 0024 58D0     		beq	.L23
  62              		.loc 1 239 0
  63 0026 5C4B     		ldr	r3, .L32+20
  64 0028 9842     		cmp	r0, r3
  65 002a 5FD0     		beq	.L24
  66              		.loc 1 244 0
  67 002c 5B4B     		ldr	r3, .L32+24
  68 002e 9842     		cmp	r0, r3
  69 0030 66D0     		beq	.L25
  70              		.loc 1 249 0
  71 0032 5B4B     		ldr	r3, .L32+28
  72 0034 9842     		cmp	r0, r3
  73 0036 6DD0     		beq	.L26
  74              		.loc 1 254 0
  75 0038 5A4B     		ldr	r3, .L32+32
  76 003a 9842     		cmp	r0, r3
  77 003c 76D0     		beq	.L27
  78              		.loc 1 259 0
  79 003e 5A4B     		ldr	r3, .L32+36
  80 0040 9842     		cmp	r0, r3
  81 0042 7FD0     		beq	.L28
  82              		.loc 1 264 0
  83 0044 594B     		ldr	r3, .L32+40
  84 0046 9842     		cmp	r0, r3
  85 0048 00F08880 		beq	.L29
  86              		.loc 1 269 0
  87 004c 584B     		ldr	r3, .L32+44
  88 004e 9842     		cmp	r0, r3
  89 0050 00F08E80 		beq	.L30
  90              		.loc 1 276 0
  91 0054 574B     		ldr	r3, .L32+48
  92 0056 9842     		cmp	r0, r3
  93 0058 00D0     		beq	.L31
  94 005a 08BD     		pop	{r3, pc}
  95              	.L31:
  96              		.loc 1 278 0
  97 005c 4FF48070 		mov	r0, #256
  98              	.LVL1:
  99 0060 0121     		movs	r1, #1
 100 0062 FFF7FEFF 		bl	RCC_APB1PeriphResetCmd
 101              	.LVL2:
 102              		.loc 1 279 0
 103 0066 4FF48070 		mov	r0, #256
 104 006a 0021     		movs	r1, #0
 105              		.loc 1 282 0
 106 006c BDE80840 		pop	{r3, lr}
 107              		.cfi_remember_state
 108              		.cfi_restore 14
 109              		.cfi_restore 3
 110              		.cfi_def_cfa_offset 0
 111              		.loc 1 279 0
 112 0070 FFF7FEBF 		b	RCC_APB1PeriphResetCmd
 113              	.LVL3:
 114              	.L18:
ARM GAS  /tmp/ccJZ9K5Y.s 			page 3


 115              		.cfi_restore_state
 116              		.loc 1 211 0
 117 0074 0120     		movs	r0, #1
 118              	.LVL4:
 119 0076 0146     		mov	r1, r0
 120 0078 FFF7FEFF 		bl	RCC_APB2PeriphResetCmd
 121              	.LVL5:
 122              		.loc 1 212 0
 123 007c 0120     		movs	r0, #1
 124 007e 0021     		movs	r1, #0
 125              		.loc 1 282 0
 126 0080 BDE80840 		pop	{r3, lr}
 127              		.cfi_remember_state
 128              		.cfi_restore 14
 129              		.cfi_restore 3
 130              		.cfi_def_cfa_offset 0
 131              		.loc 1 212 0
 132 0084 FFF7FEBF 		b	RCC_APB2PeriphResetCmd
 133              	.LVL6:
 134              	.L19:
 135              		.cfi_restore_state
 136              		.loc 1 216 0
 137 0088 0120     		movs	r0, #1
 138              	.LVL7:
 139 008a 0146     		mov	r1, r0
 140 008c FFF7FEFF 		bl	RCC_APB1PeriphResetCmd
 141              	.LVL8:
 142              		.loc 1 217 0
 143 0090 0120     		movs	r0, #1
 144 0092 0021     		movs	r1, #0
 145              		.loc 1 282 0
 146 0094 BDE80840 		pop	{r3, lr}
 147              		.cfi_remember_state
 148              		.cfi_restore 14
 149              		.cfi_restore 3
 150              		.cfi_def_cfa_offset 0
 151              		.loc 1 217 0
 152 0098 FFF7FEBF 		b	RCC_APB1PeriphResetCmd
 153              	.LVL9:
 154              	.L20:
 155              		.cfi_restore_state
 156              		.loc 1 221 0
 157 009c 0220     		movs	r0, #2
 158              	.LVL10:
 159 009e 0121     		movs	r1, #1
 160 00a0 FFF7FEFF 		bl	RCC_APB1PeriphResetCmd
 161              	.LVL11:
 162              		.loc 1 222 0
 163 00a4 0220     		movs	r0, #2
 164 00a6 0021     		movs	r1, #0
 165              		.loc 1 282 0
 166 00a8 BDE80840 		pop	{r3, lr}
 167              		.cfi_remember_state
 168              		.cfi_restore 14
 169              		.cfi_restore 3
 170              		.cfi_def_cfa_offset 0
 171              		.loc 1 222 0
ARM GAS  /tmp/ccJZ9K5Y.s 			page 4


 172 00ac FFF7FEBF 		b	RCC_APB1PeriphResetCmd
 173              	.LVL12:
 174              	.L21:
 175              		.cfi_restore_state
 176              		.loc 1 226 0
 177 00b0 0420     		movs	r0, #4
 178              	.LVL13:
 179 00b2 0121     		movs	r1, #1
 180 00b4 FFF7FEFF 		bl	RCC_APB1PeriphResetCmd
 181              	.LVL14:
 182              		.loc 1 227 0
 183 00b8 0420     		movs	r0, #4
 184 00ba 0021     		movs	r1, #0
 185              		.loc 1 282 0
 186 00bc BDE80840 		pop	{r3, lr}
 187              		.cfi_remember_state
 188              		.cfi_restore 14
 189              		.cfi_restore 3
 190              		.cfi_def_cfa_offset 0
 191              		.loc 1 227 0
 192 00c0 FFF7FEBF 		b	RCC_APB1PeriphResetCmd
 193              	.LVL15:
 194              	.L22:
 195              		.cfi_restore_state
 196              		.loc 1 231 0
 197 00c4 0820     		movs	r0, #8
 198              	.LVL16:
 199 00c6 0121     		movs	r1, #1
 200 00c8 FFF7FEFF 		bl	RCC_APB1PeriphResetCmd
 201              	.LVL17:
 202              		.loc 1 232 0
 203 00cc 0820     		movs	r0, #8
 204 00ce 0021     		movs	r1, #0
 205              		.loc 1 282 0
 206 00d0 BDE80840 		pop	{r3, lr}
 207              		.cfi_remember_state
 208              		.cfi_restore 14
 209              		.cfi_restore 3
 210              		.cfi_def_cfa_offset 0
 211              		.loc 1 232 0
 212 00d4 FFF7FEBF 		b	RCC_APB1PeriphResetCmd
 213              	.LVL18:
 214              	.L23:
 215              		.cfi_restore_state
 216              		.loc 1 236 0
 217 00d8 1020     		movs	r0, #16
 218              	.LVL19:
 219 00da 0121     		movs	r1, #1
 220 00dc FFF7FEFF 		bl	RCC_APB1PeriphResetCmd
 221              	.LVL20:
 222              		.loc 1 237 0
 223 00e0 1020     		movs	r0, #16
 224 00e2 0021     		movs	r1, #0
 225              		.loc 1 282 0
 226 00e4 BDE80840 		pop	{r3, lr}
 227              		.cfi_remember_state
 228              		.cfi_restore 14
ARM GAS  /tmp/ccJZ9K5Y.s 			page 5


 229              		.cfi_restore 3
 230              		.cfi_def_cfa_offset 0
 231              		.loc 1 237 0
 232 00e8 FFF7FEBF 		b	RCC_APB1PeriphResetCmd
 233              	.LVL21:
 234              	.L24:
 235              		.cfi_restore_state
 236              		.loc 1 241 0
 237 00ec 2020     		movs	r0, #32
 238              	.LVL22:
 239 00ee 0121     		movs	r1, #1
 240 00f0 FFF7FEFF 		bl	RCC_APB1PeriphResetCmd
 241              	.LVL23:
 242              		.loc 1 242 0
 243 00f4 2020     		movs	r0, #32
 244 00f6 0021     		movs	r1, #0
 245              		.loc 1 282 0
 246 00f8 BDE80840 		pop	{r3, lr}
 247              		.cfi_remember_state
 248              		.cfi_restore 14
 249              		.cfi_restore 3
 250              		.cfi_def_cfa_offset 0
 251              		.loc 1 242 0
 252 00fc FFF7FEBF 		b	RCC_APB1PeriphResetCmd
 253              	.LVL24:
 254              	.L25:
 255              		.cfi_restore_state
 256              		.loc 1 246 0
 257 0100 0220     		movs	r0, #2
 258              	.LVL25:
 259 0102 0121     		movs	r1, #1
 260 0104 FFF7FEFF 		bl	RCC_APB2PeriphResetCmd
 261              	.LVL26:
 262              		.loc 1 247 0
 263 0108 0220     		movs	r0, #2
 264 010a 0021     		movs	r1, #0
 265              		.loc 1 282 0
 266 010c BDE80840 		pop	{r3, lr}
 267              		.cfi_remember_state
 268              		.cfi_restore 14
 269              		.cfi_restore 3
 270              		.cfi_def_cfa_offset 0
 271              		.loc 1 247 0
 272 0110 FFF7FEBF 		b	RCC_APB2PeriphResetCmd
 273              	.LVL27:
 274              	.L26:
 275              		.cfi_restore_state
 276              		.loc 1 251 0
 277 0114 4FF48030 		mov	r0, #65536
 278              	.LVL28:
 279 0118 0121     		movs	r1, #1
 280 011a FFF7FEFF 		bl	RCC_APB2PeriphResetCmd
 281              	.LVL29:
 282              		.loc 1 252 0
 283 011e 4FF48030 		mov	r0, #65536
 284 0122 0021     		movs	r1, #0
 285              		.loc 1 282 0
ARM GAS  /tmp/ccJZ9K5Y.s 			page 6


 286 0124 BDE80840 		pop	{r3, lr}
 287              		.cfi_remember_state
 288              		.cfi_restore 14
 289              		.cfi_restore 3
 290              		.cfi_def_cfa_offset 0
 291              		.loc 1 252 0
 292 0128 FFF7FEBF 		b	RCC_APB2PeriphResetCmd
 293              	.LVL30:
 294              	.L27:
 295              		.cfi_restore_state
 296              		.loc 1 256 0
 297 012c 4FF40030 		mov	r0, #131072
 298              	.LVL31:
 299 0130 0121     		movs	r1, #1
 300 0132 FFF7FEFF 		bl	RCC_APB2PeriphResetCmd
 301              	.LVL32:
 302              		.loc 1 257 0
 303 0136 4FF40030 		mov	r0, #131072
 304 013a 0021     		movs	r1, #0
 305              		.loc 1 282 0
 306 013c BDE80840 		pop	{r3, lr}
 307              		.cfi_remember_state
 308              		.cfi_restore 14
 309              		.cfi_restore 3
 310              		.cfi_def_cfa_offset 0
 311              		.loc 1 257 0
 312 0140 FFF7FEBF 		b	RCC_APB2PeriphResetCmd
 313              	.LVL33:
 314              	.L28:
 315              		.cfi_restore_state
 316              		.loc 1 261 0
 317 0144 4FF48020 		mov	r0, #262144
 318              	.LVL34:
 319 0148 0121     		movs	r1, #1
 320 014a FFF7FEFF 		bl	RCC_APB2PeriphResetCmd
 321              	.LVL35:
 322              		.loc 1 262 0
 323 014e 4FF48020 		mov	r0, #262144
 324 0152 0021     		movs	r1, #0
 325              		.loc 1 282 0
 326 0154 BDE80840 		pop	{r3, lr}
 327              		.cfi_remember_state
 328              		.cfi_restore 14
 329              		.cfi_restore 3
 330              		.cfi_def_cfa_offset 0
 331              		.loc 1 262 0
 332 0158 FFF7FEBF 		b	RCC_APB2PeriphResetCmd
 333              	.LVL36:
 334              	.L29:
 335              		.cfi_restore_state
 336              		.loc 1 266 0
 337 015c 4020     		movs	r0, #64
 338              	.LVL37:
 339 015e 0121     		movs	r1, #1
 340 0160 FFF7FEFF 		bl	RCC_APB1PeriphResetCmd
 341              	.LVL38:
 342              		.loc 1 267 0
ARM GAS  /tmp/ccJZ9K5Y.s 			page 7


 343 0164 4020     		movs	r0, #64
 344 0166 0021     		movs	r1, #0
 345              		.loc 1 282 0
 346 0168 BDE80840 		pop	{r3, lr}
 347              		.cfi_remember_state
 348              		.cfi_restore 14
 349              		.cfi_restore 3
 350              		.cfi_def_cfa_offset 0
 351              		.loc 1 267 0
 352 016c FFF7FEBF 		b	RCC_APB1PeriphResetCmd
 353              	.LVL39:
 354              	.L30:
 355              		.cfi_restore_state
 356              		.loc 1 271 0
 357 0170 8020     		movs	r0, #128
 358              	.LVL40:
 359 0172 0121     		movs	r1, #1
 360 0174 FFF7FEFF 		bl	RCC_APB1PeriphResetCmd
 361              	.LVL41:
 362              		.loc 1 272 0
 363 0178 8020     		movs	r0, #128
 364 017a 0021     		movs	r1, #0
 365              		.loc 1 282 0
 366 017c BDE80840 		pop	{r3, lr}
 367              		.cfi_restore 14
 368              		.cfi_restore 3
 369              		.cfi_def_cfa_offset 0
 370              		.loc 1 272 0
 371 0180 FFF7FEBF 		b	RCC_APB1PeriphResetCmd
 372              	.LVL42:
 373              	.L33:
 374              		.align	2
 375              	.L32:
 376 0184 00000140 		.word	1073807360
 377 0188 00040040 		.word	1073742848
 378 018c 00080040 		.word	1073743872
 379 0190 000C0040 		.word	1073744896
 380 0194 00100040 		.word	1073745920
 381 0198 00140040 		.word	1073746944
 382 019c 00040140 		.word	1073808384
 383 01a0 00400140 		.word	1073823744
 384 01a4 00440140 		.word	1073824768
 385 01a8 00480140 		.word	1073825792
 386 01ac 00180040 		.word	1073747968
 387 01b0 001C0040 		.word	1073748992
 388 01b4 00200040 		.word	1073750016
 389              		.cfi_endproc
 390              	.LFE112:
 391              		.size	TIM_DeInit, .-TIM_DeInit
 392              		.section	.text.TIM_TimeBaseInit,"ax",%progbits
 393              		.align	2
 394              		.p2align 4,,15
 395              		.global	TIM_TimeBaseInit
 396              		.thumb
 397              		.thumb_func
 398              		.type	TIM_TimeBaseInit, %function
 399              	TIM_TimeBaseInit:
ARM GAS  /tmp/ccJZ9K5Y.s 			page 8


 400              	.LFB113:
 401              		.loc 1 293 0
 402              		.cfi_startproc
 403              		@ args = 0, pretend = 0, frame = 0
 404              		@ frame_needed = 0, uses_anonymous_args = 0
 405              		@ link register save eliminated.
 406              	.LVL43:
 407              		.loc 1 303 0
 408 0000 224A     		ldr	r2, .L48
 409              		.loc 1 301 0
 410 0002 0368     		ldr	r3, [r0]
 411              		.loc 1 303 0
 412 0004 9042     		cmp	r0, r2
 413              		.loc 1 301 0
 414 0006 9BB2     		uxth	r3, r3
 415              	.LVL44:
 416              		.loc 1 303 0
 417 0008 12D0     		beq	.L35
 418              		.loc 1 303 0 is_stmt 0 discriminator 1
 419 000a 02F58062 		add	r2, r2, #1024
 420 000e 9042     		cmp	r0, r2
 421 0010 0ED0     		beq	.L35
 422              		.loc 1 303 0 discriminator 2
 423 0012 B0F1804F 		cmp	r0, #1073741824
 424 0016 0BD0     		beq	.L35
 425              		.loc 1 304 0 is_stmt 1
 426 0018 A2F58032 		sub	r2, r2, #65536
 427 001c 9042     		cmp	r0, r2
 428 001e 07D0     		beq	.L35
 429              		.loc 1 304 0 is_stmt 0 discriminator 1
 430 0020 02F58062 		add	r2, r2, #1024
 431 0024 9042     		cmp	r0, r2
 432 0026 03D0     		beq	.L35
 433              		.loc 1 305 0 is_stmt 1
 434 0028 02F58062 		add	r2, r2, #1024
 435 002c 9042     		cmp	r0, r2
 436 002e 03D1     		bne	.L36
 437              	.L35:
 438              		.loc 1 309 0
 439 0030 4A88     		ldrh	r2, [r1, #2]
 440              		.loc 1 308 0
 441 0032 23F07003 		bic	r3, r3, #112
 442              	.LVL45:
 443              		.loc 1 309 0
 444 0036 1343     		orrs	r3, r3, r2
 445              	.LVL46:
 446              	.L36:
 447              		.loc 1 312 0
 448 0038 154A     		ldr	r2, .L48+4
 449 003a 9042     		cmp	r0, r2
 450 003c 1ED0     		beq	.L37
 451              		.loc 1 312 0 is_stmt 0 discriminator 1
 452 003e 02F58062 		add	r2, r2, #1024
 453 0042 9042     		cmp	r0, r2
 454 0044 1AD0     		beq	.L37
 455              		.loc 1 316 0 is_stmt 1
 456 0046 0A89     		ldrh	r2, [r1, #8]
ARM GAS  /tmp/ccJZ9K5Y.s 			page 9


 457              		.loc 1 293 0
 458 0048 70B4     		push	{r4, r5, r6}
 459              		.cfi_def_cfa_offset 12
 460              		.cfi_offset 4, -12
 461              		.cfi_offset 5, -8
 462              		.cfi_offset 6, -4
 463              		.loc 1 315 0
 464 004a 23F44073 		bic	r3, r3, #768
 465              	.LVL47:
 466              		.loc 1 327 0
 467 004e 0F4C     		ldr	r4, .L48
 468              		.loc 1 322 0
 469 0050 4E68     		ldr	r6, [r1, #4]
 470              		.loc 1 325 0
 471 0052 0D88     		ldrh	r5, [r1]
 472              		.loc 1 315 0
 473 0054 9BB2     		uxth	r3, r3
 474              	.LVL48:
 475              		.loc 1 319 0
 476 0056 1343     		orrs	r3, r3, r2
 477              	.LVL49:
 478              		.loc 1 327 0
 479 0058 A042     		cmp	r0, r4
 480              		.loc 1 319 0
 481 005a 0360     		str	r3, [r0]
 482              		.loc 1 322 0
 483 005c C662     		str	r6, [r0, #44]
 484              		.loc 1 325 0
 485 005e 8562     		str	r5, [r0, #40]
 486              		.loc 1 327 0
 487 0060 06D0     		beq	.L41
 488              		.loc 1 327 0 is_stmt 0 discriminator 1
 489 0062 0C4B     		ldr	r3, .L48+8
 490 0064 9842     		cmp	r0, r3
 491 0066 03D0     		beq	.L41
 492              		.loc 1 335 0 is_stmt 1
 493 0068 0123     		movs	r3, #1
 494 006a 4361     		str	r3, [r0, #20]
 495              		.loc 1 336 0
 496 006c 70BC     		pop	{r4, r5, r6}
 497              		.cfi_remember_state
 498              		.cfi_restore 6
 499              		.cfi_restore 5
 500              		.cfi_restore 4
 501              		.cfi_def_cfa_offset 0
 502 006e 7047     		bx	lr
 503              	.L41:
 504              		.cfi_restore_state
 505              		.loc 1 330 0
 506 0070 8B7A     		ldrb	r3, [r1, #10]	@ zero_extendqisi2
 507 0072 0363     		str	r3, [r0, #48]
 508              		.loc 1 335 0
 509 0074 0123     		movs	r3, #1
 510 0076 4361     		str	r3, [r0, #20]
 511              		.loc 1 336 0
 512 0078 70BC     		pop	{r4, r5, r6}
 513              		.cfi_restore 4
ARM GAS  /tmp/ccJZ9K5Y.s 			page 10


 514              		.cfi_restore 5
 515              		.cfi_restore 6
 516              		.cfi_def_cfa_offset 0
 517 007a 7047     		bx	lr
 518              	.LVL50:
 519              	.L37:
 520              		.loc 1 319 0
 521 007c 0360     		str	r3, [r0]
 522              		.loc 1 322 0
 523 007e 4A68     		ldr	r2, [r1, #4]
 524              		.loc 1 325 0
 525 0080 0B88     		ldrh	r3, [r1]
 526              	.LVL51:
 527              		.loc 1 322 0
 528 0082 C262     		str	r2, [r0, #44]
 529              		.loc 1 325 0
 530 0084 8362     		str	r3, [r0, #40]
 531              		.loc 1 335 0
 532 0086 0123     		movs	r3, #1
 533 0088 4361     		str	r3, [r0, #20]
 534 008a 7047     		bx	lr
 535              	.L49:
 536              		.align	2
 537              	.L48:
 538 008c 00000140 		.word	1073807360
 539 0090 00100040 		.word	1073745920
 540 0094 00040140 		.word	1073808384
 541              		.cfi_endproc
 542              	.LFE113:
 543              		.size	TIM_TimeBaseInit, .-TIM_TimeBaseInit
 544              		.section	.text.TIM_TimeBaseStructInit,"ax",%progbits
 545              		.align	2
 546              		.p2align 4,,15
 547              		.global	TIM_TimeBaseStructInit
 548              		.thumb
 549              		.thumb_func
 550              		.type	TIM_TimeBaseStructInit, %function
 551              	TIM_TimeBaseStructInit:
 552              	.LFB114:
 553              		.loc 1 345 0
 554              		.cfi_startproc
 555              		@ args = 0, pretend = 0, frame = 0
 556              		@ frame_needed = 0, uses_anonymous_args = 0
 557              		@ link register save eliminated.
 558              	.LVL52:
 559              		.loc 1 348 0
 560 0000 0023     		movs	r3, #0
 561              		.loc 1 347 0
 562 0002 4FF0FF32 		mov	r2, #-1
 563 0006 4260     		str	r2, [r0, #4]
 564              		.loc 1 348 0
 565 0008 0380     		strh	r3, [r0]	@ movhi
 566              		.loc 1 349 0
 567 000a 0381     		strh	r3, [r0, #8]	@ movhi
 568              		.loc 1 350 0
 569 000c 4380     		strh	r3, [r0, #2]	@ movhi
 570              		.loc 1 351 0
ARM GAS  /tmp/ccJZ9K5Y.s 			page 11


 571 000e 8372     		strb	r3, [r0, #10]
 572 0010 7047     		bx	lr
 573              		.cfi_endproc
 574              	.LFE114:
 575              		.size	TIM_TimeBaseStructInit, .-TIM_TimeBaseStructInit
 576 0012 00BF     		.section	.text.TIM_PrescalerConfig,"ax",%progbits
 577              		.align	2
 578              		.p2align 4,,15
 579              		.global	TIM_PrescalerConfig
 580              		.thumb
 581              		.thumb_func
 582              		.type	TIM_PrescalerConfig, %function
 583              	TIM_PrescalerConfig:
 584              	.LFB115:
 585              		.loc 1 365 0
 586              		.cfi_startproc
 587              		@ args = 0, pretend = 0, frame = 0
 588              		@ frame_needed = 0, uses_anonymous_args = 0
 589              		@ link register save eliminated.
 590              	.LVL53:
 591              		.loc 1 370 0
 592 0000 8162     		str	r1, [r0, #40]
 593              		.loc 1 372 0
 594 0002 4261     		str	r2, [r0, #20]
 595 0004 7047     		bx	lr
 596              		.cfi_endproc
 597              	.LFE115:
 598              		.size	TIM_PrescalerConfig, .-TIM_PrescalerConfig
 599 0006 00BF     		.section	.text.TIM_CounterModeConfig,"ax",%progbits
 600              		.align	2
 601              		.p2align 4,,15
 602              		.global	TIM_CounterModeConfig
 603              		.thumb
 604              		.thumb_func
 605              		.type	TIM_CounterModeConfig, %function
 606              	TIM_CounterModeConfig:
 607              	.LFB116:
 608              		.loc 1 388 0
 609              		.cfi_startproc
 610              		@ args = 0, pretend = 0, frame = 0
 611              		@ frame_needed = 0, uses_anonymous_args = 0
 612              		@ link register save eliminated.
 613              	.LVL54:
 614              		.loc 1 395 0
 615 0000 0268     		ldr	r2, [r0]
 616              	.LVL55:
 617              		.loc 1 398 0
 618 0002 4FF68F73 		movw	r3, #65423
 619 0006 1340     		ands	r3, r3, r2
 620              	.LVL56:
 621              		.loc 1 404 0
 622 0008 1943     		orrs	r1, r1, r3
 623              	.LVL57:
 624 000a 0160     		str	r1, [r0]
 625 000c 7047     		bx	lr
 626              		.cfi_endproc
 627              	.LFE116:
ARM GAS  /tmp/ccJZ9K5Y.s 			page 12


 628              		.size	TIM_CounterModeConfig, .-TIM_CounterModeConfig
 629 000e 00BF     		.section	.text.TIM_SetCounter,"ax",%progbits
 630              		.align	2
 631              		.p2align 4,,15
 632              		.global	TIM_SetCounter
 633              		.thumb
 634              		.thumb_func
 635              		.type	TIM_SetCounter, %function
 636              	TIM_SetCounter:
 637              	.LFB117:
 638              		.loc 1 414 0
 639              		.cfi_startproc
 640              		@ args = 0, pretend = 0, frame = 0
 641              		@ frame_needed = 0, uses_anonymous_args = 0
 642              		@ link register save eliminated.
 643              	.LVL58:
 644              		.loc 1 419 0
 645 0000 4162     		str	r1, [r0, #36]
 646 0002 7047     		bx	lr
 647              		.cfi_endproc
 648              	.LFE117:
 649              		.size	TIM_SetCounter, .-TIM_SetCounter
 650              		.section	.text.TIM_SetAutoreload,"ax",%progbits
 651              		.align	2
 652              		.p2align 4,,15
 653              		.global	TIM_SetAutoreload
 654              		.thumb
 655              		.thumb_func
 656              		.type	TIM_SetAutoreload, %function
 657              	TIM_SetAutoreload:
 658              	.LFB118:
 659              		.loc 1 429 0
 660              		.cfi_startproc
 661              		@ args = 0, pretend = 0, frame = 0
 662              		@ frame_needed = 0, uses_anonymous_args = 0
 663              		@ link register save eliminated.
 664              	.LVL59:
 665              		.loc 1 434 0
 666 0000 C162     		str	r1, [r0, #44]
 667 0002 7047     		bx	lr
 668              		.cfi_endproc
 669              	.LFE118:
 670              		.size	TIM_SetAutoreload, .-TIM_SetAutoreload
 671              		.section	.text.TIM_GetCounter,"ax",%progbits
 672              		.align	2
 673              		.p2align 4,,15
 674              		.global	TIM_GetCounter
 675              		.thumb
 676              		.thumb_func
 677              		.type	TIM_GetCounter, %function
 678              	TIM_GetCounter:
 679              	.LFB119:
 680              		.loc 1 443 0
 681              		.cfi_startproc
 682              		@ args = 0, pretend = 0, frame = 0
 683              		@ frame_needed = 0, uses_anonymous_args = 0
 684              		@ link register save eliminated.
ARM GAS  /tmp/ccJZ9K5Y.s 			page 13


 685              	.LVL60:
 686              		.loc 1 448 0
 687 0000 406A     		ldr	r0, [r0, #36]
 688              	.LVL61:
 689              		.loc 1 449 0
 690 0002 7047     		bx	lr
 691              		.cfi_endproc
 692              	.LFE119:
 693              		.size	TIM_GetCounter, .-TIM_GetCounter
 694              		.section	.text.TIM_GetPrescaler,"ax",%progbits
 695              		.align	2
 696              		.p2align 4,,15
 697              		.global	TIM_GetPrescaler
 698              		.thumb
 699              		.thumb_func
 700              		.type	TIM_GetPrescaler, %function
 701              	TIM_GetPrescaler:
 702              	.LFB120:
 703              		.loc 1 457 0
 704              		.cfi_startproc
 705              		@ args = 0, pretend = 0, frame = 0
 706              		@ frame_needed = 0, uses_anonymous_args = 0
 707              		@ link register save eliminated.
 708              	.LVL62:
 709              		.loc 1 462 0
 710 0000 806A     		ldr	r0, [r0, #40]
 711              	.LVL63:
 712              		.loc 1 463 0
 713 0002 80B2     		uxth	r0, r0
 714 0004 7047     		bx	lr
 715              		.cfi_endproc
 716              	.LFE120:
 717              		.size	TIM_GetPrescaler, .-TIM_GetPrescaler
 718 0006 00BF     		.section	.text.TIM_UpdateDisableConfig,"ax",%progbits
 719              		.align	2
 720              		.p2align 4,,15
 721              		.global	TIM_UpdateDisableConfig
 722              		.thumb
 723              		.thumb_func
 724              		.type	TIM_UpdateDisableConfig, %function
 725              	TIM_UpdateDisableConfig:
 726              	.LFB121:
 727              		.loc 1 473 0
 728              		.cfi_startproc
 729              		@ args = 0, pretend = 0, frame = 0
 730              		@ frame_needed = 0, uses_anonymous_args = 0
 731              		@ link register save eliminated.
 732              	.LVL64:
 733              		.loc 1 478 0
 734 0000 29B9     		cbnz	r1, .L60
 735              		.loc 1 486 0
 736 0002 0268     		ldr	r2, [r0]
 737 0004 4FF6FD73 		movw	r3, #65533
 738 0008 1340     		ands	r3, r3, r2
 739 000a 0360     		str	r3, [r0]
 740 000c 7047     		bx	lr
 741              	.L60:
ARM GAS  /tmp/ccJZ9K5Y.s 			page 14


 742              		.loc 1 481 0
 743 000e 0368     		ldr	r3, [r0]
 744 0010 43F00203 		orr	r3, r3, #2
 745 0014 0360     		str	r3, [r0]
 746 0016 7047     		bx	lr
 747              		.cfi_endproc
 748              	.LFE121:
 749              		.size	TIM_UpdateDisableConfig, .-TIM_UpdateDisableConfig
 750              		.section	.text.TIM_UpdateRequestConfig,"ax",%progbits
 751              		.align	2
 752              		.p2align 4,,15
 753              		.global	TIM_UpdateRequestConfig
 754              		.thumb
 755              		.thumb_func
 756              		.type	TIM_UpdateRequestConfig, %function
 757              	TIM_UpdateRequestConfig:
 758              	.LFB122:
 759              		.loc 1 502 0
 760              		.cfi_startproc
 761              		@ args = 0, pretend = 0, frame = 0
 762              		@ frame_needed = 0, uses_anonymous_args = 0
 763              		@ link register save eliminated.
 764              	.LVL65:
 765              		.loc 1 507 0
 766 0000 29B9     		cbnz	r1, .L64
 767              		.loc 1 515 0
 768 0002 0268     		ldr	r2, [r0]
 769 0004 4FF6FB73 		movw	r3, #65531
 770 0008 1340     		ands	r3, r3, r2
 771 000a 0360     		str	r3, [r0]
 772 000c 7047     		bx	lr
 773              	.L64:
 774              		.loc 1 510 0
 775 000e 0368     		ldr	r3, [r0]
 776 0010 43F00403 		orr	r3, r3, #4
 777 0014 0360     		str	r3, [r0]
 778 0016 7047     		bx	lr
 779              		.cfi_endproc
 780              	.LFE122:
 781              		.size	TIM_UpdateRequestConfig, .-TIM_UpdateRequestConfig
 782              		.section	.text.TIM_ARRPreloadConfig,"ax",%progbits
 783              		.align	2
 784              		.p2align 4,,15
 785              		.global	TIM_ARRPreloadConfig
 786              		.thumb
 787              		.thumb_func
 788              		.type	TIM_ARRPreloadConfig, %function
 789              	TIM_ARRPreloadConfig:
 790              	.LFB123:
 791              		.loc 1 527 0
 792              		.cfi_startproc
 793              		@ args = 0, pretend = 0, frame = 0
 794              		@ frame_needed = 0, uses_anonymous_args = 0
 795              		@ link register save eliminated.
 796              	.LVL66:
 797              		.loc 1 532 0
 798 0000 29B9     		cbnz	r1, .L68
ARM GAS  /tmp/ccJZ9K5Y.s 			page 15


 799              		.loc 1 540 0
 800 0002 0268     		ldr	r2, [r0]
 801 0004 4FF67F73 		movw	r3, #65407
 802 0008 1340     		ands	r3, r3, r2
 803 000a 0360     		str	r3, [r0]
 804 000c 7047     		bx	lr
 805              	.L68:
 806              		.loc 1 535 0
 807 000e 0368     		ldr	r3, [r0]
 808 0010 43F08003 		orr	r3, r3, #128
 809 0014 0360     		str	r3, [r0]
 810 0016 7047     		bx	lr
 811              		.cfi_endproc
 812              	.LFE123:
 813              		.size	TIM_ARRPreloadConfig, .-TIM_ARRPreloadConfig
 814              		.section	.text.TIM_SelectOnePulseMode,"ax",%progbits
 815              		.align	2
 816              		.p2align 4,,15
 817              		.global	TIM_SelectOnePulseMode
 818              		.thumb
 819              		.thumb_func
 820              		.type	TIM_SelectOnePulseMode, %function
 821              	TIM_SelectOnePulseMode:
 822              	.LFB124:
 823              		.loc 1 554 0
 824              		.cfi_startproc
 825              		@ args = 0, pretend = 0, frame = 0
 826              		@ frame_needed = 0, uses_anonymous_args = 0
 827              		@ link register save eliminated.
 828              	.LVL67:
 829              		.loc 1 560 0
 830 0000 0268     		ldr	r2, [r0]
 831 0002 4FF6F773 		movw	r3, #65527
 832 0006 1340     		ands	r3, r3, r2
 833 0008 0360     		str	r3, [r0]
 834              		.loc 1 563 0
 835 000a 0368     		ldr	r3, [r0]
 836 000c 1943     		orrs	r1, r1, r3
 837              	.LVL68:
 838 000e 0160     		str	r1, [r0]
 839 0010 7047     		bx	lr
 840              		.cfi_endproc
 841              	.LFE124:
 842              		.size	TIM_SelectOnePulseMode, .-TIM_SelectOnePulseMode
 843 0012 00BF     		.section	.text.TIM_SetClockDivision,"ax",%progbits
 844              		.align	2
 845              		.p2align 4,,15
 846              		.global	TIM_SetClockDivision
 847              		.thumb
 848              		.thumb_func
 849              		.type	TIM_SetClockDivision, %function
 850              	TIM_SetClockDivision:
 851              	.LFB125:
 852              		.loc 1 577 0
 853              		.cfi_startproc
 854              		@ args = 0, pretend = 0, frame = 0
 855              		@ frame_needed = 0, uses_anonymous_args = 0
ARM GAS  /tmp/ccJZ9K5Y.s 			page 16


 856              		@ link register save eliminated.
 857              	.LVL69:
 858              		.loc 1 583 0
 859 0000 0268     		ldr	r2, [r0]
 860 0002 4FF6FF43 		movw	r3, #64767
 861 0006 1340     		ands	r3, r3, r2
 862 0008 0360     		str	r3, [r0]
 863              		.loc 1 586 0
 864 000a 0368     		ldr	r3, [r0]
 865 000c 1943     		orrs	r1, r1, r3
 866              	.LVL70:
 867 000e 0160     		str	r1, [r0]
 868 0010 7047     		bx	lr
 869              		.cfi_endproc
 870              	.LFE125:
 871              		.size	TIM_SetClockDivision, .-TIM_SetClockDivision
 872 0012 00BF     		.section	.text.TIM_Cmd,"ax",%progbits
 873              		.align	2
 874              		.p2align 4,,15
 875              		.global	TIM_Cmd
 876              		.thumb
 877              		.thumb_func
 878              		.type	TIM_Cmd, %function
 879              	TIM_Cmd:
 880              	.LFB126:
 881              		.loc 1 597 0
 882              		.cfi_startproc
 883              		@ args = 0, pretend = 0, frame = 0
 884              		@ frame_needed = 0, uses_anonymous_args = 0
 885              		@ link register save eliminated.
 886              	.LVL71:
 887              		.loc 1 602 0
 888 0000 29B9     		cbnz	r1, .L74
 889              		.loc 1 610 0
 890 0002 0268     		ldr	r2, [r0]
 891 0004 4FF6FE73 		movw	r3, #65534
 892 0008 1340     		ands	r3, r3, r2
 893 000a 0360     		str	r3, [r0]
 894 000c 7047     		bx	lr
 895              	.L74:
 896              		.loc 1 605 0
 897 000e 0368     		ldr	r3, [r0]
 898 0010 43F00103 		orr	r3, r3, #1
 899 0014 0360     		str	r3, [r0]
 900 0016 7047     		bx	lr
 901              		.cfi_endproc
 902              	.LFE126:
 903              		.size	TIM_Cmd, .-TIM_Cmd
 904              		.section	.text.TIM_OC1Init,"ax",%progbits
 905              		.align	2
 906              		.p2align 4,,15
 907              		.global	TIM_OC1Init
 908              		.thumb
 909              		.thumb_func
 910              		.type	TIM_OC1Init, %function
 911              	TIM_OC1Init:
 912              	.LFB127:
ARM GAS  /tmp/ccJZ9K5Y.s 			page 17


 913              		.loc 1 678 0
 914              		.cfi_startproc
 915              		@ args = 0, pretend = 0, frame = 0
 916              		@ frame_needed = 0, uses_anonymous_args = 0
 917              	.LVL72:
 918              		.loc 1 688 0
 919 0000 026A     		ldr	r2, [r0, #32]
 920 0002 4FF6FE73 		movw	r3, #65534
 921 0006 1340     		ands	r3, r3, r2
 922 0008 0362     		str	r3, [r0, #32]
 923              		.loc 1 678 0
 924 000a F0B5     		push	{r4, r5, r6, r7, lr}
 925              		.cfi_def_cfa_offset 20
 926              		.cfi_offset 4, -20
 927              		.cfi_offset 5, -16
 928              		.cfi_offset 6, -12
 929              		.cfi_offset 7, -8
 930              		.cfi_offset 14, -4
 931 000c 8A89     		ldrh	r2, [r1, #12]
 932              		.loc 1 691 0
 933 000e 046A     		ldr	r4, [r0, #32]
 934              	.LVL73:
 935 0010 4B88     		ldrh	r3, [r1, #2]
 936              		.loc 1 693 0
 937 0012 4668     		ldr	r6, [r0, #4]
 938              		.loc 1 712 0
 939 0014 174F     		ldr	r7, .L79
 940              		.loc 1 696 0
 941 0016 D0F818C0 		ldr	ip, [r0, #24]
 942              		.loc 1 702 0
 943 001a B1F800E0 		ldrh	lr, [r1]
 944              		.loc 1 705 0
 945 001e 4FF6FD75 		movw	r5, #65533
 946 0022 2540     		ands	r5, r5, r4
 947 0024 1343     		orrs	r3, r3, r2
 948              		.loc 1 700 0
 949 0026 4FF68C74 		movw	r4, #65420
 950              	.LVL74:
 951              		.loc 1 710 0
 952 002a 2B43     		orrs	r3, r3, r5
 953              		.loc 1 700 0
 954 002c 0CEA0404 		and	r4, ip, r4
 955              		.loc 1 712 0
 956 0030 B842     		cmp	r0, r7
 957              		.loc 1 710 0
 958 0032 9BB2     		uxth	r3, r3
 959              		.loc 1 693 0
 960 0034 B2B2     		uxth	r2, r6
 961              	.LVL75:
 962              		.loc 1 702 0
 963 0036 44EA0E04 		orr	r4, r4, lr
 964              	.LVL76:
 965              		.loc 1 712 0
 966 003a 08D0     		beq	.L76
 967              		.loc 1 712 0 is_stmt 0 discriminator 1
 968 003c 0E4D     		ldr	r5, .L79+4
 969 003e A842     		cmp	r0, r5
ARM GAS  /tmp/ccJZ9K5Y.s 			page 18


 970 0040 05D0     		beq	.L76
 971              	.L77:
 972              		.loc 1 743 0 is_stmt 1
 973 0042 8968     		ldr	r1, [r1, #8]
 974              	.LVL77:
 975              		.loc 1 737 0
 976 0044 4260     		str	r2, [r0, #4]
 977              		.loc 1 740 0
 978 0046 8461     		str	r4, [r0, #24]
 979              		.loc 1 743 0
 980 0048 4163     		str	r1, [r0, #52]
 981              		.loc 1 746 0
 982 004a 0362     		str	r3, [r0, #32]
 983 004c F0BD     		pop	{r4, r5, r6, r7, pc}
 984              	.LVL78:
 985              	.L76:
 986              		.loc 1 722 0
 987 004e CE89     		ldrh	r6, [r1, #14]
 988 0050 B1F812E0 		ldrh	lr, [r1, #18]
 989 0054 0D8A     		ldrh	r5, [r1, #16]
 990              		.loc 1 727 0
 991 0056 8F88     		ldrh	r7, [r1, #4]
 992              		.loc 1 720 0
 993 0058 23F00803 		bic	r3, r3, #8
 994              	.LVL79:
 995              		.loc 1 730 0
 996 005c 22F44072 		bic	r2, r2, #768
 997              	.LVL80:
 998              		.loc 1 722 0
 999 0060 3343     		orrs	r3, r3, r6
 1000              	.LVL81:
 1001 0062 4EEA0505 		orr	r5, lr, r5
 1002              		.loc 1 724 0
 1003 0066 23F00403 		bic	r3, r3, #4
 1004              	.LVL82:
 1005              		.loc 1 734 0
 1006 006a 2A43     		orrs	r2, r2, r5
 1007              		.loc 1 727 0
 1008 006c 3B43     		orrs	r3, r3, r7
 1009              	.LVL83:
 1010              		.loc 1 734 0
 1011 006e 92B2     		uxth	r2, r2
 1012              	.LVL84:
 1013 0070 E7E7     		b	.L77
 1014              	.L80:
 1015 0072 00BF     		.align	2
 1016              	.L79:
 1017 0074 00000140 		.word	1073807360
 1018 0078 00040140 		.word	1073808384
 1019              		.cfi_endproc
 1020              	.LFE127:
 1021              		.size	TIM_OC1Init, .-TIM_OC1Init
 1022              		.section	.text.TIM_OC2Init,"ax",%progbits
 1023              		.align	2
 1024              		.p2align 4,,15
 1025              		.global	TIM_OC2Init
 1026              		.thumb
ARM GAS  /tmp/ccJZ9K5Y.s 			page 19


 1027              		.thumb_func
 1028              		.type	TIM_OC2Init, %function
 1029              	TIM_OC2Init:
 1030              	.LFB128:
 1031              		.loc 1 759 0
 1032              		.cfi_startproc
 1033              		@ args = 0, pretend = 0, frame = 0
 1034              		@ frame_needed = 0, uses_anonymous_args = 0
 1035              	.LVL85:
 1036              		.loc 1 769 0
 1037 0000 026A     		ldr	r2, [r0, #32]
 1038              		.loc 1 792 0
 1039 0002 B1F802C0 		ldrh	ip, [r1, #2]
 1040              		.loc 1 769 0
 1041 0006 4FF6EF73 		movw	r3, #65519
 1042 000a 1340     		ands	r3, r3, r2
 1043 000c 0362     		str	r3, [r0, #32]
 1044              		.loc 1 759 0
 1045 000e 2DE9F041 		push	{r4, r5, r6, r7, r8, lr}
 1046              		.cfi_def_cfa_offset 24
 1047              		.cfi_offset 4, -24
 1048              		.cfi_offset 5, -20
 1049              		.cfi_offset 6, -16
 1050              		.cfi_offset 7, -12
 1051              		.cfi_offset 8, -8
 1052              		.cfi_offset 14, -4
 1053              		.loc 1 772 0
 1054 0012 D0F82080 		ldr	r8, [r0, #32]
 1055              	.LVL86:
 1056              		.loc 1 789 0
 1057 0016 8D89     		ldrh	r5, [r1, #12]
 1058              		.loc 1 774 0
 1059 0018 4468     		ldr	r4, [r0, #4]
 1060              		.loc 1 777 0
 1061 001a D0F818E0 		ldr	lr, [r0, #24]
 1062              		.loc 1 794 0
 1063 001e 1C4E     		ldr	r6, .L85
 1064              		.loc 1 784 0
 1065 0020 0F88     		ldrh	r7, [r1]
 1066              		.loc 1 787 0
 1067 0022 4FF6DF72 		movw	r2, #65503
 1068              		.loc 1 781 0
 1069 0026 48F6FF43 		movw	r3, #36095
 1070              		.loc 1 787 0
 1071 002a 08EA0202 		and	r2, r8, r2
 1072 002e 4CEA0505 		orr	r5, ip, r5
 1073              		.loc 1 781 0
 1074 0032 0EEA0303 		and	r3, lr, r3
 1075              		.loc 1 792 0
 1076 0036 42EA0512 		orr	r2, r2, r5, lsl #4
 1077              		.loc 1 784 0
 1078 003a 43EA0723 		orr	r3, r3, r7, lsl #8
 1079              		.loc 1 794 0
 1080 003e B042     		cmp	r0, r6
 1081              		.loc 1 792 0
 1082 0040 92B2     		uxth	r2, r2
 1083              		.loc 1 774 0
ARM GAS  /tmp/ccJZ9K5Y.s 			page 20


 1084 0042 A4B2     		uxth	r4, r4
 1085              	.LVL87:
 1086              		.loc 1 784 0
 1087 0044 9BB2     		uxth	r3, r3
 1088              	.LVL88:
 1089              		.loc 1 794 0
 1090 0046 09D0     		beq	.L82
 1091              		.loc 1 794 0 is_stmt 0 discriminator 1
 1092 0048 124D     		ldr	r5, .L85+4
 1093 004a A842     		cmp	r0, r5
 1094 004c 06D0     		beq	.L82
 1095              	.L83:
 1096              		.loc 1 825 0 is_stmt 1
 1097 004e 8968     		ldr	r1, [r1, #8]
 1098              	.LVL89:
 1099              		.loc 1 819 0
 1100 0050 4460     		str	r4, [r0, #4]
 1101              		.loc 1 822 0
 1102 0052 8361     		str	r3, [r0, #24]
 1103              		.loc 1 825 0
 1104 0054 8163     		str	r1, [r0, #56]
 1105              		.loc 1 828 0
 1106 0056 0262     		str	r2, [r0, #32]
 1107 0058 BDE8F081 		pop	{r4, r5, r6, r7, r8, pc}
 1108              	.LVL90:
 1109              	.L82:
 1110              		.loc 1 804 0
 1111 005c CD89     		ldrh	r5, [r1, #14]
 1112              		.loc 1 816 0
 1113 005e B1F81280 		ldrh	r8, [r1, #18]
 1114              		.loc 1 814 0
 1115 0062 0F8A     		ldrh	r7, [r1, #16]
 1116              		.loc 1 809 0
 1117 0064 B1F804C0 		ldrh	ip, [r1, #4]
 1118              		.loc 1 802 0
 1119 0068 22F0800E 		bic	lr, r2, #128
 1120              	.LVL91:
 1121              		.loc 1 804 0
 1122 006c 4EEA051E 		orr	lr, lr, r5, lsl #4
 1123              	.LVL92:
 1124              		.loc 1 806 0
 1125 0070 4FF6BF75 		movw	r5, #65471
 1126              		.loc 1 812 0
 1127 0074 24F44066 		bic	r6, r4, #3072
 1128              		.loc 1 806 0
 1129 0078 0EEA0505 		and	r5, lr, r5
 1130              	.LVL93:
 1131 007c 48EA0704 		orr	r4, r8, r7
 1132              	.LVL94:
 1133              		.loc 1 809 0
 1134 0080 45EA0C12 		orr	r2, r5, ip, lsl #4
 1135              		.loc 1 816 0
 1136 0084 46EA8404 		orr	r4, r6, r4, lsl #2
 1137              		.loc 1 809 0
 1138 0088 92B2     		uxth	r2, r2
 1139              	.LVL95:
 1140              		.loc 1 816 0
ARM GAS  /tmp/ccJZ9K5Y.s 			page 21


 1141 008a A4B2     		uxth	r4, r4
 1142              	.LVL96:
 1143 008c DFE7     		b	.L83
 1144              	.L86:
 1145 008e 00BF     		.align	2
 1146              	.L85:
 1147 0090 00000140 		.word	1073807360
 1148 0094 00040140 		.word	1073808384
 1149              		.cfi_endproc
 1150              	.LFE128:
 1151              		.size	TIM_OC2Init, .-TIM_OC2Init
 1152              		.section	.text.TIM_OC3Init,"ax",%progbits
 1153              		.align	2
 1154              		.p2align 4,,15
 1155              		.global	TIM_OC3Init
 1156              		.thumb
 1157              		.thumb_func
 1158              		.type	TIM_OC3Init, %function
 1159              	TIM_OC3Init:
 1160              	.LFB129:
 1161              		.loc 1 840 0
 1162              		.cfi_startproc
 1163              		@ args = 0, pretend = 0, frame = 0
 1164              		@ frame_needed = 0, uses_anonymous_args = 0
 1165              	.LVL97:
 1166              		.loc 1 850 0
 1167 0000 026A     		ldr	r2, [r0, #32]
 1168              		.loc 1 864 0
 1169 0002 B1F800C0 		ldrh	ip, [r1]
 1170              		.loc 1 850 0
 1171 0006 4FF6FF63 		movw	r3, #65279
 1172 000a 1340     		ands	r3, r3, r2
 1173 000c 0362     		str	r3, [r0, #32]
 1174              		.loc 1 840 0
 1175 000e 2DE9F041 		push	{r4, r5, r6, r7, r8, lr}
 1176              		.cfi_def_cfa_offset 24
 1177              		.cfi_offset 4, -24
 1178              		.cfi_offset 5, -20
 1179              		.cfi_offset 6, -16
 1180              		.cfi_offset 7, -12
 1181              		.cfi_offset 8, -8
 1182              		.cfi_offset 14, -4
 1183              		.loc 1 853 0
 1184 0012 026A     		ldr	r2, [r0, #32]
 1185              	.LVL98:
 1186              		.loc 1 872 0
 1187 0014 B1F802E0 		ldrh	lr, [r1, #2]
 1188              		.loc 1 869 0
 1189 0018 8C89     		ldrh	r4, [r1, #12]
 1190              		.loc 1 855 0
 1191 001a 4568     		ldr	r5, [r0, #4]
 1192              		.loc 1 874 0
 1193 001c 1A4E     		ldr	r6, .L91
 1194              		.loc 1 858 0
 1195 001e C769     		ldr	r7, [r0, #28]
 1196              		.loc 1 867 0
 1197 0020 4FF6FF53 		movw	r3, #65023
ARM GAS  /tmp/ccJZ9K5Y.s 			page 22


 1198 0024 1340     		ands	r3, r3, r2
 1199 0026 4EEA0404 		orr	r4, lr, r4
 1200              		.loc 1 862 0
 1201 002a 4FF68C72 		movw	r2, #65420
 1202              	.LVL99:
 1203              		.loc 1 872 0
 1204 002e 43EA0423 		orr	r3, r3, r4, lsl #8
 1205              		.loc 1 862 0
 1206 0032 3A40     		ands	r2, r2, r7
 1207              		.loc 1 874 0
 1208 0034 B042     		cmp	r0, r6
 1209              		.loc 1 872 0
 1210 0036 9BB2     		uxth	r3, r3
 1211              		.loc 1 855 0
 1212 0038 ADB2     		uxth	r5, r5
 1213              	.LVL100:
 1214              		.loc 1 864 0
 1215 003a 42EA0C02 		orr	r2, r2, ip
 1216              	.LVL101:
 1217              		.loc 1 874 0
 1218 003e 09D0     		beq	.L88
 1219              		.loc 1 874 0 is_stmt 0 discriminator 1
 1220 0040 124C     		ldr	r4, .L91+4
 1221 0042 A042     		cmp	r0, r4
 1222 0044 06D0     		beq	.L88
 1223              	.L89:
 1224              		.loc 1 905 0 is_stmt 1
 1225 0046 8968     		ldr	r1, [r1, #8]
 1226              	.LVL102:
 1227              		.loc 1 899 0
 1228 0048 4560     		str	r5, [r0, #4]
 1229              		.loc 1 902 0
 1230 004a C261     		str	r2, [r0, #28]
 1231              		.loc 1 905 0
 1232 004c C163     		str	r1, [r0, #60]
 1233              		.loc 1 908 0
 1234 004e 0362     		str	r3, [r0, #32]
 1235 0050 BDE8F081 		pop	{r4, r5, r6, r7, r8, pc}
 1236              	.LVL103:
 1237              	.L88:
 1238              		.loc 1 884 0
 1239 0054 CC89     		ldrh	r4, [r1, #14]
 1240              		.loc 1 896 0
 1241 0056 B1F81280 		ldrh	r8, [r1, #18]
 1242              		.loc 1 894 0
 1243 005a 0F8A     		ldrh	r7, [r1, #16]
 1244              		.loc 1 889 0
 1245 005c B1F804C0 		ldrh	ip, [r1, #4]
 1246              		.loc 1 882 0
 1247 0060 23F4006E 		bic	lr, r3, #2048
 1248              	.LVL104:
 1249              		.loc 1 884 0
 1250 0064 4EEA042E 		orr	lr, lr, r4, lsl #8
 1251              	.LVL105:
 1252              		.loc 1 886 0
 1253 0068 4FF6FF34 		movw	r4, #64511
 1254              		.loc 1 892 0
ARM GAS  /tmp/ccJZ9K5Y.s 			page 23


 1255 006c 25F44056 		bic	r6, r5, #12288
 1256              		.loc 1 886 0
 1257 0070 0EEA0404 		and	r4, lr, r4
 1258              	.LVL106:
 1259 0074 48EA0705 		orr	r5, r8, r7
 1260              	.LVL107:
 1261              		.loc 1 889 0
 1262 0078 44EA0C23 		orr	r3, r4, ip, lsl #8
 1263              		.loc 1 896 0
 1264 007c 46EA0515 		orr	r5, r6, r5, lsl #4
 1265              		.loc 1 889 0
 1266 0080 9BB2     		uxth	r3, r3
 1267              	.LVL108:
 1268              		.loc 1 896 0
 1269 0082 ADB2     		uxth	r5, r5
 1270              	.LVL109:
 1271 0084 DFE7     		b	.L89
 1272              	.L92:
 1273 0086 00BF     		.align	2
 1274              	.L91:
 1275 0088 00000140 		.word	1073807360
 1276 008c 00040140 		.word	1073808384
 1277              		.cfi_endproc
 1278              	.LFE129:
 1279              		.size	TIM_OC3Init, .-TIM_OC3Init
 1280              		.section	.text.TIM_OC4Init,"ax",%progbits
 1281              		.align	2
 1282              		.p2align 4,,15
 1283              		.global	TIM_OC4Init
 1284              		.thumb
 1285              		.thumb_func
 1286              		.type	TIM_OC4Init, %function
 1287              	TIM_OC4Init:
 1288              	.LFB130:
 1289              		.loc 1 920 0
 1290              		.cfi_startproc
 1291              		@ args = 0, pretend = 0, frame = 0
 1292              		@ frame_needed = 0, uses_anonymous_args = 0
 1293              	.LVL110:
 1294              		.loc 1 930 0
 1295 0000 026A     		ldr	r2, [r0, #32]
 1296              		.loc 1 953 0
 1297 0002 B1F802C0 		ldrh	ip, [r1, #2]
 1298              		.loc 1 930 0
 1299 0006 4EF6FF73 		movw	r3, #61439
 1300 000a 1340     		ands	r3, r3, r2
 1301 000c 0362     		str	r3, [r0, #32]
 1302              		.loc 1 920 0
 1303 000e 2DE9F041 		push	{r4, r5, r6, r7, r8, lr}
 1304              		.cfi_def_cfa_offset 24
 1305              		.cfi_offset 4, -24
 1306              		.cfi_offset 5, -20
 1307              		.cfi_offset 6, -16
 1308              		.cfi_offset 7, -12
 1309              		.cfi_offset 8, -8
 1310              		.cfi_offset 14, -4
 1311              		.loc 1 933 0
ARM GAS  /tmp/ccJZ9K5Y.s 			page 24


 1312 0012 D0F82080 		ldr	r8, [r0, #32]
 1313              	.LVL111:
 1314              		.loc 1 950 0
 1315 0016 8D89     		ldrh	r5, [r1, #12]
 1316              		.loc 1 935 0
 1317 0018 4468     		ldr	r4, [r0, #4]
 1318              		.loc 1 938 0
 1319 001a D0F81CE0 		ldr	lr, [r0, #28]
 1320              		.loc 1 955 0
 1321 001e 134E     		ldr	r6, .L97
 1322              		.loc 1 945 0
 1323 0020 0F88     		ldrh	r7, [r1]
 1324              		.loc 1 948 0
 1325 0022 4DF6FF73 		movw	r3, #57343
 1326              		.loc 1 942 0
 1327 0026 48F6FF42 		movw	r2, #36095
 1328              		.loc 1 948 0
 1329 002a 08EA0303 		and	r3, r8, r3
 1330 002e 4CEA0505 		orr	r5, ip, r5
 1331              		.loc 1 942 0
 1332 0032 0EEA0202 		and	r2, lr, r2
 1333              		.loc 1 953 0
 1334 0036 43EA0533 		orr	r3, r3, r5, lsl #12
 1335              		.loc 1 945 0
 1336 003a 42EA0722 		orr	r2, r2, r7, lsl #8
 1337              		.loc 1 955 0
 1338 003e B042     		cmp	r0, r6
 1339              		.loc 1 953 0
 1340 0040 9BB2     		uxth	r3, r3
 1341              		.loc 1 935 0
 1342 0042 A4B2     		uxth	r4, r4
 1343              	.LVL112:
 1344              		.loc 1 945 0
 1345 0044 92B2     		uxth	r2, r2
 1346              	.LVL113:
 1347              		.loc 1 955 0
 1348 0046 09D0     		beq	.L94
 1349              		.loc 1 955 0 is_stmt 0 discriminator 1
 1350 0048 094D     		ldr	r5, .L97+4
 1351 004a A842     		cmp	r0, r5
 1352 004c 06D0     		beq	.L94
 1353              	.L95:
 1354              		.loc 1 970 0 is_stmt 1
 1355 004e 8968     		ldr	r1, [r1, #8]
 1356              	.LVL114:
 1357              		.loc 1 964 0
 1358 0050 4460     		str	r4, [r0, #4]
 1359              		.loc 1 967 0
 1360 0052 C261     		str	r2, [r0, #28]
 1361              		.loc 1 970 0
 1362 0054 0164     		str	r1, [r0, #64]
 1363              		.loc 1 973 0
 1364 0056 0362     		str	r3, [r0, #32]
 1365 0058 BDE8F081 		pop	{r4, r5, r6, r7, r8, pc}
 1366              	.LVL115:
 1367              	.L94:
 1368              		.loc 1 961 0
ARM GAS  /tmp/ccJZ9K5Y.s 			page 25


 1369 005c 0D8A     		ldrh	r5, [r1, #16]
 1370              		.loc 1 959 0
 1371 005e 24F48044 		bic	r4, r4, #16384
 1372              	.LVL116:
 1373              		.loc 1 961 0
 1374 0062 44EA8514 		orr	r4, r4, r5, lsl #6
 1375              	.LVL117:
 1376 0066 A4B2     		uxth	r4, r4
 1377              	.LVL118:
 1378 0068 F1E7     		b	.L95
 1379              	.L98:
 1380 006a 00BF     		.align	2
 1381              	.L97:
 1382 006c 00000140 		.word	1073807360
 1383 0070 00040140 		.word	1073808384
 1384              		.cfi_endproc
 1385              	.LFE130:
 1386              		.size	TIM_OC4Init, .-TIM_OC4Init
 1387              		.section	.text.TIM_OCStructInit,"ax",%progbits
 1388              		.align	2
 1389              		.p2align 4,,15
 1390              		.global	TIM_OCStructInit
 1391              		.thumb
 1392              		.thumb_func
 1393              		.type	TIM_OCStructInit, %function
 1394              	TIM_OCStructInit:
 1395              	.LFB131:
 1396              		.loc 1 983 0
 1397              		.cfi_startproc
 1398              		@ args = 0, pretend = 0, frame = 0
 1399              		@ frame_needed = 0, uses_anonymous_args = 0
 1400              		@ link register save eliminated.
 1401              	.LVL119:
 1402              		.loc 1 985 0
 1403 0000 0023     		movs	r3, #0
 1404 0002 0380     		strh	r3, [r0]	@ movhi
 1405              		.loc 1 986 0
 1406 0004 4380     		strh	r3, [r0, #2]	@ movhi
 1407              		.loc 1 987 0
 1408 0006 8380     		strh	r3, [r0, #4]	@ movhi
 1409              		.loc 1 988 0
 1410 0008 8360     		str	r3, [r0, #8]
 1411              		.loc 1 989 0
 1412 000a 8381     		strh	r3, [r0, #12]	@ movhi
 1413              		.loc 1 990 0
 1414 000c C381     		strh	r3, [r0, #14]	@ movhi
 1415              		.loc 1 991 0
 1416 000e 0382     		strh	r3, [r0, #16]	@ movhi
 1417              		.loc 1 992 0
 1418 0010 4382     		strh	r3, [r0, #18]	@ movhi
 1419 0012 7047     		bx	lr
 1420              		.cfi_endproc
 1421              	.LFE131:
 1422              		.size	TIM_OCStructInit, .-TIM_OCStructInit
 1423              		.section	.text.TIM_SelectOCxM,"ax",%progbits
 1424              		.align	2
 1425              		.p2align 4,,15
ARM GAS  /tmp/ccJZ9K5Y.s 			page 26


 1426              		.global	TIM_SelectOCxM
 1427              		.thumb
 1428              		.thumb_func
 1429              		.type	TIM_SelectOCxM, %function
 1430              	TIM_SelectOCxM:
 1431              	.LFB132:
 1432              		.loc 1 1019 0
 1433              		.cfi_startproc
 1434              		@ args = 0, pretend = 0, frame = 0
 1435              		@ frame_needed = 0, uses_anonymous_args = 0
 1436              		@ link register save eliminated.
 1437              	.LVL120:
 1438              		.loc 1 1031 0
 1439 0000 0123     		movs	r3, #1
 1440 0002 8B40     		lsls	r3, r3, r1
 1441              		.loc 1 1019 0
 1442 0004 10B4     		push	{r4}
 1443              		.cfi_def_cfa_offset 4
 1444              		.cfi_offset 4, -4
 1445              		.loc 1 1034 0
 1446 0006 DB43     		mvns	r3, r3
 1447 0008 046A     		ldr	r4, [r0, #32]
 1448 000a 9BB2     		uxth	r3, r3
 1449 000c 2340     		ands	r3, r3, r4
 1450              		.loc 1 1036 0
 1451 000e 21F00804 		bic	r4, r1, #8
 1452              		.loc 1 1034 0
 1453 0012 0362     		str	r3, [r0, #32]
 1454              		.loc 1 1029 0
 1455 0014 1830     		adds	r0, r0, #24
 1456              	.LVL121:
 1457              		.loc 1 1036 0
 1458 0016 7CB1     		cbz	r4, .L104
 1459              	.LVL122:
 1460              		.loc 1 1048 0
 1461 0018 0439     		subs	r1, r1, #4
 1462              	.LVL123:
 1463 001a C1F34E01 		ubfx	r1, r1, #1, #15
 1464              		.loc 1 1051 0
 1465 001e 48F6FF73 		movw	r3, #36863
 1466 0022 0C58     		ldr	r4, [r1, r0]
 1467 0024 2340     		ands	r3, r3, r4
 1468 0026 0B50     		str	r3, [r1, r0]
 1469              		.loc 1 1054 0
 1470 0028 1202     		lsls	r2, r2, #8
 1471              	.LVL124:
 1472 002a 0B58     		ldr	r3, [r1, r0]
 1473              		.loc 1 1056 0
 1474 002c 5DF8044B 		ldr	r4, [sp], #4
 1475              		.cfi_remember_state
 1476              		.cfi_restore 4
 1477              		.cfi_def_cfa_offset 0
 1478              		.loc 1 1054 0
 1479 0030 92B2     		uxth	r2, r2
 1480 0032 1A43     		orrs	r2, r2, r3
 1481 0034 0A50     		str	r2, [r1, r0]
 1482              		.loc 1 1056 0
ARM GAS  /tmp/ccJZ9K5Y.s 			page 27


 1483 0036 7047     		bx	lr
 1484              	.LVL125:
 1485              	.L104:
 1486              		.cfi_restore_state
 1487              		.loc 1 1038 0
 1488 0038 4908     		lsrs	r1, r1, #1
 1489              	.LVL126:
 1490              		.loc 1 1041 0
 1491 003a 4FF68F73 		movw	r3, #65423
 1492 003e 4458     		ldr	r4, [r0, r1]
 1493 0040 2340     		ands	r3, r3, r4
 1494 0042 4350     		str	r3, [r0, r1]
 1495              		.loc 1 1044 0
 1496 0044 4358     		ldr	r3, [r0, r1]
 1497              		.loc 1 1056 0
 1498 0046 5DF8044B 		ldr	r4, [sp], #4
 1499              		.cfi_restore 4
 1500              		.cfi_def_cfa_offset 0
 1501              		.loc 1 1044 0
 1502 004a 1A43     		orrs	r2, r2, r3
 1503              	.LVL127:
 1504 004c 4250     		str	r2, [r0, r1]
 1505              		.loc 1 1056 0
 1506 004e 7047     		bx	lr
 1507              		.cfi_endproc
 1508              	.LFE132:
 1509              		.size	TIM_SelectOCxM, .-TIM_SelectOCxM
 1510              		.section	.text.TIM_SetCompare1,"ax",%progbits
 1511              		.align	2
 1512              		.p2align 4,,15
 1513              		.global	TIM_SetCompare1
 1514              		.thumb
 1515              		.thumb_func
 1516              		.type	TIM_SetCompare1, %function
 1517              	TIM_SetCompare1:
 1518              	.LFB133:
 1519              		.loc 1 1065 0
 1520              		.cfi_startproc
 1521              		@ args = 0, pretend = 0, frame = 0
 1522              		@ frame_needed = 0, uses_anonymous_args = 0
 1523              		@ link register save eliminated.
 1524              	.LVL128:
 1525              		.loc 1 1070 0
 1526 0000 4163     		str	r1, [r0, #52]
 1527 0002 7047     		bx	lr
 1528              		.cfi_endproc
 1529              	.LFE133:
 1530              		.size	TIM_SetCompare1, .-TIM_SetCompare1
 1531              		.section	.text.TIM_SetCompare2,"ax",%progbits
 1532              		.align	2
 1533              		.p2align 4,,15
 1534              		.global	TIM_SetCompare2
 1535              		.thumb
 1536              		.thumb_func
 1537              		.type	TIM_SetCompare2, %function
 1538              	TIM_SetCompare2:
 1539              	.LFB134:
ARM GAS  /tmp/ccJZ9K5Y.s 			page 28


 1540              		.loc 1 1081 0
 1541              		.cfi_startproc
 1542              		@ args = 0, pretend = 0, frame = 0
 1543              		@ frame_needed = 0, uses_anonymous_args = 0
 1544              		@ link register save eliminated.
 1545              	.LVL129:
 1546              		.loc 1 1086 0
 1547 0000 8163     		str	r1, [r0, #56]
 1548 0002 7047     		bx	lr
 1549              		.cfi_endproc
 1550              	.LFE134:
 1551              		.size	TIM_SetCompare2, .-TIM_SetCompare2
 1552              		.section	.text.TIM_SetCompare3,"ax",%progbits
 1553              		.align	2
 1554              		.p2align 4,,15
 1555              		.global	TIM_SetCompare3
 1556              		.thumb
 1557              		.thumb_func
 1558              		.type	TIM_SetCompare3, %function
 1559              	TIM_SetCompare3:
 1560              	.LFB135:
 1561              		.loc 1 1096 0
 1562              		.cfi_startproc
 1563              		@ args = 0, pretend = 0, frame = 0
 1564              		@ frame_needed = 0, uses_anonymous_args = 0
 1565              		@ link register save eliminated.
 1566              	.LVL130:
 1567              		.loc 1 1101 0
 1568 0000 C163     		str	r1, [r0, #60]
 1569 0002 7047     		bx	lr
 1570              		.cfi_endproc
 1571              	.LFE135:
 1572              		.size	TIM_SetCompare3, .-TIM_SetCompare3
 1573              		.section	.text.TIM_SetCompare4,"ax",%progbits
 1574              		.align	2
 1575              		.p2align 4,,15
 1576              		.global	TIM_SetCompare4
 1577              		.thumb
 1578              		.thumb_func
 1579              		.type	TIM_SetCompare4, %function
 1580              	TIM_SetCompare4:
 1581              	.LFB136:
 1582              		.loc 1 1111 0
 1583              		.cfi_startproc
 1584              		@ args = 0, pretend = 0, frame = 0
 1585              		@ frame_needed = 0, uses_anonymous_args = 0
 1586              		@ link register save eliminated.
 1587              	.LVL131:
 1588              		.loc 1 1116 0
 1589 0000 0164     		str	r1, [r0, #64]
 1590 0002 7047     		bx	lr
 1591              		.cfi_endproc
 1592              	.LFE136:
 1593              		.size	TIM_SetCompare4, .-TIM_SetCompare4
 1594              		.section	.text.TIM_ForcedOC1Config,"ax",%progbits
 1595              		.align	2
 1596              		.p2align 4,,15
ARM GAS  /tmp/ccJZ9K5Y.s 			page 29


 1597              		.global	TIM_ForcedOC1Config
 1598              		.thumb
 1599              		.thumb_func
 1600              		.type	TIM_ForcedOC1Config, %function
 1601              	TIM_ForcedOC1Config:
 1602              	.LFB137:
 1603              		.loc 1 1129 0
 1604              		.cfi_startproc
 1605              		@ args = 0, pretend = 0, frame = 0
 1606              		@ frame_needed = 0, uses_anonymous_args = 0
 1607              		@ link register save eliminated.
 1608              	.LVL132:
 1609              		.loc 1 1135 0
 1610 0000 8269     		ldr	r2, [r0, #24]
 1611              	.LVL133:
 1612              		.loc 1 1138 0
 1613 0002 4FF68F73 		movw	r3, #65423
 1614 0006 1340     		ands	r3, r3, r2
 1615              	.LVL134:
 1616              		.loc 1 1144 0
 1617 0008 1943     		orrs	r1, r1, r3
 1618              	.LVL135:
 1619 000a 8161     		str	r1, [r0, #24]
 1620 000c 7047     		bx	lr
 1621              		.cfi_endproc
 1622              	.LFE137:
 1623              		.size	TIM_ForcedOC1Config, .-TIM_ForcedOC1Config
 1624 000e 00BF     		.section	.text.TIM_ForcedOC2Config,"ax",%progbits
 1625              		.align	2
 1626              		.p2align 4,,15
 1627              		.global	TIM_ForcedOC2Config
 1628              		.thumb
 1629              		.thumb_func
 1630              		.type	TIM_ForcedOC2Config, %function
 1631              	TIM_ForcedOC2Config:
 1632              	.LFB138:
 1633              		.loc 1 1158 0
 1634              		.cfi_startproc
 1635              		@ args = 0, pretend = 0, frame = 0
 1636              		@ frame_needed = 0, uses_anonymous_args = 0
 1637              		@ link register save eliminated.
 1638              	.LVL136:
 1639              		.loc 1 1164 0
 1640 0000 8269     		ldr	r2, [r0, #24]
 1641              	.LVL137:
 1642              		.loc 1 1167 0
 1643 0002 48F6FF73 		movw	r3, #36863
 1644 0006 1340     		ands	r3, r3, r2
 1645              	.LVL138:
 1646              		.loc 1 1170 0
 1647 0008 43EA0121 		orr	r1, r3, r1, lsl #8
 1648              	.LVL139:
 1649              		.loc 1 1173 0
 1650 000c 89B2     		uxth	r1, r1
 1651 000e 8161     		str	r1, [r0, #24]
 1652 0010 7047     		bx	lr
 1653              		.cfi_endproc
ARM GAS  /tmp/ccJZ9K5Y.s 			page 30


 1654              	.LFE138:
 1655              		.size	TIM_ForcedOC2Config, .-TIM_ForcedOC2Config
 1656 0012 00BF     		.section	.text.TIM_ForcedOC3Config,"ax",%progbits
 1657              		.align	2
 1658              		.p2align 4,,15
 1659              		.global	TIM_ForcedOC3Config
 1660              		.thumb
 1661              		.thumb_func
 1662              		.type	TIM_ForcedOC3Config, %function
 1663              	TIM_ForcedOC3Config:
 1664              	.LFB139:
 1665              		.loc 1 1186 0
 1666              		.cfi_startproc
 1667              		@ args = 0, pretend = 0, frame = 0
 1668              		@ frame_needed = 0, uses_anonymous_args = 0
 1669              		@ link register save eliminated.
 1670              	.LVL140:
 1671              		.loc 1 1193 0
 1672 0000 C269     		ldr	r2, [r0, #28]
 1673              	.LVL141:
 1674              		.loc 1 1196 0
 1675 0002 4FF68F73 		movw	r3, #65423
 1676 0006 1340     		ands	r3, r3, r2
 1677              	.LVL142:
 1678              		.loc 1 1202 0
 1679 0008 1943     		orrs	r1, r1, r3
 1680              	.LVL143:
 1681 000a C161     		str	r1, [r0, #28]
 1682 000c 7047     		bx	lr
 1683              		.cfi_endproc
 1684              	.LFE139:
 1685              		.size	TIM_ForcedOC3Config, .-TIM_ForcedOC3Config
 1686 000e 00BF     		.section	.text.TIM_ForcedOC4Config,"ax",%progbits
 1687              		.align	2
 1688              		.p2align 4,,15
 1689              		.global	TIM_ForcedOC4Config
 1690              		.thumb
 1691              		.thumb_func
 1692              		.type	TIM_ForcedOC4Config, %function
 1693              	TIM_ForcedOC4Config:
 1694              	.LFB140:
 1695              		.loc 1 1215 0
 1696              		.cfi_startproc
 1697              		@ args = 0, pretend = 0, frame = 0
 1698              		@ frame_needed = 0, uses_anonymous_args = 0
 1699              		@ link register save eliminated.
 1700              	.LVL144:
 1701              		.loc 1 1221 0
 1702 0000 C269     		ldr	r2, [r0, #28]
 1703              	.LVL145:
 1704              		.loc 1 1224 0
 1705 0002 48F6FF73 		movw	r3, #36863
 1706 0006 1340     		ands	r3, r3, r2
 1707              	.LVL146:
 1708              		.loc 1 1227 0
 1709 0008 43EA0121 		orr	r1, r3, r1, lsl #8
 1710              	.LVL147:
ARM GAS  /tmp/ccJZ9K5Y.s 			page 31


 1711              		.loc 1 1230 0
 1712 000c 89B2     		uxth	r1, r1
 1713 000e C161     		str	r1, [r0, #28]
 1714 0010 7047     		bx	lr
 1715              		.cfi_endproc
 1716              	.LFE140:
 1717              		.size	TIM_ForcedOC4Config, .-TIM_ForcedOC4Config
 1718 0012 00BF     		.section	.text.TIM_OC1PreloadConfig,"ax",%progbits
 1719              		.align	2
 1720              		.p2align 4,,15
 1721              		.global	TIM_OC1PreloadConfig
 1722              		.thumb
 1723              		.thumb_func
 1724              		.type	TIM_OC1PreloadConfig, %function
 1725              	TIM_OC1PreloadConfig:
 1726              	.LFB141:
 1727              		.loc 1 1243 0
 1728              		.cfi_startproc
 1729              		@ args = 0, pretend = 0, frame = 0
 1730              		@ frame_needed = 0, uses_anonymous_args = 0
 1731              		@ link register save eliminated.
 1732              	.LVL148:
 1733              		.loc 1 1250 0
 1734 0000 8269     		ldr	r2, [r0, #24]
 1735              	.LVL149:
 1736              		.loc 1 1253 0
 1737 0002 4FF6F773 		movw	r3, #65527
 1738 0006 1340     		ands	r3, r3, r2
 1739              	.LVL150:
 1740              		.loc 1 1259 0
 1741 0008 1943     		orrs	r1, r1, r3
 1742              	.LVL151:
 1743 000a 8161     		str	r1, [r0, #24]
 1744 000c 7047     		bx	lr
 1745              		.cfi_endproc
 1746              	.LFE141:
 1747              		.size	TIM_OC1PreloadConfig, .-TIM_OC1PreloadConfig
 1748 000e 00BF     		.section	.text.TIM_OC2PreloadConfig,"ax",%progbits
 1749              		.align	2
 1750              		.p2align 4,,15
 1751              		.global	TIM_OC2PreloadConfig
 1752              		.thumb
 1753              		.thumb_func
 1754              		.type	TIM_OC2PreloadConfig, %function
 1755              	TIM_OC2PreloadConfig:
 1756              	.LFB142:
 1757              		.loc 1 1273 0
 1758              		.cfi_startproc
 1759              		@ args = 0, pretend = 0, frame = 0
 1760              		@ frame_needed = 0, uses_anonymous_args = 0
 1761              		@ link register save eliminated.
 1762              	.LVL152:
 1763              		.loc 1 1280 0
 1764 0000 8269     		ldr	r2, [r0, #24]
 1765              	.LVL153:
 1766              		.loc 1 1283 0
 1767 0002 4FF2FF73 		movw	r3, #63487
ARM GAS  /tmp/ccJZ9K5Y.s 			page 32


 1768 0006 1340     		ands	r3, r3, r2
 1769              	.LVL154:
 1770              		.loc 1 1286 0
 1771 0008 43EA0121 		orr	r1, r3, r1, lsl #8
 1772              	.LVL155:
 1773              		.loc 1 1289 0
 1774 000c 89B2     		uxth	r1, r1
 1775 000e 8161     		str	r1, [r0, #24]
 1776 0010 7047     		bx	lr
 1777              		.cfi_endproc
 1778              	.LFE142:
 1779              		.size	TIM_OC2PreloadConfig, .-TIM_OC2PreloadConfig
 1780 0012 00BF     		.section	.text.TIM_OC3PreloadConfig,"ax",%progbits
 1781              		.align	2
 1782              		.p2align 4,,15
 1783              		.global	TIM_OC3PreloadConfig
 1784              		.thumb
 1785              		.thumb_func
 1786              		.type	TIM_OC3PreloadConfig, %function
 1787              	TIM_OC3PreloadConfig:
 1788              	.LFB143:
 1789              		.loc 1 1302 0
 1790              		.cfi_startproc
 1791              		@ args = 0, pretend = 0, frame = 0
 1792              		@ frame_needed = 0, uses_anonymous_args = 0
 1793              		@ link register save eliminated.
 1794              	.LVL156:
 1795              		.loc 1 1309 0
 1796 0000 C269     		ldr	r2, [r0, #28]
 1797              	.LVL157:
 1798              		.loc 1 1312 0
 1799 0002 4FF6F773 		movw	r3, #65527
 1800 0006 1340     		ands	r3, r3, r2
 1801              	.LVL158:
 1802              		.loc 1 1318 0
 1803 0008 1943     		orrs	r1, r1, r3
 1804              	.LVL159:
 1805 000a C161     		str	r1, [r0, #28]
 1806 000c 7047     		bx	lr
 1807              		.cfi_endproc
 1808              	.LFE143:
 1809              		.size	TIM_OC3PreloadConfig, .-TIM_OC3PreloadConfig
 1810 000e 00BF     		.section	.text.TIM_OC4PreloadConfig,"ax",%progbits
 1811              		.align	2
 1812              		.p2align 4,,15
 1813              		.global	TIM_OC4PreloadConfig
 1814              		.thumb
 1815              		.thumb_func
 1816              		.type	TIM_OC4PreloadConfig, %function
 1817              	TIM_OC4PreloadConfig:
 1818              	.LFB144:
 1819              		.loc 1 1331 0
 1820              		.cfi_startproc
 1821              		@ args = 0, pretend = 0, frame = 0
 1822              		@ frame_needed = 0, uses_anonymous_args = 0
 1823              		@ link register save eliminated.
 1824              	.LVL160:
ARM GAS  /tmp/ccJZ9K5Y.s 			page 33


 1825              		.loc 1 1338 0
 1826 0000 C269     		ldr	r2, [r0, #28]
 1827              	.LVL161:
 1828              		.loc 1 1341 0
 1829 0002 4FF2FF73 		movw	r3, #63487
 1830 0006 1340     		ands	r3, r3, r2
 1831              	.LVL162:
 1832              		.loc 1 1344 0
 1833 0008 43EA0121 		orr	r1, r3, r1, lsl #8
 1834              	.LVL163:
 1835              		.loc 1 1347 0
 1836 000c 89B2     		uxth	r1, r1
 1837 000e C161     		str	r1, [r0, #28]
 1838 0010 7047     		bx	lr
 1839              		.cfi_endproc
 1840              	.LFE144:
 1841              		.size	TIM_OC4PreloadConfig, .-TIM_OC4PreloadConfig
 1842 0012 00BF     		.section	.text.TIM_OC1FastConfig,"ax",%progbits
 1843              		.align	2
 1844              		.p2align 4,,15
 1845              		.global	TIM_OC1FastConfig
 1846              		.thumb
 1847              		.thumb_func
 1848              		.type	TIM_OC1FastConfig, %function
 1849              	TIM_OC1FastConfig:
 1850              	.LFB145:
 1851              		.loc 1 1360 0
 1852              		.cfi_startproc
 1853              		@ args = 0, pretend = 0, frame = 0
 1854              		@ frame_needed = 0, uses_anonymous_args = 0
 1855              		@ link register save eliminated.
 1856              	.LVL164:
 1857              		.loc 1 1368 0
 1858 0000 8269     		ldr	r2, [r0, #24]
 1859              	.LVL165:
 1860              		.loc 1 1371 0
 1861 0002 4FF6FB73 		movw	r3, #65531
 1862 0006 1340     		ands	r3, r3, r2
 1863              	.LVL166:
 1864              		.loc 1 1377 0
 1865 0008 1943     		orrs	r1, r1, r3
 1866              	.LVL167:
 1867 000a 8161     		str	r1, [r0, #24]
 1868 000c 7047     		bx	lr
 1869              		.cfi_endproc
 1870              	.LFE145:
 1871              		.size	TIM_OC1FastConfig, .-TIM_OC1FastConfig
 1872 000e 00BF     		.section	.text.TIM_OC2FastConfig,"ax",%progbits
 1873              		.align	2
 1874              		.p2align 4,,15
 1875              		.global	TIM_OC2FastConfig
 1876              		.thumb
 1877              		.thumb_func
 1878              		.type	TIM_OC2FastConfig, %function
 1879              	TIM_OC2FastConfig:
 1880              	.LFB146:
 1881              		.loc 1 1391 0
ARM GAS  /tmp/ccJZ9K5Y.s 			page 34


 1882              		.cfi_startproc
 1883              		@ args = 0, pretend = 0, frame = 0
 1884              		@ frame_needed = 0, uses_anonymous_args = 0
 1885              		@ link register save eliminated.
 1886              	.LVL168:
 1887              		.loc 1 1399 0
 1888 0000 8269     		ldr	r2, [r0, #24]
 1889              	.LVL169:
 1890              		.loc 1 1402 0
 1891 0002 4FF6FF33 		movw	r3, #64511
 1892 0006 1340     		ands	r3, r3, r2
 1893              	.LVL170:
 1894              		.loc 1 1405 0
 1895 0008 43EA0121 		orr	r1, r3, r1, lsl #8
 1896              	.LVL171:
 1897              		.loc 1 1408 0
 1898 000c 89B2     		uxth	r1, r1
 1899 000e 8161     		str	r1, [r0, #24]
 1900 0010 7047     		bx	lr
 1901              		.cfi_endproc
 1902              	.LFE146:
 1903              		.size	TIM_OC2FastConfig, .-TIM_OC2FastConfig
 1904 0012 00BF     		.section	.text.TIM_OC3FastConfig,"ax",%progbits
 1905              		.align	2
 1906              		.p2align 4,,15
 1907              		.global	TIM_OC3FastConfig
 1908              		.thumb
 1909              		.thumb_func
 1910              		.type	TIM_OC3FastConfig, %function
 1911              	TIM_OC3FastConfig:
 1912              	.LFB147:
 1913              		.loc 1 1421 0
 1914              		.cfi_startproc
 1915              		@ args = 0, pretend = 0, frame = 0
 1916              		@ frame_needed = 0, uses_anonymous_args = 0
 1917              		@ link register save eliminated.
 1918              	.LVL172:
 1919              		.loc 1 1429 0
 1920 0000 C269     		ldr	r2, [r0, #28]
 1921              	.LVL173:
 1922              		.loc 1 1432 0
 1923 0002 4FF6FB73 		movw	r3, #65531
 1924 0006 1340     		ands	r3, r3, r2
 1925              	.LVL174:
 1926              		.loc 1 1438 0
 1927 0008 1943     		orrs	r1, r1, r3
 1928              	.LVL175:
 1929 000a C161     		str	r1, [r0, #28]
 1930 000c 7047     		bx	lr
 1931              		.cfi_endproc
 1932              	.LFE147:
 1933              		.size	TIM_OC3FastConfig, .-TIM_OC3FastConfig
 1934 000e 00BF     		.section	.text.TIM_OC4FastConfig,"ax",%progbits
 1935              		.align	2
 1936              		.p2align 4,,15
 1937              		.global	TIM_OC4FastConfig
 1938              		.thumb
ARM GAS  /tmp/ccJZ9K5Y.s 			page 35


 1939              		.thumb_func
 1940              		.type	TIM_OC4FastConfig, %function
 1941              	TIM_OC4FastConfig:
 1942              	.LFB148:
 1943              		.loc 1 1451 0
 1944              		.cfi_startproc
 1945              		@ args = 0, pretend = 0, frame = 0
 1946              		@ frame_needed = 0, uses_anonymous_args = 0
 1947              		@ link register save eliminated.
 1948              	.LVL176:
 1949              		.loc 1 1459 0
 1950 0000 C269     		ldr	r2, [r0, #28]
 1951              	.LVL177:
 1952              		.loc 1 1462 0
 1953 0002 4FF6FF33 		movw	r3, #64511
 1954 0006 1340     		ands	r3, r3, r2
 1955              	.LVL178:
 1956              		.loc 1 1465 0
 1957 0008 43EA0121 		orr	r1, r3, r1, lsl #8
 1958              	.LVL179:
 1959              		.loc 1 1468 0
 1960 000c 89B2     		uxth	r1, r1
 1961 000e C161     		str	r1, [r0, #28]
 1962 0010 7047     		bx	lr
 1963              		.cfi_endproc
 1964              	.LFE148:
 1965              		.size	TIM_OC4FastConfig, .-TIM_OC4FastConfig
 1966 0012 00BF     		.section	.text.TIM_ClearOC1Ref,"ax",%progbits
 1967              		.align	2
 1968              		.p2align 4,,15
 1969              		.global	TIM_ClearOC1Ref
 1970              		.thumb
 1971              		.thumb_func
 1972              		.type	TIM_ClearOC1Ref, %function
 1973              	TIM_ClearOC1Ref:
 1974              	.LFB149:
 1975              		.loc 1 1481 0
 1976              		.cfi_startproc
 1977              		@ args = 0, pretend = 0, frame = 0
 1978              		@ frame_needed = 0, uses_anonymous_args = 0
 1979              		@ link register save eliminated.
 1980              	.LVL180:
 1981              		.loc 1 1488 0
 1982 0000 8269     		ldr	r2, [r0, #24]
 1983              	.LVL181:
 1984              		.loc 1 1491 0
 1985 0002 4FF67F73 		movw	r3, #65407
 1986 0006 1340     		ands	r3, r3, r2
 1987              	.LVL182:
 1988              		.loc 1 1497 0
 1989 0008 1943     		orrs	r1, r1, r3
 1990              	.LVL183:
 1991 000a 8161     		str	r1, [r0, #24]
 1992 000c 7047     		bx	lr
 1993              		.cfi_endproc
 1994              	.LFE149:
 1995              		.size	TIM_ClearOC1Ref, .-TIM_ClearOC1Ref
ARM GAS  /tmp/ccJZ9K5Y.s 			page 36


 1996 000e 00BF     		.section	.text.TIM_ClearOC2Ref,"ax",%progbits
 1997              		.align	2
 1998              		.p2align 4,,15
 1999              		.global	TIM_ClearOC2Ref
 2000              		.thumb
 2001              		.thumb_func
 2002              		.type	TIM_ClearOC2Ref, %function
 2003              	TIM_ClearOC2Ref:
 2004              	.LFB150:
 2005              		.loc 1 1511 0
 2006              		.cfi_startproc
 2007              		@ args = 0, pretend = 0, frame = 0
 2008              		@ frame_needed = 0, uses_anonymous_args = 0
 2009              		@ link register save eliminated.
 2010              	.LVL184:
 2011              		.loc 1 1518 0
 2012 0000 8369     		ldr	r3, [r0, #24]
 2013              	.LVL185:
 2014              		.loc 1 1521 0
 2015 0002 C3F30E03 		ubfx	r3, r3, #0, #15
 2016              	.LVL186:
 2017              		.loc 1 1524 0
 2018 0006 43EA0121 		orr	r1, r3, r1, lsl #8
 2019              	.LVL187:
 2020              		.loc 1 1527 0
 2021 000a 89B2     		uxth	r1, r1
 2022 000c 8161     		str	r1, [r0, #24]
 2023 000e 7047     		bx	lr
 2024              		.cfi_endproc
 2025              	.LFE150:
 2026              		.size	TIM_ClearOC2Ref, .-TIM_ClearOC2Ref
 2027              		.section	.text.TIM_ClearOC3Ref,"ax",%progbits
 2028              		.align	2
 2029              		.p2align 4,,15
 2030              		.global	TIM_ClearOC3Ref
 2031              		.thumb
 2032              		.thumb_func
 2033              		.type	TIM_ClearOC3Ref, %function
 2034              	TIM_ClearOC3Ref:
 2035              	.LFB151:
 2036              		.loc 1 1540 0
 2037              		.cfi_startproc
 2038              		@ args = 0, pretend = 0, frame = 0
 2039              		@ frame_needed = 0, uses_anonymous_args = 0
 2040              		@ link register save eliminated.
 2041              	.LVL188:
 2042              		.loc 1 1547 0
 2043 0000 C269     		ldr	r2, [r0, #28]
 2044              	.LVL189:
 2045              		.loc 1 1550 0
 2046 0002 4FF67F73 		movw	r3, #65407
 2047 0006 1340     		ands	r3, r3, r2
 2048              	.LVL190:
 2049              		.loc 1 1556 0
 2050 0008 1943     		orrs	r1, r1, r3
 2051              	.LVL191:
 2052 000a C161     		str	r1, [r0, #28]
ARM GAS  /tmp/ccJZ9K5Y.s 			page 37


 2053 000c 7047     		bx	lr
 2054              		.cfi_endproc
 2055              	.LFE151:
 2056              		.size	TIM_ClearOC3Ref, .-TIM_ClearOC3Ref
 2057 000e 00BF     		.section	.text.TIM_ClearOC4Ref,"ax",%progbits
 2058              		.align	2
 2059              		.p2align 4,,15
 2060              		.global	TIM_ClearOC4Ref
 2061              		.thumb
 2062              		.thumb_func
 2063              		.type	TIM_ClearOC4Ref, %function
 2064              	TIM_ClearOC4Ref:
 2065              	.LFB152:
 2066              		.loc 1 1569 0
 2067              		.cfi_startproc
 2068              		@ args = 0, pretend = 0, frame = 0
 2069              		@ frame_needed = 0, uses_anonymous_args = 0
 2070              		@ link register save eliminated.
 2071              	.LVL192:
 2072              		.loc 1 1576 0
 2073 0000 C369     		ldr	r3, [r0, #28]
 2074              	.LVL193:
 2075              		.loc 1 1579 0
 2076 0002 C3F30E03 		ubfx	r3, r3, #0, #15
 2077              	.LVL194:
 2078              		.loc 1 1582 0
 2079 0006 43EA0121 		orr	r1, r3, r1, lsl #8
 2080              	.LVL195:
 2081              		.loc 1 1585 0
 2082 000a 89B2     		uxth	r1, r1
 2083 000c C161     		str	r1, [r0, #28]
 2084 000e 7047     		bx	lr
 2085              		.cfi_endproc
 2086              	.LFE152:
 2087              		.size	TIM_ClearOC4Ref, .-TIM_ClearOC4Ref
 2088              		.section	.text.TIM_OC1PolarityConfig,"ax",%progbits
 2089              		.align	2
 2090              		.p2align 4,,15
 2091              		.global	TIM_OC1PolarityConfig
 2092              		.thumb
 2093              		.thumb_func
 2094              		.type	TIM_OC1PolarityConfig, %function
 2095              	TIM_OC1PolarityConfig:
 2096              	.LFB153:
 2097              		.loc 1 1598 0
 2098              		.cfi_startproc
 2099              		@ args = 0, pretend = 0, frame = 0
 2100              		@ frame_needed = 0, uses_anonymous_args = 0
 2101              		@ link register save eliminated.
 2102              	.LVL196:
 2103              		.loc 1 1605 0
 2104 0000 026A     		ldr	r2, [r0, #32]
 2105              	.LVL197:
 2106              		.loc 1 1608 0
 2107 0002 4FF6FD73 		movw	r3, #65533
 2108 0006 1340     		ands	r3, r3, r2
 2109              	.LVL198:
ARM GAS  /tmp/ccJZ9K5Y.s 			page 38


 2110              		.loc 1 1612 0
 2111 0008 1943     		orrs	r1, r1, r3
 2112              	.LVL199:
 2113 000a 0162     		str	r1, [r0, #32]
 2114 000c 7047     		bx	lr
 2115              		.cfi_endproc
 2116              	.LFE153:
 2117              		.size	TIM_OC1PolarityConfig, .-TIM_OC1PolarityConfig
 2118 000e 00BF     		.section	.text.TIM_OC1NPolarityConfig,"ax",%progbits
 2119              		.align	2
 2120              		.p2align 4,,15
 2121              		.global	TIM_OC1NPolarityConfig
 2122              		.thumb
 2123              		.thumb_func
 2124              		.type	TIM_OC1NPolarityConfig, %function
 2125              	TIM_OC1NPolarityConfig:
 2126              	.LFB154:
 2127              		.loc 1 1625 0
 2128              		.cfi_startproc
 2129              		@ args = 0, pretend = 0, frame = 0
 2130              		@ frame_needed = 0, uses_anonymous_args = 0
 2131              		@ link register save eliminated.
 2132              	.LVL200:
 2133              		.loc 1 1631 0
 2134 0000 026A     		ldr	r2, [r0, #32]
 2135              	.LVL201:
 2136              		.loc 1 1634 0
 2137 0002 4FF6F773 		movw	r3, #65527
 2138 0006 1340     		ands	r3, r3, r2
 2139              	.LVL202:
 2140              		.loc 1 1638 0
 2141 0008 1943     		orrs	r1, r1, r3
 2142              	.LVL203:
 2143 000a 0162     		str	r1, [r0, #32]
 2144 000c 7047     		bx	lr
 2145              		.cfi_endproc
 2146              	.LFE154:
 2147              		.size	TIM_OC1NPolarityConfig, .-TIM_OC1NPolarityConfig
 2148 000e 00BF     		.section	.text.TIM_OC2PolarityConfig,"ax",%progbits
 2149              		.align	2
 2150              		.p2align 4,,15
 2151              		.global	TIM_OC2PolarityConfig
 2152              		.thumb
 2153              		.thumb_func
 2154              		.type	TIM_OC2PolarityConfig, %function
 2155              	TIM_OC2PolarityConfig:
 2156              	.LFB155:
 2157              		.loc 1 1652 0
 2158              		.cfi_startproc
 2159              		@ args = 0, pretend = 0, frame = 0
 2160              		@ frame_needed = 0, uses_anonymous_args = 0
 2161              		@ link register save eliminated.
 2162              	.LVL204:
 2163              		.loc 1 1659 0
 2164 0000 026A     		ldr	r2, [r0, #32]
 2165              	.LVL205:
 2166              		.loc 1 1662 0
ARM GAS  /tmp/ccJZ9K5Y.s 			page 39


 2167 0002 4FF6DF73 		movw	r3, #65503
 2168 0006 1340     		ands	r3, r3, r2
 2169              	.LVL206:
 2170              		.loc 1 1663 0
 2171 0008 43EA0111 		orr	r1, r3, r1, lsl #4
 2172              	.LVL207:
 2173              		.loc 1 1666 0
 2174 000c 89B2     		uxth	r1, r1
 2175 000e 0162     		str	r1, [r0, #32]
 2176 0010 7047     		bx	lr
 2177              		.cfi_endproc
 2178              	.LFE155:
 2179              		.size	TIM_OC2PolarityConfig, .-TIM_OC2PolarityConfig
 2180 0012 00BF     		.section	.text.TIM_OC2NPolarityConfig,"ax",%progbits
 2181              		.align	2
 2182              		.p2align 4,,15
 2183              		.global	TIM_OC2NPolarityConfig
 2184              		.thumb
 2185              		.thumb_func
 2186              		.type	TIM_OC2NPolarityConfig, %function
 2187              	TIM_OC2NPolarityConfig:
 2188              	.LFB156:
 2189              		.loc 1 1679 0
 2190              		.cfi_startproc
 2191              		@ args = 0, pretend = 0, frame = 0
 2192              		@ frame_needed = 0, uses_anonymous_args = 0
 2193              		@ link register save eliminated.
 2194              	.LVL208:
 2195              		.loc 1 1686 0
 2196 0000 026A     		ldr	r2, [r0, #32]
 2197              	.LVL209:
 2198              		.loc 1 1689 0
 2199 0002 4FF67F73 		movw	r3, #65407
 2200 0006 1340     		ands	r3, r3, r2
 2201              	.LVL210:
 2202              		.loc 1 1690 0
 2203 0008 43EA0111 		orr	r1, r3, r1, lsl #4
 2204              	.LVL211:
 2205              		.loc 1 1693 0
 2206 000c 89B2     		uxth	r1, r1
 2207 000e 0162     		str	r1, [r0, #32]
 2208 0010 7047     		bx	lr
 2209              		.cfi_endproc
 2210              	.LFE156:
 2211              		.size	TIM_OC2NPolarityConfig, .-TIM_OC2NPolarityConfig
 2212 0012 00BF     		.section	.text.TIM_OC3PolarityConfig,"ax",%progbits
 2213              		.align	2
 2214              		.p2align 4,,15
 2215              		.global	TIM_OC3PolarityConfig
 2216              		.thumb
 2217              		.thumb_func
 2218              		.type	TIM_OC3PolarityConfig, %function
 2219              	TIM_OC3PolarityConfig:
 2220              	.LFB157:
 2221              		.loc 1 1706 0
 2222              		.cfi_startproc
 2223              		@ args = 0, pretend = 0, frame = 0
ARM GAS  /tmp/ccJZ9K5Y.s 			page 40


 2224              		@ frame_needed = 0, uses_anonymous_args = 0
 2225              		@ link register save eliminated.
 2226              	.LVL212:
 2227              		.loc 1 1713 0
 2228 0000 026A     		ldr	r2, [r0, #32]
 2229              	.LVL213:
 2230              		.loc 1 1716 0
 2231 0002 4FF6FF53 		movw	r3, #65023
 2232 0006 1340     		ands	r3, r3, r2
 2233              	.LVL214:
 2234              		.loc 1 1717 0
 2235 0008 43EA0121 		orr	r1, r3, r1, lsl #8
 2236              	.LVL215:
 2237              		.loc 1 1720 0
 2238 000c 89B2     		uxth	r1, r1
 2239 000e 0162     		str	r1, [r0, #32]
 2240 0010 7047     		bx	lr
 2241              		.cfi_endproc
 2242              	.LFE157:
 2243              		.size	TIM_OC3PolarityConfig, .-TIM_OC3PolarityConfig
 2244 0012 00BF     		.section	.text.TIM_OC3NPolarityConfig,"ax",%progbits
 2245              		.align	2
 2246              		.p2align 4,,15
 2247              		.global	TIM_OC3NPolarityConfig
 2248              		.thumb
 2249              		.thumb_func
 2250              		.type	TIM_OC3NPolarityConfig, %function
 2251              	TIM_OC3NPolarityConfig:
 2252              	.LFB158:
 2253              		.loc 1 1733 0
 2254              		.cfi_startproc
 2255              		@ args = 0, pretend = 0, frame = 0
 2256              		@ frame_needed = 0, uses_anonymous_args = 0
 2257              		@ link register save eliminated.
 2258              	.LVL216:
 2259              		.loc 1 1740 0
 2260 0000 026A     		ldr	r2, [r0, #32]
 2261              	.LVL217:
 2262              		.loc 1 1743 0
 2263 0002 4FF2FF73 		movw	r3, #63487
 2264 0006 1340     		ands	r3, r3, r2
 2265              	.LVL218:
 2266              		.loc 1 1744 0
 2267 0008 43EA0121 		orr	r1, r3, r1, lsl #8
 2268              	.LVL219:
 2269              		.loc 1 1747 0
 2270 000c 89B2     		uxth	r1, r1
 2271 000e 0162     		str	r1, [r0, #32]
 2272 0010 7047     		bx	lr
 2273              		.cfi_endproc
 2274              	.LFE158:
 2275              		.size	TIM_OC3NPolarityConfig, .-TIM_OC3NPolarityConfig
 2276 0012 00BF     		.section	.text.TIM_OC4PolarityConfig,"ax",%progbits
 2277              		.align	2
 2278              		.p2align 4,,15
 2279              		.global	TIM_OC4PolarityConfig
 2280              		.thumb
ARM GAS  /tmp/ccJZ9K5Y.s 			page 41


 2281              		.thumb_func
 2282              		.type	TIM_OC4PolarityConfig, %function
 2283              	TIM_OC4PolarityConfig:
 2284              	.LFB159:
 2285              		.loc 1 1760 0
 2286              		.cfi_startproc
 2287              		@ args = 0, pretend = 0, frame = 0
 2288              		@ frame_needed = 0, uses_anonymous_args = 0
 2289              		@ link register save eliminated.
 2290              	.LVL220:
 2291              		.loc 1 1767 0
 2292 0000 026A     		ldr	r2, [r0, #32]
 2293              	.LVL221:
 2294              		.loc 1 1770 0
 2295 0002 4DF6FF73 		movw	r3, #57343
 2296 0006 1340     		ands	r3, r3, r2
 2297              	.LVL222:
 2298              		.loc 1 1771 0
 2299 0008 43EA0131 		orr	r1, r3, r1, lsl #12
 2300              	.LVL223:
 2301              		.loc 1 1774 0
 2302 000c 89B2     		uxth	r1, r1
 2303 000e 0162     		str	r1, [r0, #32]
 2304 0010 7047     		bx	lr
 2305              		.cfi_endproc
 2306              	.LFE159:
 2307              		.size	TIM_OC4PolarityConfig, .-TIM_OC4PolarityConfig
 2308 0012 00BF     		.section	.text.TIM_CCxCmd,"ax",%progbits
 2309              		.align	2
 2310              		.p2align 4,,15
 2311              		.global	TIM_CCxCmd
 2312              		.thumb
 2313              		.thumb_func
 2314              		.type	TIM_CCxCmd, %function
 2315              	TIM_CCxCmd:
 2316              	.LFB160:
 2317              		.loc 1 1791 0
 2318              		.cfi_startproc
 2319              		@ args = 0, pretend = 0, frame = 0
 2320              		@ frame_needed = 0, uses_anonymous_args = 0
 2321              		@ link register save eliminated.
 2322              	.LVL224:
 2323              		.loc 1 1799 0
 2324 0000 0123     		movs	r3, #1
 2325 0002 8B40     		lsls	r3, r3, r1
 2326              		.loc 1 1791 0
 2327 0004 10B4     		push	{r4}
 2328              		.cfi_def_cfa_offset 4
 2329              		.cfi_offset 4, -4
 2330              		.loc 1 1802 0
 2331 0006 DB43     		mvns	r3, r3
 2332 0008 046A     		ldr	r4, [r0, #32]
 2333 000a 9BB2     		uxth	r3, r3
 2334 000c 2340     		ands	r3, r3, r4
 2335 000e 0362     		str	r3, [r0, #32]
 2336              		.loc 1 1805 0
 2337 0010 036A     		ldr	r3, [r0, #32]
ARM GAS  /tmp/ccJZ9K5Y.s 			page 42


 2338              		.loc 1 1806 0
 2339 0012 5DF8044B 		ldr	r4, [sp], #4
 2340              		.cfi_restore 4
 2341              		.cfi_def_cfa_offset 0
 2342              		.loc 1 1805 0
 2343 0016 8A40     		lsls	r2, r2, r1
 2344              	.LVL225:
 2345 0018 92B2     		uxth	r2, r2
 2346 001a 1A43     		orrs	r2, r2, r3
 2347 001c 0262     		str	r2, [r0, #32]
 2348              		.loc 1 1806 0
 2349 001e 7047     		bx	lr
 2350              		.cfi_endproc
 2351              	.LFE160:
 2352              		.size	TIM_CCxCmd, .-TIM_CCxCmd
 2353              		.section	.text.TIM_CCxNCmd,"ax",%progbits
 2354              		.align	2
 2355              		.p2align 4,,15
 2356              		.global	TIM_CCxNCmd
 2357              		.thumb
 2358              		.thumb_func
 2359              		.type	TIM_CCxNCmd, %function
 2360              	TIM_CCxNCmd:
 2361              	.LFB161:
 2362              		.loc 1 1821 0
 2363              		.cfi_startproc
 2364              		@ args = 0, pretend = 0, frame = 0
 2365              		@ frame_needed = 0, uses_anonymous_args = 0
 2366              		@ link register save eliminated.
 2367              	.LVL226:
 2368              		.loc 1 1829 0
 2369 0000 0423     		movs	r3, #4
 2370 0002 8B40     		lsls	r3, r3, r1
 2371              		.loc 1 1821 0
 2372 0004 10B4     		push	{r4}
 2373              		.cfi_def_cfa_offset 4
 2374              		.cfi_offset 4, -4
 2375              		.loc 1 1832 0
 2376 0006 DB43     		mvns	r3, r3
 2377 0008 046A     		ldr	r4, [r0, #32]
 2378 000a 9BB2     		uxth	r3, r3
 2379 000c 2340     		ands	r3, r3, r4
 2380 000e 0362     		str	r3, [r0, #32]
 2381              		.loc 1 1835 0
 2382 0010 036A     		ldr	r3, [r0, #32]
 2383              		.loc 1 1836 0
 2384 0012 5DF8044B 		ldr	r4, [sp], #4
 2385              		.cfi_restore 4
 2386              		.cfi_def_cfa_offset 0
 2387              		.loc 1 1835 0
 2388 0016 8A40     		lsls	r2, r2, r1
 2389              	.LVL227:
 2390 0018 92B2     		uxth	r2, r2
 2391 001a 1A43     		orrs	r2, r2, r3
 2392 001c 0262     		str	r2, [r0, #32]
 2393              		.loc 1 1836 0
 2394 001e 7047     		bx	lr
ARM GAS  /tmp/ccJZ9K5Y.s 			page 43


 2395              		.cfi_endproc
 2396              	.LFE161:
 2397              		.size	TIM_CCxNCmd, .-TIM_CCxNCmd
 2398              		.section	.text.TIM_ICInit,"ax",%progbits
 2399              		.align	2
 2400              		.p2align 4,,15
 2401              		.global	TIM_ICInit
 2402              		.thumb
 2403              		.thumb_func
 2404              		.type	TIM_ICInit, %function
 2405              	TIM_ICInit:
 2406              	.LFB162:
 2407              		.loc 1 1905 0
 2408              		.cfi_startproc
 2409              		@ args = 0, pretend = 0, frame = 0
 2410              		@ frame_needed = 0, uses_anonymous_args = 0
 2411              	.LVL228:
 2412              		.loc 1 1913 0
 2413 0000 0B88     		ldrh	r3, [r1]
 2414              		.loc 1 1905 0
 2415 0002 F0B5     		push	{r4, r5, r6, r7, lr}
 2416              		.cfi_def_cfa_offset 20
 2417              		.cfi_offset 4, -20
 2418              		.cfi_offset 5, -16
 2419              		.cfi_offset 6, -12
 2420              		.cfi_offset 7, -8
 2421              		.cfi_offset 14, -4
 2422              		.loc 1 1913 0
 2423 0004 6BB3     		cbz	r3, .L142
 2424              		.loc 1 1922 0
 2425 0006 042B     		cmp	r3, #4
 2426 0008 4ED0     		beq	.L143
 2427              		.loc 1 1932 0
 2428 000a 082B     		cmp	r3, #8
 2429              		.loc 1 1936 0
 2430 000c 4E88     		ldrh	r6, [r1, #2]
 2431              	.LBB46:
 2432              	.LBB47:
 2433              		.loc 1 3297 0
 2434 000e 036A     		ldr	r3, [r0, #32]
 2435              	.LBE47:
 2436              	.LBE46:
 2437              		.loc 1 1936 0
 2438 0010 8C88     		ldrh	r4, [r1, #4]
 2439 0012 0A89     		ldrh	r2, [r1, #8]
 2440              	.LVL229:
 2441              		.loc 1 1940 0
 2442 0014 CD88     		ldrh	r5, [r1, #6]
 2443              		.loc 1 1932 0
 2444 0016 71D0     		beq	.L144
 2445              	.LBB49:
 2446              	.LBB50:
 2447              		.loc 1 3338 0
 2448 0018 4EF6FF71 		movw	r1, #61439
 2449              	.LVL230:
 2450 001c 1940     		ands	r1, r1, r3
 2451 001e 0162     		str	r1, [r0, #32]
ARM GAS  /tmp/ccJZ9K5Y.s 			page 44


 2452              		.loc 1 3339 0
 2453 0020 C769     		ldr	r7, [r0, #28]
 2454              	.LVL231:
 2455              		.loc 1 3340 0
 2456 0022 D0F820E0 		ldr	lr, [r0, #32]
 2457              	.LVL232:
 2458              		.loc 1 3349 0
 2459 0026 45F6FF73 		movw	r3, #24575
 2460              		.loc 1 3345 0
 2461 002a 2102     		lsls	r1, r4, #8
 2462              		.loc 1 3349 0
 2463 002c 0EEA0303 		and	r3, lr, r3
 2464              		.loc 1 3344 0
 2465 0030 40F6FF44 		movw	r4, #3327
 2466              	.LVL233:
 2467 0034 41EA0232 		orr	r2, r1, r2, lsl #12
 2468              	.LVL234:
 2469 0038 3C40     		ands	r4, r4, r7
 2470              	.LVL235:
 2471 003a 43EA0633 		orr	r3, r3, r6, lsl #12
 2472              	.LVL236:
 2473              		.loc 1 3346 0
 2474 003e 2243     		orrs	r2, r2, r4
 2475              		.loc 1 3350 0
 2476 0040 43F48053 		orr	r3, r3, #4096
 2477              		.loc 1 3353 0
 2478 0044 92B2     		uxth	r2, r2
 2479              		.loc 1 3354 0
 2480 0046 9BB2     		uxth	r3, r3
 2481              		.loc 1 3353 0
 2482 0048 C261     		str	r2, [r0, #28]
 2483              		.loc 1 3354 0
 2484 004a 0362     		str	r3, [r0, #32]
 2485              	.LBE50:
 2486              	.LBE49:
 2487              	.LBB51:
 2488              	.LBB52:
 2489              		.loc 1 2179 0
 2490 004c C269     		ldr	r2, [r0, #28]
 2491 004e 4FF2FF33 		movw	r3, #62463
 2492 0052 1340     		ands	r3, r3, r2
 2493 0054 C361     		str	r3, [r0, #28]
 2494              		.loc 1 2182 0
 2495 0056 C269     		ldr	r2, [r0, #28]
 2496 0058 2B02     		lsls	r3, r5, #8
 2497 005a 9BB2     		uxth	r3, r3
 2498 005c 1343     		orrs	r3, r3, r2
 2499 005e C361     		str	r3, [r0, #28]
 2500 0060 F0BD     		pop	{r4, r5, r6, r7, pc}
 2501              	.LVL237:
 2502              	.L142:
 2503              	.LBE52:
 2504              	.LBE51:
 2505              	.LBB53:
 2506              	.LBB54:
 2507              		.loc 1 3214 0
 2508 0062 056A     		ldr	r5, [r0, #32]
ARM GAS  /tmp/ccJZ9K5Y.s 			page 45


 2509              	.LBE54:
 2510              	.LBE53:
 2511              		.loc 1 1916 0
 2512 0064 8A88     		ldrh	r2, [r1, #4]
 2513 0066 4C88     		ldrh	r4, [r1, #2]
 2514 0068 0B89     		ldrh	r3, [r1, #8]
 2515              	.LVL238:
 2516              		.loc 1 1920 0
 2517 006a CE88     		ldrh	r6, [r1, #6]
 2518              	.LBB56:
 2519              	.LBB55:
 2520              		.loc 1 3214 0
 2521 006c 4FF6FE71 		movw	r1, #65534
 2522              	.LVL239:
 2523 0070 2940     		ands	r1, r1, r5
 2524 0072 0162     		str	r1, [r0, #32]
 2525              		.loc 1 3215 0
 2526 0074 8169     		ldr	r1, [r0, #24]
 2527              	.LVL240:
 2528              		.loc 1 3216 0
 2529 0076 076A     		ldr	r7, [r0, #32]
 2530              	.LVL241:
 2531              		.loc 1 3219 0
 2532 0078 4FF60C75 		movw	r5, #65292
 2533              		.loc 1 3220 0
 2534 007c 42EA0313 		orr	r3, r2, r3, lsl #4
 2535              	.LVL242:
 2536              		.loc 1 3219 0
 2537 0080 0D40     		ands	r5, r5, r1
 2538              	.LVL243:
 2539              		.loc 1 3223 0
 2540 0082 4FF6F571 		movw	r1, #65525
 2541 0086 44F00102 		orr	r2, r4, #1
 2542              	.LVL244:
 2543              		.loc 1 3220 0
 2544 008a 2B43     		orrs	r3, r3, r5
 2545              		.loc 1 3223 0
 2546 008c 3940     		ands	r1, r1, r7
 2547              	.LVL245:
 2548              		.loc 1 3227 0
 2549 008e 9BB2     		uxth	r3, r3
 2550              		.loc 1 3228 0
 2551 0090 0A43     		orrs	r2, r2, r1
 2552              		.loc 1 3227 0
 2553 0092 8361     		str	r3, [r0, #24]
 2554              		.loc 1 3228 0
 2555 0094 0262     		str	r2, [r0, #32]
 2556              	.LBE55:
 2557              	.LBE56:
 2558              	.LBB57:
 2559              	.LBB58:
 2560              		.loc 1 2106 0
 2561 0096 8369     		ldr	r3, [r0, #24]
 2562 0098 4FF6F372 		movw	r2, #65523
 2563 009c 1A40     		ands	r2, r2, r3
 2564 009e 8261     		str	r2, [r0, #24]
 2565              		.loc 1 2109 0
ARM GAS  /tmp/ccJZ9K5Y.s 			page 46


 2566 00a0 8369     		ldr	r3, [r0, #24]
 2567 00a2 3343     		orrs	r3, r3, r6
 2568 00a4 8361     		str	r3, [r0, #24]
 2569 00a6 F0BD     		pop	{r4, r5, r6, r7, pc}
 2570              	.LVL246:
 2571              	.L143:
 2572              	.LBE58:
 2573              	.LBE57:
 2574              	.LBB59:
 2575              	.LBB60:
 2576              		.loc 1 3255 0
 2577 00a8 036A     		ldr	r3, [r0, #32]
 2578              	.LBE60:
 2579              	.LBE59:
 2580              		.loc 1 1926 0
 2581 00aa 0C89     		ldrh	r4, [r1, #8]
 2582              	.LVL247:
 2583 00ac 4E88     		ldrh	r6, [r1, #2]
 2584              	.LVL248:
 2585 00ae 8A88     		ldrh	r2, [r1, #4]
 2586              	.LVL249:
 2587              		.loc 1 1930 0
 2588 00b0 CD88     		ldrh	r5, [r1, #6]
 2589              	.LBB62:
 2590              	.LBB61:
 2591              		.loc 1 3255 0
 2592 00b2 4FF6EF71 		movw	r1, #65519
 2593              	.LVL250:
 2594 00b6 1940     		ands	r1, r1, r3
 2595 00b8 0162     		str	r1, [r0, #32]
 2596              		.loc 1 3256 0
 2597 00ba 8769     		ldr	r7, [r0, #24]
 2598              	.LVL251:
 2599              		.loc 1 3257 0
 2600 00bc D0F820E0 		ldr	lr, [r0, #32]
 2601              	.LVL252:
 2602              		.loc 1 3266 0
 2603 00c0 4FF65F73 		movw	r3, #65375
 2604              		.loc 1 3262 0
 2605 00c4 2103     		lsls	r1, r4, #12
 2606              		.loc 1 3266 0
 2607 00c6 0EEA0303 		and	r3, lr, r3
 2608              		.loc 1 3261 0
 2609 00ca 40F6FF44 		movw	r4, #3327
 2610              	.LVL253:
 2611 00ce 41EA0222 		orr	r2, r1, r2, lsl #8
 2612              	.LVL254:
 2613 00d2 3C40     		ands	r4, r4, r7
 2614              	.LVL255:
 2615 00d4 43EA0613 		orr	r3, r3, r6, lsl #4
 2616              	.LVL256:
 2617              		.loc 1 3263 0
 2618 00d8 2243     		orrs	r2, r2, r4
 2619              		.loc 1 3267 0
 2620 00da 43F01003 		orr	r3, r3, #16
 2621              		.loc 1 3270 0
 2622 00de 92B2     		uxth	r2, r2
ARM GAS  /tmp/ccJZ9K5Y.s 			page 47


 2623              		.loc 1 3271 0
 2624 00e0 9BB2     		uxth	r3, r3
 2625              		.loc 1 3270 0
 2626 00e2 8261     		str	r2, [r0, #24]
 2627              		.loc 1 3271 0
 2628 00e4 0362     		str	r3, [r0, #32]
 2629              	.LBE61:
 2630              	.LBE62:
 2631              	.LBB63:
 2632              	.LBB64:
 2633              		.loc 1 2131 0
 2634 00e6 8269     		ldr	r2, [r0, #24]
 2635 00e8 4FF2FF33 		movw	r3, #62463
 2636 00ec 1340     		ands	r3, r3, r2
 2637 00ee 8361     		str	r3, [r0, #24]
 2638              		.loc 1 2134 0
 2639 00f0 8269     		ldr	r2, [r0, #24]
 2640 00f2 2B02     		lsls	r3, r5, #8
 2641 00f4 9BB2     		uxth	r3, r3
 2642 00f6 1343     		orrs	r3, r3, r2
 2643 00f8 8361     		str	r3, [r0, #24]
 2644 00fa F0BD     		pop	{r4, r5, r6, r7, pc}
 2645              	.LVL257:
 2646              	.L144:
 2647              	.LBE64:
 2648              	.LBE63:
 2649              	.LBB65:
 2650              	.LBB48:
 2651              		.loc 1 3297 0
 2652 00fc 4FF6FF61 		movw	r1, #65279
 2653              	.LVL258:
 2654 0100 1940     		ands	r1, r1, r3
 2655 0102 0162     		str	r1, [r0, #32]
 2656              		.loc 1 3298 0
 2657 0104 C769     		ldr	r7, [r0, #28]
 2658              	.LVL259:
 2659              		.loc 1 3299 0
 2660 0106 D0F820E0 		ldr	lr, [r0, #32]
 2661              	.LVL260:
 2662              		.loc 1 3307 0
 2663 010a 4FF2FF53 		movw	r3, #62975
 2664              		.loc 1 3303 0
 2665 010e 4FF60C71 		movw	r1, #65292
 2666              		.loc 1 3307 0
 2667 0112 0EEA0303 		and	r3, lr, r3
 2668              		.loc 1 3304 0
 2669 0116 44EA0212 		orr	r2, r4, r2, lsl #4
 2670              	.LVL261:
 2671              		.loc 1 3303 0
 2672 011a 3940     		ands	r1, r1, r7
 2673              	.LVL262:
 2674 011c 43EA0623 		orr	r3, r3, r6, lsl #8
 2675              	.LVL263:
 2676              		.loc 1 3304 0
 2677 0120 0A43     		orrs	r2, r2, r1
 2678              		.loc 1 3308 0
 2679 0122 43F48073 		orr	r3, r3, #256
ARM GAS  /tmp/ccJZ9K5Y.s 			page 48


 2680              		.loc 1 3311 0
 2681 0126 92B2     		uxth	r2, r2
 2682              		.loc 1 3312 0
 2683 0128 9BB2     		uxth	r3, r3
 2684              		.loc 1 3311 0
 2685 012a C261     		str	r2, [r0, #28]
 2686              		.loc 1 3312 0
 2687 012c 0362     		str	r3, [r0, #32]
 2688              	.LBE48:
 2689              	.LBE65:
 2690              	.LBB66:
 2691              	.LBB67:
 2692              		.loc 1 2155 0
 2693 012e C369     		ldr	r3, [r0, #28]
 2694 0130 4FF6F372 		movw	r2, #65523
 2695 0134 1A40     		ands	r2, r2, r3
 2696 0136 C261     		str	r2, [r0, #28]
 2697              		.loc 1 2158 0
 2698 0138 C369     		ldr	r3, [r0, #28]
 2699 013a 2B43     		orrs	r3, r3, r5
 2700 013c C361     		str	r3, [r0, #28]
 2701 013e F0BD     		pop	{r4, r5, r6, r7, pc}
 2702              	.LBE67:
 2703              	.LBE66:
 2704              		.cfi_endproc
 2705              	.LFE162:
 2706              		.size	TIM_ICInit, .-TIM_ICInit
 2707              		.section	.text.TIM_ICStructInit,"ax",%progbits
 2708              		.align	2
 2709              		.p2align 4,,15
 2710              		.global	TIM_ICStructInit
 2711              		.thumb
 2712              		.thumb_func
 2713              		.type	TIM_ICStructInit, %function
 2714              	TIM_ICStructInit:
 2715              	.LFB163:
 2716              		.loc 1 1961 0
 2717              		.cfi_startproc
 2718              		@ args = 0, pretend = 0, frame = 0
 2719              		@ frame_needed = 0, uses_anonymous_args = 0
 2720              		@ link register save eliminated.
 2721              	.LVL264:
 2722              		.loc 1 1963 0
 2723 0000 0023     		movs	r3, #0
 2724              		.loc 1 1965 0
 2725 0002 0122     		movs	r2, #1
 2726 0004 8280     		strh	r2, [r0, #4]	@ movhi
 2727              		.loc 1 1963 0
 2728 0006 0380     		strh	r3, [r0]	@ movhi
 2729              		.loc 1 1964 0
 2730 0008 4380     		strh	r3, [r0, #2]	@ movhi
 2731              		.loc 1 1966 0
 2732 000a C380     		strh	r3, [r0, #6]	@ movhi
 2733              		.loc 1 1967 0
 2734 000c 0381     		strh	r3, [r0, #8]	@ movhi
 2735 000e 7047     		bx	lr
 2736              		.cfi_endproc
ARM GAS  /tmp/ccJZ9K5Y.s 			page 49


 2737              	.LFE163:
 2738              		.size	TIM_ICStructInit, .-TIM_ICStructInit
 2739              		.section	.text.TIM_PWMIConfig,"ax",%progbits
 2740              		.align	2
 2741              		.p2align 4,,15
 2742              		.global	TIM_PWMIConfig
 2743              		.thumb
 2744              		.thumb_func
 2745              		.type	TIM_PWMIConfig, %function
 2746              	TIM_PWMIConfig:
 2747              	.LFB164:
 2748              		.loc 1 1980 0
 2749              		.cfi_startproc
 2750              		@ args = 0, pretend = 0, frame = 0
 2751              		@ frame_needed = 0, uses_anonymous_args = 0
 2752              	.LVL265:
 2753              		.loc 1 1988 0
 2754 0000 B1F802C0 		ldrh	ip, [r1, #2]
 2755              		.loc 1 2005 0
 2756 0004 0B88     		ldrh	r3, [r1]
 2757              	.LBB68:
 2758              	.LBB69:
 2759              		.loc 1 3214 0
 2760 0006 026A     		ldr	r2, [r0, #32]
 2761              	.LBE69:
 2762              	.LBE68:
 2763              		.loc 1 1980 0
 2764 0008 2DE9F043 		push	{r4, r5, r6, r7, r8, r9, lr}
 2765              		.cfi_def_cfa_offset 28
 2766              		.cfi_offset 4, -28
 2767              		.cfi_offset 5, -24
 2768              		.cfi_offset 6, -20
 2769              		.cfi_offset 7, -16
 2770              		.cfi_offset 8, -12
 2771              		.cfi_offset 9, -8
 2772              		.cfi_offset 14, -4
 2773              		.loc 1 1997 0
 2774 000c 8C88     		ldrh	r4, [r1, #4]
 2775              		.loc 1 1988 0
 2776 000e BCF1000F 		cmp	ip, #0
 2777              		.loc 1 1994 0
 2778 0012 0CBF     		ite	eq
 2779 0014 0225     		moveq	r5, #2
 2780 0016 0025     		movne	r5, #0
 2781              	.LVL266:
 2782              		.loc 1 1997 0
 2783 0018 012C     		cmp	r4, #1
 2784              		.loc 1 2003 0
 2785 001a 0CBF     		ite	eq
 2786 001c 0226     		moveq	r6, #2
 2787 001e 0126     		movne	r6, #1
 2788              	.LVL267:
 2789              		.loc 1 2005 0
 2790 0020 002B     		cmp	r3, #0
 2791 0022 48D0     		beq	.L154
 2792              	.LBB72:
 2793              	.LBB73:
ARM GAS  /tmp/ccJZ9K5Y.s 			page 50


 2794              		.loc 1 3255 0
 2795 0024 4FF6EF77 		movw	r7, #65519
 2796 0028 1740     		ands	r7, r7, r2
 2797              	.LBE73:
 2798              	.LBE72:
 2799              		.loc 1 2020 0
 2800 002a 0B89     		ldrh	r3, [r1, #8]
 2801              	.LVL268:
 2802              		.loc 1 2023 0
 2803 002c C988     		ldrh	r1, [r1, #6]
 2804              	.LVL269:
 2805              	.LBB75:
 2806              	.LBB74:
 2807              		.loc 1 3255 0
 2808 002e 0762     		str	r7, [r0, #32]
 2809              		.loc 1 3256 0
 2810 0030 D0F81880 		ldr	r8, [r0, #24]
 2811              	.LVL270:
 2812              		.loc 1 3257 0
 2813 0034 D0F82090 		ldr	r9, [r0, #32]
 2814              	.LVL271:
 2815              		.loc 1 3266 0
 2816 0038 4FF65F72 		movw	r2, #65375
 2817              		.loc 1 3262 0
 2818 003c 1F03     		lsls	r7, r3, #12
 2819              		.loc 1 3261 0
 2820 003e 40F6FF4E 		movw	lr, #3327
 2821              		.loc 1 3266 0
 2822 0042 09EA0202 		and	r2, r9, r2
 2823              		.loc 1 3261 0
 2824 0046 08EA0E0E 		and	lr, r8, lr
 2825              	.LVL272:
 2826 004a 47EA0424 		orr	r4, r7, r4, lsl #8
 2827              	.LVL273:
 2828 004e 42EA0C12 		orr	r2, r2, ip, lsl #4
 2829              	.LVL274:
 2830              		.loc 1 3263 0
 2831 0052 4EEA0404 		orr	r4, lr, r4
 2832              		.loc 1 3267 0
 2833 0056 42F01002 		orr	r2, r2, #16
 2834              		.loc 1 3270 0
 2835 005a A4B2     		uxth	r4, r4
 2836              		.loc 1 3271 0
 2837 005c 92B2     		uxth	r2, r2
 2838              		.loc 1 3270 0
 2839 005e 8461     		str	r4, [r0, #24]
 2840              		.loc 1 3271 0
 2841 0060 0262     		str	r2, [r0, #32]
 2842              	.LBE74:
 2843              	.LBE75:
 2844              	.LBB76:
 2845              	.LBB77:
 2846              		.loc 1 2131 0
 2847 0062 8469     		ldr	r4, [r0, #24]
 2848 0064 4FF2FF32 		movw	r2, #62463
 2849 0068 2240     		ands	r2, r2, r4
 2850 006a 8261     		str	r2, [r0, #24]
ARM GAS  /tmp/ccJZ9K5Y.s 			page 51


 2851              		.loc 1 2134 0
 2852 006c 8469     		ldr	r4, [r0, #24]
 2853 006e 0A02     		lsls	r2, r1, #8
 2854 0070 92B2     		uxth	r2, r2
 2855 0072 2243     		orrs	r2, r2, r4
 2856 0074 8261     		str	r2, [r0, #24]
 2857              	.LVL275:
 2858              	.LBE77:
 2859              	.LBE76:
 2860              	.LBB78:
 2861              	.LBB79:
 2862              		.loc 1 3214 0
 2863 0076 046A     		ldr	r4, [r0, #32]
 2864 0078 4FF6FE72 		movw	r2, #65534
 2865 007c 2240     		ands	r2, r2, r4
 2866 007e 0262     		str	r2, [r0, #32]
 2867              		.loc 1 3215 0
 2868 0080 8269     		ldr	r2, [r0, #24]
 2869              		.loc 1 3216 0
 2870 0082 046A     		ldr	r4, [r0, #32]
 2871              		.loc 1 3215 0
 2872 0084 92B2     		uxth	r2, r2
 2873              	.LVL276:
 2874              		.loc 1 3219 0
 2875 0086 22F0F302 		bic	r2, r2, #243
 2876              	.LVL277:
 2877              		.loc 1 3216 0
 2878 008a A4B2     		uxth	r4, r4
 2879              	.LVL278:
 2880 008c 42EA0313 		orr	r3, r2, r3, lsl #4
 2881              	.LVL279:
 2882              		.loc 1 3223 0
 2883 0090 24F00A02 		bic	r2, r4, #10
 2884 0094 42F00102 		orr	r2, r2, #1
 2885 0098 9BB2     		uxth	r3, r3
 2886              	.LVL280:
 2887              		.loc 1 3227 0
 2888 009a 3343     		orrs	r3, r3, r6
 2889              	.LVL281:
 2890              		.loc 1 3228 0
 2891 009c 1543     		orrs	r5, r5, r2
 2892              	.LVL282:
 2893              		.loc 1 3227 0
 2894 009e 8361     		str	r3, [r0, #24]
 2895              		.loc 1 3228 0
 2896 00a0 0562     		str	r5, [r0, #32]
 2897              	.LVL283:
 2898              	.LBE79:
 2899              	.LBE78:
 2900              	.LBB80:
 2901              	.LBB81:
 2902              		.loc 1 2106 0
 2903 00a2 8269     		ldr	r2, [r0, #24]
 2904 00a4 4FF6F373 		movw	r3, #65523
 2905 00a8 1340     		ands	r3, r3, r2
 2906 00aa 8361     		str	r3, [r0, #24]
 2907              		.loc 1 2109 0
ARM GAS  /tmp/ccJZ9K5Y.s 			page 52


 2908 00ac 8369     		ldr	r3, [r0, #24]
 2909 00ae 1943     		orrs	r1, r1, r3
 2910              	.LVL284:
 2911 00b0 8161     		str	r1, [r0, #24]
 2912 00b2 BDE8F083 		pop	{r4, r5, r6, r7, r8, r9, pc}
 2913              	.LVL285:
 2914              	.L154:
 2915              	.LBE81:
 2916              	.LBE80:
 2917              	.LBB82:
 2918              	.LBB70:
 2919              		.loc 1 3214 0
 2920 00b6 4FF6FE73 		movw	r3, #65534
 2921 00ba 1340     		ands	r3, r3, r2
 2922              	.LBE70:
 2923              	.LBE82:
 2924              		.loc 1 2008 0
 2925 00bc 0F89     		ldrh	r7, [r1, #8]
 2926              	.LVL286:
 2927              		.loc 1 2011 0
 2928 00be C988     		ldrh	r1, [r1, #6]
 2929              	.LVL287:
 2930              	.LBB83:
 2931              	.LBB71:
 2932              		.loc 1 3214 0
 2933 00c0 0362     		str	r3, [r0, #32]
 2934              		.loc 1 3215 0
 2935 00c2 8269     		ldr	r2, [r0, #24]
 2936              	.LVL288:
 2937              		.loc 1 3216 0
 2938 00c4 D0F82080 		ldr	r8, [r0, #32]
 2939              	.LVL289:
 2940              		.loc 1 3219 0
 2941 00c8 4FF60C7E 		movw	lr, #65292
 2942 00cc 02EA0E0E 		and	lr, r2, lr
 2943              	.LVL290:
 2944              		.loc 1 3220 0
 2945 00d0 44EA0714 		orr	r4, r4, r7, lsl #4
 2946              	.LVL291:
 2947              		.loc 1 3223 0
 2948 00d4 4FF6F573 		movw	r3, #65525
 2949 00d8 08EA0303 		and	r3, r8, r3
 2950              	.LVL292:
 2951 00dc 4CF00102 		orr	r2, ip, #1
 2952              		.loc 1 3220 0
 2953 00e0 4EEA0404 		orr	r4, lr, r4
 2954              		.loc 1 3228 0
 2955 00e4 1A43     		orrs	r2, r2, r3
 2956              		.loc 1 3227 0
 2957 00e6 A4B2     		uxth	r4, r4
 2958 00e8 8461     		str	r4, [r0, #24]
 2959              		.loc 1 3228 0
 2960 00ea 0262     		str	r2, [r0, #32]
 2961              	.LBE71:
 2962              	.LBE83:
 2963              	.LBB84:
 2964              	.LBB85:
ARM GAS  /tmp/ccJZ9K5Y.s 			page 53


 2965              		.loc 1 2106 0
 2966 00ec 8269     		ldr	r2, [r0, #24]
 2967 00ee 4FF6F373 		movw	r3, #65523
 2968              	.LVL293:
 2969 00f2 1340     		ands	r3, r3, r2
 2970 00f4 8361     		str	r3, [r0, #24]
 2971              		.loc 1 2109 0
 2972 00f6 8369     		ldr	r3, [r0, #24]
 2973 00f8 0B43     		orrs	r3, r3, r1
 2974 00fa 8361     		str	r3, [r0, #24]
 2975              	.LVL294:
 2976              	.LBE85:
 2977              	.LBE84:
 2978              	.LBB86:
 2979              	.LBB87:
 2980              		.loc 1 3255 0
 2981 00fc 026A     		ldr	r2, [r0, #32]
 2982 00fe 4FF6EF73 		movw	r3, #65519
 2983 0102 1340     		ands	r3, r3, r2
 2984 0104 0362     		str	r3, [r0, #32]
 2985              		.loc 1 3256 0
 2986 0106 8469     		ldr	r4, [r0, #24]
 2987              	.LVL295:
 2988              		.loc 1 3257 0
 2989 0108 026A     		ldr	r2, [r0, #32]
 2990              		.loc 1 3261 0
 2991 010a 40F6FF43 		movw	r3, #3327
 2992 010e 2340     		ands	r3, r3, r4
 2993              		.loc 1 3257 0
 2994 0110 92B2     		uxth	r2, r2
 2995              	.LVL296:
 2996              		.loc 1 3262 0
 2997 0112 43EA0733 		orr	r3, r3, r7, lsl #12
 2998              	.LVL297:
 2999              		.loc 1 3266 0
 3000 0116 22F0A002 		bic	r2, r2, #160
 3001              	.LVL298:
 3002              		.loc 1 3262 0
 3003 011a 9BB2     		uxth	r3, r3
 3004              	.LVL299:
 3005 011c 42F01002 		orr	r2, r2, #16
 3006              	.LVL300:
 3007              		.loc 1 3270 0
 3008 0120 43EA0626 		orr	r6, r3, r6, lsl #8
 3009              	.LVL301:
 3010              		.loc 1 3271 0
 3011 0124 42EA0515 		orr	r5, r2, r5, lsl #4
 3012              	.LVL302:
 3013              		.loc 1 3270 0
 3014 0128 8661     		str	r6, [r0, #24]
 3015              		.loc 1 3271 0
 3016 012a 0562     		str	r5, [r0, #32]
 3017              	.LVL303:
 3018              	.LBE87:
 3019              	.LBE86:
 3020              	.LBB88:
 3021              	.LBB89:
ARM GAS  /tmp/ccJZ9K5Y.s 			page 54


 3022              		.loc 1 2131 0
 3023 012c 8269     		ldr	r2, [r0, #24]
 3024 012e 4FF2FF33 		movw	r3, #62463
 3025 0132 1340     		ands	r3, r3, r2
 3026 0134 8361     		str	r3, [r0, #24]
 3027              		.loc 1 2134 0
 3028 0136 8369     		ldr	r3, [r0, #24]
 3029 0138 0902     		lsls	r1, r1, #8
 3030              	.LVL304:
 3031 013a 89B2     		uxth	r1, r1
 3032 013c 1943     		orrs	r1, r1, r3
 3033 013e 8161     		str	r1, [r0, #24]
 3034 0140 BDE8F083 		pop	{r4, r5, r6, r7, r8, r9, pc}
 3035              	.LBE89:
 3036              	.LBE88:
 3037              		.cfi_endproc
 3038              	.LFE164:
 3039              		.size	TIM_PWMIConfig, .-TIM_PWMIConfig
 3040              		.section	.text.TIM_GetCapture1,"ax",%progbits
 3041              		.align	2
 3042              		.p2align 4,,15
 3043              		.global	TIM_GetCapture1
 3044              		.thumb
 3045              		.thumb_func
 3046              		.type	TIM_GetCapture1, %function
 3047              	TIM_GetCapture1:
 3048              	.LFB165:
 3049              		.loc 1 2037 0
 3050              		.cfi_startproc
 3051              		@ args = 0, pretend = 0, frame = 0
 3052              		@ frame_needed = 0, uses_anonymous_args = 0
 3053              		@ link register save eliminated.
 3054              	.LVL305:
 3055              		.loc 1 2042 0
 3056 0000 406B     		ldr	r0, [r0, #52]
 3057              	.LVL306:
 3058              		.loc 1 2043 0
 3059 0002 7047     		bx	lr
 3060              		.cfi_endproc
 3061              	.LFE165:
 3062              		.size	TIM_GetCapture1, .-TIM_GetCapture1
 3063              		.section	.text.TIM_GetCapture2,"ax",%progbits
 3064              		.align	2
 3065              		.p2align 4,,15
 3066              		.global	TIM_GetCapture2
 3067              		.thumb
 3068              		.thumb_func
 3069              		.type	TIM_GetCapture2, %function
 3070              	TIM_GetCapture2:
 3071              	.LFB166:
 3072              		.loc 1 2052 0
 3073              		.cfi_startproc
 3074              		@ args = 0, pretend = 0, frame = 0
 3075              		@ frame_needed = 0, uses_anonymous_args = 0
 3076              		@ link register save eliminated.
 3077              	.LVL307:
 3078              		.loc 1 2057 0
ARM GAS  /tmp/ccJZ9K5Y.s 			page 55


 3079 0000 806B     		ldr	r0, [r0, #56]
 3080              	.LVL308:
 3081              		.loc 1 2058 0
 3082 0002 7047     		bx	lr
 3083              		.cfi_endproc
 3084              	.LFE166:
 3085              		.size	TIM_GetCapture2, .-TIM_GetCapture2
 3086              		.section	.text.TIM_GetCapture3,"ax",%progbits
 3087              		.align	2
 3088              		.p2align 4,,15
 3089              		.global	TIM_GetCapture3
 3090              		.thumb
 3091              		.thumb_func
 3092              		.type	TIM_GetCapture3, %function
 3093              	TIM_GetCapture3:
 3094              	.LFB167:
 3095              		.loc 1 2066 0
 3096              		.cfi_startproc
 3097              		@ args = 0, pretend = 0, frame = 0
 3098              		@ frame_needed = 0, uses_anonymous_args = 0
 3099              		@ link register save eliminated.
 3100              	.LVL309:
 3101              		.loc 1 2071 0
 3102 0000 C06B     		ldr	r0, [r0, #60]
 3103              	.LVL310:
 3104              		.loc 1 2072 0
 3105 0002 7047     		bx	lr
 3106              		.cfi_endproc
 3107              	.LFE167:
 3108              		.size	TIM_GetCapture3, .-TIM_GetCapture3
 3109              		.section	.text.TIM_GetCapture4,"ax",%progbits
 3110              		.align	2
 3111              		.p2align 4,,15
 3112              		.global	TIM_GetCapture4
 3113              		.thumb
 3114              		.thumb_func
 3115              		.type	TIM_GetCapture4, %function
 3116              	TIM_GetCapture4:
 3117              	.LFB168:
 3118              		.loc 1 2080 0
 3119              		.cfi_startproc
 3120              		@ args = 0, pretend = 0, frame = 0
 3121              		@ frame_needed = 0, uses_anonymous_args = 0
 3122              		@ link register save eliminated.
 3123              	.LVL311:
 3124              		.loc 1 2085 0
 3125 0000 006C     		ldr	r0, [r0, #64]
 3126              	.LVL312:
 3127              		.loc 1 2086 0
 3128 0002 7047     		bx	lr
 3129              		.cfi_endproc
 3130              	.LFE168:
 3131              		.size	TIM_GetCapture4, .-TIM_GetCapture4
 3132              		.section	.text.TIM_SetIC1Prescaler,"ax",%progbits
 3133              		.align	2
 3134              		.p2align 4,,15
 3135              		.global	TIM_SetIC1Prescaler
ARM GAS  /tmp/ccJZ9K5Y.s 			page 56


 3136              		.thumb
 3137              		.thumb_func
 3138              		.type	TIM_SetIC1Prescaler, %function
 3139              	TIM_SetIC1Prescaler:
 3140              	.LFB169:
 3141              		.loc 1 2100 0
 3142              		.cfi_startproc
 3143              		@ args = 0, pretend = 0, frame = 0
 3144              		@ frame_needed = 0, uses_anonymous_args = 0
 3145              		@ link register save eliminated.
 3146              	.LVL313:
 3147              		.loc 1 2106 0
 3148 0000 8269     		ldr	r2, [r0, #24]
 3149 0002 4FF6F373 		movw	r3, #65523
 3150 0006 1340     		ands	r3, r3, r2
 3151 0008 8361     		str	r3, [r0, #24]
 3152              		.loc 1 2109 0
 3153 000a 8369     		ldr	r3, [r0, #24]
 3154 000c 1943     		orrs	r1, r1, r3
 3155              	.LVL314:
 3156 000e 8161     		str	r1, [r0, #24]
 3157 0010 7047     		bx	lr
 3158              		.cfi_endproc
 3159              	.LFE169:
 3160              		.size	TIM_SetIC1Prescaler, .-TIM_SetIC1Prescaler
 3161 0012 00BF     		.section	.text.TIM_SetIC2Prescaler,"ax",%progbits
 3162              		.align	2
 3163              		.p2align 4,,15
 3164              		.global	TIM_SetIC2Prescaler
 3165              		.thumb
 3166              		.thumb_func
 3167              		.type	TIM_SetIC2Prescaler, %function
 3168              	TIM_SetIC2Prescaler:
 3169              	.LFB170:
 3170              		.loc 1 2125 0
 3171              		.cfi_startproc
 3172              		@ args = 0, pretend = 0, frame = 0
 3173              		@ frame_needed = 0, uses_anonymous_args = 0
 3174              		@ link register save eliminated.
 3175              	.LVL315:
 3176              		.loc 1 2131 0
 3177 0000 8269     		ldr	r2, [r0, #24]
 3178 0002 4FF2FF33 		movw	r3, #62463
 3179 0006 1340     		ands	r3, r3, r2
 3180 0008 8361     		str	r3, [r0, #24]
 3181              		.loc 1 2134 0
 3182 000a 8369     		ldr	r3, [r0, #24]
 3183 000c 0902     		lsls	r1, r1, #8
 3184              	.LVL316:
 3185 000e 89B2     		uxth	r1, r1
 3186 0010 1943     		orrs	r1, r1, r3
 3187 0012 8161     		str	r1, [r0, #24]
 3188 0014 7047     		bx	lr
 3189              		.cfi_endproc
 3190              	.LFE170:
 3191              		.size	TIM_SetIC2Prescaler, .-TIM_SetIC2Prescaler
 3192 0016 00BF     		.section	.text.TIM_SetIC3Prescaler,"ax",%progbits
ARM GAS  /tmp/ccJZ9K5Y.s 			page 57


 3193              		.align	2
 3194              		.p2align 4,,15
 3195              		.global	TIM_SetIC3Prescaler
 3196              		.thumb
 3197              		.thumb_func
 3198              		.type	TIM_SetIC3Prescaler, %function
 3199              	TIM_SetIC3Prescaler:
 3200              	.LFB171:
 3201              		.loc 1 2149 0
 3202              		.cfi_startproc
 3203              		@ args = 0, pretend = 0, frame = 0
 3204              		@ frame_needed = 0, uses_anonymous_args = 0
 3205              		@ link register save eliminated.
 3206              	.LVL317:
 3207              		.loc 1 2155 0
 3208 0000 C269     		ldr	r2, [r0, #28]
 3209 0002 4FF6F373 		movw	r3, #65523
 3210 0006 1340     		ands	r3, r3, r2
 3211 0008 C361     		str	r3, [r0, #28]
 3212              		.loc 1 2158 0
 3213 000a C369     		ldr	r3, [r0, #28]
 3214 000c 1943     		orrs	r1, r1, r3
 3215              	.LVL318:
 3216 000e C161     		str	r1, [r0, #28]
 3217 0010 7047     		bx	lr
 3218              		.cfi_endproc
 3219              	.LFE171:
 3220              		.size	TIM_SetIC3Prescaler, .-TIM_SetIC3Prescaler
 3221 0012 00BF     		.section	.text.TIM_SetIC4Prescaler,"ax",%progbits
 3222              		.align	2
 3223              		.p2align 4,,15
 3224              		.global	TIM_SetIC4Prescaler
 3225              		.thumb
 3226              		.thumb_func
 3227              		.type	TIM_SetIC4Prescaler, %function
 3228              	TIM_SetIC4Prescaler:
 3229              	.LFB172:
 3230              		.loc 1 2173 0
 3231              		.cfi_startproc
 3232              		@ args = 0, pretend = 0, frame = 0
 3233              		@ frame_needed = 0, uses_anonymous_args = 0
 3234              		@ link register save eliminated.
 3235              	.LVL319:
 3236              		.loc 1 2179 0
 3237 0000 C269     		ldr	r2, [r0, #28]
 3238 0002 4FF2FF33 		movw	r3, #62463
 3239 0006 1340     		ands	r3, r3, r2
 3240 0008 C361     		str	r3, [r0, #28]
 3241              		.loc 1 2182 0
 3242 000a C369     		ldr	r3, [r0, #28]
 3243 000c 0902     		lsls	r1, r1, #8
 3244              	.LVL320:
 3245 000e 89B2     		uxth	r1, r1
 3246 0010 1943     		orrs	r1, r1, r3
 3247 0012 C161     		str	r1, [r0, #28]
 3248 0014 7047     		bx	lr
 3249              		.cfi_endproc
ARM GAS  /tmp/ccJZ9K5Y.s 			page 58


 3250              	.LFE172:
 3251              		.size	TIM_SetIC4Prescaler, .-TIM_SetIC4Prescaler
 3252 0016 00BF     		.section	.text.TIM_BDTRConfig,"ax",%progbits
 3253              		.align	2
 3254              		.p2align 4,,15
 3255              		.global	TIM_BDTRConfig
 3256              		.thumb
 3257              		.thumb_func
 3258              		.type	TIM_BDTRConfig, %function
 3259              	TIM_BDTRConfig:
 3260              	.LFB173:
 3261              		.loc 1 2226 0
 3262              		.cfi_startproc
 3263              		@ args = 0, pretend = 0, frame = 0
 3264              		@ frame_needed = 0, uses_anonymous_args = 0
 3265              	.LVL321:
 3266 0000 F0B5     		push	{r4, r5, r6, r7, lr}
 3267              		.cfi_def_cfa_offset 20
 3268              		.cfi_offset 4, -20
 3269              		.cfi_offset 5, -16
 3270              		.cfi_offset 6, -12
 3271              		.cfi_offset 7, -8
 3272              		.cfi_offset 14, -4
 3273              		.loc 1 2240 0
 3274 0002 0B88     		ldrh	r3, [r1]
 3275 0004 B1F802E0 		ldrh	lr, [r1, #2]
 3276 0008 8F88     		ldrh	r7, [r1, #4]
 3277 000a CE88     		ldrh	r6, [r1, #6]
 3278 000c 0D89     		ldrh	r5, [r1, #8]
 3279 000e 4C89     		ldrh	r4, [r1, #10]
 3280 0010 8A89     		ldrh	r2, [r1, #12]
 3281 0012 4EEA0303 		orr	r3, lr, r3
 3282 0016 3B43     		orrs	r3, r3, r7
 3283 0018 3343     		orrs	r3, r3, r6
 3284 001a 2B43     		orrs	r3, r3, r5
 3285 001c 2343     		orrs	r3, r3, r4
 3286 001e 1343     		orrs	r3, r3, r2
 3287 0020 9BB2     		uxth	r3, r3
 3288              		.loc 1 2238 0
 3289 0022 4364     		str	r3, [r0, #68]
 3290 0024 F0BD     		pop	{r4, r5, r6, r7, pc}
 3291              		.cfi_endproc
 3292              	.LFE173:
 3293              		.size	TIM_BDTRConfig, .-TIM_BDTRConfig
 3294 0026 00BF     		.section	.text.TIM_BDTRStructInit,"ax",%progbits
 3295              		.align	2
 3296              		.p2align 4,,15
 3297              		.global	TIM_BDTRStructInit
 3298              		.thumb
 3299              		.thumb_func
 3300              		.type	TIM_BDTRStructInit, %function
 3301              	TIM_BDTRStructInit:
 3302              	.LFB174:
 3303              		.loc 1 2251 0
 3304              		.cfi_startproc
 3305              		@ args = 0, pretend = 0, frame = 0
 3306              		@ frame_needed = 0, uses_anonymous_args = 0
ARM GAS  /tmp/ccJZ9K5Y.s 			page 59


 3307              		@ link register save eliminated.
 3308              	.LVL322:
 3309              		.loc 1 2253 0
 3310 0000 0023     		movs	r3, #0
 3311 0002 0380     		strh	r3, [r0]	@ movhi
 3312              		.loc 1 2254 0
 3313 0004 4380     		strh	r3, [r0, #2]	@ movhi
 3314              		.loc 1 2255 0
 3315 0006 8380     		strh	r3, [r0, #4]	@ movhi
 3316              		.loc 1 2256 0
 3317 0008 C380     		strh	r3, [r0, #6]	@ movhi
 3318              		.loc 1 2257 0
 3319 000a 0381     		strh	r3, [r0, #8]	@ movhi
 3320              		.loc 1 2258 0
 3321 000c 4381     		strh	r3, [r0, #10]	@ movhi
 3322              		.loc 1 2259 0
 3323 000e 8381     		strh	r3, [r0, #12]	@ movhi
 3324 0010 7047     		bx	lr
 3325              		.cfi_endproc
 3326              	.LFE174:
 3327              		.size	TIM_BDTRStructInit, .-TIM_BDTRStructInit
 3328 0012 00BF     		.section	.text.TIM_CtrlPWMOutputs,"ax",%progbits
 3329              		.align	2
 3330              		.p2align 4,,15
 3331              		.global	TIM_CtrlPWMOutputs
 3332              		.thumb
 3333              		.thumb_func
 3334              		.type	TIM_CtrlPWMOutputs, %function
 3335              	TIM_CtrlPWMOutputs:
 3336              	.LFB175:
 3337              		.loc 1 2270 0
 3338              		.cfi_startproc
 3339              		@ args = 0, pretend = 0, frame = 0
 3340              		@ frame_needed = 0, uses_anonymous_args = 0
 3341              		@ link register save eliminated.
 3342              	.LVL323:
 3343              		.loc 1 2278 0
 3344 0000 436C     		ldr	r3, [r0, #68]
 3345              		.loc 1 2275 0
 3346 0002 19B9     		cbnz	r1, .L169
 3347              		.loc 1 2283 0
 3348 0004 C3F30E03 		ubfx	r3, r3, #0, #15
 3349 0008 4364     		str	r3, [r0, #68]
 3350 000a 7047     		bx	lr
 3351              	.L169:
 3352              		.loc 1 2278 0
 3353 000c 43F40043 		orr	r3, r3, #32768
 3354 0010 4364     		str	r3, [r0, #68]
 3355 0012 7047     		bx	lr
 3356              		.cfi_endproc
 3357              	.LFE175:
 3358              		.size	TIM_CtrlPWMOutputs, .-TIM_CtrlPWMOutputs
 3359              		.section	.text.TIM_SelectCOM,"ax",%progbits
 3360              		.align	2
 3361              		.p2align 4,,15
 3362              		.global	TIM_SelectCOM
 3363              		.thumb
ARM GAS  /tmp/ccJZ9K5Y.s 			page 60


 3364              		.thumb_func
 3365              		.type	TIM_SelectCOM, %function
 3366              	TIM_SelectCOM:
 3367              	.LFB176:
 3368              		.loc 1 2295 0
 3369              		.cfi_startproc
 3370              		@ args = 0, pretend = 0, frame = 0
 3371              		@ frame_needed = 0, uses_anonymous_args = 0
 3372              		@ link register save eliminated.
 3373              	.LVL324:
 3374              		.loc 1 2300 0
 3375 0000 29B9     		cbnz	r1, .L173
 3376              		.loc 1 2308 0
 3377 0002 4268     		ldr	r2, [r0, #4]
 3378 0004 4FF6FB73 		movw	r3, #65531
 3379 0008 1340     		ands	r3, r3, r2
 3380 000a 4360     		str	r3, [r0, #4]
 3381 000c 7047     		bx	lr
 3382              	.L173:
 3383              		.loc 1 2303 0
 3384 000e 4368     		ldr	r3, [r0, #4]
 3385 0010 43F00403 		orr	r3, r3, #4
 3386 0014 4360     		str	r3, [r0, #4]
 3387 0016 7047     		bx	lr
 3388              		.cfi_endproc
 3389              	.LFE176:
 3390              		.size	TIM_SelectCOM, .-TIM_SelectCOM
 3391              		.section	.text.TIM_CCPreloadControl,"ax",%progbits
 3392              		.align	2
 3393              		.p2align 4,,15
 3394              		.global	TIM_CCPreloadControl
 3395              		.thumb
 3396              		.thumb_func
 3397              		.type	TIM_CCPreloadControl, %function
 3398              	TIM_CCPreloadControl:
 3399              	.LFB177:
 3400              		.loc 1 2320 0
 3401              		.cfi_startproc
 3402              		@ args = 0, pretend = 0, frame = 0
 3403              		@ frame_needed = 0, uses_anonymous_args = 0
 3404              		@ link register save eliminated.
 3405              	.LVL325:
 3406              		.loc 1 2324 0
 3407 0000 29B9     		cbnz	r1, .L177
 3408              		.loc 1 2332 0
 3409 0002 4268     		ldr	r2, [r0, #4]
 3410 0004 4FF6FE73 		movw	r3, #65534
 3411 0008 1340     		ands	r3, r3, r2
 3412 000a 4360     		str	r3, [r0, #4]
 3413 000c 7047     		bx	lr
 3414              	.L177:
 3415              		.loc 1 2327 0
 3416 000e 4368     		ldr	r3, [r0, #4]
 3417 0010 43F00103 		orr	r3, r3, #1
 3418 0014 4360     		str	r3, [r0, #4]
 3419 0016 7047     		bx	lr
 3420              		.cfi_endproc
ARM GAS  /tmp/ccJZ9K5Y.s 			page 61


 3421              	.LFE177:
 3422              		.size	TIM_CCPreloadControl, .-TIM_CCPreloadControl
 3423              		.section	.text.TIM_ITConfig,"ax",%progbits
 3424              		.align	2
 3425              		.p2align 4,,15
 3426              		.global	TIM_ITConfig
 3427              		.thumb
 3428              		.thumb_func
 3429              		.type	TIM_ITConfig, %function
 3430              	TIM_ITConfig:
 3431              	.LFB178:
 3432              		.loc 1 2377 0
 3433              		.cfi_startproc
 3434              		@ args = 0, pretend = 0, frame = 0
 3435              		@ frame_needed = 0, uses_anonymous_args = 0
 3436              		@ link register save eliminated.
 3437              	.LVL326:
 3438              		.loc 1 2383 0
 3439 0000 2AB9     		cbnz	r2, .L181
 3440              		.loc 1 2391 0
 3441 0002 C368     		ldr	r3, [r0, #12]
 3442 0004 C943     		mvns	r1, r1
 3443              	.LVL327:
 3444 0006 89B2     		uxth	r1, r1
 3445 0008 1940     		ands	r1, r1, r3
 3446 000a C160     		str	r1, [r0, #12]
 3447 000c 7047     		bx	lr
 3448              	.LVL328:
 3449              	.L181:
 3450              		.loc 1 2386 0
 3451 000e C368     		ldr	r3, [r0, #12]
 3452 0010 1943     		orrs	r1, r1, r3
 3453              	.LVL329:
 3454 0012 C160     		str	r1, [r0, #12]
 3455 0014 7047     		bx	lr
 3456              		.cfi_endproc
 3457              	.LFE178:
 3458              		.size	TIM_ITConfig, .-TIM_ITConfig
 3459 0016 00BF     		.section	.text.TIM_GenerateEvent,"ax",%progbits
 3460              		.align	2
 3461              		.p2align 4,,15
 3462              		.global	TIM_GenerateEvent
 3463              		.thumb
 3464              		.thumb_func
 3465              		.type	TIM_GenerateEvent, %function
 3466              	TIM_GenerateEvent:
 3467              	.LFB179:
 3468              		.loc 1 2415 0
 3469              		.cfi_startproc
 3470              		@ args = 0, pretend = 0, frame = 0
 3471              		@ frame_needed = 0, uses_anonymous_args = 0
 3472              		@ link register save eliminated.
 3473              	.LVL330:
 3474              		.loc 1 2421 0
 3475 0000 4161     		str	r1, [r0, #20]
 3476 0002 7047     		bx	lr
 3477              		.cfi_endproc
ARM GAS  /tmp/ccJZ9K5Y.s 			page 62


 3478              	.LFE179:
 3479              		.size	TIM_GenerateEvent, .-TIM_GenerateEvent
 3480              		.section	.text.TIM_GetFlagStatus,"ax",%progbits
 3481              		.align	2
 3482              		.p2align 4,,15
 3483              		.global	TIM_GetFlagStatus
 3484              		.thumb
 3485              		.thumb_func
 3486              		.type	TIM_GetFlagStatus, %function
 3487              	TIM_GetFlagStatus:
 3488              	.LFB180:
 3489              		.loc 1 2448 0
 3490              		.cfi_startproc
 3491              		@ args = 0, pretend = 0, frame = 0
 3492              		@ frame_needed = 0, uses_anonymous_args = 0
 3493              		@ link register save eliminated.
 3494              	.LVL331:
 3495              		.loc 1 2455 0
 3496 0000 0369     		ldr	r3, [r0, #16]
 3497              	.LVL332:
 3498 0002 1942     		tst	r1, r3
 3499              		.loc 1 2464 0
 3500 0004 14BF     		ite	ne
 3501 0006 0120     		movne	r0, #1
 3502              	.LVL333:
 3503 0008 0020     		moveq	r0, #0
 3504 000a 7047     		bx	lr
 3505              		.cfi_endproc
 3506              	.LFE180:
 3507              		.size	TIM_GetFlagStatus, .-TIM_GetFlagStatus
 3508              		.section	.text.TIM_ClearFlag,"ax",%progbits
 3509              		.align	2
 3510              		.p2align 4,,15
 3511              		.global	TIM_ClearFlag
 3512              		.thumb
 3513              		.thumb_func
 3514              		.type	TIM_ClearFlag, %function
 3515              	TIM_ClearFlag:
 3516              	.LFB181:
 3517              		.loc 1 2490 0
 3518              		.cfi_startproc
 3519              		@ args = 0, pretend = 0, frame = 0
 3520              		@ frame_needed = 0, uses_anonymous_args = 0
 3521              		@ link register save eliminated.
 3522              	.LVL334:
 3523              		.loc 1 2495 0
 3524 0000 C943     		mvns	r1, r1
 3525              	.LVL335:
 3526 0002 89B2     		uxth	r1, r1
 3527 0004 0161     		str	r1, [r0, #16]
 3528 0006 7047     		bx	lr
 3529              		.cfi_endproc
 3530              	.LFE181:
 3531              		.size	TIM_ClearFlag, .-TIM_ClearFlag
 3532              		.section	.text.TIM_GetITStatus,"ax",%progbits
 3533              		.align	2
 3534              		.p2align 4,,15
ARM GAS  /tmp/ccJZ9K5Y.s 			page 63


 3535              		.global	TIM_GetITStatus
 3536              		.thumb
 3537              		.thumb_func
 3538              		.type	TIM_GetITStatus, %function
 3539              	TIM_GetITStatus:
 3540              	.LFB182:
 3541              		.loc 1 2518 0
 3542              		.cfi_startproc
 3543              		@ args = 0, pretend = 0, frame = 0
 3544              		@ frame_needed = 0, uses_anonymous_args = 0
 3545              		@ link register save eliminated.
 3546              	.LVL336:
 3547              		.loc 1 2525 0
 3548 0000 0369     		ldr	r3, [r0, #16]
 3549              	.LVL337:
 3550              		.loc 1 2527 0
 3551 0002 C268     		ldr	r2, [r0, #12]
 3552              	.LVL338:
 3553              		.loc 1 2528 0
 3554 0004 11EA0300 		ands	r0, r1, r3
 3555              	.LVL339:
 3556 0008 03D0     		beq	.L186
 3557              		.loc 1 2528 0 is_stmt 0 discriminator 1
 3558 000a 1142     		tst	r1, r2
 3559              		.loc 1 2530 0 is_stmt 1 discriminator 1
 3560 000c 14BF     		ite	ne
 3561 000e 0120     		movne	r0, #1
 3562 0010 0020     		moveq	r0, #0
 3563              	.L186:
 3564              	.LVL340:
 3565              		.loc 1 2537 0
 3566 0012 7047     		bx	lr
 3567              		.cfi_endproc
 3568              	.LFE182:
 3569              		.size	TIM_GetITStatus, .-TIM_GetITStatus
 3570              		.section	.text.TIM_ClearITPendingBit,"ax",%progbits
 3571              		.align	2
 3572              		.p2align 4,,15
 3573              		.global	TIM_ClearITPendingBit
 3574              		.thumb
 3575              		.thumb_func
 3576              		.type	TIM_ClearITPendingBit, %function
 3577              	TIM_ClearITPendingBit:
 3578              	.LFB183:
 3579              		.loc 1 2559 0
 3580              		.cfi_startproc
 3581              		@ args = 0, pretend = 0, frame = 0
 3582              		@ frame_needed = 0, uses_anonymous_args = 0
 3583              		@ link register save eliminated.
 3584              	.LVL341:
 3585              		.loc 1 2564 0
 3586 0000 C943     		mvns	r1, r1
 3587              	.LVL342:
 3588 0002 89B2     		uxth	r1, r1
 3589 0004 0161     		str	r1, [r0, #16]
 3590 0006 7047     		bx	lr
 3591              		.cfi_endproc
ARM GAS  /tmp/ccJZ9K5Y.s 			page 64


 3592              	.LFE183:
 3593              		.size	TIM_ClearITPendingBit, .-TIM_ClearITPendingBit
 3594              		.section	.text.TIM_DMAConfig,"ax",%progbits
 3595              		.align	2
 3596              		.p2align 4,,15
 3597              		.global	TIM_DMAConfig
 3598              		.thumb
 3599              		.thumb_func
 3600              		.type	TIM_DMAConfig, %function
 3601              	TIM_DMAConfig:
 3602              	.LFB184:
 3603              		.loc 1 2596 0
 3604              		.cfi_startproc
 3605              		@ args = 0, pretend = 0, frame = 0
 3606              		@ frame_needed = 0, uses_anonymous_args = 0
 3607              		@ link register save eliminated.
 3608              	.LVL343:
 3609              		.loc 1 2603 0
 3610 0000 0A43     		orrs	r2, r2, r1
 3611              	.LVL344:
 3612 0002 8264     		str	r2, [r0, #72]
 3613 0004 7047     		bx	lr
 3614              		.cfi_endproc
 3615              	.LFE184:
 3616              		.size	TIM_DMAConfig, .-TIM_DMAConfig
 3617 0006 00BF     		.section	.text.TIM_DMACmd,"ax",%progbits
 3618              		.align	2
 3619              		.p2align 4,,15
 3620              		.global	TIM_DMACmd
 3621              		.thumb
 3622              		.thumb_func
 3623              		.type	TIM_DMACmd, %function
 3624              	TIM_DMACmd:
 3625              	.LFB185:
 3626              		.loc 1 2623 0
 3627              		.cfi_startproc
 3628              		@ args = 0, pretend = 0, frame = 0
 3629              		@ frame_needed = 0, uses_anonymous_args = 0
 3630              		@ link register save eliminated.
 3631              	.LVL345:
 3632              		.loc 1 2629 0
 3633 0000 2AB9     		cbnz	r2, .L193
 3634              		.loc 1 2637 0
 3635 0002 C368     		ldr	r3, [r0, #12]
 3636 0004 C943     		mvns	r1, r1
 3637              	.LVL346:
 3638 0006 89B2     		uxth	r1, r1
 3639 0008 1940     		ands	r1, r1, r3
 3640 000a C160     		str	r1, [r0, #12]
 3641 000c 7047     		bx	lr
 3642              	.LVL347:
 3643              	.L193:
 3644              		.loc 1 2632 0
 3645 000e C368     		ldr	r3, [r0, #12]
 3646 0010 1943     		orrs	r1, r1, r3
 3647              	.LVL348:
 3648 0012 C160     		str	r1, [r0, #12]
ARM GAS  /tmp/ccJZ9K5Y.s 			page 65


 3649 0014 7047     		bx	lr
 3650              		.cfi_endproc
 3651              	.LFE185:
 3652              		.size	TIM_DMACmd, .-TIM_DMACmd
 3653 0016 00BF     		.section	.text.TIM_SelectCCDMA,"ax",%progbits
 3654              		.align	2
 3655              		.p2align 4,,15
 3656              		.global	TIM_SelectCCDMA
 3657              		.thumb
 3658              		.thumb_func
 3659              		.type	TIM_SelectCCDMA, %function
 3660              	TIM_SelectCCDMA:
 3661              	.LFB186:
 3662              		.loc 1 2649 0
 3663              		.cfi_startproc
 3664              		@ args = 0, pretend = 0, frame = 0
 3665              		@ frame_needed = 0, uses_anonymous_args = 0
 3666              		@ link register save eliminated.
 3667              	.LVL349:
 3668              		.loc 1 2654 0
 3669 0000 29B9     		cbnz	r1, .L197
 3670              		.loc 1 2662 0
 3671 0002 4268     		ldr	r2, [r0, #4]
 3672 0004 4FF6F773 		movw	r3, #65527
 3673 0008 1340     		ands	r3, r3, r2
 3674 000a 4360     		str	r3, [r0, #4]
 3675 000c 7047     		bx	lr
 3676              	.L197:
 3677              		.loc 1 2657 0
 3678 000e 4368     		ldr	r3, [r0, #4]
 3679 0010 43F00803 		orr	r3, r3, #8
 3680 0014 4360     		str	r3, [r0, #4]
 3681 0016 7047     		bx	lr
 3682              		.cfi_endproc
 3683              	.LFE186:
 3684              		.size	TIM_SelectCCDMA, .-TIM_SelectCCDMA
 3685              		.section	.text.TIM_InternalClockConfig,"ax",%progbits
 3686              		.align	2
 3687              		.p2align 4,,15
 3688              		.global	TIM_InternalClockConfig
 3689              		.thumb
 3690              		.thumb_func
 3691              		.type	TIM_InternalClockConfig, %function
 3692              	TIM_InternalClockConfig:
 3693              	.LFB187:
 3694              		.loc 1 2688 0
 3695              		.cfi_startproc
 3696              		@ args = 0, pretend = 0, frame = 0
 3697              		@ frame_needed = 0, uses_anonymous_args = 0
 3698              		@ link register save eliminated.
 3699              	.LVL350:
 3700              		.loc 1 2693 0
 3701 0000 8268     		ldr	r2, [r0, #8]
 3702 0002 4FF6F873 		movw	r3, #65528
 3703 0006 1340     		ands	r3, r3, r2
 3704 0008 8360     		str	r3, [r0, #8]
 3705 000a 7047     		bx	lr
ARM GAS  /tmp/ccJZ9K5Y.s 			page 66


 3706              		.cfi_endproc
 3707              	.LFE187:
 3708              		.size	TIM_InternalClockConfig, .-TIM_InternalClockConfig
 3709              		.section	.text.TIM_ITRxExternalClockConfig,"ax",%progbits
 3710              		.align	2
 3711              		.p2align 4,,15
 3712              		.global	TIM_ITRxExternalClockConfig
 3713              		.thumb
 3714              		.thumb_func
 3715              		.type	TIM_ITRxExternalClockConfig, %function
 3716              	TIM_ITRxExternalClockConfig:
 3717              	.LFB188:
 3718              		.loc 1 2709 0
 3719              		.cfi_startproc
 3720              		@ args = 0, pretend = 0, frame = 0
 3721              		@ frame_needed = 0, uses_anonymous_args = 0
 3722              		@ link register save eliminated.
 3723              	.LVL351:
 3724              	.LBB90:
 3725              	.LBB91:
 3726              		.loc 1 2905 0
 3727 0000 8268     		ldr	r2, [r0, #8]
 3728              	.LVL352:
 3729              		.loc 1 2908 0
 3730 0002 4FF68F73 		movw	r3, #65423
 3731 0006 1340     		ands	r3, r3, r2
 3732              	.LVL353:
 3733              		.loc 1 2914 0
 3734 0008 1943     		orrs	r1, r1, r3
 3735              	.LVL354:
 3736 000a 8160     		str	r1, [r0, #8]
 3737              	.LBE91:
 3738              	.LBE90:
 3739              		.loc 1 2718 0
 3740 000c 8368     		ldr	r3, [r0, #8]
 3741              	.LVL355:
 3742 000e 43F00703 		orr	r3, r3, #7
 3743 0012 8360     		str	r3, [r0, #8]
 3744 0014 7047     		bx	lr
 3745              		.cfi_endproc
 3746              	.LFE188:
 3747              		.size	TIM_ITRxExternalClockConfig, .-TIM_ITRxExternalClockConfig
 3748 0016 00BF     		.section	.text.TIM_TIxExternalClockConfig,"ax",%progbits
 3749              		.align	2
 3750              		.p2align 4,,15
 3751              		.global	TIM_TIxExternalClockConfig
 3752              		.thumb
 3753              		.thumb_func
 3754              		.type	TIM_TIxExternalClockConfig, %function
 3755              	TIM_TIxExternalClockConfig:
 3756              	.LFB189:
 3757              		.loc 1 2740 0
 3758              		.cfi_startproc
 3759              		@ args = 0, pretend = 0, frame = 0
 3760              		@ frame_needed = 0, uses_anonymous_args = 0
 3761              		@ link register save eliminated.
 3762              	.LVL356:
ARM GAS  /tmp/ccJZ9K5Y.s 			page 67


 3763              		.loc 1 2747 0
 3764 0000 6029     		cmp	r1, #96
 3765              		.loc 1 2740 0
 3766 0002 70B4     		push	{r4, r5, r6}
 3767              		.cfi_def_cfa_offset 12
 3768              		.cfi_offset 4, -12
 3769              		.cfi_offset 5, -8
 3770              		.cfi_offset 6, -4
 3771              	.LBB92:
 3772              	.LBB93:
 3773              		.loc 1 3255 0
 3774 0004 056A     		ldr	r5, [r0, #32]
 3775              	.LBE93:
 3776              	.LBE92:
 3777              		.loc 1 2747 0
 3778 0006 21D0     		beq	.L204
 3779              	.LVL357:
 3780              	.LBB95:
 3781              	.LBB96:
 3782              		.loc 1 3214 0
 3783 0008 4FF6FE74 		movw	r4, #65534
 3784 000c 2C40     		ands	r4, r4, r5
 3785 000e 0462     		str	r4, [r0, #32]
 3786              		.loc 1 3215 0
 3787 0010 8469     		ldr	r4, [r0, #24]
 3788              		.loc 1 3216 0
 3789 0012 056A     		ldr	r5, [r0, #32]
 3790              		.loc 1 3215 0
 3791 0014 A4B2     		uxth	r4, r4
 3792              	.LVL358:
 3793              		.loc 1 3219 0
 3794 0016 24F0F304 		bic	r4, r4, #243
 3795              	.LVL359:
 3796              		.loc 1 3216 0
 3797 001a ADB2     		uxth	r5, r5
 3798              	.LVL360:
 3799 001c 44F00104 		orr	r4, r4, #1
 3800              	.LVL361:
 3801              		.loc 1 3223 0
 3802 0020 25F00A05 		bic	r5, r5, #10
 3803              	.LVL362:
 3804              		.loc 1 3220 0
 3805 0024 44EA0313 		orr	r3, r4, r3, lsl #4
 3806              	.LVL363:
 3807 0028 45F00104 		orr	r4, r5, #1
 3808              	.LVL364:
 3809              		.loc 1 3227 0
 3810 002c 9BB2     		uxth	r3, r3
 3811              		.loc 1 3228 0
 3812 002e 2243     		orrs	r2, r2, r4
 3813              	.LVL365:
 3814              		.loc 1 3227 0
 3815 0030 8361     		str	r3, [r0, #24]
 3816              		.loc 1 3228 0
 3817 0032 0262     		str	r2, [r0, #32]
 3818              	.LVL366:
 3819              	.L202:
ARM GAS  /tmp/ccJZ9K5Y.s 			page 68


 3820              	.LBE96:
 3821              	.LBE95:
 3822              	.LBB97:
 3823              	.LBB98:
 3824              		.loc 1 2905 0
 3825 0034 8268     		ldr	r2, [r0, #8]
 3826              	.LVL367:
 3827              		.loc 1 2908 0
 3828 0036 4FF68F73 		movw	r3, #65423
 3829 003a 1340     		ands	r3, r3, r2
 3830              	.LVL368:
 3831              		.loc 1 2914 0
 3832 003c 1943     		orrs	r1, r1, r3
 3833              	.LVL369:
 3834 003e 8160     		str	r1, [r0, #8]
 3835              	.LBE98:
 3836              	.LBE97:
 3837              		.loc 1 2758 0
 3838 0040 8368     		ldr	r3, [r0, #8]
 3839              	.LVL370:
 3840 0042 43F00703 		orr	r3, r3, #7
 3841 0046 8360     		str	r3, [r0, #8]
 3842              		.loc 1 2759 0
 3843 0048 70BC     		pop	{r4, r5, r6}
 3844              		.cfi_remember_state
 3845              		.cfi_restore 6
 3846              		.cfi_restore 5
 3847              		.cfi_restore 4
 3848              		.cfi_def_cfa_offset 0
 3849 004a 7047     		bx	lr
 3850              	.LVL371:
 3851              	.L204:
 3852              		.cfi_restore_state
 3853              	.LBB99:
 3854              	.LBB94:
 3855              		.loc 1 3255 0
 3856 004c 4FF6EF74 		movw	r4, #65519
 3857 0050 2C40     		ands	r4, r4, r5
 3858 0052 0462     		str	r4, [r0, #32]
 3859              		.loc 1 3256 0
 3860 0054 8669     		ldr	r6, [r0, #24]
 3861              	.LVL372:
 3862              		.loc 1 3257 0
 3863 0056 046A     		ldr	r4, [r0, #32]
 3864              		.loc 1 3261 0
 3865 0058 40F6FF45 		movw	r5, #3327
 3866              		.loc 1 3257 0
 3867 005c A4B2     		uxth	r4, r4
 3868              	.LVL373:
 3869              		.loc 1 3261 0
 3870 005e 3540     		ands	r5, r5, r6
 3871              		.loc 1 3266 0
 3872 0060 24F0A004 		bic	r4, r4, #160
 3873              	.LVL374:
 3874 0064 45F48075 		orr	r5, r5, #256
 3875              	.LVL375:
 3876 0068 44F01004 		orr	r4, r4, #16
ARM GAS  /tmp/ccJZ9K5Y.s 			page 69


 3877              	.LVL376:
 3878              		.loc 1 3263 0
 3879 006c 45EA0333 		orr	r3, r5, r3, lsl #12
 3880              	.LVL377:
 3881              		.loc 1 3267 0
 3882 0070 44EA0212 		orr	r2, r4, r2, lsl #4
 3883              	.LVL378:
 3884              		.loc 1 3270 0
 3885 0074 9BB2     		uxth	r3, r3
 3886              		.loc 1 3271 0
 3887 0076 92B2     		uxth	r2, r2
 3888              		.loc 1 3270 0
 3889 0078 8361     		str	r3, [r0, #24]
 3890              		.loc 1 3271 0
 3891 007a 0262     		str	r2, [r0, #32]
 3892 007c DAE7     		b	.L202
 3893              	.LBE94:
 3894              	.LBE99:
 3895              		.cfi_endproc
 3896              	.LFE189:
 3897              		.size	TIM_TIxExternalClockConfig, .-TIM_TIxExternalClockConfig
 3898 007e 00BF     		.section	.text.TIM_ETRClockMode1Config,"ax",%progbits
 3899              		.align	2
 3900              		.p2align 4,,15
 3901              		.global	TIM_ETRClockMode1Config
 3902              		.thumb
 3903              		.thumb_func
 3904              		.type	TIM_ETRClockMode1Config, %function
 3905              	TIM_ETRClockMode1Config:
 3906              	.LFB190:
 3907              		.loc 1 2780 0
 3908              		.cfi_startproc
 3909              		@ args = 0, pretend = 0, frame = 0
 3910              		@ frame_needed = 0, uses_anonymous_args = 0
 3911              		@ link register save eliminated.
 3912              	.LVL379:
 3913 0000 10B4     		push	{r4}
 3914              		.cfi_def_cfa_offset 4
 3915              		.cfi_offset 4, -4
 3916              	.LBB100:
 3917              	.LBB101:
 3918              		.loc 1 3027 0
 3919 0002 8468     		ldr	r4, [r0, #8]
 3920              	.LVL380:
 3921              		.loc 1 3033 0
 3922 0004 42EA0323 		orr	r3, r2, r3, lsl #8
 3923              	.LVL381:
 3924              		.loc 1 3030 0
 3925 0008 E4B2     		uxtb	r4, r4
 3926              	.LVL382:
 3927 000a 2343     		orrs	r3, r3, r4
 3928 000c 9BB2     		uxth	r3, r3
 3929              	.LVL383:
 3930              		.loc 1 3036 0
 3931 000e 1943     		orrs	r1, r1, r3
 3932              	.LVL384:
 3933 0010 8160     		str	r1, [r0, #8]
ARM GAS  /tmp/ccJZ9K5Y.s 			page 70


 3934              	.LBE101:
 3935              	.LBE100:
 3936              		.loc 1 2792 0
 3937 0012 8368     		ldr	r3, [r0, #8]
 3938              	.LVL385:
 3939              		.loc 1 2806 0
 3940 0014 5DF8044B 		ldr	r4, [sp], #4
 3941              		.cfi_restore 4
 3942              		.cfi_def_cfa_offset 0
 3943              		.loc 1 2801 0
 3944 0018 23F07703 		bic	r3, r3, #119
 3945              	.LVL386:
 3946 001c 9BB2     		uxth	r3, r3
 3947              	.LVL387:
 3948              		.loc 1 2805 0
 3949 001e 43F07703 		orr	r3, r3, #119
 3950              	.LVL388:
 3951 0022 8360     		str	r3, [r0, #8]
 3952              		.loc 1 2806 0
 3953 0024 7047     		bx	lr
 3954              		.cfi_endproc
 3955              	.LFE190:
 3956              		.size	TIM_ETRClockMode1Config, .-TIM_ETRClockMode1Config
 3957 0026 00BF     		.section	.text.TIM_ETRClockMode2Config,"ax",%progbits
 3958              		.align	2
 3959              		.p2align 4,,15
 3960              		.global	TIM_ETRClockMode2Config
 3961              		.thumb
 3962              		.thumb_func
 3963              		.type	TIM_ETRClockMode2Config, %function
 3964              	TIM_ETRClockMode2Config:
 3965              	.LFB191:
 3966              		.loc 1 2827 0
 3967              		.cfi_startproc
 3968              		@ args = 0, pretend = 0, frame = 0
 3969              		@ frame_needed = 0, uses_anonymous_args = 0
 3970              		@ link register save eliminated.
 3971              	.LVL389:
 3972 0000 10B4     		push	{r4}
 3973              		.cfi_def_cfa_offset 4
 3974              		.cfi_offset 4, -4
 3975              	.LBB102:
 3976              	.LBB103:
 3977              		.loc 1 3027 0
 3978 0002 8468     		ldr	r4, [r0, #8]
 3979              	.LVL390:
 3980              		.loc 1 3033 0
 3981 0004 42EA0323 		orr	r3, r2, r3, lsl #8
 3982              	.LVL391:
 3983              		.loc 1 3030 0
 3984 0008 E4B2     		uxtb	r4, r4
 3985              	.LVL392:
 3986 000a 2343     		orrs	r3, r3, r4
 3987 000c 9BB2     		uxth	r3, r3
 3988              	.LVL393:
 3989              		.loc 1 3036 0
 3990 000e 1943     		orrs	r1, r1, r3
ARM GAS  /tmp/ccJZ9K5Y.s 			page 71


 3991              	.LVL394:
 3992 0010 8160     		str	r1, [r0, #8]
 3993              	.LBE103:
 3994              	.LBE102:
 3995              		.loc 1 2838 0
 3996 0012 8368     		ldr	r3, [r0, #8]
 3997              	.LVL395:
 3998              		.loc 1 2839 0
 3999 0014 5DF8044B 		ldr	r4, [sp], #4
 4000              		.cfi_restore 4
 4001              		.cfi_def_cfa_offset 0
 4002              		.loc 1 2838 0
 4003 0018 43F48043 		orr	r3, r3, #16384
 4004 001c 8360     		str	r3, [r0, #8]
 4005              		.loc 1 2839 0
 4006 001e 7047     		bx	lr
 4007              		.cfi_endproc
 4008              	.LFE191:
 4009              		.size	TIM_ETRClockMode2Config, .-TIM_ETRClockMode2Config
 4010              		.section	.text.TIM_SelectInputTrigger,"ax",%progbits
 4011              		.align	2
 4012              		.p2align 4,,15
 4013              		.global	TIM_SelectInputTrigger
 4014              		.thumb
 4015              		.thumb_func
 4016              		.type	TIM_SelectInputTrigger, %function
 4017              	TIM_SelectInputTrigger:
 4018              	.LFB192:
 4019              		.loc 1 2897 0
 4020              		.cfi_startproc
 4021              		@ args = 0, pretend = 0, frame = 0
 4022              		@ frame_needed = 0, uses_anonymous_args = 0
 4023              		@ link register save eliminated.
 4024              	.LVL396:
 4025              		.loc 1 2905 0
 4026 0000 8268     		ldr	r2, [r0, #8]
 4027              	.LVL397:
 4028              		.loc 1 2908 0
 4029 0002 4FF68F73 		movw	r3, #65423
 4030 0006 1340     		ands	r3, r3, r2
 4031              	.LVL398:
 4032              		.loc 1 2914 0
 4033 0008 1943     		orrs	r1, r1, r3
 4034              	.LVL399:
 4035 000a 8160     		str	r1, [r0, #8]
 4036 000c 7047     		bx	lr
 4037              		.cfi_endproc
 4038              	.LFE192:
 4039              		.size	TIM_SelectInputTrigger, .-TIM_SelectInputTrigger
 4040 000e 00BF     		.section	.text.TIM_SelectOutputTrigger,"ax",%progbits
 4041              		.align	2
 4042              		.p2align 4,,15
 4043              		.global	TIM_SelectOutputTrigger
 4044              		.thumb
 4045              		.thumb_func
 4046              		.type	TIM_SelectOutputTrigger, %function
 4047              	TIM_SelectOutputTrigger:
ARM GAS  /tmp/ccJZ9K5Y.s 			page 72


 4048              	.LFB193:
 4049              		.loc 1 2940 0
 4050              		.cfi_startproc
 4051              		@ args = 0, pretend = 0, frame = 0
 4052              		@ frame_needed = 0, uses_anonymous_args = 0
 4053              		@ link register save eliminated.
 4054              	.LVL400:
 4055              		.loc 1 2946 0
 4056 0000 4268     		ldr	r2, [r0, #4]
 4057 0002 4FF68F73 		movw	r3, #65423
 4058 0006 1340     		ands	r3, r3, r2
 4059 0008 4360     		str	r3, [r0, #4]
 4060              		.loc 1 2948 0
 4061 000a 4368     		ldr	r3, [r0, #4]
 4062 000c 1943     		orrs	r1, r1, r3
 4063              	.LVL401:
 4064 000e 4160     		str	r1, [r0, #4]
 4065 0010 7047     		bx	lr
 4066              		.cfi_endproc
 4067              	.LFE193:
 4068              		.size	TIM_SelectOutputTrigger, .-TIM_SelectOutputTrigger
 4069 0012 00BF     		.section	.text.TIM_SelectSlaveMode,"ax",%progbits
 4070              		.align	2
 4071              		.p2align 4,,15
 4072              		.global	TIM_SelectSlaveMode
 4073              		.thumb
 4074              		.thumb_func
 4075              		.type	TIM_SelectSlaveMode, %function
 4076              	TIM_SelectSlaveMode:
 4077              	.LFB194:
 4078              		.loc 1 2964 0
 4079              		.cfi_startproc
 4080              		@ args = 0, pretend = 0, frame = 0
 4081              		@ frame_needed = 0, uses_anonymous_args = 0
 4082              		@ link register save eliminated.
 4083              	.LVL402:
 4084              		.loc 1 2970 0
 4085 0000 8268     		ldr	r2, [r0, #8]
 4086 0002 4FF6F873 		movw	r3, #65528
 4087 0006 1340     		ands	r3, r3, r2
 4088 0008 8360     		str	r3, [r0, #8]
 4089              		.loc 1 2973 0
 4090 000a 8368     		ldr	r3, [r0, #8]
 4091 000c 1943     		orrs	r1, r1, r3
 4092              	.LVL403:
 4093 000e 8160     		str	r1, [r0, #8]
 4094 0010 7047     		bx	lr
 4095              		.cfi_endproc
 4096              	.LFE194:
 4097              		.size	TIM_SelectSlaveMode, .-TIM_SelectSlaveMode
 4098 0012 00BF     		.section	.text.TIM_SelectMasterSlaveMode,"ax",%progbits
 4099              		.align	2
 4100              		.p2align 4,,15
 4101              		.global	TIM_SelectMasterSlaveMode
 4102              		.thumb
 4103              		.thumb_func
 4104              		.type	TIM_SelectMasterSlaveMode, %function
ARM GAS  /tmp/ccJZ9K5Y.s 			page 73


 4105              	TIM_SelectMasterSlaveMode:
 4106              	.LFB195:
 4107              		.loc 1 2987 0
 4108              		.cfi_startproc
 4109              		@ args = 0, pretend = 0, frame = 0
 4110              		@ frame_needed = 0, uses_anonymous_args = 0
 4111              		@ link register save eliminated.
 4112              	.LVL404:
 4113              		.loc 1 2993 0
 4114 0000 8268     		ldr	r2, [r0, #8]
 4115 0002 4FF67F73 		movw	r3, #65407
 4116 0006 1340     		ands	r3, r3, r2
 4117 0008 8360     		str	r3, [r0, #8]
 4118              		.loc 1 2996 0
 4119 000a 8368     		ldr	r3, [r0, #8]
 4120 000c 1943     		orrs	r1, r1, r3
 4121              	.LVL405:
 4122 000e 8160     		str	r1, [r0, #8]
 4123 0010 7047     		bx	lr
 4124              		.cfi_endproc
 4125              	.LFE195:
 4126              		.size	TIM_SelectMasterSlaveMode, .-TIM_SelectMasterSlaveMode
 4127 0012 00BF     		.section	.text.TIM_ETRConfig,"ax",%progbits
 4128              		.align	2
 4129              		.p2align 4,,15
 4130              		.global	TIM_ETRConfig
 4131              		.thumb
 4132              		.thumb_func
 4133              		.type	TIM_ETRConfig, %function
 4134              	TIM_ETRConfig:
 4135              	.LFB196:
 4136              		.loc 1 3018 0
 4137              		.cfi_startproc
 4138              		@ args = 0, pretend = 0, frame = 0
 4139              		@ frame_needed = 0, uses_anonymous_args = 0
 4140              		@ link register save eliminated.
 4141              	.LVL406:
 4142 0000 10B4     		push	{r4}
 4143              		.cfi_def_cfa_offset 4
 4144              		.cfi_offset 4, -4
 4145              		.loc 1 3027 0
 4146 0002 8468     		ldr	r4, [r0, #8]
 4147              	.LVL407:
 4148              		.loc 1 3030 0
 4149 0004 E4B2     		uxtb	r4, r4
 4150              	.LVL408:
 4151 0006 2143     		orrs	r1, r1, r4
 4152              	.LVL409:
 4153 0008 0A43     		orrs	r2, r2, r1
 4154              	.LVL410:
 4155              		.loc 1 3033 0
 4156 000a 42EA0323 		orr	r3, r2, r3, lsl #8
 4157              	.LVL411:
 4158              		.loc 1 3036 0
 4159 000e 99B2     		uxth	r1, r3
 4160 0010 8160     		str	r1, [r0, #8]
 4161              		.loc 1 3037 0
ARM GAS  /tmp/ccJZ9K5Y.s 			page 74


 4162 0012 5DF8044B 		ldr	r4, [sp], #4
 4163              		.cfi_restore 4
 4164              		.cfi_def_cfa_offset 0
 4165 0016 7047     		bx	lr
 4166              		.cfi_endproc
 4167              	.LFE196:
 4168              		.size	TIM_ETRConfig, .-TIM_ETRConfig
 4169              		.section	.text.TIM_EncoderInterfaceConfig,"ax",%progbits
 4170              		.align	2
 4171              		.p2align 4,,15
 4172              		.global	TIM_EncoderInterfaceConfig
 4173              		.thumb
 4174              		.thumb_func
 4175              		.type	TIM_EncoderInterfaceConfig, %function
 4176              	TIM_EncoderInterfaceConfig:
 4177              	.LFB197:
 4178              		.loc 1 3076 0
 4179              		.cfi_startproc
 4180              		@ args = 0, pretend = 0, frame = 0
 4181              		@ frame_needed = 0, uses_anonymous_args = 0
 4182              	.LVL412:
 4183 0000 F0B5     		push	{r4, r5, r6, r7, lr}
 4184              		.cfi_def_cfa_offset 20
 4185              		.cfi_offset 4, -20
 4186              		.cfi_offset 5, -16
 4187              		.cfi_offset 6, -12
 4188              		.cfi_offset 7, -8
 4189              		.cfi_offset 14, -4
 4190              		.loc 1 3088 0
 4191 0002 8768     		ldr	r7, [r0, #8]
 4192              	.LVL413:
 4193              		.loc 1 3091 0
 4194 0004 D0F818E0 		ldr	lr, [r0, #24]
 4195              	.LVL414:
 4196              		.loc 1 3094 0
 4197 0008 046A     		ldr	r4, [r0, #32]
 4198 000a A4B2     		uxth	r4, r4
 4199              	.LVL415:
 4200              		.loc 1 3101 0
 4201 000c 4FF6FC45 		movw	r5, #64764
 4202              		.loc 1 3105 0
 4203 0010 24F02204 		bic	r4, r4, #34
 4204              	.LVL416:
 4205 0014 2243     		orrs	r2, r2, r4
 4206              	.LVL417:
 4207              		.loc 1 3097 0
 4208 0016 4FF6F876 		movw	r6, #65528
 4209              		.loc 1 3101 0
 4210 001a 0EEA0505 		and	r5, lr, r5
 4211              		.loc 1 3097 0
 4212 001e 3E40     		ands	r6, r6, r7
 4213              	.LVL418:
 4214              		.loc 1 3106 0
 4215 0020 42EA0313 		orr	r3, r2, r3, lsl #4
 4216              	.LVL419:
 4217              		.loc 1 3112 0
 4218 0024 45F48075 		orr	r5, r5, #256
ARM GAS  /tmp/ccJZ9K5Y.s 			page 75


 4219              	.LVL420:
 4220              		.loc 1 3109 0
 4221 0028 3143     		orrs	r1, r1, r6
 4222              	.LVL421:
 4223              		.loc 1 3115 0
 4224 002a 9AB2     		uxth	r2, r3
 4225              	.LVL422:
 4226              		.loc 1 3112 0
 4227 002c 45F00105 		orr	r5, r5, #1
 4228              		.loc 1 3109 0
 4229 0030 8160     		str	r1, [r0, #8]
 4230              		.loc 1 3112 0
 4231 0032 8561     		str	r5, [r0, #24]
 4232              		.loc 1 3115 0
 4233 0034 0262     		str	r2, [r0, #32]
 4234 0036 F0BD     		pop	{r4, r5, r6, r7, pc}
 4235              		.cfi_endproc
 4236              	.LFE197:
 4237              		.size	TIM_EncoderInterfaceConfig, .-TIM_EncoderInterfaceConfig
 4238              		.section	.text.TIM_SelectHallSensor,"ax",%progbits
 4239              		.align	2
 4240              		.p2align 4,,15
 4241              		.global	TIM_SelectHallSensor
 4242              		.thumb
 4243              		.thumb_func
 4244              		.type	TIM_SelectHallSensor, %function
 4245              	TIM_SelectHallSensor:
 4246              	.LFB198:
 4247              		.loc 1 3127 0
 4248              		.cfi_startproc
 4249              		@ args = 0, pretend = 0, frame = 0
 4250              		@ frame_needed = 0, uses_anonymous_args = 0
 4251              		@ link register save eliminated.
 4252              	.LVL423:
 4253              		.loc 1 3132 0
 4254 0000 29B9     		cbnz	r1, .L220
 4255              		.loc 1 3140 0
 4256 0002 4268     		ldr	r2, [r0, #4]
 4257 0004 4FF67F73 		movw	r3, #65407
 4258 0008 1340     		ands	r3, r3, r2
 4259 000a 4360     		str	r3, [r0, #4]
 4260 000c 7047     		bx	lr
 4261              	.L220:
 4262              		.loc 1 3135 0
 4263 000e 4368     		ldr	r3, [r0, #4]
 4264 0010 43F08003 		orr	r3, r3, #128
 4265 0014 4360     		str	r3, [r0, #4]
 4266 0016 7047     		bx	lr
 4267              		.cfi_endproc
 4268              	.LFE198:
 4269              		.size	TIM_SelectHallSensor, .-TIM_SelectHallSensor
 4270              		.section	.text.TIM_RemapConfig,"ax",%progbits
 4271              		.align	2
 4272              		.p2align 4,,15
 4273              		.global	TIM_RemapConfig
 4274              		.thumb
 4275              		.thumb_func
ARM GAS  /tmp/ccJZ9K5Y.s 			page 76


 4276              		.type	TIM_RemapConfig, %function
 4277              	TIM_RemapConfig:
 4278              	.LFB199:
 4279              		.loc 1 3178 0
 4280              		.cfi_startproc
 4281              		@ args = 0, pretend = 0, frame = 0
 4282              		@ frame_needed = 0, uses_anonymous_args = 0
 4283              		@ link register save eliminated.
 4284              	.LVL424:
 4285              		.loc 1 3184 0
 4286 0000 0165     		str	r1, [r0, #80]
 4287 0002 7047     		bx	lr
 4288              		.cfi_endproc
 4289              	.LFE199:
 4290              		.size	TIM_RemapConfig, .-TIM_RemapConfig
 4291              		.text
 4292              	.Letext0:
 4293              		.file 2 "/usr/arm-none-eabi/include/machine/_default_types.h"
 4294              		.file 3 "/usr/arm-none-eabi/include/sys/_stdint.h"
 4295              		.file 4 "ChibiOS_3.0.2/os/ext/CMSIS/ST/stm32f407xx.h"
 4296              		.file 5 "ChibiOS_3.0.2/os/ext/CMSIS/ST/stm32f4xx.h"
 4297              		.file 6 "ChibiOS_3.0.2/ext/stdperiph_stm32f4/inc/stm32f4xx_tim.h"
 4298              		.file 7 "ChibiOS_3.0.2/ext/stdperiph_stm32f4/inc/stm32f4xx_rcc.h"
 4299              		.file 8 "ChibiOS_3.0.2/os/ext/CMSIS/include/core_cm4.h"
 4300              		.section	.debug_info,"",%progbits
 4301              	.Ldebug_info0:
 4302 0000 02240000 		.4byte	0x2402
 4303 0004 0400     		.2byte	0x4
 4304 0006 00000000 		.4byte	.Ldebug_abbrev0
 4305 000a 04       		.byte	0x4
 4306 000b 01       		.uleb128 0x1
 4307 000c 260A0000 		.4byte	.LASF214
 4308 0010 01       		.byte	0x1
 4309 0011 2D090000 		.4byte	.LASF215
 4310 0015 23080000 		.4byte	.LASF216
 4311 0019 98000000 		.4byte	.Ldebug_ranges0+0x98
 4312 001d 00000000 		.4byte	0
 4313 0021 00000000 		.4byte	.Ldebug_line0
 4314 0025 02       		.uleb128 0x2
 4315 0026 01       		.byte	0x1
 4316 0027 06       		.byte	0x6
 4317 0028 91020000 		.4byte	.LASF0
 4318 002c 03       		.uleb128 0x3
 4319 002d D0000000 		.4byte	.LASF3
 4320 0031 02       		.byte	0x2
 4321 0032 1D       		.byte	0x1d
 4322 0033 37000000 		.4byte	0x37
 4323 0037 02       		.uleb128 0x2
 4324 0038 01       		.byte	0x1
 4325 0039 08       		.byte	0x8
 4326 003a 85080000 		.4byte	.LASF1
 4327 003e 02       		.uleb128 0x2
 4328 003f 02       		.byte	0x2
 4329 0040 05       		.byte	0x5
 4330 0041 C3080000 		.4byte	.LASF2
 4331 0045 03       		.uleb128 0x3
 4332 0046 CC030000 		.4byte	.LASF4
ARM GAS  /tmp/ccJZ9K5Y.s 			page 77


 4333 004a 02       		.byte	0x2
 4334 004b 2B       		.byte	0x2b
 4335 004c 50000000 		.4byte	0x50
 4336 0050 02       		.uleb128 0x2
 4337 0051 02       		.byte	0x2
 4338 0052 07       		.byte	0x7
 4339 0053 180C0000 		.4byte	.LASF5
 4340 0057 03       		.uleb128 0x3
 4341 0058 8F0B0000 		.4byte	.LASF6
 4342 005c 02       		.byte	0x2
 4343 005d 3F       		.byte	0x3f
 4344 005e 62000000 		.4byte	0x62
 4345 0062 02       		.uleb128 0x2
 4346 0063 04       		.byte	0x4
 4347 0064 05       		.byte	0x5
 4348 0065 EE020000 		.4byte	.LASF7
 4349 0069 03       		.uleb128 0x3
 4350 006a E3030000 		.4byte	.LASF8
 4351 006e 02       		.byte	0x2
 4352 006f 41       		.byte	0x41
 4353 0070 74000000 		.4byte	0x74
 4354 0074 02       		.uleb128 0x2
 4355 0075 04       		.byte	0x4
 4356 0076 07       		.byte	0x7
 4357 0077 DF090000 		.4byte	.LASF9
 4358 007b 02       		.uleb128 0x2
 4359 007c 08       		.byte	0x8
 4360 007d 05       		.byte	0x5
 4361 007e 1D030000 		.4byte	.LASF10
 4362 0082 02       		.uleb128 0x2
 4363 0083 08       		.byte	0x8
 4364 0084 07       		.byte	0x7
 4365 0085 B6020000 		.4byte	.LASF11
 4366 0089 04       		.uleb128 0x4
 4367 008a 04       		.byte	0x4
 4368 008b 05       		.byte	0x5
 4369 008c 696E7400 		.ascii	"int\000"
 4370 0090 02       		.uleb128 0x2
 4371 0091 04       		.byte	0x4
 4372 0092 07       		.byte	0x7
 4373 0093 71040000 		.4byte	.LASF12
 4374 0097 03       		.uleb128 0x3
 4375 0098 EC0C0000 		.4byte	.LASF13
 4376 009c 03       		.byte	0x3
 4377 009d 14       		.byte	0x14
 4378 009e 2C000000 		.4byte	0x2c
 4379 00a2 03       		.uleb128 0x3
 4380 00a3 2B030000 		.4byte	.LASF14
 4381 00a7 03       		.byte	0x3
 4382 00a8 1A       		.byte	0x1a
 4383 00a9 45000000 		.4byte	0x45
 4384 00ad 03       		.uleb128 0x3
 4385 00ae 7D080000 		.4byte	.LASF15
 4386 00b2 03       		.byte	0x3
 4387 00b3 1F       		.byte	0x1f
 4388 00b4 57000000 		.4byte	0x57
 4389 00b8 03       		.uleb128 0x3
ARM GAS  /tmp/ccJZ9K5Y.s 			page 78


 4390 00b9 920C0000 		.4byte	.LASF16
 4391 00bd 03       		.byte	0x3
 4392 00be 20       		.byte	0x20
 4393 00bf 69000000 		.4byte	0x69
 4394 00c3 02       		.uleb128 0x2
 4395 00c4 04       		.byte	0x4
 4396 00c5 07       		.byte	0x7
 4397 00c6 82060000 		.4byte	.LASF17
 4398 00ca 05       		.uleb128 0x5
 4399 00cb B8000000 		.4byte	0xb8
 4400 00cf 06       		.uleb128 0x6
 4401 00d0 54       		.byte	0x54
 4402 00d1 04       		.byte	0x4
 4403 00d2 EC02     		.2byte	0x2ec
 4404 00d4 E8010000 		.4byte	0x1e8
 4405 00d8 07       		.uleb128 0x7
 4406 00d9 43523100 		.ascii	"CR1\000"
 4407 00dd 04       		.byte	0x4
 4408 00de EE02     		.2byte	0x2ee
 4409 00e0 CA000000 		.4byte	0xca
 4410 00e4 00       		.byte	0
 4411 00e5 07       		.uleb128 0x7
 4412 00e6 43523200 		.ascii	"CR2\000"
 4413 00ea 04       		.byte	0x4
 4414 00eb EF02     		.2byte	0x2ef
 4415 00ed CA000000 		.4byte	0xca
 4416 00f1 04       		.byte	0x4
 4417 00f2 08       		.uleb128 0x8
 4418 00f3 6A050000 		.4byte	.LASF18
 4419 00f7 04       		.byte	0x4
 4420 00f8 F002     		.2byte	0x2f0
 4421 00fa CA000000 		.4byte	0xca
 4422 00fe 08       		.byte	0x8
 4423 00ff 08       		.uleb128 0x8
 4424 0100 4A000000 		.4byte	.LASF19
 4425 0104 04       		.byte	0x4
 4426 0105 F102     		.2byte	0x2f1
 4427 0107 CA000000 		.4byte	0xca
 4428 010b 0C       		.byte	0xc
 4429 010c 07       		.uleb128 0x7
 4430 010d 535200   		.ascii	"SR\000"
 4431 0110 04       		.byte	0x4
 4432 0111 F202     		.2byte	0x2f2
 4433 0113 CA000000 		.4byte	0xca
 4434 0117 10       		.byte	0x10
 4435 0118 07       		.uleb128 0x7
 4436 0119 45475200 		.ascii	"EGR\000"
 4437 011d 04       		.byte	0x4
 4438 011e F302     		.2byte	0x2f3
 4439 0120 CA000000 		.4byte	0xca
 4440 0124 14       		.byte	0x14
 4441 0125 08       		.uleb128 0x8
 4442 0126 6F020000 		.4byte	.LASF20
 4443 012a 04       		.byte	0x4
 4444 012b F402     		.2byte	0x2f4
 4445 012d CA000000 		.4byte	0xca
 4446 0131 18       		.byte	0x18
ARM GAS  /tmp/ccJZ9K5Y.s 			page 79


 4447 0132 08       		.uleb128 0x8
 4448 0133 75020000 		.4byte	.LASF21
 4449 0137 04       		.byte	0x4
 4450 0138 F502     		.2byte	0x2f5
 4451 013a CA000000 		.4byte	0xca
 4452 013e 1C       		.byte	0x1c
 4453 013f 08       		.uleb128 0x8
 4454 0140 18030000 		.4byte	.LASF22
 4455 0144 04       		.byte	0x4
 4456 0145 F602     		.2byte	0x2f6
 4457 0147 CA000000 		.4byte	0xca
 4458 014b 20       		.byte	0x20
 4459 014c 07       		.uleb128 0x7
 4460 014d 434E5400 		.ascii	"CNT\000"
 4461 0151 04       		.byte	0x4
 4462 0152 F702     		.2byte	0x2f7
 4463 0154 CA000000 		.4byte	0xca
 4464 0158 24       		.byte	0x24
 4465 0159 07       		.uleb128 0x7
 4466 015a 50534300 		.ascii	"PSC\000"
 4467 015e 04       		.byte	0x4
 4468 015f F802     		.2byte	0x2f8
 4469 0161 CA000000 		.4byte	0xca
 4470 0165 28       		.byte	0x28
 4471 0166 07       		.uleb128 0x7
 4472 0167 41525200 		.ascii	"ARR\000"
 4473 016b 04       		.byte	0x4
 4474 016c F902     		.2byte	0x2f9
 4475 016e CA000000 		.4byte	0xca
 4476 0172 2C       		.byte	0x2c
 4477 0173 07       		.uleb128 0x7
 4478 0174 52435200 		.ascii	"RCR\000"
 4479 0178 04       		.byte	0x4
 4480 0179 FA02     		.2byte	0x2fa
 4481 017b CA000000 		.4byte	0xca
 4482 017f 30       		.byte	0x30
 4483 0180 08       		.uleb128 0x8
 4484 0181 9B0C0000 		.4byte	.LASF23
 4485 0185 04       		.byte	0x4
 4486 0186 FB02     		.2byte	0x2fb
 4487 0188 CA000000 		.4byte	0xca
 4488 018c 34       		.byte	0x34
 4489 018d 08       		.uleb128 0x8
 4490 018e 8F010000 		.4byte	.LASF24
 4491 0192 04       		.byte	0x4
 4492 0193 FC02     		.2byte	0x2fc
 4493 0195 CA000000 		.4byte	0xca
 4494 0199 38       		.byte	0x38
 4495 019a 08       		.uleb128 0x8
 4496 019b B80C0000 		.4byte	.LASF25
 4497 019f 04       		.byte	0x4
 4498 01a0 FD02     		.2byte	0x2fd
 4499 01a2 CA000000 		.4byte	0xca
 4500 01a6 3C       		.byte	0x3c
 4501 01a7 08       		.uleb128 0x8
 4502 01a8 BD0C0000 		.4byte	.LASF26
 4503 01ac 04       		.byte	0x4
ARM GAS  /tmp/ccJZ9K5Y.s 			page 80


 4504 01ad FE02     		.2byte	0x2fe
 4505 01af CA000000 		.4byte	0xca
 4506 01b3 40       		.byte	0x40
 4507 01b4 08       		.uleb128 0x8
 4508 01b5 CD080000 		.4byte	.LASF27
 4509 01b9 04       		.byte	0x4
 4510 01ba FF02     		.2byte	0x2ff
 4511 01bc CA000000 		.4byte	0xca
 4512 01c0 44       		.byte	0x44
 4513 01c1 07       		.uleb128 0x7
 4514 01c2 44435200 		.ascii	"DCR\000"
 4515 01c6 04       		.byte	0x4
 4516 01c7 0003     		.2byte	0x300
 4517 01c9 CA000000 		.4byte	0xca
 4518 01cd 48       		.byte	0x48
 4519 01ce 08       		.uleb128 0x8
 4520 01cf 210A0000 		.4byte	.LASF28
 4521 01d3 04       		.byte	0x4
 4522 01d4 0103     		.2byte	0x301
 4523 01d6 CA000000 		.4byte	0xca
 4524 01da 4C       		.byte	0x4c
 4525 01db 07       		.uleb128 0x7
 4526 01dc 4F5200   		.ascii	"OR\000"
 4527 01df 04       		.byte	0x4
 4528 01e0 0203     		.2byte	0x302
 4529 01e2 CA000000 		.4byte	0xca
 4530 01e6 50       		.byte	0x50
 4531 01e7 00       		.byte	0
 4532 01e8 09       		.uleb128 0x9
 4533 01e9 D7030000 		.4byte	.LASF29
 4534 01ed 04       		.byte	0x4
 4535 01ee 0303     		.2byte	0x303
 4536 01f0 CF000000 		.4byte	0xcf
 4537 01f4 0A       		.uleb128 0xa
 4538 01f5 01       		.byte	0x1
 4539 01f6 05       		.byte	0x5
 4540 01f7 A2       		.byte	0xa2
 4541 01f8 09020000 		.4byte	0x209
 4542 01fc 0B       		.uleb128 0xb
 4543 01fd 33060000 		.4byte	.LASF30
 4544 0201 00       		.sleb128 0
 4545 0202 0C       		.uleb128 0xc
 4546 0203 53455400 		.ascii	"SET\000"
 4547 0207 01       		.sleb128 1
 4548 0208 00       		.byte	0
 4549 0209 03       		.uleb128 0x3
 4550 020a C5000000 		.4byte	.LASF31
 4551 020e 05       		.byte	0x5
 4552 020f A5       		.byte	0xa5
 4553 0210 F4010000 		.4byte	0x1f4
 4554 0214 03       		.uleb128 0x3
 4555 0215 0F080000 		.4byte	.LASF32
 4556 0219 05       		.byte	0x5
 4557 021a A5       		.byte	0xa5
 4558 021b F4010000 		.4byte	0x1f4
 4559 021f 0A       		.uleb128 0xa
 4560 0220 01       		.byte	0x1
ARM GAS  /tmp/ccJZ9K5Y.s 			page 81


 4561 0221 05       		.byte	0x5
 4562 0222 A8       		.byte	0xa8
 4563 0223 34020000 		.4byte	0x234
 4564 0227 0B       		.uleb128 0xb
 4565 0228 69010000 		.4byte	.LASF33
 4566 022c 00       		.sleb128 0
 4567 022d 0B       		.uleb128 0xb
 4568 022e 08030000 		.4byte	.LASF34
 4569 0232 01       		.sleb128 1
 4570 0233 00       		.byte	0
 4571 0234 03       		.uleb128 0x3
 4572 0235 5A070000 		.4byte	.LASF35
 4573 0239 05       		.byte	0x5
 4574 023a AB       		.byte	0xab
 4575 023b 1F020000 		.4byte	0x21f
 4576 023f 0D       		.uleb128 0xd
 4577 0240 0C       		.byte	0xc
 4578 0241 06       		.byte	0x6
 4579 0242 37       		.byte	0x37
 4580 0243 84020000 		.4byte	0x284
 4581 0247 0E       		.uleb128 0xe
 4582 0248 54080000 		.4byte	.LASF36
 4583 024c 06       		.byte	0x6
 4584 024d 39       		.byte	0x39
 4585 024e A2000000 		.4byte	0xa2
 4586 0252 00       		.byte	0
 4587 0253 0E       		.uleb128 0xe
 4588 0254 86000000 		.4byte	.LASF37
 4589 0258 06       		.byte	0x6
 4590 0259 3C       		.byte	0x3c
 4591 025a A2000000 		.4byte	0xa2
 4592 025e 02       		.byte	0x2
 4593 025f 0E       		.uleb128 0xe
 4594 0260 560B0000 		.4byte	.LASF38
 4595 0264 06       		.byte	0x6
 4596 0265 3F       		.byte	0x3f
 4597 0266 B8000000 		.4byte	0xb8
 4598 026a 04       		.byte	0x4
 4599 026b 0E       		.uleb128 0xe
 4600 026c 98040000 		.4byte	.LASF39
 4601 0270 06       		.byte	0x6
 4602 0271 43       		.byte	0x43
 4603 0272 A2000000 		.4byte	0xa2
 4604 0276 08       		.byte	0x8
 4605 0277 0E       		.uleb128 0xe
 4606 0278 260D0000 		.4byte	.LASF40
 4607 027c 06       		.byte	0x6
 4608 027d 46       		.byte	0x46
 4609 027e 97000000 		.4byte	0x97
 4610 0282 0A       		.byte	0xa
 4611 0283 00       		.byte	0
 4612 0284 03       		.uleb128 0x3
 4613 0285 610B0000 		.4byte	.LASF41
 4614 0289 06       		.byte	0x6
 4615 028a 4E       		.byte	0x4e
 4616 028b 3F020000 		.4byte	0x23f
 4617 028f 0D       		.uleb128 0xd
ARM GAS  /tmp/ccJZ9K5Y.s 			page 82


 4618 0290 14       		.byte	0x14
 4619 0291 06       		.byte	0x6
 4620 0292 54       		.byte	0x54
 4621 0293 F8020000 		.4byte	0x2f8
 4622 0297 0E       		.uleb128 0xe
 4623 0298 390C0000 		.4byte	.LASF42
 4624 029c 06       		.byte	0x6
 4625 029d 56       		.byte	0x56
 4626 029e A2000000 		.4byte	0xa2
 4627 02a2 00       		.byte	0
 4628 02a3 0E       		.uleb128 0xe
 4629 02a4 E0070000 		.4byte	.LASF43
 4630 02a8 06       		.byte	0x6
 4631 02a9 59       		.byte	0x59
 4632 02aa A2000000 		.4byte	0xa2
 4633 02ae 02       		.byte	0x2
 4634 02af 0E       		.uleb128 0xe
 4635 02b0 F7020000 		.4byte	.LASF44
 4636 02b4 06       		.byte	0x6
 4637 02b5 5C       		.byte	0x5c
 4638 02b6 A2000000 		.4byte	0xa2
 4639 02ba 04       		.byte	0x4
 4640 02bb 0E       		.uleb128 0xe
 4641 02bc 36010000 		.4byte	.LASF45
 4642 02c0 06       		.byte	0x6
 4643 02c1 60       		.byte	0x60
 4644 02c2 B8000000 		.4byte	0xb8
 4645 02c6 08       		.byte	0x8
 4646 02c7 0E       		.uleb128 0xe
 4647 02c8 89040000 		.4byte	.LASF46
 4648 02cc 06       		.byte	0x6
 4649 02cd 63       		.byte	0x63
 4650 02ce A2000000 		.4byte	0xa2
 4651 02d2 0C       		.byte	0xc
 4652 02d3 0E       		.uleb128 0xe
 4653 02d4 F1090000 		.4byte	.LASF47
 4654 02d8 06       		.byte	0x6
 4655 02d9 66       		.byte	0x66
 4656 02da A2000000 		.4byte	0xa2
 4657 02de 0E       		.byte	0xe
 4658 02df 0E       		.uleb128 0xe
 4659 02e0 9F0D0000 		.4byte	.LASF48
 4660 02e4 06       		.byte	0x6
 4661 02e5 6A       		.byte	0x6a
 4662 02e6 A2000000 		.4byte	0xa2
 4663 02ea 10       		.byte	0x10
 4664 02eb 0E       		.uleb128 0xe
 4665 02ec 20070000 		.4byte	.LASF49
 4666 02f0 06       		.byte	0x6
 4667 02f1 6E       		.byte	0x6e
 4668 02f2 A2000000 		.4byte	0xa2
 4669 02f6 12       		.byte	0x12
 4670 02f7 00       		.byte	0
 4671 02f8 03       		.uleb128 0x3
 4672 02f9 C20C0000 		.4byte	.LASF50
 4673 02fd 06       		.byte	0x6
 4674 02fe 71       		.byte	0x71
ARM GAS  /tmp/ccJZ9K5Y.s 			page 83


 4675 02ff 8F020000 		.4byte	0x28f
 4676 0303 0D       		.uleb128 0xd
 4677 0304 0A       		.byte	0xa
 4678 0305 06       		.byte	0x6
 4679 0306 77       		.byte	0x77
 4680 0307 48030000 		.4byte	0x348
 4681 030b 0E       		.uleb128 0xe
 4682 030c 63020000 		.4byte	.LASF51
 4683 0310 06       		.byte	0x6
 4684 0311 7A       		.byte	0x7a
 4685 0312 A2000000 		.4byte	0xa2
 4686 0316 00       		.byte	0
 4687 0317 0E       		.uleb128 0xe
 4688 0318 00080000 		.4byte	.LASF52
 4689 031c 06       		.byte	0x6
 4690 031d 7D       		.byte	0x7d
 4691 031e A2000000 		.4byte	0xa2
 4692 0322 02       		.byte	0x2
 4693 0323 0E       		.uleb128 0xe
 4694 0324 F1010000 		.4byte	.LASF53
 4695 0328 06       		.byte	0x6
 4696 0329 80       		.byte	0x80
 4697 032a A2000000 		.4byte	0xa2
 4698 032e 04       		.byte	0x4
 4699 032f 0E       		.uleb128 0xe
 4700 0330 F0060000 		.4byte	.LASF54
 4701 0334 06       		.byte	0x6
 4702 0335 83       		.byte	0x83
 4703 0336 A2000000 		.4byte	0xa2
 4704 033a 06       		.byte	0x6
 4705 033b 0E       		.uleb128 0xe
 4706 033c 94010000 		.4byte	.LASF55
 4707 0340 06       		.byte	0x6
 4708 0341 86       		.byte	0x86
 4709 0342 A2000000 		.4byte	0xa2
 4710 0346 08       		.byte	0x8
 4711 0347 00       		.byte	0
 4712 0348 03       		.uleb128 0x3
 4713 0349 990B0000 		.4byte	.LASF56
 4714 034d 06       		.byte	0x6
 4715 034e 88       		.byte	0x88
 4716 034f 03030000 		.4byte	0x303
 4717 0353 0D       		.uleb128 0xd
 4718 0354 0E       		.byte	0xe
 4719 0355 06       		.byte	0x6
 4720 0356 8F       		.byte	0x8f
 4721 0357 B0030000 		.4byte	0x3b0
 4722 035b 0E       		.uleb128 0xe
 4723 035c 6F050000 		.4byte	.LASF57
 4724 0360 06       		.byte	0x6
 4725 0361 92       		.byte	0x92
 4726 0362 A2000000 		.4byte	0xa2
 4727 0366 00       		.byte	0
 4728 0367 0E       		.uleb128 0xe
 4729 0368 65090000 		.4byte	.LASF58
 4730 036c 06       		.byte	0x6
 4731 036d 95       		.byte	0x95
ARM GAS  /tmp/ccJZ9K5Y.s 			page 84


 4732 036e A2000000 		.4byte	0xa2
 4733 0372 02       		.byte	0x2
 4734 0373 0E       		.uleb128 0xe
 4735 0374 93080000 		.4byte	.LASF59
 4736 0378 06       		.byte	0x6
 4737 0379 98       		.byte	0x98
 4738 037a A2000000 		.4byte	0xa2
 4739 037e 04       		.byte	0x4
 4740 037f 0E       		.uleb128 0xe
 4741 0380 B9060000 		.4byte	.LASF60
 4742 0384 06       		.byte	0x6
 4743 0385 9B       		.byte	0x9b
 4744 0386 A2000000 		.4byte	0xa2
 4745 038a 06       		.byte	0x6
 4746 038b 0E       		.uleb128 0xe
 4747 038c 9F060000 		.4byte	.LASF61
 4748 0390 06       		.byte	0x6
 4749 0391 9F       		.byte	0x9f
 4750 0392 A2000000 		.4byte	0xa2
 4751 0396 08       		.byte	0x8
 4752 0397 0E       		.uleb128 0xe
 4753 0398 540C0000 		.4byte	.LASF62
 4754 039c 06       		.byte	0x6
 4755 039d A2       		.byte	0xa2
 4756 039e A2000000 		.4byte	0xa2
 4757 03a2 0A       		.byte	0xa
 4758 03a3 0E       		.uleb128 0xe
 4759 03a4 A8050000 		.4byte	.LASF63
 4760 03a8 06       		.byte	0x6
 4761 03a9 A5       		.byte	0xa5
 4762 03aa A2000000 		.4byte	0xa2
 4763 03ae 0C       		.byte	0xc
 4764 03af 00       		.byte	0
 4765 03b0 03       		.uleb128 0x3
 4766 03b1 45050000 		.4byte	.LASF64
 4767 03b5 06       		.byte	0x6
 4768 03b6 A7       		.byte	0xa7
 4769 03b7 53030000 		.4byte	0x353
 4770 03bb 0F       		.uleb128 0xf
 4771 03bc 18080000 		.4byte	.LASF69
 4772 03c0 01       		.byte	0x1
 4773 03c1 880C     		.2byte	0xc88
 4774 03c3 01       		.byte	0x1
 4775 03c4 11040000 		.4byte	0x411
 4776 03c8 10       		.uleb128 0x10
 4777 03c9 7D050000 		.4byte	.LASF65
 4778 03cd 01       		.byte	0x1
 4779 03ce 880C     		.2byte	0xc88
 4780 03d0 11040000 		.4byte	0x411
 4781 03d4 10       		.uleb128 0x10
 4782 03d5 00080000 		.4byte	.LASF52
 4783 03d9 01       		.byte	0x1
 4784 03da 880C     		.2byte	0xc88
 4785 03dc A2000000 		.4byte	0xa2
 4786 03e0 10       		.uleb128 0x10
 4787 03e1 F1010000 		.4byte	.LASF53
 4788 03e5 01       		.byte	0x1
ARM GAS  /tmp/ccJZ9K5Y.s 			page 85


 4789 03e6 880C     		.2byte	0xc88
 4790 03e8 A2000000 		.4byte	0xa2
 4791 03ec 10       		.uleb128 0x10
 4792 03ed 94010000 		.4byte	.LASF55
 4793 03f1 01       		.byte	0x1
 4794 03f2 890C     		.2byte	0xc89
 4795 03f4 A2000000 		.4byte	0xa2
 4796 03f8 11       		.uleb128 0x11
 4797 03f9 57010000 		.4byte	.LASF66
 4798 03fd 01       		.byte	0x1
 4799 03fe 8B0C     		.2byte	0xc8b
 4800 0400 A2000000 		.4byte	0xa2
 4801 0404 11       		.uleb128 0x11
 4802 0405 52040000 		.4byte	.LASF67
 4803 0409 01       		.byte	0x1
 4804 040a 8B0C     		.2byte	0xc8b
 4805 040c A2000000 		.4byte	0xa2
 4806 0410 00       		.byte	0
 4807 0411 12       		.uleb128 0x12
 4808 0412 04       		.byte	0x4
 4809 0413 E8010000 		.4byte	0x1e8
 4810 0417 13       		.uleb128 0x13
 4811 0418 D4050000 		.4byte	.LASF71
 4812 041c 01       		.byte	0x1
 4813 041d 3308     		.2byte	0x833
 4814 041f 01       		.byte	0x1
 4815 0420 3D040000 		.4byte	0x43d
 4816 0424 10       		.uleb128 0x10
 4817 0425 7D050000 		.4byte	.LASF65
 4818 0429 01       		.byte	0x1
 4819 042a 3308     		.2byte	0x833
 4820 042c 11040000 		.4byte	0x411
 4821 0430 10       		.uleb128 0x10
 4822 0431 BB0D0000 		.4byte	.LASF68
 4823 0435 01       		.byte	0x1
 4824 0436 3308     		.2byte	0x833
 4825 0438 A2000000 		.4byte	0xa2
 4826 043c 00       		.byte	0
 4827 043d 0F       		.uleb128 0xf
 4828 043e B0090000 		.4byte	.LASF70
 4829 0442 01       		.byte	0x1
 4830 0443 B10C     		.2byte	0xcb1
 4831 0445 01       		.byte	0x1
 4832 0446 9F040000 		.4byte	0x49f
 4833 044a 10       		.uleb128 0x10
 4834 044b 7D050000 		.4byte	.LASF65
 4835 044f 01       		.byte	0x1
 4836 0450 B10C     		.2byte	0xcb1
 4837 0452 11040000 		.4byte	0x411
 4838 0456 10       		.uleb128 0x10
 4839 0457 00080000 		.4byte	.LASF52
 4840 045b 01       		.byte	0x1
 4841 045c B10C     		.2byte	0xcb1
 4842 045e A2000000 		.4byte	0xa2
 4843 0462 10       		.uleb128 0x10
 4844 0463 F1010000 		.4byte	.LASF53
 4845 0467 01       		.byte	0x1
ARM GAS  /tmp/ccJZ9K5Y.s 			page 86


 4846 0468 B10C     		.2byte	0xcb1
 4847 046a A2000000 		.4byte	0xa2
 4848 046e 10       		.uleb128 0x10
 4849 046f 94010000 		.4byte	.LASF55
 4850 0473 01       		.byte	0x1
 4851 0474 B20C     		.2byte	0xcb2
 4852 0476 A2000000 		.4byte	0xa2
 4853 047a 11       		.uleb128 0x11
 4854 047b 57010000 		.4byte	.LASF66
 4855 047f 01       		.byte	0x1
 4856 0480 B40C     		.2byte	0xcb4
 4857 0482 A2000000 		.4byte	0xa2
 4858 0486 11       		.uleb128 0x11
 4859 0487 52040000 		.4byte	.LASF67
 4860 048b 01       		.byte	0x1
 4861 048c B40C     		.2byte	0xcb4
 4862 048e A2000000 		.4byte	0xa2
 4863 0492 14       		.uleb128 0x14
 4864 0493 746D7000 		.ascii	"tmp\000"
 4865 0497 01       		.byte	0x1
 4866 0498 B40C     		.2byte	0xcb4
 4867 049a A2000000 		.4byte	0xa2
 4868 049e 00       		.byte	0
 4869 049f 13       		.uleb128 0x13
 4870 04a0 D2080000 		.4byte	.LASF72
 4871 04a4 01       		.byte	0x1
 4872 04a5 4C08     		.2byte	0x84c
 4873 04a7 01       		.byte	0x1
 4874 04a8 C5040000 		.4byte	0x4c5
 4875 04ac 10       		.uleb128 0x10
 4876 04ad 7D050000 		.4byte	.LASF65
 4877 04b1 01       		.byte	0x1
 4878 04b2 4C08     		.2byte	0x84c
 4879 04b4 11040000 		.4byte	0x411
 4880 04b8 10       		.uleb128 0x10
 4881 04b9 BB0D0000 		.4byte	.LASF68
 4882 04bd 01       		.byte	0x1
 4883 04be 4C08     		.2byte	0x84c
 4884 04c0 A2000000 		.4byte	0xa2
 4885 04c4 00       		.byte	0
 4886 04c5 0F       		.uleb128 0xf
 4887 04c6 F7050000 		.4byte	.LASF73
 4888 04ca 01       		.byte	0x1
 4889 04cb DB0C     		.2byte	0xcdb
 4890 04cd 01       		.byte	0x1
 4891 04ce 27050000 		.4byte	0x527
 4892 04d2 10       		.uleb128 0x10
 4893 04d3 7D050000 		.4byte	.LASF65
 4894 04d7 01       		.byte	0x1
 4895 04d8 DB0C     		.2byte	0xcdb
 4896 04da 11040000 		.4byte	0x411
 4897 04de 10       		.uleb128 0x10
 4898 04df 00080000 		.4byte	.LASF52
 4899 04e3 01       		.byte	0x1
 4900 04e4 DB0C     		.2byte	0xcdb
 4901 04e6 A2000000 		.4byte	0xa2
 4902 04ea 10       		.uleb128 0x10
ARM GAS  /tmp/ccJZ9K5Y.s 			page 87


 4903 04eb F1010000 		.4byte	.LASF53
 4904 04ef 01       		.byte	0x1
 4905 04f0 DB0C     		.2byte	0xcdb
 4906 04f2 A2000000 		.4byte	0xa2
 4907 04f6 10       		.uleb128 0x10
 4908 04f7 94010000 		.4byte	.LASF55
 4909 04fb 01       		.byte	0x1
 4910 04fc DC0C     		.2byte	0xcdc
 4911 04fe A2000000 		.4byte	0xa2
 4912 0502 11       		.uleb128 0x11
 4913 0503 60010000 		.4byte	.LASF74
 4914 0507 01       		.byte	0x1
 4915 0508 DE0C     		.2byte	0xcde
 4916 050a A2000000 		.4byte	0xa2
 4917 050e 11       		.uleb128 0x11
 4918 050f 52040000 		.4byte	.LASF67
 4919 0513 01       		.byte	0x1
 4920 0514 DE0C     		.2byte	0xcde
 4921 0516 A2000000 		.4byte	0xa2
 4922 051a 14       		.uleb128 0x14
 4923 051b 746D7000 		.ascii	"tmp\000"
 4924 051f 01       		.byte	0x1
 4925 0520 DE0C     		.2byte	0xcde
 4926 0522 A2000000 		.4byte	0xa2
 4927 0526 00       		.byte	0
 4928 0527 13       		.uleb128 0x13
 4929 0528 0C070000 		.4byte	.LASF75
 4930 052c 01       		.byte	0x1
 4931 052d 6408     		.2byte	0x864
 4932 052f 01       		.byte	0x1
 4933 0530 4D050000 		.4byte	0x54d
 4934 0534 10       		.uleb128 0x10
 4935 0535 7D050000 		.4byte	.LASF65
 4936 0539 01       		.byte	0x1
 4937 053a 6408     		.2byte	0x864
 4938 053c 11040000 		.4byte	0x411
 4939 0540 10       		.uleb128 0x10
 4940 0541 BB0D0000 		.4byte	.LASF68
 4941 0545 01       		.byte	0x1
 4942 0546 6408     		.2byte	0x864
 4943 0548 A2000000 		.4byte	0xa2
 4944 054c 00       		.byte	0
 4945 054d 0F       		.uleb128 0xf
 4946 054e 7E040000 		.4byte	.LASF76
 4947 0552 01       		.byte	0x1
 4948 0553 040D     		.2byte	0xd04
 4949 0555 01       		.byte	0x1
 4950 0556 AF050000 		.4byte	0x5af
 4951 055a 10       		.uleb128 0x10
 4952 055b 7D050000 		.4byte	.LASF65
 4953 055f 01       		.byte	0x1
 4954 0560 040D     		.2byte	0xd04
 4955 0562 11040000 		.4byte	0x411
 4956 0566 10       		.uleb128 0x10
 4957 0567 00080000 		.4byte	.LASF52
 4958 056b 01       		.byte	0x1
 4959 056c 040D     		.2byte	0xd04
ARM GAS  /tmp/ccJZ9K5Y.s 			page 88


 4960 056e A2000000 		.4byte	0xa2
 4961 0572 10       		.uleb128 0x10
 4962 0573 F1010000 		.4byte	.LASF53
 4963 0577 01       		.byte	0x1
 4964 0578 040D     		.2byte	0xd04
 4965 057a A2000000 		.4byte	0xa2
 4966 057e 10       		.uleb128 0x10
 4967 057f 94010000 		.4byte	.LASF55
 4968 0583 01       		.byte	0x1
 4969 0584 050D     		.2byte	0xd05
 4970 0586 A2000000 		.4byte	0xa2
 4971 058a 11       		.uleb128 0x11
 4972 058b 60010000 		.4byte	.LASF74
 4973 058f 01       		.byte	0x1
 4974 0590 070D     		.2byte	0xd07
 4975 0592 A2000000 		.4byte	0xa2
 4976 0596 11       		.uleb128 0x11
 4977 0597 52040000 		.4byte	.LASF67
 4978 059b 01       		.byte	0x1
 4979 059c 070D     		.2byte	0xd07
 4980 059e A2000000 		.4byte	0xa2
 4981 05a2 14       		.uleb128 0x14
 4982 05a3 746D7000 		.ascii	"tmp\000"
 4983 05a7 01       		.byte	0x1
 4984 05a8 070D     		.2byte	0xd07
 4985 05aa A2000000 		.4byte	0xa2
 4986 05ae 00       		.byte	0
 4987 05af 13       		.uleb128 0x13
 4988 05b0 050E0000 		.4byte	.LASF77
 4989 05b4 01       		.byte	0x1
 4990 05b5 7C08     		.2byte	0x87c
 4991 05b7 01       		.byte	0x1
 4992 05b8 D5050000 		.4byte	0x5d5
 4993 05bc 10       		.uleb128 0x10
 4994 05bd 7D050000 		.4byte	.LASF65
 4995 05c1 01       		.byte	0x1
 4996 05c2 7C08     		.2byte	0x87c
 4997 05c4 11040000 		.4byte	0x411
 4998 05c8 10       		.uleb128 0x10
 4999 05c9 BB0D0000 		.4byte	.LASF68
 5000 05cd 01       		.byte	0x1
 5001 05ce 7C08     		.2byte	0x87c
 5002 05d0 A2000000 		.4byte	0xa2
 5003 05d4 00       		.byte	0
 5004 05d5 13       		.uleb128 0x13
 5005 05d6 78010000 		.4byte	.LASF78
 5006 05da 01       		.byte	0x1
 5007 05db 500B     		.2byte	0xb50
 5008 05dd 01       		.byte	0x1
 5009 05de 07060000 		.4byte	0x607
 5010 05e2 10       		.uleb128 0x10
 5011 05e3 7D050000 		.4byte	.LASF65
 5012 05e7 01       		.byte	0x1
 5013 05e8 500B     		.2byte	0xb50
 5014 05ea 11040000 		.4byte	0x411
 5015 05ee 10       		.uleb128 0x10
 5016 05ef 60000000 		.4byte	.LASF79
ARM GAS  /tmp/ccJZ9K5Y.s 			page 89


 5017 05f3 01       		.byte	0x1
 5018 05f4 500B     		.2byte	0xb50
 5019 05f6 A2000000 		.4byte	0xa2
 5020 05fa 11       		.uleb128 0x11
 5021 05fb 39060000 		.4byte	.LASF80
 5022 05ff 01       		.byte	0x1
 5023 0600 520B     		.2byte	0xb52
 5024 0602 A2000000 		.4byte	0xa2
 5025 0606 00       		.byte	0
 5026 0607 13       		.uleb128 0x13
 5027 0608 C50D0000 		.4byte	.LASF81
 5028 060c 01       		.byte	0x1
 5029 060d C80B     		.2byte	0xbc8
 5030 060f 01       		.byte	0x1
 5031 0610 51060000 		.4byte	0x651
 5032 0614 10       		.uleb128 0x10
 5033 0615 7D050000 		.4byte	.LASF65
 5034 0619 01       		.byte	0x1
 5035 061a C80B     		.2byte	0xbc8
 5036 061c 11040000 		.4byte	0x411
 5037 0620 10       		.uleb128 0x10
 5038 0621 8B060000 		.4byte	.LASF82
 5039 0625 01       		.byte	0x1
 5040 0626 C80B     		.2byte	0xbc8
 5041 0628 A2000000 		.4byte	0xa2
 5042 062c 10       		.uleb128 0x10
 5043 062d 41060000 		.4byte	.LASF83
 5044 0631 01       		.byte	0x1
 5045 0632 C90B     		.2byte	0xbc9
 5046 0634 A2000000 		.4byte	0xa2
 5047 0638 10       		.uleb128 0x10
 5048 0639 850D0000 		.4byte	.LASF84
 5049 063d 01       		.byte	0x1
 5050 063e C90B     		.2byte	0xbc9
 5051 0640 A2000000 		.4byte	0xa2
 5052 0644 11       		.uleb128 0x11
 5053 0645 39060000 		.4byte	.LASF80
 5054 0649 01       		.byte	0x1
 5055 064a CB0B     		.2byte	0xbcb
 5056 064c A2000000 		.4byte	0xa2
 5057 0650 00       		.byte	0
 5058 0651 15       		.uleb128 0x15
 5059 0652 D30D0000 		.4byte	.LASF85
 5060 0656 01       		.byte	0x1
 5061 0657 CC       		.byte	0xcc
 5062 0658 00000000 		.4byte	.LFB112
 5063 065c B8010000 		.4byte	.LFE112-.LFB112
 5064 0660 01       		.uleb128 0x1
 5065 0661 9C       		.byte	0x9c
 5066 0662 28090000 		.4byte	0x928
 5067 0666 16       		.uleb128 0x16
 5068 0667 7D050000 		.4byte	.LASF65
 5069 066b 01       		.byte	0x1
 5070 066c CC       		.byte	0xcc
 5071 066d 11040000 		.4byte	0x411
 5072 0671 00000000 		.4byte	.LLST0
 5073 0675 17       		.uleb128 0x17
ARM GAS  /tmp/ccJZ9K5Y.s 			page 90


 5074 0676 66000000 		.4byte	.LVL2
 5075 067a DB230000 		.4byte	0x23db
 5076 067e 8F060000 		.4byte	0x68f
 5077 0682 18       		.uleb128 0x18
 5078 0683 01       		.uleb128 0x1
 5079 0684 51       		.byte	0x51
 5080 0685 01       		.uleb128 0x1
 5081 0686 31       		.byte	0x31
 5082 0687 18       		.uleb128 0x18
 5083 0688 01       		.uleb128 0x1
 5084 0689 50       		.byte	0x50
 5085 068a 03       		.uleb128 0x3
 5086 068b 0A       		.byte	0xa
 5087 068c 0001     		.2byte	0x100
 5088 068e 00       		.byte	0
 5089 068f 19       		.uleb128 0x19
 5090 0690 74000000 		.4byte	.LVL3
 5091 0694 DB230000 		.4byte	0x23db
 5092 0698 A9060000 		.4byte	0x6a9
 5093 069c 18       		.uleb128 0x18
 5094 069d 01       		.uleb128 0x1
 5095 069e 51       		.byte	0x51
 5096 069f 01       		.uleb128 0x1
 5097 06a0 30       		.byte	0x30
 5098 06a1 18       		.uleb128 0x18
 5099 06a2 01       		.uleb128 0x1
 5100 06a3 50       		.byte	0x50
 5101 06a4 03       		.uleb128 0x3
 5102 06a5 0A       		.byte	0xa
 5103 06a6 0001     		.2byte	0x100
 5104 06a8 00       		.byte	0
 5105 06a9 17       		.uleb128 0x17
 5106 06aa 7C000000 		.4byte	.LVL5
 5107 06ae F2230000 		.4byte	0x23f2
 5108 06b2 C1060000 		.4byte	0x6c1
 5109 06b6 18       		.uleb128 0x18
 5110 06b7 01       		.uleb128 0x1
 5111 06b8 51       		.byte	0x51
 5112 06b9 01       		.uleb128 0x1
 5113 06ba 31       		.byte	0x31
 5114 06bb 18       		.uleb128 0x18
 5115 06bc 01       		.uleb128 0x1
 5116 06bd 50       		.byte	0x50
 5117 06be 01       		.uleb128 0x1
 5118 06bf 31       		.byte	0x31
 5119 06c0 00       		.byte	0
 5120 06c1 19       		.uleb128 0x19
 5121 06c2 88000000 		.4byte	.LVL6
 5122 06c6 F2230000 		.4byte	0x23f2
 5123 06ca D9060000 		.4byte	0x6d9
 5124 06ce 18       		.uleb128 0x18
 5125 06cf 01       		.uleb128 0x1
 5126 06d0 51       		.byte	0x51
 5127 06d1 01       		.uleb128 0x1
 5128 06d2 30       		.byte	0x30
 5129 06d3 18       		.uleb128 0x18
 5130 06d4 01       		.uleb128 0x1
ARM GAS  /tmp/ccJZ9K5Y.s 			page 91


 5131 06d5 50       		.byte	0x50
 5132 06d6 01       		.uleb128 0x1
 5133 06d7 31       		.byte	0x31
 5134 06d8 00       		.byte	0
 5135 06d9 17       		.uleb128 0x17
 5136 06da 90000000 		.4byte	.LVL8
 5137 06de DB230000 		.4byte	0x23db
 5138 06e2 F1060000 		.4byte	0x6f1
 5139 06e6 18       		.uleb128 0x18
 5140 06e7 01       		.uleb128 0x1
 5141 06e8 51       		.byte	0x51
 5142 06e9 01       		.uleb128 0x1
 5143 06ea 31       		.byte	0x31
 5144 06eb 18       		.uleb128 0x18
 5145 06ec 01       		.uleb128 0x1
 5146 06ed 50       		.byte	0x50
 5147 06ee 01       		.uleb128 0x1
 5148 06ef 31       		.byte	0x31
 5149 06f0 00       		.byte	0
 5150 06f1 19       		.uleb128 0x19
 5151 06f2 9C000000 		.4byte	.LVL9
 5152 06f6 DB230000 		.4byte	0x23db
 5153 06fa 09070000 		.4byte	0x709
 5154 06fe 18       		.uleb128 0x18
 5155 06ff 01       		.uleb128 0x1
 5156 0700 51       		.byte	0x51
 5157 0701 01       		.uleb128 0x1
 5158 0702 30       		.byte	0x30
 5159 0703 18       		.uleb128 0x18
 5160 0704 01       		.uleb128 0x1
 5161 0705 50       		.byte	0x50
 5162 0706 01       		.uleb128 0x1
 5163 0707 31       		.byte	0x31
 5164 0708 00       		.byte	0
 5165 0709 17       		.uleb128 0x17
 5166 070a A4000000 		.4byte	.LVL11
 5167 070e DB230000 		.4byte	0x23db
 5168 0712 21070000 		.4byte	0x721
 5169 0716 18       		.uleb128 0x18
 5170 0717 01       		.uleb128 0x1
 5171 0718 51       		.byte	0x51
 5172 0719 01       		.uleb128 0x1
 5173 071a 31       		.byte	0x31
 5174 071b 18       		.uleb128 0x18
 5175 071c 01       		.uleb128 0x1
 5176 071d 50       		.byte	0x50
 5177 071e 01       		.uleb128 0x1
 5178 071f 32       		.byte	0x32
 5179 0720 00       		.byte	0
 5180 0721 19       		.uleb128 0x19
 5181 0722 B0000000 		.4byte	.LVL12
 5182 0726 DB230000 		.4byte	0x23db
 5183 072a 39070000 		.4byte	0x739
 5184 072e 18       		.uleb128 0x18
 5185 072f 01       		.uleb128 0x1
 5186 0730 51       		.byte	0x51
 5187 0731 01       		.uleb128 0x1
ARM GAS  /tmp/ccJZ9K5Y.s 			page 92


 5188 0732 30       		.byte	0x30
 5189 0733 18       		.uleb128 0x18
 5190 0734 01       		.uleb128 0x1
 5191 0735 50       		.byte	0x50
 5192 0736 01       		.uleb128 0x1
 5193 0737 32       		.byte	0x32
 5194 0738 00       		.byte	0
 5195 0739 17       		.uleb128 0x17
 5196 073a B8000000 		.4byte	.LVL14
 5197 073e DB230000 		.4byte	0x23db
 5198 0742 51070000 		.4byte	0x751
 5199 0746 18       		.uleb128 0x18
 5200 0747 01       		.uleb128 0x1
 5201 0748 51       		.byte	0x51
 5202 0749 01       		.uleb128 0x1
 5203 074a 31       		.byte	0x31
 5204 074b 18       		.uleb128 0x18
 5205 074c 01       		.uleb128 0x1
 5206 074d 50       		.byte	0x50
 5207 074e 01       		.uleb128 0x1
 5208 074f 34       		.byte	0x34
 5209 0750 00       		.byte	0
 5210 0751 19       		.uleb128 0x19
 5211 0752 C4000000 		.4byte	.LVL15
 5212 0756 DB230000 		.4byte	0x23db
 5213 075a 69070000 		.4byte	0x769
 5214 075e 18       		.uleb128 0x18
 5215 075f 01       		.uleb128 0x1
 5216 0760 51       		.byte	0x51
 5217 0761 01       		.uleb128 0x1
 5218 0762 30       		.byte	0x30
 5219 0763 18       		.uleb128 0x18
 5220 0764 01       		.uleb128 0x1
 5221 0765 50       		.byte	0x50
 5222 0766 01       		.uleb128 0x1
 5223 0767 34       		.byte	0x34
 5224 0768 00       		.byte	0
 5225 0769 17       		.uleb128 0x17
 5226 076a CC000000 		.4byte	.LVL17
 5227 076e DB230000 		.4byte	0x23db
 5228 0772 81070000 		.4byte	0x781
 5229 0776 18       		.uleb128 0x18
 5230 0777 01       		.uleb128 0x1
 5231 0778 51       		.byte	0x51
 5232 0779 01       		.uleb128 0x1
 5233 077a 31       		.byte	0x31
 5234 077b 18       		.uleb128 0x18
 5235 077c 01       		.uleb128 0x1
 5236 077d 50       		.byte	0x50
 5237 077e 01       		.uleb128 0x1
 5238 077f 38       		.byte	0x38
 5239 0780 00       		.byte	0
 5240 0781 19       		.uleb128 0x19
 5241 0782 D8000000 		.4byte	.LVL18
 5242 0786 DB230000 		.4byte	0x23db
 5243 078a 99070000 		.4byte	0x799
 5244 078e 18       		.uleb128 0x18
ARM GAS  /tmp/ccJZ9K5Y.s 			page 93


 5245 078f 01       		.uleb128 0x1
 5246 0790 51       		.byte	0x51
 5247 0791 01       		.uleb128 0x1
 5248 0792 30       		.byte	0x30
 5249 0793 18       		.uleb128 0x18
 5250 0794 01       		.uleb128 0x1
 5251 0795 50       		.byte	0x50
 5252 0796 01       		.uleb128 0x1
 5253 0797 38       		.byte	0x38
 5254 0798 00       		.byte	0
 5255 0799 17       		.uleb128 0x17
 5256 079a E0000000 		.4byte	.LVL20
 5257 079e DB230000 		.4byte	0x23db
 5258 07a2 B1070000 		.4byte	0x7b1
 5259 07a6 18       		.uleb128 0x18
 5260 07a7 01       		.uleb128 0x1
 5261 07a8 51       		.byte	0x51
 5262 07a9 01       		.uleb128 0x1
 5263 07aa 31       		.byte	0x31
 5264 07ab 18       		.uleb128 0x18
 5265 07ac 01       		.uleb128 0x1
 5266 07ad 50       		.byte	0x50
 5267 07ae 01       		.uleb128 0x1
 5268 07af 40       		.byte	0x40
 5269 07b0 00       		.byte	0
 5270 07b1 19       		.uleb128 0x19
 5271 07b2 EC000000 		.4byte	.LVL21
 5272 07b6 DB230000 		.4byte	0x23db
 5273 07ba C9070000 		.4byte	0x7c9
 5274 07be 18       		.uleb128 0x18
 5275 07bf 01       		.uleb128 0x1
 5276 07c0 51       		.byte	0x51
 5277 07c1 01       		.uleb128 0x1
 5278 07c2 30       		.byte	0x30
 5279 07c3 18       		.uleb128 0x18
 5280 07c4 01       		.uleb128 0x1
 5281 07c5 50       		.byte	0x50
 5282 07c6 01       		.uleb128 0x1
 5283 07c7 40       		.byte	0x40
 5284 07c8 00       		.byte	0
 5285 07c9 17       		.uleb128 0x17
 5286 07ca F4000000 		.4byte	.LVL23
 5287 07ce DB230000 		.4byte	0x23db
 5288 07d2 E2070000 		.4byte	0x7e2
 5289 07d6 18       		.uleb128 0x18
 5290 07d7 01       		.uleb128 0x1
 5291 07d8 51       		.byte	0x51
 5292 07d9 01       		.uleb128 0x1
 5293 07da 31       		.byte	0x31
 5294 07db 18       		.uleb128 0x18
 5295 07dc 01       		.uleb128 0x1
 5296 07dd 50       		.byte	0x50
 5297 07de 02       		.uleb128 0x2
 5298 07df 08       		.byte	0x8
 5299 07e0 20       		.byte	0x20
 5300 07e1 00       		.byte	0
 5301 07e2 19       		.uleb128 0x19
ARM GAS  /tmp/ccJZ9K5Y.s 			page 94


 5302 07e3 00010000 		.4byte	.LVL24
 5303 07e7 DB230000 		.4byte	0x23db
 5304 07eb FB070000 		.4byte	0x7fb
 5305 07ef 18       		.uleb128 0x18
 5306 07f0 01       		.uleb128 0x1
 5307 07f1 51       		.byte	0x51
 5308 07f2 01       		.uleb128 0x1
 5309 07f3 30       		.byte	0x30
 5310 07f4 18       		.uleb128 0x18
 5311 07f5 01       		.uleb128 0x1
 5312 07f6 50       		.byte	0x50
 5313 07f7 02       		.uleb128 0x2
 5314 07f8 08       		.byte	0x8
 5315 07f9 20       		.byte	0x20
 5316 07fa 00       		.byte	0
 5317 07fb 17       		.uleb128 0x17
 5318 07fc 08010000 		.4byte	.LVL26
 5319 0800 F2230000 		.4byte	0x23f2
 5320 0804 13080000 		.4byte	0x813
 5321 0808 18       		.uleb128 0x18
 5322 0809 01       		.uleb128 0x1
 5323 080a 51       		.byte	0x51
 5324 080b 01       		.uleb128 0x1
 5325 080c 31       		.byte	0x31
 5326 080d 18       		.uleb128 0x18
 5327 080e 01       		.uleb128 0x1
 5328 080f 50       		.byte	0x50
 5329 0810 01       		.uleb128 0x1
 5330 0811 32       		.byte	0x32
 5331 0812 00       		.byte	0
 5332 0813 19       		.uleb128 0x19
 5333 0814 14010000 		.4byte	.LVL27
 5334 0818 F2230000 		.4byte	0x23f2
 5335 081c 2B080000 		.4byte	0x82b
 5336 0820 18       		.uleb128 0x18
 5337 0821 01       		.uleb128 0x1
 5338 0822 51       		.byte	0x51
 5339 0823 01       		.uleb128 0x1
 5340 0824 30       		.byte	0x30
 5341 0825 18       		.uleb128 0x18
 5342 0826 01       		.uleb128 0x1
 5343 0827 50       		.byte	0x50
 5344 0828 01       		.uleb128 0x1
 5345 0829 32       		.byte	0x32
 5346 082a 00       		.byte	0
 5347 082b 17       		.uleb128 0x17
 5348 082c 1E010000 		.4byte	.LVL29
 5349 0830 F2230000 		.4byte	0x23f2
 5350 0834 45080000 		.4byte	0x845
 5351 0838 18       		.uleb128 0x18
 5352 0839 01       		.uleb128 0x1
 5353 083a 51       		.byte	0x51
 5354 083b 01       		.uleb128 0x1
 5355 083c 31       		.byte	0x31
 5356 083d 18       		.uleb128 0x18
 5357 083e 01       		.uleb128 0x1
 5358 083f 50       		.byte	0x50
ARM GAS  /tmp/ccJZ9K5Y.s 			page 95


 5359 0840 03       		.uleb128 0x3
 5360 0841 40       		.byte	0x40
 5361 0842 3C       		.byte	0x3c
 5362 0843 24       		.byte	0x24
 5363 0844 00       		.byte	0
 5364 0845 19       		.uleb128 0x19
 5365 0846 2C010000 		.4byte	.LVL30
 5366 084a F2230000 		.4byte	0x23f2
 5367 084e 5F080000 		.4byte	0x85f
 5368 0852 18       		.uleb128 0x18
 5369 0853 01       		.uleb128 0x1
 5370 0854 51       		.byte	0x51
 5371 0855 01       		.uleb128 0x1
 5372 0856 30       		.byte	0x30
 5373 0857 18       		.uleb128 0x18
 5374 0858 01       		.uleb128 0x1
 5375 0859 50       		.byte	0x50
 5376 085a 03       		.uleb128 0x3
 5377 085b 40       		.byte	0x40
 5378 085c 3C       		.byte	0x3c
 5379 085d 24       		.byte	0x24
 5380 085e 00       		.byte	0
 5381 085f 17       		.uleb128 0x17
 5382 0860 36010000 		.4byte	.LVL32
 5383 0864 F2230000 		.4byte	0x23f2
 5384 0868 79080000 		.4byte	0x879
 5385 086c 18       		.uleb128 0x18
 5386 086d 01       		.uleb128 0x1
 5387 086e 51       		.byte	0x51
 5388 086f 01       		.uleb128 0x1
 5389 0870 31       		.byte	0x31
 5390 0871 18       		.uleb128 0x18
 5391 0872 01       		.uleb128 0x1
 5392 0873 50       		.byte	0x50
 5393 0874 03       		.uleb128 0x3
 5394 0875 40       		.byte	0x40
 5395 0876 3D       		.byte	0x3d
 5396 0877 24       		.byte	0x24
 5397 0878 00       		.byte	0
 5398 0879 19       		.uleb128 0x19
 5399 087a 44010000 		.4byte	.LVL33
 5400 087e F2230000 		.4byte	0x23f2
 5401 0882 93080000 		.4byte	0x893
 5402 0886 18       		.uleb128 0x18
 5403 0887 01       		.uleb128 0x1
 5404 0888 51       		.byte	0x51
 5405 0889 01       		.uleb128 0x1
 5406 088a 30       		.byte	0x30
 5407 088b 18       		.uleb128 0x18
 5408 088c 01       		.uleb128 0x1
 5409 088d 50       		.byte	0x50
 5410 088e 03       		.uleb128 0x3
 5411 088f 40       		.byte	0x40
 5412 0890 3D       		.byte	0x3d
 5413 0891 24       		.byte	0x24
 5414 0892 00       		.byte	0
 5415 0893 17       		.uleb128 0x17
ARM GAS  /tmp/ccJZ9K5Y.s 			page 96


 5416 0894 4E010000 		.4byte	.LVL35
 5417 0898 F2230000 		.4byte	0x23f2
 5418 089c AD080000 		.4byte	0x8ad
 5419 08a0 18       		.uleb128 0x18
 5420 08a1 01       		.uleb128 0x1
 5421 08a2 51       		.byte	0x51
 5422 08a3 01       		.uleb128 0x1
 5423 08a4 31       		.byte	0x31
 5424 08a5 18       		.uleb128 0x18
 5425 08a6 01       		.uleb128 0x1
 5426 08a7 50       		.byte	0x50
 5427 08a8 03       		.uleb128 0x3
 5428 08a9 40       		.byte	0x40
 5429 08aa 3E       		.byte	0x3e
 5430 08ab 24       		.byte	0x24
 5431 08ac 00       		.byte	0
 5432 08ad 19       		.uleb128 0x19
 5433 08ae 5C010000 		.4byte	.LVL36
 5434 08b2 F2230000 		.4byte	0x23f2
 5435 08b6 C7080000 		.4byte	0x8c7
 5436 08ba 18       		.uleb128 0x18
 5437 08bb 01       		.uleb128 0x1
 5438 08bc 51       		.byte	0x51
 5439 08bd 01       		.uleb128 0x1
 5440 08be 30       		.byte	0x30
 5441 08bf 18       		.uleb128 0x18
 5442 08c0 01       		.uleb128 0x1
 5443 08c1 50       		.byte	0x50
 5444 08c2 03       		.uleb128 0x3
 5445 08c3 40       		.byte	0x40
 5446 08c4 3E       		.byte	0x3e
 5447 08c5 24       		.byte	0x24
 5448 08c6 00       		.byte	0
 5449 08c7 17       		.uleb128 0x17
 5450 08c8 64010000 		.4byte	.LVL38
 5451 08cc DB230000 		.4byte	0x23db
 5452 08d0 E0080000 		.4byte	0x8e0
 5453 08d4 18       		.uleb128 0x18
 5454 08d5 01       		.uleb128 0x1
 5455 08d6 51       		.byte	0x51
 5456 08d7 01       		.uleb128 0x1
 5457 08d8 31       		.byte	0x31
 5458 08d9 18       		.uleb128 0x18
 5459 08da 01       		.uleb128 0x1
 5460 08db 50       		.byte	0x50
 5461 08dc 02       		.uleb128 0x2
 5462 08dd 08       		.byte	0x8
 5463 08de 40       		.byte	0x40
 5464 08df 00       		.byte	0
 5465 08e0 19       		.uleb128 0x19
 5466 08e1 70010000 		.4byte	.LVL39
 5467 08e5 DB230000 		.4byte	0x23db
 5468 08e9 F9080000 		.4byte	0x8f9
 5469 08ed 18       		.uleb128 0x18
 5470 08ee 01       		.uleb128 0x1
 5471 08ef 51       		.byte	0x51
 5472 08f0 01       		.uleb128 0x1
ARM GAS  /tmp/ccJZ9K5Y.s 			page 97


 5473 08f1 30       		.byte	0x30
 5474 08f2 18       		.uleb128 0x18
 5475 08f3 01       		.uleb128 0x1
 5476 08f4 50       		.byte	0x50
 5477 08f5 02       		.uleb128 0x2
 5478 08f6 08       		.byte	0x8
 5479 08f7 40       		.byte	0x40
 5480 08f8 00       		.byte	0
 5481 08f9 17       		.uleb128 0x17
 5482 08fa 78010000 		.4byte	.LVL41
 5483 08fe DB230000 		.4byte	0x23db
 5484 0902 12090000 		.4byte	0x912
 5485 0906 18       		.uleb128 0x18
 5486 0907 01       		.uleb128 0x1
 5487 0908 51       		.byte	0x51
 5488 0909 01       		.uleb128 0x1
 5489 090a 31       		.byte	0x31
 5490 090b 18       		.uleb128 0x18
 5491 090c 01       		.uleb128 0x1
 5492 090d 50       		.byte	0x50
 5493 090e 02       		.uleb128 0x2
 5494 090f 08       		.byte	0x8
 5495 0910 80       		.byte	0x80
 5496 0911 00       		.byte	0
 5497 0912 1A       		.uleb128 0x1a
 5498 0913 84010000 		.4byte	.LVL42
 5499 0917 DB230000 		.4byte	0x23db
 5500 091b 18       		.uleb128 0x18
 5501 091c 01       		.uleb128 0x1
 5502 091d 51       		.byte	0x51
 5503 091e 01       		.uleb128 0x1
 5504 091f 30       		.byte	0x30
 5505 0920 18       		.uleb128 0x18
 5506 0921 01       		.uleb128 0x1
 5507 0922 50       		.byte	0x50
 5508 0923 02       		.uleb128 0x2
 5509 0924 08       		.byte	0x8
 5510 0925 80       		.byte	0x80
 5511 0926 00       		.byte	0
 5512 0927 00       		.byte	0
 5513 0928 1B       		.uleb128 0x1b
 5514 0929 73090000 		.4byte	.LASF86
 5515 092d 01       		.byte	0x1
 5516 092e 2401     		.2byte	0x124
 5517 0930 00000000 		.4byte	.LFB113
 5518 0934 98000000 		.4byte	.LFE113-.LFB113
 5519 0938 01       		.uleb128 0x1
 5520 0939 9C       		.byte	0x9c
 5521 093a 6B090000 		.4byte	0x96b
 5522 093e 1C       		.uleb128 0x1c
 5523 093f 7D050000 		.4byte	.LASF65
 5524 0943 01       		.byte	0x1
 5525 0944 2401     		.2byte	0x124
 5526 0946 11040000 		.4byte	0x411
 5527 094a 01       		.uleb128 0x1
 5528 094b 50       		.byte	0x50
 5529 094c 1C       		.uleb128 0x1c
ARM GAS  /tmp/ccJZ9K5Y.s 			page 98


 5530 094d 84070000 		.4byte	.LASF87
 5531 0951 01       		.byte	0x1
 5532 0952 2401     		.2byte	0x124
 5533 0954 6B090000 		.4byte	0x96b
 5534 0958 01       		.uleb128 0x1
 5535 0959 51       		.byte	0x51
 5536 095a 1D       		.uleb128 0x1d
 5537 095b 67060000 		.4byte	.LASF93
 5538 095f 01       		.byte	0x1
 5539 0960 2601     		.2byte	0x126
 5540 0962 A2000000 		.4byte	0xa2
 5541 0966 66010000 		.4byte	.LLST1
 5542 096a 00       		.byte	0
 5543 096b 12       		.uleb128 0x12
 5544 096c 04       		.byte	0x4
 5545 096d 84020000 		.4byte	0x284
 5546 0971 1B       		.uleb128 0x1b
 5547 0972 CA040000 		.4byte	.LASF88
 5548 0976 01       		.byte	0x1
 5549 0977 5801     		.2byte	0x158
 5550 0979 00000000 		.4byte	.LFB114
 5551 097d 12000000 		.4byte	.LFE114-.LFB114
 5552 0981 01       		.uleb128 0x1
 5553 0982 9C       		.byte	0x9c
 5554 0983 96090000 		.4byte	0x996
 5555 0987 1C       		.uleb128 0x1c
 5556 0988 84070000 		.4byte	.LASF87
 5557 098c 01       		.byte	0x1
 5558 098d 5801     		.2byte	0x158
 5559 098f 6B090000 		.4byte	0x96b
 5560 0993 01       		.uleb128 0x1
 5561 0994 50       		.byte	0x50
 5562 0995 00       		.byte	0
 5563 0996 1B       		.uleb128 0x1b
 5564 0997 E6080000 		.4byte	.LASF89
 5565 099b 01       		.byte	0x1
 5566 099c 6C01     		.2byte	0x16c
 5567 099e 00000000 		.4byte	.LFB115
 5568 09a2 06000000 		.4byte	.LFE115-.LFB115
 5569 09a6 01       		.uleb128 0x1
 5570 09a7 9C       		.byte	0x9c
 5571 09a8 D7090000 		.4byte	0x9d7
 5572 09ac 1C       		.uleb128 0x1c
 5573 09ad 7D050000 		.4byte	.LASF65
 5574 09b1 01       		.byte	0x1
 5575 09b2 6C01     		.2byte	0x16c
 5576 09b4 11040000 		.4byte	0x411
 5577 09b8 01       		.uleb128 0x1
 5578 09b9 50       		.byte	0x50
 5579 09ba 1C       		.uleb128 0x1c
 5580 09bb F90B0000 		.4byte	.LASF90
 5581 09bf 01       		.byte	0x1
 5582 09c0 6C01     		.2byte	0x16c
 5583 09c2 A2000000 		.4byte	0xa2
 5584 09c6 01       		.uleb128 0x1
 5585 09c7 51       		.byte	0x51
 5586 09c8 1C       		.uleb128 0x1c
ARM GAS  /tmp/ccJZ9K5Y.s 			page 99


 5587 09c9 21060000 		.4byte	.LASF91
 5588 09cd 01       		.byte	0x1
 5589 09ce 6C01     		.2byte	0x16c
 5590 09d0 A2000000 		.4byte	0xa2
 5591 09d4 01       		.uleb128 0x1
 5592 09d5 52       		.byte	0x52
 5593 09d6 00       		.byte	0
 5594 09d7 1B       		.uleb128 0x1b
 5595 09d8 7B020000 		.4byte	.LASF92
 5596 09dc 01       		.byte	0x1
 5597 09dd 8301     		.2byte	0x183
 5598 09df 00000000 		.4byte	.LFB116
 5599 09e3 0E000000 		.4byte	.LFE116-.LFB116
 5600 09e7 01       		.uleb128 0x1
 5601 09e8 9C       		.byte	0x9c
 5602 09e9 1C0A0000 		.4byte	0xa1c
 5603 09ed 1C       		.uleb128 0x1c
 5604 09ee 7D050000 		.4byte	.LASF65
 5605 09f2 01       		.byte	0x1
 5606 09f3 8301     		.2byte	0x183
 5607 09f5 11040000 		.4byte	0x411
 5608 09f9 01       		.uleb128 0x1
 5609 09fa 50       		.byte	0x50
 5610 09fb 1E       		.uleb128 0x1e
 5611 09fc 86000000 		.4byte	.LASF37
 5612 0a00 01       		.byte	0x1
 5613 0a01 8301     		.2byte	0x183
 5614 0a03 A2000000 		.4byte	0xa2
 5615 0a07 A2010000 		.4byte	.LLST2
 5616 0a0b 1D       		.uleb128 0x1d
 5617 0a0c 67060000 		.4byte	.LASF93
 5618 0a10 01       		.byte	0x1
 5619 0a11 8501     		.2byte	0x185
 5620 0a13 A2000000 		.4byte	0xa2
 5621 0a17 C3010000 		.4byte	.LLST3
 5622 0a1b 00       		.byte	0
 5623 0a1c 1B       		.uleb128 0x1b
 5624 0a1d D40C0000 		.4byte	.LASF94
 5625 0a21 01       		.byte	0x1
 5626 0a22 9D01     		.2byte	0x19d
 5627 0a24 00000000 		.4byte	.LFB117
 5628 0a28 04000000 		.4byte	.LFE117-.LFB117
 5629 0a2c 01       		.uleb128 0x1
 5630 0a2d 9C       		.byte	0x9c
 5631 0a2e 4F0A0000 		.4byte	0xa4f
 5632 0a32 1C       		.uleb128 0x1c
 5633 0a33 7D050000 		.4byte	.LASF65
 5634 0a37 01       		.byte	0x1
 5635 0a38 9D01     		.2byte	0x19d
 5636 0a3a 11040000 		.4byte	0x411
 5637 0a3e 01       		.uleb128 0x1
 5638 0a3f 50       		.byte	0x50
 5639 0a40 1C       		.uleb128 0x1c
 5640 0a41 CF070000 		.4byte	.LASF95
 5641 0a45 01       		.byte	0x1
 5642 0a46 9D01     		.2byte	0x19d
 5643 0a48 B8000000 		.4byte	0xb8
ARM GAS  /tmp/ccJZ9K5Y.s 			page 100


 5644 0a4c 01       		.uleb128 0x1
 5645 0a4d 51       		.byte	0x51
 5646 0a4e 00       		.byte	0
 5647 0a4f 1B       		.uleb128 0x1b
 5648 0a50 3C030000 		.4byte	.LASF96
 5649 0a54 01       		.byte	0x1
 5650 0a55 AC01     		.2byte	0x1ac
 5651 0a57 00000000 		.4byte	.LFB118
 5652 0a5b 04000000 		.4byte	.LFE118-.LFB118
 5653 0a5f 01       		.uleb128 0x1
 5654 0a60 9C       		.byte	0x9c
 5655 0a61 820A0000 		.4byte	0xa82
 5656 0a65 1C       		.uleb128 0x1c
 5657 0a66 7D050000 		.4byte	.LASF65
 5658 0a6a 01       		.byte	0x1
 5659 0a6b AC01     		.2byte	0x1ac
 5660 0a6d 11040000 		.4byte	0x411
 5661 0a71 01       		.uleb128 0x1
 5662 0a72 50       		.byte	0x50
 5663 0a73 1C       		.uleb128 0x1c
 5664 0a74 96000000 		.4byte	.LASF97
 5665 0a78 01       		.byte	0x1
 5666 0a79 AC01     		.2byte	0x1ac
 5667 0a7b B8000000 		.4byte	0xb8
 5668 0a7f 01       		.uleb128 0x1
 5669 0a80 51       		.byte	0x51
 5670 0a81 00       		.byte	0
 5671 0a82 1F       		.uleb128 0x1f
 5672 0a83 BB040000 		.4byte	.LASF98
 5673 0a87 01       		.byte	0x1
 5674 0a88 BA01     		.2byte	0x1ba
 5675 0a8a B8000000 		.4byte	0xb8
 5676 0a8e 00000000 		.4byte	.LFB119
 5677 0a92 04000000 		.4byte	.LFE119-.LFB119
 5678 0a96 01       		.uleb128 0x1
 5679 0a97 9C       		.byte	0x9c
 5680 0a98 AD0A0000 		.4byte	0xaad
 5681 0a9c 1E       		.uleb128 0x1e
 5682 0a9d 7D050000 		.4byte	.LASF65
 5683 0aa1 01       		.byte	0x1
 5684 0aa2 BA01     		.2byte	0x1ba
 5685 0aa4 11040000 		.4byte	0x411
 5686 0aa8 03020000 		.4byte	.LLST4
 5687 0aac 00       		.byte	0
 5688 0aad 1F       		.uleb128 0x1f
 5689 0aae AA040000 		.4byte	.LASF99
 5690 0ab2 01       		.byte	0x1
 5691 0ab3 C801     		.2byte	0x1c8
 5692 0ab5 A2000000 		.4byte	0xa2
 5693 0ab9 00000000 		.4byte	.LFB120
 5694 0abd 06000000 		.4byte	.LFE120-.LFB120
 5695 0ac1 01       		.uleb128 0x1
 5696 0ac2 9C       		.byte	0x9c
 5697 0ac3 D80A0000 		.4byte	0xad8
 5698 0ac7 1E       		.uleb128 0x1e
 5699 0ac8 7D050000 		.4byte	.LASF65
 5700 0acc 01       		.byte	0x1
ARM GAS  /tmp/ccJZ9K5Y.s 			page 101


 5701 0acd C801     		.2byte	0x1c8
 5702 0acf 11040000 		.4byte	0x411
 5703 0ad3 24020000 		.4byte	.LLST5
 5704 0ad7 00       		.byte	0
 5705 0ad8 1B       		.uleb128 0x1b
 5706 0ad9 0C010000 		.4byte	.LASF100
 5707 0add 01       		.byte	0x1
 5708 0ade D801     		.2byte	0x1d8
 5709 0ae0 00000000 		.4byte	.LFB121
 5710 0ae4 18000000 		.4byte	.LFE121-.LFB121
 5711 0ae8 01       		.uleb128 0x1
 5712 0ae9 9C       		.byte	0x9c
 5713 0aea 0B0B0000 		.4byte	0xb0b
 5714 0aee 1C       		.uleb128 0x1c
 5715 0aef 7D050000 		.4byte	.LASF65
 5716 0af3 01       		.byte	0x1
 5717 0af4 D801     		.2byte	0x1d8
 5718 0af6 11040000 		.4byte	0x411
 5719 0afa 01       		.uleb128 0x1
 5720 0afb 50       		.byte	0x50
 5721 0afc 1C       		.uleb128 0x1c
 5722 0afd 0B000000 		.4byte	.LASF101
 5723 0b01 01       		.byte	0x1
 5724 0b02 D801     		.2byte	0x1d8
 5725 0b04 34020000 		.4byte	0x234
 5726 0b08 01       		.uleb128 0x1
 5727 0b09 51       		.byte	0x51
 5728 0b0a 00       		.byte	0
 5729 0b0b 1B       		.uleb128 0x1b
 5730 0b0c E10B0000 		.4byte	.LASF102
 5731 0b10 01       		.byte	0x1
 5732 0b11 F501     		.2byte	0x1f5
 5733 0b13 00000000 		.4byte	.LFB122
 5734 0b17 18000000 		.4byte	.LFE122-.LFB122
 5735 0b1b 01       		.uleb128 0x1
 5736 0b1c 9C       		.byte	0x9c
 5737 0b1d 3E0B0000 		.4byte	0xb3e
 5738 0b21 1C       		.uleb128 0x1c
 5739 0b22 7D050000 		.4byte	.LASF65
 5740 0b26 01       		.byte	0x1
 5741 0b27 F501     		.2byte	0x1f5
 5742 0b29 11040000 		.4byte	0x411
 5743 0b2d 01       		.uleb128 0x1
 5744 0b2e 50       		.byte	0x50
 5745 0b2f 1C       		.uleb128 0x1c
 5746 0b30 A2030000 		.4byte	.LASF103
 5747 0b34 01       		.byte	0x1
 5748 0b35 F501     		.2byte	0x1f5
 5749 0b37 A2000000 		.4byte	0xa2
 5750 0b3b 01       		.uleb128 0x1
 5751 0b3c 51       		.byte	0x51
 5752 0b3d 00       		.byte	0
 5753 0b3e 1B       		.uleb128 0x1b
 5754 0b3f CF010000 		.4byte	.LASF104
 5755 0b43 01       		.byte	0x1
 5756 0b44 0E02     		.2byte	0x20e
 5757 0b46 00000000 		.4byte	.LFB123
ARM GAS  /tmp/ccJZ9K5Y.s 			page 102


 5758 0b4a 18000000 		.4byte	.LFE123-.LFB123
 5759 0b4e 01       		.uleb128 0x1
 5760 0b4f 9C       		.byte	0x9c
 5761 0b50 710B0000 		.4byte	0xb71
 5762 0b54 1C       		.uleb128 0x1c
 5763 0b55 7D050000 		.4byte	.LASF65
 5764 0b59 01       		.byte	0x1
 5765 0b5a 0E02     		.2byte	0x20e
 5766 0b5c 11040000 		.4byte	0x411
 5767 0b60 01       		.uleb128 0x1
 5768 0b61 50       		.byte	0x50
 5769 0b62 1C       		.uleb128 0x1c
 5770 0b63 0B000000 		.4byte	.LASF101
 5771 0b67 01       		.byte	0x1
 5772 0b68 0E02     		.2byte	0x20e
 5773 0b6a 34020000 		.4byte	0x234
 5774 0b6e 01       		.uleb128 0x1
 5775 0b6f 51       		.byte	0x51
 5776 0b70 00       		.byte	0
 5777 0b71 1B       		.uleb128 0x1b
 5778 0b72 28000000 		.4byte	.LASF105
 5779 0b76 01       		.byte	0x1
 5780 0b77 2902     		.2byte	0x229
 5781 0b79 00000000 		.4byte	.LFB124
 5782 0b7d 12000000 		.4byte	.LFE124-.LFB124
 5783 0b81 01       		.uleb128 0x1
 5784 0b82 9C       		.byte	0x9c
 5785 0b83 A60B0000 		.4byte	0xba6
 5786 0b87 1C       		.uleb128 0x1c
 5787 0b88 7D050000 		.4byte	.LASF65
 5788 0b8c 01       		.byte	0x1
 5789 0b8d 2902     		.2byte	0x229
 5790 0b8f 11040000 		.4byte	0x411
 5791 0b93 01       		.uleb128 0x1
 5792 0b94 50       		.byte	0x50
 5793 0b95 1E       		.uleb128 0x1e
 5794 0b96 00000000 		.4byte	.LASF106
 5795 0b9a 01       		.byte	0x1
 5796 0b9b 2902     		.2byte	0x229
 5797 0b9d A2000000 		.4byte	0xa2
 5798 0ba1 45020000 		.4byte	.LLST6
 5799 0ba5 00       		.byte	0
 5800 0ba6 1B       		.uleb128 0x1b
 5801 0ba7 B2070000 		.4byte	.LASF107
 5802 0bab 01       		.byte	0x1
 5803 0bac 4002     		.2byte	0x240
 5804 0bae 00000000 		.4byte	.LFB125
 5805 0bb2 12000000 		.4byte	.LFE125-.LFB125
 5806 0bb6 01       		.uleb128 0x1
 5807 0bb7 9C       		.byte	0x9c
 5808 0bb8 DB0B0000 		.4byte	0xbdb
 5809 0bbc 1C       		.uleb128 0x1c
 5810 0bbd 7D050000 		.4byte	.LASF65
 5811 0bc1 01       		.byte	0x1
 5812 0bc2 4002     		.2byte	0x240
 5813 0bc4 11040000 		.4byte	0x411
 5814 0bc8 01       		.uleb128 0x1
ARM GAS  /tmp/ccJZ9K5Y.s 			page 103


 5815 0bc9 50       		.byte	0x50
 5816 0bca 1E       		.uleb128 0x1e
 5817 0bcb 34030000 		.4byte	.LASF108
 5818 0bcf 01       		.byte	0x1
 5819 0bd0 4002     		.2byte	0x240
 5820 0bd2 A2000000 		.4byte	0xa2
 5821 0bd6 66020000 		.4byte	.LLST7
 5822 0bda 00       		.byte	0
 5823 0bdb 1B       		.uleb128 0x1b
 5824 0bdc 190A0000 		.4byte	.LASF109
 5825 0be0 01       		.byte	0x1
 5826 0be1 5402     		.2byte	0x254
 5827 0be3 00000000 		.4byte	.LFB126
 5828 0be7 18000000 		.4byte	.LFE126-.LFB126
 5829 0beb 01       		.uleb128 0x1
 5830 0bec 9C       		.byte	0x9c
 5831 0bed 0E0C0000 		.4byte	0xc0e
 5832 0bf1 1C       		.uleb128 0x1c
 5833 0bf2 7D050000 		.4byte	.LASF65
 5834 0bf6 01       		.byte	0x1
 5835 0bf7 5402     		.2byte	0x254
 5836 0bf9 11040000 		.4byte	0x411
 5837 0bfd 01       		.uleb128 0x1
 5838 0bfe 50       		.byte	0x50
 5839 0bff 1C       		.uleb128 0x1c
 5840 0c00 0B000000 		.4byte	.LASF101
 5841 0c04 01       		.byte	0x1
 5842 0c05 5402     		.2byte	0x254
 5843 0c07 34020000 		.4byte	0x234
 5844 0c0b 01       		.uleb128 0x1
 5845 0c0c 51       		.byte	0x51
 5846 0c0d 00       		.byte	0
 5847 0c0e 1B       		.uleb128 0x1b
 5848 0c0f 1A0D0000 		.4byte	.LASF110
 5849 0c13 01       		.byte	0x1
 5850 0c14 A502     		.2byte	0x2a5
 5851 0c16 00000000 		.4byte	.LFB127
 5852 0c1a 7C000000 		.4byte	.LFE127-.LFB127
 5853 0c1e 01       		.uleb128 0x1
 5854 0c1f 9C       		.byte	0x9c
 5855 0c20 730C0000 		.4byte	0xc73
 5856 0c24 1C       		.uleb128 0x1c
 5857 0c25 7D050000 		.4byte	.LASF65
 5858 0c29 01       		.byte	0x1
 5859 0c2a A502     		.2byte	0x2a5
 5860 0c2c 11040000 		.4byte	0x411
 5861 0c30 01       		.uleb128 0x1
 5862 0c31 50       		.byte	0x50
 5863 0c32 1E       		.uleb128 0x1e
 5864 0c33 59050000 		.4byte	.LASF111
 5865 0c37 01       		.byte	0x1
 5866 0c38 A502     		.2byte	0x2a5
 5867 0c3a 730C0000 		.4byte	0xc73
 5868 0c3e 87020000 		.4byte	.LLST8
 5869 0c42 1D       		.uleb128 0x1d
 5870 0c43 0F030000 		.4byte	.LASF112
 5871 0c47 01       		.byte	0x1
ARM GAS  /tmp/ccJZ9K5Y.s 			page 104


 5872 0c48 A702     		.2byte	0x2a7
 5873 0c4a A2000000 		.4byte	0xa2
 5874 0c4e B3020000 		.4byte	.LLST9
 5875 0c52 1D       		.uleb128 0x1d
 5876 0c53 52040000 		.4byte	.LASF67
 5877 0c57 01       		.byte	0x1
 5878 0c58 A702     		.2byte	0x2a7
 5879 0c5a A2000000 		.4byte	0xa2
 5880 0c5e D2020000 		.4byte	.LLST10
 5881 0c62 1D       		.uleb128 0x1d
 5882 0c63 71010000 		.4byte	.LASF113
 5883 0c67 01       		.byte	0x1
 5884 0c68 A702     		.2byte	0x2a7
 5885 0c6a A2000000 		.4byte	0xa2
 5886 0c6e FC020000 		.4byte	.LLST11
 5887 0c72 00       		.byte	0
 5888 0c73 12       		.uleb128 0x12
 5889 0c74 04       		.byte	0x4
 5890 0c75 F8020000 		.4byte	0x2f8
 5891 0c79 1B       		.uleb128 0x1b
 5892 0c7a 4A0B0000 		.4byte	.LASF114
 5893 0c7e 01       		.byte	0x1
 5894 0c7f F602     		.2byte	0x2f6
 5895 0c81 00000000 		.4byte	.LFB128
 5896 0c85 98000000 		.4byte	.LFE128-.LFB128
 5897 0c89 01       		.uleb128 0x1
 5898 0c8a 9C       		.byte	0x9c
 5899 0c8b DE0C0000 		.4byte	0xcde
 5900 0c8f 1C       		.uleb128 0x1c
 5901 0c90 7D050000 		.4byte	.LASF65
 5902 0c94 01       		.byte	0x1
 5903 0c95 F602     		.2byte	0x2f6
 5904 0c97 11040000 		.4byte	0x411
 5905 0c9b 01       		.uleb128 0x1
 5906 0c9c 50       		.byte	0x50
 5907 0c9d 1E       		.uleb128 0x1e
 5908 0c9e 59050000 		.4byte	.LASF111
 5909 0ca2 01       		.byte	0x1
 5910 0ca3 F602     		.2byte	0x2f6
 5911 0ca5 730C0000 		.4byte	0xc73
 5912 0ca9 26030000 		.4byte	.LLST12
 5913 0cad 1D       		.uleb128 0x1d
 5914 0cae 0F030000 		.4byte	.LASF112
 5915 0cb2 01       		.byte	0x1
 5916 0cb3 F802     		.2byte	0x2f8
 5917 0cb5 A2000000 		.4byte	0xa2
 5918 0cb9 52030000 		.4byte	.LLST13
 5919 0cbd 1D       		.uleb128 0x1d
 5920 0cbe 52040000 		.4byte	.LASF67
 5921 0cc2 01       		.byte	0x1
 5922 0cc3 F802     		.2byte	0x2f8
 5923 0cc5 A2000000 		.4byte	0xa2
 5924 0cc9 82030000 		.4byte	.LLST14
 5925 0ccd 1D       		.uleb128 0x1d
 5926 0cce 71010000 		.4byte	.LASF113
 5927 0cd2 01       		.byte	0x1
 5928 0cd3 F802     		.2byte	0x2f8
ARM GAS  /tmp/ccJZ9K5Y.s 			page 105


 5929 0cd5 A2000000 		.4byte	0xa2
 5930 0cd9 CD030000 		.4byte	.LLST15
 5931 0cdd 00       		.byte	0
 5932 0cde 1B       		.uleb128 0x1b
 5933 0cdf DB020000 		.4byte	.LASF115
 5934 0ce3 01       		.byte	0x1
 5935 0ce4 4703     		.2byte	0x347
 5936 0ce6 00000000 		.4byte	.LFB129
 5937 0cea 90000000 		.4byte	.LFE129-.LFB129
 5938 0cee 01       		.uleb128 0x1
 5939 0cef 9C       		.byte	0x9c
 5940 0cf0 430D0000 		.4byte	0xd43
 5941 0cf4 1C       		.uleb128 0x1c
 5942 0cf5 7D050000 		.4byte	.LASF65
 5943 0cf9 01       		.byte	0x1
 5944 0cfa 4703     		.2byte	0x347
 5945 0cfc 11040000 		.4byte	0x411
 5946 0d00 01       		.uleb128 0x1
 5947 0d01 50       		.byte	0x50
 5948 0d02 1E       		.uleb128 0x1e
 5949 0d03 59050000 		.4byte	.LASF111
 5950 0d07 01       		.byte	0x1
 5951 0d08 4703     		.2byte	0x347
 5952 0d0a 730C0000 		.4byte	0xc73
 5953 0d0e 0B040000 		.4byte	.LLST16
 5954 0d12 1D       		.uleb128 0x1d
 5955 0d13 0F030000 		.4byte	.LASF112
 5956 0d17 01       		.byte	0x1
 5957 0d18 4903     		.2byte	0x349
 5958 0d1a A2000000 		.4byte	0xa2
 5959 0d1e 37040000 		.4byte	.LLST17
 5960 0d22 1D       		.uleb128 0x1d
 5961 0d23 52040000 		.4byte	.LASF67
 5962 0d27 01       		.byte	0x1
 5963 0d28 4903     		.2byte	0x349
 5964 0d2a A2000000 		.4byte	0xa2
 5965 0d2e 56040000 		.4byte	.LLST18
 5966 0d32 1D       		.uleb128 0x1d
 5967 0d33 71010000 		.4byte	.LASF113
 5968 0d37 01       		.byte	0x1
 5969 0d38 4903     		.2byte	0x349
 5970 0d3a A2000000 		.4byte	0xa2
 5971 0d3e A1040000 		.4byte	.LLST19
 5972 0d42 00       		.byte	0
 5973 0d43 1B       		.uleb128 0x1b
 5974 0d44 AB0B0000 		.4byte	.LASF116
 5975 0d48 01       		.byte	0x1
 5976 0d49 9703     		.2byte	0x397
 5977 0d4b 00000000 		.4byte	.LFB130
 5978 0d4f 74000000 		.4byte	.LFE130-.LFB130
 5979 0d53 01       		.uleb128 0x1
 5980 0d54 9C       		.byte	0x9c
 5981 0d55 A80D0000 		.4byte	0xda8
 5982 0d59 1C       		.uleb128 0x1c
 5983 0d5a 7D050000 		.4byte	.LASF65
 5984 0d5e 01       		.byte	0x1
 5985 0d5f 9703     		.2byte	0x397
ARM GAS  /tmp/ccJZ9K5Y.s 			page 106


 5986 0d61 11040000 		.4byte	0x411
 5987 0d65 01       		.uleb128 0x1
 5988 0d66 50       		.byte	0x50
 5989 0d67 1E       		.uleb128 0x1e
 5990 0d68 59050000 		.4byte	.LASF111
 5991 0d6c 01       		.byte	0x1
 5992 0d6d 9703     		.2byte	0x397
 5993 0d6f 730C0000 		.4byte	0xc73
 5994 0d73 DF040000 		.4byte	.LLST20
 5995 0d77 1D       		.uleb128 0x1d
 5996 0d78 0F030000 		.4byte	.LASF112
 5997 0d7c 01       		.byte	0x1
 5998 0d7d 9903     		.2byte	0x399
 5999 0d7f A2000000 		.4byte	0xa2
 6000 0d83 0B050000 		.4byte	.LLST21
 6001 0d87 1D       		.uleb128 0x1d
 6002 0d88 52040000 		.4byte	.LASF67
 6003 0d8c 01       		.byte	0x1
 6004 0d8d 9903     		.2byte	0x399
 6005 0d8f A2000000 		.4byte	0xa2
 6006 0d93 3B050000 		.4byte	.LLST22
 6007 0d97 1D       		.uleb128 0x1d
 6008 0d98 71010000 		.4byte	.LASF113
 6009 0d9c 01       		.byte	0x1
 6010 0d9d 9903     		.2byte	0x399
 6011 0d9f A2000000 		.4byte	0xa2
 6012 0da3 65050000 		.4byte	.LLST23
 6013 0da7 00       		.byte	0
 6014 0da8 1B       		.uleb128 0x1b
 6015 0da9 10060000 		.4byte	.LASF117
 6016 0dad 01       		.byte	0x1
 6017 0dae D603     		.2byte	0x3d6
 6018 0db0 00000000 		.4byte	.LFB131
 6019 0db4 14000000 		.4byte	.LFE131-.LFB131
 6020 0db8 01       		.uleb128 0x1
 6021 0db9 9C       		.byte	0x9c
 6022 0dba CD0D0000 		.4byte	0xdcd
 6023 0dbe 1C       		.uleb128 0x1c
 6024 0dbf 59050000 		.4byte	.LASF111
 6025 0dc3 01       		.byte	0x1
 6026 0dc4 D603     		.2byte	0x3d6
 6027 0dc6 730C0000 		.4byte	0xc73
 6028 0dca 01       		.uleb128 0x1
 6029 0dcb 50       		.byte	0x50
 6030 0dcc 00       		.byte	0
 6031 0dcd 1B       		.uleb128 0x1b
 6032 0dce D20B0000 		.4byte	.LASF118
 6033 0dd2 01       		.byte	0x1
 6034 0dd3 FA03     		.2byte	0x3fa
 6035 0dd5 00000000 		.4byte	.LFB132
 6036 0dd9 50000000 		.4byte	.LFE132-.LFB132
 6037 0ddd 01       		.uleb128 0x1
 6038 0dde 9C       		.byte	0x9c
 6039 0ddf 340E0000 		.4byte	0xe34
 6040 0de3 1E       		.uleb128 0x1e
 6041 0de4 7D050000 		.4byte	.LASF65
 6042 0de8 01       		.byte	0x1
ARM GAS  /tmp/ccJZ9K5Y.s 			page 107


 6043 0de9 FA03     		.2byte	0x3fa
 6044 0deb 11040000 		.4byte	0x411
 6045 0def 8F050000 		.4byte	.LLST24
 6046 0df3 1E       		.uleb128 0x1e
 6047 0df4 63020000 		.4byte	.LASF51
 6048 0df8 01       		.byte	0x1
 6049 0df9 FA03     		.2byte	0x3fa
 6050 0dfb A2000000 		.4byte	0xa2
 6051 0dff AF050000 		.4byte	.LLST25
 6052 0e03 1E       		.uleb128 0x1e
 6053 0e04 390C0000 		.4byte	.LASF42
 6054 0e08 01       		.byte	0x1
 6055 0e09 FA03     		.2byte	0x3fa
 6056 0e0b A2000000 		.4byte	0xa2
 6057 0e0f E9050000 		.4byte	.LLST26
 6058 0e13 20       		.uleb128 0x20
 6059 0e14 746D7000 		.ascii	"tmp\000"
 6060 0e18 01       		.byte	0x1
 6061 0e19 FC03     		.2byte	0x3fc
 6062 0e1b B8000000 		.4byte	0xb8
 6063 0e1f 23060000 		.4byte	.LLST27
 6064 0e23 1D       		.uleb128 0x1d
 6065 0e24 01020000 		.4byte	.LASF119
 6066 0e28 01       		.byte	0x1
 6067 0e29 FD03     		.2byte	0x3fd
 6068 0e2b A2000000 		.4byte	0xa2
 6069 0e2f 92060000 		.4byte	.LLST28
 6070 0e33 00       		.byte	0
 6071 0e34 1B       		.uleb128 0x1b
 6072 0e35 EC000000 		.4byte	.LASF120
 6073 0e39 01       		.byte	0x1
 6074 0e3a 2804     		.2byte	0x428
 6075 0e3c 00000000 		.4byte	.LFB133
 6076 0e40 04000000 		.4byte	.LFE133-.LFB133
 6077 0e44 01       		.uleb128 0x1
 6078 0e45 9C       		.byte	0x9c
 6079 0e46 670E0000 		.4byte	0xe67
 6080 0e4a 1C       		.uleb128 0x1c
 6081 0e4b 7D050000 		.4byte	.LASF65
 6082 0e4f 01       		.byte	0x1
 6083 0e50 2804     		.2byte	0x428
 6084 0e52 11040000 		.4byte	0x411
 6085 0e56 01       		.uleb128 0x1
 6086 0e57 50       		.byte	0x50
 6087 0e58 1C       		.uleb128 0x1c
 6088 0e59 E3000000 		.4byte	.LASF121
 6089 0e5d 01       		.byte	0x1
 6090 0e5e 2804     		.2byte	0x428
 6091 0e60 B8000000 		.4byte	0xb8
 6092 0e64 01       		.uleb128 0x1
 6093 0e65 51       		.byte	0x51
 6094 0e66 00       		.byte	0
 6095 0e67 1B       		.uleb128 0x1b
 6096 0e68 24040000 		.4byte	.LASF122
 6097 0e6c 01       		.byte	0x1
 6098 0e6d 3804     		.2byte	0x438
 6099 0e6f 00000000 		.4byte	.LFB134
ARM GAS  /tmp/ccJZ9K5Y.s 			page 108


 6100 0e73 04000000 		.4byte	.LFE134-.LFB134
 6101 0e77 01       		.uleb128 0x1
 6102 0e78 9C       		.byte	0x9c
 6103 0e79 9A0E0000 		.4byte	0xe9a
 6104 0e7d 1C       		.uleb128 0x1c
 6105 0e7e 7D050000 		.4byte	.LASF65
 6106 0e82 01       		.byte	0x1
 6107 0e83 3804     		.2byte	0x438
 6108 0e85 11040000 		.4byte	0x411
 6109 0e89 01       		.uleb128 0x1
 6110 0e8a 50       		.byte	0x50
 6111 0e8b 1C       		.uleb128 0x1c
 6112 0e8c D7070000 		.4byte	.LASF123
 6113 0e90 01       		.byte	0x1
 6114 0e91 3804     		.2byte	0x438
 6115 0e93 B8000000 		.4byte	0xb8
 6116 0e97 01       		.uleb128 0x1
 6117 0e98 51       		.byte	0x51
 6118 0e99 00       		.byte	0
 6119 0e9a 1B       		.uleb128 0x1b
 6120 0e9b 34040000 		.4byte	.LASF124
 6121 0e9f 01       		.byte	0x1
 6122 0ea0 4704     		.2byte	0x447
 6123 0ea2 00000000 		.4byte	.LFB135
 6124 0ea6 04000000 		.4byte	.LFE135-.LFB135
 6125 0eaa 01       		.uleb128 0x1
 6126 0eab 9C       		.byte	0x9c
 6127 0eac CD0E0000 		.4byte	0xecd
 6128 0eb0 1C       		.uleb128 0x1c
 6129 0eb1 7D050000 		.4byte	.LASF65
 6130 0eb5 01       		.byte	0x1
 6131 0eb6 4704     		.2byte	0x447
 6132 0eb8 11040000 		.4byte	0x411
 6133 0ebc 01       		.uleb128 0x1
 6134 0ebd 50       		.byte	0x50
 6135 0ebe 1C       		.uleb128 0x1c
 6136 0ebf 24010000 		.4byte	.LASF125
 6137 0ec3 01       		.byte	0x1
 6138 0ec4 4704     		.2byte	0x447
 6139 0ec6 B8000000 		.4byte	0xb8
 6140 0eca 01       		.uleb128 0x1
 6141 0ecb 51       		.byte	0x51
 6142 0ecc 00       		.byte	0
 6143 0ecd 1B       		.uleb128 0x1b
 6144 0ece C20B0000 		.4byte	.LASF126
 6145 0ed2 01       		.byte	0x1
 6146 0ed3 5604     		.2byte	0x456
 6147 0ed5 00000000 		.4byte	.LFB136
 6148 0ed9 04000000 		.4byte	.LFE136-.LFB136
 6149 0edd 01       		.uleb128 0x1
 6150 0ede 9C       		.byte	0x9c
 6151 0edf 000F0000 		.4byte	0xf00
 6152 0ee3 1C       		.uleb128 0x1c
 6153 0ee4 7D050000 		.4byte	.LASF65
 6154 0ee8 01       		.byte	0x1
 6155 0ee9 5604     		.2byte	0x456
 6156 0eeb 11040000 		.4byte	0x411
ARM GAS  /tmp/ccJZ9K5Y.s 			page 109


 6157 0eef 01       		.uleb128 0x1
 6158 0ef0 50       		.byte	0x50
 6159 0ef1 1C       		.uleb128 0x1c
 6160 0ef2 2D010000 		.4byte	.LASF127
 6161 0ef6 01       		.byte	0x1
 6162 0ef7 5604     		.2byte	0x456
 6163 0ef9 B8000000 		.4byte	0xb8
 6164 0efd 01       		.uleb128 0x1
 6165 0efe 51       		.byte	0x51
 6166 0eff 00       		.byte	0
 6167 0f00 1B       		.uleb128 0x1b
 6168 0f01 6E060000 		.4byte	.LASF128
 6169 0f05 01       		.byte	0x1
 6170 0f06 6804     		.2byte	0x468
 6171 0f08 00000000 		.4byte	.LFB137
 6172 0f0c 0E000000 		.4byte	.LFE137-.LFB137
 6173 0f10 01       		.uleb128 0x1
 6174 0f11 9C       		.byte	0x9c
 6175 0f12 450F0000 		.4byte	0xf45
 6176 0f16 1C       		.uleb128 0x1c
 6177 0f17 7D050000 		.4byte	.LASF65
 6178 0f1b 01       		.byte	0x1
 6179 0f1c 6804     		.2byte	0x468
 6180 0f1e 11040000 		.4byte	0x411
 6181 0f22 01       		.uleb128 0x1
 6182 0f23 50       		.byte	0x50
 6183 0f24 1E       		.uleb128 0x1e
 6184 0f25 4F000000 		.4byte	.LASF129
 6185 0f29 01       		.byte	0x1
 6186 0f2a 6804     		.2byte	0x468
 6187 0f2c A2000000 		.4byte	0xa2
 6188 0f30 A6060000 		.4byte	.LLST29
 6189 0f34 1D       		.uleb128 0x1d
 6190 0f35 57010000 		.4byte	.LASF66
 6191 0f39 01       		.byte	0x1
 6192 0f3a 6A04     		.2byte	0x46a
 6193 0f3c A2000000 		.4byte	0xa2
 6194 0f40 C7060000 		.4byte	.LLST30
 6195 0f44 00       		.byte	0
 6196 0f45 1B       		.uleb128 0x1b
 6197 0f46 14000000 		.4byte	.LASF130
 6198 0f4a 01       		.byte	0x1
 6199 0f4b 8504     		.2byte	0x485
 6200 0f4d 00000000 		.4byte	.LFB138
 6201 0f51 12000000 		.4byte	.LFE138-.LFB138
 6202 0f55 01       		.uleb128 0x1
 6203 0f56 9C       		.byte	0x9c
 6204 0f57 8A0F0000 		.4byte	0xf8a
 6205 0f5b 1C       		.uleb128 0x1c
 6206 0f5c 7D050000 		.4byte	.LASF65
 6207 0f60 01       		.byte	0x1
 6208 0f61 8504     		.2byte	0x485
 6209 0f63 11040000 		.4byte	0x411
 6210 0f67 01       		.uleb128 0x1
 6211 0f68 50       		.byte	0x50
 6212 0f69 1E       		.uleb128 0x1e
 6213 0f6a 4F000000 		.4byte	.LASF129
ARM GAS  /tmp/ccJZ9K5Y.s 			page 110


 6214 0f6e 01       		.byte	0x1
 6215 0f6f 8504     		.2byte	0x485
 6216 0f71 A2000000 		.4byte	0xa2
 6217 0f75 07070000 		.4byte	.LLST31
 6218 0f79 1D       		.uleb128 0x1d
 6219 0f7a 57010000 		.4byte	.LASF66
 6220 0f7e 01       		.byte	0x1
 6221 0f7f 8704     		.2byte	0x487
 6222 0f81 A2000000 		.4byte	0xa2
 6223 0f85 28070000 		.4byte	.LLST32
 6224 0f89 00       		.byte	0
 6225 0f8a 1B       		.uleb128 0x1b
 6226 0f8b DC060000 		.4byte	.LASF131
 6227 0f8f 01       		.byte	0x1
 6228 0f90 A104     		.2byte	0x4a1
 6229 0f92 00000000 		.4byte	.LFB139
 6230 0f96 0E000000 		.4byte	.LFE139-.LFB139
 6231 0f9a 01       		.uleb128 0x1
 6232 0f9b 9C       		.byte	0x9c
 6233 0f9c CF0F0000 		.4byte	0xfcf
 6234 0fa0 1C       		.uleb128 0x1c
 6235 0fa1 7D050000 		.4byte	.LASF65
 6236 0fa5 01       		.byte	0x1
 6237 0fa6 A104     		.2byte	0x4a1
 6238 0fa8 11040000 		.4byte	0x411
 6239 0fac 01       		.uleb128 0x1
 6240 0fad 50       		.byte	0x50
 6241 0fae 1E       		.uleb128 0x1e
 6242 0faf 4F000000 		.4byte	.LASF129
 6243 0fb3 01       		.byte	0x1
 6244 0fb4 A104     		.2byte	0x4a1
 6245 0fb6 A2000000 		.4byte	0xa2
 6246 0fba 6C070000 		.4byte	.LLST33
 6247 0fbe 1D       		.uleb128 0x1d
 6248 0fbf 60010000 		.4byte	.LASF74
 6249 0fc3 01       		.byte	0x1
 6250 0fc4 A304     		.2byte	0x4a3
 6251 0fc6 A2000000 		.4byte	0xa2
 6252 0fca 8D070000 		.4byte	.LLST34
 6253 0fce 00       		.byte	0
 6254 0fcf 1B       		.uleb128 0x1b
 6255 0fd0 A1000000 		.4byte	.LASF132
 6256 0fd4 01       		.byte	0x1
 6257 0fd5 BE04     		.2byte	0x4be
 6258 0fd7 00000000 		.4byte	.LFB140
 6259 0fdb 12000000 		.4byte	.LFE140-.LFB140
 6260 0fdf 01       		.uleb128 0x1
 6261 0fe0 9C       		.byte	0x9c
 6262 0fe1 14100000 		.4byte	0x1014
 6263 0fe5 1C       		.uleb128 0x1c
 6264 0fe6 7D050000 		.4byte	.LASF65
 6265 0fea 01       		.byte	0x1
 6266 0feb BE04     		.2byte	0x4be
 6267 0fed 11040000 		.4byte	0x411
 6268 0ff1 01       		.uleb128 0x1
 6269 0ff2 50       		.byte	0x50
 6270 0ff3 1E       		.uleb128 0x1e
ARM GAS  /tmp/ccJZ9K5Y.s 			page 111


 6271 0ff4 4F000000 		.4byte	.LASF129
 6272 0ff8 01       		.byte	0x1
 6273 0ff9 BE04     		.2byte	0x4be
 6274 0ffb A2000000 		.4byte	0xa2
 6275 0fff CD070000 		.4byte	.LLST35
 6276 1003 1D       		.uleb128 0x1d
 6277 1004 60010000 		.4byte	.LASF74
 6278 1008 01       		.byte	0x1
 6279 1009 C004     		.2byte	0x4c0
 6280 100b A2000000 		.4byte	0xa2
 6281 100f EE070000 		.4byte	.LLST36
 6282 1013 00       		.byte	0
 6283 1014 1B       		.uleb128 0x1b
 6284 1015 EE030000 		.4byte	.LASF133
 6285 1019 01       		.byte	0x1
 6286 101a DA04     		.2byte	0x4da
 6287 101c 00000000 		.4byte	.LFB141
 6288 1020 0E000000 		.4byte	.LFE141-.LFB141
 6289 1024 01       		.uleb128 0x1
 6290 1025 9C       		.byte	0x9c
 6291 1026 59100000 		.4byte	0x1059
 6292 102a 1C       		.uleb128 0x1c
 6293 102b 7D050000 		.4byte	.LASF65
 6294 102f 01       		.byte	0x1
 6295 1030 DA04     		.2byte	0x4da
 6296 1032 11040000 		.4byte	0x411
 6297 1036 01       		.uleb128 0x1
 6298 1037 50       		.byte	0x50
 6299 1038 1E       		.uleb128 0x1e
 6300 1039 CD020000 		.4byte	.LASF134
 6301 103d 01       		.byte	0x1
 6302 103e DA04     		.2byte	0x4da
 6303 1040 A2000000 		.4byte	0xa2
 6304 1044 32080000 		.4byte	.LLST37
 6305 1048 1D       		.uleb128 0x1d
 6306 1049 57010000 		.4byte	.LASF66
 6307 104d 01       		.byte	0x1
 6308 104e DC04     		.2byte	0x4dc
 6309 1050 A2000000 		.4byte	0xa2
 6310 1054 53080000 		.4byte	.LLST38
 6311 1058 00       		.byte	0
 6312 1059 1B       		.uleb128 0x1b
 6313 105a 21020000 		.4byte	.LASF135
 6314 105e 01       		.byte	0x1
 6315 105f F804     		.2byte	0x4f8
 6316 1061 00000000 		.4byte	.LFB142
 6317 1065 12000000 		.4byte	.LFE142-.LFB142
 6318 1069 01       		.uleb128 0x1
 6319 106a 9C       		.byte	0x9c
 6320 106b 9E100000 		.4byte	0x109e
 6321 106f 1C       		.uleb128 0x1c
 6322 1070 7D050000 		.4byte	.LASF65
 6323 1074 01       		.byte	0x1
 6324 1075 F804     		.2byte	0x4f8
 6325 1077 11040000 		.4byte	0x411
 6326 107b 01       		.uleb128 0x1
 6327 107c 50       		.byte	0x50
ARM GAS  /tmp/ccJZ9K5Y.s 			page 112


 6328 107d 1E       		.uleb128 0x1e
 6329 107e CD020000 		.4byte	.LASF134
 6330 1082 01       		.byte	0x1
 6331 1083 F804     		.2byte	0x4f8
 6332 1085 A2000000 		.4byte	0xa2
 6333 1089 93080000 		.4byte	.LLST39
 6334 108d 1D       		.uleb128 0x1d
 6335 108e 57010000 		.4byte	.LASF66
 6336 1092 01       		.byte	0x1
 6337 1093 FA04     		.2byte	0x4fa
 6338 1095 A2000000 		.4byte	0xa2
 6339 1099 B4080000 		.4byte	.LLST40
 6340 109d 00       		.byte	0
 6341 109e 1B       		.uleb128 0x1b
 6342 109f F00D0000 		.4byte	.LASF136
 6343 10a3 01       		.byte	0x1
 6344 10a4 1505     		.2byte	0x515
 6345 10a6 00000000 		.4byte	.LFB143
 6346 10aa 0E000000 		.4byte	.LFE143-.LFB143
 6347 10ae 01       		.uleb128 0x1
 6348 10af 9C       		.byte	0x9c
 6349 10b0 E3100000 		.4byte	0x10e3
 6350 10b4 1C       		.uleb128 0x1c
 6351 10b5 7D050000 		.4byte	.LASF65
 6352 10b9 01       		.byte	0x1
 6353 10ba 1505     		.2byte	0x515
 6354 10bc 11040000 		.4byte	0x411
 6355 10c0 01       		.uleb128 0x1
 6356 10c1 50       		.byte	0x50
 6357 10c2 1E       		.uleb128 0x1e
 6358 10c3 CD020000 		.4byte	.LASF134
 6359 10c7 01       		.byte	0x1
 6360 10c8 1505     		.2byte	0x515
 6361 10ca A2000000 		.4byte	0xa2
 6362 10ce F8080000 		.4byte	.LLST41
 6363 10d2 1D       		.uleb128 0x1d
 6364 10d3 60010000 		.4byte	.LASF74
 6365 10d7 01       		.byte	0x1
 6366 10d8 1705     		.2byte	0x517
 6367 10da A2000000 		.4byte	0xa2
 6368 10de 19090000 		.4byte	.LLST42
 6369 10e2 00       		.byte	0
 6370 10e3 1B       		.uleb128 0x1b
 6371 10e4 030C0000 		.4byte	.LASF137
 6372 10e8 01       		.byte	0x1
 6373 10e9 3205     		.2byte	0x532
 6374 10eb 00000000 		.4byte	.LFB144
 6375 10ef 12000000 		.4byte	.LFE144-.LFB144
 6376 10f3 01       		.uleb128 0x1
 6377 10f4 9C       		.byte	0x9c
 6378 10f5 28110000 		.4byte	0x1128
 6379 10f9 1C       		.uleb128 0x1c
 6380 10fa 7D050000 		.4byte	.LASF65
 6381 10fe 01       		.byte	0x1
 6382 10ff 3205     		.2byte	0x532
 6383 1101 11040000 		.4byte	0x411
 6384 1105 01       		.uleb128 0x1
ARM GAS  /tmp/ccJZ9K5Y.s 			page 113


 6385 1106 50       		.byte	0x50
 6386 1107 1E       		.uleb128 0x1e
 6387 1108 CD020000 		.4byte	.LASF134
 6388 110c 01       		.byte	0x1
 6389 110d 3205     		.2byte	0x532
 6390 110f A2000000 		.4byte	0xa2
 6391 1113 59090000 		.4byte	.LLST43
 6392 1117 1D       		.uleb128 0x1d
 6393 1118 60010000 		.4byte	.LASF74
 6394 111c 01       		.byte	0x1
 6395 111d 3405     		.2byte	0x534
 6396 111f A2000000 		.4byte	0xa2
 6397 1123 7A090000 		.4byte	.LLST44
 6398 1127 00       		.byte	0
 6399 1128 1B       		.uleb128 0x1b
 6400 1129 190E0000 		.4byte	.LASF138
 6401 112d 01       		.byte	0x1
 6402 112e 4F05     		.2byte	0x54f
 6403 1130 00000000 		.4byte	.LFB145
 6404 1134 0E000000 		.4byte	.LFE145-.LFB145
 6405 1138 01       		.uleb128 0x1
 6406 1139 9C       		.byte	0x9c
 6407 113a 6D110000 		.4byte	0x116d
 6408 113e 1C       		.uleb128 0x1c
 6409 113f 7D050000 		.4byte	.LASF65
 6410 1143 01       		.byte	0x1
 6411 1144 4F05     		.2byte	0x54f
 6412 1146 11040000 		.4byte	0x411
 6413 114a 01       		.uleb128 0x1
 6414 114b 50       		.byte	0x50
 6415 114c 1E       		.uleb128 0x1e
 6416 114d 58020000 		.4byte	.LASF139
 6417 1151 01       		.byte	0x1
 6418 1152 4F05     		.2byte	0x54f
 6419 1154 A2000000 		.4byte	0xa2
 6420 1158 BE090000 		.4byte	.LLST45
 6421 115c 1D       		.uleb128 0x1d
 6422 115d 57010000 		.4byte	.LASF66
 6423 1161 01       		.byte	0x1
 6424 1162 5105     		.2byte	0x551
 6425 1164 A2000000 		.4byte	0xa2
 6426 1168 DF090000 		.4byte	.LLST46
 6427 116c 00       		.byte	0
 6428 116d 1B       		.uleb128 0x1b
 6429 116e BB090000 		.4byte	.LASF140
 6430 1172 01       		.byte	0x1
 6431 1173 6E05     		.2byte	0x56e
 6432 1175 00000000 		.4byte	.LFB146
 6433 1179 12000000 		.4byte	.LFE146-.LFB146
 6434 117d 01       		.uleb128 0x1
 6435 117e 9C       		.byte	0x9c
 6436 117f B2110000 		.4byte	0x11b2
 6437 1183 1C       		.uleb128 0x1c
 6438 1184 7D050000 		.4byte	.LASF65
 6439 1188 01       		.byte	0x1
 6440 1189 6E05     		.2byte	0x56e
 6441 118b 11040000 		.4byte	0x411
ARM GAS  /tmp/ccJZ9K5Y.s 			page 114


 6442 118f 01       		.uleb128 0x1
 6443 1190 50       		.byte	0x50
 6444 1191 1E       		.uleb128 0x1e
 6445 1192 58020000 		.4byte	.LASF139
 6446 1196 01       		.byte	0x1
 6447 1197 6E05     		.2byte	0x56e
 6448 1199 A2000000 		.4byte	0xa2
 6449 119d 1F0A0000 		.4byte	.LLST47
 6450 11a1 1D       		.uleb128 0x1d
 6451 11a2 57010000 		.4byte	.LASF66
 6452 11a6 01       		.byte	0x1
 6453 11a7 7005     		.2byte	0x570
 6454 11a9 A2000000 		.4byte	0xa2
 6455 11ad 400A0000 		.4byte	.LLST48
 6456 11b1 00       		.byte	0
 6457 11b2 1B       		.uleb128 0x1b
 6458 11b3 DE0D0000 		.4byte	.LASF141
 6459 11b7 01       		.byte	0x1
 6460 11b8 8C05     		.2byte	0x58c
 6461 11ba 00000000 		.4byte	.LFB147
 6462 11be 0E000000 		.4byte	.LFE147-.LFB147
 6463 11c2 01       		.uleb128 0x1
 6464 11c3 9C       		.byte	0x9c
 6465 11c4 F7110000 		.4byte	0x11f7
 6466 11c8 1C       		.uleb128 0x1c
 6467 11c9 7D050000 		.4byte	.LASF65
 6468 11cd 01       		.byte	0x1
 6469 11ce 8C05     		.2byte	0x58c
 6470 11d0 11040000 		.4byte	0x411
 6471 11d4 01       		.uleb128 0x1
 6472 11d5 50       		.byte	0x50
 6473 11d6 1E       		.uleb128 0x1e
 6474 11d7 58020000 		.4byte	.LASF139
 6475 11db 01       		.byte	0x1
 6476 11dc 8C05     		.2byte	0x58c
 6477 11de A2000000 		.4byte	0xa2
 6478 11e2 840A0000 		.4byte	.LLST49
 6479 11e6 1D       		.uleb128 0x1d
 6480 11e7 60010000 		.4byte	.LASF74
 6481 11eb 01       		.byte	0x1
 6482 11ec 8E05     		.2byte	0x58e
 6483 11ee A2000000 		.4byte	0xa2
 6484 11f2 A50A0000 		.4byte	.LLST50
 6485 11f6 00       		.byte	0
 6486 11f7 1B       		.uleb128 0x1b
 6487 11f8 CD090000 		.4byte	.LASF142
 6488 11fc 01       		.byte	0x1
 6489 11fd AA05     		.2byte	0x5aa
 6490 11ff 00000000 		.4byte	.LFB148
 6491 1203 12000000 		.4byte	.LFE148-.LFB148
 6492 1207 01       		.uleb128 0x1
 6493 1208 9C       		.byte	0x9c
 6494 1209 3C120000 		.4byte	0x123c
 6495 120d 1C       		.uleb128 0x1c
 6496 120e 7D050000 		.4byte	.LASF65
 6497 1212 01       		.byte	0x1
 6498 1213 AA05     		.2byte	0x5aa
ARM GAS  /tmp/ccJZ9K5Y.s 			page 115


 6499 1215 11040000 		.4byte	0x411
 6500 1219 01       		.uleb128 0x1
 6501 121a 50       		.byte	0x50
 6502 121b 1E       		.uleb128 0x1e
 6503 121c 58020000 		.4byte	.LASF139
 6504 1220 01       		.byte	0x1
 6505 1221 AA05     		.2byte	0x5aa
 6506 1223 A2000000 		.4byte	0xa2
 6507 1227 E50A0000 		.4byte	.LLST51
 6508 122b 1D       		.uleb128 0x1d
 6509 122c 60010000 		.4byte	.LASF74
 6510 1230 01       		.byte	0x1
 6511 1231 AC05     		.2byte	0x5ac
 6512 1233 A2000000 		.4byte	0xa2
 6513 1237 060B0000 		.4byte	.LLST52
 6514 123b 00       		.byte	0
 6515 123c 1B       		.uleb128 0x1b
 6516 123d B5000000 		.4byte	.LASF143
 6517 1241 01       		.byte	0x1
 6518 1242 C805     		.2byte	0x5c8
 6519 1244 00000000 		.4byte	.LFB149
 6520 1248 0E000000 		.4byte	.LFE149-.LFB149
 6521 124c 01       		.uleb128 0x1
 6522 124d 9C       		.byte	0x9c
 6523 124e 81120000 		.4byte	0x1281
 6524 1252 1C       		.uleb128 0x1c
 6525 1253 7D050000 		.4byte	.LASF65
 6526 1257 01       		.byte	0x1
 6527 1258 C805     		.2byte	0x5c8
 6528 125a 11040000 		.4byte	0x411
 6529 125e 01       		.uleb128 0x1
 6530 125f 50       		.byte	0x50
 6531 1260 1E       		.uleb128 0x1e
 6532 1261 AF0D0000 		.4byte	.LASF144
 6533 1265 01       		.byte	0x1
 6534 1266 C805     		.2byte	0x5c8
 6535 1268 A2000000 		.4byte	0xa2
 6536 126c 4A0B0000 		.4byte	.LLST53
 6537 1270 1D       		.uleb128 0x1d
 6538 1271 57010000 		.4byte	.LASF66
 6539 1275 01       		.byte	0x1
 6540 1276 CA05     		.2byte	0x5ca
 6541 1278 A2000000 		.4byte	0xa2
 6542 127c 6B0B0000 		.4byte	.LLST54
 6543 1280 00       		.byte	0
 6544 1281 1B       		.uleb128 0x1b
 6545 1282 750D0000 		.4byte	.LASF145
 6546 1286 01       		.byte	0x1
 6547 1287 E605     		.2byte	0x5e6
 6548 1289 00000000 		.4byte	.LFB150
 6549 128d 10000000 		.4byte	.LFE150-.LFB150
 6550 1291 01       		.uleb128 0x1
 6551 1292 9C       		.byte	0x9c
 6552 1293 C6120000 		.4byte	0x12c6
 6553 1297 1C       		.uleb128 0x1c
 6554 1298 7D050000 		.4byte	.LASF65
 6555 129c 01       		.byte	0x1
ARM GAS  /tmp/ccJZ9K5Y.s 			page 116


 6556 129d E605     		.2byte	0x5e6
 6557 129f 11040000 		.4byte	0x411
 6558 12a3 01       		.uleb128 0x1
 6559 12a4 50       		.byte	0x50
 6560 12a5 1E       		.uleb128 0x1e
 6561 12a6 AF0D0000 		.4byte	.LASF144
 6562 12aa 01       		.byte	0x1
 6563 12ab E605     		.2byte	0x5e6
 6564 12ad A2000000 		.4byte	0xa2
 6565 12b1 AB0B0000 		.4byte	.LLST55
 6566 12b5 1D       		.uleb128 0x1d
 6567 12b6 57010000 		.4byte	.LASF66
 6568 12ba 01       		.byte	0x1
 6569 12bb E805     		.2byte	0x5e8
 6570 12bd A2000000 		.4byte	0xa2
 6571 12c1 CC0B0000 		.4byte	.LLST56
 6572 12c5 00       		.byte	0
 6573 12c6 1B       		.uleb128 0x1b
 6574 12c7 A9060000 		.4byte	.LASF146
 6575 12cb 01       		.byte	0x1
 6576 12cc 0306     		.2byte	0x603
 6577 12ce 00000000 		.4byte	.LFB151
 6578 12d2 0E000000 		.4byte	.LFE151-.LFB151
 6579 12d6 01       		.uleb128 0x1
 6580 12d7 9C       		.byte	0x9c
 6581 12d8 0B130000 		.4byte	0x130b
 6582 12dc 1C       		.uleb128 0x1c
 6583 12dd 7D050000 		.4byte	.LASF65
 6584 12e1 01       		.byte	0x1
 6585 12e2 0306     		.2byte	0x603
 6586 12e4 11040000 		.4byte	0x411
 6587 12e8 01       		.uleb128 0x1
 6588 12e9 50       		.byte	0x50
 6589 12ea 1E       		.uleb128 0x1e
 6590 12eb AF0D0000 		.4byte	.LASF144
 6591 12ef 01       		.byte	0x1
 6592 12f0 0306     		.2byte	0x603
 6593 12f2 A2000000 		.4byte	0xa2
 6594 12f6 100C0000 		.4byte	.LLST57
 6595 12fa 1D       		.uleb128 0x1d
 6596 12fb 60010000 		.4byte	.LASF74
 6597 12ff 01       		.byte	0x1
 6598 1300 0506     		.2byte	0x605
 6599 1302 A2000000 		.4byte	0xa2
 6600 1306 310C0000 		.4byte	.LLST58
 6601 130a 00       		.byte	0
 6602 130b 1B       		.uleb128 0x1b
 6603 130c 440C0000 		.4byte	.LASF147
 6604 1310 01       		.byte	0x1
 6605 1311 2006     		.2byte	0x620
 6606 1313 00000000 		.4byte	.LFB152
 6607 1317 10000000 		.4byte	.LFE152-.LFB152
 6608 131b 01       		.uleb128 0x1
 6609 131c 9C       		.byte	0x9c
 6610 131d 50130000 		.4byte	0x1350
 6611 1321 1C       		.uleb128 0x1c
 6612 1322 7D050000 		.4byte	.LASF65
ARM GAS  /tmp/ccJZ9K5Y.s 			page 117


 6613 1326 01       		.byte	0x1
 6614 1327 2006     		.2byte	0x620
 6615 1329 11040000 		.4byte	0x411
 6616 132d 01       		.uleb128 0x1
 6617 132e 50       		.byte	0x50
 6618 132f 1E       		.uleb128 0x1e
 6619 1330 AF0D0000 		.4byte	.LASF144
 6620 1334 01       		.byte	0x1
 6621 1335 2006     		.2byte	0x620
 6622 1337 A2000000 		.4byte	0xa2
 6623 133b 710C0000 		.4byte	.LLST59
 6624 133f 1D       		.uleb128 0x1d
 6625 1340 60010000 		.4byte	.LASF74
 6626 1344 01       		.byte	0x1
 6627 1345 2206     		.2byte	0x622
 6628 1347 A2000000 		.4byte	0xa2
 6629 134b 920C0000 		.4byte	.LLST60
 6630 134f 00       		.byte	0
 6631 1350 1B       		.uleb128 0x1b
 6632 1351 C6060000 		.4byte	.LASF148
 6633 1355 01       		.byte	0x1
 6634 1356 3D06     		.2byte	0x63d
 6635 1358 00000000 		.4byte	.LFB153
 6636 135c 0E000000 		.4byte	.LFE153-.LFB153
 6637 1360 01       		.uleb128 0x1
 6638 1361 9C       		.byte	0x9c
 6639 1362 95130000 		.4byte	0x1395
 6640 1366 1C       		.uleb128 0x1c
 6641 1367 7D050000 		.4byte	.LASF65
 6642 136b 01       		.byte	0x1
 6643 136c 3D06     		.2byte	0x63d
 6644 136e 11040000 		.4byte	0x411
 6645 1372 01       		.uleb128 0x1
 6646 1373 50       		.byte	0x50
 6647 1374 1E       		.uleb128 0x1e
 6648 1375 89040000 		.4byte	.LASF46
 6649 1379 01       		.byte	0x1
 6650 137a 3D06     		.2byte	0x63d
 6651 137c A2000000 		.4byte	0xa2
 6652 1380 D60C0000 		.4byte	.LLST61
 6653 1384 1D       		.uleb128 0x1d
 6654 1385 52040000 		.4byte	.LASF67
 6655 1389 01       		.byte	0x1
 6656 138a 3F06     		.2byte	0x63f
 6657 138c A2000000 		.4byte	0xa2
 6658 1390 F70C0000 		.4byte	.LLST62
 6659 1394 00       		.byte	0
 6660 1395 1B       		.uleb128 0x1b
 6661 1396 660C0000 		.4byte	.LASF149
 6662 139a 01       		.byte	0x1
 6663 139b 5806     		.2byte	0x658
 6664 139d 00000000 		.4byte	.LFB154
 6665 13a1 0E000000 		.4byte	.LFE154-.LFB154
 6666 13a5 01       		.uleb128 0x1
 6667 13a6 9C       		.byte	0x9c
 6668 13a7 DA130000 		.4byte	0x13da
 6669 13ab 1C       		.uleb128 0x1c
ARM GAS  /tmp/ccJZ9K5Y.s 			page 118


 6670 13ac 7D050000 		.4byte	.LASF65
 6671 13b0 01       		.byte	0x1
 6672 13b1 5806     		.2byte	0x658
 6673 13b3 11040000 		.4byte	0x411
 6674 13b7 01       		.uleb128 0x1
 6675 13b8 50       		.byte	0x50
 6676 13b9 1E       		.uleb128 0x1e
 6677 13ba F1090000 		.4byte	.LASF47
 6678 13be 01       		.byte	0x1
 6679 13bf 5806     		.2byte	0x658
 6680 13c1 A2000000 		.4byte	0xa2
 6681 13c5 370D0000 		.4byte	.LLST63
 6682 13c9 1D       		.uleb128 0x1d
 6683 13ca 52040000 		.4byte	.LASF67
 6684 13ce 01       		.byte	0x1
 6685 13cf 5A06     		.2byte	0x65a
 6686 13d1 A2000000 		.4byte	0xa2
 6687 13d5 580D0000 		.4byte	.LLST64
 6688 13d9 00       		.byte	0
 6689 13da 1B       		.uleb128 0x1b
 6690 13db B9010000 		.4byte	.LASF150
 6691 13df 01       		.byte	0x1
 6692 13e0 7306     		.2byte	0x673
 6693 13e2 00000000 		.4byte	.LFB155
 6694 13e6 12000000 		.4byte	.LFE155-.LFB155
 6695 13ea 01       		.uleb128 0x1
 6696 13eb 9C       		.byte	0x9c
 6697 13ec 1F140000 		.4byte	0x141f
 6698 13f0 1C       		.uleb128 0x1c
 6699 13f1 7D050000 		.4byte	.LASF65
 6700 13f5 01       		.byte	0x1
 6701 13f6 7306     		.2byte	0x673
 6702 13f8 11040000 		.4byte	0x411
 6703 13fc 01       		.uleb128 0x1
 6704 13fd 50       		.byte	0x50
 6705 13fe 1E       		.uleb128 0x1e
 6706 13ff 89040000 		.4byte	.LASF46
 6707 1403 01       		.byte	0x1
 6708 1404 7306     		.2byte	0x673
 6709 1406 A2000000 		.4byte	0xa2
 6710 140a 980D0000 		.4byte	.LLST65
 6711 140e 1D       		.uleb128 0x1d
 6712 140f 52040000 		.4byte	.LASF67
 6713 1413 01       		.byte	0x1
 6714 1414 7506     		.2byte	0x675
 6715 1416 A2000000 		.4byte	0xa2
 6716 141a B90D0000 		.4byte	.LLST66
 6717 141e 00       		.byte	0
 6718 141f 1B       		.uleb128 0x1b
 6719 1420 5A040000 		.4byte	.LASF151
 6720 1424 01       		.byte	0x1
 6721 1425 8E06     		.2byte	0x68e
 6722 1427 00000000 		.4byte	.LFB156
 6723 142b 12000000 		.4byte	.LFE156-.LFB156
 6724 142f 01       		.uleb128 0x1
 6725 1430 9C       		.byte	0x9c
 6726 1431 64140000 		.4byte	0x1464
ARM GAS  /tmp/ccJZ9K5Y.s 			page 119


 6727 1435 1C       		.uleb128 0x1c
 6728 1436 7D050000 		.4byte	.LASF65
 6729 143a 01       		.byte	0x1
 6730 143b 8E06     		.2byte	0x68e
 6731 143d 11040000 		.4byte	0x411
 6732 1441 01       		.uleb128 0x1
 6733 1442 50       		.byte	0x50
 6734 1443 1E       		.uleb128 0x1e
 6735 1444 F1090000 		.4byte	.LASF47
 6736 1448 01       		.byte	0x1
 6737 1449 8E06     		.2byte	0x68e
 6738 144b A2000000 		.4byte	0xa2
 6739 144f FD0D0000 		.4byte	.LLST67
 6740 1453 1D       		.uleb128 0x1d
 6741 1454 52040000 		.4byte	.LASF67
 6742 1458 01       		.byte	0x1
 6743 1459 9006     		.2byte	0x690
 6744 145b A2000000 		.4byte	0xa2
 6745 145f 1E0E0000 		.4byte	.LLST68
 6746 1463 00       		.byte	0
 6747 1464 1B       		.uleb128 0x1b
 6748 1465 F40C0000 		.4byte	.LASF152
 6749 1469 01       		.byte	0x1
 6750 146a A906     		.2byte	0x6a9
 6751 146c 00000000 		.4byte	.LFB157
 6752 1470 12000000 		.4byte	.LFE157-.LFB157
 6753 1474 01       		.uleb128 0x1
 6754 1475 9C       		.byte	0x9c
 6755 1476 A9140000 		.4byte	0x14a9
 6756 147a 1C       		.uleb128 0x1c
 6757 147b 7D050000 		.4byte	.LASF65
 6758 147f 01       		.byte	0x1
 6759 1480 A906     		.2byte	0x6a9
 6760 1482 11040000 		.4byte	0x411
 6761 1486 01       		.uleb128 0x1
 6762 1487 50       		.byte	0x50
 6763 1488 1E       		.uleb128 0x1e
 6764 1489 89040000 		.4byte	.LASF46
 6765 148d 01       		.byte	0x1
 6766 148e A906     		.2byte	0x6a9
 6767 1490 A2000000 		.4byte	0xa2
 6768 1494 620E0000 		.4byte	.LLST69
 6769 1498 1D       		.uleb128 0x1d
 6770 1499 52040000 		.4byte	.LASF67
 6771 149d 01       		.byte	0x1
 6772 149e AB06     		.2byte	0x6ab
 6773 14a0 A2000000 		.4byte	0xa2
 6774 14a4 830E0000 		.4byte	.LLST70
 6775 14a8 00       		.byte	0
 6776 14a9 1B       		.uleb128 0x1b
 6777 14aa 16090000 		.4byte	.LASF153
 6778 14ae 01       		.byte	0x1
 6779 14af C406     		.2byte	0x6c4
 6780 14b1 00000000 		.4byte	.LFB158
 6781 14b5 12000000 		.4byte	.LFE158-.LFB158
 6782 14b9 01       		.uleb128 0x1
 6783 14ba 9C       		.byte	0x9c
ARM GAS  /tmp/ccJZ9K5Y.s 			page 120


 6784 14bb EE140000 		.4byte	0x14ee
 6785 14bf 1C       		.uleb128 0x1c
 6786 14c0 7D050000 		.4byte	.LASF65
 6787 14c4 01       		.byte	0x1
 6788 14c5 C406     		.2byte	0x6c4
 6789 14c7 11040000 		.4byte	0x411
 6790 14cb 01       		.uleb128 0x1
 6791 14cc 50       		.byte	0x50
 6792 14cd 1E       		.uleb128 0x1e
 6793 14ce F1090000 		.4byte	.LASF47
 6794 14d2 01       		.byte	0x1
 6795 14d3 C406     		.2byte	0x6c4
 6796 14d5 A2000000 		.4byte	0xa2
 6797 14d9 C70E0000 		.4byte	.LLST71
 6798 14dd 1D       		.uleb128 0x1d
 6799 14de 52040000 		.4byte	.LASF67
 6800 14e2 01       		.byte	0x1
 6801 14e3 C606     		.2byte	0x6c6
 6802 14e5 A2000000 		.4byte	0xa2
 6803 14e9 E80E0000 		.4byte	.LLST72
 6804 14ed 00       		.byte	0
 6805 14ee 1B       		.uleb128 0x1b
 6806 14ef 92050000 		.4byte	.LASF154
 6807 14f3 01       		.byte	0x1
 6808 14f4 DF06     		.2byte	0x6df
 6809 14f6 00000000 		.4byte	.LFB159
 6810 14fa 12000000 		.4byte	.LFE159-.LFB159
 6811 14fe 01       		.uleb128 0x1
 6812 14ff 9C       		.byte	0x9c
 6813 1500 33150000 		.4byte	0x1533
 6814 1504 1C       		.uleb128 0x1c
 6815 1505 7D050000 		.4byte	.LASF65
 6816 1509 01       		.byte	0x1
 6817 150a DF06     		.2byte	0x6df
 6818 150c 11040000 		.4byte	0x411
 6819 1510 01       		.uleb128 0x1
 6820 1511 50       		.byte	0x50
 6821 1512 1E       		.uleb128 0x1e
 6822 1513 89040000 		.4byte	.LASF46
 6823 1517 01       		.byte	0x1
 6824 1518 DF06     		.2byte	0x6df
 6825 151a A2000000 		.4byte	0xa2
 6826 151e 2C0F0000 		.4byte	.LLST73
 6827 1522 1D       		.uleb128 0x1d
 6828 1523 52040000 		.4byte	.LASF67
 6829 1527 01       		.byte	0x1
 6830 1528 E106     		.2byte	0x6e1
 6831 152a A2000000 		.4byte	0xa2
 6832 152e 4D0F0000 		.4byte	.LLST74
 6833 1532 00       		.byte	0
 6834 1533 1B       		.uleb128 0x1b
 6835 1534 AB020000 		.4byte	.LASF155
 6836 1538 01       		.byte	0x1
 6837 1539 FE06     		.2byte	0x6fe
 6838 153b 00000000 		.4byte	.LFB160
 6839 153f 20000000 		.4byte	.LFE160-.LFB160
 6840 1543 01       		.uleb128 0x1
ARM GAS  /tmp/ccJZ9K5Y.s 			page 121


 6841 1544 9C       		.byte	0x9c
 6842 1545 82150000 		.4byte	0x1582
 6843 1549 1C       		.uleb128 0x1c
 6844 154a 7D050000 		.4byte	.LASF65
 6845 154e 01       		.byte	0x1
 6846 154f FE06     		.2byte	0x6fe
 6847 1551 11040000 		.4byte	0x411
 6848 1555 01       		.uleb128 0x1
 6849 1556 50       		.byte	0x50
 6850 1557 1C       		.uleb128 0x1c
 6851 1558 63020000 		.4byte	.LASF51
 6852 155c 01       		.byte	0x1
 6853 155d FE06     		.2byte	0x6fe
 6854 155f A2000000 		.4byte	0xa2
 6855 1563 01       		.uleb128 0x1
 6856 1564 51       		.byte	0x51
 6857 1565 1E       		.uleb128 0x1e
 6858 1566 C7070000 		.4byte	.LASF156
 6859 156a 01       		.byte	0x1
 6860 156b FE06     		.2byte	0x6fe
 6861 156d A2000000 		.4byte	0xa2
 6862 1571 910F0000 		.4byte	.LLST75
 6863 1575 14       		.uleb128 0x14
 6864 1576 746D7000 		.ascii	"tmp\000"
 6865 157a 01       		.byte	0x1
 6866 157b 0007     		.2byte	0x700
 6867 157d A2000000 		.4byte	0xa2
 6868 1581 00       		.byte	0
 6869 1582 1B       		.uleb128 0x1b
 6870 1583 00070000 		.4byte	.LASF157
 6871 1587 01       		.byte	0x1
 6872 1588 1C07     		.2byte	0x71c
 6873 158a 00000000 		.4byte	.LFB161
 6874 158e 20000000 		.4byte	.LFE161-.LFB161
 6875 1592 01       		.uleb128 0x1
 6876 1593 9C       		.byte	0x9c
 6877 1594 D1150000 		.4byte	0x15d1
 6878 1598 1C       		.uleb128 0x1c
 6879 1599 7D050000 		.4byte	.LASF65
 6880 159d 01       		.byte	0x1
 6881 159e 1C07     		.2byte	0x71c
 6882 15a0 11040000 		.4byte	0x411
 6883 15a4 01       		.uleb128 0x1
 6884 15a5 50       		.byte	0x50
 6885 15a6 1C       		.uleb128 0x1c
 6886 15a7 63020000 		.4byte	.LASF51
 6887 15ab 01       		.byte	0x1
 6888 15ac 1C07     		.2byte	0x71c
 6889 15ae A2000000 		.4byte	0xa2
 6890 15b2 01       		.uleb128 0x1
 6891 15b3 51       		.byte	0x51
 6892 15b4 1E       		.uleb128 0x1e
 6893 15b5 B3030000 		.4byte	.LASF158
 6894 15b9 01       		.byte	0x1
 6895 15ba 1C07     		.2byte	0x71c
 6896 15bc A2000000 		.4byte	0xa2
 6897 15c0 B20F0000 		.4byte	.LLST76
ARM GAS  /tmp/ccJZ9K5Y.s 			page 122


 6898 15c4 14       		.uleb128 0x14
 6899 15c5 746D7000 		.ascii	"tmp\000"
 6900 15c9 01       		.byte	0x1
 6901 15ca 1E07     		.2byte	0x71e
 6902 15cc A2000000 		.4byte	0xa2
 6903 15d0 00       		.byte	0
 6904 15d1 1B       		.uleb128 0x1b
 6905 15d2 B70B0000 		.4byte	.LASF159
 6906 15d6 01       		.byte	0x1
 6907 15d7 7007     		.2byte	0x770
 6908 15d9 00000000 		.4byte	.LFB162
 6909 15dd 40010000 		.4byte	.LFE162-.LFB162
 6910 15e1 01       		.uleb128 0x1
 6911 15e2 9C       		.byte	0x9c
 6912 15e3 ED170000 		.4byte	0x17ed
 6913 15e7 1C       		.uleb128 0x1c
 6914 15e8 7D050000 		.4byte	.LASF65
 6915 15ec 01       		.byte	0x1
 6916 15ed 7007     		.2byte	0x770
 6917 15ef 11040000 		.4byte	0x411
 6918 15f3 01       		.uleb128 0x1
 6919 15f4 50       		.byte	0x50
 6920 15f5 1E       		.uleb128 0x1e
 6921 15f6 510D0000 		.4byte	.LASF160
 6922 15fa 01       		.byte	0x1
 6923 15fb 7007     		.2byte	0x770
 6924 15fd ED170000 		.4byte	0x17ed
 6925 1601 D30F0000 		.4byte	.LLST77
 6926 1605 21       		.uleb128 0x21
 6927 1606 C5040000 		.4byte	0x4c5
 6928 160a 0E000000 		.4byte	.LBB46
 6929 160e 00000000 		.4byte	.Ldebug_ranges0+0
 6930 1612 01       		.byte	0x1
 6931 1613 9007     		.2byte	0x790
 6932 1615 5F160000 		.4byte	0x165f
 6933 1619 22       		.uleb128 0x22
 6934 161a F6040000 		.4byte	0x4f6
 6935 161e 3F100000 		.4byte	.LLST78
 6936 1622 22       		.uleb128 0x22
 6937 1623 EA040000 		.4byte	0x4ea
 6938 1627 7B100000 		.4byte	.LLST79
 6939 162b 22       		.uleb128 0x22
 6940 162c DE040000 		.4byte	0x4de
 6941 1630 A8100000 		.4byte	.LLST80
 6942 1634 22       		.uleb128 0x22
 6943 1635 D2040000 		.4byte	0x4d2
 6944 1639 C6100000 		.4byte	.LLST81
 6945 163d 23       		.uleb128 0x23
 6946 163e 00000000 		.4byte	.Ldebug_ranges0+0
 6947 1642 24       		.uleb128 0x24
 6948 1643 02050000 		.4byte	0x502
 6949 1647 E4100000 		.4byte	.LLST82
 6950 164b 24       		.uleb128 0x24
 6951 164c 0E050000 		.4byte	0x50e
 6952 1650 29110000 		.4byte	.LLST83
 6953 1654 24       		.uleb128 0x24
 6954 1655 1A050000 		.4byte	0x51a
ARM GAS  /tmp/ccJZ9K5Y.s 			page 123


 6955 1659 84110000 		.4byte	.LLST84
 6956 165d 00       		.byte	0
 6957 165e 00       		.byte	0
 6958 165f 25       		.uleb128 0x25
 6959 1660 4D050000 		.4byte	0x54d
 6960 1664 18000000 		.4byte	.LBB49
 6961 1668 34000000 		.4byte	.LBE49-.LBB49
 6962 166c 01       		.byte	0x1
 6963 166d 9A07     		.2byte	0x79a
 6964 166f AD160000 		.4byte	0x16ad
 6965 1673 26       		.uleb128 0x26
 6966 1674 7E050000 		.4byte	0x57e
 6967 1678 26       		.uleb128 0x26
 6968 1679 72050000 		.4byte	0x572
 6969 167d 26       		.uleb128 0x26
 6970 167e 66050000 		.4byte	0x566
 6971 1682 26       		.uleb128 0x26
 6972 1683 5A050000 		.4byte	0x55a
 6973 1687 27       		.uleb128 0x27
 6974 1688 18000000 		.4byte	.LBB50
 6975 168c 34000000 		.4byte	.LBE50-.LBB50
 6976 1690 24       		.uleb128 0x24
 6977 1691 8A050000 		.4byte	0x58a
 6978 1695 B3110000 		.4byte	.LLST85
 6979 1699 24       		.uleb128 0x24
 6980 169a 96050000 		.4byte	0x596
 6981 169e E7110000 		.4byte	.LLST86
 6982 16a2 24       		.uleb128 0x24
 6983 16a3 A2050000 		.4byte	0x5a2
 6984 16a7 2A120000 		.4byte	.LLST87
 6985 16ab 00       		.byte	0
 6986 16ac 00       		.byte	0
 6987 16ad 25       		.uleb128 0x25
 6988 16ae AF050000 		.4byte	0x5af
 6989 16b2 4C000000 		.4byte	.LBB51
 6990 16b6 16000000 		.4byte	.LBE51-.LBB51
 6991 16ba 01       		.byte	0x1
 6992 16bb 9E07     		.2byte	0x79e
 6993 16bd D4160000 		.4byte	0x16d4
 6994 16c1 22       		.uleb128 0x22
 6995 16c2 C8050000 		.4byte	0x5c8
 6996 16c6 41120000 		.4byte	.LLST88
 6997 16ca 22       		.uleb128 0x22
 6998 16cb BC050000 		.4byte	0x5bc
 6999 16cf 54120000 		.4byte	.LLST89
 7000 16d3 00       		.byte	0
 7001 16d4 21       		.uleb128 0x21
 7002 16d5 BB030000 		.4byte	0x3bb
 7003 16d9 62000000 		.4byte	.LBB53
 7004 16dd 18000000 		.4byte	.Ldebug_ranges0+0x18
 7005 16e1 01       		.byte	0x1
 7006 16e2 7C07     		.2byte	0x77c
 7007 16e4 25170000 		.4byte	0x1725
 7008 16e8 22       		.uleb128 0x22
 7009 16e9 EC030000 		.4byte	0x3ec
 7010 16ed 67120000 		.4byte	.LLST90
 7011 16f1 22       		.uleb128 0x22
ARM GAS  /tmp/ccJZ9K5Y.s 			page 124


 7012 16f2 E0030000 		.4byte	0x3e0
 7013 16f6 89120000 		.4byte	.LLST91
 7014 16fa 22       		.uleb128 0x22
 7015 16fb D4030000 		.4byte	0x3d4
 7016 16ff AB120000 		.4byte	.LLST92
 7017 1703 22       		.uleb128 0x22
 7018 1704 C8030000 		.4byte	0x3c8
 7019 1708 BE120000 		.4byte	.LLST93
 7020 170c 23       		.uleb128 0x23
 7021 170d 18000000 		.4byte	.Ldebug_ranges0+0x18
 7022 1711 24       		.uleb128 0x24
 7023 1712 F8030000 		.4byte	0x3f8
 7024 1716 D1120000 		.4byte	.LLST94
 7025 171a 24       		.uleb128 0x24
 7026 171b 04040000 		.4byte	0x404
 7027 171f 29130000 		.4byte	.LLST95
 7028 1723 00       		.byte	0
 7029 1724 00       		.byte	0
 7030 1725 25       		.uleb128 0x25
 7031 1726 17040000 		.4byte	0x417
 7032 172a 96000000 		.4byte	.LBB57
 7033 172e 12000000 		.4byte	.LBE57-.LBB57
 7034 1732 01       		.byte	0x1
 7035 1733 8007     		.2byte	0x780
 7036 1735 4C170000 		.4byte	0x174c
 7037 1739 22       		.uleb128 0x22
 7038 173a 30040000 		.4byte	0x430
 7039 173e 5A130000 		.4byte	.LLST96
 7040 1742 22       		.uleb128 0x22
 7041 1743 24040000 		.4byte	0x424
 7042 1747 6D130000 		.4byte	.LLST97
 7043 174b 00       		.byte	0
 7044 174c 21       		.uleb128 0x21
 7045 174d 3D040000 		.4byte	0x43d
 7046 1751 A8000000 		.4byte	.LBB59
 7047 1755 30000000 		.4byte	.Ldebug_ranges0+0x30
 7048 1759 01       		.byte	0x1
 7049 175a 8607     		.2byte	0x786
 7050 175c A6170000 		.4byte	0x17a6
 7051 1760 22       		.uleb128 0x22
 7052 1761 6E040000 		.4byte	0x46e
 7053 1765 80130000 		.4byte	.LLST98
 7054 1769 22       		.uleb128 0x22
 7055 176a 62040000 		.4byte	0x462
 7056 176e A2130000 		.4byte	.LLST99
 7057 1772 22       		.uleb128 0x22
 7058 1773 56040000 		.4byte	0x456
 7059 1777 C4130000 		.4byte	.LLST100
 7060 177b 22       		.uleb128 0x22
 7061 177c 4A040000 		.4byte	0x44a
 7062 1780 D7130000 		.4byte	.LLST101
 7063 1784 23       		.uleb128 0x23
 7064 1785 30000000 		.4byte	.Ldebug_ranges0+0x30
 7065 1789 24       		.uleb128 0x24
 7066 178a 7A040000 		.4byte	0x47a
 7067 178e EA130000 		.4byte	.LLST102
 7068 1792 24       		.uleb128 0x24
ARM GAS  /tmp/ccJZ9K5Y.s 			page 125


 7069 1793 86040000 		.4byte	0x486
 7070 1797 2A140000 		.4byte	.LLST103
 7071 179b 24       		.uleb128 0x24
 7072 179c 92040000 		.4byte	0x492
 7073 17a0 75140000 		.4byte	.LLST104
 7074 17a4 00       		.byte	0
 7075 17a5 00       		.byte	0
 7076 17a6 25       		.uleb128 0x25
 7077 17a7 9F040000 		.4byte	0x49f
 7078 17ab E6000000 		.4byte	.LBB63
 7079 17af 16000000 		.4byte	.LBE63-.LBB63
 7080 17b3 01       		.byte	0x1
 7081 17b4 8A07     		.2byte	0x78a
 7082 17b6 CD170000 		.4byte	0x17cd
 7083 17ba 22       		.uleb128 0x22
 7084 17bb B8040000 		.4byte	0x4b8
 7085 17bf 98140000 		.4byte	.LLST105
 7086 17c3 22       		.uleb128 0x22
 7087 17c4 AC040000 		.4byte	0x4ac
 7088 17c8 AB140000 		.4byte	.LLST106
 7089 17cc 00       		.byte	0
 7090 17cd 28       		.uleb128 0x28
 7091 17ce 27050000 		.4byte	0x527
 7092 17d2 2E010000 		.4byte	.LBB66
 7093 17d6 12000000 		.4byte	.LBE66-.LBB66
 7094 17da 01       		.byte	0x1
 7095 17db 9407     		.2byte	0x794
 7096 17dd 29       		.uleb128 0x29
 7097 17de 40050000 		.4byte	0x540
 7098 17e2 01       		.uleb128 0x1
 7099 17e3 55       		.byte	0x55
 7100 17e4 29       		.uleb128 0x29
 7101 17e5 34050000 		.4byte	0x534
 7102 17e9 01       		.uleb128 0x1
 7103 17ea 50       		.byte	0x50
 7104 17eb 00       		.byte	0
 7105 17ec 00       		.byte	0
 7106 17ed 12       		.uleb128 0x12
 7107 17ee 04       		.byte	0x4
 7108 17ef 48030000 		.4byte	0x348
 7109 17f3 1B       		.uleb128 0x1b
 7110 17f4 4E030000 		.4byte	.LASF161
 7111 17f8 01       		.byte	0x1
 7112 17f9 A807     		.2byte	0x7a8
 7113 17fb 00000000 		.4byte	.LFB163
 7114 17ff 10000000 		.4byte	.LFE163-.LFB163
 7115 1803 01       		.uleb128 0x1
 7116 1804 9C       		.byte	0x9c
 7117 1805 18180000 		.4byte	0x1818
 7118 1809 1C       		.uleb128 0x1c
 7119 180a 510D0000 		.4byte	.LASF160
 7120 180e 01       		.byte	0x1
 7121 180f A807     		.2byte	0x7a8
 7122 1811 ED170000 		.4byte	0x17ed
 7123 1815 01       		.uleb128 0x1
 7124 1816 50       		.byte	0x50
 7125 1817 00       		.byte	0
ARM GAS  /tmp/ccJZ9K5Y.s 			page 126


 7126 1818 1B       		.uleb128 0x1b
 7127 1819 E8050000 		.4byte	.LASF162
 7128 181d 01       		.byte	0x1
 7129 181e BB07     		.2byte	0x7bb
 7130 1820 00000000 		.4byte	.LFB164
 7131 1824 44010000 		.4byte	.LFE164-.LFB164
 7132 1828 01       		.uleb128 0x1
 7133 1829 9C       		.byte	0x9c
 7134 182a 551A0000 		.4byte	0x1a55
 7135 182e 1C       		.uleb128 0x1c
 7136 182f 7D050000 		.4byte	.LASF65
 7137 1833 01       		.byte	0x1
 7138 1834 BB07     		.2byte	0x7bb
 7139 1836 11040000 		.4byte	0x411
 7140 183a 01       		.uleb128 0x1
 7141 183b 50       		.byte	0x50
 7142 183c 1E       		.uleb128 0x1e
 7143 183d 510D0000 		.4byte	.LASF160
 7144 1841 01       		.byte	0x1
 7145 1842 BB07     		.2byte	0x7bb
 7146 1844 ED170000 		.4byte	0x17ed
 7147 1848 BE140000 		.4byte	.LLST107
 7148 184c 1D       		.uleb128 0x1d
 7149 184d 8F030000 		.4byte	.LASF163
 7150 1851 01       		.byte	0x1
 7151 1852 BD07     		.2byte	0x7bd
 7152 1854 A2000000 		.4byte	0xa2
 7153 1858 F8140000 		.4byte	.LLST108
 7154 185c 1D       		.uleb128 0x1d
 7155 185d 46070000 		.4byte	.LASF164
 7156 1861 01       		.byte	0x1
 7157 1862 BE07     		.2byte	0x7be
 7158 1864 A2000000 		.4byte	0xa2
 7159 1868 22150000 		.4byte	.LLST109
 7160 186c 21       		.uleb128 0x21
 7161 186d BB030000 		.4byte	0x3bb
 7162 1871 06000000 		.4byte	.LBB68
 7163 1875 48000000 		.4byte	.Ldebug_ranges0+0x48
 7164 1879 01       		.byte	0x1
 7165 187a D807     		.2byte	0x7d8
 7166 187c B7180000 		.4byte	0x18b7
 7167 1880 29       		.uleb128 0x29
 7168 1881 EC030000 		.4byte	0x3ec
 7169 1885 01       		.uleb128 0x1
 7170 1886 57       		.byte	0x57
 7171 1887 22       		.uleb128 0x22
 7172 1888 E0030000 		.4byte	0x3e0
 7173 188c 41150000 		.4byte	.LLST110
 7174 1890 29       		.uleb128 0x29
 7175 1891 D4030000 		.4byte	0x3d4
 7176 1895 01       		.uleb128 0x1
 7177 1896 5C       		.byte	0x5c
 7178 1897 29       		.uleb128 0x29
 7179 1898 C8030000 		.4byte	0x3c8
 7180 189c 01       		.uleb128 0x1
 7181 189d 50       		.byte	0x50
 7182 189e 23       		.uleb128 0x23
ARM GAS  /tmp/ccJZ9K5Y.s 			page 127


 7183 189f 48000000 		.4byte	.Ldebug_ranges0+0x48
 7184 18a3 24       		.uleb128 0x24
 7185 18a4 F8030000 		.4byte	0x3f8
 7186 18a8 54150000 		.4byte	.LLST111
 7187 18ac 24       		.uleb128 0x24
 7188 18ad 04040000 		.4byte	0x404
 7189 18b1 A2150000 		.4byte	.LLST112
 7190 18b5 00       		.byte	0
 7191 18b6 00       		.byte	0
 7192 18b7 21       		.uleb128 0x21
 7193 18b8 3D040000 		.4byte	0x43d
 7194 18bc 24000000 		.4byte	.LBB72
 7195 18c0 68000000 		.4byte	.Ldebug_ranges0+0x68
 7196 18c4 01       		.byte	0x1
 7197 18c5 E407     		.2byte	0x7e4
 7198 18c7 11190000 		.4byte	0x1911
 7199 18cb 22       		.uleb128 0x22
 7200 18cc 6E040000 		.4byte	0x46e
 7201 18d0 E9150000 		.4byte	.LLST113
 7202 18d4 22       		.uleb128 0x22
 7203 18d5 62040000 		.4byte	0x462
 7204 18d9 0B160000 		.4byte	.LLST114
 7205 18dd 22       		.uleb128 0x22
 7206 18de 56040000 		.4byte	0x456
 7207 18e2 2D160000 		.4byte	.LLST115
 7208 18e6 22       		.uleb128 0x22
 7209 18e7 4A040000 		.4byte	0x44a
 7210 18eb 40160000 		.4byte	.LLST116
 7211 18ef 23       		.uleb128 0x23
 7212 18f0 68000000 		.4byte	.Ldebug_ranges0+0x68
 7213 18f4 24       		.uleb128 0x24
 7214 18f5 7A040000 		.4byte	0x47a
 7215 18f9 53160000 		.4byte	.LLST117
 7216 18fd 24       		.uleb128 0x24
 7217 18fe 86040000 		.4byte	0x486
 7218 1902 C6160000 		.4byte	.LLST118
 7219 1906 24       		.uleb128 0x24
 7220 1907 92040000 		.4byte	0x492
 7221 190b 11170000 		.4byte	.LLST119
 7222 190f 00       		.byte	0
 7223 1910 00       		.byte	0
 7224 1911 25       		.uleb128 0x25
 7225 1912 9F040000 		.4byte	0x49f
 7226 1916 62000000 		.4byte	.LBB76
 7227 191a 14000000 		.4byte	.LBE76-.LBB76
 7228 191e 01       		.byte	0x1
 7229 191f E707     		.2byte	0x7e7
 7230 1921 38190000 		.4byte	0x1938
 7231 1925 22       		.uleb128 0x22
 7232 1926 B8040000 		.4byte	0x4b8
 7233 192a 34170000 		.4byte	.LLST120
 7234 192e 22       		.uleb128 0x22
 7235 192f AC040000 		.4byte	0x4ac
 7236 1933 56170000 		.4byte	.LLST121
 7237 1937 00       		.byte	0
 7238 1938 25       		.uleb128 0x25
 7239 1939 BB030000 		.4byte	0x3bb
ARM GAS  /tmp/ccJZ9K5Y.s 			page 128


 7240 193d 76000000 		.4byte	.LBB78
 7241 1941 2C000000 		.4byte	.LBE78-.LBB78
 7242 1945 01       		.byte	0x1
 7243 1946 E907     		.2byte	0x7e9
 7244 1948 8D190000 		.4byte	0x198d
 7245 194c 22       		.uleb128 0x22
 7246 194d EC030000 		.4byte	0x3ec
 7247 1951 69170000 		.4byte	.LLST122
 7248 1955 22       		.uleb128 0x22
 7249 1956 E0030000 		.4byte	0x3e0
 7250 195a 8B170000 		.4byte	.LLST123
 7251 195e 22       		.uleb128 0x22
 7252 195f D4030000 		.4byte	0x3d4
 7253 1963 9E170000 		.4byte	.LLST124
 7254 1967 22       		.uleb128 0x22
 7255 1968 C8030000 		.4byte	0x3c8
 7256 196c B1170000 		.4byte	.LLST125
 7257 1970 27       		.uleb128 0x27
 7258 1971 76000000 		.4byte	.LBB79
 7259 1975 2C000000 		.4byte	.LBE79-.LBB79
 7260 1979 24       		.uleb128 0x24
 7261 197a F8030000 		.4byte	0x3f8
 7262 197e C4170000 		.4byte	.LLST126
 7263 1982 24       		.uleb128 0x24
 7264 1983 04040000 		.4byte	0x404
 7265 1987 F3170000 		.4byte	.LLST127
 7266 198b 00       		.byte	0
 7267 198c 00       		.byte	0
 7268 198d 25       		.uleb128 0x25
 7269 198e 17040000 		.4byte	0x417
 7270 1992 A2000000 		.4byte	.LBB80
 7271 1996 14000000 		.4byte	.LBE80-.LBB80
 7272 199a 01       		.byte	0x1
 7273 199b EB07     		.2byte	0x7eb
 7274 199d B4190000 		.4byte	0x19b4
 7275 19a1 22       		.uleb128 0x22
 7276 19a2 30040000 		.4byte	0x430
 7277 19a6 22180000 		.4byte	.LLST128
 7278 19aa 22       		.uleb128 0x22
 7279 19ab 24040000 		.4byte	0x424
 7280 19af 44180000 		.4byte	.LLST129
 7281 19b3 00       		.byte	0
 7282 19b4 25       		.uleb128 0x25
 7283 19b5 17040000 		.4byte	0x417
 7284 19b9 EC000000 		.4byte	.LBB84
 7285 19bd 10000000 		.4byte	.LBE84-.LBB84
 7286 19c1 01       		.byte	0x1
 7287 19c2 DB07     		.2byte	0x7db
 7288 19c4 D9190000 		.4byte	0x19d9
 7289 19c8 22       		.uleb128 0x22
 7290 19c9 30040000 		.4byte	0x430
 7291 19cd 57180000 		.4byte	.LLST130
 7292 19d1 29       		.uleb128 0x29
 7293 19d2 24040000 		.4byte	0x424
 7294 19d6 01       		.uleb128 0x1
 7295 19d7 50       		.byte	0x50
 7296 19d8 00       		.byte	0
ARM GAS  /tmp/ccJZ9K5Y.s 			page 129


 7297 19d9 25       		.uleb128 0x25
 7298 19da 3D040000 		.4byte	0x43d
 7299 19de FC000000 		.4byte	.LBB86
 7300 19e2 30000000 		.4byte	.LBE86-.LBB86
 7301 19e6 01       		.byte	0x1
 7302 19e7 DD07     		.2byte	0x7dd
 7303 19e9 331A0000 		.4byte	0x1a33
 7304 19ed 29       		.uleb128 0x29
 7305 19ee 6E040000 		.4byte	0x46e
 7306 19f2 01       		.uleb128 0x1
 7307 19f3 57       		.byte	0x57
 7308 19f4 22       		.uleb128 0x22
 7309 19f5 62040000 		.4byte	0x462
 7310 19f9 79180000 		.4byte	.LLST131
 7311 19fd 22       		.uleb128 0x22
 7312 19fe 56040000 		.4byte	0x456
 7313 1a02 8C180000 		.4byte	.LLST132
 7314 1a06 29       		.uleb128 0x29
 7315 1a07 4A040000 		.4byte	0x44a
 7316 1a0b 01       		.uleb128 0x1
 7317 1a0c 50       		.byte	0x50
 7318 1a0d 27       		.uleb128 0x27
 7319 1a0e FC000000 		.4byte	.LBB87
 7320 1a12 30000000 		.4byte	.LBE87-.LBB87
 7321 1a16 24       		.uleb128 0x24
 7322 1a17 7A040000 		.4byte	0x47a
 7323 1a1b 9F180000 		.4byte	.LLST133
 7324 1a1f 24       		.uleb128 0x24
 7325 1a20 86040000 		.4byte	0x486
 7326 1a24 EC180000 		.4byte	.LLST134
 7327 1a28 24       		.uleb128 0x24
 7328 1a29 92040000 		.4byte	0x492
 7329 1a2d 1D190000 		.4byte	.LLST135
 7330 1a31 00       		.byte	0
 7331 1a32 00       		.byte	0
 7332 1a33 28       		.uleb128 0x28
 7333 1a34 9F040000 		.4byte	0x49f
 7334 1a38 2C010000 		.4byte	.LBB88
 7335 1a3c 18000000 		.4byte	.LBE88-.LBB88
 7336 1a40 01       		.byte	0x1
 7337 1a41 DF07     		.2byte	0x7df
 7338 1a43 22       		.uleb128 0x22
 7339 1a44 B8040000 		.4byte	0x4b8
 7340 1a48 40190000 		.4byte	.LLST136
 7341 1a4c 29       		.uleb128 0x29
 7342 1a4d AC040000 		.4byte	0x4ac
 7343 1a51 01       		.uleb128 0x1
 7344 1a52 50       		.byte	0x50
 7345 1a53 00       		.byte	0
 7346 1a54 00       		.byte	0
 7347 1a55 1F       		.uleb128 0x1f
 7348 1a56 E1040000 		.4byte	.LASF165
 7349 1a5a 01       		.byte	0x1
 7350 1a5b F407     		.2byte	0x7f4
 7351 1a5d B8000000 		.4byte	0xb8
 7352 1a61 00000000 		.4byte	.LFB165
 7353 1a65 04000000 		.4byte	.LFE165-.LFB165
ARM GAS  /tmp/ccJZ9K5Y.s 			page 130


 7354 1a69 01       		.uleb128 0x1
 7355 1a6a 9C       		.byte	0x9c
 7356 1a6b 801A0000 		.4byte	0x1a80
 7357 1a6f 1E       		.uleb128 0x1e
 7358 1a70 7D050000 		.4byte	.LASF65
 7359 1a74 01       		.byte	0x1
 7360 1a75 F407     		.2byte	0x7f4
 7361 1a77 11040000 		.4byte	0x411
 7362 1a7b 62190000 		.4byte	.LLST137
 7363 1a7f 00       		.byte	0
 7364 1a80 1F       		.uleb128 0x1f
 7365 1a81 5F030000 		.4byte	.LASF166
 7366 1a85 01       		.byte	0x1
 7367 1a86 0308     		.2byte	0x803
 7368 1a88 B8000000 		.4byte	0xb8
 7369 1a8c 00000000 		.4byte	.LFB166
 7370 1a90 04000000 		.4byte	.LFE166-.LFB166
 7371 1a94 01       		.uleb128 0x1
 7372 1a95 9C       		.byte	0x9c
 7373 1a96 AB1A0000 		.4byte	0x1aab
 7374 1a9a 1E       		.uleb128 0x1e
 7375 1a9b 7D050000 		.4byte	.LASF65
 7376 1a9f 01       		.byte	0x1
 7377 1aa0 0308     		.2byte	0x803
 7378 1aa2 11040000 		.4byte	0x411
 7379 1aa6 83190000 		.4byte	.LLST138
 7380 1aaa 00       		.byte	0
 7381 1aab 1F       		.uleb128 0x1f
 7382 1aac 6F030000 		.4byte	.LASF167
 7383 1ab0 01       		.byte	0x1
 7384 1ab1 1108     		.2byte	0x811
 7385 1ab3 B8000000 		.4byte	0xb8
 7386 1ab7 00000000 		.4byte	.LFB167
 7387 1abb 04000000 		.4byte	.LFE167-.LFB167
 7388 1abf 01       		.uleb128 0x1
 7389 1ac0 9C       		.byte	0x9c
 7390 1ac1 D61A0000 		.4byte	0x1ad6
 7391 1ac5 1E       		.uleb128 0x1e
 7392 1ac6 7D050000 		.4byte	.LASF65
 7393 1aca 01       		.byte	0x1
 7394 1acb 1108     		.2byte	0x811
 7395 1acd 11040000 		.4byte	0x411
 7396 1ad1 A4190000 		.4byte	.LLST139
 7397 1ad5 00       		.byte	0
 7398 1ad6 1F       		.uleb128 0x1f
 7399 1ad7 7F030000 		.4byte	.LASF168
 7400 1adb 01       		.byte	0x1
 7401 1adc 1F08     		.2byte	0x81f
 7402 1ade B8000000 		.4byte	0xb8
 7403 1ae2 00000000 		.4byte	.LFB168
 7404 1ae6 04000000 		.4byte	.LFE168-.LFB168
 7405 1aea 01       		.uleb128 0x1
 7406 1aeb 9C       		.byte	0x9c
 7407 1aec 011B0000 		.4byte	0x1b01
 7408 1af0 1E       		.uleb128 0x1e
 7409 1af1 7D050000 		.4byte	.LASF65
 7410 1af5 01       		.byte	0x1
ARM GAS  /tmp/ccJZ9K5Y.s 			page 131


 7411 1af6 1F08     		.2byte	0x81f
 7412 1af8 11040000 		.4byte	0x411
 7413 1afc C5190000 		.4byte	.LLST140
 7414 1b00 00       		.byte	0
 7415 1b01 2A       		.uleb128 0x2a
 7416 1b02 17040000 		.4byte	0x417
 7417 1b06 00000000 		.4byte	.LFB169
 7418 1b0a 12000000 		.4byte	.LFE169-.LFB169
 7419 1b0e 01       		.uleb128 0x1
 7420 1b0f 9C       		.byte	0x9c
 7421 1b10 251B0000 		.4byte	0x1b25
 7422 1b14 29       		.uleb128 0x29
 7423 1b15 24040000 		.4byte	0x424
 7424 1b19 01       		.uleb128 0x1
 7425 1b1a 50       		.byte	0x50
 7426 1b1b 22       		.uleb128 0x22
 7427 1b1c 30040000 		.4byte	0x430
 7428 1b20 E6190000 		.4byte	.LLST141
 7429 1b24 00       		.byte	0
 7430 1b25 2A       		.uleb128 0x2a
 7431 1b26 9F040000 		.4byte	0x49f
 7432 1b2a 00000000 		.4byte	.LFB170
 7433 1b2e 16000000 		.4byte	.LFE170-.LFB170
 7434 1b32 01       		.uleb128 0x1
 7435 1b33 9C       		.byte	0x9c
 7436 1b34 491B0000 		.4byte	0x1b49
 7437 1b38 29       		.uleb128 0x29
 7438 1b39 AC040000 		.4byte	0x4ac
 7439 1b3d 01       		.uleb128 0x1
 7440 1b3e 50       		.byte	0x50
 7441 1b3f 22       		.uleb128 0x22
 7442 1b40 B8040000 		.4byte	0x4b8
 7443 1b44 071A0000 		.4byte	.LLST142
 7444 1b48 00       		.byte	0
 7445 1b49 2A       		.uleb128 0x2a
 7446 1b4a 27050000 		.4byte	0x527
 7447 1b4e 00000000 		.4byte	.LFB171
 7448 1b52 12000000 		.4byte	.LFE171-.LFB171
 7449 1b56 01       		.uleb128 0x1
 7450 1b57 9C       		.byte	0x9c
 7451 1b58 6D1B0000 		.4byte	0x1b6d
 7452 1b5c 29       		.uleb128 0x29
 7453 1b5d 34050000 		.4byte	0x534
 7454 1b61 01       		.uleb128 0x1
 7455 1b62 50       		.byte	0x50
 7456 1b63 22       		.uleb128 0x22
 7457 1b64 40050000 		.4byte	0x540
 7458 1b68 281A0000 		.4byte	.LLST143
 7459 1b6c 00       		.byte	0
 7460 1b6d 2A       		.uleb128 0x2a
 7461 1b6e AF050000 		.4byte	0x5af
 7462 1b72 00000000 		.4byte	.LFB172
 7463 1b76 16000000 		.4byte	.LFE172-.LFB172
 7464 1b7a 01       		.uleb128 0x1
 7465 1b7b 9C       		.byte	0x9c
 7466 1b7c 911B0000 		.4byte	0x1b91
 7467 1b80 29       		.uleb128 0x29
ARM GAS  /tmp/ccJZ9K5Y.s 			page 132


 7468 1b81 BC050000 		.4byte	0x5bc
 7469 1b85 01       		.uleb128 0x1
 7470 1b86 50       		.byte	0x50
 7471 1b87 22       		.uleb128 0x22
 7472 1b88 C8050000 		.4byte	0x5c8
 7473 1b8c 491A0000 		.4byte	.LLST144
 7474 1b90 00       		.byte	0
 7475 1b91 1B       		.uleb128 0x1b
 7476 1b92 B4080000 		.4byte	.LASF169
 7477 1b96 01       		.byte	0x1
 7478 1b97 B108     		.2byte	0x8b1
 7479 1b99 00000000 		.4byte	.LFB173
 7480 1b9d 26000000 		.4byte	.LFE173-.LFB173
 7481 1ba1 01       		.uleb128 0x1
 7482 1ba2 9C       		.byte	0x9c
 7483 1ba3 C41B0000 		.4byte	0x1bc4
 7484 1ba7 1C       		.uleb128 0x1c
 7485 1ba8 7D050000 		.4byte	.LASF65
 7486 1bac 01       		.byte	0x1
 7487 1bad B108     		.2byte	0x8b1
 7488 1baf 11040000 		.4byte	0x411
 7489 1bb3 01       		.uleb128 0x1
 7490 1bb4 50       		.byte	0x50
 7491 1bb5 1C       		.uleb128 0x1c
 7492 1bb6 9D090000 		.4byte	.LASF170
 7493 1bba 01       		.byte	0x1
 7494 1bbb B108     		.2byte	0x8b1
 7495 1bbd C41B0000 		.4byte	0x1bc4
 7496 1bc1 01       		.uleb128 0x1
 7497 1bc2 51       		.byte	0x51
 7498 1bc3 00       		.byte	0
 7499 1bc4 12       		.uleb128 0x12
 7500 1bc5 04       		.byte	0x4
 7501 1bc6 B0030000 		.4byte	0x3b0
 7502 1bca 1B       		.uleb128 0x1b
 7503 1bcb 54060000 		.4byte	.LASF171
 7504 1bcf 01       		.byte	0x1
 7505 1bd0 CA08     		.2byte	0x8ca
 7506 1bd2 00000000 		.4byte	.LFB174
 7507 1bd6 12000000 		.4byte	.LFE174-.LFB174
 7508 1bda 01       		.uleb128 0x1
 7509 1bdb 9C       		.byte	0x9c
 7510 1bdc EF1B0000 		.4byte	0x1bef
 7511 1be0 1C       		.uleb128 0x1c
 7512 1be1 9D090000 		.4byte	.LASF170
 7513 1be5 01       		.byte	0x1
 7514 1be6 CA08     		.2byte	0x8ca
 7515 1be8 C41B0000 		.4byte	0x1bc4
 7516 1bec 01       		.uleb128 0x1
 7517 1bed 50       		.byte	0x50
 7518 1bee 00       		.byte	0
 7519 1bef 1B       		.uleb128 0x1b
 7520 1bf0 A1080000 		.4byte	.LASF172
 7521 1bf4 01       		.byte	0x1
 7522 1bf5 DD08     		.2byte	0x8dd
 7523 1bf7 00000000 		.4byte	.LFB175
 7524 1bfb 14000000 		.4byte	.LFE175-.LFB175
ARM GAS  /tmp/ccJZ9K5Y.s 			page 133


 7525 1bff 01       		.uleb128 0x1
 7526 1c00 9C       		.byte	0x9c
 7527 1c01 221C0000 		.4byte	0x1c22
 7528 1c05 1C       		.uleb128 0x1c
 7529 1c06 7D050000 		.4byte	.LASF65
 7530 1c0a 01       		.byte	0x1
 7531 1c0b DD08     		.2byte	0x8dd
 7532 1c0d 11040000 		.4byte	0x411
 7533 1c11 01       		.uleb128 0x1
 7534 1c12 50       		.byte	0x50
 7535 1c13 1C       		.uleb128 0x1c
 7536 1c14 0B000000 		.4byte	.LASF101
 7537 1c18 01       		.byte	0x1
 7538 1c19 DD08     		.2byte	0x8dd
 7539 1c1b 34020000 		.4byte	0x234
 7540 1c1f 01       		.uleb128 0x1
 7541 1c20 51       		.byte	0x51
 7542 1c21 00       		.byte	0
 7543 1c22 1B       		.uleb128 0x1b
 7544 1c23 44040000 		.4byte	.LASF173
 7545 1c27 01       		.byte	0x1
 7546 1c28 F608     		.2byte	0x8f6
 7547 1c2a 00000000 		.4byte	.LFB176
 7548 1c2e 18000000 		.4byte	.LFE176-.LFB176
 7549 1c32 01       		.uleb128 0x1
 7550 1c33 9C       		.byte	0x9c
 7551 1c34 551C0000 		.4byte	0x1c55
 7552 1c38 1C       		.uleb128 0x1c
 7553 1c39 7D050000 		.4byte	.LASF65
 7554 1c3d 01       		.byte	0x1
 7555 1c3e F608     		.2byte	0x8f6
 7556 1c40 11040000 		.4byte	0x411
 7557 1c44 01       		.uleb128 0x1
 7558 1c45 50       		.byte	0x50
 7559 1c46 1C       		.uleb128 0x1c
 7560 1c47 0B000000 		.4byte	.LASF101
 7561 1c4b 01       		.byte	0x1
 7562 1c4c F608     		.2byte	0x8f6
 7563 1c4e 34020000 		.4byte	0x234
 7564 1c52 01       		.uleb128 0x1
 7565 1c53 51       		.byte	0x51
 7566 1c54 00       		.byte	0
 7567 1c55 1B       		.uleb128 0x1b
 7568 1c56 7D0C0000 		.4byte	.LASF174
 7569 1c5a 01       		.byte	0x1
 7570 1c5b 0F09     		.2byte	0x90f
 7571 1c5d 00000000 		.4byte	.LFB177
 7572 1c61 18000000 		.4byte	.LFE177-.LFB177
 7573 1c65 01       		.uleb128 0x1
 7574 1c66 9C       		.byte	0x9c
 7575 1c67 881C0000 		.4byte	0x1c88
 7576 1c6b 1C       		.uleb128 0x1c
 7577 1c6c 7D050000 		.4byte	.LASF65
 7578 1c70 01       		.byte	0x1
 7579 1c71 0F09     		.2byte	0x90f
 7580 1c73 11040000 		.4byte	0x411
 7581 1c77 01       		.uleb128 0x1
ARM GAS  /tmp/ccJZ9K5Y.s 			page 134


 7582 1c78 50       		.byte	0x50
 7583 1c79 1C       		.uleb128 0x1c
 7584 1c7a 0B000000 		.4byte	.LASF101
 7585 1c7e 01       		.byte	0x1
 7586 1c7f 0F09     		.2byte	0x90f
 7587 1c81 34020000 		.4byte	0x234
 7588 1c85 01       		.uleb128 0x1
 7589 1c86 51       		.byte	0x51
 7590 1c87 00       		.byte	0
 7591 1c88 1B       		.uleb128 0x1b
 7592 1c89 920D0000 		.4byte	.LASF175
 7593 1c8d 01       		.byte	0x1
 7594 1c8e 4809     		.2byte	0x948
 7595 1c90 00000000 		.4byte	.LFB178
 7596 1c94 16000000 		.4byte	.LFE178-.LFB178
 7597 1c98 01       		.uleb128 0x1
 7598 1c99 9C       		.byte	0x9c
 7599 1c9a CB1C0000 		.4byte	0x1ccb
 7600 1c9e 1C       		.uleb128 0x1c
 7601 1c9f 7D050000 		.4byte	.LASF65
 7602 1ca3 01       		.byte	0x1
 7603 1ca4 4809     		.2byte	0x948
 7604 1ca6 11040000 		.4byte	0x411
 7605 1caa 01       		.uleb128 0x1
 7606 1cab 50       		.byte	0x50
 7607 1cac 1E       		.uleb128 0x1e
 7608 1cad E7020000 		.4byte	.LASF176
 7609 1cb1 01       		.byte	0x1
 7610 1cb2 4809     		.2byte	0x948
 7611 1cb4 A2000000 		.4byte	0xa2
 7612 1cb8 6A1A0000 		.4byte	.LLST145
 7613 1cbc 1C       		.uleb128 0x1c
 7614 1cbd 0B000000 		.4byte	.LASF101
 7615 1cc1 01       		.byte	0x1
 7616 1cc2 4809     		.2byte	0x948
 7617 1cc4 34020000 		.4byte	0x234
 7618 1cc8 01       		.uleb128 0x1
 7619 1cc9 52       		.byte	0x52
 7620 1cca 00       		.byte	0
 7621 1ccb 1B       		.uleb128 0x1b
 7622 1ccc 36020000 		.4byte	.LASF177
 7623 1cd0 01       		.byte	0x1
 7624 1cd1 6E09     		.2byte	0x96e
 7625 1cd3 00000000 		.4byte	.LFB179
 7626 1cd7 04000000 		.4byte	.LFE179-.LFB179
 7627 1cdb 01       		.uleb128 0x1
 7628 1cdc 9C       		.byte	0x9c
 7629 1cdd FE1C0000 		.4byte	0x1cfe
 7630 1ce1 1C       		.uleb128 0x1c
 7631 1ce2 7D050000 		.4byte	.LASF65
 7632 1ce6 01       		.byte	0x1
 7633 1ce7 6E09     		.2byte	0x96e
 7634 1ce9 11040000 		.4byte	0x411
 7635 1ced 01       		.uleb128 0x1
 7636 1cee 50       		.byte	0x50
 7637 1cef 1C       		.uleb128 0x1c
 7638 1cf0 F0070000 		.4byte	.LASF178
ARM GAS  /tmp/ccJZ9K5Y.s 			page 135


 7639 1cf4 01       		.byte	0x1
 7640 1cf5 6E09     		.2byte	0x96e
 7641 1cf7 A2000000 		.4byte	0xa2
 7642 1cfb 01       		.uleb128 0x1
 7643 1cfc 51       		.byte	0x51
 7644 1cfd 00       		.byte	0
 7645 1cfe 1F       		.uleb128 0x1f
 7646 1cff 33050000 		.4byte	.LASF179
 7647 1d03 01       		.byte	0x1
 7648 1d04 8F09     		.2byte	0x98f
 7649 1d06 09020000 		.4byte	0x209
 7650 1d0a 00000000 		.4byte	.LFB180
 7651 1d0e 0C000000 		.4byte	.LFE180-.LFB180
 7652 1d12 01       		.uleb128 0x1
 7653 1d13 9C       		.byte	0x9c
 7654 1d14 471D0000 		.4byte	0x1d47
 7655 1d18 1E       		.uleb128 0x1e
 7656 1d19 7D050000 		.4byte	.LASF65
 7657 1d1d 01       		.byte	0x1
 7658 1d1e 8F09     		.2byte	0x98f
 7659 1d20 11040000 		.4byte	0x411
 7660 1d24 A41A0000 		.4byte	.LLST146
 7661 1d28 1C       		.uleb128 0x1c
 7662 1d29 DA000000 		.4byte	.LASF180
 7663 1d2d 01       		.byte	0x1
 7664 1d2e 8F09     		.2byte	0x98f
 7665 1d30 A2000000 		.4byte	0xa2
 7666 1d34 01       		.uleb128 0x1
 7667 1d35 51       		.byte	0x51
 7668 1d36 1D       		.uleb128 0x1d
 7669 1d37 620D0000 		.4byte	.LASF181
 7670 1d3b 01       		.byte	0x1
 7671 1d3c 9109     		.2byte	0x991
 7672 1d3e 14020000 		.4byte	0x214
 7673 1d42 C51A0000 		.4byte	.LLST147
 7674 1d46 00       		.byte	0
 7675 1d47 1B       		.uleb128 0x1b
 7676 1d48 16040000 		.4byte	.LASF182
 7677 1d4c 01       		.byte	0x1
 7678 1d4d B909     		.2byte	0x9b9
 7679 1d4f 00000000 		.4byte	.LFB181
 7680 1d53 08000000 		.4byte	.LFE181-.LFB181
 7681 1d57 01       		.uleb128 0x1
 7682 1d58 9C       		.byte	0x9c
 7683 1d59 7C1D0000 		.4byte	0x1d7c
 7684 1d5d 1C       		.uleb128 0x1c
 7685 1d5e 7D050000 		.4byte	.LASF65
 7686 1d62 01       		.byte	0x1
 7687 1d63 B909     		.2byte	0x9b9
 7688 1d65 11040000 		.4byte	0x411
 7689 1d69 01       		.uleb128 0x1
 7690 1d6a 50       		.byte	0x50
 7691 1d6b 1E       		.uleb128 0x1e
 7692 1d6c DA000000 		.4byte	.LASF180
 7693 1d70 01       		.byte	0x1
 7694 1d71 B909     		.2byte	0x9b9
 7695 1d73 A2000000 		.4byte	0xa2
ARM GAS  /tmp/ccJZ9K5Y.s 			page 136


 7696 1d77 EF1A0000 		.4byte	.LLST148
 7697 1d7b 00       		.byte	0
 7698 1d7c 1F       		.uleb128 0x1f
 7699 1d7d 74070000 		.4byte	.LASF183
 7700 1d81 01       		.byte	0x1
 7701 1d82 D509     		.2byte	0x9d5
 7702 1d84 14020000 		.4byte	0x214
 7703 1d88 00000000 		.4byte	.LFB182
 7704 1d8c 14000000 		.4byte	.LFE182-.LFB182
 7705 1d90 01       		.uleb128 0x1
 7706 1d91 9C       		.byte	0x9c
 7707 1d92 E51D0000 		.4byte	0x1de5
 7708 1d96 1E       		.uleb128 0x1e
 7709 1d97 7D050000 		.4byte	.LASF65
 7710 1d9b 01       		.byte	0x1
 7711 1d9c D509     		.2byte	0x9d5
 7712 1d9e 11040000 		.4byte	0x411
 7713 1da2 101B0000 		.4byte	.LLST149
 7714 1da6 1C       		.uleb128 0x1c
 7715 1da7 E7020000 		.4byte	.LASF176
 7716 1dab 01       		.byte	0x1
 7717 1dac D509     		.2byte	0x9d5
 7718 1dae A2000000 		.4byte	0xa2
 7719 1db2 01       		.uleb128 0x1
 7720 1db3 51       		.byte	0x51
 7721 1db4 1D       		.uleb128 0x1d
 7722 1db5 620D0000 		.4byte	.LASF181
 7723 1db9 01       		.byte	0x1
 7724 1dba D709     		.2byte	0x9d7
 7725 1dbc 14020000 		.4byte	0x214
 7726 1dc0 311B0000 		.4byte	.LLST150
 7727 1dc4 1D       		.uleb128 0x1d
 7728 1dc5 31070000 		.4byte	.LASF184
 7729 1dc9 01       		.byte	0x1
 7730 1dca D809     		.2byte	0x9d8
 7731 1dcc A2000000 		.4byte	0xa2
 7732 1dd0 501B0000 		.4byte	.LLST151
 7733 1dd4 1D       		.uleb128 0x1d
 7734 1dd5 E30C0000 		.4byte	.LASF185
 7735 1dd9 01       		.byte	0x1
 7736 1dda D809     		.2byte	0x9d8
 7737 1ddc A2000000 		.4byte	0xa2
 7738 1de0 741B0000 		.4byte	.LLST152
 7739 1de4 00       		.byte	0
 7740 1de5 1B       		.uleb128 0x1b
 7741 1de6 790B0000 		.4byte	.LASF186
 7742 1dea 01       		.byte	0x1
 7743 1deb FE09     		.2byte	0x9fe
 7744 1ded 00000000 		.4byte	.LFB183
 7745 1df1 08000000 		.4byte	.LFE183-.LFB183
 7746 1df5 01       		.uleb128 0x1
 7747 1df6 9C       		.byte	0x9c
 7748 1df7 1A1E0000 		.4byte	0x1e1a
 7749 1dfb 1C       		.uleb128 0x1c
 7750 1dfc 7D050000 		.4byte	.LASF65
 7751 1e00 01       		.byte	0x1
 7752 1e01 FE09     		.2byte	0x9fe
ARM GAS  /tmp/ccJZ9K5Y.s 			page 137


 7753 1e03 11040000 		.4byte	0x411
 7754 1e07 01       		.uleb128 0x1
 7755 1e08 50       		.byte	0x50
 7756 1e09 1E       		.uleb128 0x1e
 7757 1e0a E7020000 		.4byte	.LASF176
 7758 1e0e 01       		.byte	0x1
 7759 1e0f FE09     		.2byte	0x9fe
 7760 1e11 A2000000 		.4byte	0xa2
 7761 1e15 981B0000 		.4byte	.LLST153
 7762 1e19 00       		.byte	0
 7763 1e1a 1B       		.uleb128 0x1b
 7764 1e1b 9D020000 		.4byte	.LASF187
 7765 1e1f 01       		.byte	0x1
 7766 1e20 230A     		.2byte	0xa23
 7767 1e22 00000000 		.4byte	.LFB184
 7768 1e26 06000000 		.4byte	.LFE184-.LFB184
 7769 1e2a 01       		.uleb128 0x1
 7770 1e2b 9C       		.byte	0x9c
 7771 1e2c 5D1E0000 		.4byte	0x1e5d
 7772 1e30 1C       		.uleb128 0x1c
 7773 1e31 7D050000 		.4byte	.LASF65
 7774 1e35 01       		.byte	0x1
 7775 1e36 230A     		.2byte	0xa23
 7776 1e38 11040000 		.4byte	0x411
 7777 1e3c 01       		.uleb128 0x1
 7778 1e3d 50       		.byte	0x50
 7779 1e3e 1C       		.uleb128 0x1c
 7780 1e3f 3A070000 		.4byte	.LASF188
 7781 1e43 01       		.byte	0x1
 7782 1e44 230A     		.2byte	0xa23
 7783 1e46 A2000000 		.4byte	0xa2
 7784 1e4a 01       		.uleb128 0x1
 7785 1e4b 51       		.byte	0x51
 7786 1e4c 1E       		.uleb128 0x1e
 7787 1e4d 03040000 		.4byte	.LASF189
 7788 1e51 01       		.byte	0x1
 7789 1e52 230A     		.2byte	0xa23
 7790 1e54 A2000000 		.4byte	0xa2
 7791 1e58 B91B0000 		.4byte	.LLST154
 7792 1e5c 00       		.byte	0
 7793 1e5d 1B       		.uleb128 0x1b
 7794 1e5e 3F000000 		.4byte	.LASF190
 7795 1e62 01       		.byte	0x1
 7796 1e63 3E0A     		.2byte	0xa3e
 7797 1e65 00000000 		.4byte	.LFB185
 7798 1e69 16000000 		.4byte	.LFE185-.LFB185
 7799 1e6d 01       		.uleb128 0x1
 7800 1e6e 9C       		.byte	0x9c
 7801 1e6f A01E0000 		.4byte	0x1ea0
 7802 1e73 1C       		.uleb128 0x1c
 7803 1e74 7D050000 		.4byte	.LASF65
 7804 1e78 01       		.byte	0x1
 7805 1e79 3E0A     		.2byte	0xa3e
 7806 1e7b 11040000 		.4byte	0x411
 7807 1e7f 01       		.uleb128 0x1
 7808 1e80 50       		.byte	0x50
 7809 1e81 1E       		.uleb128 0x1e
ARM GAS  /tmp/ccJZ9K5Y.s 			page 138


 7810 1e82 02060000 		.4byte	.LASF191
 7811 1e86 01       		.byte	0x1
 7812 1e87 3E0A     		.2byte	0xa3e
 7813 1e89 A2000000 		.4byte	0xa2
 7814 1e8d DA1B0000 		.4byte	.LLST155
 7815 1e91 1C       		.uleb128 0x1c
 7816 1e92 0B000000 		.4byte	.LASF101
 7817 1e96 01       		.byte	0x1
 7818 1e97 3E0A     		.2byte	0xa3e
 7819 1e99 34020000 		.4byte	0x234
 7820 1e9d 01       		.uleb128 0x1
 7821 1e9e 52       		.byte	0x52
 7822 1e9f 00       		.byte	0
 7823 1ea0 1B       		.uleb128 0x1b
 7824 1ea1 BC030000 		.4byte	.LASF192
 7825 1ea5 01       		.byte	0x1
 7826 1ea6 580A     		.2byte	0xa58
 7827 1ea8 00000000 		.4byte	.LFB186
 7828 1eac 18000000 		.4byte	.LFE186-.LFB186
 7829 1eb0 01       		.uleb128 0x1
 7830 1eb1 9C       		.byte	0x9c
 7831 1eb2 D31E0000 		.4byte	0x1ed3
 7832 1eb6 1C       		.uleb128 0x1c
 7833 1eb7 7D050000 		.4byte	.LASF65
 7834 1ebb 01       		.byte	0x1
 7835 1ebc 580A     		.2byte	0xa58
 7836 1ebe 11040000 		.4byte	0x411
 7837 1ec2 01       		.uleb128 0x1
 7838 1ec3 50       		.byte	0x50
 7839 1ec4 1C       		.uleb128 0x1c
 7840 1ec5 0B000000 		.4byte	.LASF101
 7841 1ec9 01       		.byte	0x1
 7842 1eca 580A     		.2byte	0xa58
 7843 1ecc 34020000 		.4byte	0x234
 7844 1ed0 01       		.uleb128 0x1
 7845 1ed1 51       		.byte	0x51
 7846 1ed2 00       		.byte	0
 7847 1ed3 1B       		.uleb128 0x1b
 7848 1ed4 A1010000 		.4byte	.LASF193
 7849 1ed8 01       		.byte	0x1
 7850 1ed9 7F0A     		.2byte	0xa7f
 7851 1edb 00000000 		.4byte	.LFB187
 7852 1edf 0C000000 		.4byte	.LFE187-.LFB187
 7853 1ee3 01       		.uleb128 0x1
 7854 1ee4 9C       		.byte	0x9c
 7855 1ee5 F81E0000 		.4byte	0x1ef8
 7856 1ee9 1C       		.uleb128 0x1c
 7857 1eea 7D050000 		.4byte	.LASF65
 7858 1eee 01       		.byte	0x1
 7859 1eef 7F0A     		.2byte	0xa7f
 7860 1ef1 11040000 		.4byte	0x411
 7861 1ef5 01       		.uleb128 0x1
 7862 1ef6 50       		.byte	0x50
 7863 1ef7 00       		.byte	0
 7864 1ef8 1B       		.uleb128 0x1b
 7865 1ef9 FA080000 		.4byte	.LASF194
 7866 1efd 01       		.byte	0x1
ARM GAS  /tmp/ccJZ9K5Y.s 			page 139


 7867 1efe 940A     		.2byte	0xa94
 7868 1f00 00000000 		.4byte	.LFB188
 7869 1f04 16000000 		.4byte	.LFE188-.LFB188
 7870 1f08 01       		.uleb128 0x1
 7871 1f09 9C       		.byte	0x9c
 7872 1f0a 611F0000 		.4byte	0x1f61
 7873 1f0e 1C       		.uleb128 0x1c
 7874 1f0f 7D050000 		.4byte	.LASF65
 7875 1f13 01       		.byte	0x1
 7876 1f14 940A     		.2byte	0xa94
 7877 1f16 11040000 		.4byte	0x411
 7878 1f1a 01       		.uleb128 0x1
 7879 1f1b 50       		.byte	0x50
 7880 1f1c 1E       		.uleb128 0x1e
 7881 1f1d 60000000 		.4byte	.LASF79
 7882 1f21 01       		.byte	0x1
 7883 1f22 940A     		.2byte	0xa94
 7884 1f24 A2000000 		.4byte	0xa2
 7885 1f28 141C0000 		.4byte	.LLST156
 7886 1f2c 28       		.uleb128 0x28
 7887 1f2d D5050000 		.4byte	0x5d5
 7888 1f31 00000000 		.4byte	.LBB90
 7889 1f35 0C000000 		.4byte	.LBE90-.LBB90
 7890 1f39 01       		.byte	0x1
 7891 1f3a 9B0A     		.2byte	0xa9b
 7892 1f3c 22       		.uleb128 0x22
 7893 1f3d EE050000 		.4byte	0x5ee
 7894 1f41 141C0000 		.4byte	.LLST156
 7895 1f45 29       		.uleb128 0x29
 7896 1f46 E2050000 		.4byte	0x5e2
 7897 1f4a 01       		.uleb128 0x1
 7898 1f4b 50       		.byte	0x50
 7899 1f4c 27       		.uleb128 0x27
 7900 1f4d 00000000 		.4byte	.LBB91
 7901 1f51 0C000000 		.4byte	.LBE91-.LBB91
 7902 1f55 24       		.uleb128 0x24
 7903 1f56 FA050000 		.4byte	0x5fa
 7904 1f5a 351C0000 		.4byte	.LLST158
 7905 1f5e 00       		.byte	0
 7906 1f5f 00       		.byte	0
 7907 1f60 00       		.byte	0
 7908 1f61 1B       		.uleb128 0x1b
 7909 1f62 62080000 		.4byte	.LASF195
 7910 1f66 01       		.byte	0x1
 7911 1f67 B20A     		.2byte	0xab2
 7912 1f69 00000000 		.4byte	.LFB189
 7913 1f6d 7E000000 		.4byte	.LFE189-.LFB189
 7914 1f71 01       		.uleb128 0x1
 7915 1f72 9C       		.byte	0x9c
 7916 1f73 96200000 		.4byte	0x2096
 7917 1f77 1C       		.uleb128 0x1c
 7918 1f78 7D050000 		.4byte	.LASF65
 7919 1f7c 01       		.byte	0x1
 7920 1f7d B20A     		.2byte	0xab2
 7921 1f7f 11040000 		.4byte	0x411
 7922 1f83 01       		.uleb128 0x1
 7923 1f84 50       		.byte	0x50
ARM GAS  /tmp/ccJZ9K5Y.s 			page 140


 7924 1f85 1E       		.uleb128 0x1e
 7925 1f86 84090000 		.4byte	.LASF196
 7926 1f8a 01       		.byte	0x1
 7927 1f8b B20A     		.2byte	0xab2
 7928 1f8d A2000000 		.4byte	0xa2
 7929 1f91 8A1C0000 		.4byte	.LLST159
 7930 1f95 1E       		.uleb128 0x1e
 7931 1f96 00080000 		.4byte	.LASF52
 7932 1f9a 01       		.byte	0x1
 7933 1f9b B30A     		.2byte	0xab3
 7934 1f9d A2000000 		.4byte	0xa2
 7935 1fa1 B61C0000 		.4byte	.LLST160
 7936 1fa5 1E       		.uleb128 0x1e
 7937 1fa6 6C0D0000 		.4byte	.LASF197
 7938 1faa 01       		.byte	0x1
 7939 1fab B30A     		.2byte	0xab3
 7940 1fad A2000000 		.4byte	0xa2
 7941 1fb1 F01C0000 		.4byte	.LLST161
 7942 1fb5 21       		.uleb128 0x21
 7943 1fb6 3D040000 		.4byte	0x43d
 7944 1fba 04000000 		.4byte	.LBB92
 7945 1fbe 80000000 		.4byte	.Ldebug_ranges0+0x80
 7946 1fc2 01       		.byte	0x1
 7947 1fc3 BD0A     		.2byte	0xabd
 7948 1fc5 0A200000 		.4byte	0x200a
 7949 1fc9 22       		.uleb128 0x22
 7950 1fca 6E040000 		.4byte	0x46e
 7951 1fce 2A1D0000 		.4byte	.LLST162
 7952 1fd2 2B       		.uleb128 0x2b
 7953 1fd3 62040000 		.4byte	0x462
 7954 1fd7 01       		.byte	0x1
 7955 1fd8 22       		.uleb128 0x22
 7956 1fd9 56040000 		.4byte	0x456
 7957 1fdd 4B1D0000 		.4byte	.LLST163
 7958 1fe1 29       		.uleb128 0x29
 7959 1fe2 4A040000 		.4byte	0x44a
 7960 1fe6 01       		.uleb128 0x1
 7961 1fe7 50       		.byte	0x50
 7962 1fe8 23       		.uleb128 0x23
 7963 1fe9 80000000 		.4byte	.Ldebug_ranges0+0x80
 7964 1fed 24       		.uleb128 0x24
 7965 1fee 7A040000 		.4byte	0x47a
 7966 1ff2 6C1D0000 		.4byte	.LLST164
 7967 1ff6 24       		.uleb128 0x24
 7968 1ff7 86040000 		.4byte	0x486
 7969 1ffb C11D0000 		.4byte	.LLST165
 7970 1fff 24       		.uleb128 0x24
 7971 2000 92040000 		.4byte	0x492
 7972 2004 051E0000 		.4byte	.LLST166
 7973 2008 00       		.byte	0
 7974 2009 00       		.byte	0
 7975 200a 25       		.uleb128 0x25
 7976 200b BB030000 		.4byte	0x3bb
 7977 200f 08000000 		.4byte	.LBB95
 7978 2013 2C000000 		.4byte	.LBE95-.LBB95
 7979 2017 01       		.byte	0x1
 7980 2018 C10A     		.2byte	0xac1
ARM GAS  /tmp/ccJZ9K5Y.s 			page 141


 7981 201a 5F200000 		.4byte	0x205f
 7982 201e 22       		.uleb128 0x22
 7983 201f EC030000 		.4byte	0x3ec
 7984 2023 381E0000 		.4byte	.LLST167
 7985 2027 22       		.uleb128 0x22
 7986 2028 E0030000 		.4byte	0x3e0
 7987 202c 591E0000 		.4byte	.LLST168
 7988 2030 22       		.uleb128 0x22
 7989 2031 D4030000 		.4byte	0x3d4
 7990 2035 6D1E0000 		.4byte	.LLST169
 7991 2039 22       		.uleb128 0x22
 7992 203a C8030000 		.4byte	0x3c8
 7993 203e 8E1E0000 		.4byte	.LLST170
 7994 2042 27       		.uleb128 0x27
 7995 2043 08000000 		.4byte	.LBB96
 7996 2047 2C000000 		.4byte	.LBE96-.LBB96
 7997 204b 24       		.uleb128 0x24
 7998 204c F8030000 		.4byte	0x3f8
 7999 2050 A11E0000 		.4byte	.LLST171
 8000 2054 24       		.uleb128 0x24
 8001 2055 04040000 		.4byte	0x404
 8002 2059 E51E0000 		.4byte	.LLST172
 8003 205d 00       		.byte	0
 8004 205e 00       		.byte	0
 8005 205f 28       		.uleb128 0x28
 8006 2060 D5050000 		.4byte	0x5d5
 8007 2064 34000000 		.4byte	.LBB97
 8008 2068 0C000000 		.4byte	.LBE97-.LBB97
 8009 206c 01       		.byte	0x1
 8010 206d C40A     		.2byte	0xac4
 8011 206f 22       		.uleb128 0x22
 8012 2070 EE050000 		.4byte	0x5ee
 8013 2074 351F0000 		.4byte	.LLST173
 8014 2078 22       		.uleb128 0x22
 8015 2079 E2050000 		.4byte	0x5e2
 8016 207d 561F0000 		.4byte	.LLST174
 8017 2081 27       		.uleb128 0x27
 8018 2082 34000000 		.4byte	.LBB98
 8019 2086 0C000000 		.4byte	.LBE98-.LBB98
 8020 208a 24       		.uleb128 0x24
 8021 208b FA050000 		.4byte	0x5fa
 8022 208f 691F0000 		.4byte	.LLST175
 8023 2093 00       		.byte	0
 8024 2094 00       		.byte	0
 8025 2095 00       		.byte	0
 8026 2096 1B       		.uleb128 0x1b
 8027 2097 A00C0000 		.4byte	.LASF198
 8028 209b 01       		.byte	0x1
 8029 209c DA0A     		.2byte	0xada
 8030 209e 00000000 		.4byte	.LFB190
 8031 20a2 26000000 		.4byte	.LFE190-.LFB190
 8032 20a6 01       		.uleb128 0x1
 8033 20a7 9C       		.byte	0x9c
 8034 20a8 3D210000 		.4byte	0x213d
 8035 20ac 1C       		.uleb128 0x1c
 8036 20ad 7D050000 		.4byte	.LASF65
 8037 20b1 01       		.byte	0x1
ARM GAS  /tmp/ccJZ9K5Y.s 			page 142


 8038 20b2 DA0A     		.2byte	0xada
 8039 20b4 11040000 		.4byte	0x411
 8040 20b8 01       		.uleb128 0x1
 8041 20b9 50       		.byte	0x50
 8042 20ba 1E       		.uleb128 0x1e
 8043 20bb 8B060000 		.4byte	.LASF82
 8044 20bf 01       		.byte	0x1
 8045 20c0 DA0A     		.2byte	0xada
 8046 20c2 A2000000 		.4byte	0xa2
 8047 20c6 BE1F0000 		.4byte	.LLST176
 8048 20ca 1C       		.uleb128 0x1c
 8049 20cb 41060000 		.4byte	.LASF83
 8050 20cf 01       		.byte	0x1
 8051 20d0 DB0A     		.2byte	0xadb
 8052 20d2 A2000000 		.4byte	0xa2
 8053 20d6 01       		.uleb128 0x1
 8054 20d7 52       		.byte	0x52
 8055 20d8 1E       		.uleb128 0x1e
 8056 20d9 850D0000 		.4byte	.LASF84
 8057 20dd 01       		.byte	0x1
 8058 20de DB0A     		.2byte	0xadb
 8059 20e0 A2000000 		.4byte	0xa2
 8060 20e4 DF1F0000 		.4byte	.LLST177
 8061 20e8 1D       		.uleb128 0x1d
 8062 20e9 39060000 		.4byte	.LASF80
 8063 20ed 01       		.byte	0x1
 8064 20ee DD0A     		.2byte	0xadd
 8065 20f0 A2000000 		.4byte	0xa2
 8066 20f4 00200000 		.4byte	.LLST178
 8067 20f8 28       		.uleb128 0x28
 8068 20f9 07060000 		.4byte	0x607
 8069 20fd 02000000 		.4byte	.LBB100
 8070 2101 10000000 		.4byte	.LBE100-.LBB100
 8071 2105 01       		.byte	0x1
 8072 2106 E50A     		.2byte	0xae5
 8073 2108 22       		.uleb128 0x22
 8074 2109 38060000 		.4byte	0x638
 8075 210d DF1F0000 		.4byte	.LLST177
 8076 2111 29       		.uleb128 0x29
 8077 2112 2C060000 		.4byte	0x62c
 8078 2116 01       		.uleb128 0x1
 8079 2117 52       		.byte	0x52
 8080 2118 22       		.uleb128 0x22
 8081 2119 20060000 		.4byte	0x620
 8082 211d BE1F0000 		.4byte	.LLST176
 8083 2121 29       		.uleb128 0x29
 8084 2122 14060000 		.4byte	0x614
 8085 2126 01       		.uleb128 0x1
 8086 2127 50       		.byte	0x50
 8087 2128 27       		.uleb128 0x27
 8088 2129 02000000 		.4byte	.LBB101
 8089 212d 10000000 		.4byte	.LBE101-.LBB101
 8090 2131 24       		.uleb128 0x24
 8091 2132 44060000 		.4byte	0x644
 8092 2136 33200000 		.4byte	.LLST181
 8093 213a 00       		.byte	0
 8094 213b 00       		.byte	0
ARM GAS  /tmp/ccJZ9K5Y.s 			page 143


 8095 213c 00       		.byte	0
 8096 213d 1B       		.uleb128 0x1b
 8097 213e 010A0000 		.4byte	.LASF199
 8098 2142 01       		.byte	0x1
 8099 2143 090B     		.2byte	0xb09
 8100 2145 00000000 		.4byte	.LFB191
 8101 2149 20000000 		.4byte	.LFE191-.LFB191
 8102 214d 01       		.uleb128 0x1
 8103 214e 9C       		.byte	0x9c
 8104 214f D4210000 		.4byte	0x21d4
 8105 2153 1C       		.uleb128 0x1c
 8106 2154 7D050000 		.4byte	.LASF65
 8107 2158 01       		.byte	0x1
 8108 2159 090B     		.2byte	0xb09
 8109 215b 11040000 		.4byte	0x411
 8110 215f 01       		.uleb128 0x1
 8111 2160 50       		.byte	0x50
 8112 2161 1E       		.uleb128 0x1e
 8113 2162 8B060000 		.4byte	.LASF82
 8114 2166 01       		.byte	0x1
 8115 2167 090B     		.2byte	0xb09
 8116 2169 A2000000 		.4byte	0xa2
 8117 216d 78200000 		.4byte	.LLST182
 8118 2171 1C       		.uleb128 0x1c
 8119 2172 41060000 		.4byte	.LASF83
 8120 2176 01       		.byte	0x1
 8121 2177 0A0B     		.2byte	0xb0a
 8122 2179 A2000000 		.4byte	0xa2
 8123 217d 01       		.uleb128 0x1
 8124 217e 52       		.byte	0x52
 8125 217f 1E       		.uleb128 0x1e
 8126 2180 850D0000 		.4byte	.LASF84
 8127 2184 01       		.byte	0x1
 8128 2185 0A0B     		.2byte	0xb0a
 8129 2187 A2000000 		.4byte	0xa2
 8130 218b 99200000 		.4byte	.LLST183
 8131 218f 28       		.uleb128 0x28
 8132 2190 07060000 		.4byte	0x607
 8133 2194 02000000 		.4byte	.LBB102
 8134 2198 10000000 		.4byte	.LBE102-.LBB102
 8135 219c 01       		.byte	0x1
 8136 219d 130B     		.2byte	0xb13
 8137 219f 22       		.uleb128 0x22
 8138 21a0 38060000 		.4byte	0x638
 8139 21a4 99200000 		.4byte	.LLST183
 8140 21a8 29       		.uleb128 0x29
 8141 21a9 2C060000 		.4byte	0x62c
 8142 21ad 01       		.uleb128 0x1
 8143 21ae 52       		.byte	0x52
 8144 21af 22       		.uleb128 0x22
 8145 21b0 20060000 		.4byte	0x620
 8146 21b4 78200000 		.4byte	.LLST182
 8147 21b8 29       		.uleb128 0x29
 8148 21b9 14060000 		.4byte	0x614
 8149 21bd 01       		.uleb128 0x1
 8150 21be 50       		.byte	0x50
 8151 21bf 27       		.uleb128 0x27
ARM GAS  /tmp/ccJZ9K5Y.s 			page 144


 8152 21c0 02000000 		.4byte	.LBB103
 8153 21c4 10000000 		.4byte	.LBE103-.LBB103
 8154 21c8 24       		.uleb128 0x24
 8155 21c9 44060000 		.4byte	0x644
 8156 21cd BA200000 		.4byte	.LLST186
 8157 21d1 00       		.byte	0
 8158 21d2 00       		.byte	0
 8159 21d3 00       		.byte	0
 8160 21d4 2A       		.uleb128 0x2a
 8161 21d5 D5050000 		.4byte	0x5d5
 8162 21d9 00000000 		.4byte	.LFB192
 8163 21dd 0E000000 		.4byte	.LFE192-.LFB192
 8164 21e1 01       		.uleb128 0x1
 8165 21e2 9C       		.byte	0x9c
 8166 21e3 01220000 		.4byte	0x2201
 8167 21e7 29       		.uleb128 0x29
 8168 21e8 E2050000 		.4byte	0x5e2
 8169 21ec 01       		.uleb128 0x1
 8170 21ed 50       		.byte	0x50
 8171 21ee 22       		.uleb128 0x22
 8172 21ef EE050000 		.4byte	0x5ee
 8173 21f3 FF200000 		.4byte	.LLST187
 8174 21f7 24       		.uleb128 0x24
 8175 21f8 FA050000 		.4byte	0x5fa
 8176 21fc 20210000 		.4byte	.LLST188
 8177 2200 00       		.byte	0
 8178 2201 1B       		.uleb128 0x1b
 8179 2202 BC050000 		.4byte	.LASF200
 8180 2206 01       		.byte	0x1
 8181 2207 7B0B     		.2byte	0xb7b
 8182 2209 00000000 		.4byte	.LFB193
 8183 220d 12000000 		.4byte	.LFE193-.LFB193
 8184 2211 01       		.uleb128 0x1
 8185 2212 9C       		.byte	0x9c
 8186 2213 36220000 		.4byte	0x2236
 8187 2217 1C       		.uleb128 0x1c
 8188 2218 7D050000 		.4byte	.LASF65
 8189 221c 01       		.byte	0x1
 8190 221d 7B0B     		.2byte	0xb7b
 8191 221f 11040000 		.4byte	0x411
 8192 2223 01       		.uleb128 0x1
 8193 2224 50       		.byte	0x50
 8194 2225 1E       		.uleb128 0x1e
 8195 2226 77000000 		.4byte	.LASF201
 8196 222a 01       		.byte	0x1
 8197 222b 7B0B     		.2byte	0xb7b
 8198 222d A2000000 		.4byte	0xa2
 8199 2231 60210000 		.4byte	.LLST189
 8200 2235 00       		.byte	0
 8201 2236 1B       		.uleb128 0x1b
 8202 2237 05050000 		.4byte	.LASF202
 8203 223b 01       		.byte	0x1
 8204 223c 930B     		.2byte	0xb93
 8205 223e 00000000 		.4byte	.LFB194
 8206 2242 12000000 		.4byte	.LFE194-.LFB194
 8207 2246 01       		.uleb128 0x1
 8208 2247 9C       		.byte	0x9c
ARM GAS  /tmp/ccJZ9K5Y.s 			page 145


 8209 2248 6B220000 		.4byte	0x226b
 8210 224c 1C       		.uleb128 0x1c
 8211 224d 7D050000 		.4byte	.LASF65
 8212 2251 01       		.byte	0x1
 8213 2252 930B     		.2byte	0xb93
 8214 2254 11040000 		.4byte	0x411
 8215 2258 01       		.uleb128 0x1
 8216 2259 50       		.byte	0x50
 8217 225a 1E       		.uleb128 0x1e
 8218 225b 2B0C0000 		.4byte	.LASF203
 8219 225f 01       		.byte	0x1
 8220 2260 930B     		.2byte	0xb93
 8221 2262 A2000000 		.4byte	0xa2
 8222 2266 81210000 		.4byte	.LLST190
 8223 226a 00       		.byte	0
 8224 226b 1B       		.uleb128 0x1b
 8225 226c 19050000 		.4byte	.LASF204
 8226 2270 01       		.byte	0x1
 8227 2271 AA0B     		.2byte	0xbaa
 8228 2273 00000000 		.4byte	.LFB195
 8229 2277 12000000 		.4byte	.LFE195-.LFB195
 8230 227b 01       		.uleb128 0x1
 8231 227c 9C       		.byte	0x9c
 8232 227d A0220000 		.4byte	0x22a0
 8233 2281 1C       		.uleb128 0x1c
 8234 2282 7D050000 		.4byte	.LASF65
 8235 2286 01       		.byte	0x1
 8236 2287 AA0B     		.2byte	0xbaa
 8237 2289 11040000 		.4byte	0x411
 8238 228d 01       		.uleb128 0x1
 8239 228e 50       		.byte	0x50
 8240 228f 1E       		.uleb128 0x1e
 8241 2290 F1040000 		.4byte	.LASF205
 8242 2294 01       		.byte	0x1
 8243 2295 AA0B     		.2byte	0xbaa
 8244 2297 A2000000 		.4byte	0xa2
 8245 229b A2210000 		.4byte	.LLST191
 8246 229f 00       		.byte	0
 8247 22a0 2A       		.uleb128 0x2a
 8248 22a1 07060000 		.4byte	0x607
 8249 22a5 00000000 		.4byte	.LFB196
 8250 22a9 18000000 		.4byte	.LFE196-.LFB196
 8251 22ad 01       		.uleb128 0x1
 8252 22ae 9C       		.byte	0x9c
 8253 22af DF220000 		.4byte	0x22df
 8254 22b3 29       		.uleb128 0x29
 8255 22b4 14060000 		.4byte	0x614
 8256 22b8 01       		.uleb128 0x1
 8257 22b9 50       		.byte	0x50
 8258 22ba 22       		.uleb128 0x22
 8259 22bb 20060000 		.4byte	0x620
 8260 22bf C3210000 		.4byte	.LLST192
 8261 22c3 22       		.uleb128 0x22
 8262 22c4 2C060000 		.4byte	0x62c
 8263 22c8 E4210000 		.4byte	.LLST193
 8264 22cc 22       		.uleb128 0x22
 8265 22cd 38060000 		.4byte	0x638
ARM GAS  /tmp/ccJZ9K5Y.s 			page 146


 8266 22d1 05220000 		.4byte	.LLST194
 8267 22d5 24       		.uleb128 0x24
 8268 22d6 44060000 		.4byte	0x644
 8269 22da 26220000 		.4byte	.LLST195
 8270 22de 00       		.byte	0
 8271 22df 1B       		.uleb128 0x1b
 8272 22e0 06020000 		.4byte	.LASF206
 8273 22e4 01       		.byte	0x1
 8274 22e5 020C     		.2byte	0xc02
 8275 22e7 00000000 		.4byte	.LFB197
 8276 22eb 38000000 		.4byte	.LFE197-.LFB197
 8277 22ef 01       		.uleb128 0x1
 8278 22f0 9C       		.byte	0x9c
 8279 22f1 64230000 		.4byte	0x2364
 8280 22f5 1C       		.uleb128 0x1c
 8281 22f6 7D050000 		.4byte	.LASF65
 8282 22fa 01       		.byte	0x1
 8283 22fb 020C     		.2byte	0xc02
 8284 22fd 11040000 		.4byte	0x411
 8285 2301 01       		.uleb128 0x1
 8286 2302 50       		.byte	0x50
 8287 2303 1E       		.uleb128 0x1e
 8288 2304 82050000 		.4byte	.LASF207
 8289 2308 01       		.byte	0x1
 8290 2309 020C     		.2byte	0xc02
 8291 230b A2000000 		.4byte	0xa2
 8292 230f 6F220000 		.4byte	.LLST196
 8293 2313 1E       		.uleb128 0x1e
 8294 2314 48020000 		.4byte	.LASF208
 8295 2318 01       		.byte	0x1
 8296 2319 030C     		.2byte	0xc03
 8297 231b A2000000 		.4byte	0xa2
 8298 231f 90220000 		.4byte	.LLST197
 8299 2323 1E       		.uleb128 0x1e
 8300 2324 FC000000 		.4byte	.LASF209
 8301 2328 01       		.byte	0x1
 8302 2329 030C     		.2byte	0xc03
 8303 232b A2000000 		.4byte	0xa2
 8304 232f B1220000 		.4byte	.LLST198
 8305 2333 1D       		.uleb128 0x1d
 8306 2334 39060000 		.4byte	.LASF80
 8307 2338 01       		.byte	0x1
 8308 2339 050C     		.2byte	0xc05
 8309 233b A2000000 		.4byte	0xa2
 8310 233f D2220000 		.4byte	.LLST199
 8311 2343 1D       		.uleb128 0x1d
 8312 2344 57010000 		.4byte	.LASF66
 8313 2348 01       		.byte	0x1
 8314 2349 060C     		.2byte	0xc06
 8315 234b A2000000 		.4byte	0xa2
 8316 234f 12230000 		.4byte	.LLST200
 8317 2353 1D       		.uleb128 0x1d
 8318 2354 52040000 		.4byte	.LASF67
 8319 2358 01       		.byte	0x1
 8320 2359 070C     		.2byte	0xc07
 8321 235b A2000000 		.4byte	0xa2
 8322 235f 57230000 		.4byte	.LLST201
ARM GAS  /tmp/ccJZ9K5Y.s 			page 147


 8323 2363 00       		.byte	0
 8324 2364 1B       		.uleb128 0x1b
 8325 2365 3C0D0000 		.4byte	.LASF210
 8326 2369 01       		.byte	0x1
 8327 236a 360C     		.2byte	0xc36
 8328 236c 00000000 		.4byte	.LFB198
 8329 2370 18000000 		.4byte	.LFE198-.LFB198
 8330 2374 01       		.uleb128 0x1
 8331 2375 9C       		.byte	0x9c
 8332 2376 97230000 		.4byte	0x2397
 8333 237a 1C       		.uleb128 0x1c
 8334 237b 7D050000 		.4byte	.LASF65
 8335 237f 01       		.byte	0x1
 8336 2380 360C     		.2byte	0xc36
 8337 2382 11040000 		.4byte	0x411
 8338 2386 01       		.uleb128 0x1
 8339 2387 50       		.byte	0x50
 8340 2388 1C       		.uleb128 0x1c
 8341 2389 0B000000 		.4byte	.LASF101
 8342 238d 01       		.byte	0x1
 8343 238e 360C     		.2byte	0xc36
 8344 2390 34020000 		.4byte	0x234
 8345 2394 01       		.uleb128 0x1
 8346 2395 51       		.byte	0x51
 8347 2396 00       		.byte	0
 8348 2397 1B       		.uleb128 0x1b
 8349 2398 0A0D0000 		.4byte	.LASF211
 8350 239c 01       		.byte	0x1
 8351 239d 690C     		.2byte	0xc69
 8352 239f 00000000 		.4byte	.LFB199
 8353 23a3 04000000 		.4byte	.LFE199-.LFB199
 8354 23a7 01       		.uleb128 0x1
 8355 23a8 9C       		.byte	0x9c
 8356 23a9 CA230000 		.4byte	0x23ca
 8357 23ad 1C       		.uleb128 0x1c
 8358 23ae 7D050000 		.4byte	.LASF65
 8359 23b2 01       		.byte	0x1
 8360 23b3 690C     		.2byte	0xc69
 8361 23b5 11040000 		.4byte	0x411
 8362 23b9 01       		.uleb128 0x1
 8363 23ba 50       		.byte	0x50
 8364 23bb 1C       		.uleb128 0x1c
 8365 23bc 6A070000 		.4byte	.LASF212
 8366 23c0 01       		.byte	0x1
 8367 23c1 690C     		.2byte	0xc69
 8368 23c3 A2000000 		.4byte	0xa2
 8369 23c7 01       		.uleb128 0x1
 8370 23c8 51       		.byte	0x51
 8371 23c9 00       		.byte	0
 8372 23ca 2C       		.uleb128 0x2c
 8373 23cb E4010000 		.4byte	.LASF217
 8374 23cf 08       		.byte	0x8
 8375 23d0 A706     		.2byte	0x6a7
 8376 23d2 D6230000 		.4byte	0x23d6
 8377 23d6 05       		.uleb128 0x5
 8378 23d7 AD000000 		.4byte	0xad
 8379 23db 2D       		.uleb128 0x2d
ARM GAS  /tmp/ccJZ9K5Y.s 			page 148


 8380 23dc 40010000 		.4byte	.LASF213
 8381 23e0 07       		.byte	0x7
 8382 23e1 6103     		.2byte	0x361
 8383 23e3 F2230000 		.4byte	0x23f2
 8384 23e7 2E       		.uleb128 0x2e
 8385 23e8 B8000000 		.4byte	0xb8
 8386 23ec 2E       		.uleb128 0x2e
 8387 23ed 34020000 		.4byte	0x234
 8388 23f1 00       		.byte	0
 8389 23f2 2F       		.uleb128 0x2f
 8390 23f3 9B070000 		.4byte	.LASF218
 8391 23f7 07       		.byte	0x7
 8392 23f8 6203     		.2byte	0x362
 8393 23fa 2E       		.uleb128 0x2e
 8394 23fb B8000000 		.4byte	0xb8
 8395 23ff 2E       		.uleb128 0x2e
 8396 2400 34020000 		.4byte	0x234
 8397 2404 00       		.byte	0
 8398 2405 00       		.byte	0
 8399              		.section	.debug_abbrev,"",%progbits
 8400              	.Ldebug_abbrev0:
 8401 0000 01       		.uleb128 0x1
 8402 0001 11       		.uleb128 0x11
 8403 0002 01       		.byte	0x1
 8404 0003 25       		.uleb128 0x25
 8405 0004 0E       		.uleb128 0xe
 8406 0005 13       		.uleb128 0x13
 8407 0006 0B       		.uleb128 0xb
 8408 0007 03       		.uleb128 0x3
 8409 0008 0E       		.uleb128 0xe
 8410 0009 1B       		.uleb128 0x1b
 8411 000a 0E       		.uleb128 0xe
 8412 000b 55       		.uleb128 0x55
 8413 000c 17       		.uleb128 0x17
 8414 000d 11       		.uleb128 0x11
 8415 000e 01       		.uleb128 0x1
 8416 000f 10       		.uleb128 0x10
 8417 0010 17       		.uleb128 0x17
 8418 0011 00       		.byte	0
 8419 0012 00       		.byte	0
 8420 0013 02       		.uleb128 0x2
 8421 0014 24       		.uleb128 0x24
 8422 0015 00       		.byte	0
 8423 0016 0B       		.uleb128 0xb
 8424 0017 0B       		.uleb128 0xb
 8425 0018 3E       		.uleb128 0x3e
 8426 0019 0B       		.uleb128 0xb
 8427 001a 03       		.uleb128 0x3
 8428 001b 0E       		.uleb128 0xe
 8429 001c 00       		.byte	0
 8430 001d 00       		.byte	0
 8431 001e 03       		.uleb128 0x3
 8432 001f 16       		.uleb128 0x16
 8433 0020 00       		.byte	0
 8434 0021 03       		.uleb128 0x3
 8435 0022 0E       		.uleb128 0xe
 8436 0023 3A       		.uleb128 0x3a
ARM GAS  /tmp/ccJZ9K5Y.s 			page 149


 8437 0024 0B       		.uleb128 0xb
 8438 0025 3B       		.uleb128 0x3b
 8439 0026 0B       		.uleb128 0xb
 8440 0027 49       		.uleb128 0x49
 8441 0028 13       		.uleb128 0x13
 8442 0029 00       		.byte	0
 8443 002a 00       		.byte	0
 8444 002b 04       		.uleb128 0x4
 8445 002c 24       		.uleb128 0x24
 8446 002d 00       		.byte	0
 8447 002e 0B       		.uleb128 0xb
 8448 002f 0B       		.uleb128 0xb
 8449 0030 3E       		.uleb128 0x3e
 8450 0031 0B       		.uleb128 0xb
 8451 0032 03       		.uleb128 0x3
 8452 0033 08       		.uleb128 0x8
 8453 0034 00       		.byte	0
 8454 0035 00       		.byte	0
 8455 0036 05       		.uleb128 0x5
 8456 0037 35       		.uleb128 0x35
 8457 0038 00       		.byte	0
 8458 0039 49       		.uleb128 0x49
 8459 003a 13       		.uleb128 0x13
 8460 003b 00       		.byte	0
 8461 003c 00       		.byte	0
 8462 003d 06       		.uleb128 0x6
 8463 003e 13       		.uleb128 0x13
 8464 003f 01       		.byte	0x1
 8465 0040 0B       		.uleb128 0xb
 8466 0041 0B       		.uleb128 0xb
 8467 0042 3A       		.uleb128 0x3a
 8468 0043 0B       		.uleb128 0xb
 8469 0044 3B       		.uleb128 0x3b
 8470 0045 05       		.uleb128 0x5
 8471 0046 01       		.uleb128 0x1
 8472 0047 13       		.uleb128 0x13
 8473 0048 00       		.byte	0
 8474 0049 00       		.byte	0
 8475 004a 07       		.uleb128 0x7
 8476 004b 0D       		.uleb128 0xd
 8477 004c 00       		.byte	0
 8478 004d 03       		.uleb128 0x3
 8479 004e 08       		.uleb128 0x8
 8480 004f 3A       		.uleb128 0x3a
 8481 0050 0B       		.uleb128 0xb
 8482 0051 3B       		.uleb128 0x3b
 8483 0052 05       		.uleb128 0x5
 8484 0053 49       		.uleb128 0x49
 8485 0054 13       		.uleb128 0x13
 8486 0055 38       		.uleb128 0x38
 8487 0056 0B       		.uleb128 0xb
 8488 0057 00       		.byte	0
 8489 0058 00       		.byte	0
 8490 0059 08       		.uleb128 0x8
 8491 005a 0D       		.uleb128 0xd
 8492 005b 00       		.byte	0
 8493 005c 03       		.uleb128 0x3
ARM GAS  /tmp/ccJZ9K5Y.s 			page 150


 8494 005d 0E       		.uleb128 0xe
 8495 005e 3A       		.uleb128 0x3a
 8496 005f 0B       		.uleb128 0xb
 8497 0060 3B       		.uleb128 0x3b
 8498 0061 05       		.uleb128 0x5
 8499 0062 49       		.uleb128 0x49
 8500 0063 13       		.uleb128 0x13
 8501 0064 38       		.uleb128 0x38
 8502 0065 0B       		.uleb128 0xb
 8503 0066 00       		.byte	0
 8504 0067 00       		.byte	0
 8505 0068 09       		.uleb128 0x9
 8506 0069 16       		.uleb128 0x16
 8507 006a 00       		.byte	0
 8508 006b 03       		.uleb128 0x3
 8509 006c 0E       		.uleb128 0xe
 8510 006d 3A       		.uleb128 0x3a
 8511 006e 0B       		.uleb128 0xb
 8512 006f 3B       		.uleb128 0x3b
 8513 0070 05       		.uleb128 0x5
 8514 0071 49       		.uleb128 0x49
 8515 0072 13       		.uleb128 0x13
 8516 0073 00       		.byte	0
 8517 0074 00       		.byte	0
 8518 0075 0A       		.uleb128 0xa
 8519 0076 04       		.uleb128 0x4
 8520 0077 01       		.byte	0x1
 8521 0078 0B       		.uleb128 0xb
 8522 0079 0B       		.uleb128 0xb
 8523 007a 3A       		.uleb128 0x3a
 8524 007b 0B       		.uleb128 0xb
 8525 007c 3B       		.uleb128 0x3b
 8526 007d 0B       		.uleb128 0xb
 8527 007e 01       		.uleb128 0x1
 8528 007f 13       		.uleb128 0x13
 8529 0080 00       		.byte	0
 8530 0081 00       		.byte	0
 8531 0082 0B       		.uleb128 0xb
 8532 0083 28       		.uleb128 0x28
 8533 0084 00       		.byte	0
 8534 0085 03       		.uleb128 0x3
 8535 0086 0E       		.uleb128 0xe
 8536 0087 1C       		.uleb128 0x1c
 8537 0088 0D       		.uleb128 0xd
 8538 0089 00       		.byte	0
 8539 008a 00       		.byte	0
 8540 008b 0C       		.uleb128 0xc
 8541 008c 28       		.uleb128 0x28
 8542 008d 00       		.byte	0
 8543 008e 03       		.uleb128 0x3
 8544 008f 08       		.uleb128 0x8
 8545 0090 1C       		.uleb128 0x1c
 8546 0091 0D       		.uleb128 0xd
 8547 0092 00       		.byte	0
 8548 0093 00       		.byte	0
 8549 0094 0D       		.uleb128 0xd
 8550 0095 13       		.uleb128 0x13
ARM GAS  /tmp/ccJZ9K5Y.s 			page 151


 8551 0096 01       		.byte	0x1
 8552 0097 0B       		.uleb128 0xb
 8553 0098 0B       		.uleb128 0xb
 8554 0099 3A       		.uleb128 0x3a
 8555 009a 0B       		.uleb128 0xb
 8556 009b 3B       		.uleb128 0x3b
 8557 009c 0B       		.uleb128 0xb
 8558 009d 01       		.uleb128 0x1
 8559 009e 13       		.uleb128 0x13
 8560 009f 00       		.byte	0
 8561 00a0 00       		.byte	0
 8562 00a1 0E       		.uleb128 0xe
 8563 00a2 0D       		.uleb128 0xd
 8564 00a3 00       		.byte	0
 8565 00a4 03       		.uleb128 0x3
 8566 00a5 0E       		.uleb128 0xe
 8567 00a6 3A       		.uleb128 0x3a
 8568 00a7 0B       		.uleb128 0xb
 8569 00a8 3B       		.uleb128 0x3b
 8570 00a9 0B       		.uleb128 0xb
 8571 00aa 49       		.uleb128 0x49
 8572 00ab 13       		.uleb128 0x13
 8573 00ac 38       		.uleb128 0x38
 8574 00ad 0B       		.uleb128 0xb
 8575 00ae 00       		.byte	0
 8576 00af 00       		.byte	0
 8577 00b0 0F       		.uleb128 0xf
 8578 00b1 2E       		.uleb128 0x2e
 8579 00b2 01       		.byte	0x1
 8580 00b3 03       		.uleb128 0x3
 8581 00b4 0E       		.uleb128 0xe
 8582 00b5 3A       		.uleb128 0x3a
 8583 00b6 0B       		.uleb128 0xb
 8584 00b7 3B       		.uleb128 0x3b
 8585 00b8 05       		.uleb128 0x5
 8586 00b9 27       		.uleb128 0x27
 8587 00ba 19       		.uleb128 0x19
 8588 00bb 20       		.uleb128 0x20
 8589 00bc 0B       		.uleb128 0xb
 8590 00bd 01       		.uleb128 0x1
 8591 00be 13       		.uleb128 0x13
 8592 00bf 00       		.byte	0
 8593 00c0 00       		.byte	0
 8594 00c1 10       		.uleb128 0x10
 8595 00c2 05       		.uleb128 0x5
 8596 00c3 00       		.byte	0
 8597 00c4 03       		.uleb128 0x3
 8598 00c5 0E       		.uleb128 0xe
 8599 00c6 3A       		.uleb128 0x3a
 8600 00c7 0B       		.uleb128 0xb
 8601 00c8 3B       		.uleb128 0x3b
 8602 00c9 05       		.uleb128 0x5
 8603 00ca 49       		.uleb128 0x49
 8604 00cb 13       		.uleb128 0x13
 8605 00cc 00       		.byte	0
 8606 00cd 00       		.byte	0
 8607 00ce 11       		.uleb128 0x11
ARM GAS  /tmp/ccJZ9K5Y.s 			page 152


 8608 00cf 34       		.uleb128 0x34
 8609 00d0 00       		.byte	0
 8610 00d1 03       		.uleb128 0x3
 8611 00d2 0E       		.uleb128 0xe
 8612 00d3 3A       		.uleb128 0x3a
 8613 00d4 0B       		.uleb128 0xb
 8614 00d5 3B       		.uleb128 0x3b
 8615 00d6 05       		.uleb128 0x5
 8616 00d7 49       		.uleb128 0x49
 8617 00d8 13       		.uleb128 0x13
 8618 00d9 00       		.byte	0
 8619 00da 00       		.byte	0
 8620 00db 12       		.uleb128 0x12
 8621 00dc 0F       		.uleb128 0xf
 8622 00dd 00       		.byte	0
 8623 00de 0B       		.uleb128 0xb
 8624 00df 0B       		.uleb128 0xb
 8625 00e0 49       		.uleb128 0x49
 8626 00e1 13       		.uleb128 0x13
 8627 00e2 00       		.byte	0
 8628 00e3 00       		.byte	0
 8629 00e4 13       		.uleb128 0x13
 8630 00e5 2E       		.uleb128 0x2e
 8631 00e6 01       		.byte	0x1
 8632 00e7 3F       		.uleb128 0x3f
 8633 00e8 19       		.uleb128 0x19
 8634 00e9 03       		.uleb128 0x3
 8635 00ea 0E       		.uleb128 0xe
 8636 00eb 3A       		.uleb128 0x3a
 8637 00ec 0B       		.uleb128 0xb
 8638 00ed 3B       		.uleb128 0x3b
 8639 00ee 05       		.uleb128 0x5
 8640 00ef 27       		.uleb128 0x27
 8641 00f0 19       		.uleb128 0x19
 8642 00f1 20       		.uleb128 0x20
 8643 00f2 0B       		.uleb128 0xb
 8644 00f3 01       		.uleb128 0x1
 8645 00f4 13       		.uleb128 0x13
 8646 00f5 00       		.byte	0
 8647 00f6 00       		.byte	0
 8648 00f7 14       		.uleb128 0x14
 8649 00f8 34       		.uleb128 0x34
 8650 00f9 00       		.byte	0
 8651 00fa 03       		.uleb128 0x3
 8652 00fb 08       		.uleb128 0x8
 8653 00fc 3A       		.uleb128 0x3a
 8654 00fd 0B       		.uleb128 0xb
 8655 00fe 3B       		.uleb128 0x3b
 8656 00ff 05       		.uleb128 0x5
 8657 0100 49       		.uleb128 0x49
 8658 0101 13       		.uleb128 0x13
 8659 0102 00       		.byte	0
 8660 0103 00       		.byte	0
 8661 0104 15       		.uleb128 0x15
 8662 0105 2E       		.uleb128 0x2e
 8663 0106 01       		.byte	0x1
 8664 0107 3F       		.uleb128 0x3f
ARM GAS  /tmp/ccJZ9K5Y.s 			page 153


 8665 0108 19       		.uleb128 0x19
 8666 0109 03       		.uleb128 0x3
 8667 010a 0E       		.uleb128 0xe
 8668 010b 3A       		.uleb128 0x3a
 8669 010c 0B       		.uleb128 0xb
 8670 010d 3B       		.uleb128 0x3b
 8671 010e 0B       		.uleb128 0xb
 8672 010f 27       		.uleb128 0x27
 8673 0110 19       		.uleb128 0x19
 8674 0111 11       		.uleb128 0x11
 8675 0112 01       		.uleb128 0x1
 8676 0113 12       		.uleb128 0x12
 8677 0114 06       		.uleb128 0x6
 8678 0115 40       		.uleb128 0x40
 8679 0116 18       		.uleb128 0x18
 8680 0117 9742     		.uleb128 0x2117
 8681 0119 19       		.uleb128 0x19
 8682 011a 01       		.uleb128 0x1
 8683 011b 13       		.uleb128 0x13
 8684 011c 00       		.byte	0
 8685 011d 00       		.byte	0
 8686 011e 16       		.uleb128 0x16
 8687 011f 05       		.uleb128 0x5
 8688 0120 00       		.byte	0
 8689 0121 03       		.uleb128 0x3
 8690 0122 0E       		.uleb128 0xe
 8691 0123 3A       		.uleb128 0x3a
 8692 0124 0B       		.uleb128 0xb
 8693 0125 3B       		.uleb128 0x3b
 8694 0126 0B       		.uleb128 0xb
 8695 0127 49       		.uleb128 0x49
 8696 0128 13       		.uleb128 0x13
 8697 0129 02       		.uleb128 0x2
 8698 012a 17       		.uleb128 0x17
 8699 012b 00       		.byte	0
 8700 012c 00       		.byte	0
 8701 012d 17       		.uleb128 0x17
 8702 012e 898201   		.uleb128 0x4109
 8703 0131 01       		.byte	0x1
 8704 0132 11       		.uleb128 0x11
 8705 0133 01       		.uleb128 0x1
 8706 0134 31       		.uleb128 0x31
 8707 0135 13       		.uleb128 0x13
 8708 0136 01       		.uleb128 0x1
 8709 0137 13       		.uleb128 0x13
 8710 0138 00       		.byte	0
 8711 0139 00       		.byte	0
 8712 013a 18       		.uleb128 0x18
 8713 013b 8A8201   		.uleb128 0x410a
 8714 013e 00       		.byte	0
 8715 013f 02       		.uleb128 0x2
 8716 0140 18       		.uleb128 0x18
 8717 0141 9142     		.uleb128 0x2111
 8718 0143 18       		.uleb128 0x18
 8719 0144 00       		.byte	0
 8720 0145 00       		.byte	0
 8721 0146 19       		.uleb128 0x19
ARM GAS  /tmp/ccJZ9K5Y.s 			page 154


 8722 0147 898201   		.uleb128 0x4109
 8723 014a 01       		.byte	0x1
 8724 014b 11       		.uleb128 0x11
 8725 014c 01       		.uleb128 0x1
 8726 014d 9542     		.uleb128 0x2115
 8727 014f 19       		.uleb128 0x19
 8728 0150 31       		.uleb128 0x31
 8729 0151 13       		.uleb128 0x13
 8730 0152 01       		.uleb128 0x1
 8731 0153 13       		.uleb128 0x13
 8732 0154 00       		.byte	0
 8733 0155 00       		.byte	0
 8734 0156 1A       		.uleb128 0x1a
 8735 0157 898201   		.uleb128 0x4109
 8736 015a 01       		.byte	0x1
 8737 015b 11       		.uleb128 0x11
 8738 015c 01       		.uleb128 0x1
 8739 015d 9542     		.uleb128 0x2115
 8740 015f 19       		.uleb128 0x19
 8741 0160 31       		.uleb128 0x31
 8742 0161 13       		.uleb128 0x13
 8743 0162 00       		.byte	0
 8744 0163 00       		.byte	0
 8745 0164 1B       		.uleb128 0x1b
 8746 0165 2E       		.uleb128 0x2e
 8747 0166 01       		.byte	0x1
 8748 0167 3F       		.uleb128 0x3f
 8749 0168 19       		.uleb128 0x19
 8750 0169 03       		.uleb128 0x3
 8751 016a 0E       		.uleb128 0xe
 8752 016b 3A       		.uleb128 0x3a
 8753 016c 0B       		.uleb128 0xb
 8754 016d 3B       		.uleb128 0x3b
 8755 016e 05       		.uleb128 0x5
 8756 016f 27       		.uleb128 0x27
 8757 0170 19       		.uleb128 0x19
 8758 0171 11       		.uleb128 0x11
 8759 0172 01       		.uleb128 0x1
 8760 0173 12       		.uleb128 0x12
 8761 0174 06       		.uleb128 0x6
 8762 0175 40       		.uleb128 0x40
 8763 0176 18       		.uleb128 0x18
 8764 0177 9742     		.uleb128 0x2117
 8765 0179 19       		.uleb128 0x19
 8766 017a 01       		.uleb128 0x1
 8767 017b 13       		.uleb128 0x13
 8768 017c 00       		.byte	0
 8769 017d 00       		.byte	0
 8770 017e 1C       		.uleb128 0x1c
 8771 017f 05       		.uleb128 0x5
 8772 0180 00       		.byte	0
 8773 0181 03       		.uleb128 0x3
 8774 0182 0E       		.uleb128 0xe
 8775 0183 3A       		.uleb128 0x3a
 8776 0184 0B       		.uleb128 0xb
 8777 0185 3B       		.uleb128 0x3b
 8778 0186 05       		.uleb128 0x5
ARM GAS  /tmp/ccJZ9K5Y.s 			page 155


 8779 0187 49       		.uleb128 0x49
 8780 0188 13       		.uleb128 0x13
 8781 0189 02       		.uleb128 0x2
 8782 018a 18       		.uleb128 0x18
 8783 018b 00       		.byte	0
 8784 018c 00       		.byte	0
 8785 018d 1D       		.uleb128 0x1d
 8786 018e 34       		.uleb128 0x34
 8787 018f 00       		.byte	0
 8788 0190 03       		.uleb128 0x3
 8789 0191 0E       		.uleb128 0xe
 8790 0192 3A       		.uleb128 0x3a
 8791 0193 0B       		.uleb128 0xb
 8792 0194 3B       		.uleb128 0x3b
 8793 0195 05       		.uleb128 0x5
 8794 0196 49       		.uleb128 0x49
 8795 0197 13       		.uleb128 0x13
 8796 0198 02       		.uleb128 0x2
 8797 0199 17       		.uleb128 0x17
 8798 019a 00       		.byte	0
 8799 019b 00       		.byte	0
 8800 019c 1E       		.uleb128 0x1e
 8801 019d 05       		.uleb128 0x5
 8802 019e 00       		.byte	0
 8803 019f 03       		.uleb128 0x3
 8804 01a0 0E       		.uleb128 0xe
 8805 01a1 3A       		.uleb128 0x3a
 8806 01a2 0B       		.uleb128 0xb
 8807 01a3 3B       		.uleb128 0x3b
 8808 01a4 05       		.uleb128 0x5
 8809 01a5 49       		.uleb128 0x49
 8810 01a6 13       		.uleb128 0x13
 8811 01a7 02       		.uleb128 0x2
 8812 01a8 17       		.uleb128 0x17
 8813 01a9 00       		.byte	0
 8814 01aa 00       		.byte	0
 8815 01ab 1F       		.uleb128 0x1f
 8816 01ac 2E       		.uleb128 0x2e
 8817 01ad 01       		.byte	0x1
 8818 01ae 3F       		.uleb128 0x3f
 8819 01af 19       		.uleb128 0x19
 8820 01b0 03       		.uleb128 0x3
 8821 01b1 0E       		.uleb128 0xe
 8822 01b2 3A       		.uleb128 0x3a
 8823 01b3 0B       		.uleb128 0xb
 8824 01b4 3B       		.uleb128 0x3b
 8825 01b5 05       		.uleb128 0x5
 8826 01b6 27       		.uleb128 0x27
 8827 01b7 19       		.uleb128 0x19
 8828 01b8 49       		.uleb128 0x49
 8829 01b9 13       		.uleb128 0x13
 8830 01ba 11       		.uleb128 0x11
 8831 01bb 01       		.uleb128 0x1
 8832 01bc 12       		.uleb128 0x12
 8833 01bd 06       		.uleb128 0x6
 8834 01be 40       		.uleb128 0x40
 8835 01bf 18       		.uleb128 0x18
ARM GAS  /tmp/ccJZ9K5Y.s 			page 156


 8836 01c0 9742     		.uleb128 0x2117
 8837 01c2 19       		.uleb128 0x19
 8838 01c3 01       		.uleb128 0x1
 8839 01c4 13       		.uleb128 0x13
 8840 01c5 00       		.byte	0
 8841 01c6 00       		.byte	0
 8842 01c7 20       		.uleb128 0x20
 8843 01c8 34       		.uleb128 0x34
 8844 01c9 00       		.byte	0
 8845 01ca 03       		.uleb128 0x3
 8846 01cb 08       		.uleb128 0x8
 8847 01cc 3A       		.uleb128 0x3a
 8848 01cd 0B       		.uleb128 0xb
 8849 01ce 3B       		.uleb128 0x3b
 8850 01cf 05       		.uleb128 0x5
 8851 01d0 49       		.uleb128 0x49
 8852 01d1 13       		.uleb128 0x13
 8853 01d2 02       		.uleb128 0x2
 8854 01d3 17       		.uleb128 0x17
 8855 01d4 00       		.byte	0
 8856 01d5 00       		.byte	0
 8857 01d6 21       		.uleb128 0x21
 8858 01d7 1D       		.uleb128 0x1d
 8859 01d8 01       		.byte	0x1
 8860 01d9 31       		.uleb128 0x31
 8861 01da 13       		.uleb128 0x13
 8862 01db 52       		.uleb128 0x52
 8863 01dc 01       		.uleb128 0x1
 8864 01dd 55       		.uleb128 0x55
 8865 01de 17       		.uleb128 0x17
 8866 01df 58       		.uleb128 0x58
 8867 01e0 0B       		.uleb128 0xb
 8868 01e1 59       		.uleb128 0x59
 8869 01e2 05       		.uleb128 0x5
 8870 01e3 01       		.uleb128 0x1
 8871 01e4 13       		.uleb128 0x13
 8872 01e5 00       		.byte	0
 8873 01e6 00       		.byte	0
 8874 01e7 22       		.uleb128 0x22
 8875 01e8 05       		.uleb128 0x5
 8876 01e9 00       		.byte	0
 8877 01ea 31       		.uleb128 0x31
 8878 01eb 13       		.uleb128 0x13
 8879 01ec 02       		.uleb128 0x2
 8880 01ed 17       		.uleb128 0x17
 8881 01ee 00       		.byte	0
 8882 01ef 00       		.byte	0
 8883 01f0 23       		.uleb128 0x23
 8884 01f1 0B       		.uleb128 0xb
 8885 01f2 01       		.byte	0x1
 8886 01f3 55       		.uleb128 0x55
 8887 01f4 17       		.uleb128 0x17
 8888 01f5 00       		.byte	0
 8889 01f6 00       		.byte	0
 8890 01f7 24       		.uleb128 0x24
 8891 01f8 34       		.uleb128 0x34
 8892 01f9 00       		.byte	0
ARM GAS  /tmp/ccJZ9K5Y.s 			page 157


 8893 01fa 31       		.uleb128 0x31
 8894 01fb 13       		.uleb128 0x13
 8895 01fc 02       		.uleb128 0x2
 8896 01fd 17       		.uleb128 0x17
 8897 01fe 00       		.byte	0
 8898 01ff 00       		.byte	0
 8899 0200 25       		.uleb128 0x25
 8900 0201 1D       		.uleb128 0x1d
 8901 0202 01       		.byte	0x1
 8902 0203 31       		.uleb128 0x31
 8903 0204 13       		.uleb128 0x13
 8904 0205 11       		.uleb128 0x11
 8905 0206 01       		.uleb128 0x1
 8906 0207 12       		.uleb128 0x12
 8907 0208 06       		.uleb128 0x6
 8908 0209 58       		.uleb128 0x58
 8909 020a 0B       		.uleb128 0xb
 8910 020b 59       		.uleb128 0x59
 8911 020c 05       		.uleb128 0x5
 8912 020d 01       		.uleb128 0x1
 8913 020e 13       		.uleb128 0x13
 8914 020f 00       		.byte	0
 8915 0210 00       		.byte	0
 8916 0211 26       		.uleb128 0x26
 8917 0212 05       		.uleb128 0x5
 8918 0213 00       		.byte	0
 8919 0214 31       		.uleb128 0x31
 8920 0215 13       		.uleb128 0x13
 8921 0216 00       		.byte	0
 8922 0217 00       		.byte	0
 8923 0218 27       		.uleb128 0x27
 8924 0219 0B       		.uleb128 0xb
 8925 021a 01       		.byte	0x1
 8926 021b 11       		.uleb128 0x11
 8927 021c 01       		.uleb128 0x1
 8928 021d 12       		.uleb128 0x12
 8929 021e 06       		.uleb128 0x6
 8930 021f 00       		.byte	0
 8931 0220 00       		.byte	0
 8932 0221 28       		.uleb128 0x28
 8933 0222 1D       		.uleb128 0x1d
 8934 0223 01       		.byte	0x1
 8935 0224 31       		.uleb128 0x31
 8936 0225 13       		.uleb128 0x13
 8937 0226 11       		.uleb128 0x11
 8938 0227 01       		.uleb128 0x1
 8939 0228 12       		.uleb128 0x12
 8940 0229 06       		.uleb128 0x6
 8941 022a 58       		.uleb128 0x58
 8942 022b 0B       		.uleb128 0xb
 8943 022c 59       		.uleb128 0x59
 8944 022d 05       		.uleb128 0x5
 8945 022e 00       		.byte	0
 8946 022f 00       		.byte	0
 8947 0230 29       		.uleb128 0x29
 8948 0231 05       		.uleb128 0x5
 8949 0232 00       		.byte	0
ARM GAS  /tmp/ccJZ9K5Y.s 			page 158


 8950 0233 31       		.uleb128 0x31
 8951 0234 13       		.uleb128 0x13
 8952 0235 02       		.uleb128 0x2
 8953 0236 18       		.uleb128 0x18
 8954 0237 00       		.byte	0
 8955 0238 00       		.byte	0
 8956 0239 2A       		.uleb128 0x2a
 8957 023a 2E       		.uleb128 0x2e
 8958 023b 01       		.byte	0x1
 8959 023c 31       		.uleb128 0x31
 8960 023d 13       		.uleb128 0x13
 8961 023e 11       		.uleb128 0x11
 8962 023f 01       		.uleb128 0x1
 8963 0240 12       		.uleb128 0x12
 8964 0241 06       		.uleb128 0x6
 8965 0242 40       		.uleb128 0x40
 8966 0243 18       		.uleb128 0x18
 8967 0244 9742     		.uleb128 0x2117
 8968 0246 19       		.uleb128 0x19
 8969 0247 01       		.uleb128 0x1
 8970 0248 13       		.uleb128 0x13
 8971 0249 00       		.byte	0
 8972 024a 00       		.byte	0
 8973 024b 2B       		.uleb128 0x2b
 8974 024c 05       		.uleb128 0x5
 8975 024d 00       		.byte	0
 8976 024e 31       		.uleb128 0x31
 8977 024f 13       		.uleb128 0x13
 8978 0250 1C       		.uleb128 0x1c
 8979 0251 0B       		.uleb128 0xb
 8980 0252 00       		.byte	0
 8981 0253 00       		.byte	0
 8982 0254 2C       		.uleb128 0x2c
 8983 0255 34       		.uleb128 0x34
 8984 0256 00       		.byte	0
 8985 0257 03       		.uleb128 0x3
 8986 0258 0E       		.uleb128 0xe
 8987 0259 3A       		.uleb128 0x3a
 8988 025a 0B       		.uleb128 0xb
 8989 025b 3B       		.uleb128 0x3b
 8990 025c 05       		.uleb128 0x5
 8991 025d 49       		.uleb128 0x49
 8992 025e 13       		.uleb128 0x13
 8993 025f 3F       		.uleb128 0x3f
 8994 0260 19       		.uleb128 0x19
 8995 0261 3C       		.uleb128 0x3c
 8996 0262 19       		.uleb128 0x19
 8997 0263 00       		.byte	0
 8998 0264 00       		.byte	0
 8999 0265 2D       		.uleb128 0x2d
 9000 0266 2E       		.uleb128 0x2e
 9001 0267 01       		.byte	0x1
 9002 0268 3F       		.uleb128 0x3f
 9003 0269 19       		.uleb128 0x19
 9004 026a 03       		.uleb128 0x3
 9005 026b 0E       		.uleb128 0xe
 9006 026c 3A       		.uleb128 0x3a
ARM GAS  /tmp/ccJZ9K5Y.s 			page 159


 9007 026d 0B       		.uleb128 0xb
 9008 026e 3B       		.uleb128 0x3b
 9009 026f 05       		.uleb128 0x5
 9010 0270 27       		.uleb128 0x27
 9011 0271 19       		.uleb128 0x19
 9012 0272 3C       		.uleb128 0x3c
 9013 0273 19       		.uleb128 0x19
 9014 0274 01       		.uleb128 0x1
 9015 0275 13       		.uleb128 0x13
 9016 0276 00       		.byte	0
 9017 0277 00       		.byte	0
 9018 0278 2E       		.uleb128 0x2e
 9019 0279 05       		.uleb128 0x5
 9020 027a 00       		.byte	0
 9021 027b 49       		.uleb128 0x49
 9022 027c 13       		.uleb128 0x13
 9023 027d 00       		.byte	0
 9024 027e 00       		.byte	0
 9025 027f 2F       		.uleb128 0x2f
 9026 0280 2E       		.uleb128 0x2e
 9027 0281 01       		.byte	0x1
 9028 0282 3F       		.uleb128 0x3f
 9029 0283 19       		.uleb128 0x19
 9030 0284 03       		.uleb128 0x3
 9031 0285 0E       		.uleb128 0xe
 9032 0286 3A       		.uleb128 0x3a
 9033 0287 0B       		.uleb128 0xb
 9034 0288 3B       		.uleb128 0x3b
 9035 0289 05       		.uleb128 0x5
 9036 028a 27       		.uleb128 0x27
 9037 028b 19       		.uleb128 0x19
 9038 028c 3C       		.uleb128 0x3c
 9039 028d 19       		.uleb128 0x19
 9040 028e 00       		.byte	0
 9041 028f 00       		.byte	0
 9042 0290 00       		.byte	0
 9043              		.section	.debug_loc,"",%progbits
 9044              	.Ldebug_loc0:
 9045              	.LLST0:
 9046 0000 00000000 		.4byte	.LVL0
 9047 0004 60000000 		.4byte	.LVL1
 9048 0008 0100     		.2byte	0x1
 9049 000a 50       		.byte	0x50
 9050 000b 60000000 		.4byte	.LVL1
 9051 000f 74000000 		.4byte	.LVL3
 9052 0013 0400     		.2byte	0x4
 9053 0015 F3       		.byte	0xf3
 9054 0016 01       		.uleb128 0x1
 9055 0017 50       		.byte	0x50
 9056 0018 9F       		.byte	0x9f
 9057 0019 74000000 		.4byte	.LVL3
 9058 001d 76000000 		.4byte	.LVL4
 9059 0021 0100     		.2byte	0x1
 9060 0023 50       		.byte	0x50
 9061 0024 76000000 		.4byte	.LVL4
 9062 0028 88000000 		.4byte	.LVL6
 9063 002c 0400     		.2byte	0x4
ARM GAS  /tmp/ccJZ9K5Y.s 			page 160


 9064 002e F3       		.byte	0xf3
 9065 002f 01       		.uleb128 0x1
 9066 0030 50       		.byte	0x50
 9067 0031 9F       		.byte	0x9f
 9068 0032 88000000 		.4byte	.LVL6
 9069 0036 8A000000 		.4byte	.LVL7
 9070 003a 0100     		.2byte	0x1
 9071 003c 50       		.byte	0x50
 9072 003d 8A000000 		.4byte	.LVL7
 9073 0041 9C000000 		.4byte	.LVL9
 9074 0045 0400     		.2byte	0x4
 9075 0047 F3       		.byte	0xf3
 9076 0048 01       		.uleb128 0x1
 9077 0049 50       		.byte	0x50
 9078 004a 9F       		.byte	0x9f
 9079 004b 9C000000 		.4byte	.LVL9
 9080 004f 9E000000 		.4byte	.LVL10
 9081 0053 0100     		.2byte	0x1
 9082 0055 50       		.byte	0x50
 9083 0056 9E000000 		.4byte	.LVL10
 9084 005a B0000000 		.4byte	.LVL12
 9085 005e 0400     		.2byte	0x4
 9086 0060 F3       		.byte	0xf3
 9087 0061 01       		.uleb128 0x1
 9088 0062 50       		.byte	0x50
 9089 0063 9F       		.byte	0x9f
 9090 0064 B0000000 		.4byte	.LVL12
 9091 0068 B2000000 		.4byte	.LVL13
 9092 006c 0100     		.2byte	0x1
 9093 006e 50       		.byte	0x50
 9094 006f B2000000 		.4byte	.LVL13
 9095 0073 C4000000 		.4byte	.LVL15
 9096 0077 0400     		.2byte	0x4
 9097 0079 F3       		.byte	0xf3
 9098 007a 01       		.uleb128 0x1
 9099 007b 50       		.byte	0x50
 9100 007c 9F       		.byte	0x9f
 9101 007d C4000000 		.4byte	.LVL15
 9102 0081 C6000000 		.4byte	.LVL16
 9103 0085 0100     		.2byte	0x1
 9104 0087 50       		.byte	0x50
 9105 0088 C6000000 		.4byte	.LVL16
 9106 008c D8000000 		.4byte	.LVL18
 9107 0090 0400     		.2byte	0x4
 9108 0092 F3       		.byte	0xf3
 9109 0093 01       		.uleb128 0x1
 9110 0094 50       		.byte	0x50
 9111 0095 9F       		.byte	0x9f
 9112 0096 D8000000 		.4byte	.LVL18
 9113 009a DA000000 		.4byte	.LVL19
 9114 009e 0100     		.2byte	0x1
 9115 00a0 50       		.byte	0x50
 9116 00a1 DA000000 		.4byte	.LVL19
 9117 00a5 EC000000 		.4byte	.LVL21
 9118 00a9 0400     		.2byte	0x4
 9119 00ab F3       		.byte	0xf3
 9120 00ac 01       		.uleb128 0x1
ARM GAS  /tmp/ccJZ9K5Y.s 			page 161


 9121 00ad 50       		.byte	0x50
 9122 00ae 9F       		.byte	0x9f
 9123 00af EC000000 		.4byte	.LVL21
 9124 00b3 EE000000 		.4byte	.LVL22
 9125 00b7 0100     		.2byte	0x1
 9126 00b9 50       		.byte	0x50
 9127 00ba EE000000 		.4byte	.LVL22
 9128 00be 00010000 		.4byte	.LVL24
 9129 00c2 0400     		.2byte	0x4
 9130 00c4 F3       		.byte	0xf3
 9131 00c5 01       		.uleb128 0x1
 9132 00c6 50       		.byte	0x50
 9133 00c7 9F       		.byte	0x9f
 9134 00c8 00010000 		.4byte	.LVL24
 9135 00cc 02010000 		.4byte	.LVL25
 9136 00d0 0100     		.2byte	0x1
 9137 00d2 50       		.byte	0x50
 9138 00d3 02010000 		.4byte	.LVL25
 9139 00d7 14010000 		.4byte	.LVL27
 9140 00db 0400     		.2byte	0x4
 9141 00dd F3       		.byte	0xf3
 9142 00de 01       		.uleb128 0x1
 9143 00df 50       		.byte	0x50
 9144 00e0 9F       		.byte	0x9f
 9145 00e1 14010000 		.4byte	.LVL27
 9146 00e5 18010000 		.4byte	.LVL28
 9147 00e9 0100     		.2byte	0x1
 9148 00eb 50       		.byte	0x50
 9149 00ec 18010000 		.4byte	.LVL28
 9150 00f0 2C010000 		.4byte	.LVL30
 9151 00f4 0400     		.2byte	0x4
 9152 00f6 F3       		.byte	0xf3
 9153 00f7 01       		.uleb128 0x1
 9154 00f8 50       		.byte	0x50
 9155 00f9 9F       		.byte	0x9f
 9156 00fa 2C010000 		.4byte	.LVL30
 9157 00fe 30010000 		.4byte	.LVL31
 9158 0102 0100     		.2byte	0x1
 9159 0104 50       		.byte	0x50
 9160 0105 30010000 		.4byte	.LVL31
 9161 0109 44010000 		.4byte	.LVL33
 9162 010d 0400     		.2byte	0x4
 9163 010f F3       		.byte	0xf3
 9164 0110 01       		.uleb128 0x1
 9165 0111 50       		.byte	0x50
 9166 0112 9F       		.byte	0x9f
 9167 0113 44010000 		.4byte	.LVL33
 9168 0117 48010000 		.4byte	.LVL34
 9169 011b 0100     		.2byte	0x1
 9170 011d 50       		.byte	0x50
 9171 011e 48010000 		.4byte	.LVL34
 9172 0122 5C010000 		.4byte	.LVL36
 9173 0126 0400     		.2byte	0x4
 9174 0128 F3       		.byte	0xf3
 9175 0129 01       		.uleb128 0x1
 9176 012a 50       		.byte	0x50
 9177 012b 9F       		.byte	0x9f
ARM GAS  /tmp/ccJZ9K5Y.s 			page 162


 9178 012c 5C010000 		.4byte	.LVL36
 9179 0130 5E010000 		.4byte	.LVL37
 9180 0134 0100     		.2byte	0x1
 9181 0136 50       		.byte	0x50
 9182 0137 5E010000 		.4byte	.LVL37
 9183 013b 70010000 		.4byte	.LVL39
 9184 013f 0400     		.2byte	0x4
 9185 0141 F3       		.byte	0xf3
 9186 0142 01       		.uleb128 0x1
 9187 0143 50       		.byte	0x50
 9188 0144 9F       		.byte	0x9f
 9189 0145 70010000 		.4byte	.LVL39
 9190 0149 72010000 		.4byte	.LVL40
 9191 014d 0100     		.2byte	0x1
 9192 014f 50       		.byte	0x50
 9193 0150 72010000 		.4byte	.LVL40
 9194 0154 B8010000 		.4byte	.LFE112
 9195 0158 0400     		.2byte	0x4
 9196 015a F3       		.byte	0xf3
 9197 015b 01       		.uleb128 0x1
 9198 015c 50       		.byte	0x50
 9199 015d 9F       		.byte	0x9f
 9200 015e 00000000 		.4byte	0
 9201 0162 00000000 		.4byte	0
 9202              	.LLST1:
 9203 0166 00000000 		.4byte	.LVL43
 9204 016a 08000000 		.4byte	.LVL44
 9205 016e 0200     		.2byte	0x2
 9206 0170 30       		.byte	0x30
 9207 0171 9F       		.byte	0x9f
 9208 0172 08000000 		.4byte	.LVL44
 9209 0176 4E000000 		.4byte	.LVL47
 9210 017a 0100     		.2byte	0x1
 9211 017c 53       		.byte	0x53
 9212 017d 56000000 		.4byte	.LVL48
 9213 0181 58000000 		.4byte	.LVL49
 9214 0185 0800     		.2byte	0x8
 9215 0187 71       		.byte	0x71
 9216 0188 08       		.sleb128 8
 9217 0189 94       		.byte	0x94
 9218 018a 02       		.byte	0x2
 9219 018b 73       		.byte	0x73
 9220 018c 00       		.sleb128 0
 9221 018d 21       		.byte	0x21
 9222 018e 9F       		.byte	0x9f
 9223 018f 7C000000 		.4byte	.LVL50
 9224 0193 82000000 		.4byte	.LVL51
 9225 0197 0100     		.2byte	0x1
 9226 0199 53       		.byte	0x53
 9227 019a 00000000 		.4byte	0
 9228 019e 00000000 		.4byte	0
 9229              	.LLST2:
 9230 01a2 00000000 		.4byte	.LVL54
 9231 01a6 0A000000 		.4byte	.LVL57
 9232 01aa 0100     		.2byte	0x1
 9233 01ac 51       		.byte	0x51
 9234 01ad 0A000000 		.4byte	.LVL57
ARM GAS  /tmp/ccJZ9K5Y.s 			page 163


 9235 01b1 0E000000 		.4byte	.LFE116
 9236 01b5 0400     		.2byte	0x4
 9237 01b7 F3       		.byte	0xf3
 9238 01b8 01       		.uleb128 0x1
 9239 01b9 51       		.byte	0x51
 9240 01ba 9F       		.byte	0x9f
 9241 01bb 00000000 		.4byte	0
 9242 01bf 00000000 		.4byte	0
 9243              	.LLST3:
 9244 01c3 00000000 		.4byte	.LVL54
 9245 01c7 02000000 		.4byte	.LVL55
 9246 01cb 0200     		.2byte	0x2
 9247 01cd 30       		.byte	0x30
 9248 01ce 9F       		.byte	0x9f
 9249 01cf 02000000 		.4byte	.LVL55
 9250 01d3 08000000 		.4byte	.LVL56
 9251 01d7 0100     		.2byte	0x1
 9252 01d9 52       		.byte	0x52
 9253 01da 08000000 		.4byte	.LVL56
 9254 01de 0A000000 		.4byte	.LVL57
 9255 01e2 0600     		.2byte	0x6
 9256 01e4 71       		.byte	0x71
 9257 01e5 00       		.sleb128 0
 9258 01e6 73       		.byte	0x73
 9259 01e7 00       		.sleb128 0
 9260 01e8 21       		.byte	0x21
 9261 01e9 9F       		.byte	0x9f
 9262 01ea 0A000000 		.4byte	.LVL57
 9263 01ee 0E000000 		.4byte	.LFE116
 9264 01f2 0700     		.2byte	0x7
 9265 01f4 F3       		.byte	0xf3
 9266 01f5 01       		.uleb128 0x1
 9267 01f6 51       		.byte	0x51
 9268 01f7 73       		.byte	0x73
 9269 01f8 00       		.sleb128 0
 9270 01f9 21       		.byte	0x21
 9271 01fa 9F       		.byte	0x9f
 9272 01fb 00000000 		.4byte	0
 9273 01ff 00000000 		.4byte	0
 9274              	.LLST4:
 9275 0203 00000000 		.4byte	.LVL60
 9276 0207 02000000 		.4byte	.LVL61
 9277 020b 0100     		.2byte	0x1
 9278 020d 50       		.byte	0x50
 9279 020e 02000000 		.4byte	.LVL61
 9280 0212 04000000 		.4byte	.LFE119
 9281 0216 0400     		.2byte	0x4
 9282 0218 F3       		.byte	0xf3
 9283 0219 01       		.uleb128 0x1
 9284 021a 50       		.byte	0x50
 9285 021b 9F       		.byte	0x9f
 9286 021c 00000000 		.4byte	0
 9287 0220 00000000 		.4byte	0
 9288              	.LLST5:
 9289 0224 00000000 		.4byte	.LVL62
 9290 0228 02000000 		.4byte	.LVL63
 9291 022c 0100     		.2byte	0x1
ARM GAS  /tmp/ccJZ9K5Y.s 			page 164


 9292 022e 50       		.byte	0x50
 9293 022f 02000000 		.4byte	.LVL63
 9294 0233 06000000 		.4byte	.LFE120
 9295 0237 0400     		.2byte	0x4
 9296 0239 F3       		.byte	0xf3
 9297 023a 01       		.uleb128 0x1
 9298 023b 50       		.byte	0x50
 9299 023c 9F       		.byte	0x9f
 9300 023d 00000000 		.4byte	0
 9301 0241 00000000 		.4byte	0
 9302              	.LLST6:
 9303 0245 00000000 		.4byte	.LVL67
 9304 0249 0E000000 		.4byte	.LVL68
 9305 024d 0100     		.2byte	0x1
 9306 024f 51       		.byte	0x51
 9307 0250 0E000000 		.4byte	.LVL68
 9308 0254 12000000 		.4byte	.LFE124
 9309 0258 0400     		.2byte	0x4
 9310 025a F3       		.byte	0xf3
 9311 025b 01       		.uleb128 0x1
 9312 025c 51       		.byte	0x51
 9313 025d 9F       		.byte	0x9f
 9314 025e 00000000 		.4byte	0
 9315 0262 00000000 		.4byte	0
 9316              	.LLST7:
 9317 0266 00000000 		.4byte	.LVL69
 9318 026a 0E000000 		.4byte	.LVL70
 9319 026e 0100     		.2byte	0x1
 9320 0270 51       		.byte	0x51
 9321 0271 0E000000 		.4byte	.LVL70
 9322 0275 12000000 		.4byte	.LFE125
 9323 0279 0400     		.2byte	0x4
 9324 027b F3       		.byte	0xf3
 9325 027c 01       		.uleb128 0x1
 9326 027d 51       		.byte	0x51
 9327 027e 9F       		.byte	0x9f
 9328 027f 00000000 		.4byte	0
 9329 0283 00000000 		.4byte	0
 9330              	.LLST8:
 9331 0287 00000000 		.4byte	.LVL72
 9332 028b 44000000 		.4byte	.LVL77
 9333 028f 0100     		.2byte	0x1
 9334 0291 51       		.byte	0x51
 9335 0292 44000000 		.4byte	.LVL77
 9336 0296 4E000000 		.4byte	.LVL78
 9337 029a 0400     		.2byte	0x4
 9338 029c F3       		.byte	0xf3
 9339 029d 01       		.uleb128 0x1
 9340 029e 51       		.byte	0x51
 9341 029f 9F       		.byte	0x9f
 9342 02a0 4E000000 		.4byte	.LVL78
 9343 02a4 7C000000 		.4byte	.LFE127
 9344 02a8 0100     		.2byte	0x1
 9345 02aa 51       		.byte	0x51
 9346 02ab 00000000 		.4byte	0
 9347 02af 00000000 		.4byte	0
 9348              	.LLST9:
ARM GAS  /tmp/ccJZ9K5Y.s 			page 165


 9349 02b3 00000000 		.4byte	.LVL72
 9350 02b7 36000000 		.4byte	.LVL75
 9351 02bb 0200     		.2byte	0x2
 9352 02bd 30       		.byte	0x30
 9353 02be 9F       		.byte	0x9f
 9354 02bf 36000000 		.4byte	.LVL75
 9355 02c3 7C000000 		.4byte	.LFE127
 9356 02c7 0100     		.2byte	0x1
 9357 02c9 54       		.byte	0x54
 9358 02ca 00000000 		.4byte	0
 9359 02ce 00000000 		.4byte	0
 9360              	.LLST10:
 9361 02d2 00000000 		.4byte	.LVL72
 9362 02d6 10000000 		.4byte	.LVL73
 9363 02da 0200     		.2byte	0x2
 9364 02dc 30       		.byte	0x30
 9365 02dd 9F       		.byte	0x9f
 9366 02de 10000000 		.4byte	.LVL73
 9367 02e2 2A000000 		.4byte	.LVL74
 9368 02e6 0100     		.2byte	0x1
 9369 02e8 54       		.byte	0x54
 9370 02e9 3A000000 		.4byte	.LVL76
 9371 02ed 7C000000 		.4byte	.LFE127
 9372 02f1 0100     		.2byte	0x1
 9373 02f3 53       		.byte	0x53
 9374 02f4 00000000 		.4byte	0
 9375 02f8 00000000 		.4byte	0
 9376              	.LLST11:
 9377 02fc 00000000 		.4byte	.LVL72
 9378 0300 36000000 		.4byte	.LVL75
 9379 0304 0200     		.2byte	0x2
 9380 0306 30       		.byte	0x30
 9381 0307 9F       		.byte	0x9f
 9382 0308 36000000 		.4byte	.LVL75
 9383 030c 60000000 		.4byte	.LVL80
 9384 0310 0100     		.2byte	0x1
 9385 0312 52       		.byte	0x52
 9386 0313 70000000 		.4byte	.LVL84
 9387 0317 7C000000 		.4byte	.LFE127
 9388 031b 0100     		.2byte	0x1
 9389 031d 52       		.byte	0x52
 9390 031e 00000000 		.4byte	0
 9391 0322 00000000 		.4byte	0
 9392              	.LLST12:
 9393 0326 00000000 		.4byte	.LVL85
 9394 032a 50000000 		.4byte	.LVL89
 9395 032e 0100     		.2byte	0x1
 9396 0330 51       		.byte	0x51
 9397 0331 50000000 		.4byte	.LVL89
 9398 0335 5C000000 		.4byte	.LVL90
 9399 0339 0400     		.2byte	0x4
 9400 033b F3       		.byte	0xf3
 9401 033c 01       		.uleb128 0x1
 9402 033d 51       		.byte	0x51
 9403 033e 9F       		.byte	0x9f
 9404 033f 5C000000 		.4byte	.LVL90
 9405 0343 98000000 		.4byte	.LFE128
ARM GAS  /tmp/ccJZ9K5Y.s 			page 166


 9406 0347 0100     		.2byte	0x1
 9407 0349 51       		.byte	0x51
 9408 034a 00000000 		.4byte	0
 9409 034e 00000000 		.4byte	0
 9410              	.LLST13:
 9411 0352 00000000 		.4byte	.LVL85
 9412 0356 44000000 		.4byte	.LVL87
 9413 035a 0200     		.2byte	0x2
 9414 035c 30       		.byte	0x30
 9415 035d 9F       		.byte	0x9f
 9416 035e 44000000 		.4byte	.LVL87
 9417 0362 46000000 		.4byte	.LVL88
 9418 0366 0700     		.2byte	0x7
 9419 0368 7E       		.byte	0x7e
 9420 0369 00       		.sleb128 0
 9421 036a 0A       		.byte	0xa
 9422 036b FF8C     		.2byte	0x8cff
 9423 036d 1A       		.byte	0x1a
 9424 036e 9F       		.byte	0x9f
 9425 036f 46000000 		.4byte	.LVL88
 9426 0373 98000000 		.4byte	.LFE128
 9427 0377 0100     		.2byte	0x1
 9428 0379 53       		.byte	0x53
 9429 037a 00000000 		.4byte	0
 9430 037e 00000000 		.4byte	0
 9431              	.LLST14:
 9432 0382 00000000 		.4byte	.LVL85
 9433 0386 16000000 		.4byte	.LVL86
 9434 038a 0200     		.2byte	0x2
 9435 038c 30       		.byte	0x30
 9436 038d 9F       		.byte	0x9f
 9437 038e 16000000 		.4byte	.LVL86
 9438 0392 46000000 		.4byte	.LVL88
 9439 0396 0100     		.2byte	0x1
 9440 0398 58       		.byte	0x58
 9441 0399 46000000 		.4byte	.LVL88
 9442 039d 6C000000 		.4byte	.LVL91
 9443 03a1 0100     		.2byte	0x1
 9444 03a3 52       		.byte	0x52
 9445 03a4 6C000000 		.4byte	.LVL91
 9446 03a8 7C000000 		.4byte	.LVL93
 9447 03ac 0100     		.2byte	0x1
 9448 03ae 5E       		.byte	0x5e
 9449 03af 7C000000 		.4byte	.LVL93
 9450 03b3 8A000000 		.4byte	.LVL95
 9451 03b7 0100     		.2byte	0x1
 9452 03b9 55       		.byte	0x55
 9453 03ba 8A000000 		.4byte	.LVL95
 9454 03be 98000000 		.4byte	.LFE128
 9455 03c2 0100     		.2byte	0x1
 9456 03c4 52       		.byte	0x52
 9457 03c5 00000000 		.4byte	0
 9458 03c9 00000000 		.4byte	0
 9459              	.LLST15:
 9460 03cd 00000000 		.4byte	.LVL85
 9461 03d1 44000000 		.4byte	.LVL87
 9462 03d5 0200     		.2byte	0x2
ARM GAS  /tmp/ccJZ9K5Y.s 			page 167


 9463 03d7 30       		.byte	0x30
 9464 03d8 9F       		.byte	0x9f
 9465 03d9 44000000 		.4byte	.LVL87
 9466 03dd 80000000 		.4byte	.LVL94
 9467 03e1 0100     		.2byte	0x1
 9468 03e3 54       		.byte	0x54
 9469 03e4 8A000000 		.4byte	.LVL95
 9470 03e8 8C000000 		.4byte	.LVL96
 9471 03ec 0A00     		.2byte	0xa
 9472 03ee 71       		.byte	0x71
 9473 03ef 10       		.sleb128 16
 9474 03f0 94       		.byte	0x94
 9475 03f1 02       		.byte	0x2
 9476 03f2 32       		.byte	0x32
 9477 03f3 24       		.byte	0x24
 9478 03f4 76       		.byte	0x76
 9479 03f5 00       		.sleb128 0
 9480 03f6 21       		.byte	0x21
 9481 03f7 9F       		.byte	0x9f
 9482 03f8 8C000000 		.4byte	.LVL96
 9483 03fc 98000000 		.4byte	.LFE128
 9484 0400 0100     		.2byte	0x1
 9485 0402 54       		.byte	0x54
 9486 0403 00000000 		.4byte	0
 9487 0407 00000000 		.4byte	0
 9488              	.LLST16:
 9489 040b 00000000 		.4byte	.LVL97
 9490 040f 48000000 		.4byte	.LVL102
 9491 0413 0100     		.2byte	0x1
 9492 0415 51       		.byte	0x51
 9493 0416 48000000 		.4byte	.LVL102
 9494 041a 54000000 		.4byte	.LVL103
 9495 041e 0400     		.2byte	0x4
 9496 0420 F3       		.byte	0xf3
 9497 0421 01       		.uleb128 0x1
 9498 0422 51       		.byte	0x51
 9499 0423 9F       		.byte	0x9f
 9500 0424 54000000 		.4byte	.LVL103
 9501 0428 90000000 		.4byte	.LFE129
 9502 042c 0100     		.2byte	0x1
 9503 042e 51       		.byte	0x51
 9504 042f 00000000 		.4byte	0
 9505 0433 00000000 		.4byte	0
 9506              	.LLST17:
 9507 0437 00000000 		.4byte	.LVL97
 9508 043b 3A000000 		.4byte	.LVL100
 9509 043f 0200     		.2byte	0x2
 9510 0441 30       		.byte	0x30
 9511 0442 9F       		.byte	0x9f
 9512 0443 3A000000 		.4byte	.LVL100
 9513 0447 90000000 		.4byte	.LFE129
 9514 044b 0100     		.2byte	0x1
 9515 044d 52       		.byte	0x52
 9516 044e 00000000 		.4byte	0
 9517 0452 00000000 		.4byte	0
 9518              	.LLST18:
 9519 0456 00000000 		.4byte	.LVL97
ARM GAS  /tmp/ccJZ9K5Y.s 			page 168


 9520 045a 14000000 		.4byte	.LVL98
 9521 045e 0200     		.2byte	0x2
 9522 0460 30       		.byte	0x30
 9523 0461 9F       		.byte	0x9f
 9524 0462 14000000 		.4byte	.LVL98
 9525 0466 2E000000 		.4byte	.LVL99
 9526 046a 0100     		.2byte	0x1
 9527 046c 52       		.byte	0x52
 9528 046d 3E000000 		.4byte	.LVL101
 9529 0471 64000000 		.4byte	.LVL104
 9530 0475 0100     		.2byte	0x1
 9531 0477 53       		.byte	0x53
 9532 0478 64000000 		.4byte	.LVL104
 9533 047c 74000000 		.4byte	.LVL106
 9534 0480 0100     		.2byte	0x1
 9535 0482 5E       		.byte	0x5e
 9536 0483 74000000 		.4byte	.LVL106
 9537 0487 82000000 		.4byte	.LVL108
 9538 048b 0100     		.2byte	0x1
 9539 048d 54       		.byte	0x54
 9540 048e 82000000 		.4byte	.LVL108
 9541 0492 90000000 		.4byte	.LFE129
 9542 0496 0100     		.2byte	0x1
 9543 0498 53       		.byte	0x53
 9544 0499 00000000 		.4byte	0
 9545 049d 00000000 		.4byte	0
 9546              	.LLST19:
 9547 04a1 00000000 		.4byte	.LVL97
 9548 04a5 3A000000 		.4byte	.LVL100
 9549 04a9 0200     		.2byte	0x2
 9550 04ab 30       		.byte	0x30
 9551 04ac 9F       		.byte	0x9f
 9552 04ad 3A000000 		.4byte	.LVL100
 9553 04b1 78000000 		.4byte	.LVL107
 9554 04b5 0100     		.2byte	0x1
 9555 04b7 55       		.byte	0x55
 9556 04b8 82000000 		.4byte	.LVL108
 9557 04bc 84000000 		.4byte	.LVL109
 9558 04c0 0A00     		.2byte	0xa
 9559 04c2 71       		.byte	0x71
 9560 04c3 10       		.sleb128 16
 9561 04c4 94       		.byte	0x94
 9562 04c5 02       		.byte	0x2
 9563 04c6 34       		.byte	0x34
 9564 04c7 24       		.byte	0x24
 9565 04c8 76       		.byte	0x76
 9566 04c9 00       		.sleb128 0
 9567 04ca 21       		.byte	0x21
 9568 04cb 9F       		.byte	0x9f
 9569 04cc 84000000 		.4byte	.LVL109
 9570 04d0 90000000 		.4byte	.LFE129
 9571 04d4 0100     		.2byte	0x1
 9572 04d6 55       		.byte	0x55
 9573 04d7 00000000 		.4byte	0
 9574 04db 00000000 		.4byte	0
 9575              	.LLST20:
 9576 04df 00000000 		.4byte	.LVL110
ARM GAS  /tmp/ccJZ9K5Y.s 			page 169


 9577 04e3 50000000 		.4byte	.LVL114
 9578 04e7 0100     		.2byte	0x1
 9579 04e9 51       		.byte	0x51
 9580 04ea 50000000 		.4byte	.LVL114
 9581 04ee 5C000000 		.4byte	.LVL115
 9582 04f2 0400     		.2byte	0x4
 9583 04f4 F3       		.byte	0xf3
 9584 04f5 01       		.uleb128 0x1
 9585 04f6 51       		.byte	0x51
 9586 04f7 9F       		.byte	0x9f
 9587 04f8 5C000000 		.4byte	.LVL115
 9588 04fc 74000000 		.4byte	.LFE130
 9589 0500 0100     		.2byte	0x1
 9590 0502 51       		.byte	0x51
 9591 0503 00000000 		.4byte	0
 9592 0507 00000000 		.4byte	0
 9593              	.LLST21:
 9594 050b 00000000 		.4byte	.LVL110
 9595 050f 44000000 		.4byte	.LVL112
 9596 0513 0200     		.2byte	0x2
 9597 0515 30       		.byte	0x30
 9598 0516 9F       		.byte	0x9f
 9599 0517 44000000 		.4byte	.LVL112
 9600 051b 46000000 		.4byte	.LVL113
 9601 051f 0700     		.2byte	0x7
 9602 0521 7E       		.byte	0x7e
 9603 0522 00       		.sleb128 0
 9604 0523 0A       		.byte	0xa
 9605 0524 FF8C     		.2byte	0x8cff
 9606 0526 1A       		.byte	0x1a
 9607 0527 9F       		.byte	0x9f
 9608 0528 46000000 		.4byte	.LVL113
 9609 052c 74000000 		.4byte	.LFE130
 9610 0530 0100     		.2byte	0x1
 9611 0532 52       		.byte	0x52
 9612 0533 00000000 		.4byte	0
 9613 0537 00000000 		.4byte	0
 9614              	.LLST22:
 9615 053b 00000000 		.4byte	.LVL110
 9616 053f 16000000 		.4byte	.LVL111
 9617 0543 0200     		.2byte	0x2
 9618 0545 30       		.byte	0x30
 9619 0546 9F       		.byte	0x9f
 9620 0547 16000000 		.4byte	.LVL111
 9621 054b 46000000 		.4byte	.LVL113
 9622 054f 0100     		.2byte	0x1
 9623 0551 58       		.byte	0x58
 9624 0552 46000000 		.4byte	.LVL113
 9625 0556 74000000 		.4byte	.LFE130
 9626 055a 0100     		.2byte	0x1
 9627 055c 53       		.byte	0x53
 9628 055d 00000000 		.4byte	0
 9629 0561 00000000 		.4byte	0
 9630              	.LLST23:
 9631 0565 00000000 		.4byte	.LVL110
 9632 0569 44000000 		.4byte	.LVL112
 9633 056d 0200     		.2byte	0x2
ARM GAS  /tmp/ccJZ9K5Y.s 			page 170


 9634 056f 30       		.byte	0x30
 9635 0570 9F       		.byte	0x9f
 9636 0571 44000000 		.4byte	.LVL112
 9637 0575 66000000 		.4byte	.LVL117
 9638 0579 0100     		.2byte	0x1
 9639 057b 54       		.byte	0x54
 9640 057c 68000000 		.4byte	.LVL118
 9641 0580 74000000 		.4byte	.LFE130
 9642 0584 0100     		.2byte	0x1
 9643 0586 54       		.byte	0x54
 9644 0587 00000000 		.4byte	0
 9645 058b 00000000 		.4byte	0
 9646              	.LLST24:
 9647 058f 00000000 		.4byte	.LVL120
 9648 0593 16000000 		.4byte	.LVL121
 9649 0597 0100     		.2byte	0x1
 9650 0599 50       		.byte	0x50
 9651 059a 16000000 		.4byte	.LVL121
 9652 059e 50000000 		.4byte	.LFE132
 9653 05a2 0300     		.2byte	0x3
 9654 05a4 70       		.byte	0x70
 9655 05a5 68       		.sleb128 -24
 9656 05a6 9F       		.byte	0x9f
 9657 05a7 00000000 		.4byte	0
 9658 05ab 00000000 		.4byte	0
 9659              	.LLST25:
 9660 05af 00000000 		.4byte	.LVL120
 9661 05b3 1A000000 		.4byte	.LVL123
 9662 05b7 0100     		.2byte	0x1
 9663 05b9 51       		.byte	0x51
 9664 05ba 1A000000 		.4byte	.LVL123
 9665 05be 38000000 		.4byte	.LVL125
 9666 05c2 0400     		.2byte	0x4
 9667 05c4 F3       		.byte	0xf3
 9668 05c5 01       		.uleb128 0x1
 9669 05c6 51       		.byte	0x51
 9670 05c7 9F       		.byte	0x9f
 9671 05c8 38000000 		.4byte	.LVL125
 9672 05cc 3A000000 		.4byte	.LVL126
 9673 05d0 0100     		.2byte	0x1
 9674 05d2 51       		.byte	0x51
 9675 05d3 3A000000 		.4byte	.LVL126
 9676 05d7 50000000 		.4byte	.LFE132
 9677 05db 0400     		.2byte	0x4
 9678 05dd F3       		.byte	0xf3
 9679 05de 01       		.uleb128 0x1
 9680 05df 51       		.byte	0x51
 9681 05e0 9F       		.byte	0x9f
 9682 05e1 00000000 		.4byte	0
 9683 05e5 00000000 		.4byte	0
 9684              	.LLST26:
 9685 05e9 00000000 		.4byte	.LVL120
 9686 05ed 2A000000 		.4byte	.LVL124
 9687 05f1 0100     		.2byte	0x1
 9688 05f3 52       		.byte	0x52
 9689 05f4 2A000000 		.4byte	.LVL124
 9690 05f8 38000000 		.4byte	.LVL125
ARM GAS  /tmp/ccJZ9K5Y.s 			page 171


 9691 05fc 0400     		.2byte	0x4
 9692 05fe F3       		.byte	0xf3
 9693 05ff 01       		.uleb128 0x1
 9694 0600 52       		.byte	0x52
 9695 0601 9F       		.byte	0x9f
 9696 0602 38000000 		.4byte	.LVL125
 9697 0606 4C000000 		.4byte	.LVL127
 9698 060a 0100     		.2byte	0x1
 9699 060c 52       		.byte	0x52
 9700 060d 4C000000 		.4byte	.LVL127
 9701 0611 50000000 		.4byte	.LFE132
 9702 0615 0400     		.2byte	0x4
 9703 0617 F3       		.byte	0xf3
 9704 0618 01       		.uleb128 0x1
 9705 0619 52       		.byte	0x52
 9706 061a 9F       		.byte	0x9f
 9707 061b 00000000 		.4byte	0
 9708 061f 00000000 		.4byte	0
 9709              	.LLST27:
 9710 0623 00000000 		.4byte	.LVL120
 9711 0627 18000000 		.4byte	.LVL122
 9712 062b 0100     		.2byte	0x1
 9713 062d 50       		.byte	0x50
 9714 062e 18000000 		.4byte	.LVL122
 9715 0632 1A000000 		.4byte	.LVL123
 9716 0636 0C00     		.2byte	0xc
 9717 0638 71       		.byte	0x71
 9718 0639 7C       		.sleb128 -4
 9719 063a 31       		.byte	0x31
 9720 063b 25       		.byte	0x25
 9721 063c 0A       		.byte	0xa
 9722 063d FFFF     		.2byte	0xffff
 9723 063f 1A       		.byte	0x1a
 9724 0640 70       		.byte	0x70
 9725 0641 00       		.sleb128 0
 9726 0642 22       		.byte	0x22
 9727 0643 9F       		.byte	0x9f
 9728 0644 1A000000 		.4byte	.LVL123
 9729 0648 38000000 		.4byte	.LVL125
 9730 064c 0F00     		.2byte	0xf
 9731 064e F3       		.byte	0xf3
 9732 064f 01       		.uleb128 0x1
 9733 0650 51       		.byte	0x51
 9734 0651 34       		.byte	0x34
 9735 0652 1C       		.byte	0x1c
 9736 0653 31       		.byte	0x31
 9737 0654 25       		.byte	0x25
 9738 0655 0A       		.byte	0xa
 9739 0656 FFFF     		.2byte	0xffff
 9740 0658 1A       		.byte	0x1a
 9741 0659 70       		.byte	0x70
 9742 065a 00       		.sleb128 0
 9743 065b 22       		.byte	0x22
 9744 065c 9F       		.byte	0x9f
 9745 065d 38000000 		.4byte	.LVL125
 9746 0661 3A000000 		.4byte	.LVL126
 9747 0665 0C00     		.2byte	0xc
ARM GAS  /tmp/ccJZ9K5Y.s 			page 172


 9748 0667 71       		.byte	0x71
 9749 0668 00       		.sleb128 0
 9750 0669 31       		.byte	0x31
 9751 066a 25       		.byte	0x25
 9752 066b 0A       		.byte	0xa
 9753 066c FFFF     		.2byte	0xffff
 9754 066e 1A       		.byte	0x1a
 9755 066f 70       		.byte	0x70
 9756 0670 00       		.sleb128 0
 9757 0671 22       		.byte	0x22
 9758 0672 9F       		.byte	0x9f
 9759 0673 3A000000 		.4byte	.LVL126
 9760 0677 50000000 		.4byte	.LFE132
 9761 067b 0D00     		.2byte	0xd
 9762 067d F3       		.byte	0xf3
 9763 067e 01       		.uleb128 0x1
 9764 067f 51       		.byte	0x51
 9765 0680 31       		.byte	0x31
 9766 0681 25       		.byte	0x25
 9767 0682 0A       		.byte	0xa
 9768 0683 FFFF     		.2byte	0xffff
 9769 0685 1A       		.byte	0x1a
 9770 0686 70       		.byte	0x70
 9771 0687 00       		.sleb128 0
 9772 0688 22       		.byte	0x22
 9773 0689 9F       		.byte	0x9f
 9774 068a 00000000 		.4byte	0
 9775 068e 00000000 		.4byte	0
 9776              	.LLST28:
 9777 0692 00000000 		.4byte	.LVL120
 9778 0696 16000000 		.4byte	.LVL121
 9779 069a 0200     		.2byte	0x2
 9780 069c 30       		.byte	0x30
 9781 069d 9F       		.byte	0x9f
 9782 069e 00000000 		.4byte	0
 9783 06a2 00000000 		.4byte	0
 9784              	.LLST29:
 9785 06a6 00000000 		.4byte	.LVL132
 9786 06aa 0A000000 		.4byte	.LVL135
 9787 06ae 0100     		.2byte	0x1
 9788 06b0 51       		.byte	0x51
 9789 06b1 0A000000 		.4byte	.LVL135
 9790 06b5 0E000000 		.4byte	.LFE137
 9791 06b9 0400     		.2byte	0x4
 9792 06bb F3       		.byte	0xf3
 9793 06bc 01       		.uleb128 0x1
 9794 06bd 51       		.byte	0x51
 9795 06be 9F       		.byte	0x9f
 9796 06bf 00000000 		.4byte	0
 9797 06c3 00000000 		.4byte	0
 9798              	.LLST30:
 9799 06c7 00000000 		.4byte	.LVL132
 9800 06cb 02000000 		.4byte	.LVL133
 9801 06cf 0200     		.2byte	0x2
 9802 06d1 30       		.byte	0x30
 9803 06d2 9F       		.byte	0x9f
 9804 06d3 02000000 		.4byte	.LVL133
ARM GAS  /tmp/ccJZ9K5Y.s 			page 173


 9805 06d7 08000000 		.4byte	.LVL134
 9806 06db 0100     		.2byte	0x1
 9807 06dd 52       		.byte	0x52
 9808 06de 08000000 		.4byte	.LVL134
 9809 06e2 0A000000 		.4byte	.LVL135
 9810 06e6 0600     		.2byte	0x6
 9811 06e8 71       		.byte	0x71
 9812 06e9 00       		.sleb128 0
 9813 06ea 73       		.byte	0x73
 9814 06eb 00       		.sleb128 0
 9815 06ec 21       		.byte	0x21
 9816 06ed 9F       		.byte	0x9f
 9817 06ee 0A000000 		.4byte	.LVL135
 9818 06f2 0E000000 		.4byte	.LFE137
 9819 06f6 0700     		.2byte	0x7
 9820 06f8 F3       		.byte	0xf3
 9821 06f9 01       		.uleb128 0x1
 9822 06fa 51       		.byte	0x51
 9823 06fb 73       		.byte	0x73
 9824 06fc 00       		.sleb128 0
 9825 06fd 21       		.byte	0x21
 9826 06fe 9F       		.byte	0x9f
 9827 06ff 00000000 		.4byte	0
 9828 0703 00000000 		.4byte	0
 9829              	.LLST31:
 9830 0707 00000000 		.4byte	.LVL136
 9831 070b 0C000000 		.4byte	.LVL139
 9832 070f 0100     		.2byte	0x1
 9833 0711 51       		.byte	0x51
 9834 0712 0C000000 		.4byte	.LVL139
 9835 0716 12000000 		.4byte	.LFE138
 9836 071a 0400     		.2byte	0x4
 9837 071c F3       		.byte	0xf3
 9838 071d 01       		.uleb128 0x1
 9839 071e 51       		.byte	0x51
 9840 071f 9F       		.byte	0x9f
 9841 0720 00000000 		.4byte	0
 9842 0724 00000000 		.4byte	0
 9843              	.LLST32:
 9844 0728 00000000 		.4byte	.LVL136
 9845 072c 02000000 		.4byte	.LVL137
 9846 0730 0200     		.2byte	0x2
 9847 0732 30       		.byte	0x30
 9848 0733 9F       		.byte	0x9f
 9849 0734 02000000 		.4byte	.LVL137
 9850 0738 08000000 		.4byte	.LVL138
 9851 073c 0100     		.2byte	0x1
 9852 073e 52       		.byte	0x52
 9853 073f 08000000 		.4byte	.LVL138
 9854 0743 0C000000 		.4byte	.LVL139
 9855 0747 0800     		.2byte	0x8
 9856 0749 71       		.byte	0x71
 9857 074a 00       		.sleb128 0
 9858 074b 38       		.byte	0x38
 9859 074c 24       		.byte	0x24
 9860 074d 73       		.byte	0x73
 9861 074e 00       		.sleb128 0
ARM GAS  /tmp/ccJZ9K5Y.s 			page 174


 9862 074f 21       		.byte	0x21
 9863 0750 9F       		.byte	0x9f
 9864 0751 0C000000 		.4byte	.LVL139
 9865 0755 12000000 		.4byte	.LFE138
 9866 0759 0900     		.2byte	0x9
 9867 075b F3       		.byte	0xf3
 9868 075c 01       		.uleb128 0x1
 9869 075d 51       		.byte	0x51
 9870 075e 38       		.byte	0x38
 9871 075f 24       		.byte	0x24
 9872 0760 73       		.byte	0x73
 9873 0761 00       		.sleb128 0
 9874 0762 21       		.byte	0x21
 9875 0763 9F       		.byte	0x9f
 9876 0764 00000000 		.4byte	0
 9877 0768 00000000 		.4byte	0
 9878              	.LLST33:
 9879 076c 00000000 		.4byte	.LVL140
 9880 0770 0A000000 		.4byte	.LVL143
 9881 0774 0100     		.2byte	0x1
 9882 0776 51       		.byte	0x51
 9883 0777 0A000000 		.4byte	.LVL143
 9884 077b 0E000000 		.4byte	.LFE139
 9885 077f 0400     		.2byte	0x4
 9886 0781 F3       		.byte	0xf3
 9887 0782 01       		.uleb128 0x1
 9888 0783 51       		.byte	0x51
 9889 0784 9F       		.byte	0x9f
 9890 0785 00000000 		.4byte	0
 9891 0789 00000000 		.4byte	0
 9892              	.LLST34:
 9893 078d 00000000 		.4byte	.LVL140
 9894 0791 02000000 		.4byte	.LVL141
 9895 0795 0200     		.2byte	0x2
 9896 0797 30       		.byte	0x30
 9897 0798 9F       		.byte	0x9f
 9898 0799 02000000 		.4byte	.LVL141
 9899 079d 08000000 		.4byte	.LVL142
 9900 07a1 0100     		.2byte	0x1
 9901 07a3 52       		.byte	0x52
 9902 07a4 08000000 		.4byte	.LVL142
 9903 07a8 0A000000 		.4byte	.LVL143
 9904 07ac 0600     		.2byte	0x6
 9905 07ae 71       		.byte	0x71
 9906 07af 00       		.sleb128 0
 9907 07b0 73       		.byte	0x73
 9908 07b1 00       		.sleb128 0
 9909 07b2 21       		.byte	0x21
 9910 07b3 9F       		.byte	0x9f
 9911 07b4 0A000000 		.4byte	.LVL143
 9912 07b8 0E000000 		.4byte	.LFE139
 9913 07bc 0700     		.2byte	0x7
 9914 07be F3       		.byte	0xf3
 9915 07bf 01       		.uleb128 0x1
 9916 07c0 51       		.byte	0x51
 9917 07c1 73       		.byte	0x73
 9918 07c2 00       		.sleb128 0
ARM GAS  /tmp/ccJZ9K5Y.s 			page 175


 9919 07c3 21       		.byte	0x21
 9920 07c4 9F       		.byte	0x9f
 9921 07c5 00000000 		.4byte	0
 9922 07c9 00000000 		.4byte	0
 9923              	.LLST35:
 9924 07cd 00000000 		.4byte	.LVL144
 9925 07d1 0C000000 		.4byte	.LVL147
 9926 07d5 0100     		.2byte	0x1
 9927 07d7 51       		.byte	0x51
 9928 07d8 0C000000 		.4byte	.LVL147
 9929 07dc 12000000 		.4byte	.LFE140
 9930 07e0 0400     		.2byte	0x4
 9931 07e2 F3       		.byte	0xf3
 9932 07e3 01       		.uleb128 0x1
 9933 07e4 51       		.byte	0x51
 9934 07e5 9F       		.byte	0x9f
 9935 07e6 00000000 		.4byte	0
 9936 07ea 00000000 		.4byte	0
 9937              	.LLST36:
 9938 07ee 00000000 		.4byte	.LVL144
 9939 07f2 02000000 		.4byte	.LVL145
 9940 07f6 0200     		.2byte	0x2
 9941 07f8 30       		.byte	0x30
 9942 07f9 9F       		.byte	0x9f
 9943 07fa 02000000 		.4byte	.LVL145
 9944 07fe 08000000 		.4byte	.LVL146
 9945 0802 0100     		.2byte	0x1
 9946 0804 52       		.byte	0x52
 9947 0805 08000000 		.4byte	.LVL146
 9948 0809 0C000000 		.4byte	.LVL147
 9949 080d 0800     		.2byte	0x8
 9950 080f 71       		.byte	0x71
 9951 0810 00       		.sleb128 0
 9952 0811 38       		.byte	0x38
 9953 0812 24       		.byte	0x24
 9954 0813 73       		.byte	0x73
 9955 0814 00       		.sleb128 0
 9956 0815 21       		.byte	0x21
 9957 0816 9F       		.byte	0x9f
 9958 0817 0C000000 		.4byte	.LVL147
 9959 081b 12000000 		.4byte	.LFE140
 9960 081f 0900     		.2byte	0x9
 9961 0821 F3       		.byte	0xf3
 9962 0822 01       		.uleb128 0x1
 9963 0823 51       		.byte	0x51
 9964 0824 38       		.byte	0x38
 9965 0825 24       		.byte	0x24
 9966 0826 73       		.byte	0x73
 9967 0827 00       		.sleb128 0
 9968 0828 21       		.byte	0x21
 9969 0829 9F       		.byte	0x9f
 9970 082a 00000000 		.4byte	0
 9971 082e 00000000 		.4byte	0
 9972              	.LLST37:
 9973 0832 00000000 		.4byte	.LVL148
 9974 0836 0A000000 		.4byte	.LVL151
 9975 083a 0100     		.2byte	0x1
ARM GAS  /tmp/ccJZ9K5Y.s 			page 176


 9976 083c 51       		.byte	0x51
 9977 083d 0A000000 		.4byte	.LVL151
 9978 0841 0E000000 		.4byte	.LFE141
 9979 0845 0400     		.2byte	0x4
 9980 0847 F3       		.byte	0xf3
 9981 0848 01       		.uleb128 0x1
 9982 0849 51       		.byte	0x51
 9983 084a 9F       		.byte	0x9f
 9984 084b 00000000 		.4byte	0
 9985 084f 00000000 		.4byte	0
 9986              	.LLST38:
 9987 0853 00000000 		.4byte	.LVL148
 9988 0857 02000000 		.4byte	.LVL149
 9989 085b 0200     		.2byte	0x2
 9990 085d 30       		.byte	0x30
 9991 085e 9F       		.byte	0x9f
 9992 085f 02000000 		.4byte	.LVL149
 9993 0863 08000000 		.4byte	.LVL150
 9994 0867 0100     		.2byte	0x1
 9995 0869 52       		.byte	0x52
 9996 086a 08000000 		.4byte	.LVL150
 9997 086e 0A000000 		.4byte	.LVL151
 9998 0872 0600     		.2byte	0x6
 9999 0874 71       		.byte	0x71
 10000 0875 00       		.sleb128 0
 10001 0876 73       		.byte	0x73
 10002 0877 00       		.sleb128 0
 10003 0878 21       		.byte	0x21
 10004 0879 9F       		.byte	0x9f
 10005 087a 0A000000 		.4byte	.LVL151
 10006 087e 0E000000 		.4byte	.LFE141
 10007 0882 0700     		.2byte	0x7
 10008 0884 F3       		.byte	0xf3
 10009 0885 01       		.uleb128 0x1
 10010 0886 51       		.byte	0x51
 10011 0887 73       		.byte	0x73
 10012 0888 00       		.sleb128 0
 10013 0889 21       		.byte	0x21
 10014 088a 9F       		.byte	0x9f
 10015 088b 00000000 		.4byte	0
 10016 088f 00000000 		.4byte	0
 10017              	.LLST39:
 10018 0893 00000000 		.4byte	.LVL152
 10019 0897 0C000000 		.4byte	.LVL155
 10020 089b 0100     		.2byte	0x1
 10021 089d 51       		.byte	0x51
 10022 089e 0C000000 		.4byte	.LVL155
 10023 08a2 12000000 		.4byte	.LFE142
 10024 08a6 0400     		.2byte	0x4
 10025 08a8 F3       		.byte	0xf3
 10026 08a9 01       		.uleb128 0x1
 10027 08aa 51       		.byte	0x51
 10028 08ab 9F       		.byte	0x9f
 10029 08ac 00000000 		.4byte	0
 10030 08b0 00000000 		.4byte	0
 10031              	.LLST40:
 10032 08b4 00000000 		.4byte	.LVL152
ARM GAS  /tmp/ccJZ9K5Y.s 			page 177


 10033 08b8 02000000 		.4byte	.LVL153
 10034 08bc 0200     		.2byte	0x2
 10035 08be 30       		.byte	0x30
 10036 08bf 9F       		.byte	0x9f
 10037 08c0 02000000 		.4byte	.LVL153
 10038 08c4 08000000 		.4byte	.LVL154
 10039 08c8 0100     		.2byte	0x1
 10040 08ca 52       		.byte	0x52
 10041 08cb 08000000 		.4byte	.LVL154
 10042 08cf 0C000000 		.4byte	.LVL155
 10043 08d3 0800     		.2byte	0x8
 10044 08d5 71       		.byte	0x71
 10045 08d6 00       		.sleb128 0
 10046 08d7 38       		.byte	0x38
 10047 08d8 24       		.byte	0x24
 10048 08d9 73       		.byte	0x73
 10049 08da 00       		.sleb128 0
 10050 08db 21       		.byte	0x21
 10051 08dc 9F       		.byte	0x9f
 10052 08dd 0C000000 		.4byte	.LVL155
 10053 08e1 12000000 		.4byte	.LFE142
 10054 08e5 0900     		.2byte	0x9
 10055 08e7 F3       		.byte	0xf3
 10056 08e8 01       		.uleb128 0x1
 10057 08e9 51       		.byte	0x51
 10058 08ea 38       		.byte	0x38
 10059 08eb 24       		.byte	0x24
 10060 08ec 73       		.byte	0x73
 10061 08ed 00       		.sleb128 0
 10062 08ee 21       		.byte	0x21
 10063 08ef 9F       		.byte	0x9f
 10064 08f0 00000000 		.4byte	0
 10065 08f4 00000000 		.4byte	0
 10066              	.LLST41:
 10067 08f8 00000000 		.4byte	.LVL156
 10068 08fc 0A000000 		.4byte	.LVL159
 10069 0900 0100     		.2byte	0x1
 10070 0902 51       		.byte	0x51
 10071 0903 0A000000 		.4byte	.LVL159
 10072 0907 0E000000 		.4byte	.LFE143
 10073 090b 0400     		.2byte	0x4
 10074 090d F3       		.byte	0xf3
 10075 090e 01       		.uleb128 0x1
 10076 090f 51       		.byte	0x51
 10077 0910 9F       		.byte	0x9f
 10078 0911 00000000 		.4byte	0
 10079 0915 00000000 		.4byte	0
 10080              	.LLST42:
 10081 0919 00000000 		.4byte	.LVL156
 10082 091d 02000000 		.4byte	.LVL157
 10083 0921 0200     		.2byte	0x2
 10084 0923 30       		.byte	0x30
 10085 0924 9F       		.byte	0x9f
 10086 0925 02000000 		.4byte	.LVL157
 10087 0929 08000000 		.4byte	.LVL158
 10088 092d 0100     		.2byte	0x1
 10089 092f 52       		.byte	0x52
ARM GAS  /tmp/ccJZ9K5Y.s 			page 178


 10090 0930 08000000 		.4byte	.LVL158
 10091 0934 0A000000 		.4byte	.LVL159
 10092 0938 0600     		.2byte	0x6
 10093 093a 71       		.byte	0x71
 10094 093b 00       		.sleb128 0
 10095 093c 73       		.byte	0x73
 10096 093d 00       		.sleb128 0
 10097 093e 21       		.byte	0x21
 10098 093f 9F       		.byte	0x9f
 10099 0940 0A000000 		.4byte	.LVL159
 10100 0944 0E000000 		.4byte	.LFE143
 10101 0948 0700     		.2byte	0x7
 10102 094a F3       		.byte	0xf3
 10103 094b 01       		.uleb128 0x1
 10104 094c 51       		.byte	0x51
 10105 094d 73       		.byte	0x73
 10106 094e 00       		.sleb128 0
 10107 094f 21       		.byte	0x21
 10108 0950 9F       		.byte	0x9f
 10109 0951 00000000 		.4byte	0
 10110 0955 00000000 		.4byte	0
 10111              	.LLST43:
 10112 0959 00000000 		.4byte	.LVL160
 10113 095d 0C000000 		.4byte	.LVL163
 10114 0961 0100     		.2byte	0x1
 10115 0963 51       		.byte	0x51
 10116 0964 0C000000 		.4byte	.LVL163
 10117 0968 12000000 		.4byte	.LFE144
 10118 096c 0400     		.2byte	0x4
 10119 096e F3       		.byte	0xf3
 10120 096f 01       		.uleb128 0x1
 10121 0970 51       		.byte	0x51
 10122 0971 9F       		.byte	0x9f
 10123 0972 00000000 		.4byte	0
 10124 0976 00000000 		.4byte	0
 10125              	.LLST44:
 10126 097a 00000000 		.4byte	.LVL160
 10127 097e 02000000 		.4byte	.LVL161
 10128 0982 0200     		.2byte	0x2
 10129 0984 30       		.byte	0x30
 10130 0985 9F       		.byte	0x9f
 10131 0986 02000000 		.4byte	.LVL161
 10132 098a 08000000 		.4byte	.LVL162
 10133 098e 0100     		.2byte	0x1
 10134 0990 52       		.byte	0x52
 10135 0991 08000000 		.4byte	.LVL162
 10136 0995 0C000000 		.4byte	.LVL163
 10137 0999 0800     		.2byte	0x8
 10138 099b 71       		.byte	0x71
 10139 099c 00       		.sleb128 0
 10140 099d 38       		.byte	0x38
 10141 099e 24       		.byte	0x24
 10142 099f 73       		.byte	0x73
 10143 09a0 00       		.sleb128 0
 10144 09a1 21       		.byte	0x21
 10145 09a2 9F       		.byte	0x9f
 10146 09a3 0C000000 		.4byte	.LVL163
ARM GAS  /tmp/ccJZ9K5Y.s 			page 179


 10147 09a7 12000000 		.4byte	.LFE144
 10148 09ab 0900     		.2byte	0x9
 10149 09ad F3       		.byte	0xf3
 10150 09ae 01       		.uleb128 0x1
 10151 09af 51       		.byte	0x51
 10152 09b0 38       		.byte	0x38
 10153 09b1 24       		.byte	0x24
 10154 09b2 73       		.byte	0x73
 10155 09b3 00       		.sleb128 0
 10156 09b4 21       		.byte	0x21
 10157 09b5 9F       		.byte	0x9f
 10158 09b6 00000000 		.4byte	0
 10159 09ba 00000000 		.4byte	0
 10160              	.LLST45:
 10161 09be 00000000 		.4byte	.LVL164
 10162 09c2 0A000000 		.4byte	.LVL167
 10163 09c6 0100     		.2byte	0x1
 10164 09c8 51       		.byte	0x51
 10165 09c9 0A000000 		.4byte	.LVL167
 10166 09cd 0E000000 		.4byte	.LFE145
 10167 09d1 0400     		.2byte	0x4
 10168 09d3 F3       		.byte	0xf3
 10169 09d4 01       		.uleb128 0x1
 10170 09d5 51       		.byte	0x51
 10171 09d6 9F       		.byte	0x9f
 10172 09d7 00000000 		.4byte	0
 10173 09db 00000000 		.4byte	0
 10174              	.LLST46:
 10175 09df 00000000 		.4byte	.LVL164
 10176 09e3 02000000 		.4byte	.LVL165
 10177 09e7 0200     		.2byte	0x2
 10178 09e9 30       		.byte	0x30
 10179 09ea 9F       		.byte	0x9f
 10180 09eb 02000000 		.4byte	.LVL165
 10181 09ef 08000000 		.4byte	.LVL166
 10182 09f3 0100     		.2byte	0x1
 10183 09f5 52       		.byte	0x52
 10184 09f6 08000000 		.4byte	.LVL166
 10185 09fa 0A000000 		.4byte	.LVL167
 10186 09fe 0600     		.2byte	0x6
 10187 0a00 71       		.byte	0x71
 10188 0a01 00       		.sleb128 0
 10189 0a02 73       		.byte	0x73
 10190 0a03 00       		.sleb128 0
 10191 0a04 21       		.byte	0x21
 10192 0a05 9F       		.byte	0x9f
 10193 0a06 0A000000 		.4byte	.LVL167
 10194 0a0a 0E000000 		.4byte	.LFE145
 10195 0a0e 0700     		.2byte	0x7
 10196 0a10 F3       		.byte	0xf3
 10197 0a11 01       		.uleb128 0x1
 10198 0a12 51       		.byte	0x51
 10199 0a13 73       		.byte	0x73
 10200 0a14 00       		.sleb128 0
 10201 0a15 21       		.byte	0x21
 10202 0a16 9F       		.byte	0x9f
 10203 0a17 00000000 		.4byte	0
ARM GAS  /tmp/ccJZ9K5Y.s 			page 180


 10204 0a1b 00000000 		.4byte	0
 10205              	.LLST47:
 10206 0a1f 00000000 		.4byte	.LVL168
 10207 0a23 0C000000 		.4byte	.LVL171
 10208 0a27 0100     		.2byte	0x1
 10209 0a29 51       		.byte	0x51
 10210 0a2a 0C000000 		.4byte	.LVL171
 10211 0a2e 12000000 		.4byte	.LFE146
 10212 0a32 0400     		.2byte	0x4
 10213 0a34 F3       		.byte	0xf3
 10214 0a35 01       		.uleb128 0x1
 10215 0a36 51       		.byte	0x51
 10216 0a37 9F       		.byte	0x9f
 10217 0a38 00000000 		.4byte	0
 10218 0a3c 00000000 		.4byte	0
 10219              	.LLST48:
 10220 0a40 00000000 		.4byte	.LVL168
 10221 0a44 02000000 		.4byte	.LVL169
 10222 0a48 0200     		.2byte	0x2
 10223 0a4a 30       		.byte	0x30
 10224 0a4b 9F       		.byte	0x9f
 10225 0a4c 02000000 		.4byte	.LVL169
 10226 0a50 08000000 		.4byte	.LVL170
 10227 0a54 0100     		.2byte	0x1
 10228 0a56 52       		.byte	0x52
 10229 0a57 08000000 		.4byte	.LVL170
 10230 0a5b 0C000000 		.4byte	.LVL171
 10231 0a5f 0800     		.2byte	0x8
 10232 0a61 71       		.byte	0x71
 10233 0a62 00       		.sleb128 0
 10234 0a63 38       		.byte	0x38
 10235 0a64 24       		.byte	0x24
 10236 0a65 73       		.byte	0x73
 10237 0a66 00       		.sleb128 0
 10238 0a67 21       		.byte	0x21
 10239 0a68 9F       		.byte	0x9f
 10240 0a69 0C000000 		.4byte	.LVL171
 10241 0a6d 12000000 		.4byte	.LFE146
 10242 0a71 0900     		.2byte	0x9
 10243 0a73 F3       		.byte	0xf3
 10244 0a74 01       		.uleb128 0x1
 10245 0a75 51       		.byte	0x51
 10246 0a76 38       		.byte	0x38
 10247 0a77 24       		.byte	0x24
 10248 0a78 73       		.byte	0x73
 10249 0a79 00       		.sleb128 0
 10250 0a7a 21       		.byte	0x21
 10251 0a7b 9F       		.byte	0x9f
 10252 0a7c 00000000 		.4byte	0
 10253 0a80 00000000 		.4byte	0
 10254              	.LLST49:
 10255 0a84 00000000 		.4byte	.LVL172
 10256 0a88 0A000000 		.4byte	.LVL175
 10257 0a8c 0100     		.2byte	0x1
 10258 0a8e 51       		.byte	0x51
 10259 0a8f 0A000000 		.4byte	.LVL175
 10260 0a93 0E000000 		.4byte	.LFE147
ARM GAS  /tmp/ccJZ9K5Y.s 			page 181


 10261 0a97 0400     		.2byte	0x4
 10262 0a99 F3       		.byte	0xf3
 10263 0a9a 01       		.uleb128 0x1
 10264 0a9b 51       		.byte	0x51
 10265 0a9c 9F       		.byte	0x9f
 10266 0a9d 00000000 		.4byte	0
 10267 0aa1 00000000 		.4byte	0
 10268              	.LLST50:
 10269 0aa5 00000000 		.4byte	.LVL172
 10270 0aa9 02000000 		.4byte	.LVL173
 10271 0aad 0200     		.2byte	0x2
 10272 0aaf 30       		.byte	0x30
 10273 0ab0 9F       		.byte	0x9f
 10274 0ab1 02000000 		.4byte	.LVL173
 10275 0ab5 08000000 		.4byte	.LVL174
 10276 0ab9 0100     		.2byte	0x1
 10277 0abb 52       		.byte	0x52
 10278 0abc 08000000 		.4byte	.LVL174
 10279 0ac0 0A000000 		.4byte	.LVL175
 10280 0ac4 0600     		.2byte	0x6
 10281 0ac6 71       		.byte	0x71
 10282 0ac7 00       		.sleb128 0
 10283 0ac8 73       		.byte	0x73
 10284 0ac9 00       		.sleb128 0
 10285 0aca 21       		.byte	0x21
 10286 0acb 9F       		.byte	0x9f
 10287 0acc 0A000000 		.4byte	.LVL175
 10288 0ad0 0E000000 		.4byte	.LFE147
 10289 0ad4 0700     		.2byte	0x7
 10290 0ad6 F3       		.byte	0xf3
 10291 0ad7 01       		.uleb128 0x1
 10292 0ad8 51       		.byte	0x51
 10293 0ad9 73       		.byte	0x73
 10294 0ada 00       		.sleb128 0
 10295 0adb 21       		.byte	0x21
 10296 0adc 9F       		.byte	0x9f
 10297 0add 00000000 		.4byte	0
 10298 0ae1 00000000 		.4byte	0
 10299              	.LLST51:
 10300 0ae5 00000000 		.4byte	.LVL176
 10301 0ae9 0C000000 		.4byte	.LVL179
 10302 0aed 0100     		.2byte	0x1
 10303 0aef 51       		.byte	0x51
 10304 0af0 0C000000 		.4byte	.LVL179
 10305 0af4 12000000 		.4byte	.LFE148
 10306 0af8 0400     		.2byte	0x4
 10307 0afa F3       		.byte	0xf3
 10308 0afb 01       		.uleb128 0x1
 10309 0afc 51       		.byte	0x51
 10310 0afd 9F       		.byte	0x9f
 10311 0afe 00000000 		.4byte	0
 10312 0b02 00000000 		.4byte	0
 10313              	.LLST52:
 10314 0b06 00000000 		.4byte	.LVL176
 10315 0b0a 02000000 		.4byte	.LVL177
 10316 0b0e 0200     		.2byte	0x2
 10317 0b10 30       		.byte	0x30
ARM GAS  /tmp/ccJZ9K5Y.s 			page 182


 10318 0b11 9F       		.byte	0x9f
 10319 0b12 02000000 		.4byte	.LVL177
 10320 0b16 08000000 		.4byte	.LVL178
 10321 0b1a 0100     		.2byte	0x1
 10322 0b1c 52       		.byte	0x52
 10323 0b1d 08000000 		.4byte	.LVL178
 10324 0b21 0C000000 		.4byte	.LVL179
 10325 0b25 0800     		.2byte	0x8
 10326 0b27 71       		.byte	0x71
 10327 0b28 00       		.sleb128 0
 10328 0b29 38       		.byte	0x38
 10329 0b2a 24       		.byte	0x24
 10330 0b2b 73       		.byte	0x73
 10331 0b2c 00       		.sleb128 0
 10332 0b2d 21       		.byte	0x21
 10333 0b2e 9F       		.byte	0x9f
 10334 0b2f 0C000000 		.4byte	.LVL179
 10335 0b33 12000000 		.4byte	.LFE148
 10336 0b37 0900     		.2byte	0x9
 10337 0b39 F3       		.byte	0xf3
 10338 0b3a 01       		.uleb128 0x1
 10339 0b3b 51       		.byte	0x51
 10340 0b3c 38       		.byte	0x38
 10341 0b3d 24       		.byte	0x24
 10342 0b3e 73       		.byte	0x73
 10343 0b3f 00       		.sleb128 0
 10344 0b40 21       		.byte	0x21
 10345 0b41 9F       		.byte	0x9f
 10346 0b42 00000000 		.4byte	0
 10347 0b46 00000000 		.4byte	0
 10348              	.LLST53:
 10349 0b4a 00000000 		.4byte	.LVL180
 10350 0b4e 0A000000 		.4byte	.LVL183
 10351 0b52 0100     		.2byte	0x1
 10352 0b54 51       		.byte	0x51
 10353 0b55 0A000000 		.4byte	.LVL183
 10354 0b59 0E000000 		.4byte	.LFE149
 10355 0b5d 0400     		.2byte	0x4
 10356 0b5f F3       		.byte	0xf3
 10357 0b60 01       		.uleb128 0x1
 10358 0b61 51       		.byte	0x51
 10359 0b62 9F       		.byte	0x9f
 10360 0b63 00000000 		.4byte	0
 10361 0b67 00000000 		.4byte	0
 10362              	.LLST54:
 10363 0b6b 00000000 		.4byte	.LVL180
 10364 0b6f 02000000 		.4byte	.LVL181
 10365 0b73 0200     		.2byte	0x2
 10366 0b75 30       		.byte	0x30
 10367 0b76 9F       		.byte	0x9f
 10368 0b77 02000000 		.4byte	.LVL181
 10369 0b7b 08000000 		.4byte	.LVL182
 10370 0b7f 0100     		.2byte	0x1
 10371 0b81 52       		.byte	0x52
 10372 0b82 08000000 		.4byte	.LVL182
 10373 0b86 0A000000 		.4byte	.LVL183
 10374 0b8a 0600     		.2byte	0x6
ARM GAS  /tmp/ccJZ9K5Y.s 			page 183


 10375 0b8c 71       		.byte	0x71
 10376 0b8d 00       		.sleb128 0
 10377 0b8e 73       		.byte	0x73
 10378 0b8f 00       		.sleb128 0
 10379 0b90 21       		.byte	0x21
 10380 0b91 9F       		.byte	0x9f
 10381 0b92 0A000000 		.4byte	.LVL183
 10382 0b96 0E000000 		.4byte	.LFE149
 10383 0b9a 0700     		.2byte	0x7
 10384 0b9c F3       		.byte	0xf3
 10385 0b9d 01       		.uleb128 0x1
 10386 0b9e 51       		.byte	0x51
 10387 0b9f 73       		.byte	0x73
 10388 0ba0 00       		.sleb128 0
 10389 0ba1 21       		.byte	0x21
 10390 0ba2 9F       		.byte	0x9f
 10391 0ba3 00000000 		.4byte	0
 10392 0ba7 00000000 		.4byte	0
 10393              	.LLST55:
 10394 0bab 00000000 		.4byte	.LVL184
 10395 0baf 0A000000 		.4byte	.LVL187
 10396 0bb3 0100     		.2byte	0x1
 10397 0bb5 51       		.byte	0x51
 10398 0bb6 0A000000 		.4byte	.LVL187
 10399 0bba 10000000 		.4byte	.LFE150
 10400 0bbe 0400     		.2byte	0x4
 10401 0bc0 F3       		.byte	0xf3
 10402 0bc1 01       		.uleb128 0x1
 10403 0bc2 51       		.byte	0x51
 10404 0bc3 9F       		.byte	0x9f
 10405 0bc4 00000000 		.4byte	0
 10406 0bc8 00000000 		.4byte	0
 10407              	.LLST56:
 10408 0bcc 00000000 		.4byte	.LVL184
 10409 0bd0 02000000 		.4byte	.LVL185
 10410 0bd4 0200     		.2byte	0x2
 10411 0bd6 30       		.byte	0x30
 10412 0bd7 9F       		.byte	0x9f
 10413 0bd8 02000000 		.4byte	.LVL185
 10414 0bdc 06000000 		.4byte	.LVL186
 10415 0be0 0100     		.2byte	0x1
 10416 0be2 53       		.byte	0x53
 10417 0be3 06000000 		.4byte	.LVL186
 10418 0be7 0A000000 		.4byte	.LVL187
 10419 0beb 0800     		.2byte	0x8
 10420 0bed 71       		.byte	0x71
 10421 0bee 00       		.sleb128 0
 10422 0bef 38       		.byte	0x38
 10423 0bf0 24       		.byte	0x24
 10424 0bf1 73       		.byte	0x73
 10425 0bf2 00       		.sleb128 0
 10426 0bf3 21       		.byte	0x21
 10427 0bf4 9F       		.byte	0x9f
 10428 0bf5 0A000000 		.4byte	.LVL187
 10429 0bf9 10000000 		.4byte	.LFE150
 10430 0bfd 0900     		.2byte	0x9
 10431 0bff F3       		.byte	0xf3
ARM GAS  /tmp/ccJZ9K5Y.s 			page 184


 10432 0c00 01       		.uleb128 0x1
 10433 0c01 51       		.byte	0x51
 10434 0c02 38       		.byte	0x38
 10435 0c03 24       		.byte	0x24
 10436 0c04 73       		.byte	0x73
 10437 0c05 00       		.sleb128 0
 10438 0c06 21       		.byte	0x21
 10439 0c07 9F       		.byte	0x9f
 10440 0c08 00000000 		.4byte	0
 10441 0c0c 00000000 		.4byte	0
 10442              	.LLST57:
 10443 0c10 00000000 		.4byte	.LVL188
 10444 0c14 0A000000 		.4byte	.LVL191
 10445 0c18 0100     		.2byte	0x1
 10446 0c1a 51       		.byte	0x51
 10447 0c1b 0A000000 		.4byte	.LVL191
 10448 0c1f 0E000000 		.4byte	.LFE151
 10449 0c23 0400     		.2byte	0x4
 10450 0c25 F3       		.byte	0xf3
 10451 0c26 01       		.uleb128 0x1
 10452 0c27 51       		.byte	0x51
 10453 0c28 9F       		.byte	0x9f
 10454 0c29 00000000 		.4byte	0
 10455 0c2d 00000000 		.4byte	0
 10456              	.LLST58:
 10457 0c31 00000000 		.4byte	.LVL188
 10458 0c35 02000000 		.4byte	.LVL189
 10459 0c39 0200     		.2byte	0x2
 10460 0c3b 30       		.byte	0x30
 10461 0c3c 9F       		.byte	0x9f
 10462 0c3d 02000000 		.4byte	.LVL189
 10463 0c41 08000000 		.4byte	.LVL190
 10464 0c45 0100     		.2byte	0x1
 10465 0c47 52       		.byte	0x52
 10466 0c48 08000000 		.4byte	.LVL190
 10467 0c4c 0A000000 		.4byte	.LVL191
 10468 0c50 0600     		.2byte	0x6
 10469 0c52 71       		.byte	0x71
 10470 0c53 00       		.sleb128 0
 10471 0c54 73       		.byte	0x73
 10472 0c55 00       		.sleb128 0
 10473 0c56 21       		.byte	0x21
 10474 0c57 9F       		.byte	0x9f
 10475 0c58 0A000000 		.4byte	.LVL191
 10476 0c5c 0E000000 		.4byte	.LFE151
 10477 0c60 0700     		.2byte	0x7
 10478 0c62 F3       		.byte	0xf3
 10479 0c63 01       		.uleb128 0x1
 10480 0c64 51       		.byte	0x51
 10481 0c65 73       		.byte	0x73
 10482 0c66 00       		.sleb128 0
 10483 0c67 21       		.byte	0x21
 10484 0c68 9F       		.byte	0x9f
 10485 0c69 00000000 		.4byte	0
 10486 0c6d 00000000 		.4byte	0
 10487              	.LLST59:
 10488 0c71 00000000 		.4byte	.LVL192
ARM GAS  /tmp/ccJZ9K5Y.s 			page 185


 10489 0c75 0A000000 		.4byte	.LVL195
 10490 0c79 0100     		.2byte	0x1
 10491 0c7b 51       		.byte	0x51
 10492 0c7c 0A000000 		.4byte	.LVL195
 10493 0c80 10000000 		.4byte	.LFE152
 10494 0c84 0400     		.2byte	0x4
 10495 0c86 F3       		.byte	0xf3
 10496 0c87 01       		.uleb128 0x1
 10497 0c88 51       		.byte	0x51
 10498 0c89 9F       		.byte	0x9f
 10499 0c8a 00000000 		.4byte	0
 10500 0c8e 00000000 		.4byte	0
 10501              	.LLST60:
 10502 0c92 00000000 		.4byte	.LVL192
 10503 0c96 02000000 		.4byte	.LVL193
 10504 0c9a 0200     		.2byte	0x2
 10505 0c9c 30       		.byte	0x30
 10506 0c9d 9F       		.byte	0x9f
 10507 0c9e 02000000 		.4byte	.LVL193
 10508 0ca2 06000000 		.4byte	.LVL194
 10509 0ca6 0100     		.2byte	0x1
 10510 0ca8 53       		.byte	0x53
 10511 0ca9 06000000 		.4byte	.LVL194
 10512 0cad 0A000000 		.4byte	.LVL195
 10513 0cb1 0800     		.2byte	0x8
 10514 0cb3 71       		.byte	0x71
 10515 0cb4 00       		.sleb128 0
 10516 0cb5 38       		.byte	0x38
 10517 0cb6 24       		.byte	0x24
 10518 0cb7 73       		.byte	0x73
 10519 0cb8 00       		.sleb128 0
 10520 0cb9 21       		.byte	0x21
 10521 0cba 9F       		.byte	0x9f
 10522 0cbb 0A000000 		.4byte	.LVL195
 10523 0cbf 10000000 		.4byte	.LFE152
 10524 0cc3 0900     		.2byte	0x9
 10525 0cc5 F3       		.byte	0xf3
 10526 0cc6 01       		.uleb128 0x1
 10527 0cc7 51       		.byte	0x51
 10528 0cc8 38       		.byte	0x38
 10529 0cc9 24       		.byte	0x24
 10530 0cca 73       		.byte	0x73
 10531 0ccb 00       		.sleb128 0
 10532 0ccc 21       		.byte	0x21
 10533 0ccd 9F       		.byte	0x9f
 10534 0cce 00000000 		.4byte	0
 10535 0cd2 00000000 		.4byte	0
 10536              	.LLST61:
 10537 0cd6 00000000 		.4byte	.LVL196
 10538 0cda 0A000000 		.4byte	.LVL199
 10539 0cde 0100     		.2byte	0x1
 10540 0ce0 51       		.byte	0x51
 10541 0ce1 0A000000 		.4byte	.LVL199
 10542 0ce5 0E000000 		.4byte	.LFE153
 10543 0ce9 0400     		.2byte	0x4
 10544 0ceb F3       		.byte	0xf3
 10545 0cec 01       		.uleb128 0x1
ARM GAS  /tmp/ccJZ9K5Y.s 			page 186


 10546 0ced 51       		.byte	0x51
 10547 0cee 9F       		.byte	0x9f
 10548 0cef 00000000 		.4byte	0
 10549 0cf3 00000000 		.4byte	0
 10550              	.LLST62:
 10551 0cf7 00000000 		.4byte	.LVL196
 10552 0cfb 02000000 		.4byte	.LVL197
 10553 0cff 0200     		.2byte	0x2
 10554 0d01 30       		.byte	0x30
 10555 0d02 9F       		.byte	0x9f
 10556 0d03 02000000 		.4byte	.LVL197
 10557 0d07 08000000 		.4byte	.LVL198
 10558 0d0b 0100     		.2byte	0x1
 10559 0d0d 52       		.byte	0x52
 10560 0d0e 08000000 		.4byte	.LVL198
 10561 0d12 0A000000 		.4byte	.LVL199
 10562 0d16 0600     		.2byte	0x6
 10563 0d18 71       		.byte	0x71
 10564 0d19 00       		.sleb128 0
 10565 0d1a 73       		.byte	0x73
 10566 0d1b 00       		.sleb128 0
 10567 0d1c 21       		.byte	0x21
 10568 0d1d 9F       		.byte	0x9f
 10569 0d1e 0A000000 		.4byte	.LVL199
 10570 0d22 0E000000 		.4byte	.LFE153
 10571 0d26 0700     		.2byte	0x7
 10572 0d28 F3       		.byte	0xf3
 10573 0d29 01       		.uleb128 0x1
 10574 0d2a 51       		.byte	0x51
 10575 0d2b 73       		.byte	0x73
 10576 0d2c 00       		.sleb128 0
 10577 0d2d 21       		.byte	0x21
 10578 0d2e 9F       		.byte	0x9f
 10579 0d2f 00000000 		.4byte	0
 10580 0d33 00000000 		.4byte	0
 10581              	.LLST63:
 10582 0d37 00000000 		.4byte	.LVL200
 10583 0d3b 0A000000 		.4byte	.LVL203
 10584 0d3f 0100     		.2byte	0x1
 10585 0d41 51       		.byte	0x51
 10586 0d42 0A000000 		.4byte	.LVL203
 10587 0d46 0E000000 		.4byte	.LFE154
 10588 0d4a 0400     		.2byte	0x4
 10589 0d4c F3       		.byte	0xf3
 10590 0d4d 01       		.uleb128 0x1
 10591 0d4e 51       		.byte	0x51
 10592 0d4f 9F       		.byte	0x9f
 10593 0d50 00000000 		.4byte	0
 10594 0d54 00000000 		.4byte	0
 10595              	.LLST64:
 10596 0d58 00000000 		.4byte	.LVL200
 10597 0d5c 02000000 		.4byte	.LVL201
 10598 0d60 0200     		.2byte	0x2
 10599 0d62 30       		.byte	0x30
 10600 0d63 9F       		.byte	0x9f
 10601 0d64 02000000 		.4byte	.LVL201
 10602 0d68 08000000 		.4byte	.LVL202
ARM GAS  /tmp/ccJZ9K5Y.s 			page 187


 10603 0d6c 0100     		.2byte	0x1
 10604 0d6e 52       		.byte	0x52
 10605 0d6f 08000000 		.4byte	.LVL202
 10606 0d73 0A000000 		.4byte	.LVL203
 10607 0d77 0600     		.2byte	0x6
 10608 0d79 71       		.byte	0x71
 10609 0d7a 00       		.sleb128 0
 10610 0d7b 73       		.byte	0x73
 10611 0d7c 00       		.sleb128 0
 10612 0d7d 21       		.byte	0x21
 10613 0d7e 9F       		.byte	0x9f
 10614 0d7f 0A000000 		.4byte	.LVL203
 10615 0d83 0E000000 		.4byte	.LFE154
 10616 0d87 0700     		.2byte	0x7
 10617 0d89 F3       		.byte	0xf3
 10618 0d8a 01       		.uleb128 0x1
 10619 0d8b 51       		.byte	0x51
 10620 0d8c 73       		.byte	0x73
 10621 0d8d 00       		.sleb128 0
 10622 0d8e 21       		.byte	0x21
 10623 0d8f 9F       		.byte	0x9f
 10624 0d90 00000000 		.4byte	0
 10625 0d94 00000000 		.4byte	0
 10626              	.LLST65:
 10627 0d98 00000000 		.4byte	.LVL204
 10628 0d9c 0C000000 		.4byte	.LVL207
 10629 0da0 0100     		.2byte	0x1
 10630 0da2 51       		.byte	0x51
 10631 0da3 0C000000 		.4byte	.LVL207
 10632 0da7 12000000 		.4byte	.LFE155
 10633 0dab 0400     		.2byte	0x4
 10634 0dad F3       		.byte	0xf3
 10635 0dae 01       		.uleb128 0x1
 10636 0daf 51       		.byte	0x51
 10637 0db0 9F       		.byte	0x9f
 10638 0db1 00000000 		.4byte	0
 10639 0db5 00000000 		.4byte	0
 10640              	.LLST66:
 10641 0db9 00000000 		.4byte	.LVL204
 10642 0dbd 02000000 		.4byte	.LVL205
 10643 0dc1 0200     		.2byte	0x2
 10644 0dc3 30       		.byte	0x30
 10645 0dc4 9F       		.byte	0x9f
 10646 0dc5 02000000 		.4byte	.LVL205
 10647 0dc9 08000000 		.4byte	.LVL206
 10648 0dcd 0100     		.2byte	0x1
 10649 0dcf 52       		.byte	0x52
 10650 0dd0 08000000 		.4byte	.LVL206
 10651 0dd4 0C000000 		.4byte	.LVL207
 10652 0dd8 0800     		.2byte	0x8
 10653 0dda 71       		.byte	0x71
 10654 0ddb 00       		.sleb128 0
 10655 0ddc 34       		.byte	0x34
 10656 0ddd 24       		.byte	0x24
 10657 0dde 73       		.byte	0x73
 10658 0ddf 00       		.sleb128 0
 10659 0de0 21       		.byte	0x21
ARM GAS  /tmp/ccJZ9K5Y.s 			page 188


 10660 0de1 9F       		.byte	0x9f
 10661 0de2 0C000000 		.4byte	.LVL207
 10662 0de6 12000000 		.4byte	.LFE155
 10663 0dea 0900     		.2byte	0x9
 10664 0dec F3       		.byte	0xf3
 10665 0ded 01       		.uleb128 0x1
 10666 0dee 51       		.byte	0x51
 10667 0def 34       		.byte	0x34
 10668 0df0 24       		.byte	0x24
 10669 0df1 73       		.byte	0x73
 10670 0df2 00       		.sleb128 0
 10671 0df3 21       		.byte	0x21
 10672 0df4 9F       		.byte	0x9f
 10673 0df5 00000000 		.4byte	0
 10674 0df9 00000000 		.4byte	0
 10675              	.LLST67:
 10676 0dfd 00000000 		.4byte	.LVL208
 10677 0e01 0C000000 		.4byte	.LVL211
 10678 0e05 0100     		.2byte	0x1
 10679 0e07 51       		.byte	0x51
 10680 0e08 0C000000 		.4byte	.LVL211
 10681 0e0c 12000000 		.4byte	.LFE156
 10682 0e10 0400     		.2byte	0x4
 10683 0e12 F3       		.byte	0xf3
 10684 0e13 01       		.uleb128 0x1
 10685 0e14 51       		.byte	0x51
 10686 0e15 9F       		.byte	0x9f
 10687 0e16 00000000 		.4byte	0
 10688 0e1a 00000000 		.4byte	0
 10689              	.LLST68:
 10690 0e1e 00000000 		.4byte	.LVL208
 10691 0e22 02000000 		.4byte	.LVL209
 10692 0e26 0200     		.2byte	0x2
 10693 0e28 30       		.byte	0x30
 10694 0e29 9F       		.byte	0x9f
 10695 0e2a 02000000 		.4byte	.LVL209
 10696 0e2e 08000000 		.4byte	.LVL210
 10697 0e32 0100     		.2byte	0x1
 10698 0e34 52       		.byte	0x52
 10699 0e35 08000000 		.4byte	.LVL210
 10700 0e39 0C000000 		.4byte	.LVL211
 10701 0e3d 0800     		.2byte	0x8
 10702 0e3f 71       		.byte	0x71
 10703 0e40 00       		.sleb128 0
 10704 0e41 34       		.byte	0x34
 10705 0e42 24       		.byte	0x24
 10706 0e43 73       		.byte	0x73
 10707 0e44 00       		.sleb128 0
 10708 0e45 21       		.byte	0x21
 10709 0e46 9F       		.byte	0x9f
 10710 0e47 0C000000 		.4byte	.LVL211
 10711 0e4b 12000000 		.4byte	.LFE156
 10712 0e4f 0900     		.2byte	0x9
 10713 0e51 F3       		.byte	0xf3
 10714 0e52 01       		.uleb128 0x1
 10715 0e53 51       		.byte	0x51
 10716 0e54 34       		.byte	0x34
ARM GAS  /tmp/ccJZ9K5Y.s 			page 189


 10717 0e55 24       		.byte	0x24
 10718 0e56 73       		.byte	0x73
 10719 0e57 00       		.sleb128 0
 10720 0e58 21       		.byte	0x21
 10721 0e59 9F       		.byte	0x9f
 10722 0e5a 00000000 		.4byte	0
 10723 0e5e 00000000 		.4byte	0
 10724              	.LLST69:
 10725 0e62 00000000 		.4byte	.LVL212
 10726 0e66 0C000000 		.4byte	.LVL215
 10727 0e6a 0100     		.2byte	0x1
 10728 0e6c 51       		.byte	0x51
 10729 0e6d 0C000000 		.4byte	.LVL215
 10730 0e71 12000000 		.4byte	.LFE157
 10731 0e75 0400     		.2byte	0x4
 10732 0e77 F3       		.byte	0xf3
 10733 0e78 01       		.uleb128 0x1
 10734 0e79 51       		.byte	0x51
 10735 0e7a 9F       		.byte	0x9f
 10736 0e7b 00000000 		.4byte	0
 10737 0e7f 00000000 		.4byte	0
 10738              	.LLST70:
 10739 0e83 00000000 		.4byte	.LVL212
 10740 0e87 02000000 		.4byte	.LVL213
 10741 0e8b 0200     		.2byte	0x2
 10742 0e8d 30       		.byte	0x30
 10743 0e8e 9F       		.byte	0x9f
 10744 0e8f 02000000 		.4byte	.LVL213
 10745 0e93 08000000 		.4byte	.LVL214
 10746 0e97 0100     		.2byte	0x1
 10747 0e99 52       		.byte	0x52
 10748 0e9a 08000000 		.4byte	.LVL214
 10749 0e9e 0C000000 		.4byte	.LVL215
 10750 0ea2 0800     		.2byte	0x8
 10751 0ea4 71       		.byte	0x71
 10752 0ea5 00       		.sleb128 0
 10753 0ea6 38       		.byte	0x38
 10754 0ea7 24       		.byte	0x24
 10755 0ea8 73       		.byte	0x73
 10756 0ea9 00       		.sleb128 0
 10757 0eaa 21       		.byte	0x21
 10758 0eab 9F       		.byte	0x9f
 10759 0eac 0C000000 		.4byte	.LVL215
 10760 0eb0 12000000 		.4byte	.LFE157
 10761 0eb4 0900     		.2byte	0x9
 10762 0eb6 F3       		.byte	0xf3
 10763 0eb7 01       		.uleb128 0x1
 10764 0eb8 51       		.byte	0x51
 10765 0eb9 38       		.byte	0x38
 10766 0eba 24       		.byte	0x24
 10767 0ebb 73       		.byte	0x73
 10768 0ebc 00       		.sleb128 0
 10769 0ebd 21       		.byte	0x21
 10770 0ebe 9F       		.byte	0x9f
 10771 0ebf 00000000 		.4byte	0
 10772 0ec3 00000000 		.4byte	0
 10773              	.LLST71:
ARM GAS  /tmp/ccJZ9K5Y.s 			page 190


 10774 0ec7 00000000 		.4byte	.LVL216
 10775 0ecb 0C000000 		.4byte	.LVL219
 10776 0ecf 0100     		.2byte	0x1
 10777 0ed1 51       		.byte	0x51
 10778 0ed2 0C000000 		.4byte	.LVL219
 10779 0ed6 12000000 		.4byte	.LFE158
 10780 0eda 0400     		.2byte	0x4
 10781 0edc F3       		.byte	0xf3
 10782 0edd 01       		.uleb128 0x1
 10783 0ede 51       		.byte	0x51
 10784 0edf 9F       		.byte	0x9f
 10785 0ee0 00000000 		.4byte	0
 10786 0ee4 00000000 		.4byte	0
 10787              	.LLST72:
 10788 0ee8 00000000 		.4byte	.LVL216
 10789 0eec 02000000 		.4byte	.LVL217
 10790 0ef0 0200     		.2byte	0x2
 10791 0ef2 30       		.byte	0x30
 10792 0ef3 9F       		.byte	0x9f
 10793 0ef4 02000000 		.4byte	.LVL217
 10794 0ef8 08000000 		.4byte	.LVL218
 10795 0efc 0100     		.2byte	0x1
 10796 0efe 52       		.byte	0x52
 10797 0eff 08000000 		.4byte	.LVL218
 10798 0f03 0C000000 		.4byte	.LVL219
 10799 0f07 0800     		.2byte	0x8
 10800 0f09 71       		.byte	0x71
 10801 0f0a 00       		.sleb128 0
 10802 0f0b 38       		.byte	0x38
 10803 0f0c 24       		.byte	0x24
 10804 0f0d 73       		.byte	0x73
 10805 0f0e 00       		.sleb128 0
 10806 0f0f 21       		.byte	0x21
 10807 0f10 9F       		.byte	0x9f
 10808 0f11 0C000000 		.4byte	.LVL219
 10809 0f15 12000000 		.4byte	.LFE158
 10810 0f19 0900     		.2byte	0x9
 10811 0f1b F3       		.byte	0xf3
 10812 0f1c 01       		.uleb128 0x1
 10813 0f1d 51       		.byte	0x51
 10814 0f1e 38       		.byte	0x38
 10815 0f1f 24       		.byte	0x24
 10816 0f20 73       		.byte	0x73
 10817 0f21 00       		.sleb128 0
 10818 0f22 21       		.byte	0x21
 10819 0f23 9F       		.byte	0x9f
 10820 0f24 00000000 		.4byte	0
 10821 0f28 00000000 		.4byte	0
 10822              	.LLST73:
 10823 0f2c 00000000 		.4byte	.LVL220
 10824 0f30 0C000000 		.4byte	.LVL223
 10825 0f34 0100     		.2byte	0x1
 10826 0f36 51       		.byte	0x51
 10827 0f37 0C000000 		.4byte	.LVL223
 10828 0f3b 12000000 		.4byte	.LFE159
 10829 0f3f 0400     		.2byte	0x4
 10830 0f41 F3       		.byte	0xf3
ARM GAS  /tmp/ccJZ9K5Y.s 			page 191


 10831 0f42 01       		.uleb128 0x1
 10832 0f43 51       		.byte	0x51
 10833 0f44 9F       		.byte	0x9f
 10834 0f45 00000000 		.4byte	0
 10835 0f49 00000000 		.4byte	0
 10836              	.LLST74:
 10837 0f4d 00000000 		.4byte	.LVL220
 10838 0f51 02000000 		.4byte	.LVL221
 10839 0f55 0200     		.2byte	0x2
 10840 0f57 30       		.byte	0x30
 10841 0f58 9F       		.byte	0x9f
 10842 0f59 02000000 		.4byte	.LVL221
 10843 0f5d 08000000 		.4byte	.LVL222
 10844 0f61 0100     		.2byte	0x1
 10845 0f63 52       		.byte	0x52
 10846 0f64 08000000 		.4byte	.LVL222
 10847 0f68 0C000000 		.4byte	.LVL223
 10848 0f6c 0800     		.2byte	0x8
 10849 0f6e 71       		.byte	0x71
 10850 0f6f 00       		.sleb128 0
 10851 0f70 3C       		.byte	0x3c
 10852 0f71 24       		.byte	0x24
 10853 0f72 73       		.byte	0x73
 10854 0f73 00       		.sleb128 0
 10855 0f74 21       		.byte	0x21
 10856 0f75 9F       		.byte	0x9f
 10857 0f76 0C000000 		.4byte	.LVL223
 10858 0f7a 12000000 		.4byte	.LFE159
 10859 0f7e 0900     		.2byte	0x9
 10860 0f80 F3       		.byte	0xf3
 10861 0f81 01       		.uleb128 0x1
 10862 0f82 51       		.byte	0x51
 10863 0f83 3C       		.byte	0x3c
 10864 0f84 24       		.byte	0x24
 10865 0f85 73       		.byte	0x73
 10866 0f86 00       		.sleb128 0
 10867 0f87 21       		.byte	0x21
 10868 0f88 9F       		.byte	0x9f
 10869 0f89 00000000 		.4byte	0
 10870 0f8d 00000000 		.4byte	0
 10871              	.LLST75:
 10872 0f91 00000000 		.4byte	.LVL224
 10873 0f95 18000000 		.4byte	.LVL225
 10874 0f99 0100     		.2byte	0x1
 10875 0f9b 52       		.byte	0x52
 10876 0f9c 18000000 		.4byte	.LVL225
 10877 0fa0 20000000 		.4byte	.LFE160
 10878 0fa4 0400     		.2byte	0x4
 10879 0fa6 F3       		.byte	0xf3
 10880 0fa7 01       		.uleb128 0x1
 10881 0fa8 52       		.byte	0x52
 10882 0fa9 9F       		.byte	0x9f
 10883 0faa 00000000 		.4byte	0
 10884 0fae 00000000 		.4byte	0
 10885              	.LLST76:
 10886 0fb2 00000000 		.4byte	.LVL226
 10887 0fb6 18000000 		.4byte	.LVL227
ARM GAS  /tmp/ccJZ9K5Y.s 			page 192


 10888 0fba 0100     		.2byte	0x1
 10889 0fbc 52       		.byte	0x52
 10890 0fbd 18000000 		.4byte	.LVL227
 10891 0fc1 20000000 		.4byte	.LFE161
 10892 0fc5 0400     		.2byte	0x4
 10893 0fc7 F3       		.byte	0xf3
 10894 0fc8 01       		.uleb128 0x1
 10895 0fc9 52       		.byte	0x52
 10896 0fca 9F       		.byte	0x9f
 10897 0fcb 00000000 		.4byte	0
 10898 0fcf 00000000 		.4byte	0
 10899              	.LLST77:
 10900 0fd3 00000000 		.4byte	.LVL228
 10901 0fd7 1C000000 		.4byte	.LVL230
 10902 0fdb 0100     		.2byte	0x1
 10903 0fdd 51       		.byte	0x51
 10904 0fde 1C000000 		.4byte	.LVL230
 10905 0fe2 62000000 		.4byte	.LVL237
 10906 0fe6 0400     		.2byte	0x4
 10907 0fe8 F3       		.byte	0xf3
 10908 0fe9 01       		.uleb128 0x1
 10909 0fea 51       		.byte	0x51
 10910 0feb 9F       		.byte	0x9f
 10911 0fec 62000000 		.4byte	.LVL237
 10912 0ff0 70000000 		.4byte	.LVL239
 10913 0ff4 0100     		.2byte	0x1
 10914 0ff6 51       		.byte	0x51
 10915 0ff7 70000000 		.4byte	.LVL239
 10916 0ffb A8000000 		.4byte	.LVL246
 10917 0fff 0400     		.2byte	0x4
 10918 1001 F3       		.byte	0xf3
 10919 1002 01       		.uleb128 0x1
 10920 1003 51       		.byte	0x51
 10921 1004 9F       		.byte	0x9f
 10922 1005 A8000000 		.4byte	.LVL246
 10923 1009 B6000000 		.4byte	.LVL250
 10924 100d 0100     		.2byte	0x1
 10925 100f 51       		.byte	0x51
 10926 1010 B6000000 		.4byte	.LVL250
 10927 1014 FC000000 		.4byte	.LVL257
 10928 1018 0400     		.2byte	0x4
 10929 101a F3       		.byte	0xf3
 10930 101b 01       		.uleb128 0x1
 10931 101c 51       		.byte	0x51
 10932 101d 9F       		.byte	0x9f
 10933 101e FC000000 		.4byte	.LVL257
 10934 1022 00010000 		.4byte	.LVL258
 10935 1026 0100     		.2byte	0x1
 10936 1028 51       		.byte	0x51
 10937 1029 00010000 		.4byte	.LVL258
 10938 102d 40010000 		.4byte	.LFE162
 10939 1031 0400     		.2byte	0x4
 10940 1033 F3       		.byte	0xf3
 10941 1034 01       		.uleb128 0x1
 10942 1035 51       		.byte	0x51
 10943 1036 9F       		.byte	0x9f
 10944 1037 00000000 		.4byte	0
ARM GAS  /tmp/ccJZ9K5Y.s 			page 193


 10945 103b 00000000 		.4byte	0
 10946              	.LLST78:
 10947 103f 14000000 		.4byte	.LVL229
 10948 1043 38000000 		.4byte	.LVL234
 10949 1047 0100     		.2byte	0x1
 10950 1049 52       		.byte	0x52
 10951 104a 38000000 		.4byte	.LVL234
 10952 104e 62000000 		.4byte	.LVL237
 10953 1052 0500     		.2byte	0x5
 10954 1054 F3       		.byte	0xf3
 10955 1055 01       		.uleb128 0x1
 10956 1056 51       		.byte	0x51
 10957 1057 23       		.byte	0x23
 10958 1058 08       		.uleb128 0x8
 10959 1059 FC000000 		.4byte	.LVL257
 10960 105d 1A010000 		.4byte	.LVL261
 10961 1061 0100     		.2byte	0x1
 10962 1063 52       		.byte	0x52
 10963 1064 1A010000 		.4byte	.LVL261
 10964 1068 40010000 		.4byte	.LFE162
 10965 106c 0500     		.2byte	0x5
 10966 106e F3       		.byte	0xf3
 10967 106f 01       		.uleb128 0x1
 10968 1070 51       		.byte	0x51
 10969 1071 23       		.byte	0x23
 10970 1072 08       		.uleb128 0x8
 10971 1073 00000000 		.4byte	0
 10972 1077 00000000 		.4byte	0
 10973              	.LLST79:
 10974 107b 14000000 		.4byte	.LVL229
 10975 107f 34000000 		.4byte	.LVL233
 10976 1083 0100     		.2byte	0x1
 10977 1085 54       		.byte	0x54
 10978 1086 34000000 		.4byte	.LVL233
 10979 108a 62000000 		.4byte	.LVL237
 10980 108e 0500     		.2byte	0x5
 10981 1090 F3       		.byte	0xf3
 10982 1091 01       		.uleb128 0x1
 10983 1092 51       		.byte	0x51
 10984 1093 23       		.byte	0x23
 10985 1094 04       		.uleb128 0x4
 10986 1095 FC000000 		.4byte	.LVL257
 10987 1099 40010000 		.4byte	.LFE162
 10988 109d 0100     		.2byte	0x1
 10989 109f 54       		.byte	0x54
 10990 10a0 00000000 		.4byte	0
 10991 10a4 00000000 		.4byte	0
 10992              	.LLST80:
 10993 10a8 14000000 		.4byte	.LVL229
 10994 10ac 62000000 		.4byte	.LVL237
 10995 10b0 0100     		.2byte	0x1
 10996 10b2 56       		.byte	0x56
 10997 10b3 FC000000 		.4byte	.LVL257
 10998 10b7 40010000 		.4byte	.LFE162
 10999 10bb 0100     		.2byte	0x1
 11000 10bd 56       		.byte	0x56
 11001 10be 00000000 		.4byte	0
ARM GAS  /tmp/ccJZ9K5Y.s 			page 194


 11002 10c2 00000000 		.4byte	0
 11003              	.LLST81:
 11004 10c6 14000000 		.4byte	.LVL229
 11005 10ca 62000000 		.4byte	.LVL237
 11006 10ce 0100     		.2byte	0x1
 11007 10d0 50       		.byte	0x50
 11008 10d1 FC000000 		.4byte	.LVL257
 11009 10d5 40010000 		.4byte	.LFE162
 11010 10d9 0100     		.2byte	0x1
 11011 10db 50       		.byte	0x50
 11012 10dc 00000000 		.4byte	0
 11013 10e0 00000000 		.4byte	0
 11014              	.LLST82:
 11015 10e4 14000000 		.4byte	.LVL229
 11016 10e8 62000000 		.4byte	.LVL237
 11017 10ec 0200     		.2byte	0x2
 11018 10ee 30       		.byte	0x30
 11019 10ef 9F       		.byte	0x9f
 11020 10f0 FC000000 		.4byte	.LVL257
 11021 10f4 06010000 		.4byte	.LVL259
 11022 10f8 0200     		.2byte	0x2
 11023 10fa 30       		.byte	0x30
 11024 10fb 9F       		.byte	0x9f
 11025 10fc 06010000 		.4byte	.LVL259
 11026 1100 1C010000 		.4byte	.LVL262
 11027 1104 0100     		.2byte	0x1
 11028 1106 57       		.byte	0x57
 11029 1107 1C010000 		.4byte	.LVL262
 11030 110b 40010000 		.4byte	.LFE162
 11031 110f 1000     		.2byte	0x10
 11032 1111 F3       		.byte	0xf3
 11033 1112 01       		.uleb128 0x1
 11034 1113 51       		.byte	0x51
 11035 1114 23       		.byte	0x23
 11036 1115 08       		.uleb128 0x8
 11037 1116 94       		.byte	0x94
 11038 1117 02       		.byte	0x2
 11039 1118 34       		.byte	0x34
 11040 1119 24       		.byte	0x24
 11041 111a 74       		.byte	0x74
 11042 111b 00       		.sleb128 0
 11043 111c 21       		.byte	0x21
 11044 111d 71       		.byte	0x71
 11045 111e 00       		.sleb128 0
 11046 111f 21       		.byte	0x21
 11047 1120 9F       		.byte	0x9f
 11048 1121 00000000 		.4byte	0
 11049 1125 00000000 		.4byte	0
 11050              	.LLST83:
 11051 1129 14000000 		.4byte	.LVL229
 11052 112d 62000000 		.4byte	.LVL237
 11053 1131 0200     		.2byte	0x2
 11054 1133 30       		.byte	0x30
 11055 1134 9F       		.byte	0x9f
 11056 1135 FC000000 		.4byte	.LVL257
 11057 1139 0A010000 		.4byte	.LVL260
 11058 113d 0200     		.2byte	0x2
ARM GAS  /tmp/ccJZ9K5Y.s 			page 195


 11059 113f 30       		.byte	0x30
 11060 1140 9F       		.byte	0x9f
 11061 1141 0A010000 		.4byte	.LVL260
 11062 1145 1C010000 		.4byte	.LVL262
 11063 1149 0100     		.2byte	0x1
 11064 114b 5E       		.byte	0x5e
 11065 114c 1C010000 		.4byte	.LVL262
 11066 1150 20010000 		.4byte	.LVL263
 11067 1154 0C00     		.2byte	0xc
 11068 1156 76       		.byte	0x76
 11069 1157 00       		.sleb128 0
 11070 1158 38       		.byte	0x38
 11071 1159 24       		.byte	0x24
 11072 115a 73       		.byte	0x73
 11073 115b 00       		.sleb128 0
 11074 115c 21       		.byte	0x21
 11075 115d 0A       		.byte	0xa
 11076 115e 0001     		.2byte	0x100
 11077 1160 21       		.byte	0x21
 11078 1161 9F       		.byte	0x9f
 11079 1162 20010000 		.4byte	.LVL263
 11080 1166 40010000 		.4byte	.LFE162
 11081 116a 1000     		.2byte	0x10
 11082 116c 76       		.byte	0x76
 11083 116d 00       		.sleb128 0
 11084 116e 38       		.byte	0x38
 11085 116f 24       		.byte	0x24
 11086 1170 7E       		.byte	0x7e
 11087 1171 00       		.sleb128 0
 11088 1172 0A       		.byte	0xa
 11089 1173 FFF5     		.2byte	0xf5ff
 11090 1175 1A       		.byte	0x1a
 11091 1176 21       		.byte	0x21
 11092 1177 0A       		.byte	0xa
 11093 1178 0001     		.2byte	0x100
 11094 117a 21       		.byte	0x21
 11095 117b 9F       		.byte	0x9f
 11096 117c 00000000 		.4byte	0
 11097 1180 00000000 		.4byte	0
 11098              	.LLST84:
 11099 1184 14000000 		.4byte	.LVL229
 11100 1188 62000000 		.4byte	.LVL237
 11101 118c 0200     		.2byte	0x2
 11102 118e 30       		.byte	0x30
 11103 118f 9F       		.byte	0x9f
 11104 1190 FC000000 		.4byte	.LVL257
 11105 1194 0A010000 		.4byte	.LVL260
 11106 1198 0200     		.2byte	0x2
 11107 119a 30       		.byte	0x30
 11108 119b 9F       		.byte	0x9f
 11109 119c 0A010000 		.4byte	.LVL260
 11110 11a0 40010000 		.4byte	.LFE162
 11111 11a4 0500     		.2byte	0x5
 11112 11a6 76       		.byte	0x76
 11113 11a7 00       		.sleb128 0
 11114 11a8 38       		.byte	0x38
 11115 11a9 24       		.byte	0x24
ARM GAS  /tmp/ccJZ9K5Y.s 			page 196


 11116 11aa 9F       		.byte	0x9f
 11117 11ab 00000000 		.4byte	0
 11118 11af 00000000 		.4byte	0
 11119              	.LLST85:
 11120 11b3 22000000 		.4byte	.LVL231
 11121 11b7 3A000000 		.4byte	.LVL235
 11122 11bb 0100     		.2byte	0x1
 11123 11bd 57       		.byte	0x57
 11124 11be 3A000000 		.4byte	.LVL235
 11125 11c2 62000000 		.4byte	.LVL237
 11126 11c6 1700     		.2byte	0x17
 11127 11c8 F3       		.byte	0xf3
 11128 11c9 01       		.uleb128 0x1
 11129 11ca 51       		.byte	0x51
 11130 11cb 23       		.byte	0x23
 11131 11cc 08       		.uleb128 0x8
 11132 11cd 94       		.byte	0x94
 11133 11ce 02       		.byte	0x2
 11134 11cf 3C       		.byte	0x3c
 11135 11d0 24       		.byte	0x24
 11136 11d1 F3       		.byte	0xf3
 11137 11d2 01       		.uleb128 0x1
 11138 11d3 51       		.byte	0x51
 11139 11d4 23       		.byte	0x23
 11140 11d5 04       		.uleb128 0x4
 11141 11d6 94       		.byte	0x94
 11142 11d7 02       		.byte	0x2
 11143 11d8 38       		.byte	0x38
 11144 11d9 24       		.byte	0x24
 11145 11da 21       		.byte	0x21
 11146 11db 74       		.byte	0x74
 11147 11dc 00       		.sleb128 0
 11148 11dd 21       		.byte	0x21
 11149 11de 9F       		.byte	0x9f
 11150 11df 00000000 		.4byte	0
 11151 11e3 00000000 		.4byte	0
 11152              	.LLST86:
 11153 11e7 26000000 		.4byte	.LVL232
 11154 11eb 3A000000 		.4byte	.LVL235
 11155 11ef 0100     		.2byte	0x1
 11156 11f1 5E       		.byte	0x5e
 11157 11f2 3A000000 		.4byte	.LVL235
 11158 11f6 3E000000 		.4byte	.LVL236
 11159 11fa 0C00     		.2byte	0xc
 11160 11fc 76       		.byte	0x76
 11161 11fd 00       		.sleb128 0
 11162 11fe 3C       		.byte	0x3c
 11163 11ff 24       		.byte	0x24
 11164 1200 73       		.byte	0x73
 11165 1201 00       		.sleb128 0
 11166 1202 21       		.byte	0x21
 11167 1203 0A       		.byte	0xa
 11168 1204 0010     		.2byte	0x1000
 11169 1206 21       		.byte	0x21
 11170 1207 9F       		.byte	0x9f
 11171 1208 3E000000 		.4byte	.LVL236
 11172 120c 62000000 		.4byte	.LVL237
ARM GAS  /tmp/ccJZ9K5Y.s 			page 197


 11173 1210 1000     		.2byte	0x10
 11174 1212 76       		.byte	0x76
 11175 1213 00       		.sleb128 0
 11176 1214 3C       		.byte	0x3c
 11177 1215 24       		.byte	0x24
 11178 1216 7E       		.byte	0x7e
 11179 1217 00       		.sleb128 0
 11180 1218 0A       		.byte	0xa
 11181 1219 FF5F     		.2byte	0x5fff
 11182 121b 1A       		.byte	0x1a
 11183 121c 21       		.byte	0x21
 11184 121d 0A       		.byte	0xa
 11185 121e 0010     		.2byte	0x1000
 11186 1220 21       		.byte	0x21
 11187 1221 9F       		.byte	0x9f
 11188 1222 00000000 		.4byte	0
 11189 1226 00000000 		.4byte	0
 11190              	.LLST87:
 11191 122a 26000000 		.4byte	.LVL232
 11192 122e 62000000 		.4byte	.LVL237
 11193 1232 0500     		.2byte	0x5
 11194 1234 76       		.byte	0x76
 11195 1235 00       		.sleb128 0
 11196 1236 3C       		.byte	0x3c
 11197 1237 24       		.byte	0x24
 11198 1238 9F       		.byte	0x9f
 11199 1239 00000000 		.4byte	0
 11200 123d 00000000 		.4byte	0
 11201              	.LLST88:
 11202 1241 3A000000 		.4byte	.LVL235
 11203 1245 62000000 		.4byte	.LVL237
 11204 1249 0100     		.2byte	0x1
 11205 124b 55       		.byte	0x55
 11206 124c 00000000 		.4byte	0
 11207 1250 00000000 		.4byte	0
 11208              	.LLST89:
 11209 1254 3A000000 		.4byte	.LVL235
 11210 1258 62000000 		.4byte	.LVL237
 11211 125c 0100     		.2byte	0x1
 11212 125e 50       		.byte	0x50
 11213 125f 00000000 		.4byte	0
 11214 1263 00000000 		.4byte	0
 11215              	.LLST90:
 11216 1267 6A000000 		.4byte	.LVL238
 11217 126b 80000000 		.4byte	.LVL242
 11218 126f 0100     		.2byte	0x1
 11219 1271 53       		.byte	0x53
 11220 1272 80000000 		.4byte	.LVL242
 11221 1276 A8000000 		.4byte	.LVL246
 11222 127a 0500     		.2byte	0x5
 11223 127c F3       		.byte	0xf3
 11224 127d 01       		.uleb128 0x1
 11225 127e 51       		.byte	0x51
 11226 127f 23       		.byte	0x23
 11227 1280 08       		.uleb128 0x8
 11228 1281 00000000 		.4byte	0
 11229 1285 00000000 		.4byte	0
ARM GAS  /tmp/ccJZ9K5Y.s 			page 198


 11230              	.LLST91:
 11231 1289 6A000000 		.4byte	.LVL238
 11232 128d 8A000000 		.4byte	.LVL244
 11233 1291 0100     		.2byte	0x1
 11234 1293 52       		.byte	0x52
 11235 1294 8A000000 		.4byte	.LVL244
 11236 1298 A8000000 		.4byte	.LVL246
 11237 129c 0500     		.2byte	0x5
 11238 129e F3       		.byte	0xf3
 11239 129f 01       		.uleb128 0x1
 11240 12a0 51       		.byte	0x51
 11241 12a1 23       		.byte	0x23
 11242 12a2 04       		.uleb128 0x4
 11243 12a3 00000000 		.4byte	0
 11244 12a7 00000000 		.4byte	0
 11245              	.LLST92:
 11246 12ab 6A000000 		.4byte	.LVL238
 11247 12af A8000000 		.4byte	.LVL246
 11248 12b3 0100     		.2byte	0x1
 11249 12b5 54       		.byte	0x54
 11250 12b6 00000000 		.4byte	0
 11251 12ba 00000000 		.4byte	0
 11252              	.LLST93:
 11253 12be 6A000000 		.4byte	.LVL238
 11254 12c2 A8000000 		.4byte	.LVL246
 11255 12c6 0100     		.2byte	0x1
 11256 12c8 50       		.byte	0x50
 11257 12c9 00000000 		.4byte	0
 11258 12cd 00000000 		.4byte	0
 11259              	.LLST94:
 11260 12d1 6A000000 		.4byte	.LVL238
 11261 12d5 76000000 		.4byte	.LVL240
 11262 12d9 0200     		.2byte	0x2
 11263 12db 30       		.byte	0x30
 11264 12dc 9F       		.byte	0x9f
 11265 12dd 76000000 		.4byte	.LVL240
 11266 12e1 82000000 		.4byte	.LVL243
 11267 12e5 0100     		.2byte	0x1
 11268 12e7 51       		.byte	0x51
 11269 12e8 82000000 		.4byte	.LVL243
 11270 12ec 8A000000 		.4byte	.LVL244
 11271 12f0 1000     		.2byte	0x10
 11272 12f2 F3       		.byte	0xf3
 11273 12f3 01       		.uleb128 0x1
 11274 12f4 51       		.byte	0x51
 11275 12f5 23       		.byte	0x23
 11276 12f6 08       		.uleb128 0x8
 11277 12f7 94       		.byte	0x94
 11278 12f8 02       		.byte	0x2
 11279 12f9 34       		.byte	0x34
 11280 12fa 24       		.byte	0x24
 11281 12fb 72       		.byte	0x72
 11282 12fc 00       		.sleb128 0
 11283 12fd 21       		.byte	0x21
 11284 12fe 75       		.byte	0x75
 11285 12ff 00       		.sleb128 0
 11286 1300 21       		.byte	0x21
ARM GAS  /tmp/ccJZ9K5Y.s 			page 199


 11287 1301 9F       		.byte	0x9f
 11288 1302 8A000000 		.4byte	.LVL244
 11289 1306 A8000000 		.4byte	.LVL246
 11290 130a 1500     		.2byte	0x15
 11291 130c F3       		.byte	0xf3
 11292 130d 01       		.uleb128 0x1
 11293 130e 51       		.byte	0x51
 11294 130f 23       		.byte	0x23
 11295 1310 08       		.uleb128 0x8
 11296 1311 94       		.byte	0x94
 11297 1312 02       		.byte	0x2
 11298 1313 34       		.byte	0x34
 11299 1314 24       		.byte	0x24
 11300 1315 F3       		.byte	0xf3
 11301 1316 01       		.uleb128 0x1
 11302 1317 51       		.byte	0x51
 11303 1318 23       		.byte	0x23
 11304 1319 04       		.uleb128 0x4
 11305 131a 94       		.byte	0x94
 11306 131b 02       		.byte	0x2
 11307 131c 21       		.byte	0x21
 11308 131d 75       		.byte	0x75
 11309 131e 00       		.sleb128 0
 11310 131f 21       		.byte	0x21
 11311 1320 9F       		.byte	0x9f
 11312 1321 00000000 		.4byte	0
 11313 1325 00000000 		.4byte	0
 11314              	.LLST95:
 11315 1329 6A000000 		.4byte	.LVL238
 11316 132d 78000000 		.4byte	.LVL241
 11317 1331 0200     		.2byte	0x2
 11318 1333 30       		.byte	0x30
 11319 1334 9F       		.byte	0x9f
 11320 1335 78000000 		.4byte	.LVL241
 11321 1339 8E000000 		.4byte	.LVL245
 11322 133d 0100     		.2byte	0x1
 11323 133f 57       		.byte	0x57
 11324 1340 8E000000 		.4byte	.LVL245
 11325 1344 A8000000 		.4byte	.LVL246
 11326 1348 0800     		.2byte	0x8
 11327 134a 74       		.byte	0x74
 11328 134b 00       		.sleb128 0
 11329 134c 71       		.byte	0x71
 11330 134d 00       		.sleb128 0
 11331 134e 21       		.byte	0x21
 11332 134f 31       		.byte	0x31
 11333 1350 21       		.byte	0x21
 11334 1351 9F       		.byte	0x9f
 11335 1352 00000000 		.4byte	0
 11336 1356 00000000 		.4byte	0
 11337              	.LLST96:
 11338 135a 8E000000 		.4byte	.LVL245
 11339 135e A8000000 		.4byte	.LVL246
 11340 1362 0100     		.2byte	0x1
 11341 1364 56       		.byte	0x56
 11342 1365 00000000 		.4byte	0
 11343 1369 00000000 		.4byte	0
ARM GAS  /tmp/ccJZ9K5Y.s 			page 200


 11344              	.LLST97:
 11345 136d 8E000000 		.4byte	.LVL245
 11346 1371 A8000000 		.4byte	.LVL246
 11347 1375 0100     		.2byte	0x1
 11348 1377 50       		.byte	0x50
 11349 1378 00000000 		.4byte	0
 11350 137c 00000000 		.4byte	0
 11351              	.LLST98:
 11352 1380 B0000000 		.4byte	.LVL249
 11353 1384 CE000000 		.4byte	.LVL253
 11354 1388 0100     		.2byte	0x1
 11355 138a 54       		.byte	0x54
 11356 138b CE000000 		.4byte	.LVL253
 11357 138f FC000000 		.4byte	.LVL257
 11358 1393 0500     		.2byte	0x5
 11359 1395 F3       		.byte	0xf3
 11360 1396 01       		.uleb128 0x1
 11361 1397 51       		.byte	0x51
 11362 1398 23       		.byte	0x23
 11363 1399 08       		.uleb128 0x8
 11364 139a 00000000 		.4byte	0
 11365 139e 00000000 		.4byte	0
 11366              	.LLST99:
 11367 13a2 B0000000 		.4byte	.LVL249
 11368 13a6 D2000000 		.4byte	.LVL254
 11369 13aa 0100     		.2byte	0x1
 11370 13ac 52       		.byte	0x52
 11371 13ad D2000000 		.4byte	.LVL254
 11372 13b1 FC000000 		.4byte	.LVL257
 11373 13b5 0500     		.2byte	0x5
 11374 13b7 F3       		.byte	0xf3
 11375 13b8 01       		.uleb128 0x1
 11376 13b9 51       		.byte	0x51
 11377 13ba 23       		.byte	0x23
 11378 13bb 04       		.uleb128 0x4
 11379 13bc 00000000 		.4byte	0
 11380 13c0 00000000 		.4byte	0
 11381              	.LLST100:
 11382 13c4 AE000000 		.4byte	.LVL248
 11383 13c8 FC000000 		.4byte	.LVL257
 11384 13cc 0100     		.2byte	0x1
 11385 13ce 56       		.byte	0x56
 11386 13cf 00000000 		.4byte	0
 11387 13d3 00000000 		.4byte	0
 11388              	.LLST101:
 11389 13d7 AC000000 		.4byte	.LVL247
 11390 13db FC000000 		.4byte	.LVL257
 11391 13df 0100     		.2byte	0x1
 11392 13e1 50       		.byte	0x50
 11393 13e2 00000000 		.4byte	0
 11394 13e6 00000000 		.4byte	0
 11395              	.LLST102:
 11396 13ea B0000000 		.4byte	.LVL249
 11397 13ee BC000000 		.4byte	.LVL251
 11398 13f2 0200     		.2byte	0x2
 11399 13f4 30       		.byte	0x30
 11400 13f5 9F       		.byte	0x9f
ARM GAS  /tmp/ccJZ9K5Y.s 			page 201


 11401 13f6 BC000000 		.4byte	.LVL251
 11402 13fa D4000000 		.4byte	.LVL255
 11403 13fe 0100     		.2byte	0x1
 11404 1400 57       		.byte	0x57
 11405 1401 D4000000 		.4byte	.LVL255
 11406 1405 FC000000 		.4byte	.LVL257
 11407 1409 1700     		.2byte	0x17
 11408 140b F3       		.byte	0xf3
 11409 140c 01       		.uleb128 0x1
 11410 140d 51       		.byte	0x51
 11411 140e 23       		.byte	0x23
 11412 140f 04       		.uleb128 0x4
 11413 1410 94       		.byte	0x94
 11414 1411 02       		.byte	0x2
 11415 1412 38       		.byte	0x38
 11416 1413 24       		.byte	0x24
 11417 1414 F3       		.byte	0xf3
 11418 1415 01       		.uleb128 0x1
 11419 1416 51       		.byte	0x51
 11420 1417 23       		.byte	0x23
 11421 1418 08       		.uleb128 0x8
 11422 1419 94       		.byte	0x94
 11423 141a 02       		.byte	0x2
 11424 141b 3C       		.byte	0x3c
 11425 141c 24       		.byte	0x24
 11426 141d 21       		.byte	0x21
 11427 141e 74       		.byte	0x74
 11428 141f 00       		.sleb128 0
 11429 1420 21       		.byte	0x21
 11430 1421 9F       		.byte	0x9f
 11431 1422 00000000 		.4byte	0
 11432 1426 00000000 		.4byte	0
 11433              	.LLST103:
 11434 142a B0000000 		.4byte	.LVL249
 11435 142e C0000000 		.4byte	.LVL252
 11436 1432 0200     		.2byte	0x2
 11437 1434 30       		.byte	0x30
 11438 1435 9F       		.byte	0x9f
 11439 1436 C0000000 		.4byte	.LVL252
 11440 143a D4000000 		.4byte	.LVL255
 11441 143e 0100     		.2byte	0x1
 11442 1440 5E       		.byte	0x5e
 11443 1441 D4000000 		.4byte	.LVL255
 11444 1445 D8000000 		.4byte	.LVL256
 11445 1449 0A00     		.2byte	0xa
 11446 144b 76       		.byte	0x76
 11447 144c 00       		.sleb128 0
 11448 144d 34       		.byte	0x34
 11449 144e 24       		.byte	0x24
 11450 144f 73       		.byte	0x73
 11451 1450 00       		.sleb128 0
 11452 1451 21       		.byte	0x21
 11453 1452 40       		.byte	0x40
 11454 1453 21       		.byte	0x21
 11455 1454 9F       		.byte	0x9f
 11456 1455 D8000000 		.4byte	.LVL256
 11457 1459 FC000000 		.4byte	.LVL257
ARM GAS  /tmp/ccJZ9K5Y.s 			page 202


 11458 145d 0E00     		.2byte	0xe
 11459 145f 76       		.byte	0x76
 11460 1460 00       		.sleb128 0
 11461 1461 34       		.byte	0x34
 11462 1462 24       		.byte	0x24
 11463 1463 7E       		.byte	0x7e
 11464 1464 00       		.sleb128 0
 11465 1465 0A       		.byte	0xa
 11466 1466 5FFF     		.2byte	0xff5f
 11467 1468 1A       		.byte	0x1a
 11468 1469 21       		.byte	0x21
 11469 146a 40       		.byte	0x40
 11470 146b 21       		.byte	0x21
 11471 146c 9F       		.byte	0x9f
 11472 146d 00000000 		.4byte	0
 11473 1471 00000000 		.4byte	0
 11474              	.LLST104:
 11475 1475 B0000000 		.4byte	.LVL249
 11476 1479 C0000000 		.4byte	.LVL252
 11477 147d 0200     		.2byte	0x2
 11478 147f 30       		.byte	0x30
 11479 1480 9F       		.byte	0x9f
 11480 1481 C0000000 		.4byte	.LVL252
 11481 1485 FC000000 		.4byte	.LVL257
 11482 1489 0500     		.2byte	0x5
 11483 148b 76       		.byte	0x76
 11484 148c 00       		.sleb128 0
 11485 148d 34       		.byte	0x34
 11486 148e 24       		.byte	0x24
 11487 148f 9F       		.byte	0x9f
 11488 1490 00000000 		.4byte	0
 11489 1494 00000000 		.4byte	0
 11490              	.LLST105:
 11491 1498 D4000000 		.4byte	.LVL255
 11492 149c FC000000 		.4byte	.LVL257
 11493 14a0 0100     		.2byte	0x1
 11494 14a2 55       		.byte	0x55
 11495 14a3 00000000 		.4byte	0
 11496 14a7 00000000 		.4byte	0
 11497              	.LLST106:
 11498 14ab D4000000 		.4byte	.LVL255
 11499 14af FC000000 		.4byte	.LVL257
 11500 14b3 0100     		.2byte	0x1
 11501 14b5 50       		.byte	0x50
 11502 14b6 00000000 		.4byte	0
 11503 14ba 00000000 		.4byte	0
 11504              	.LLST107:
 11505 14be 00000000 		.4byte	.LVL265
 11506 14c2 2E000000 		.4byte	.LVL269
 11507 14c6 0100     		.2byte	0x1
 11508 14c8 51       		.byte	0x51
 11509 14c9 2E000000 		.4byte	.LVL269
 11510 14cd B6000000 		.4byte	.LVL285
 11511 14d1 0400     		.2byte	0x4
 11512 14d3 F3       		.byte	0xf3
 11513 14d4 01       		.uleb128 0x1
 11514 14d5 51       		.byte	0x51
ARM GAS  /tmp/ccJZ9K5Y.s 			page 203


 11515 14d6 9F       		.byte	0x9f
 11516 14d7 B6000000 		.4byte	.LVL285
 11517 14db C0000000 		.4byte	.LVL287
 11518 14df 0100     		.2byte	0x1
 11519 14e1 51       		.byte	0x51
 11520 14e2 C0000000 		.4byte	.LVL287
 11521 14e6 44010000 		.4byte	.LFE164
 11522 14ea 0400     		.2byte	0x4
 11523 14ec F3       		.byte	0xf3
 11524 14ed 01       		.uleb128 0x1
 11525 14ee 51       		.byte	0x51
 11526 14ef 9F       		.byte	0x9f
 11527 14f0 00000000 		.4byte	0
 11528 14f4 00000000 		.4byte	0
 11529              	.LLST108:
 11530 14f8 00000000 		.4byte	.LVL265
 11531 14fc 18000000 		.4byte	.LVL266
 11532 1500 0200     		.2byte	0x2
 11533 1502 30       		.byte	0x30
 11534 1503 9F       		.byte	0x9f
 11535 1504 18000000 		.4byte	.LVL266
 11536 1508 9E000000 		.4byte	.LVL282
 11537 150c 0100     		.2byte	0x1
 11538 150e 55       		.byte	0x55
 11539 150f B6000000 		.4byte	.LVL285
 11540 1513 28010000 		.4byte	.LVL302
 11541 1517 0100     		.2byte	0x1
 11542 1519 55       		.byte	0x55
 11543 151a 00000000 		.4byte	0
 11544 151e 00000000 		.4byte	0
 11545              	.LLST109:
 11546 1522 00000000 		.4byte	.LVL265
 11547 1526 20000000 		.4byte	.LVL267
 11548 152a 0200     		.2byte	0x2
 11549 152c 31       		.byte	0x31
 11550 152d 9F       		.byte	0x9f
 11551 152e 20000000 		.4byte	.LVL267
 11552 1532 24010000 		.4byte	.LVL301
 11553 1536 0100     		.2byte	0x1
 11554 1538 56       		.byte	0x56
 11555 1539 00000000 		.4byte	0
 11556 153d 00000000 		.4byte	0
 11557              	.LLST110:
 11558 1541 BE000000 		.4byte	.LVL286
 11559 1545 D4000000 		.4byte	.LVL291
 11560 1549 0100     		.2byte	0x1
 11561 154b 54       		.byte	0x54
 11562 154c 00000000 		.4byte	0
 11563 1550 00000000 		.4byte	0
 11564              	.LLST111:
 11565 1554 BE000000 		.4byte	.LVL286
 11566 1558 C4000000 		.4byte	.LVL288
 11567 155c 0200     		.2byte	0x2
 11568 155e 30       		.byte	0x30
 11569 155f 9F       		.byte	0x9f
 11570 1560 C4000000 		.4byte	.LVL288
 11571 1564 D0000000 		.4byte	.LVL290
ARM GAS  /tmp/ccJZ9K5Y.s 			page 204


 11572 1568 0100     		.2byte	0x1
 11573 156a 52       		.byte	0x52
 11574 156b D0000000 		.4byte	.LVL290
 11575 156f D4000000 		.4byte	.LVL291
 11576 1573 0B00     		.2byte	0xb
 11577 1575 77       		.byte	0x77
 11578 1576 00       		.sleb128 0
 11579 1577 34       		.byte	0x34
 11580 1578 24       		.byte	0x24
 11581 1579 74       		.byte	0x74
 11582 157a 00       		.sleb128 0
 11583 157b 21       		.byte	0x21
 11584 157c 7E       		.byte	0x7e
 11585 157d 00       		.sleb128 0
 11586 157e 21       		.byte	0x21
 11587 157f 9F       		.byte	0x9f
 11588 1580 D4000000 		.4byte	.LVL291
 11589 1584 44010000 		.4byte	.LFE164
 11590 1588 1000     		.2byte	0x10
 11591 158a 77       		.byte	0x77
 11592 158b 00       		.sleb128 0
 11593 158c 34       		.byte	0x34
 11594 158d 24       		.byte	0x24
 11595 158e F3       		.byte	0xf3
 11596 158f 01       		.uleb128 0x1
 11597 1590 51       		.byte	0x51
 11598 1591 23       		.byte	0x23
 11599 1592 04       		.uleb128 0x4
 11600 1593 94       		.byte	0x94
 11601 1594 02       		.byte	0x2
 11602 1595 21       		.byte	0x21
 11603 1596 7E       		.byte	0x7e
 11604 1597 00       		.sleb128 0
 11605 1598 21       		.byte	0x21
 11606 1599 9F       		.byte	0x9f
 11607 159a 00000000 		.4byte	0
 11608 159e 00000000 		.4byte	0
 11609              	.LLST112:
 11610 15a2 BE000000 		.4byte	.LVL286
 11611 15a6 C8000000 		.4byte	.LVL289
 11612 15aa 0200     		.2byte	0x2
 11613 15ac 30       		.byte	0x30
 11614 15ad 9F       		.byte	0x9f
 11615 15ae C8000000 		.4byte	.LVL289
 11616 15b2 DC000000 		.4byte	.LVL292
 11617 15b6 0100     		.2byte	0x1
 11618 15b8 58       		.byte	0x58
 11619 15b9 DC000000 		.4byte	.LVL292
 11620 15bd F2000000 		.4byte	.LVL293
 11621 15c1 0800     		.2byte	0x8
 11622 15c3 7C       		.byte	0x7c
 11623 15c4 00       		.sleb128 0
 11624 15c5 73       		.byte	0x73
 11625 15c6 00       		.sleb128 0
 11626 15c7 21       		.byte	0x21
 11627 15c8 31       		.byte	0x31
 11628 15c9 21       		.byte	0x21
ARM GAS  /tmp/ccJZ9K5Y.s 			page 205


 11629 15ca 9F       		.byte	0x9f
 11630 15cb F2000000 		.4byte	.LVL293
 11631 15cf 44010000 		.4byte	.LFE164
 11632 15d3 0C00     		.2byte	0xc
 11633 15d5 78       		.byte	0x78
 11634 15d6 00       		.sleb128 0
 11635 15d7 0A       		.byte	0xa
 11636 15d8 F5FF     		.2byte	0xfff5
 11637 15da 1A       		.byte	0x1a
 11638 15db 7C       		.byte	0x7c
 11639 15dc 00       		.sleb128 0
 11640 15dd 21       		.byte	0x21
 11641 15de 31       		.byte	0x31
 11642 15df 21       		.byte	0x21
 11643 15e0 9F       		.byte	0x9f
 11644 15e1 00000000 		.4byte	0
 11645 15e5 00000000 		.4byte	0
 11646              	.LLST113:
 11647 15e9 2C000000 		.4byte	.LVL268
 11648 15ed 90000000 		.4byte	.LVL279
 11649 15f1 0100     		.2byte	0x1
 11650 15f3 53       		.byte	0x53
 11651 15f4 90000000 		.4byte	.LVL279
 11652 15f8 B6000000 		.4byte	.LVL285
 11653 15fc 0500     		.2byte	0x5
 11654 15fe F3       		.byte	0xf3
 11655 15ff 01       		.uleb128 0x1
 11656 1600 51       		.byte	0x51
 11657 1601 23       		.byte	0x23
 11658 1602 08       		.uleb128 0x8
 11659 1603 00000000 		.4byte	0
 11660 1607 00000000 		.4byte	0
 11661              	.LLST114:
 11662 160b 2C000000 		.4byte	.LVL268
 11663 160f 4E000000 		.4byte	.LVL273
 11664 1613 0100     		.2byte	0x1
 11665 1615 54       		.byte	0x54
 11666 1616 4E000000 		.4byte	.LVL273
 11667 161a B6000000 		.4byte	.LVL285
 11668 161e 0500     		.2byte	0x5
 11669 1620 F3       		.byte	0xf3
 11670 1621 01       		.uleb128 0x1
 11671 1622 51       		.byte	0x51
 11672 1623 23       		.byte	0x23
 11673 1624 04       		.uleb128 0x4
 11674 1625 00000000 		.4byte	0
 11675 1629 00000000 		.4byte	0
 11676              	.LLST115:
 11677 162d 2C000000 		.4byte	.LVL268
 11678 1631 B6000000 		.4byte	.LVL285
 11679 1635 0100     		.2byte	0x1
 11680 1637 5C       		.byte	0x5c
 11681 1638 00000000 		.4byte	0
 11682 163c 00000000 		.4byte	0
 11683              	.LLST116:
 11684 1640 2C000000 		.4byte	.LVL268
 11685 1644 B6000000 		.4byte	.LVL285
ARM GAS  /tmp/ccJZ9K5Y.s 			page 206


 11686 1648 0100     		.2byte	0x1
 11687 164a 50       		.byte	0x50
 11688 164b 00000000 		.4byte	0
 11689 164f 00000000 		.4byte	0
 11690              	.LLST117:
 11691 1653 2C000000 		.4byte	.LVL268
 11692 1657 34000000 		.4byte	.LVL270
 11693 165b 0200     		.2byte	0x2
 11694 165d 30       		.byte	0x30
 11695 165e 9F       		.byte	0x9f
 11696 165f 34000000 		.4byte	.LVL270
 11697 1663 4A000000 		.4byte	.LVL272
 11698 1667 0100     		.2byte	0x1
 11699 1669 58       		.byte	0x58
 11700 166a 4A000000 		.4byte	.LVL272
 11701 166e 4E000000 		.4byte	.LVL273
 11702 1672 0D00     		.2byte	0xd
 11703 1674 74       		.byte	0x74
 11704 1675 00       		.sleb128 0
 11705 1676 38       		.byte	0x38
 11706 1677 24       		.byte	0x24
 11707 1678 73       		.byte	0x73
 11708 1679 00       		.sleb128 0
 11709 167a 3C       		.byte	0x3c
 11710 167b 24       		.byte	0x24
 11711 167c 21       		.byte	0x21
 11712 167d 7E       		.byte	0x7e
 11713 167e 00       		.sleb128 0
 11714 167f 21       		.byte	0x21
 11715 1680 9F       		.byte	0x9f
 11716 1681 4E000000 		.4byte	.LVL273
 11717 1685 90000000 		.4byte	.LVL279
 11718 1689 1200     		.2byte	0x12
 11719 168b F3       		.byte	0xf3
 11720 168c 01       		.uleb128 0x1
 11721 168d 51       		.byte	0x51
 11722 168e 23       		.byte	0x23
 11723 168f 04       		.uleb128 0x4
 11724 1690 94       		.byte	0x94
 11725 1691 02       		.byte	0x2
 11726 1692 38       		.byte	0x38
 11727 1693 24       		.byte	0x24
 11728 1694 73       		.byte	0x73
 11729 1695 00       		.sleb128 0
 11730 1696 3C       		.byte	0x3c
 11731 1697 24       		.byte	0x24
 11732 1698 21       		.byte	0x21
 11733 1699 7E       		.byte	0x7e
 11734 169a 00       		.sleb128 0
 11735 169b 21       		.byte	0x21
 11736 169c 9F       		.byte	0x9f
 11737 169d 90000000 		.4byte	.LVL279
 11738 16a1 B6000000 		.4byte	.LVL285
 11739 16a5 1700     		.2byte	0x17
 11740 16a7 F3       		.byte	0xf3
 11741 16a8 01       		.uleb128 0x1
 11742 16a9 51       		.byte	0x51
ARM GAS  /tmp/ccJZ9K5Y.s 			page 207


 11743 16aa 23       		.byte	0x23
 11744 16ab 04       		.uleb128 0x4
 11745 16ac 94       		.byte	0x94
 11746 16ad 02       		.byte	0x2
 11747 16ae 38       		.byte	0x38
 11748 16af 24       		.byte	0x24
 11749 16b0 F3       		.byte	0xf3
 11750 16b1 01       		.uleb128 0x1
 11751 16b2 51       		.byte	0x51
 11752 16b3 23       		.byte	0x23
 11753 16b4 08       		.uleb128 0x8
 11754 16b5 94       		.byte	0x94
 11755 16b6 02       		.byte	0x2
 11756 16b7 3C       		.byte	0x3c
 11757 16b8 24       		.byte	0x24
 11758 16b9 21       		.byte	0x21
 11759 16ba 7E       		.byte	0x7e
 11760 16bb 00       		.sleb128 0
 11761 16bc 21       		.byte	0x21
 11762 16bd 9F       		.byte	0x9f
 11763 16be 00000000 		.4byte	0
 11764 16c2 00000000 		.4byte	0
 11765              	.LLST118:
 11766 16c6 2C000000 		.4byte	.LVL268
 11767 16ca 38000000 		.4byte	.LVL271
 11768 16ce 0200     		.2byte	0x2
 11769 16d0 30       		.byte	0x30
 11770 16d1 9F       		.byte	0x9f
 11771 16d2 38000000 		.4byte	.LVL271
 11772 16d6 4A000000 		.4byte	.LVL272
 11773 16da 0100     		.2byte	0x1
 11774 16dc 59       		.byte	0x59
 11775 16dd 4A000000 		.4byte	.LVL272
 11776 16e1 52000000 		.4byte	.LVL274
 11777 16e5 0A00     		.2byte	0xa
 11778 16e7 7C       		.byte	0x7c
 11779 16e8 00       		.sleb128 0
 11780 16e9 34       		.byte	0x34
 11781 16ea 24       		.byte	0x24
 11782 16eb 72       		.byte	0x72
 11783 16ec 00       		.sleb128 0
 11784 16ed 21       		.byte	0x21
 11785 16ee 40       		.byte	0x40
 11786 16ef 21       		.byte	0x21
 11787 16f0 9F       		.byte	0x9f
 11788 16f1 52000000 		.4byte	.LVL274
 11789 16f5 B6000000 		.4byte	.LVL285
 11790 16f9 0E00     		.2byte	0xe
 11791 16fb 7C       		.byte	0x7c
 11792 16fc 00       		.sleb128 0
 11793 16fd 34       		.byte	0x34
 11794 16fe 24       		.byte	0x24
 11795 16ff 79       		.byte	0x79
 11796 1700 00       		.sleb128 0
 11797 1701 0A       		.byte	0xa
 11798 1702 5FFF     		.2byte	0xff5f
 11799 1704 1A       		.byte	0x1a
ARM GAS  /tmp/ccJZ9K5Y.s 			page 208


 11800 1705 21       		.byte	0x21
 11801 1706 40       		.byte	0x40
 11802 1707 21       		.byte	0x21
 11803 1708 9F       		.byte	0x9f
 11804 1709 00000000 		.4byte	0
 11805 170d 00000000 		.4byte	0
 11806              	.LLST119:
 11807 1711 2C000000 		.4byte	.LVL268
 11808 1715 38000000 		.4byte	.LVL271
 11809 1719 0200     		.2byte	0x2
 11810 171b 30       		.byte	0x30
 11811 171c 9F       		.byte	0x9f
 11812 171d 38000000 		.4byte	.LVL271
 11813 1721 B6000000 		.4byte	.LVL285
 11814 1725 0500     		.2byte	0x5
 11815 1727 7C       		.byte	0x7c
 11816 1728 00       		.sleb128 0
 11817 1729 34       		.byte	0x34
 11818 172a 24       		.byte	0x24
 11819 172b 9F       		.byte	0x9f
 11820 172c 00000000 		.4byte	0
 11821 1730 00000000 		.4byte	0
 11822              	.LLST120:
 11823 1734 4A000000 		.4byte	.LVL272
 11824 1738 B0000000 		.4byte	.LVL284
 11825 173c 0100     		.2byte	0x1
 11826 173e 51       		.byte	0x51
 11827 173f B0000000 		.4byte	.LVL284
 11828 1743 B6000000 		.4byte	.LVL285
 11829 1747 0500     		.2byte	0x5
 11830 1749 F3       		.byte	0xf3
 11831 174a 01       		.uleb128 0x1
 11832 174b 51       		.byte	0x51
 11833 174c 23       		.byte	0x23
 11834 174d 06       		.uleb128 0x6
 11835 174e 00000000 		.4byte	0
 11836 1752 00000000 		.4byte	0
 11837              	.LLST121:
 11838 1756 4A000000 		.4byte	.LVL272
 11839 175a B6000000 		.4byte	.LVL285
 11840 175e 0100     		.2byte	0x1
 11841 1760 50       		.byte	0x50
 11842 1761 00000000 		.4byte	0
 11843 1765 00000000 		.4byte	0
 11844              	.LLST122:
 11845 1769 76000000 		.4byte	.LVL275
 11846 176d 90000000 		.4byte	.LVL279
 11847 1771 0100     		.2byte	0x1
 11848 1773 53       		.byte	0x53
 11849 1774 90000000 		.4byte	.LVL279
 11850 1778 B6000000 		.4byte	.LVL285
 11851 177c 0500     		.2byte	0x5
 11852 177e F3       		.byte	0xf3
 11853 177f 01       		.uleb128 0x1
 11854 1780 51       		.byte	0x51
 11855 1781 23       		.byte	0x23
 11856 1782 08       		.uleb128 0x8
ARM GAS  /tmp/ccJZ9K5Y.s 			page 209


 11857 1783 00000000 		.4byte	0
 11858 1787 00000000 		.4byte	0
 11859              	.LLST123:
 11860 178b 76000000 		.4byte	.LVL275
 11861 178f B6000000 		.4byte	.LVL285
 11862 1793 0100     		.2byte	0x1
 11863 1795 56       		.byte	0x56
 11864 1796 00000000 		.4byte	0
 11865 179a 00000000 		.4byte	0
 11866              	.LLST124:
 11867 179e 76000000 		.4byte	.LVL275
 11868 17a2 9E000000 		.4byte	.LVL282
 11869 17a6 0100     		.2byte	0x1
 11870 17a8 55       		.byte	0x55
 11871 17a9 00000000 		.4byte	0
 11872 17ad 00000000 		.4byte	0
 11873              	.LLST125:
 11874 17b1 76000000 		.4byte	.LVL275
 11875 17b5 B6000000 		.4byte	.LVL285
 11876 17b9 0100     		.2byte	0x1
 11877 17bb 50       		.byte	0x50
 11878 17bc 00000000 		.4byte	0
 11879 17c0 00000000 		.4byte	0
 11880              	.LLST126:
 11881 17c4 76000000 		.4byte	.LVL275
 11882 17c8 86000000 		.4byte	.LVL276
 11883 17cc 0200     		.2byte	0x2
 11884 17ce 30       		.byte	0x30
 11885 17cf 9F       		.byte	0x9f
 11886 17d0 86000000 		.4byte	.LVL276
 11887 17d4 8A000000 		.4byte	.LVL277
 11888 17d8 0100     		.2byte	0x1
 11889 17da 52       		.byte	0x52
 11890 17db 9A000000 		.4byte	.LVL280
 11891 17df 9C000000 		.4byte	.LVL281
 11892 17e3 0600     		.2byte	0x6
 11893 17e5 73       		.byte	0x73
 11894 17e6 00       		.sleb128 0
 11895 17e7 76       		.byte	0x76
 11896 17e8 00       		.sleb128 0
 11897 17e9 21       		.byte	0x21
 11898 17ea 9F       		.byte	0x9f
 11899 17eb 00000000 		.4byte	0
 11900 17ef 00000000 		.4byte	0
 11901              	.LLST127:
 11902 17f3 76000000 		.4byte	.LVL275
 11903 17f7 8C000000 		.4byte	.LVL278
 11904 17fb 0200     		.2byte	0x2
 11905 17fd 30       		.byte	0x30
 11906 17fe 9F       		.byte	0x9f
 11907 17ff 8C000000 		.4byte	.LVL278
 11908 1803 9A000000 		.4byte	.LVL280
 11909 1807 0100     		.2byte	0x1
 11910 1809 54       		.byte	0x54
 11911 180a 9A000000 		.4byte	.LVL280
 11912 180e 9E000000 		.4byte	.LVL282
 11913 1812 0600     		.2byte	0x6
ARM GAS  /tmp/ccJZ9K5Y.s 			page 210


 11914 1814 72       		.byte	0x72
 11915 1815 00       		.sleb128 0
 11916 1816 75       		.byte	0x75
 11917 1817 00       		.sleb128 0
 11918 1818 21       		.byte	0x21
 11919 1819 9F       		.byte	0x9f
 11920 181a 00000000 		.4byte	0
 11921 181e 00000000 		.4byte	0
 11922              	.LLST128:
 11923 1822 A2000000 		.4byte	.LVL283
 11924 1826 B0000000 		.4byte	.LVL284
 11925 182a 0100     		.2byte	0x1
 11926 182c 51       		.byte	0x51
 11927 182d B0000000 		.4byte	.LVL284
 11928 1831 B6000000 		.4byte	.LVL285
 11929 1835 0500     		.2byte	0x5
 11930 1837 F3       		.byte	0xf3
 11931 1838 01       		.uleb128 0x1
 11932 1839 51       		.byte	0x51
 11933 183a 23       		.byte	0x23
 11934 183b 06       		.uleb128 0x6
 11935 183c 00000000 		.4byte	0
 11936 1840 00000000 		.4byte	0
 11937              	.LLST129:
 11938 1844 A2000000 		.4byte	.LVL283
 11939 1848 B6000000 		.4byte	.LVL285
 11940 184c 0100     		.2byte	0x1
 11941 184e 50       		.byte	0x50
 11942 184f 00000000 		.4byte	0
 11943 1853 00000000 		.4byte	0
 11944              	.LLST130:
 11945 1857 DC000000 		.4byte	.LVL292
 11946 185b 3A010000 		.4byte	.LVL304
 11947 185f 0100     		.2byte	0x1
 11948 1861 51       		.byte	0x51
 11949 1862 3A010000 		.4byte	.LVL304
 11950 1866 44010000 		.4byte	.LFE164
 11951 186a 0500     		.2byte	0x5
 11952 186c F3       		.byte	0xf3
 11953 186d 01       		.uleb128 0x1
 11954 186e 51       		.byte	0x51
 11955 186f 23       		.byte	0x23
 11956 1870 06       		.uleb128 0x6
 11957 1871 00000000 		.4byte	0
 11958 1875 00000000 		.4byte	0
 11959              	.LLST131:
 11960 1879 FC000000 		.4byte	.LVL294
 11961 187d 24010000 		.4byte	.LVL301
 11962 1881 0100     		.2byte	0x1
 11963 1883 56       		.byte	0x56
 11964 1884 00000000 		.4byte	0
 11965 1888 00000000 		.4byte	0
 11966              	.LLST132:
 11967 188c FC000000 		.4byte	.LVL294
 11968 1890 28010000 		.4byte	.LVL302
 11969 1894 0100     		.2byte	0x1
 11970 1896 55       		.byte	0x55
ARM GAS  /tmp/ccJZ9K5Y.s 			page 211


 11971 1897 00000000 		.4byte	0
 11972 189b 00000000 		.4byte	0
 11973              	.LLST133:
 11974 189f FC000000 		.4byte	.LVL294
 11975 18a3 08010000 		.4byte	.LVL295
 11976 18a7 0200     		.2byte	0x2
 11977 18a9 30       		.byte	0x30
 11978 18aa 9F       		.byte	0x9f
 11979 18ab 08010000 		.4byte	.LVL295
 11980 18af 12010000 		.4byte	.LVL296
 11981 18b3 0100     		.2byte	0x1
 11982 18b5 54       		.byte	0x54
 11983 18b6 12010000 		.4byte	.LVL296
 11984 18ba 16010000 		.4byte	.LVL297
 11985 18be 0100     		.2byte	0x1
 11986 18c0 53       		.byte	0x53
 11987 18c1 16010000 		.4byte	.LVL297
 11988 18c5 1C010000 		.4byte	.LVL299
 11989 18c9 0700     		.2byte	0x7
 11990 18cb 74       		.byte	0x74
 11991 18cc 00       		.sleb128 0
 11992 18cd 0A       		.byte	0xa
 11993 18ce FF0C     		.2byte	0xcff
 11994 18d0 1A       		.byte	0x1a
 11995 18d1 9F       		.byte	0x9f
 11996 18d2 1C010000 		.4byte	.LVL299
 11997 18d6 24010000 		.4byte	.LVL301
 11998 18da 0800     		.2byte	0x8
 11999 18dc 76       		.byte	0x76
 12000 18dd 00       		.sleb128 0
 12001 18de 38       		.byte	0x38
 12002 18df 24       		.byte	0x24
 12003 18e0 73       		.byte	0x73
 12004 18e1 00       		.sleb128 0
 12005 18e2 21       		.byte	0x21
 12006 18e3 9F       		.byte	0x9f
 12007 18e4 00000000 		.4byte	0
 12008 18e8 00000000 		.4byte	0
 12009              	.LLST134:
 12010 18ec FC000000 		.4byte	.LVL294
 12011 18f0 12010000 		.4byte	.LVL296
 12012 18f4 0200     		.2byte	0x2
 12013 18f6 30       		.byte	0x30
 12014 18f7 9F       		.byte	0x9f
 12015 18f8 12010000 		.4byte	.LVL296
 12016 18fc 1A010000 		.4byte	.LVL298
 12017 1900 0100     		.2byte	0x1
 12018 1902 52       		.byte	0x52
 12019 1903 20010000 		.4byte	.LVL300
 12020 1907 28010000 		.4byte	.LVL302
 12021 190b 0800     		.2byte	0x8
 12022 190d 75       		.byte	0x75
 12023 190e 00       		.sleb128 0
 12024 190f 34       		.byte	0x34
 12025 1910 24       		.byte	0x24
 12026 1911 72       		.byte	0x72
 12027 1912 00       		.sleb128 0
ARM GAS  /tmp/ccJZ9K5Y.s 			page 212


 12028 1913 21       		.byte	0x21
 12029 1914 9F       		.byte	0x9f
 12030 1915 00000000 		.4byte	0
 12031 1919 00000000 		.4byte	0
 12032              	.LLST135:
 12033 191d FC000000 		.4byte	.LVL294
 12034 1921 12010000 		.4byte	.LVL296
 12035 1925 0200     		.2byte	0x2
 12036 1927 30       		.byte	0x30
 12037 1928 9F       		.byte	0x9f
 12038 1929 12010000 		.4byte	.LVL296
 12039 192d 28010000 		.4byte	.LVL302
 12040 1931 0500     		.2byte	0x5
 12041 1933 75       		.byte	0x75
 12042 1934 00       		.sleb128 0
 12043 1935 34       		.byte	0x34
 12044 1936 24       		.byte	0x24
 12045 1937 9F       		.byte	0x9f
 12046 1938 00000000 		.4byte	0
 12047 193c 00000000 		.4byte	0
 12048              	.LLST136:
 12049 1940 2C010000 		.4byte	.LVL303
 12050 1944 3A010000 		.4byte	.LVL304
 12051 1948 0100     		.2byte	0x1
 12052 194a 51       		.byte	0x51
 12053 194b 3A010000 		.4byte	.LVL304
 12054 194f 44010000 		.4byte	.LFE164
 12055 1953 0500     		.2byte	0x5
 12056 1955 F3       		.byte	0xf3
 12057 1956 01       		.uleb128 0x1
 12058 1957 51       		.byte	0x51
 12059 1958 23       		.byte	0x23
 12060 1959 06       		.uleb128 0x6
 12061 195a 00000000 		.4byte	0
 12062 195e 00000000 		.4byte	0
 12063              	.LLST137:
 12064 1962 00000000 		.4byte	.LVL305
 12065 1966 02000000 		.4byte	.LVL306
 12066 196a 0100     		.2byte	0x1
 12067 196c 50       		.byte	0x50
 12068 196d 02000000 		.4byte	.LVL306
 12069 1971 04000000 		.4byte	.LFE165
 12070 1975 0400     		.2byte	0x4
 12071 1977 F3       		.byte	0xf3
 12072 1978 01       		.uleb128 0x1
 12073 1979 50       		.byte	0x50
 12074 197a 9F       		.byte	0x9f
 12075 197b 00000000 		.4byte	0
 12076 197f 00000000 		.4byte	0
 12077              	.LLST138:
 12078 1983 00000000 		.4byte	.LVL307
 12079 1987 02000000 		.4byte	.LVL308
 12080 198b 0100     		.2byte	0x1
 12081 198d 50       		.byte	0x50
 12082 198e 02000000 		.4byte	.LVL308
 12083 1992 04000000 		.4byte	.LFE166
 12084 1996 0400     		.2byte	0x4
ARM GAS  /tmp/ccJZ9K5Y.s 			page 213


 12085 1998 F3       		.byte	0xf3
 12086 1999 01       		.uleb128 0x1
 12087 199a 50       		.byte	0x50
 12088 199b 9F       		.byte	0x9f
 12089 199c 00000000 		.4byte	0
 12090 19a0 00000000 		.4byte	0
 12091              	.LLST139:
 12092 19a4 00000000 		.4byte	.LVL309
 12093 19a8 02000000 		.4byte	.LVL310
 12094 19ac 0100     		.2byte	0x1
 12095 19ae 50       		.byte	0x50
 12096 19af 02000000 		.4byte	.LVL310
 12097 19b3 04000000 		.4byte	.LFE167
 12098 19b7 0400     		.2byte	0x4
 12099 19b9 F3       		.byte	0xf3
 12100 19ba 01       		.uleb128 0x1
 12101 19bb 50       		.byte	0x50
 12102 19bc 9F       		.byte	0x9f
 12103 19bd 00000000 		.4byte	0
 12104 19c1 00000000 		.4byte	0
 12105              	.LLST140:
 12106 19c5 00000000 		.4byte	.LVL311
 12107 19c9 02000000 		.4byte	.LVL312
 12108 19cd 0100     		.2byte	0x1
 12109 19cf 50       		.byte	0x50
 12110 19d0 02000000 		.4byte	.LVL312
 12111 19d4 04000000 		.4byte	.LFE168
 12112 19d8 0400     		.2byte	0x4
 12113 19da F3       		.byte	0xf3
 12114 19db 01       		.uleb128 0x1
 12115 19dc 50       		.byte	0x50
 12116 19dd 9F       		.byte	0x9f
 12117 19de 00000000 		.4byte	0
 12118 19e2 00000000 		.4byte	0
 12119              	.LLST141:
 12120 19e6 00000000 		.4byte	.LVL313
 12121 19ea 0E000000 		.4byte	.LVL314
 12122 19ee 0100     		.2byte	0x1
 12123 19f0 51       		.byte	0x51
 12124 19f1 0E000000 		.4byte	.LVL314
 12125 19f5 12000000 		.4byte	.LFE169
 12126 19f9 0400     		.2byte	0x4
 12127 19fb F3       		.byte	0xf3
 12128 19fc 01       		.uleb128 0x1
 12129 19fd 51       		.byte	0x51
 12130 19fe 9F       		.byte	0x9f
 12131 19ff 00000000 		.4byte	0
 12132 1a03 00000000 		.4byte	0
 12133              	.LLST142:
 12134 1a07 00000000 		.4byte	.LVL315
 12135 1a0b 0E000000 		.4byte	.LVL316
 12136 1a0f 0100     		.2byte	0x1
 12137 1a11 51       		.byte	0x51
 12138 1a12 0E000000 		.4byte	.LVL316
 12139 1a16 16000000 		.4byte	.LFE170
 12140 1a1a 0400     		.2byte	0x4
 12141 1a1c F3       		.byte	0xf3
ARM GAS  /tmp/ccJZ9K5Y.s 			page 214


 12142 1a1d 01       		.uleb128 0x1
 12143 1a1e 51       		.byte	0x51
 12144 1a1f 9F       		.byte	0x9f
 12145 1a20 00000000 		.4byte	0
 12146 1a24 00000000 		.4byte	0
 12147              	.LLST143:
 12148 1a28 00000000 		.4byte	.LVL317
 12149 1a2c 0E000000 		.4byte	.LVL318
 12150 1a30 0100     		.2byte	0x1
 12151 1a32 51       		.byte	0x51
 12152 1a33 0E000000 		.4byte	.LVL318
 12153 1a37 12000000 		.4byte	.LFE171
 12154 1a3b 0400     		.2byte	0x4
 12155 1a3d F3       		.byte	0xf3
 12156 1a3e 01       		.uleb128 0x1
 12157 1a3f 51       		.byte	0x51
 12158 1a40 9F       		.byte	0x9f
 12159 1a41 00000000 		.4byte	0
 12160 1a45 00000000 		.4byte	0
 12161              	.LLST144:
 12162 1a49 00000000 		.4byte	.LVL319
 12163 1a4d 0E000000 		.4byte	.LVL320
 12164 1a51 0100     		.2byte	0x1
 12165 1a53 51       		.byte	0x51
 12166 1a54 0E000000 		.4byte	.LVL320
 12167 1a58 16000000 		.4byte	.LFE172
 12168 1a5c 0400     		.2byte	0x4
 12169 1a5e F3       		.byte	0xf3
 12170 1a5f 01       		.uleb128 0x1
 12171 1a60 51       		.byte	0x51
 12172 1a61 9F       		.byte	0x9f
 12173 1a62 00000000 		.4byte	0
 12174 1a66 00000000 		.4byte	0
 12175              	.LLST145:
 12176 1a6a 00000000 		.4byte	.LVL326
 12177 1a6e 06000000 		.4byte	.LVL327
 12178 1a72 0100     		.2byte	0x1
 12179 1a74 51       		.byte	0x51
 12180 1a75 06000000 		.4byte	.LVL327
 12181 1a79 0E000000 		.4byte	.LVL328
 12182 1a7d 0400     		.2byte	0x4
 12183 1a7f F3       		.byte	0xf3
 12184 1a80 01       		.uleb128 0x1
 12185 1a81 51       		.byte	0x51
 12186 1a82 9F       		.byte	0x9f
 12187 1a83 0E000000 		.4byte	.LVL328
 12188 1a87 12000000 		.4byte	.LVL329
 12189 1a8b 0100     		.2byte	0x1
 12190 1a8d 51       		.byte	0x51
 12191 1a8e 12000000 		.4byte	.LVL329
 12192 1a92 16000000 		.4byte	.LFE178
 12193 1a96 0400     		.2byte	0x4
 12194 1a98 F3       		.byte	0xf3
 12195 1a99 01       		.uleb128 0x1
 12196 1a9a 51       		.byte	0x51
 12197 1a9b 9F       		.byte	0x9f
 12198 1a9c 00000000 		.4byte	0
ARM GAS  /tmp/ccJZ9K5Y.s 			page 215


 12199 1aa0 00000000 		.4byte	0
 12200              	.LLST146:
 12201 1aa4 00000000 		.4byte	.LVL331
 12202 1aa8 08000000 		.4byte	.LVL333
 12203 1aac 0100     		.2byte	0x1
 12204 1aae 50       		.byte	0x50
 12205 1aaf 08000000 		.4byte	.LVL333
 12206 1ab3 0C000000 		.4byte	.LFE180
 12207 1ab7 0400     		.2byte	0x4
 12208 1ab9 F3       		.byte	0xf3
 12209 1aba 01       		.uleb128 0x1
 12210 1abb 50       		.byte	0x50
 12211 1abc 9F       		.byte	0x9f
 12212 1abd 00000000 		.4byte	0
 12213 1ac1 00000000 		.4byte	0
 12214              	.LLST147:
 12215 1ac5 00000000 		.4byte	.LVL331
 12216 1ac9 02000000 		.4byte	.LVL332
 12217 1acd 0200     		.2byte	0x2
 12218 1acf 30       		.byte	0x30
 12219 1ad0 9F       		.byte	0x9f
 12220 1ad1 02000000 		.4byte	.LVL332
 12221 1ad5 0C000000 		.4byte	.LFE180
 12222 1ad9 0C00     		.2byte	0xc
 12223 1adb 71       		.byte	0x71
 12224 1adc 00       		.sleb128 0
 12225 1add 0A       		.byte	0xa
 12226 1ade FFFF     		.2byte	0xffff
 12227 1ae0 1A       		.byte	0x1a
 12228 1ae1 73       		.byte	0x73
 12229 1ae2 00       		.sleb128 0
 12230 1ae3 1A       		.byte	0x1a
 12231 1ae4 30       		.byte	0x30
 12232 1ae5 2E       		.byte	0x2e
 12233 1ae6 9F       		.byte	0x9f
 12234 1ae7 00000000 		.4byte	0
 12235 1aeb 00000000 		.4byte	0
 12236              	.LLST148:
 12237 1aef 00000000 		.4byte	.LVL334
 12238 1af3 02000000 		.4byte	.LVL335
 12239 1af7 0100     		.2byte	0x1
 12240 1af9 51       		.byte	0x51
 12241 1afa 02000000 		.4byte	.LVL335
 12242 1afe 08000000 		.4byte	.LFE181
 12243 1b02 0400     		.2byte	0x4
 12244 1b04 F3       		.byte	0xf3
 12245 1b05 01       		.uleb128 0x1
 12246 1b06 51       		.byte	0x51
 12247 1b07 9F       		.byte	0x9f
 12248 1b08 00000000 		.4byte	0
 12249 1b0c 00000000 		.4byte	0
 12250              	.LLST149:
 12251 1b10 00000000 		.4byte	.LVL336
 12252 1b14 08000000 		.4byte	.LVL339
 12253 1b18 0100     		.2byte	0x1
 12254 1b1a 50       		.byte	0x50
 12255 1b1b 08000000 		.4byte	.LVL339
ARM GAS  /tmp/ccJZ9K5Y.s 			page 216


 12256 1b1f 14000000 		.4byte	.LFE182
 12257 1b23 0400     		.2byte	0x4
 12258 1b25 F3       		.byte	0xf3
 12259 1b26 01       		.uleb128 0x1
 12260 1b27 50       		.byte	0x50
 12261 1b28 9F       		.byte	0x9f
 12262 1b29 00000000 		.4byte	0
 12263 1b2d 00000000 		.4byte	0
 12264              	.LLST150:
 12265 1b31 00000000 		.4byte	.LVL336
 12266 1b35 12000000 		.4byte	.LVL340
 12267 1b39 0200     		.2byte	0x2
 12268 1b3b 30       		.byte	0x30
 12269 1b3c 9F       		.byte	0x9f
 12270 1b3d 12000000 		.4byte	.LVL340
 12271 1b41 14000000 		.4byte	.LFE182
 12272 1b45 0100     		.2byte	0x1
 12273 1b47 50       		.byte	0x50
 12274 1b48 00000000 		.4byte	0
 12275 1b4c 00000000 		.4byte	0
 12276              	.LLST151:
 12277 1b50 00000000 		.4byte	.LVL336
 12278 1b54 02000000 		.4byte	.LVL337
 12279 1b58 0200     		.2byte	0x2
 12280 1b5a 30       		.byte	0x30
 12281 1b5b 9F       		.byte	0x9f
 12282 1b5c 02000000 		.4byte	.LVL337
 12283 1b60 14000000 		.4byte	.LFE182
 12284 1b64 0600     		.2byte	0x6
 12285 1b66 71       		.byte	0x71
 12286 1b67 00       		.sleb128 0
 12287 1b68 73       		.byte	0x73
 12288 1b69 00       		.sleb128 0
 12289 1b6a 1A       		.byte	0x1a
 12290 1b6b 9F       		.byte	0x9f
 12291 1b6c 00000000 		.4byte	0
 12292 1b70 00000000 		.4byte	0
 12293              	.LLST152:
 12294 1b74 00000000 		.4byte	.LVL336
 12295 1b78 04000000 		.4byte	.LVL338
 12296 1b7c 0200     		.2byte	0x2
 12297 1b7e 30       		.byte	0x30
 12298 1b7f 9F       		.byte	0x9f
 12299 1b80 04000000 		.4byte	.LVL338
 12300 1b84 14000000 		.4byte	.LFE182
 12301 1b88 0600     		.2byte	0x6
 12302 1b8a 72       		.byte	0x72
 12303 1b8b 00       		.sleb128 0
 12304 1b8c 71       		.byte	0x71
 12305 1b8d 00       		.sleb128 0
 12306 1b8e 1A       		.byte	0x1a
 12307 1b8f 9F       		.byte	0x9f
 12308 1b90 00000000 		.4byte	0
 12309 1b94 00000000 		.4byte	0
 12310              	.LLST153:
 12311 1b98 00000000 		.4byte	.LVL341
 12312 1b9c 02000000 		.4byte	.LVL342
ARM GAS  /tmp/ccJZ9K5Y.s 			page 217


 12313 1ba0 0100     		.2byte	0x1
 12314 1ba2 51       		.byte	0x51
 12315 1ba3 02000000 		.4byte	.LVL342
 12316 1ba7 08000000 		.4byte	.LFE183
 12317 1bab 0400     		.2byte	0x4
 12318 1bad F3       		.byte	0xf3
 12319 1bae 01       		.uleb128 0x1
 12320 1baf 51       		.byte	0x51
 12321 1bb0 9F       		.byte	0x9f
 12322 1bb1 00000000 		.4byte	0
 12323 1bb5 00000000 		.4byte	0
 12324              	.LLST154:
 12325 1bb9 00000000 		.4byte	.LVL343
 12326 1bbd 02000000 		.4byte	.LVL344
 12327 1bc1 0100     		.2byte	0x1
 12328 1bc3 52       		.byte	0x52
 12329 1bc4 02000000 		.4byte	.LVL344
 12330 1bc8 06000000 		.4byte	.LFE184
 12331 1bcc 0400     		.2byte	0x4
 12332 1bce F3       		.byte	0xf3
 12333 1bcf 01       		.uleb128 0x1
 12334 1bd0 52       		.byte	0x52
 12335 1bd1 9F       		.byte	0x9f
 12336 1bd2 00000000 		.4byte	0
 12337 1bd6 00000000 		.4byte	0
 12338              	.LLST155:
 12339 1bda 00000000 		.4byte	.LVL345
 12340 1bde 06000000 		.4byte	.LVL346
 12341 1be2 0100     		.2byte	0x1
 12342 1be4 51       		.byte	0x51
 12343 1be5 06000000 		.4byte	.LVL346
 12344 1be9 0E000000 		.4byte	.LVL347
 12345 1bed 0400     		.2byte	0x4
 12346 1bef F3       		.byte	0xf3
 12347 1bf0 01       		.uleb128 0x1
 12348 1bf1 51       		.byte	0x51
 12349 1bf2 9F       		.byte	0x9f
 12350 1bf3 0E000000 		.4byte	.LVL347
 12351 1bf7 12000000 		.4byte	.LVL348
 12352 1bfb 0100     		.2byte	0x1
 12353 1bfd 51       		.byte	0x51
 12354 1bfe 12000000 		.4byte	.LVL348
 12355 1c02 16000000 		.4byte	.LFE185
 12356 1c06 0400     		.2byte	0x4
 12357 1c08 F3       		.byte	0xf3
 12358 1c09 01       		.uleb128 0x1
 12359 1c0a 51       		.byte	0x51
 12360 1c0b 9F       		.byte	0x9f
 12361 1c0c 00000000 		.4byte	0
 12362 1c10 00000000 		.4byte	0
 12363              	.LLST156:
 12364 1c14 00000000 		.4byte	.LVL351
 12365 1c18 0A000000 		.4byte	.LVL354
 12366 1c1c 0100     		.2byte	0x1
 12367 1c1e 51       		.byte	0x51
 12368 1c1f 0A000000 		.4byte	.LVL354
 12369 1c23 16000000 		.4byte	.LFE188
ARM GAS  /tmp/ccJZ9K5Y.s 			page 218


 12370 1c27 0400     		.2byte	0x4
 12371 1c29 F3       		.byte	0xf3
 12372 1c2a 01       		.uleb128 0x1
 12373 1c2b 51       		.byte	0x51
 12374 1c2c 9F       		.byte	0x9f
 12375 1c2d 00000000 		.4byte	0
 12376 1c31 00000000 		.4byte	0
 12377              	.LLST158:
 12378 1c35 00000000 		.4byte	.LVL351
 12379 1c39 02000000 		.4byte	.LVL352
 12380 1c3d 0200     		.2byte	0x2
 12381 1c3f 30       		.byte	0x30
 12382 1c40 9F       		.byte	0x9f
 12383 1c41 02000000 		.4byte	.LVL352
 12384 1c45 08000000 		.4byte	.LVL353
 12385 1c49 0100     		.2byte	0x1
 12386 1c4b 52       		.byte	0x52
 12387 1c4c 08000000 		.4byte	.LVL353
 12388 1c50 0A000000 		.4byte	.LVL354
 12389 1c54 0600     		.2byte	0x6
 12390 1c56 71       		.byte	0x71
 12391 1c57 00       		.sleb128 0
 12392 1c58 73       		.byte	0x73
 12393 1c59 00       		.sleb128 0
 12394 1c5a 21       		.byte	0x21
 12395 1c5b 9F       		.byte	0x9f
 12396 1c5c 0A000000 		.4byte	.LVL354
 12397 1c60 0E000000 		.4byte	.LVL355
 12398 1c64 0700     		.2byte	0x7
 12399 1c66 F3       		.byte	0xf3
 12400 1c67 01       		.uleb128 0x1
 12401 1c68 51       		.byte	0x51
 12402 1c69 73       		.byte	0x73
 12403 1c6a 00       		.sleb128 0
 12404 1c6b 21       		.byte	0x21
 12405 1c6c 9F       		.byte	0x9f
 12406 1c6d 0E000000 		.4byte	.LVL355
 12407 1c71 16000000 		.4byte	.LFE188
 12408 1c75 0B00     		.2byte	0xb
 12409 1c77 72       		.byte	0x72
 12410 1c78 00       		.sleb128 0
 12411 1c79 0A       		.byte	0xa
 12412 1c7a 8FFF     		.2byte	0xff8f
 12413 1c7c 1A       		.byte	0x1a
 12414 1c7d F3       		.byte	0xf3
 12415 1c7e 01       		.uleb128 0x1
 12416 1c7f 51       		.byte	0x51
 12417 1c80 21       		.byte	0x21
 12418 1c81 9F       		.byte	0x9f
 12419 1c82 00000000 		.4byte	0
 12420 1c86 00000000 		.4byte	0
 12421              	.LLST159:
 12422 1c8a 00000000 		.4byte	.LVL356
 12423 1c8e 3E000000 		.4byte	.LVL369
 12424 1c92 0100     		.2byte	0x1
 12425 1c94 51       		.byte	0x51
 12426 1c95 3E000000 		.4byte	.LVL369
ARM GAS  /tmp/ccJZ9K5Y.s 			page 219


 12427 1c99 4C000000 		.4byte	.LVL371
 12428 1c9d 0400     		.2byte	0x4
 12429 1c9f F3       		.byte	0xf3
 12430 1ca0 01       		.uleb128 0x1
 12431 1ca1 51       		.byte	0x51
 12432 1ca2 9F       		.byte	0x9f
 12433 1ca3 4C000000 		.4byte	.LVL371
 12434 1ca7 7E000000 		.4byte	.LFE189
 12435 1cab 0100     		.2byte	0x1
 12436 1cad 51       		.byte	0x51
 12437 1cae 00000000 		.4byte	0
 12438 1cb2 00000000 		.4byte	0
 12439              	.LLST160:
 12440 1cb6 00000000 		.4byte	.LVL356
 12441 1cba 30000000 		.4byte	.LVL365
 12442 1cbe 0100     		.2byte	0x1
 12443 1cc0 52       		.byte	0x52
 12444 1cc1 30000000 		.4byte	.LVL365
 12445 1cc5 4C000000 		.4byte	.LVL371
 12446 1cc9 0400     		.2byte	0x4
 12447 1ccb F3       		.byte	0xf3
 12448 1ccc 01       		.uleb128 0x1
 12449 1ccd 52       		.byte	0x52
 12450 1cce 9F       		.byte	0x9f
 12451 1ccf 4C000000 		.4byte	.LVL371
 12452 1cd3 74000000 		.4byte	.LVL378
 12453 1cd7 0100     		.2byte	0x1
 12454 1cd9 52       		.byte	0x52
 12455 1cda 74000000 		.4byte	.LVL378
 12456 1cde 7E000000 		.4byte	.LFE189
 12457 1ce2 0400     		.2byte	0x4
 12458 1ce4 F3       		.byte	0xf3
 12459 1ce5 01       		.uleb128 0x1
 12460 1ce6 52       		.byte	0x52
 12461 1ce7 9F       		.byte	0x9f
 12462 1ce8 00000000 		.4byte	0
 12463 1cec 00000000 		.4byte	0
 12464              	.LLST161:
 12465 1cf0 00000000 		.4byte	.LVL356
 12466 1cf4 28000000 		.4byte	.LVL363
 12467 1cf8 0100     		.2byte	0x1
 12468 1cfa 53       		.byte	0x53
 12469 1cfb 28000000 		.4byte	.LVL363
 12470 1cff 4C000000 		.4byte	.LVL371
 12471 1d03 0400     		.2byte	0x4
 12472 1d05 F3       		.byte	0xf3
 12473 1d06 01       		.uleb128 0x1
 12474 1d07 53       		.byte	0x53
 12475 1d08 9F       		.byte	0x9f
 12476 1d09 4C000000 		.4byte	.LVL371
 12477 1d0d 70000000 		.4byte	.LVL377
 12478 1d11 0100     		.2byte	0x1
 12479 1d13 53       		.byte	0x53
 12480 1d14 70000000 		.4byte	.LVL377
 12481 1d18 7E000000 		.4byte	.LFE189
 12482 1d1c 0400     		.2byte	0x4
 12483 1d1e F3       		.byte	0xf3
ARM GAS  /tmp/ccJZ9K5Y.s 			page 220


 12484 1d1f 01       		.uleb128 0x1
 12485 1d20 53       		.byte	0x53
 12486 1d21 9F       		.byte	0x9f
 12487 1d22 00000000 		.4byte	0
 12488 1d26 00000000 		.4byte	0
 12489              	.LLST162:
 12490 1d2a 4C000000 		.4byte	.LVL371
 12491 1d2e 70000000 		.4byte	.LVL377
 12492 1d32 0100     		.2byte	0x1
 12493 1d34 53       		.byte	0x53
 12494 1d35 70000000 		.4byte	.LVL377
 12495 1d39 7E000000 		.4byte	.LFE189
 12496 1d3d 0400     		.2byte	0x4
 12497 1d3f F3       		.byte	0xf3
 12498 1d40 01       		.uleb128 0x1
 12499 1d41 53       		.byte	0x53
 12500 1d42 9F       		.byte	0x9f
 12501 1d43 00000000 		.4byte	0
 12502 1d47 00000000 		.4byte	0
 12503              	.LLST163:
 12504 1d4b 4C000000 		.4byte	.LVL371
 12505 1d4f 74000000 		.4byte	.LVL378
 12506 1d53 0100     		.2byte	0x1
 12507 1d55 52       		.byte	0x52
 12508 1d56 74000000 		.4byte	.LVL378
 12509 1d5a 7E000000 		.4byte	.LFE189
 12510 1d5e 0400     		.2byte	0x4
 12511 1d60 F3       		.byte	0xf3
 12512 1d61 01       		.uleb128 0x1
 12513 1d62 52       		.byte	0x52
 12514 1d63 9F       		.byte	0x9f
 12515 1d64 00000000 		.4byte	0
 12516 1d68 00000000 		.4byte	0
 12517              	.LLST164:
 12518 1d6c 4C000000 		.4byte	.LVL371
 12519 1d70 56000000 		.4byte	.LVL372
 12520 1d74 0200     		.2byte	0x2
 12521 1d76 30       		.byte	0x30
 12522 1d77 9F       		.byte	0x9f
 12523 1d78 56000000 		.4byte	.LVL372
 12524 1d7c 5E000000 		.4byte	.LVL373
 12525 1d80 0100     		.2byte	0x1
 12526 1d82 56       		.byte	0x56
 12527 1d83 5E000000 		.4byte	.LVL373
 12528 1d87 68000000 		.4byte	.LVL375
 12529 1d8b 0700     		.2byte	0x7
 12530 1d8d 76       		.byte	0x76
 12531 1d8e 00       		.sleb128 0
 12532 1d8f 0A       		.byte	0xa
 12533 1d90 FF0C     		.2byte	0xcff
 12534 1d92 1A       		.byte	0x1a
 12535 1d93 9F       		.byte	0x9f
 12536 1d94 68000000 		.4byte	.LVL375
 12537 1d98 70000000 		.4byte	.LVL377
 12538 1d9c 0800     		.2byte	0x8
 12539 1d9e 73       		.byte	0x73
 12540 1d9f 00       		.sleb128 0
ARM GAS  /tmp/ccJZ9K5Y.s 			page 221


 12541 1da0 3C       		.byte	0x3c
 12542 1da1 24       		.byte	0x24
 12543 1da2 75       		.byte	0x75
 12544 1da3 00       		.sleb128 0
 12545 1da4 21       		.byte	0x21
 12546 1da5 9F       		.byte	0x9f
 12547 1da6 70000000 		.4byte	.LVL377
 12548 1daa 7E000000 		.4byte	.LFE189
 12549 1dae 0900     		.2byte	0x9
 12550 1db0 F3       		.byte	0xf3
 12551 1db1 01       		.uleb128 0x1
 12552 1db2 53       		.byte	0x53
 12553 1db3 3C       		.byte	0x3c
 12554 1db4 24       		.byte	0x24
 12555 1db5 75       		.byte	0x75
 12556 1db6 00       		.sleb128 0
 12557 1db7 21       		.byte	0x21
 12558 1db8 9F       		.byte	0x9f
 12559 1db9 00000000 		.4byte	0
 12560 1dbd 00000000 		.4byte	0
 12561              	.LLST165:
 12562 1dc1 4C000000 		.4byte	.LVL371
 12563 1dc5 5E000000 		.4byte	.LVL373
 12564 1dc9 0200     		.2byte	0x2
 12565 1dcb 30       		.byte	0x30
 12566 1dcc 9F       		.byte	0x9f
 12567 1dcd 5E000000 		.4byte	.LVL373
 12568 1dd1 64000000 		.4byte	.LVL374
 12569 1dd5 0100     		.2byte	0x1
 12570 1dd7 54       		.byte	0x54
 12571 1dd8 6C000000 		.4byte	.LVL376
 12572 1ddc 74000000 		.4byte	.LVL378
 12573 1de0 0800     		.2byte	0x8
 12574 1de2 72       		.byte	0x72
 12575 1de3 00       		.sleb128 0
 12576 1de4 34       		.byte	0x34
 12577 1de5 24       		.byte	0x24
 12578 1de6 74       		.byte	0x74
 12579 1de7 00       		.sleb128 0
 12580 1de8 21       		.byte	0x21
 12581 1de9 9F       		.byte	0x9f
 12582 1dea 74000000 		.4byte	.LVL378
 12583 1dee 7E000000 		.4byte	.LFE189
 12584 1df2 0900     		.2byte	0x9
 12585 1df4 F3       		.byte	0xf3
 12586 1df5 01       		.uleb128 0x1
 12587 1df6 52       		.byte	0x52
 12588 1df7 34       		.byte	0x34
 12589 1df8 24       		.byte	0x24
 12590 1df9 74       		.byte	0x74
 12591 1dfa 00       		.sleb128 0
 12592 1dfb 21       		.byte	0x21
 12593 1dfc 9F       		.byte	0x9f
 12594 1dfd 00000000 		.4byte	0
 12595 1e01 00000000 		.4byte	0
 12596              	.LLST166:
 12597 1e05 4C000000 		.4byte	.LVL371
ARM GAS  /tmp/ccJZ9K5Y.s 			page 222


 12598 1e09 5E000000 		.4byte	.LVL373
 12599 1e0d 0200     		.2byte	0x2
 12600 1e0f 30       		.byte	0x30
 12601 1e10 9F       		.byte	0x9f
 12602 1e11 5E000000 		.4byte	.LVL373
 12603 1e15 74000000 		.4byte	.LVL378
 12604 1e19 0500     		.2byte	0x5
 12605 1e1b 72       		.byte	0x72
 12606 1e1c 00       		.sleb128 0
 12607 1e1d 34       		.byte	0x34
 12608 1e1e 24       		.byte	0x24
 12609 1e1f 9F       		.byte	0x9f
 12610 1e20 74000000 		.4byte	.LVL378
 12611 1e24 7E000000 		.4byte	.LFE189
 12612 1e28 0600     		.2byte	0x6
 12613 1e2a F3       		.byte	0xf3
 12614 1e2b 01       		.uleb128 0x1
 12615 1e2c 52       		.byte	0x52
 12616 1e2d 34       		.byte	0x34
 12617 1e2e 24       		.byte	0x24
 12618 1e2f 9F       		.byte	0x9f
 12619 1e30 00000000 		.4byte	0
 12620 1e34 00000000 		.4byte	0
 12621              	.LLST167:
 12622 1e38 08000000 		.4byte	.LVL357
 12623 1e3c 28000000 		.4byte	.LVL363
 12624 1e40 0100     		.2byte	0x1
 12625 1e42 53       		.byte	0x53
 12626 1e43 28000000 		.4byte	.LVL363
 12627 1e47 34000000 		.4byte	.LVL366
 12628 1e4b 0400     		.2byte	0x4
 12629 1e4d F3       		.byte	0xf3
 12630 1e4e 01       		.uleb128 0x1
 12631 1e4f 53       		.byte	0x53
 12632 1e50 9F       		.byte	0x9f
 12633 1e51 00000000 		.4byte	0
 12634 1e55 00000000 		.4byte	0
 12635              	.LLST168:
 12636 1e59 08000000 		.4byte	.LVL357
 12637 1e5d 34000000 		.4byte	.LVL366
 12638 1e61 0200     		.2byte	0x2
 12639 1e63 31       		.byte	0x31
 12640 1e64 9F       		.byte	0x9f
 12641 1e65 00000000 		.4byte	0
 12642 1e69 00000000 		.4byte	0
 12643              	.LLST169:
 12644 1e6d 08000000 		.4byte	.LVL357
 12645 1e71 30000000 		.4byte	.LVL365
 12646 1e75 0100     		.2byte	0x1
 12647 1e77 52       		.byte	0x52
 12648 1e78 30000000 		.4byte	.LVL365
 12649 1e7c 34000000 		.4byte	.LVL366
 12650 1e80 0400     		.2byte	0x4
 12651 1e82 F3       		.byte	0xf3
 12652 1e83 01       		.uleb128 0x1
 12653 1e84 52       		.byte	0x52
 12654 1e85 9F       		.byte	0x9f
ARM GAS  /tmp/ccJZ9K5Y.s 			page 223


 12655 1e86 00000000 		.4byte	0
 12656 1e8a 00000000 		.4byte	0
 12657              	.LLST170:
 12658 1e8e 08000000 		.4byte	.LVL357
 12659 1e92 34000000 		.4byte	.LVL366
 12660 1e96 0100     		.2byte	0x1
 12661 1e98 50       		.byte	0x50
 12662 1e99 00000000 		.4byte	0
 12663 1e9d 00000000 		.4byte	0
 12664              	.LLST171:
 12665 1ea1 08000000 		.4byte	.LVL357
 12666 1ea5 16000000 		.4byte	.LVL358
 12667 1ea9 0200     		.2byte	0x2
 12668 1eab 30       		.byte	0x30
 12669 1eac 9F       		.byte	0x9f
 12670 1ead 16000000 		.4byte	.LVL358
 12671 1eb1 1A000000 		.4byte	.LVL359
 12672 1eb5 0100     		.2byte	0x1
 12673 1eb7 54       		.byte	0x54
 12674 1eb8 20000000 		.4byte	.LVL361
 12675 1ebc 28000000 		.4byte	.LVL363
 12676 1ec0 0800     		.2byte	0x8
 12677 1ec2 73       		.byte	0x73
 12678 1ec3 00       		.sleb128 0
 12679 1ec4 34       		.byte	0x34
 12680 1ec5 24       		.byte	0x24
 12681 1ec6 74       		.byte	0x74
 12682 1ec7 00       		.sleb128 0
 12683 1ec8 21       		.byte	0x21
 12684 1ec9 9F       		.byte	0x9f
 12685 1eca 28000000 		.4byte	.LVL363
 12686 1ece 2C000000 		.4byte	.LVL364
 12687 1ed2 0900     		.2byte	0x9
 12688 1ed4 F3       		.byte	0xf3
 12689 1ed5 01       		.uleb128 0x1
 12690 1ed6 53       		.byte	0x53
 12691 1ed7 34       		.byte	0x34
 12692 1ed8 24       		.byte	0x24
 12693 1ed9 74       		.byte	0x74
 12694 1eda 00       		.sleb128 0
 12695 1edb 21       		.byte	0x21
 12696 1edc 9F       		.byte	0x9f
 12697 1edd 00000000 		.4byte	0
 12698 1ee1 00000000 		.4byte	0
 12699              	.LLST172:
 12700 1ee5 08000000 		.4byte	.LVL357
 12701 1ee9 1C000000 		.4byte	.LVL360
 12702 1eed 0200     		.2byte	0x2
 12703 1eef 30       		.byte	0x30
 12704 1ef0 9F       		.byte	0x9f
 12705 1ef1 1C000000 		.4byte	.LVL360
 12706 1ef5 20000000 		.4byte	.LVL361
 12707 1ef9 0100     		.2byte	0x1
 12708 1efb 55       		.byte	0x55
 12709 1efc 20000000 		.4byte	.LVL361
 12710 1f00 24000000 		.4byte	.LVL362
 12711 1f04 0600     		.2byte	0x6
ARM GAS  /tmp/ccJZ9K5Y.s 			page 224


 12712 1f06 75       		.byte	0x75
 12713 1f07 00       		.sleb128 0
 12714 1f08 09       		.byte	0x9
 12715 1f09 F5       		.byte	0xf5
 12716 1f0a 1A       		.byte	0x1a
 12717 1f0b 9F       		.byte	0x9f
 12718 1f0c 2C000000 		.4byte	.LVL364
 12719 1f10 30000000 		.4byte	.LVL365
 12720 1f14 0600     		.2byte	0x6
 12721 1f16 74       		.byte	0x74
 12722 1f17 00       		.sleb128 0
 12723 1f18 72       		.byte	0x72
 12724 1f19 00       		.sleb128 0
 12725 1f1a 21       		.byte	0x21
 12726 1f1b 9F       		.byte	0x9f
 12727 1f1c 30000000 		.4byte	.LVL365
 12728 1f20 34000000 		.4byte	.LVL366
 12729 1f24 0700     		.2byte	0x7
 12730 1f26 74       		.byte	0x74
 12731 1f27 00       		.sleb128 0
 12732 1f28 F3       		.byte	0xf3
 12733 1f29 01       		.uleb128 0x1
 12734 1f2a 52       		.byte	0x52
 12735 1f2b 21       		.byte	0x21
 12736 1f2c 9F       		.byte	0x9f
 12737 1f2d 00000000 		.4byte	0
 12738 1f31 00000000 		.4byte	0
 12739              	.LLST173:
 12740 1f35 34000000 		.4byte	.LVL366
 12741 1f39 3E000000 		.4byte	.LVL369
 12742 1f3d 0100     		.2byte	0x1
 12743 1f3f 51       		.byte	0x51
 12744 1f40 3E000000 		.4byte	.LVL369
 12745 1f44 4C000000 		.4byte	.LVL371
 12746 1f48 0400     		.2byte	0x4
 12747 1f4a F3       		.byte	0xf3
 12748 1f4b 01       		.uleb128 0x1
 12749 1f4c 51       		.byte	0x51
 12750 1f4d 9F       		.byte	0x9f
 12751 1f4e 00000000 		.4byte	0
 12752 1f52 00000000 		.4byte	0
 12753              	.LLST174:
 12754 1f56 34000000 		.4byte	.LVL366
 12755 1f5a 4C000000 		.4byte	.LVL371
 12756 1f5e 0100     		.2byte	0x1
 12757 1f60 50       		.byte	0x50
 12758 1f61 00000000 		.4byte	0
 12759 1f65 00000000 		.4byte	0
 12760              	.LLST175:
 12761 1f69 34000000 		.4byte	.LVL366
 12762 1f6d 36000000 		.4byte	.LVL367
 12763 1f71 0200     		.2byte	0x2
 12764 1f73 30       		.byte	0x30
 12765 1f74 9F       		.byte	0x9f
 12766 1f75 36000000 		.4byte	.LVL367
 12767 1f79 3C000000 		.4byte	.LVL368
 12768 1f7d 0100     		.2byte	0x1
ARM GAS  /tmp/ccJZ9K5Y.s 			page 225


 12769 1f7f 52       		.byte	0x52
 12770 1f80 3C000000 		.4byte	.LVL368
 12771 1f84 3E000000 		.4byte	.LVL369
 12772 1f88 0600     		.2byte	0x6
 12773 1f8a 71       		.byte	0x71
 12774 1f8b 00       		.sleb128 0
 12775 1f8c 73       		.byte	0x73
 12776 1f8d 00       		.sleb128 0
 12777 1f8e 21       		.byte	0x21
 12778 1f8f 9F       		.byte	0x9f
 12779 1f90 3E000000 		.4byte	.LVL369
 12780 1f94 42000000 		.4byte	.LVL370
 12781 1f98 0700     		.2byte	0x7
 12782 1f9a F3       		.byte	0xf3
 12783 1f9b 01       		.uleb128 0x1
 12784 1f9c 51       		.byte	0x51
 12785 1f9d 73       		.byte	0x73
 12786 1f9e 00       		.sleb128 0
 12787 1f9f 21       		.byte	0x21
 12788 1fa0 9F       		.byte	0x9f
 12789 1fa1 42000000 		.4byte	.LVL370
 12790 1fa5 4C000000 		.4byte	.LVL371
 12791 1fa9 0B00     		.2byte	0xb
 12792 1fab 72       		.byte	0x72
 12793 1fac 00       		.sleb128 0
 12794 1fad 0A       		.byte	0xa
 12795 1fae 8FFF     		.2byte	0xff8f
 12796 1fb0 1A       		.byte	0x1a
 12797 1fb1 F3       		.byte	0xf3
 12798 1fb2 01       		.uleb128 0x1
 12799 1fb3 51       		.byte	0x51
 12800 1fb4 21       		.byte	0x21
 12801 1fb5 9F       		.byte	0x9f
 12802 1fb6 00000000 		.4byte	0
 12803 1fba 00000000 		.4byte	0
 12804              	.LLST176:
 12805 1fbe 00000000 		.4byte	.LVL379
 12806 1fc2 10000000 		.4byte	.LVL384
 12807 1fc6 0100     		.2byte	0x1
 12808 1fc8 51       		.byte	0x51
 12809 1fc9 10000000 		.4byte	.LVL384
 12810 1fcd 26000000 		.4byte	.LFE190
 12811 1fd1 0400     		.2byte	0x4
 12812 1fd3 F3       		.byte	0xf3
 12813 1fd4 01       		.uleb128 0x1
 12814 1fd5 51       		.byte	0x51
 12815 1fd6 9F       		.byte	0x9f
 12816 1fd7 00000000 		.4byte	0
 12817 1fdb 00000000 		.4byte	0
 12818              	.LLST177:
 12819 1fdf 00000000 		.4byte	.LVL379
 12820 1fe3 08000000 		.4byte	.LVL381
 12821 1fe7 0100     		.2byte	0x1
 12822 1fe9 53       		.byte	0x53
 12823 1fea 08000000 		.4byte	.LVL381
 12824 1fee 26000000 		.4byte	.LFE190
 12825 1ff2 0400     		.2byte	0x4
ARM GAS  /tmp/ccJZ9K5Y.s 			page 226


 12826 1ff4 F3       		.byte	0xf3
 12827 1ff5 01       		.uleb128 0x1
 12828 1ff6 53       		.byte	0x53
 12829 1ff7 9F       		.byte	0x9f
 12830 1ff8 00000000 		.4byte	0
 12831 1ffc 00000000 		.4byte	0
 12832              	.LLST178:
 12833 2000 00000000 		.4byte	.LVL379
 12834 2004 14000000 		.4byte	.LVL385
 12835 2008 0200     		.2byte	0x2
 12836 200a 30       		.byte	0x30
 12837 200b 9F       		.byte	0x9f
 12838 200c 14000000 		.4byte	.LVL385
 12839 2010 1C000000 		.4byte	.LVL386
 12840 2014 0500     		.2byte	0x5
 12841 2016 73       		.byte	0x73
 12842 2017 00       		.sleb128 0
 12843 2018 37       		.byte	0x37
 12844 2019 21       		.byte	0x21
 12845 201a 9F       		.byte	0x9f
 12846 201b 1E000000 		.4byte	.LVL387
 12847 201f 22000000 		.4byte	.LVL388
 12848 2023 0600     		.2byte	0x6
 12849 2025 73       		.byte	0x73
 12850 2026 00       		.sleb128 0
 12851 2027 08       		.byte	0x8
 12852 2028 77       		.byte	0x77
 12853 2029 21       		.byte	0x21
 12854 202a 9F       		.byte	0x9f
 12855 202b 00000000 		.4byte	0
 12856 202f 00000000 		.4byte	0
 12857              	.LLST181:
 12858 2033 00000000 		.4byte	.LVL379
 12859 2037 04000000 		.4byte	.LVL380
 12860 203b 0200     		.2byte	0x2
 12861 203d 30       		.byte	0x30
 12862 203e 9F       		.byte	0x9f
 12863 203f 04000000 		.4byte	.LVL380
 12864 2043 0A000000 		.4byte	.LVL382
 12865 2047 0600     		.2byte	0x6
 12866 2049 74       		.byte	0x74
 12867 204a 00       		.sleb128 0
 12868 204b 08       		.byte	0x8
 12869 204c FF       		.byte	0xff
 12870 204d 1A       		.byte	0x1a
 12871 204e 9F       		.byte	0x9f
 12872 204f 0E000000 		.4byte	.LVL383
 12873 2053 10000000 		.4byte	.LVL384
 12874 2057 0600     		.2byte	0x6
 12875 2059 71       		.byte	0x71
 12876 205a 00       		.sleb128 0
 12877 205b 73       		.byte	0x73
 12878 205c 00       		.sleb128 0
 12879 205d 21       		.byte	0x21
 12880 205e 9F       		.byte	0x9f
 12881 205f 10000000 		.4byte	.LVL384
 12882 2063 14000000 		.4byte	.LVL385
ARM GAS  /tmp/ccJZ9K5Y.s 			page 227


 12883 2067 0700     		.2byte	0x7
 12884 2069 F3       		.byte	0xf3
 12885 206a 01       		.uleb128 0x1
 12886 206b 51       		.byte	0x51
 12887 206c 73       		.byte	0x73
 12888 206d 00       		.sleb128 0
 12889 206e 21       		.byte	0x21
 12890 206f 9F       		.byte	0x9f
 12891 2070 00000000 		.4byte	0
 12892 2074 00000000 		.4byte	0
 12893              	.LLST182:
 12894 2078 00000000 		.4byte	.LVL389
 12895 207c 10000000 		.4byte	.LVL394
 12896 2080 0100     		.2byte	0x1
 12897 2082 51       		.byte	0x51
 12898 2083 10000000 		.4byte	.LVL394
 12899 2087 20000000 		.4byte	.LFE191
 12900 208b 0400     		.2byte	0x4
 12901 208d F3       		.byte	0xf3
 12902 208e 01       		.uleb128 0x1
 12903 208f 51       		.byte	0x51
 12904 2090 9F       		.byte	0x9f
 12905 2091 00000000 		.4byte	0
 12906 2095 00000000 		.4byte	0
 12907              	.LLST183:
 12908 2099 00000000 		.4byte	.LVL389
 12909 209d 08000000 		.4byte	.LVL391
 12910 20a1 0100     		.2byte	0x1
 12911 20a3 53       		.byte	0x53
 12912 20a4 08000000 		.4byte	.LVL391
 12913 20a8 20000000 		.4byte	.LFE191
 12914 20ac 0400     		.2byte	0x4
 12915 20ae F3       		.byte	0xf3
 12916 20af 01       		.uleb128 0x1
 12917 20b0 53       		.byte	0x53
 12918 20b1 9F       		.byte	0x9f
 12919 20b2 00000000 		.4byte	0
 12920 20b6 00000000 		.4byte	0
 12921              	.LLST186:
 12922 20ba 00000000 		.4byte	.LVL389
 12923 20be 04000000 		.4byte	.LVL390
 12924 20c2 0200     		.2byte	0x2
 12925 20c4 30       		.byte	0x30
 12926 20c5 9F       		.byte	0x9f
 12927 20c6 04000000 		.4byte	.LVL390
 12928 20ca 0A000000 		.4byte	.LVL392
 12929 20ce 0600     		.2byte	0x6
 12930 20d0 74       		.byte	0x74
 12931 20d1 00       		.sleb128 0
 12932 20d2 08       		.byte	0x8
 12933 20d3 FF       		.byte	0xff
 12934 20d4 1A       		.byte	0x1a
 12935 20d5 9F       		.byte	0x9f
 12936 20d6 0E000000 		.4byte	.LVL393
 12937 20da 10000000 		.4byte	.LVL394
 12938 20de 0600     		.2byte	0x6
 12939 20e0 71       		.byte	0x71
ARM GAS  /tmp/ccJZ9K5Y.s 			page 228


 12940 20e1 00       		.sleb128 0
 12941 20e2 73       		.byte	0x73
 12942 20e3 00       		.sleb128 0
 12943 20e4 21       		.byte	0x21
 12944 20e5 9F       		.byte	0x9f
 12945 20e6 10000000 		.4byte	.LVL394
 12946 20ea 14000000 		.4byte	.LVL395
 12947 20ee 0700     		.2byte	0x7
 12948 20f0 F3       		.byte	0xf3
 12949 20f1 01       		.uleb128 0x1
 12950 20f2 51       		.byte	0x51
 12951 20f3 73       		.byte	0x73
 12952 20f4 00       		.sleb128 0
 12953 20f5 21       		.byte	0x21
 12954 20f6 9F       		.byte	0x9f
 12955 20f7 00000000 		.4byte	0
 12956 20fb 00000000 		.4byte	0
 12957              	.LLST187:
 12958 20ff 00000000 		.4byte	.LVL396
 12959 2103 0A000000 		.4byte	.LVL399
 12960 2107 0100     		.2byte	0x1
 12961 2109 51       		.byte	0x51
 12962 210a 0A000000 		.4byte	.LVL399
 12963 210e 0E000000 		.4byte	.LFE192
 12964 2112 0400     		.2byte	0x4
 12965 2114 F3       		.byte	0xf3
 12966 2115 01       		.uleb128 0x1
 12967 2116 51       		.byte	0x51
 12968 2117 9F       		.byte	0x9f
 12969 2118 00000000 		.4byte	0
 12970 211c 00000000 		.4byte	0
 12971              	.LLST188:
 12972 2120 00000000 		.4byte	.LVL396
 12973 2124 02000000 		.4byte	.LVL397
 12974 2128 0200     		.2byte	0x2
 12975 212a 30       		.byte	0x30
 12976 212b 9F       		.byte	0x9f
 12977 212c 02000000 		.4byte	.LVL397
 12978 2130 08000000 		.4byte	.LVL398
 12979 2134 0100     		.2byte	0x1
 12980 2136 52       		.byte	0x52
 12981 2137 08000000 		.4byte	.LVL398
 12982 213b 0A000000 		.4byte	.LVL399
 12983 213f 0600     		.2byte	0x6
 12984 2141 71       		.byte	0x71
 12985 2142 00       		.sleb128 0
 12986 2143 73       		.byte	0x73
 12987 2144 00       		.sleb128 0
 12988 2145 21       		.byte	0x21
 12989 2146 9F       		.byte	0x9f
 12990 2147 0A000000 		.4byte	.LVL399
 12991 214b 0E000000 		.4byte	.LFE192
 12992 214f 0700     		.2byte	0x7
 12993 2151 F3       		.byte	0xf3
 12994 2152 01       		.uleb128 0x1
 12995 2153 51       		.byte	0x51
 12996 2154 73       		.byte	0x73
ARM GAS  /tmp/ccJZ9K5Y.s 			page 229


 12997 2155 00       		.sleb128 0
 12998 2156 21       		.byte	0x21
 12999 2157 9F       		.byte	0x9f
 13000 2158 00000000 		.4byte	0
 13001 215c 00000000 		.4byte	0
 13002              	.LLST189:
 13003 2160 00000000 		.4byte	.LVL400
 13004 2164 0E000000 		.4byte	.LVL401
 13005 2168 0100     		.2byte	0x1
 13006 216a 51       		.byte	0x51
 13007 216b 0E000000 		.4byte	.LVL401
 13008 216f 12000000 		.4byte	.LFE193
 13009 2173 0400     		.2byte	0x4
 13010 2175 F3       		.byte	0xf3
 13011 2176 01       		.uleb128 0x1
 13012 2177 51       		.byte	0x51
 13013 2178 9F       		.byte	0x9f
 13014 2179 00000000 		.4byte	0
 13015 217d 00000000 		.4byte	0
 13016              	.LLST190:
 13017 2181 00000000 		.4byte	.LVL402
 13018 2185 0E000000 		.4byte	.LVL403
 13019 2189 0100     		.2byte	0x1
 13020 218b 51       		.byte	0x51
 13021 218c 0E000000 		.4byte	.LVL403
 13022 2190 12000000 		.4byte	.LFE194
 13023 2194 0400     		.2byte	0x4
 13024 2196 F3       		.byte	0xf3
 13025 2197 01       		.uleb128 0x1
 13026 2198 51       		.byte	0x51
 13027 2199 9F       		.byte	0x9f
 13028 219a 00000000 		.4byte	0
 13029 219e 00000000 		.4byte	0
 13030              	.LLST191:
 13031 21a2 00000000 		.4byte	.LVL404
 13032 21a6 0E000000 		.4byte	.LVL405
 13033 21aa 0100     		.2byte	0x1
 13034 21ac 51       		.byte	0x51
 13035 21ad 0E000000 		.4byte	.LVL405
 13036 21b1 12000000 		.4byte	.LFE195
 13037 21b5 0400     		.2byte	0x4
 13038 21b7 F3       		.byte	0xf3
 13039 21b8 01       		.uleb128 0x1
 13040 21b9 51       		.byte	0x51
 13041 21ba 9F       		.byte	0x9f
 13042 21bb 00000000 		.4byte	0
 13043 21bf 00000000 		.4byte	0
 13044              	.LLST192:
 13045 21c3 00000000 		.4byte	.LVL406
 13046 21c7 08000000 		.4byte	.LVL409
 13047 21cb 0100     		.2byte	0x1
 13048 21cd 51       		.byte	0x51
 13049 21ce 08000000 		.4byte	.LVL409
 13050 21d2 18000000 		.4byte	.LFE196
 13051 21d6 0400     		.2byte	0x4
 13052 21d8 F3       		.byte	0xf3
 13053 21d9 01       		.uleb128 0x1
ARM GAS  /tmp/ccJZ9K5Y.s 			page 230


 13054 21da 51       		.byte	0x51
 13055 21db 9F       		.byte	0x9f
 13056 21dc 00000000 		.4byte	0
 13057 21e0 00000000 		.4byte	0
 13058              	.LLST193:
 13059 21e4 00000000 		.4byte	.LVL406
 13060 21e8 0A000000 		.4byte	.LVL410
 13061 21ec 0100     		.2byte	0x1
 13062 21ee 52       		.byte	0x52
 13063 21ef 0A000000 		.4byte	.LVL410
 13064 21f3 18000000 		.4byte	.LFE196
 13065 21f7 0400     		.2byte	0x4
 13066 21f9 F3       		.byte	0xf3
 13067 21fa 01       		.uleb128 0x1
 13068 21fb 52       		.byte	0x52
 13069 21fc 9F       		.byte	0x9f
 13070 21fd 00000000 		.4byte	0
 13071 2201 00000000 		.4byte	0
 13072              	.LLST194:
 13073 2205 00000000 		.4byte	.LVL406
 13074 2209 0E000000 		.4byte	.LVL411
 13075 220d 0100     		.2byte	0x1
 13076 220f 53       		.byte	0x53
 13077 2210 0E000000 		.4byte	.LVL411
 13078 2214 18000000 		.4byte	.LFE196
 13079 2218 0400     		.2byte	0x4
 13080 221a F3       		.byte	0xf3
 13081 221b 01       		.uleb128 0x1
 13082 221c 53       		.byte	0x53
 13083 221d 9F       		.byte	0x9f
 13084 221e 00000000 		.4byte	0
 13085 2222 00000000 		.4byte	0
 13086              	.LLST195:
 13087 2226 00000000 		.4byte	.LVL406
 13088 222a 04000000 		.4byte	.LVL407
 13089 222e 0200     		.2byte	0x2
 13090 2230 30       		.byte	0x30
 13091 2231 9F       		.byte	0x9f
 13092 2232 04000000 		.4byte	.LVL407
 13093 2236 06000000 		.4byte	.LVL408
 13094 223a 0600     		.2byte	0x6
 13095 223c 74       		.byte	0x74
 13096 223d 00       		.sleb128 0
 13097 223e 08       		.byte	0x8
 13098 223f FF       		.byte	0xff
 13099 2240 1A       		.byte	0x1a
 13100 2241 9F       		.byte	0x9f
 13101 2242 0A000000 		.4byte	.LVL410
 13102 2246 0E000000 		.4byte	.LVL411
 13103 224a 0800     		.2byte	0x8
 13104 224c 73       		.byte	0x73
 13105 224d 00       		.sleb128 0
 13106 224e 38       		.byte	0x38
 13107 224f 24       		.byte	0x24
 13108 2250 72       		.byte	0x72
 13109 2251 00       		.sleb128 0
 13110 2252 21       		.byte	0x21
ARM GAS  /tmp/ccJZ9K5Y.s 			page 231


 13111 2253 9F       		.byte	0x9f
 13112 2254 0E000000 		.4byte	.LVL411
 13113 2258 18000000 		.4byte	.LFE196
 13114 225c 0900     		.2byte	0x9
 13115 225e F3       		.byte	0xf3
 13116 225f 01       		.uleb128 0x1
 13117 2260 53       		.byte	0x53
 13118 2261 38       		.byte	0x38
 13119 2262 24       		.byte	0x24
 13120 2263 72       		.byte	0x72
 13121 2264 00       		.sleb128 0
 13122 2265 21       		.byte	0x21
 13123 2266 9F       		.byte	0x9f
 13124 2267 00000000 		.4byte	0
 13125 226b 00000000 		.4byte	0
 13126              	.LLST196:
 13127 226f 00000000 		.4byte	.LVL412
 13128 2273 2A000000 		.4byte	.LVL421
 13129 2277 0100     		.2byte	0x1
 13130 2279 51       		.byte	0x51
 13131 227a 2A000000 		.4byte	.LVL421
 13132 227e 38000000 		.4byte	.LFE197
 13133 2282 0400     		.2byte	0x4
 13134 2284 F3       		.byte	0xf3
 13135 2285 01       		.uleb128 0x1
 13136 2286 51       		.byte	0x51
 13137 2287 9F       		.byte	0x9f
 13138 2288 00000000 		.4byte	0
 13139 228c 00000000 		.4byte	0
 13140              	.LLST197:
 13141 2290 00000000 		.4byte	.LVL412
 13142 2294 16000000 		.4byte	.LVL417
 13143 2298 0100     		.2byte	0x1
 13144 229a 52       		.byte	0x52
 13145 229b 16000000 		.4byte	.LVL417
 13146 229f 38000000 		.4byte	.LFE197
 13147 22a3 0400     		.2byte	0x4
 13148 22a5 F3       		.byte	0xf3
 13149 22a6 01       		.uleb128 0x1
 13150 22a7 52       		.byte	0x52
 13151 22a8 9F       		.byte	0x9f
 13152 22a9 00000000 		.4byte	0
 13153 22ad 00000000 		.4byte	0
 13154              	.LLST198:
 13155 22b1 00000000 		.4byte	.LVL412
 13156 22b5 24000000 		.4byte	.LVL419
 13157 22b9 0100     		.2byte	0x1
 13158 22bb 53       		.byte	0x53
 13159 22bc 24000000 		.4byte	.LVL419
 13160 22c0 38000000 		.4byte	.LFE197
 13161 22c4 0400     		.2byte	0x4
 13162 22c6 F3       		.byte	0xf3
 13163 22c7 01       		.uleb128 0x1
 13164 22c8 53       		.byte	0x53
 13165 22c9 9F       		.byte	0x9f
 13166 22ca 00000000 		.4byte	0
 13167 22ce 00000000 		.4byte	0
ARM GAS  /tmp/ccJZ9K5Y.s 			page 232


 13168              	.LLST199:
 13169 22d2 00000000 		.4byte	.LVL412
 13170 22d6 04000000 		.4byte	.LVL413
 13171 22da 0200     		.2byte	0x2
 13172 22dc 30       		.byte	0x30
 13173 22dd 9F       		.byte	0x9f
 13174 22de 04000000 		.4byte	.LVL413
 13175 22e2 20000000 		.4byte	.LVL418
 13176 22e6 0100     		.2byte	0x1
 13177 22e8 57       		.byte	0x57
 13178 22e9 20000000 		.4byte	.LVL418
 13179 22ed 2A000000 		.4byte	.LVL421
 13180 22f1 0600     		.2byte	0x6
 13181 22f3 71       		.byte	0x71
 13182 22f4 00       		.sleb128 0
 13183 22f5 76       		.byte	0x76
 13184 22f6 00       		.sleb128 0
 13185 22f7 21       		.byte	0x21
 13186 22f8 9F       		.byte	0x9f
 13187 22f9 2A000000 		.4byte	.LVL421
 13188 22fd 38000000 		.4byte	.LFE197
 13189 2301 0700     		.2byte	0x7
 13190 2303 F3       		.byte	0xf3
 13191 2304 01       		.uleb128 0x1
 13192 2305 51       		.byte	0x51
 13193 2306 76       		.byte	0x76
 13194 2307 00       		.sleb128 0
 13195 2308 21       		.byte	0x21
 13196 2309 9F       		.byte	0x9f
 13197 230a 00000000 		.4byte	0
 13198 230e 00000000 		.4byte	0
 13199              	.LLST200:
 13200 2312 00000000 		.4byte	.LVL412
 13201 2316 08000000 		.4byte	.LVL414
 13202 231a 0200     		.2byte	0x2
 13203 231c 30       		.byte	0x30
 13204 231d 9F       		.byte	0x9f
 13205 231e 08000000 		.4byte	.LVL414
 13206 2322 20000000 		.4byte	.LVL418
 13207 2326 0100     		.2byte	0x1
 13208 2328 5E       		.byte	0x5e
 13209 2329 20000000 		.4byte	.LVL418
 13210 232d 28000000 		.4byte	.LVL420
 13211 2331 0700     		.2byte	0x7
 13212 2333 75       		.byte	0x75
 13213 2334 00       		.sleb128 0
 13214 2335 0A       		.byte	0xa
 13215 2336 0101     		.2byte	0x101
 13216 2338 21       		.byte	0x21
 13217 2339 9F       		.byte	0x9f
 13218 233a 28000000 		.4byte	.LVL420
 13219 233e 38000000 		.4byte	.LFE197
 13220 2342 0B00     		.2byte	0xb
 13221 2344 7E       		.byte	0x7e
 13222 2345 00       		.sleb128 0
 13223 2346 0A       		.byte	0xa
 13224 2347 FCFC     		.2byte	0xfcfc
ARM GAS  /tmp/ccJZ9K5Y.s 			page 233


 13225 2349 1A       		.byte	0x1a
 13226 234a 0A       		.byte	0xa
 13227 234b 0101     		.2byte	0x101
 13228 234d 21       		.byte	0x21
 13229 234e 9F       		.byte	0x9f
 13230 234f 00000000 		.4byte	0
 13231 2353 00000000 		.4byte	0
 13232              	.LLST201:
 13233 2357 00000000 		.4byte	.LVL412
 13234 235b 0C000000 		.4byte	.LVL415
 13235 235f 0200     		.2byte	0x2
 13236 2361 30       		.byte	0x30
 13237 2362 9F       		.byte	0x9f
 13238 2363 0C000000 		.4byte	.LVL415
 13239 2367 14000000 		.4byte	.LVL416
 13240 236b 0100     		.2byte	0x1
 13241 236d 54       		.byte	0x54
 13242 236e 20000000 		.4byte	.LVL418
 13243 2372 24000000 		.4byte	.LVL419
 13244 2376 0800     		.2byte	0x8
 13245 2378 73       		.byte	0x73
 13246 2379 00       		.sleb128 0
 13247 237a 34       		.byte	0x34
 13248 237b 24       		.byte	0x24
 13249 237c 72       		.byte	0x72
 13250 237d 00       		.sleb128 0
 13251 237e 21       		.byte	0x21
 13252 237f 9F       		.byte	0x9f
 13253 2380 24000000 		.4byte	.LVL419
 13254 2384 2C000000 		.4byte	.LVL422
 13255 2388 0900     		.2byte	0x9
 13256 238a F3       		.byte	0xf3
 13257 238b 01       		.uleb128 0x1
 13258 238c 53       		.byte	0x53
 13259 238d 34       		.byte	0x34
 13260 238e 24       		.byte	0x24
 13261 238f 72       		.byte	0x72
 13262 2390 00       		.sleb128 0
 13263 2391 21       		.byte	0x21
 13264 2392 9F       		.byte	0x9f
 13265 2393 00000000 		.4byte	0
 13266 2397 00000000 		.4byte	0
 13267              		.section	.debug_aranges,"",%progbits
 13268 0000 D4020000 		.4byte	0x2d4
 13269 0004 0200     		.2byte	0x2
 13270 0006 00000000 		.4byte	.Ldebug_info0
 13271 000a 04       		.byte	0x4
 13272 000b 00       		.byte	0
 13273 000c 0000     		.2byte	0
 13274 000e 0000     		.2byte	0
 13275 0010 00000000 		.4byte	.LFB112
 13276 0014 B8010000 		.4byte	.LFE112-.LFB112
 13277 0018 00000000 		.4byte	.LFB113
 13278 001c 98000000 		.4byte	.LFE113-.LFB113
 13279 0020 00000000 		.4byte	.LFB114
 13280 0024 12000000 		.4byte	.LFE114-.LFB114
 13281 0028 00000000 		.4byte	.LFB115
ARM GAS  /tmp/ccJZ9K5Y.s 			page 234


 13282 002c 06000000 		.4byte	.LFE115-.LFB115
 13283 0030 00000000 		.4byte	.LFB116
 13284 0034 0E000000 		.4byte	.LFE116-.LFB116
 13285 0038 00000000 		.4byte	.LFB117
 13286 003c 04000000 		.4byte	.LFE117-.LFB117
 13287 0040 00000000 		.4byte	.LFB118
 13288 0044 04000000 		.4byte	.LFE118-.LFB118
 13289 0048 00000000 		.4byte	.LFB119
 13290 004c 04000000 		.4byte	.LFE119-.LFB119
 13291 0050 00000000 		.4byte	.LFB120
 13292 0054 06000000 		.4byte	.LFE120-.LFB120
 13293 0058 00000000 		.4byte	.LFB121
 13294 005c 18000000 		.4byte	.LFE121-.LFB121
 13295 0060 00000000 		.4byte	.LFB122
 13296 0064 18000000 		.4byte	.LFE122-.LFB122
 13297 0068 00000000 		.4byte	.LFB123
 13298 006c 18000000 		.4byte	.LFE123-.LFB123
 13299 0070 00000000 		.4byte	.LFB124
 13300 0074 12000000 		.4byte	.LFE124-.LFB124
 13301 0078 00000000 		.4byte	.LFB125
 13302 007c 12000000 		.4byte	.LFE125-.LFB125
 13303 0080 00000000 		.4byte	.LFB126
 13304 0084 18000000 		.4byte	.LFE126-.LFB126
 13305 0088 00000000 		.4byte	.LFB127
 13306 008c 7C000000 		.4byte	.LFE127-.LFB127
 13307 0090 00000000 		.4byte	.LFB128
 13308 0094 98000000 		.4byte	.LFE128-.LFB128
 13309 0098 00000000 		.4byte	.LFB129
 13310 009c 90000000 		.4byte	.LFE129-.LFB129
 13311 00a0 00000000 		.4byte	.LFB130
 13312 00a4 74000000 		.4byte	.LFE130-.LFB130
 13313 00a8 00000000 		.4byte	.LFB131
 13314 00ac 14000000 		.4byte	.LFE131-.LFB131
 13315 00b0 00000000 		.4byte	.LFB132
 13316 00b4 50000000 		.4byte	.LFE132-.LFB132
 13317 00b8 00000000 		.4byte	.LFB133
 13318 00bc 04000000 		.4byte	.LFE133-.LFB133
 13319 00c0 00000000 		.4byte	.LFB134
 13320 00c4 04000000 		.4byte	.LFE134-.LFB134
 13321 00c8 00000000 		.4byte	.LFB135
 13322 00cc 04000000 		.4byte	.LFE135-.LFB135
 13323 00d0 00000000 		.4byte	.LFB136
 13324 00d4 04000000 		.4byte	.LFE136-.LFB136
 13325 00d8 00000000 		.4byte	.LFB137
 13326 00dc 0E000000 		.4byte	.LFE137-.LFB137
 13327 00e0 00000000 		.4byte	.LFB138
 13328 00e4 12000000 		.4byte	.LFE138-.LFB138
 13329 00e8 00000000 		.4byte	.LFB139
 13330 00ec 0E000000 		.4byte	.LFE139-.LFB139
 13331 00f0 00000000 		.4byte	.LFB140
 13332 00f4 12000000 		.4byte	.LFE140-.LFB140
 13333 00f8 00000000 		.4byte	.LFB141
 13334 00fc 0E000000 		.4byte	.LFE141-.LFB141
 13335 0100 00000000 		.4byte	.LFB142
 13336 0104 12000000 		.4byte	.LFE142-.LFB142
 13337 0108 00000000 		.4byte	.LFB143
 13338 010c 0E000000 		.4byte	.LFE143-.LFB143
ARM GAS  /tmp/ccJZ9K5Y.s 			page 235


 13339 0110 00000000 		.4byte	.LFB144
 13340 0114 12000000 		.4byte	.LFE144-.LFB144
 13341 0118 00000000 		.4byte	.LFB145
 13342 011c 0E000000 		.4byte	.LFE145-.LFB145
 13343 0120 00000000 		.4byte	.LFB146
 13344 0124 12000000 		.4byte	.LFE146-.LFB146
 13345 0128 00000000 		.4byte	.LFB147
 13346 012c 0E000000 		.4byte	.LFE147-.LFB147
 13347 0130 00000000 		.4byte	.LFB148
 13348 0134 12000000 		.4byte	.LFE148-.LFB148
 13349 0138 00000000 		.4byte	.LFB149
 13350 013c 0E000000 		.4byte	.LFE149-.LFB149
 13351 0140 00000000 		.4byte	.LFB150
 13352 0144 10000000 		.4byte	.LFE150-.LFB150
 13353 0148 00000000 		.4byte	.LFB151
 13354 014c 0E000000 		.4byte	.LFE151-.LFB151
 13355 0150 00000000 		.4byte	.LFB152
 13356 0154 10000000 		.4byte	.LFE152-.LFB152
 13357 0158 00000000 		.4byte	.LFB153
 13358 015c 0E000000 		.4byte	.LFE153-.LFB153
 13359 0160 00000000 		.4byte	.LFB154
 13360 0164 0E000000 		.4byte	.LFE154-.LFB154
 13361 0168 00000000 		.4byte	.LFB155
 13362 016c 12000000 		.4byte	.LFE155-.LFB155
 13363 0170 00000000 		.4byte	.LFB156
 13364 0174 12000000 		.4byte	.LFE156-.LFB156
 13365 0178 00000000 		.4byte	.LFB157
 13366 017c 12000000 		.4byte	.LFE157-.LFB157
 13367 0180 00000000 		.4byte	.LFB158
 13368 0184 12000000 		.4byte	.LFE158-.LFB158
 13369 0188 00000000 		.4byte	.LFB159
 13370 018c 12000000 		.4byte	.LFE159-.LFB159
 13371 0190 00000000 		.4byte	.LFB160
 13372 0194 20000000 		.4byte	.LFE160-.LFB160
 13373 0198 00000000 		.4byte	.LFB161
 13374 019c 20000000 		.4byte	.LFE161-.LFB161
 13375 01a0 00000000 		.4byte	.LFB162
 13376 01a4 40010000 		.4byte	.LFE162-.LFB162
 13377 01a8 00000000 		.4byte	.LFB163
 13378 01ac 10000000 		.4byte	.LFE163-.LFB163
 13379 01b0 00000000 		.4byte	.LFB164
 13380 01b4 44010000 		.4byte	.LFE164-.LFB164
 13381 01b8 00000000 		.4byte	.LFB165
 13382 01bc 04000000 		.4byte	.LFE165-.LFB165
 13383 01c0 00000000 		.4byte	.LFB166
 13384 01c4 04000000 		.4byte	.LFE166-.LFB166
 13385 01c8 00000000 		.4byte	.LFB167
 13386 01cc 04000000 		.4byte	.LFE167-.LFB167
 13387 01d0 00000000 		.4byte	.LFB168
 13388 01d4 04000000 		.4byte	.LFE168-.LFB168
 13389 01d8 00000000 		.4byte	.LFB169
 13390 01dc 12000000 		.4byte	.LFE169-.LFB169
 13391 01e0 00000000 		.4byte	.LFB170
 13392 01e4 16000000 		.4byte	.LFE170-.LFB170
 13393 01e8 00000000 		.4byte	.LFB171
 13394 01ec 12000000 		.4byte	.LFE171-.LFB171
 13395 01f0 00000000 		.4byte	.LFB172
ARM GAS  /tmp/ccJZ9K5Y.s 			page 236


 13396 01f4 16000000 		.4byte	.LFE172-.LFB172
 13397 01f8 00000000 		.4byte	.LFB173
 13398 01fc 26000000 		.4byte	.LFE173-.LFB173
 13399 0200 00000000 		.4byte	.LFB174
 13400 0204 12000000 		.4byte	.LFE174-.LFB174
 13401 0208 00000000 		.4byte	.LFB175
 13402 020c 14000000 		.4byte	.LFE175-.LFB175
 13403 0210 00000000 		.4byte	.LFB176
 13404 0214 18000000 		.4byte	.LFE176-.LFB176
 13405 0218 00000000 		.4byte	.LFB177
 13406 021c 18000000 		.4byte	.LFE177-.LFB177
 13407 0220 00000000 		.4byte	.LFB178
 13408 0224 16000000 		.4byte	.LFE178-.LFB178
 13409 0228 00000000 		.4byte	.LFB179
 13410 022c 04000000 		.4byte	.LFE179-.LFB179
 13411 0230 00000000 		.4byte	.LFB180
 13412 0234 0C000000 		.4byte	.LFE180-.LFB180
 13413 0238 00000000 		.4byte	.LFB181
 13414 023c 08000000 		.4byte	.LFE181-.LFB181
 13415 0240 00000000 		.4byte	.LFB182
 13416 0244 14000000 		.4byte	.LFE182-.LFB182
 13417 0248 00000000 		.4byte	.LFB183
 13418 024c 08000000 		.4byte	.LFE183-.LFB183
 13419 0250 00000000 		.4byte	.LFB184
 13420 0254 06000000 		.4byte	.LFE184-.LFB184
 13421 0258 00000000 		.4byte	.LFB185
 13422 025c 16000000 		.4byte	.LFE185-.LFB185
 13423 0260 00000000 		.4byte	.LFB186
 13424 0264 18000000 		.4byte	.LFE186-.LFB186
 13425 0268 00000000 		.4byte	.LFB187
 13426 026c 0C000000 		.4byte	.LFE187-.LFB187
 13427 0270 00000000 		.4byte	.LFB188
 13428 0274 16000000 		.4byte	.LFE188-.LFB188
 13429 0278 00000000 		.4byte	.LFB189
 13430 027c 7E000000 		.4byte	.LFE189-.LFB189
 13431 0280 00000000 		.4byte	.LFB190
 13432 0284 26000000 		.4byte	.LFE190-.LFB190
 13433 0288 00000000 		.4byte	.LFB191
 13434 028c 20000000 		.4byte	.LFE191-.LFB191
 13435 0290 00000000 		.4byte	.LFB192
 13436 0294 0E000000 		.4byte	.LFE192-.LFB192
 13437 0298 00000000 		.4byte	.LFB193
 13438 029c 12000000 		.4byte	.LFE193-.LFB193
 13439 02a0 00000000 		.4byte	.LFB194
 13440 02a4 12000000 		.4byte	.LFE194-.LFB194
 13441 02a8 00000000 		.4byte	.LFB195
 13442 02ac 12000000 		.4byte	.LFE195-.LFB195
 13443 02b0 00000000 		.4byte	.LFB196
 13444 02b4 18000000 		.4byte	.LFE196-.LFB196
 13445 02b8 00000000 		.4byte	.LFB197
 13446 02bc 38000000 		.4byte	.LFE197-.LFB197
 13447 02c0 00000000 		.4byte	.LFB198
 13448 02c4 18000000 		.4byte	.LFE198-.LFB198
 13449 02c8 00000000 		.4byte	.LFB199
 13450 02cc 04000000 		.4byte	.LFE199-.LFB199
 13451 02d0 00000000 		.4byte	0
 13452 02d4 00000000 		.4byte	0
ARM GAS  /tmp/ccJZ9K5Y.s 			page 237


 13453              		.section	.debug_ranges,"",%progbits
 13454              	.Ldebug_ranges0:
 13455 0000 0E000000 		.4byte	.LBB46
 13456 0004 10000000 		.4byte	.LBE46
 13457 0008 FC000000 		.4byte	.LBB65
 13458 000c 2E010000 		.4byte	.LBE65
 13459 0010 00000000 		.4byte	0
 13460 0014 00000000 		.4byte	0
 13461 0018 62000000 		.4byte	.LBB53
 13462 001c 64000000 		.4byte	.LBE53
 13463 0020 6C000000 		.4byte	.LBB56
 13464 0024 96000000 		.4byte	.LBE56
 13465 0028 00000000 		.4byte	0
 13466 002c 00000000 		.4byte	0
 13467 0030 A8000000 		.4byte	.LBB59
 13468 0034 AA000000 		.4byte	.LBE59
 13469 0038 B2000000 		.4byte	.LBB62
 13470 003c E6000000 		.4byte	.LBE62
 13471 0040 00000000 		.4byte	0
 13472 0044 00000000 		.4byte	0
 13473 0048 06000000 		.4byte	.LBB68
 13474 004c 08000000 		.4byte	.LBE68
 13475 0050 B6000000 		.4byte	.LBB82
 13476 0054 BC000000 		.4byte	.LBE82
 13477 0058 C0000000 		.4byte	.LBB83
 13478 005c EC000000 		.4byte	.LBE83
 13479 0060 00000000 		.4byte	0
 13480 0064 00000000 		.4byte	0
 13481 0068 24000000 		.4byte	.LBB72
 13482 006c 2A000000 		.4byte	.LBE72
 13483 0070 2E000000 		.4byte	.LBB75
 13484 0074 62000000 		.4byte	.LBE75
 13485 0078 00000000 		.4byte	0
 13486 007c 00000000 		.4byte	0
 13487 0080 04000000 		.4byte	.LBB92
 13488 0084 06000000 		.4byte	.LBE92
 13489 0088 4C000000 		.4byte	.LBB99
 13490 008c 7E000000 		.4byte	.LBE99
 13491 0090 00000000 		.4byte	0
 13492 0094 00000000 		.4byte	0
 13493 0098 00000000 		.4byte	.LFB112
 13494 009c B8010000 		.4byte	.LFE112
 13495 00a0 00000000 		.4byte	.LFB113
 13496 00a4 98000000 		.4byte	.LFE113
 13497 00a8 00000000 		.4byte	.LFB114
 13498 00ac 12000000 		.4byte	.LFE114
 13499 00b0 00000000 		.4byte	.LFB115
 13500 00b4 06000000 		.4byte	.LFE115
 13501 00b8 00000000 		.4byte	.LFB116
 13502 00bc 0E000000 		.4byte	.LFE116
 13503 00c0 00000000 		.4byte	.LFB117
 13504 00c4 04000000 		.4byte	.LFE117
 13505 00c8 00000000 		.4byte	.LFB118
 13506 00cc 04000000 		.4byte	.LFE118
 13507 00d0 00000000 		.4byte	.LFB119
 13508 00d4 04000000 		.4byte	.LFE119
 13509 00d8 00000000 		.4byte	.LFB120
ARM GAS  /tmp/ccJZ9K5Y.s 			page 238


 13510 00dc 06000000 		.4byte	.LFE120
 13511 00e0 00000000 		.4byte	.LFB121
 13512 00e4 18000000 		.4byte	.LFE121
 13513 00e8 00000000 		.4byte	.LFB122
 13514 00ec 18000000 		.4byte	.LFE122
 13515 00f0 00000000 		.4byte	.LFB123
 13516 00f4 18000000 		.4byte	.LFE123
 13517 00f8 00000000 		.4byte	.LFB124
 13518 00fc 12000000 		.4byte	.LFE124
 13519 0100 00000000 		.4byte	.LFB125
 13520 0104 12000000 		.4byte	.LFE125
 13521 0108 00000000 		.4byte	.LFB126
 13522 010c 18000000 		.4byte	.LFE126
 13523 0110 00000000 		.4byte	.LFB127
 13524 0114 7C000000 		.4byte	.LFE127
 13525 0118 00000000 		.4byte	.LFB128
 13526 011c 98000000 		.4byte	.LFE128
 13527 0120 00000000 		.4byte	.LFB129
 13528 0124 90000000 		.4byte	.LFE129
 13529 0128 00000000 		.4byte	.LFB130
 13530 012c 74000000 		.4byte	.LFE130
 13531 0130 00000000 		.4byte	.LFB131
 13532 0134 14000000 		.4byte	.LFE131
 13533 0138 00000000 		.4byte	.LFB132
 13534 013c 50000000 		.4byte	.LFE132
 13535 0140 00000000 		.4byte	.LFB133
 13536 0144 04000000 		.4byte	.LFE133
 13537 0148 00000000 		.4byte	.LFB134
 13538 014c 04000000 		.4byte	.LFE134
 13539 0150 00000000 		.4byte	.LFB135
 13540 0154 04000000 		.4byte	.LFE135
 13541 0158 00000000 		.4byte	.LFB136
 13542 015c 04000000 		.4byte	.LFE136
 13543 0160 00000000 		.4byte	.LFB137
 13544 0164 0E000000 		.4byte	.LFE137
 13545 0168 00000000 		.4byte	.LFB138
 13546 016c 12000000 		.4byte	.LFE138
 13547 0170 00000000 		.4byte	.LFB139
 13548 0174 0E000000 		.4byte	.LFE139
 13549 0178 00000000 		.4byte	.LFB140
 13550 017c 12000000 		.4byte	.LFE140
 13551 0180 00000000 		.4byte	.LFB141
 13552 0184 0E000000 		.4byte	.LFE141
 13553 0188 00000000 		.4byte	.LFB142
 13554 018c 12000000 		.4byte	.LFE142
 13555 0190 00000000 		.4byte	.LFB143
 13556 0194 0E000000 		.4byte	.LFE143
 13557 0198 00000000 		.4byte	.LFB144
 13558 019c 12000000 		.4byte	.LFE144
 13559 01a0 00000000 		.4byte	.LFB145
 13560 01a4 0E000000 		.4byte	.LFE145
 13561 01a8 00000000 		.4byte	.LFB146
 13562 01ac 12000000 		.4byte	.LFE146
 13563 01b0 00000000 		.4byte	.LFB147
 13564 01b4 0E000000 		.4byte	.LFE147
 13565 01b8 00000000 		.4byte	.LFB148
 13566 01bc 12000000 		.4byte	.LFE148
ARM GAS  /tmp/ccJZ9K5Y.s 			page 239


 13567 01c0 00000000 		.4byte	.LFB149
 13568 01c4 0E000000 		.4byte	.LFE149
 13569 01c8 00000000 		.4byte	.LFB150
 13570 01cc 10000000 		.4byte	.LFE150
 13571 01d0 00000000 		.4byte	.LFB151
 13572 01d4 0E000000 		.4byte	.LFE151
 13573 01d8 00000000 		.4byte	.LFB152
 13574 01dc 10000000 		.4byte	.LFE152
 13575 01e0 00000000 		.4byte	.LFB153
 13576 01e4 0E000000 		.4byte	.LFE153
 13577 01e8 00000000 		.4byte	.LFB154
 13578 01ec 0E000000 		.4byte	.LFE154
 13579 01f0 00000000 		.4byte	.LFB155
 13580 01f4 12000000 		.4byte	.LFE155
 13581 01f8 00000000 		.4byte	.LFB156
 13582 01fc 12000000 		.4byte	.LFE156
 13583 0200 00000000 		.4byte	.LFB157
 13584 0204 12000000 		.4byte	.LFE157
 13585 0208 00000000 		.4byte	.LFB158
 13586 020c 12000000 		.4byte	.LFE158
 13587 0210 00000000 		.4byte	.LFB159
 13588 0214 12000000 		.4byte	.LFE159
 13589 0218 00000000 		.4byte	.LFB160
 13590 021c 20000000 		.4byte	.LFE160
 13591 0220 00000000 		.4byte	.LFB161
 13592 0224 20000000 		.4byte	.LFE161
 13593 0228 00000000 		.4byte	.LFB162
 13594 022c 40010000 		.4byte	.LFE162
 13595 0230 00000000 		.4byte	.LFB163
 13596 0234 10000000 		.4byte	.LFE163
 13597 0238 00000000 		.4byte	.LFB164
 13598 023c 44010000 		.4byte	.LFE164
 13599 0240 00000000 		.4byte	.LFB165
 13600 0244 04000000 		.4byte	.LFE165
 13601 0248 00000000 		.4byte	.LFB166
 13602 024c 04000000 		.4byte	.LFE166
 13603 0250 00000000 		.4byte	.LFB167
 13604 0254 04000000 		.4byte	.LFE167
 13605 0258 00000000 		.4byte	.LFB168
 13606 025c 04000000 		.4byte	.LFE168
 13607 0260 00000000 		.4byte	.LFB169
 13608 0264 12000000 		.4byte	.LFE169
 13609 0268 00000000 		.4byte	.LFB170
 13610 026c 16000000 		.4byte	.LFE170
 13611 0270 00000000 		.4byte	.LFB171
 13612 0274 12000000 		.4byte	.LFE171
 13613 0278 00000000 		.4byte	.LFB172
 13614 027c 16000000 		.4byte	.LFE172
 13615 0280 00000000 		.4byte	.LFB173
 13616 0284 26000000 		.4byte	.LFE173
 13617 0288 00000000 		.4byte	.LFB174
 13618 028c 12000000 		.4byte	.LFE174
 13619 0290 00000000 		.4byte	.LFB175
 13620 0294 14000000 		.4byte	.LFE175
 13621 0298 00000000 		.4byte	.LFB176
 13622 029c 18000000 		.4byte	.LFE176
 13623 02a0 00000000 		.4byte	.LFB177
ARM GAS  /tmp/ccJZ9K5Y.s 			page 240


 13624 02a4 18000000 		.4byte	.LFE177
 13625 02a8 00000000 		.4byte	.LFB178
 13626 02ac 16000000 		.4byte	.LFE178
 13627 02b0 00000000 		.4byte	.LFB179
 13628 02b4 04000000 		.4byte	.LFE179
 13629 02b8 00000000 		.4byte	.LFB180
 13630 02bc 0C000000 		.4byte	.LFE180
 13631 02c0 00000000 		.4byte	.LFB181
 13632 02c4 08000000 		.4byte	.LFE181
 13633 02c8 00000000 		.4byte	.LFB182
 13634 02cc 14000000 		.4byte	.LFE182
 13635 02d0 00000000 		.4byte	.LFB183
 13636 02d4 08000000 		.4byte	.LFE183
 13637 02d8 00000000 		.4byte	.LFB184
 13638 02dc 06000000 		.4byte	.LFE184
 13639 02e0 00000000 		.4byte	.LFB185
 13640 02e4 16000000 		.4byte	.LFE185
 13641 02e8 00000000 		.4byte	.LFB186
 13642 02ec 18000000 		.4byte	.LFE186
 13643 02f0 00000000 		.4byte	.LFB187
 13644 02f4 0C000000 		.4byte	.LFE187
 13645 02f8 00000000 		.4byte	.LFB188
 13646 02fc 16000000 		.4byte	.LFE188
 13647 0300 00000000 		.4byte	.LFB189
 13648 0304 7E000000 		.4byte	.LFE189
 13649 0308 00000000 		.4byte	.LFB190
 13650 030c 26000000 		.4byte	.LFE190
 13651 0310 00000000 		.4byte	.LFB191
 13652 0314 20000000 		.4byte	.LFE191
 13653 0318 00000000 		.4byte	.LFB192
 13654 031c 0E000000 		.4byte	.LFE192
 13655 0320 00000000 		.4byte	.LFB193
 13656 0324 12000000 		.4byte	.LFE193
 13657 0328 00000000 		.4byte	.LFB194
 13658 032c 12000000 		.4byte	.LFE194
 13659 0330 00000000 		.4byte	.LFB195
 13660 0334 12000000 		.4byte	.LFE195
 13661 0338 00000000 		.4byte	.LFB196
 13662 033c 18000000 		.4byte	.LFE196
 13663 0340 00000000 		.4byte	.LFB197
 13664 0344 38000000 		.4byte	.LFE197
 13665 0348 00000000 		.4byte	.LFB198
 13666 034c 18000000 		.4byte	.LFE198
 13667 0350 00000000 		.4byte	.LFB199
 13668 0354 04000000 		.4byte	.LFE199
 13669 0358 00000000 		.4byte	0
 13670 035c 00000000 		.4byte	0
 13671              		.section	.debug_line,"",%progbits
 13672              	.Ldebug_line0:
 13673 0000 A40B0000 		.section	.debug_str,"MS",%progbits,1
 13673      02006E01 
 13673      00000201 
 13673      FB0E0D00 
 13673      01010101 
 13674              	.LASF106:
 13675 0000 54494D5F 		.ascii	"TIM_OPMode\000"
 13675      4F504D6F 
ARM GAS  /tmp/ccJZ9K5Y.s 			page 241


 13675      646500
 13676              	.LASF101:
 13677 000b 4E657753 		.ascii	"NewState\000"
 13677      74617465 
 13677      00
 13678              	.LASF130:
 13679 0014 54494D5F 		.ascii	"TIM_ForcedOC2Config\000"
 13679      466F7263 
 13679      65644F43 
 13679      32436F6E 
 13679      66696700 
 13680              	.LASF105:
 13681 0028 54494D5F 		.ascii	"TIM_SelectOnePulseMode\000"
 13681      53656C65 
 13681      63744F6E 
 13681      6550756C 
 13681      73654D6F 
 13682              	.LASF190:
 13683 003f 54494D5F 		.ascii	"TIM_DMACmd\000"
 13683      444D4143 
 13683      6D6400
 13684              	.LASF19:
 13685 004a 44494552 		.ascii	"DIER\000"
 13685      00
 13686              	.LASF129:
 13687 004f 54494D5F 		.ascii	"TIM_ForcedAction\000"
 13687      466F7263 
 13687      65644163 
 13687      74696F6E 
 13687      00
 13688              	.LASF79:
 13689 0060 54494D5F 		.ascii	"TIM_InputTriggerSource\000"
 13689      496E7075 
 13689      74547269 
 13689      67676572 
 13689      536F7572 
 13690              	.LASF201:
 13691 0077 54494D5F 		.ascii	"TIM_TRGOSource\000"
 13691      5452474F 
 13691      536F7572 
 13691      636500
 13692              	.LASF37:
 13693 0086 54494D5F 		.ascii	"TIM_CounterMode\000"
 13693      436F756E 
 13693      7465724D 
 13693      6F646500 
 13694              	.LASF97:
 13695 0096 4175746F 		.ascii	"Autoreload\000"
 13695      72656C6F 
 13695      616400
 13696              	.LASF132:
 13697 00a1 54494D5F 		.ascii	"TIM_ForcedOC4Config\000"
 13697      466F7263 
 13697      65644F43 
 13697      34436F6E 
 13697      66696700 
 13698              	.LASF143:
ARM GAS  /tmp/ccJZ9K5Y.s 			page 242


 13699 00b5 54494D5F 		.ascii	"TIM_ClearOC1Ref\000"
 13699      436C6561 
 13699      724F4331 
 13699      52656600 
 13700              	.LASF31:
 13701 00c5 466C6167 		.ascii	"FlagStatus\000"
 13701      53746174 
 13701      757300
 13702              	.LASF3:
 13703 00d0 5F5F7569 		.ascii	"__uint8_t\000"
 13703      6E74385F 
 13703      7400
 13704              	.LASF180:
 13705 00da 54494D5F 		.ascii	"TIM_FLAG\000"
 13705      464C4147 
 13705      00
 13706              	.LASF121:
 13707 00e3 436F6D70 		.ascii	"Compare1\000"
 13707      61726531 
 13707      00
 13708              	.LASF120:
 13709 00ec 54494D5F 		.ascii	"TIM_SetCompare1\000"
 13709      53657443 
 13709      6F6D7061 
 13709      72653100 
 13710              	.LASF209:
 13711 00fc 54494D5F 		.ascii	"TIM_IC2Polarity\000"
 13711      49433250 
 13711      6F6C6172 
 13711      69747900 
 13712              	.LASF100:
 13713 010c 54494D5F 		.ascii	"TIM_UpdateDisableConfig\000"
 13713      55706461 
 13713      74654469 
 13713      7361626C 
 13713      65436F6E 
 13714              	.LASF125:
 13715 0124 436F6D70 		.ascii	"Compare3\000"
 13715      61726533 
 13715      00
 13716              	.LASF127:
 13717 012d 436F6D70 		.ascii	"Compare4\000"
 13717      61726534 
 13717      00
 13718              	.LASF45:
 13719 0136 54494D5F 		.ascii	"TIM_Pulse\000"
 13719      50756C73 
 13719      6500
 13720              	.LASF213:
 13721 0140 5243435F 		.ascii	"RCC_APB1PeriphResetCmd\000"
 13721      41504231 
 13721      50657269 
 13721      70685265 
 13721      73657443 
 13722              	.LASF66:
 13723 0157 746D7063 		.ascii	"tmpccmr1\000"
 13723      636D7231 
ARM GAS  /tmp/ccJZ9K5Y.s 			page 243


 13723      00
 13724              	.LASF74:
 13725 0160 746D7063 		.ascii	"tmpccmr2\000"
 13725      636D7232 
 13725      00
 13726              	.LASF33:
 13727 0169 44495341 		.ascii	"DISABLE\000"
 13727      424C4500 
 13728              	.LASF113:
 13729 0171 746D7063 		.ascii	"tmpcr2\000"
 13729      723200
 13730              	.LASF78:
 13731 0178 54494D5F 		.ascii	"TIM_SelectInputTrigger\000"
 13731      53656C65 
 13731      6374496E 
 13731      70757454 
 13731      72696767 
 13732              	.LASF24:
 13733 018f 43435232 		.ascii	"CCR2\000"
 13733      00
 13734              	.LASF55:
 13735 0194 54494D5F 		.ascii	"TIM_ICFilter\000"
 13735      49434669 
 13735      6C746572 
 13735      00
 13736              	.LASF193:
 13737 01a1 54494D5F 		.ascii	"TIM_InternalClockConfig\000"
 13737      496E7465 
 13737      726E616C 
 13737      436C6F63 
 13737      6B436F6E 
 13738              	.LASF150:
 13739 01b9 54494D5F 		.ascii	"TIM_OC2PolarityConfig\000"
 13739      4F433250 
 13739      6F6C6172 
 13739      69747943 
 13739      6F6E6669 
 13740              	.LASF104:
 13741 01cf 54494D5F 		.ascii	"TIM_ARRPreloadConfig\000"
 13741      41525250 
 13741      72656C6F 
 13741      6164436F 
 13741      6E666967 
 13742              	.LASF217:
 13743 01e4 49544D5F 		.ascii	"ITM_RxBuffer\000"
 13743      52784275 
 13743      66666572 
 13743      00
 13744              	.LASF53:
 13745 01f1 54494D5F 		.ascii	"TIM_ICSelection\000"
 13745      49435365 
 13745      6C656374 
 13745      696F6E00 
 13746              	.LASF119:
 13747 0201 746D7031 		.ascii	"tmp1\000"
 13747      00
 13748              	.LASF206:
ARM GAS  /tmp/ccJZ9K5Y.s 			page 244


 13749 0206 54494D5F 		.ascii	"TIM_EncoderInterfaceConfig\000"
 13749      456E636F 
 13749      64657249 
 13749      6E746572 
 13749      66616365 
 13750              	.LASF135:
 13751 0221 54494D5F 		.ascii	"TIM_OC2PreloadConfig\000"
 13751      4F433250 
 13751      72656C6F 
 13751      6164436F 
 13751      6E666967 
 13752              	.LASF177:
 13753 0236 54494D5F 		.ascii	"TIM_GenerateEvent\000"
 13753      47656E65 
 13753      72617465 
 13753      4576656E 
 13753      7400
 13754              	.LASF208:
 13755 0248 54494D5F 		.ascii	"TIM_IC1Polarity\000"
 13755      49433150 
 13755      6F6C6172 
 13755      69747900 
 13756              	.LASF139:
 13757 0258 54494D5F 		.ascii	"TIM_OCFast\000"
 13757      4F434661 
 13757      737400
 13758              	.LASF51:
 13759 0263 54494D5F 		.ascii	"TIM_Channel\000"
 13759      4368616E 
 13759      6E656C00 
 13760              	.LASF20:
 13761 026f 43434D52 		.ascii	"CCMR1\000"
 13761      3100
 13762              	.LASF21:
 13763 0275 43434D52 		.ascii	"CCMR2\000"
 13763      3200
 13764              	.LASF92:
 13765 027b 54494D5F 		.ascii	"TIM_CounterModeConfig\000"
 13765      436F756E 
 13765      7465724D 
 13765      6F646543 
 13765      6F6E6669 
 13766              	.LASF0:
 13767 0291 7369676E 		.ascii	"signed char\000"
 13767      65642063 
 13767      68617200 
 13768              	.LASF187:
 13769 029d 54494D5F 		.ascii	"TIM_DMAConfig\000"
 13769      444D4143 
 13769      6F6E6669 
 13769      6700
 13770              	.LASF155:
 13771 02ab 54494D5F 		.ascii	"TIM_CCxCmd\000"
 13771      43437843 
 13771      6D6400
 13772              	.LASF11:
 13773 02b6 6C6F6E67 		.ascii	"long long unsigned int\000"
ARM GAS  /tmp/ccJZ9K5Y.s 			page 245


 13773      206C6F6E 
 13773      6720756E 
 13773      7369676E 
 13773      65642069 
 13774              	.LASF134:
 13775 02cd 54494D5F 		.ascii	"TIM_OCPreload\000"
 13775      4F435072 
 13775      656C6F61 
 13775      6400
 13776              	.LASF115:
 13777 02db 54494D5F 		.ascii	"TIM_OC3Init\000"
 13777      4F433349 
 13777      6E697400 
 13778              	.LASF176:
 13779 02e7 54494D5F 		.ascii	"TIM_IT\000"
 13779      495400
 13780              	.LASF7:
 13781 02ee 6C6F6E67 		.ascii	"long int\000"
 13781      20696E74 
 13781      00
 13782              	.LASF44:
 13783 02f7 54494D5F 		.ascii	"TIM_OutputNState\000"
 13783      4F757470 
 13783      75744E53 
 13783      74617465 
 13783      00
 13784              	.LASF34:
 13785 0308 454E4142 		.ascii	"ENABLE\000"
 13785      4C4500
 13786              	.LASF112:
 13787 030f 746D7063 		.ascii	"tmpccmrx\000"
 13787      636D7278 
 13787      00
 13788              	.LASF22:
 13789 0318 43434552 		.ascii	"CCER\000"
 13789      00
 13790              	.LASF10:
 13791 031d 6C6F6E67 		.ascii	"long long int\000"
 13791      206C6F6E 
 13791      6720696E 
 13791      7400
 13792              	.LASF14:
 13793 032b 75696E74 		.ascii	"uint16_t\000"
 13793      31365F74 
 13793      00
 13794              	.LASF108:
 13795 0334 54494D5F 		.ascii	"TIM_CKD\000"
 13795      434B4400 
 13796              	.LASF96:
 13797 033c 54494D5F 		.ascii	"TIM_SetAutoreload\000"
 13797      53657441 
 13797      75746F72 
 13797      656C6F61 
 13797      6400
 13798              	.LASF161:
 13799 034e 54494D5F 		.ascii	"TIM_ICStructInit\000"
 13799      49435374 
ARM GAS  /tmp/ccJZ9K5Y.s 			page 246


 13799      72756374 
 13799      496E6974 
 13799      00
 13800              	.LASF166:
 13801 035f 54494D5F 		.ascii	"TIM_GetCapture2\000"
 13801      47657443 
 13801      61707475 
 13801      72653200 
 13802              	.LASF167:
 13803 036f 54494D5F 		.ascii	"TIM_GetCapture3\000"
 13803      47657443 
 13803      61707475 
 13803      72653300 
 13804              	.LASF168:
 13805 037f 54494D5F 		.ascii	"TIM_GetCapture4\000"
 13805      47657443 
 13805      61707475 
 13805      72653400 
 13806              	.LASF163:
 13807 038f 69636F70 		.ascii	"icoppositepolarity\000"
 13807      706F7369 
 13807      7465706F 
 13807      6C617269 
 13807      747900
 13808              	.LASF103:
 13809 03a2 54494D5F 		.ascii	"TIM_UpdateSource\000"
 13809      55706461 
 13809      7465536F 
 13809      75726365 
 13809      00
 13810              	.LASF158:
 13811 03b3 54494D5F 		.ascii	"TIM_CCxN\000"
 13811      4343784E 
 13811      00
 13812              	.LASF192:
 13813 03bc 54494D5F 		.ascii	"TIM_SelectCCDMA\000"
 13813      53656C65 
 13813      63744343 
 13813      444D4100 
 13814              	.LASF4:
 13815 03cc 5F5F7569 		.ascii	"__uint16_t\000"
 13815      6E743136 
 13815      5F7400
 13816              	.LASF29:
 13817 03d7 54494D5F 		.ascii	"TIM_TypeDef\000"
 13817      54797065 
 13817      44656600 
 13818              	.LASF8:
 13819 03e3 5F5F7569 		.ascii	"__uint32_t\000"
 13819      6E743332 
 13819      5F7400
 13820              	.LASF133:
 13821 03ee 54494D5F 		.ascii	"TIM_OC1PreloadConfig\000"
 13821      4F433150 
 13821      72656C6F 
 13821      6164436F 
 13821      6E666967 
ARM GAS  /tmp/ccJZ9K5Y.s 			page 247


 13822              	.LASF189:
 13823 0403 54494D5F 		.ascii	"TIM_DMABurstLength\000"
 13823      444D4142 
 13823      75727374 
 13823      4C656E67 
 13823      746800
 13824              	.LASF182:
 13825 0416 54494D5F 		.ascii	"TIM_ClearFlag\000"
 13825      436C6561 
 13825      72466C61 
 13825      6700
 13826              	.LASF122:
 13827 0424 54494D5F 		.ascii	"TIM_SetCompare2\000"
 13827      53657443 
 13827      6F6D7061 
 13827      72653200 
 13828              	.LASF124:
 13829 0434 54494D5F 		.ascii	"TIM_SetCompare3\000"
 13829      53657443 
 13829      6F6D7061 
 13829      72653300 
 13830              	.LASF173:
 13831 0444 54494D5F 		.ascii	"TIM_SelectCOM\000"
 13831      53656C65 
 13831      6374434F 
 13831      4D00
 13832              	.LASF67:
 13833 0452 746D7063 		.ascii	"tmpccer\000"
 13833      63657200 
 13834              	.LASF151:
 13835 045a 54494D5F 		.ascii	"TIM_OC2NPolarityConfig\000"
 13835      4F43324E 
 13835      506F6C61 
 13835      72697479 
 13835      436F6E66 
 13836              	.LASF12:
 13837 0471 756E7369 		.ascii	"unsigned int\000"
 13837      676E6564 
 13837      20696E74 
 13837      00
 13838              	.LASF76:
 13839 047e 5449345F 		.ascii	"TI4_Config\000"
 13839      436F6E66 
 13839      696700
 13840              	.LASF46:
 13841 0489 54494D5F 		.ascii	"TIM_OCPolarity\000"
 13841      4F43506F 
 13841      6C617269 
 13841      747900
 13842              	.LASF39:
 13843 0498 54494D5F 		.ascii	"TIM_ClockDivision\000"
 13843      436C6F63 
 13843      6B446976 
 13843      6973696F 
 13843      6E00
 13844              	.LASF99:
 13845 04aa 54494D5F 		.ascii	"TIM_GetPrescaler\000"
ARM GAS  /tmp/ccJZ9K5Y.s 			page 248


 13845      47657450 
 13845      72657363 
 13845      616C6572 
 13845      00
 13846              	.LASF98:
 13847 04bb 54494D5F 		.ascii	"TIM_GetCounter\000"
 13847      47657443 
 13847      6F756E74 
 13847      657200
 13848              	.LASF88:
 13849 04ca 54494D5F 		.ascii	"TIM_TimeBaseStructInit\000"
 13849      54696D65 
 13849      42617365 
 13849      53747275 
 13849      6374496E 
 13850              	.LASF165:
 13851 04e1 54494D5F 		.ascii	"TIM_GetCapture1\000"
 13851      47657443 
 13851      61707475 
 13851      72653100 
 13852              	.LASF205:
 13853 04f1 54494D5F 		.ascii	"TIM_MasterSlaveMode\000"
 13853      4D617374 
 13853      6572536C 
 13853      6176654D 
 13853      6F646500 
 13854              	.LASF202:
 13855 0505 54494D5F 		.ascii	"TIM_SelectSlaveMode\000"
 13855      53656C65 
 13855      6374536C 
 13855      6176654D 
 13855      6F646500 
 13856              	.LASF204:
 13857 0519 54494D5F 		.ascii	"TIM_SelectMasterSlaveMode\000"
 13857      53656C65 
 13857      63744D61 
 13857      73746572 
 13857      536C6176 
 13858              	.LASF179:
 13859 0533 54494D5F 		.ascii	"TIM_GetFlagStatus\000"
 13859      47657446 
 13859      6C616753 
 13859      74617475 
 13859      7300
 13860              	.LASF64:
 13861 0545 54494D5F 		.ascii	"TIM_BDTRInitTypeDef\000"
 13861      42445452 
 13861      496E6974 
 13861      54797065 
 13861      44656600 
 13862              	.LASF111:
 13863 0559 54494D5F 		.ascii	"TIM_OCInitStruct\000"
 13863      4F43496E 
 13863      69745374 
 13863      72756374 
 13863      00
 13864              	.LASF18:
ARM GAS  /tmp/ccJZ9K5Y.s 			page 249


 13865 056a 534D4352 		.ascii	"SMCR\000"
 13865      00
 13866              	.LASF57:
 13867 056f 54494D5F 		.ascii	"TIM_OSSRState\000"
 13867      4F535352 
 13867      53746174 
 13867      6500
 13868              	.LASF65:
 13869 057d 54494D78 		.ascii	"TIMx\000"
 13869      00
 13870              	.LASF207:
 13871 0582 54494D5F 		.ascii	"TIM_EncoderMode\000"
 13871      456E636F 
 13871      6465724D 
 13871      6F646500 
 13872              	.LASF154:
 13873 0592 54494D5F 		.ascii	"TIM_OC4PolarityConfig\000"
 13873      4F433450 
 13873      6F6C6172 
 13873      69747943 
 13873      6F6E6669 
 13874              	.LASF63:
 13875 05a8 54494D5F 		.ascii	"TIM_AutomaticOutput\000"
 13875      4175746F 
 13875      6D617469 
 13875      634F7574 
 13875      70757400 
 13876              	.LASF200:
 13877 05bc 54494D5F 		.ascii	"TIM_SelectOutputTrigger\000"
 13877      53656C65 
 13877      63744F75 
 13877      74707574 
 13877      54726967 
 13878              	.LASF71:
 13879 05d4 54494D5F 		.ascii	"TIM_SetIC1Prescaler\000"
 13879      53657449 
 13879      43315072 
 13879      65736361 
 13879      6C657200 
 13880              	.LASF162:
 13881 05e8 54494D5F 		.ascii	"TIM_PWMIConfig\000"
 13881      50574D49 
 13881      436F6E66 
 13881      696700
 13882              	.LASF73:
 13883 05f7 5449335F 		.ascii	"TI3_Config\000"
 13883      436F6E66 
 13883      696700
 13884              	.LASF191:
 13885 0602 54494D5F 		.ascii	"TIM_DMASource\000"
 13885      444D4153 
 13885      6F757263 
 13885      6500
 13886              	.LASF117:
 13887 0610 54494D5F 		.ascii	"TIM_OCStructInit\000"
 13887      4F435374 
 13887      72756374 
ARM GAS  /tmp/ccJZ9K5Y.s 			page 250


 13887      496E6974 
 13887      00
 13888              	.LASF91:
 13889 0621 54494D5F 		.ascii	"TIM_PSCReloadMode\000"
 13889      50534352 
 13889      656C6F61 
 13889      644D6F64 
 13889      6500
 13890              	.LASF30:
 13891 0633 52455345 		.ascii	"RESET\000"
 13891      5400
 13892              	.LASF80:
 13893 0639 746D7073 		.ascii	"tmpsmcr\000"
 13893      6D637200 
 13894              	.LASF83:
 13895 0641 54494D5F 		.ascii	"TIM_ExtTRGPolarity\000"
 13895      45787454 
 13895      5247506F 
 13895      6C617269 
 13895      747900
 13896              	.LASF171:
 13897 0654 54494D5F 		.ascii	"TIM_BDTRStructInit\000"
 13897      42445452 
 13897      53747275 
 13897      6374496E 
 13897      697400
 13898              	.LASF93:
 13899 0667 746D7063 		.ascii	"tmpcr1\000"
 13899      723100
 13900              	.LASF128:
 13901 066e 54494D5F 		.ascii	"TIM_ForcedOC1Config\000"
 13901      466F7263 
 13901      65644F43 
 13901      31436F6E 
 13901      66696700 
 13902              	.LASF17:
 13903 0682 73697A65 		.ascii	"sizetype\000"
 13903      74797065 
 13903      00
 13904              	.LASF82:
 13905 068b 54494D5F 		.ascii	"TIM_ExtTRGPrescaler\000"
 13905      45787454 
 13905      52475072 
 13905      65736361 
 13905      6C657200 
 13906              	.LASF61:
 13907 069f 54494D5F 		.ascii	"TIM_Break\000"
 13907      42726561 
 13907      6B00
 13908              	.LASF146:
 13909 06a9 54494D5F 		.ascii	"TIM_ClearOC3Ref\000"
 13909      436C6561 
 13909      724F4333 
 13909      52656600 
 13910              	.LASF60:
 13911 06b9 54494D5F 		.ascii	"TIM_DeadTime\000"
 13911      44656164 
ARM GAS  /tmp/ccJZ9K5Y.s 			page 251


 13911      54696D65 
 13911      00
 13912              	.LASF148:
 13913 06c6 54494D5F 		.ascii	"TIM_OC1PolarityConfig\000"
 13913      4F433150 
 13913      6F6C6172 
 13913      69747943 
 13913      6F6E6669 
 13914              	.LASF131:
 13915 06dc 54494D5F 		.ascii	"TIM_ForcedOC3Config\000"
 13915      466F7263 
 13915      65644F43 
 13915      33436F6E 
 13915      66696700 
 13916              	.LASF54:
 13917 06f0 54494D5F 		.ascii	"TIM_ICPrescaler\000"
 13917      49435072 
 13917      65736361 
 13917      6C657200 
 13918              	.LASF157:
 13919 0700 54494D5F 		.ascii	"TIM_CCxNCmd\000"
 13919      4343784E 
 13919      436D6400 
 13920              	.LASF75:
 13921 070c 54494D5F 		.ascii	"TIM_SetIC3Prescaler\000"
 13921      53657449 
 13921      43335072 
 13921      65736361 
 13921      6C657200 
 13922              	.LASF49:
 13923 0720 54494D5F 		.ascii	"TIM_OCNIdleState\000"
 13923      4F434E49 
 13923      646C6553 
 13923      74617465 
 13923      00
 13924              	.LASF184:
 13925 0731 69747374 		.ascii	"itstatus\000"
 13925      61747573 
 13925      00
 13926              	.LASF188:
 13927 073a 54494D5F 		.ascii	"TIM_DMABase\000"
 13927      444D4142 
 13927      61736500 
 13928              	.LASF164:
 13929 0746 69636F70 		.ascii	"icoppositeselection\000"
 13929      706F7369 
 13929      74657365 
 13929      6C656374 
 13929      696F6E00 
 13930              	.LASF35:
 13931 075a 46756E63 		.ascii	"FunctionalState\000"
 13931      74696F6E 
 13931      616C5374 
 13931      61746500 
 13932              	.LASF212:
 13933 076a 54494D5F 		.ascii	"TIM_Remap\000"
 13933      52656D61 
ARM GAS  /tmp/ccJZ9K5Y.s 			page 252


 13933      7000
 13934              	.LASF183:
 13935 0774 54494D5F 		.ascii	"TIM_GetITStatus\000"
 13935      47657449 
 13935      54537461 
 13935      74757300 
 13936              	.LASF87:
 13937 0784 54494D5F 		.ascii	"TIM_TimeBaseInitStruct\000"
 13937      54696D65 
 13937      42617365 
 13937      496E6974 
 13937      53747275 
 13938              	.LASF218:
 13939 079b 5243435F 		.ascii	"RCC_APB2PeriphResetCmd\000"
 13939      41504232 
 13939      50657269 
 13939      70685265 
 13939      73657443 
 13940              	.LASF107:
 13941 07b2 54494D5F 		.ascii	"TIM_SetClockDivision\000"
 13941      53657443 
 13941      6C6F636B 
 13941      44697669 
 13941      73696F6E 
 13942              	.LASF156:
 13943 07c7 54494D5F 		.ascii	"TIM_CCx\000"
 13943      43437800 
 13944              	.LASF95:
 13945 07cf 436F756E 		.ascii	"Counter\000"
 13945      74657200 
 13946              	.LASF123:
 13947 07d7 436F6D70 		.ascii	"Compare2\000"
 13947      61726532 
 13947      00
 13948              	.LASF43:
 13949 07e0 54494D5F 		.ascii	"TIM_OutputState\000"
 13949      4F757470 
 13949      75745374 
 13949      61746500 
 13950              	.LASF178:
 13951 07f0 54494D5F 		.ascii	"TIM_EventSource\000"
 13951      4576656E 
 13951      74536F75 
 13951      72636500 
 13952              	.LASF52:
 13953 0800 54494D5F 		.ascii	"TIM_ICPolarity\000"
 13953      4943506F 
 13953      6C617269 
 13953      747900
 13954              	.LASF32:
 13955 080f 49545374 		.ascii	"ITStatus\000"
 13955      61747573 
 13955      00
 13956              	.LASF69:
 13957 0818 5449315F 		.ascii	"TI1_Config\000"
 13957      436F6E66 
 13957      696700
ARM GAS  /tmp/ccJZ9K5Y.s 			page 253


 13958              	.LASF216:
 13959 0823 2F686F6D 		.ascii	"/home/benjamin/Skrivbord/SP-RCCar/Embedded/Mote/\000"
 13959      652F6265 
 13959      6E6A616D 
 13959      696E2F53 
 13959      6B726976 
 13960              	.LASF36:
 13961 0854 54494D5F 		.ascii	"TIM_Prescaler\000"
 13961      50726573 
 13961      63616C65 
 13961      7200
 13962              	.LASF195:
 13963 0862 54494D5F 		.ascii	"TIM_TIxExternalClockConfig\000"
 13963      54497845 
 13963      78746572 
 13963      6E616C43 
 13963      6C6F636B 
 13964              	.LASF15:
 13965 087d 696E7433 		.ascii	"int32_t\000"
 13965      325F7400 
 13966              	.LASF1:
 13967 0885 756E7369 		.ascii	"unsigned char\000"
 13967      676E6564 
 13967      20636861 
 13967      7200
 13968              	.LASF59:
 13969 0893 54494D5F 		.ascii	"TIM_LOCKLevel\000"
 13969      4C4F434B 
 13969      4C657665 
 13969      6C00
 13970              	.LASF172:
 13971 08a1 54494D5F 		.ascii	"TIM_CtrlPWMOutputs\000"
 13971      4374726C 
 13971      50574D4F 
 13971      75747075 
 13971      747300
 13972              	.LASF169:
 13973 08b4 54494D5F 		.ascii	"TIM_BDTRConfig\000"
 13973      42445452 
 13973      436F6E66 
 13973      696700
 13974              	.LASF2:
 13975 08c3 73686F72 		.ascii	"short int\000"
 13975      7420696E 
 13975      7400
 13976              	.LASF27:
 13977 08cd 42445452 		.ascii	"BDTR\000"
 13977      00
 13978              	.LASF72:
 13979 08d2 54494D5F 		.ascii	"TIM_SetIC2Prescaler\000"
 13979      53657449 
 13979      43325072 
 13979      65736361 
 13979      6C657200 
 13980              	.LASF89:
 13981 08e6 54494D5F 		.ascii	"TIM_PrescalerConfig\000"
 13981      50726573 
ARM GAS  /tmp/ccJZ9K5Y.s 			page 254


 13981      63616C65 
 13981      72436F6E 
 13981      66696700 
 13982              	.LASF194:
 13983 08fa 54494D5F 		.ascii	"TIM_ITRxExternalClockConfig\000"
 13983      49545278 
 13983      45787465 
 13983      726E616C 
 13983      436C6F63 
 13984              	.LASF153:
 13985 0916 54494D5F 		.ascii	"TIM_OC3NPolarityConfig\000"
 13985      4F43334E 
 13985      506F6C61 
 13985      72697479 
 13985      436F6E66 
 13986              	.LASF215:
 13987 092d 43686962 		.ascii	"ChibiOS_3.0.2/ext/stdperiph_stm32f4/src/stm32f4xx_t"
 13987      694F535F 
 13987      332E302E 
 13987      322F6578 
 13987      742F7374 
 13988 0960 696D2E63 		.ascii	"im.c\000"
 13988      00
 13989              	.LASF58:
 13990 0965 54494D5F 		.ascii	"TIM_OSSIState\000"
 13990      4F535349 
 13990      53746174 
 13990      6500
 13991              	.LASF86:
 13992 0973 54494D5F 		.ascii	"TIM_TimeBaseInit\000"
 13992      54696D65 
 13992      42617365 
 13992      496E6974 
 13992      00
 13993              	.LASF196:
 13994 0984 54494D5F 		.ascii	"TIM_TIxExternalCLKSource\000"
 13994      54497845 
 13994      78746572 
 13994      6E616C43 
 13994      4C4B536F 
 13995              	.LASF170:
 13996 099d 54494D5F 		.ascii	"TIM_BDTRInitStruct\000"
 13996      42445452 
 13996      496E6974 
 13996      53747275 
 13996      637400
 13997              	.LASF70:
 13998 09b0 5449325F 		.ascii	"TI2_Config\000"
 13998      436F6E66 
 13998      696700
 13999              	.LASF140:
 14000 09bb 54494D5F 		.ascii	"TIM_OC2FastConfig\000"
 14000      4F433246 
 14000      61737443 
 14000      6F6E6669 
 14000      6700
 14001              	.LASF142:
ARM GAS  /tmp/ccJZ9K5Y.s 			page 255


 14002 09cd 54494D5F 		.ascii	"TIM_OC4FastConfig\000"
 14002      4F433446 
 14002      61737443 
 14002      6F6E6669 
 14002      6700
 14003              	.LASF9:
 14004 09df 6C6F6E67 		.ascii	"long unsigned int\000"
 14004      20756E73 
 14004      69676E65 
 14004      6420696E 
 14004      7400
 14005              	.LASF47:
 14006 09f1 54494D5F 		.ascii	"TIM_OCNPolarity\000"
 14006      4F434E50 
 14006      6F6C6172 
 14006      69747900 
 14007              	.LASF199:
 14008 0a01 54494D5F 		.ascii	"TIM_ETRClockMode2Config\000"
 14008      45545243 
 14008      6C6F636B 
 14008      4D6F6465 
 14008      32436F6E 
 14009              	.LASF109:
 14010 0a19 54494D5F 		.ascii	"TIM_Cmd\000"
 14010      436D6400 
 14011              	.LASF28:
 14012 0a21 444D4152 		.ascii	"DMAR\000"
 14012      00
 14013              	.LASF214:
 14014 0a26 474E5520 		.ascii	"GNU C 4.9.3 20150529 (release) [ARM/embedded-4_9-br"
 14014      4320342E 
 14014      392E3320 
 14014      32303135 
 14014      30353239 
 14015 0a59 616E6368 		.ascii	"anch revision 227977] -mcpu=cortex-m4 -mfloat-abi=h"
 14015      20726576 
 14015      6973696F 
 14015      6E203232 
 14015      37393737 
 14016 0a8c 61726420 		.ascii	"ard -mfpu=fpv4-sp-d16 -mno-thumb-interwork -mthumb "
 14016      2D6D6670 
 14016      753D6670 
 14016      76342D73 
 14016      702D6431 
 14017 0abf 2D676764 		.ascii	"-ggdb -O2 -std=gnu99 -fomit-frame-pointer -falign-f"
 14017      62202D4F 
 14017      32202D73 
 14017      74643D67 
 14017      6E753939 
 14018 0af2 756E6374 		.ascii	"unctions=16 -ffunction-sections -fdata-sections -fn"
 14018      696F6E73 
 14018      3D313620 
 14018      2D666675 
 14018      6E637469 
 14019 0b25 6F2D636F 		.ascii	"o-common -fsingle-precision-constant\000"
 14019      6D6D6F6E 
 14019      202D6673 
ARM GAS  /tmp/ccJZ9K5Y.s 			page 256


 14019      696E676C 
 14019      652D7072 
 14020              	.LASF114:
 14021 0b4a 54494D5F 		.ascii	"TIM_OC2Init\000"
 14021      4F433249 
 14021      6E697400 
 14022              	.LASF38:
 14023 0b56 54494D5F 		.ascii	"TIM_Period\000"
 14023      50657269 
 14023      6F6400
 14024              	.LASF41:
 14025 0b61 54494D5F 		.ascii	"TIM_TimeBaseInitTypeDef\000"
 14025      54696D65 
 14025      42617365 
 14025      496E6974 
 14025      54797065 
 14026              	.LASF186:
 14027 0b79 54494D5F 		.ascii	"TIM_ClearITPendingBit\000"
 14027      436C6561 
 14027      72495450 
 14027      656E6469 
 14027      6E674269 
 14028              	.LASF6:
 14029 0b8f 5F5F696E 		.ascii	"__int32_t\000"
 14029      7433325F 
 14029      7400
 14030              	.LASF56:
 14031 0b99 54494D5F 		.ascii	"TIM_ICInitTypeDef\000"
 14031      4943496E 
 14031      69745479 
 14031      70654465 
 14031      6600
 14032              	.LASF116:
 14033 0bab 54494D5F 		.ascii	"TIM_OC4Init\000"
 14033      4F433449 
 14033      6E697400 
 14034              	.LASF159:
 14035 0bb7 54494D5F 		.ascii	"TIM_ICInit\000"
 14035      4943496E 
 14035      697400
 14036              	.LASF126:
 14037 0bc2 54494D5F 		.ascii	"TIM_SetCompare4\000"
 14037      53657443 
 14037      6F6D7061 
 14037      72653400 
 14038              	.LASF118:
 14039 0bd2 54494D5F 		.ascii	"TIM_SelectOCxM\000"
 14039      53656C65 
 14039      63744F43 
 14039      784D00
 14040              	.LASF102:
 14041 0be1 54494D5F 		.ascii	"TIM_UpdateRequestConfig\000"
 14041      55706461 
 14041      74655265 
 14041      71756573 
 14041      74436F6E 
 14042              	.LASF90:
ARM GAS  /tmp/ccJZ9K5Y.s 			page 257


 14043 0bf9 50726573 		.ascii	"Prescaler\000"
 14043      63616C65 
 14043      7200
 14044              	.LASF137:
 14045 0c03 54494D5F 		.ascii	"TIM_OC4PreloadConfig\000"
 14045      4F433450 
 14045      72656C6F 
 14045      6164436F 
 14045      6E666967 
 14046              	.LASF5:
 14047 0c18 73686F72 		.ascii	"short unsigned int\000"
 14047      7420756E 
 14047      7369676E 
 14047      65642069 
 14047      6E7400
 14048              	.LASF203:
 14049 0c2b 54494D5F 		.ascii	"TIM_SlaveMode\000"
 14049      536C6176 
 14049      654D6F64 
 14049      6500
 14050              	.LASF42:
 14051 0c39 54494D5F 		.ascii	"TIM_OCMode\000"
 14051      4F434D6F 
 14051      646500
 14052              	.LASF147:
 14053 0c44 54494D5F 		.ascii	"TIM_ClearOC4Ref\000"
 14053      436C6561 
 14053      724F4334 
 14053      52656600 
 14054              	.LASF62:
 14055 0c54 54494D5F 		.ascii	"TIM_BreakPolarity\000"
 14055      42726561 
 14055      6B506F6C 
 14055      61726974 
 14055      7900
 14056              	.LASF149:
 14057 0c66 54494D5F 		.ascii	"TIM_OC1NPolarityConfig\000"
 14057      4F43314E 
 14057      506F6C61 
 14057      72697479 
 14057      436F6E66 
 14058              	.LASF174:
 14059 0c7d 54494D5F 		.ascii	"TIM_CCPreloadControl\000"
 14059      43435072 
 14059      656C6F61 
 14059      64436F6E 
 14059      74726F6C 
 14060              	.LASF16:
 14061 0c92 75696E74 		.ascii	"uint32_t\000"
 14061      33325F74 
 14061      00
 14062              	.LASF23:
 14063 0c9b 43435231 		.ascii	"CCR1\000"
 14063      00
 14064              	.LASF198:
 14065 0ca0 54494D5F 		.ascii	"TIM_ETRClockMode1Config\000"
 14065      45545243 
ARM GAS  /tmp/ccJZ9K5Y.s 			page 258


 14065      6C6F636B 
 14065      4D6F6465 
 14065      31436F6E 
 14066              	.LASF25:
 14067 0cb8 43435233 		.ascii	"CCR3\000"
 14067      00
 14068              	.LASF26:
 14069 0cbd 43435234 		.ascii	"CCR4\000"
 14069      00
 14070              	.LASF50:
 14071 0cc2 54494D5F 		.ascii	"TIM_OCInitTypeDef\000"
 14071      4F43496E 
 14071      69745479 
 14071      70654465 
 14071      6600
 14072              	.LASF94:
 14073 0cd4 54494D5F 		.ascii	"TIM_SetCounter\000"
 14073      53657443 
 14073      6F756E74 
 14073      657200
 14074              	.LASF185:
 14075 0ce3 6974656E 		.ascii	"itenable\000"
 14075      61626C65 
 14075      00
 14076              	.LASF13:
 14077 0cec 75696E74 		.ascii	"uint8_t\000"
 14077      385F7400 
 14078              	.LASF152:
 14079 0cf4 54494D5F 		.ascii	"TIM_OC3PolarityConfig\000"
 14079      4F433350 
 14079      6F6C6172 
 14079      69747943 
 14079      6F6E6669 
 14080              	.LASF211:
 14081 0d0a 54494D5F 		.ascii	"TIM_RemapConfig\000"
 14081      52656D61 
 14081      70436F6E 
 14081      66696700 
 14082              	.LASF110:
 14083 0d1a 54494D5F 		.ascii	"TIM_OC1Init\000"
 14083      4F433149 
 14083      6E697400 
 14084              	.LASF40:
 14085 0d26 54494D5F 		.ascii	"TIM_RepetitionCounter\000"
 14085      52657065 
 14085      74697469 
 14085      6F6E436F 
 14085      756E7465 
 14086              	.LASF210:
 14087 0d3c 54494D5F 		.ascii	"TIM_SelectHallSensor\000"
 14087      53656C65 
 14087      63744861 
 14087      6C6C5365 
 14087      6E736F72 
 14088              	.LASF160:
 14089 0d51 54494D5F 		.ascii	"TIM_ICInitStruct\000"
 14089      4943496E 
ARM GAS  /tmp/ccJZ9K5Y.s 			page 259


 14089      69745374 
 14089      72756374 
 14089      00
 14090              	.LASF181:
 14091 0d62 62697473 		.ascii	"bitstatus\000"
 14091      74617475 
 14091      7300
 14092              	.LASF197:
 14093 0d6c 49434669 		.ascii	"ICFilter\000"
 14093      6C746572 
 14093      00
 14094              	.LASF145:
 14095 0d75 54494D5F 		.ascii	"TIM_ClearOC2Ref\000"
 14095      436C6561 
 14095      724F4332 
 14095      52656600 
 14096              	.LASF84:
 14097 0d85 45787454 		.ascii	"ExtTRGFilter\000"
 14097      52474669 
 14097      6C746572 
 14097      00
 14098              	.LASF175:
 14099 0d92 54494D5F 		.ascii	"TIM_ITConfig\000"
 14099      4954436F 
 14099      6E666967 
 14099      00
 14100              	.LASF48:
 14101 0d9f 54494D5F 		.ascii	"TIM_OCIdleState\000"
 14101      4F434964 
 14101      6C655374 
 14101      61746500 
 14102              	.LASF144:
 14103 0daf 54494D5F 		.ascii	"TIM_OCClear\000"
 14103      4F43436C 
 14103      65617200 
 14104              	.LASF68:
 14105 0dbb 54494D5F 		.ascii	"TIM_ICPSC\000"
 14105      49435053 
 14105      4300
 14106              	.LASF81:
 14107 0dc5 54494D5F 		.ascii	"TIM_ETRConfig\000"
 14107      45545243 
 14107      6F6E6669 
 14107      6700
 14108              	.LASF85:
 14109 0dd3 54494D5F 		.ascii	"TIM_DeInit\000"
 14109      4465496E 
 14109      697400
 14110              	.LASF141:
 14111 0dde 54494D5F 		.ascii	"TIM_OC3FastConfig\000"
 14111      4F433346 
 14111      61737443 
 14111      6F6E6669 
 14111      6700
 14112              	.LASF136:
 14113 0df0 54494D5F 		.ascii	"TIM_OC3PreloadConfig\000"
 14113      4F433350 
ARM GAS  /tmp/ccJZ9K5Y.s 			page 260


 14113      72656C6F 
 14113      6164436F 
 14113      6E666967 
 14114              	.LASF77:
 14115 0e05 54494D5F 		.ascii	"TIM_SetIC4Prescaler\000"
 14115      53657449 
 14115      43345072 
 14115      65736361 
 14115      6C657200 
 14116              	.LASF138:
 14117 0e19 54494D5F 		.ascii	"TIM_OC1FastConfig\000"
 14117      4F433146 
 14117      61737443 
 14117      6F6E6669 
 14117      6700
 14118              		.ident	"GCC: (GNU Tools for ARM Embedded Processors) 4.9.3 20150529 (release) [ARM/embedded-4_9-br
ARM GAS  /tmp/ccJZ9K5Y.s 			page 261


DEFINED SYMBOLS
                            *ABS*:0000000000000000 stm32f4xx_tim.c
     /tmp/ccJZ9K5Y.s:21     .text.TIM_DeInit:0000000000000000 $t
     /tmp/ccJZ9K5Y.s:27     .text.TIM_DeInit:0000000000000000 TIM_DeInit
     /tmp/ccJZ9K5Y.s:376    .text.TIM_DeInit:0000000000000184 $d
     /tmp/ccJZ9K5Y.s:393    .text.TIM_TimeBaseInit:0000000000000000 $t
     /tmp/ccJZ9K5Y.s:399    .text.TIM_TimeBaseInit:0000000000000000 TIM_TimeBaseInit
     /tmp/ccJZ9K5Y.s:538    .text.TIM_TimeBaseInit:000000000000008c $d
     /tmp/ccJZ9K5Y.s:545    .text.TIM_TimeBaseStructInit:0000000000000000 $t
     /tmp/ccJZ9K5Y.s:551    .text.TIM_TimeBaseStructInit:0000000000000000 TIM_TimeBaseStructInit
     /tmp/ccJZ9K5Y.s:577    .text.TIM_PrescalerConfig:0000000000000000 $t
     /tmp/ccJZ9K5Y.s:583    .text.TIM_PrescalerConfig:0000000000000000 TIM_PrescalerConfig
     /tmp/ccJZ9K5Y.s:600    .text.TIM_CounterModeConfig:0000000000000000 $t
     /tmp/ccJZ9K5Y.s:606    .text.TIM_CounterModeConfig:0000000000000000 TIM_CounterModeConfig
     /tmp/ccJZ9K5Y.s:630    .text.TIM_SetCounter:0000000000000000 $t
     /tmp/ccJZ9K5Y.s:636    .text.TIM_SetCounter:0000000000000000 TIM_SetCounter
     /tmp/ccJZ9K5Y.s:651    .text.TIM_SetAutoreload:0000000000000000 $t
     /tmp/ccJZ9K5Y.s:657    .text.TIM_SetAutoreload:0000000000000000 TIM_SetAutoreload
     /tmp/ccJZ9K5Y.s:672    .text.TIM_GetCounter:0000000000000000 $t
     /tmp/ccJZ9K5Y.s:678    .text.TIM_GetCounter:0000000000000000 TIM_GetCounter
     /tmp/ccJZ9K5Y.s:695    .text.TIM_GetPrescaler:0000000000000000 $t
     /tmp/ccJZ9K5Y.s:701    .text.TIM_GetPrescaler:0000000000000000 TIM_GetPrescaler
     /tmp/ccJZ9K5Y.s:719    .text.TIM_UpdateDisableConfig:0000000000000000 $t
     /tmp/ccJZ9K5Y.s:725    .text.TIM_UpdateDisableConfig:0000000000000000 TIM_UpdateDisableConfig
     /tmp/ccJZ9K5Y.s:751    .text.TIM_UpdateRequestConfig:0000000000000000 $t
     /tmp/ccJZ9K5Y.s:757    .text.TIM_UpdateRequestConfig:0000000000000000 TIM_UpdateRequestConfig
     /tmp/ccJZ9K5Y.s:783    .text.TIM_ARRPreloadConfig:0000000000000000 $t
     /tmp/ccJZ9K5Y.s:789    .text.TIM_ARRPreloadConfig:0000000000000000 TIM_ARRPreloadConfig
     /tmp/ccJZ9K5Y.s:815    .text.TIM_SelectOnePulseMode:0000000000000000 $t
     /tmp/ccJZ9K5Y.s:821    .text.TIM_SelectOnePulseMode:0000000000000000 TIM_SelectOnePulseMode
     /tmp/ccJZ9K5Y.s:844    .text.TIM_SetClockDivision:0000000000000000 $t
     /tmp/ccJZ9K5Y.s:850    .text.TIM_SetClockDivision:0000000000000000 TIM_SetClockDivision
     /tmp/ccJZ9K5Y.s:873    .text.TIM_Cmd:0000000000000000 $t
     /tmp/ccJZ9K5Y.s:879    .text.TIM_Cmd:0000000000000000 TIM_Cmd
     /tmp/ccJZ9K5Y.s:905    .text.TIM_OC1Init:0000000000000000 $t
     /tmp/ccJZ9K5Y.s:911    .text.TIM_OC1Init:0000000000000000 TIM_OC1Init
     /tmp/ccJZ9K5Y.s:1017   .text.TIM_OC1Init:0000000000000074 $d
     /tmp/ccJZ9K5Y.s:1023   .text.TIM_OC2Init:0000000000000000 $t
     /tmp/ccJZ9K5Y.s:1029   .text.TIM_OC2Init:0000000000000000 TIM_OC2Init
     /tmp/ccJZ9K5Y.s:1147   .text.TIM_OC2Init:0000000000000090 $d
     /tmp/ccJZ9K5Y.s:1153   .text.TIM_OC3Init:0000000000000000 $t
     /tmp/ccJZ9K5Y.s:1159   .text.TIM_OC3Init:0000000000000000 TIM_OC3Init
     /tmp/ccJZ9K5Y.s:1275   .text.TIM_OC3Init:0000000000000088 $d
     /tmp/ccJZ9K5Y.s:1281   .text.TIM_OC4Init:0000000000000000 $t
     /tmp/ccJZ9K5Y.s:1287   .text.TIM_OC4Init:0000000000000000 TIM_OC4Init
     /tmp/ccJZ9K5Y.s:1382   .text.TIM_OC4Init:000000000000006c $d
     /tmp/ccJZ9K5Y.s:1388   .text.TIM_OCStructInit:0000000000000000 $t
     /tmp/ccJZ9K5Y.s:1394   .text.TIM_OCStructInit:0000000000000000 TIM_OCStructInit
     /tmp/ccJZ9K5Y.s:1424   .text.TIM_SelectOCxM:0000000000000000 $t
     /tmp/ccJZ9K5Y.s:1430   .text.TIM_SelectOCxM:0000000000000000 TIM_SelectOCxM
     /tmp/ccJZ9K5Y.s:1511   .text.TIM_SetCompare1:0000000000000000 $t
     /tmp/ccJZ9K5Y.s:1517   .text.TIM_SetCompare1:0000000000000000 TIM_SetCompare1
     /tmp/ccJZ9K5Y.s:1532   .text.TIM_SetCompare2:0000000000000000 $t
     /tmp/ccJZ9K5Y.s:1538   .text.TIM_SetCompare2:0000000000000000 TIM_SetCompare2
     /tmp/ccJZ9K5Y.s:1553   .text.TIM_SetCompare3:0000000000000000 $t
     /tmp/ccJZ9K5Y.s:1559   .text.TIM_SetCompare3:0000000000000000 TIM_SetCompare3
     /tmp/ccJZ9K5Y.s:1574   .text.TIM_SetCompare4:0000000000000000 $t
ARM GAS  /tmp/ccJZ9K5Y.s 			page 262


     /tmp/ccJZ9K5Y.s:1580   .text.TIM_SetCompare4:0000000000000000 TIM_SetCompare4
     /tmp/ccJZ9K5Y.s:1595   .text.TIM_ForcedOC1Config:0000000000000000 $t
     /tmp/ccJZ9K5Y.s:1601   .text.TIM_ForcedOC1Config:0000000000000000 TIM_ForcedOC1Config
     /tmp/ccJZ9K5Y.s:1625   .text.TIM_ForcedOC2Config:0000000000000000 $t
     /tmp/ccJZ9K5Y.s:1631   .text.TIM_ForcedOC2Config:0000000000000000 TIM_ForcedOC2Config
     /tmp/ccJZ9K5Y.s:1657   .text.TIM_ForcedOC3Config:0000000000000000 $t
     /tmp/ccJZ9K5Y.s:1663   .text.TIM_ForcedOC3Config:0000000000000000 TIM_ForcedOC3Config
     /tmp/ccJZ9K5Y.s:1687   .text.TIM_ForcedOC4Config:0000000000000000 $t
     /tmp/ccJZ9K5Y.s:1693   .text.TIM_ForcedOC4Config:0000000000000000 TIM_ForcedOC4Config
     /tmp/ccJZ9K5Y.s:1719   .text.TIM_OC1PreloadConfig:0000000000000000 $t
     /tmp/ccJZ9K5Y.s:1725   .text.TIM_OC1PreloadConfig:0000000000000000 TIM_OC1PreloadConfig
     /tmp/ccJZ9K5Y.s:1749   .text.TIM_OC2PreloadConfig:0000000000000000 $t
     /tmp/ccJZ9K5Y.s:1755   .text.TIM_OC2PreloadConfig:0000000000000000 TIM_OC2PreloadConfig
     /tmp/ccJZ9K5Y.s:1781   .text.TIM_OC3PreloadConfig:0000000000000000 $t
     /tmp/ccJZ9K5Y.s:1787   .text.TIM_OC3PreloadConfig:0000000000000000 TIM_OC3PreloadConfig
     /tmp/ccJZ9K5Y.s:1811   .text.TIM_OC4PreloadConfig:0000000000000000 $t
     /tmp/ccJZ9K5Y.s:1817   .text.TIM_OC4PreloadConfig:0000000000000000 TIM_OC4PreloadConfig
     /tmp/ccJZ9K5Y.s:1843   .text.TIM_OC1FastConfig:0000000000000000 $t
     /tmp/ccJZ9K5Y.s:1849   .text.TIM_OC1FastConfig:0000000000000000 TIM_OC1FastConfig
     /tmp/ccJZ9K5Y.s:1873   .text.TIM_OC2FastConfig:0000000000000000 $t
     /tmp/ccJZ9K5Y.s:1879   .text.TIM_OC2FastConfig:0000000000000000 TIM_OC2FastConfig
     /tmp/ccJZ9K5Y.s:1905   .text.TIM_OC3FastConfig:0000000000000000 $t
     /tmp/ccJZ9K5Y.s:1911   .text.TIM_OC3FastConfig:0000000000000000 TIM_OC3FastConfig
     /tmp/ccJZ9K5Y.s:1935   .text.TIM_OC4FastConfig:0000000000000000 $t
     /tmp/ccJZ9K5Y.s:1941   .text.TIM_OC4FastConfig:0000000000000000 TIM_OC4FastConfig
     /tmp/ccJZ9K5Y.s:1967   .text.TIM_ClearOC1Ref:0000000000000000 $t
     /tmp/ccJZ9K5Y.s:1973   .text.TIM_ClearOC1Ref:0000000000000000 TIM_ClearOC1Ref
     /tmp/ccJZ9K5Y.s:1997   .text.TIM_ClearOC2Ref:0000000000000000 $t
     /tmp/ccJZ9K5Y.s:2003   .text.TIM_ClearOC2Ref:0000000000000000 TIM_ClearOC2Ref
     /tmp/ccJZ9K5Y.s:2028   .text.TIM_ClearOC3Ref:0000000000000000 $t
     /tmp/ccJZ9K5Y.s:2034   .text.TIM_ClearOC3Ref:0000000000000000 TIM_ClearOC3Ref
     /tmp/ccJZ9K5Y.s:2058   .text.TIM_ClearOC4Ref:0000000000000000 $t
     /tmp/ccJZ9K5Y.s:2064   .text.TIM_ClearOC4Ref:0000000000000000 TIM_ClearOC4Ref
     /tmp/ccJZ9K5Y.s:2089   .text.TIM_OC1PolarityConfig:0000000000000000 $t
     /tmp/ccJZ9K5Y.s:2095   .text.TIM_OC1PolarityConfig:0000000000000000 TIM_OC1PolarityConfig
     /tmp/ccJZ9K5Y.s:2119   .text.TIM_OC1NPolarityConfig:0000000000000000 $t
     /tmp/ccJZ9K5Y.s:2125   .text.TIM_OC1NPolarityConfig:0000000000000000 TIM_OC1NPolarityConfig
     /tmp/ccJZ9K5Y.s:2149   .text.TIM_OC2PolarityConfig:0000000000000000 $t
     /tmp/ccJZ9K5Y.s:2155   .text.TIM_OC2PolarityConfig:0000000000000000 TIM_OC2PolarityConfig
     /tmp/ccJZ9K5Y.s:2181   .text.TIM_OC2NPolarityConfig:0000000000000000 $t
     /tmp/ccJZ9K5Y.s:2187   .text.TIM_OC2NPolarityConfig:0000000000000000 TIM_OC2NPolarityConfig
     /tmp/ccJZ9K5Y.s:2213   .text.TIM_OC3PolarityConfig:0000000000000000 $t
     /tmp/ccJZ9K5Y.s:2219   .text.TIM_OC3PolarityConfig:0000000000000000 TIM_OC3PolarityConfig
     /tmp/ccJZ9K5Y.s:2245   .text.TIM_OC3NPolarityConfig:0000000000000000 $t
     /tmp/ccJZ9K5Y.s:2251   .text.TIM_OC3NPolarityConfig:0000000000000000 TIM_OC3NPolarityConfig
     /tmp/ccJZ9K5Y.s:2277   .text.TIM_OC4PolarityConfig:0000000000000000 $t
     /tmp/ccJZ9K5Y.s:2283   .text.TIM_OC4PolarityConfig:0000000000000000 TIM_OC4PolarityConfig
     /tmp/ccJZ9K5Y.s:2309   .text.TIM_CCxCmd:0000000000000000 $t
     /tmp/ccJZ9K5Y.s:2315   .text.TIM_CCxCmd:0000000000000000 TIM_CCxCmd
     /tmp/ccJZ9K5Y.s:2354   .text.TIM_CCxNCmd:0000000000000000 $t
     /tmp/ccJZ9K5Y.s:2360   .text.TIM_CCxNCmd:0000000000000000 TIM_CCxNCmd
     /tmp/ccJZ9K5Y.s:2399   .text.TIM_ICInit:0000000000000000 $t
     /tmp/ccJZ9K5Y.s:2405   .text.TIM_ICInit:0000000000000000 TIM_ICInit
     /tmp/ccJZ9K5Y.s:2708   .text.TIM_ICStructInit:0000000000000000 $t
     /tmp/ccJZ9K5Y.s:2714   .text.TIM_ICStructInit:0000000000000000 TIM_ICStructInit
     /tmp/ccJZ9K5Y.s:2740   .text.TIM_PWMIConfig:0000000000000000 $t
     /tmp/ccJZ9K5Y.s:2746   .text.TIM_PWMIConfig:0000000000000000 TIM_PWMIConfig
ARM GAS  /tmp/ccJZ9K5Y.s 			page 263


     /tmp/ccJZ9K5Y.s:3041   .text.TIM_GetCapture1:0000000000000000 $t
     /tmp/ccJZ9K5Y.s:3047   .text.TIM_GetCapture1:0000000000000000 TIM_GetCapture1
     /tmp/ccJZ9K5Y.s:3064   .text.TIM_GetCapture2:0000000000000000 $t
     /tmp/ccJZ9K5Y.s:3070   .text.TIM_GetCapture2:0000000000000000 TIM_GetCapture2
     /tmp/ccJZ9K5Y.s:3087   .text.TIM_GetCapture3:0000000000000000 $t
     /tmp/ccJZ9K5Y.s:3093   .text.TIM_GetCapture3:0000000000000000 TIM_GetCapture3
     /tmp/ccJZ9K5Y.s:3110   .text.TIM_GetCapture4:0000000000000000 $t
     /tmp/ccJZ9K5Y.s:3116   .text.TIM_GetCapture4:0000000000000000 TIM_GetCapture4
     /tmp/ccJZ9K5Y.s:3133   .text.TIM_SetIC1Prescaler:0000000000000000 $t
     /tmp/ccJZ9K5Y.s:3139   .text.TIM_SetIC1Prescaler:0000000000000000 TIM_SetIC1Prescaler
     /tmp/ccJZ9K5Y.s:3162   .text.TIM_SetIC2Prescaler:0000000000000000 $t
     /tmp/ccJZ9K5Y.s:3168   .text.TIM_SetIC2Prescaler:0000000000000000 TIM_SetIC2Prescaler
     /tmp/ccJZ9K5Y.s:3193   .text.TIM_SetIC3Prescaler:0000000000000000 $t
     /tmp/ccJZ9K5Y.s:3199   .text.TIM_SetIC3Prescaler:0000000000000000 TIM_SetIC3Prescaler
     /tmp/ccJZ9K5Y.s:3222   .text.TIM_SetIC4Prescaler:0000000000000000 $t
     /tmp/ccJZ9K5Y.s:3228   .text.TIM_SetIC4Prescaler:0000000000000000 TIM_SetIC4Prescaler
     /tmp/ccJZ9K5Y.s:3253   .text.TIM_BDTRConfig:0000000000000000 $t
     /tmp/ccJZ9K5Y.s:3259   .text.TIM_BDTRConfig:0000000000000000 TIM_BDTRConfig
     /tmp/ccJZ9K5Y.s:3295   .text.TIM_BDTRStructInit:0000000000000000 $t
     /tmp/ccJZ9K5Y.s:3301   .text.TIM_BDTRStructInit:0000000000000000 TIM_BDTRStructInit
     /tmp/ccJZ9K5Y.s:3329   .text.TIM_CtrlPWMOutputs:0000000000000000 $t
     /tmp/ccJZ9K5Y.s:3335   .text.TIM_CtrlPWMOutputs:0000000000000000 TIM_CtrlPWMOutputs
     /tmp/ccJZ9K5Y.s:3360   .text.TIM_SelectCOM:0000000000000000 $t
     /tmp/ccJZ9K5Y.s:3366   .text.TIM_SelectCOM:0000000000000000 TIM_SelectCOM
     /tmp/ccJZ9K5Y.s:3392   .text.TIM_CCPreloadControl:0000000000000000 $t
     /tmp/ccJZ9K5Y.s:3398   .text.TIM_CCPreloadControl:0000000000000000 TIM_CCPreloadControl
     /tmp/ccJZ9K5Y.s:3424   .text.TIM_ITConfig:0000000000000000 $t
     /tmp/ccJZ9K5Y.s:3430   .text.TIM_ITConfig:0000000000000000 TIM_ITConfig
     /tmp/ccJZ9K5Y.s:3460   .text.TIM_GenerateEvent:0000000000000000 $t
     /tmp/ccJZ9K5Y.s:3466   .text.TIM_GenerateEvent:0000000000000000 TIM_GenerateEvent
     /tmp/ccJZ9K5Y.s:3481   .text.TIM_GetFlagStatus:0000000000000000 $t
     /tmp/ccJZ9K5Y.s:3487   .text.TIM_GetFlagStatus:0000000000000000 TIM_GetFlagStatus
     /tmp/ccJZ9K5Y.s:3509   .text.TIM_ClearFlag:0000000000000000 $t
     /tmp/ccJZ9K5Y.s:3515   .text.TIM_ClearFlag:0000000000000000 TIM_ClearFlag
     /tmp/ccJZ9K5Y.s:3533   .text.TIM_GetITStatus:0000000000000000 $t
     /tmp/ccJZ9K5Y.s:3539   .text.TIM_GetITStatus:0000000000000000 TIM_GetITStatus
     /tmp/ccJZ9K5Y.s:3571   .text.TIM_ClearITPendingBit:0000000000000000 $t
     /tmp/ccJZ9K5Y.s:3577   .text.TIM_ClearITPendingBit:0000000000000000 TIM_ClearITPendingBit
     /tmp/ccJZ9K5Y.s:3595   .text.TIM_DMAConfig:0000000000000000 $t
     /tmp/ccJZ9K5Y.s:3601   .text.TIM_DMAConfig:0000000000000000 TIM_DMAConfig
     /tmp/ccJZ9K5Y.s:3618   .text.TIM_DMACmd:0000000000000000 $t
     /tmp/ccJZ9K5Y.s:3624   .text.TIM_DMACmd:0000000000000000 TIM_DMACmd
     /tmp/ccJZ9K5Y.s:3654   .text.TIM_SelectCCDMA:0000000000000000 $t
     /tmp/ccJZ9K5Y.s:3660   .text.TIM_SelectCCDMA:0000000000000000 TIM_SelectCCDMA
     /tmp/ccJZ9K5Y.s:3686   .text.TIM_InternalClockConfig:0000000000000000 $t
     /tmp/ccJZ9K5Y.s:3692   .text.TIM_InternalClockConfig:0000000000000000 TIM_InternalClockConfig
     /tmp/ccJZ9K5Y.s:3710   .text.TIM_ITRxExternalClockConfig:0000000000000000 $t
     /tmp/ccJZ9K5Y.s:3716   .text.TIM_ITRxExternalClockConfig:0000000000000000 TIM_ITRxExternalClockConfig
     /tmp/ccJZ9K5Y.s:3749   .text.TIM_TIxExternalClockConfig:0000000000000000 $t
     /tmp/ccJZ9K5Y.s:3755   .text.TIM_TIxExternalClockConfig:0000000000000000 TIM_TIxExternalClockConfig
     /tmp/ccJZ9K5Y.s:3899   .text.TIM_ETRClockMode1Config:0000000000000000 $t
     /tmp/ccJZ9K5Y.s:3905   .text.TIM_ETRClockMode1Config:0000000000000000 TIM_ETRClockMode1Config
     /tmp/ccJZ9K5Y.s:3958   .text.TIM_ETRClockMode2Config:0000000000000000 $t
     /tmp/ccJZ9K5Y.s:3964   .text.TIM_ETRClockMode2Config:0000000000000000 TIM_ETRClockMode2Config
     /tmp/ccJZ9K5Y.s:4011   .text.TIM_SelectInputTrigger:0000000000000000 $t
     /tmp/ccJZ9K5Y.s:4017   .text.TIM_SelectInputTrigger:0000000000000000 TIM_SelectInputTrigger
     /tmp/ccJZ9K5Y.s:4041   .text.TIM_SelectOutputTrigger:0000000000000000 $t
ARM GAS  /tmp/ccJZ9K5Y.s 			page 264


     /tmp/ccJZ9K5Y.s:4047   .text.TIM_SelectOutputTrigger:0000000000000000 TIM_SelectOutputTrigger
     /tmp/ccJZ9K5Y.s:4070   .text.TIM_SelectSlaveMode:0000000000000000 $t
     /tmp/ccJZ9K5Y.s:4076   .text.TIM_SelectSlaveMode:0000000000000000 TIM_SelectSlaveMode
     /tmp/ccJZ9K5Y.s:4099   .text.TIM_SelectMasterSlaveMode:0000000000000000 $t
     /tmp/ccJZ9K5Y.s:4105   .text.TIM_SelectMasterSlaveMode:0000000000000000 TIM_SelectMasterSlaveMode
     /tmp/ccJZ9K5Y.s:4128   .text.TIM_ETRConfig:0000000000000000 $t
     /tmp/ccJZ9K5Y.s:4134   .text.TIM_ETRConfig:0000000000000000 TIM_ETRConfig
     /tmp/ccJZ9K5Y.s:4170   .text.TIM_EncoderInterfaceConfig:0000000000000000 $t
     /tmp/ccJZ9K5Y.s:4176   .text.TIM_EncoderInterfaceConfig:0000000000000000 TIM_EncoderInterfaceConfig
     /tmp/ccJZ9K5Y.s:4239   .text.TIM_SelectHallSensor:0000000000000000 $t
     /tmp/ccJZ9K5Y.s:4245   .text.TIM_SelectHallSensor:0000000000000000 TIM_SelectHallSensor
     /tmp/ccJZ9K5Y.s:4271   .text.TIM_RemapConfig:0000000000000000 $t
     /tmp/ccJZ9K5Y.s:4277   .text.TIM_RemapConfig:0000000000000000 TIM_RemapConfig
                     .debug_frame:0000000000000010 $d

UNDEFINED SYMBOLS
RCC_APB1PeriphResetCmd
RCC_APB2PeriphResetCmd
