ARM GAS  /tmp/ccWD2Hqw.s 			page 1


   1              		.syntax unified
   2              		.cpu cortex-m4
   3              		.eabi_attribute 27, 1
   4              		.eabi_attribute 28, 1
   5              		.fpu fpv4-sp-d16
   6              		.eabi_attribute 20, 1
   7              		.eabi_attribute 21, 1
   8              		.eabi_attribute 23, 3
   9              		.eabi_attribute 24, 1
  10              		.eabi_attribute 25, 1
  11              		.eabi_attribute 26, 1
  12              		.eabi_attribute 30, 2
  13              		.eabi_attribute 34, 1
  14              		.eabi_attribute 18, 4
  15              		.thumb
  16              		.file	"stm32f4xx_wwdg.c"
  17              		.text
  18              	.Ltext0:
  19              		.cfi_sections	.debug_frame
  20              		.section	.text.WWDG_DeInit,"ax",%progbits
  21              		.align	2
  22              		.p2align 4,,15
  23              		.global	WWDG_DeInit
  24              		.thumb
  25              		.thumb_func
  26              		.type	WWDG_DeInit, %function
  27              	WWDG_DeInit:
  28              	.LFB112:
  29              		.file 1 "ChibiOS_3.0.2/ext/stdperiph_stm32f4/src/stm32f4xx_wwdg.c"
  30              		.loc 1 143 0
  31              		.cfi_startproc
  32              		@ args = 0, pretend = 0, frame = 0
  33              		@ frame_needed = 0, uses_anonymous_args = 0
  34 0000 08B5     		push	{r3, lr}
  35              		.cfi_def_cfa_offset 8
  36              		.cfi_offset 3, -8
  37              		.cfi_offset 14, -4
  38              		.loc 1 144 0
  39 0002 4FF40060 		mov	r0, #2048
  40 0006 0121     		movs	r1, #1
  41 0008 FFF7FEFF 		bl	RCC_APB1PeriphResetCmd
  42              	.LVL0:
  43              		.loc 1 145 0
  44 000c 4FF40060 		mov	r0, #2048
  45 0010 0021     		movs	r1, #0
  46              		.loc 1 146 0
  47 0012 BDE80840 		pop	{r3, lr}
  48              		.cfi_restore 14
  49              		.cfi_restore 3
  50              		.cfi_def_cfa_offset 0
  51              		.loc 1 145 0
  52 0016 FFF7FEBF 		b	RCC_APB1PeriphResetCmd
  53              	.LVL1:
  54              		.cfi_endproc
  55              	.LFE112:
  56              		.size	WWDG_DeInit, .-WWDG_DeInit
  57 001a 00BF     		.section	.text.WWDG_SetPrescaler,"ax",%progbits
ARM GAS  /tmp/ccWD2Hqw.s 			page 2


  58              		.align	2
  59              		.p2align 4,,15
  60              		.global	WWDG_SetPrescaler
  61              		.thumb
  62              		.thumb_func
  63              		.type	WWDG_SetPrescaler, %function
  64              	WWDG_SetPrescaler:
  65              	.LFB113:
  66              		.loc 1 159 0
  67              		.cfi_startproc
  68              		@ args = 0, pretend = 0, frame = 0
  69              		@ frame_needed = 0, uses_anonymous_args = 0
  70              		@ link register save eliminated.
  71              	.LVL2:
  72              		.loc 1 164 0
  73 0000 034A     		ldr	r2, .L4
  74 0002 5368     		ldr	r3, [r2, #4]
  75 0004 23F4C073 		bic	r3, r3, #384
  76              	.LVL3:
  77              		.loc 1 166 0
  78 0008 1843     		orrs	r0, r0, r3
  79              	.LVL4:
  80              		.loc 1 168 0
  81 000a 5060     		str	r0, [r2, #4]
  82 000c 7047     		bx	lr
  83              	.L5:
  84 000e 00BF     		.align	2
  85              	.L4:
  86 0010 002C0040 		.word	1073753088
  87              		.cfi_endproc
  88              	.LFE113:
  89              		.size	WWDG_SetPrescaler, .-WWDG_SetPrescaler
  90              		.section	.text.WWDG_SetWindowValue,"ax",%progbits
  91              		.align	2
  92              		.p2align 4,,15
  93              		.global	WWDG_SetWindowValue
  94              		.thumb
  95              		.thumb_func
  96              		.type	WWDG_SetWindowValue, %function
  97              	WWDG_SetWindowValue:
  98              	.LFB114:
  99              		.loc 1 178 0
 100              		.cfi_startproc
 101              		@ args = 0, pretend = 0, frame = 8
 102              		@ frame_needed = 0, uses_anonymous_args = 0
 103              		@ link register save eliminated.
 104              	.LVL5:
 105 0000 82B0     		sub	sp, sp, #8
 106              		.cfi_def_cfa_offset 8
 107              		.loc 1 185 0
 108 0002 084A     		ldr	r2, .L8
 109              		.loc 1 179 0
 110 0004 0023     		movs	r3, #0
 111 0006 0193     		str	r3, [sp, #4]
 112              		.loc 1 185 0
 113 0008 5368     		ldr	r3, [r2, #4]
 114 000a 23F07F03 		bic	r3, r3, #127
ARM GAS  /tmp/ccWD2Hqw.s 			page 3


 115 000e 0193     		str	r3, [sp, #4]
 116              		.loc 1 188 0
 117 0010 019B     		ldr	r3, [sp, #4]
 118 0012 00F07F00 		and	r0, r0, #127
 119              	.LVL6:
 120 0016 0343     		orrs	r3, r3, r0
 121 0018 0193     		str	r3, [sp, #4]
 122              		.loc 1 191 0
 123 001a 019B     		ldr	r3, [sp, #4]
 124 001c 5360     		str	r3, [r2, #4]
 125              		.loc 1 192 0
 126 001e 02B0     		add	sp, sp, #8
 127              		.cfi_def_cfa_offset 0
 128              		@ sp needed
 129 0020 7047     		bx	lr
 130              	.L9:
 131 0022 00BF     		.align	2
 132              	.L8:
 133 0024 002C0040 		.word	1073753088
 134              		.cfi_endproc
 135              	.LFE114:
 136              		.size	WWDG_SetWindowValue, .-WWDG_SetWindowValue
 137              		.section	.text.WWDG_EnableIT,"ax",%progbits
 138              		.align	2
 139              		.p2align 4,,15
 140              		.global	WWDG_EnableIT
 141              		.thumb
 142              		.thumb_func
 143              		.type	WWDG_EnableIT, %function
 144              	WWDG_EnableIT:
 145              	.LFB115:
 146              		.loc 1 201 0
 147              		.cfi_startproc
 148              		@ args = 0, pretend = 0, frame = 0
 149              		@ frame_needed = 0, uses_anonymous_args = 0
 150              		@ link register save eliminated.
 151              		.loc 1 202 0
 152 0000 014B     		ldr	r3, .L11
 153 0002 0122     		movs	r2, #1
 154 0004 1A60     		str	r2, [r3]
 155 0006 7047     		bx	lr
 156              	.L12:
 157              		.align	2
 158              	.L11:
 159 0008 A4800542 		.word	1107656868
 160              		.cfi_endproc
 161              	.LFE115:
 162              		.size	WWDG_EnableIT, .-WWDG_EnableIT
 163              		.section	.text.WWDG_SetCounter,"ax",%progbits
 164              		.align	2
 165              		.p2align 4,,15
 166              		.global	WWDG_SetCounter
 167              		.thumb
 168              		.thumb_func
 169              		.type	WWDG_SetCounter, %function
 170              	WWDG_SetCounter:
 171              	.LFB116:
ARM GAS  /tmp/ccWD2Hqw.s 			page 4


 172              		.loc 1 213 0
 173              		.cfi_startproc
 174              		@ args = 0, pretend = 0, frame = 0
 175              		@ frame_needed = 0, uses_anonymous_args = 0
 176              		@ link register save eliminated.
 177              	.LVL7:
 178              		.loc 1 218 0
 179 0000 024B     		ldr	r3, .L14
 180 0002 00F07F00 		and	r0, r0, #127
 181              	.LVL8:
 182 0006 1860     		str	r0, [r3]
 183 0008 7047     		bx	lr
 184              	.L15:
 185 000a 00BF     		.align	2
 186              	.L14:
 187 000c 002C0040 		.word	1073753088
 188              		.cfi_endproc
 189              	.LFE116:
 190              		.size	WWDG_SetCounter, .-WWDG_SetCounter
 191              		.section	.text.WWDG_Enable,"ax",%progbits
 192              		.align	2
 193              		.p2align 4,,15
 194              		.global	WWDG_Enable
 195              		.thumb
 196              		.thumb_func
 197              		.type	WWDG_Enable, %function
 198              	WWDG_Enable:
 199              	.LFB117:
 200              		.loc 1 244 0
 201              		.cfi_startproc
 202              		@ args = 0, pretend = 0, frame = 0
 203              		@ frame_needed = 0, uses_anonymous_args = 0
 204              		@ link register save eliminated.
 205              	.LVL9:
 206              		.loc 1 247 0
 207 0000 024B     		ldr	r3, .L17
 208 0002 40F08000 		orr	r0, r0, #128
 209              	.LVL10:
 210 0006 1860     		str	r0, [r3]
 211 0008 7047     		bx	lr
 212              	.L18:
 213 000a 00BF     		.align	2
 214              	.L17:
 215 000c 002C0040 		.word	1073753088
 216              		.cfi_endproc
 217              	.LFE117:
 218              		.size	WWDG_Enable, .-WWDG_Enable
 219              		.section	.text.WWDG_GetFlagStatus,"ax",%progbits
 220              		.align	2
 221              		.p2align 4,,15
 222              		.global	WWDG_GetFlagStatus
 223              		.thumb
 224              		.thumb_func
 225              		.type	WWDG_GetFlagStatus, %function
 226              	WWDG_GetFlagStatus:
 227              	.LFB118:
 228              		.loc 1 271 0
ARM GAS  /tmp/ccWD2Hqw.s 			page 5


 229              		.cfi_startproc
 230              		@ args = 0, pretend = 0, frame = 0
 231              		@ frame_needed = 0, uses_anonymous_args = 0
 232              		@ link register save eliminated.
 233              	.LVL11:
 234              		.loc 1 274 0
 235 0000 024B     		ldr	r3, .L20
 236 0002 9868     		ldr	r0, [r3, #8]
 237              	.LVL12:
 238              		.loc 1 283 0
 239 0004 0030     		adds	r0, r0, #0
 240 0006 18BF     		it	ne
 241 0008 0120     		movne	r0, #1
 242              	.LVL13:
 243 000a 7047     		bx	lr
 244              	.L21:
 245              		.align	2
 246              	.L20:
 247 000c 002C0040 		.word	1073753088
 248              		.cfi_endproc
 249              	.LFE118:
 250              		.size	WWDG_GetFlagStatus, .-WWDG_GetFlagStatus
 251              		.section	.text.WWDG_ClearFlag,"ax",%progbits
 252              		.align	2
 253              		.p2align 4,,15
 254              		.global	WWDG_ClearFlag
 255              		.thumb
 256              		.thumb_func
 257              		.type	WWDG_ClearFlag, %function
 258              	WWDG_ClearFlag:
 259              	.LFB119:
 260              		.loc 1 291 0
 261              		.cfi_startproc
 262              		@ args = 0, pretend = 0, frame = 0
 263              		@ frame_needed = 0, uses_anonymous_args = 0
 264              		@ link register save eliminated.
 265              		.loc 1 292 0
 266 0000 014B     		ldr	r3, .L23
 267 0002 0022     		movs	r2, #0
 268 0004 9A60     		str	r2, [r3, #8]
 269 0006 7047     		bx	lr
 270              	.L24:
 271              		.align	2
 272              	.L23:
 273 0008 002C0040 		.word	1073753088
 274              		.cfi_endproc
 275              	.LFE119:
 276              		.size	WWDG_ClearFlag, .-WWDG_ClearFlag
 277              		.text
 278              	.Letext0:
 279              		.file 2 "/usr/arm-none-eabi/include/machine/_default_types.h"
 280              		.file 3 "/usr/arm-none-eabi/include/sys/_stdint.h"
 281              		.file 4 "ChibiOS_3.0.2/os/ext/CMSIS/ST/stm32f407xx.h"
 282              		.file 5 "ChibiOS_3.0.2/os/ext/CMSIS/ST/stm32f4xx.h"
 283              		.file 6 "ChibiOS_3.0.2/os/ext/CMSIS/include/core_cm4.h"
 284              		.file 7 "ChibiOS_3.0.2/ext/stdperiph_stm32f4/inc/stm32f4xx_rcc.h"