ARM GAS  /tmp/ccHJRDHv.s 			page 1


   1              		.syntax unified
   2              		.cpu cortex-m4
   3              		.eabi_attribute 27, 1
   4              		.eabi_attribute 28, 1
   5              		.fpu fpv4-sp-d16
   6              		.eabi_attribute 20, 1
   7              		.eabi_attribute 21, 1
   8              		.eabi_attribute 23, 3
   9              		.eabi_attribute 24, 1
  10              		.eabi_attribute 25, 1
  11              		.eabi_attribute 26, 1
  12              		.eabi_attribute 30, 2
  13              		.eabi_attribute 34, 1
  14              		.eabi_attribute 18, 4
  15              		.thumb
  16              		.file	"usb_lld.c"
  17              		.text
  18              	.Ltext0:
  19              		.cfi_sections	.debug_frame
  20              		.section	.text.usb_lld_pump,"ax",%progbits
  21              		.align	2
  22              		.p2align 4,,15
  23              		.global	usb_lld_pump
  24              		.thumb
  25              		.thumb_func
  26              		.type	usb_lld_pump, %function
  27              	usb_lld_pump:
  28              	.LFB292:
  29              		.file 1 "ChibiOS_3.0.2/os/hal/ports/STM32/LLD/OTGv1/usb_lld.c"
  30              		.loc 1 1294 0
  31              		.cfi_startproc
  32              		@ args = 0, pretend = 0, frame = 16
  33              		@ frame_needed = 0, uses_anonymous_args = 0
  34              	.LVL0:
  35 0000 2DE9F04F 		push	{r4, r5, r6, r7, r8, r9, r10, fp, lr}
  36              		.cfi_def_cfa_offset 36
  37              		.cfi_offset 4, -36
  38              		.cfi_offset 5, -32
  39              		.cfi_offset 6, -28
  40              		.cfi_offset 7, -24
  41              		.cfi_offset 8, -20
  42              		.cfi_offset 9, -16
  43              		.cfi_offset 10, -12
  44              		.cfi_offset 11, -8
  45              		.cfi_offset 14, -4
  46              	.LBB423:
  47              	.LBB424:
  48              		.file 2 "ChibiOS_3.0.2/os/rt/include/chregistry.h"
  49              		.loc 2 135 0
  50 0004 A74B     		ldr	r3, .L109
  51 0006 A84A     		ldr	r2, .L109+4
  52 0008 9B69     		ldr	r3, [r3, #24]
  53              	.LVL1:
  54              	.LBE424:
  55              	.LBE423:
  56              		.loc 1 1296 0
  57 000a D0F850A0 		ldr	r10, [r0, #80]
ARM GAS  /tmp/ccHJRDHv.s 			page 2


  58              	.LVL2:
  59              	.LBB426:
  60              	.LBB425:
  61              		.loc 2 135 0
  62 000e 9A61     		str	r2, [r3, #24]
  63              	.LBE425:
  64              	.LBE426:
  65              		.loc 1 1294 0
  66 0010 85B0     		sub	sp, sp, #20
  67              		.cfi_def_cfa_offset 56
  68              	.LBB427:
  69              	.LBB428:
  70              	.LBB429:
  71              	.LBB430:
  72              	.LBB431:
  73              		.file 3 "ChibiOS_3.0.2/os/ext/CMSIS/include/core_cmFunc.h"
  74              		.loc 3 342 0
  75              	@ 342 "ChibiOS_3.0.2/os/ext/CMSIS/include/core_cmFunc.h" 1
  76 0012 72B6     		cpsid i
  77              	@ 0 "" 2
  78              		.thumb
  79 0014 00F16003 		add	r3, r0, #96
  80 0018 D346     		mov	fp, r10
  81 001a 0393     		str	r3, [sp, #12]
  82 001c 8246     		mov	r10, r0
  83              	.LVL3:
  84              	.L56:
  85              	.LBE431:
  86              	.LBE430:
  87              	.LBE429:
  88              	.LBE428:
  89              	.LBE427:
  90              	.LBB432:
  91              		.loc 1 1307 0
  92 001e 9AF80030 		ldrb	r3, [r10]	@ zero_extendqisi2
  93 0022 012B     		cmp	r3, #1
  94 0024 06D0     		beq	.L2
  95              		.loc 1 1307 0 is_stmt 0 discriminator 1
  96 0026 DAF85C30 		ldr	r3, [r10, #92]
  97 002a 63B9     		cbnz	r3, .L3
  98              		.loc 1 1308 0 is_stmt 1
  99 002c DBF81430 		ldr	r3, [fp, #20]
 100 0030 DA06     		lsls	r2, r3, #27
 101 0032 08D4     		bmi	.L3
 102              	.L2:
 103              		.loc 1 1309 0
 104 0034 DBF81830 		ldr	r3, [fp, #24]
 105              	.LBB433:
 106              	.LBB434:
 107              		.file 4 "ChibiOS_3.0.2/os/hal/osal/rt/osal.h"
 108              		.loc 4 688 0
 109 0038 0398     		ldr	r0, [sp, #12]
 110              	.LBE434:
 111              	.LBE433:
 112              		.loc 1 1309 0
 113 003a 43F01003 		orr	r3, r3, #16
 114 003e CBF81830 		str	r3, [fp, #24]
ARM GAS  /tmp/ccHJRDHv.s 			page 3


 115              	.LBB436:
 116              	.LBB435:
 117              		.loc 4 688 0
 118 0042 FFF7FEFF 		bl	chThdSuspendS
 119              	.LVL4:
 120              	.L3:
 121              	.LBE435:
 122              	.LBE436:
 123              	.LBB437:
 124              	.LBB438:
 125              	.LBB439:
 126              	.LBB440:
 127              	.LBB441:
 128              	.LBB442:
 129              		.loc 3 331 0
 130              	@ 331 "ChibiOS_3.0.2/os/ext/CMSIS/include/core_cmFunc.h" 1
 131 0046 62B6     		cpsie i
 132              	@ 0 "" 2
 133              	.LVL5:
 134              		.thumb
 135 0048 4FF00008 		mov	r8, #0
 136              	.LVL6:
 137              	.L5:
 138              	.LBE442:
 139              	.LBE441:
 140              	.LBE440:
 141              	.LBE439:
 142              	.LBE438:
 143              	.LBE437:
 144              		.loc 1 1318 0
 145 004c DBF81430 		ldr	r3, [fp, #20]
 146 0050 DB06     		lsls	r3, r3, #27
 147 0052 23D5     		bpl	.L103
 148              	.L26:
 149              	.LVL7:
 150              	.LBB443:
 151              	.LBB444:
 152              		.loc 1 437 0
 153 0054 DAF85020 		ldr	r2, [r10, #80]
 154 0058 136A     		ldr	r3, [r2, #32]
 155              	.LVL8:
 156              		.loc 1 438 0
 157 005a 03F4F011 		and	r1, r3, #1966080
 158 005e B1F5802F 		cmp	r1, #262144
 159 0062 2ED0     		beq	.L6
 160 0064 B1F5402F 		cmp	r1, #786432
 161 0068 F0D1     		bne	.L5
 162              	.LVL9:
 163              		.loc 1 443 0
 164 006a 03F00F01 		and	r1, r3, #15
 165              	.LVL10:
 166              		.loc 1 444 0
 167 006e 0AEB8101 		add	r1, r10, r1, lsl #2
 168              	.LVL11:
 169              		.loc 1 442 0
 170 0072 C3F30A13 		ubfx	r3, r3, #4, #11
 171              	.LVL12:
ARM GAS  /tmp/ccHJRDHv.s 			page 4


 172              		.loc 1 444 0
 173 0076 C968     		ldr	r1, [r1, #12]
 174              	.LBB445:
 175              	.LBB446:
 176              		.loc 1 356 0
 177 0078 0333     		adds	r3, r3, #3
 178              		.loc 1 358 0
 179 007a 9B08     		lsrs	r3, r3, #2
 180              	.LBE446:
 181              	.LBE445:
 182              		.loc 1 444 0
 183 007c 0C6A     		ldr	r4, [r1, #32]
 184              	.LVL13:
 185              	.LBB449:
 186              	.LBB448:
 187              		.loc 1 358 0
 188 007e E5D0     		beq	.L5
 189 0080 02F58052 		add	r2, r2, #4096
 190              	.LVL14:
 191 0084 0221     		movs	r1, #2
 192              	.LVL15:
 193              	.L11:
 194              	.LBB447:
 195              		.loc 1 359 0
 196 0086 1068     		ldr	r0, [r2]
 197              	.LVL16:
 198              		.loc 1 360 0
 199 0088 11B1     		cbz	r1, .L10
 200              		.loc 1 363 0
 201 008a 44F8040B 		str	r0, [r4], #4
 202              	.LVL17:
 203              		.loc 1 365 0
 204 008e 0139     		subs	r1, r1, #1
 205              	.LVL18:
 206              	.L10:
 207              	.LBE447:
 208              		.loc 1 358 0
 209 0090 013B     		subs	r3, r3, #1
 210              	.LVL19:
 211 0092 F8D1     		bne	.L11
 212              	.LBE448:
 213              	.LBE449:
 214              	.LBE444:
 215              	.LBE443:
 216              		.loc 1 1318 0
 217 0094 DBF81430 		ldr	r3, [fp, #20]
 218              	.LVL20:
 219 0098 DB06     		lsls	r3, r3, #27
 220 009a DBD4     		bmi	.L26
 221              	.LVL21:
 222              	.L103:
 223              		.loc 1 1322 0
 224 009c 0122     		movs	r2, #1
 225              		.loc 1 1323 0
 226 009e DAF85C30 		ldr	r3, [r10, #92]
 227              		.loc 1 1322 0
 228 00a2 02FA08F2 		lsl	r2, r2, r8
ARM GAS  /tmp/ccHJRDHv.s 			page 5


 229              		.loc 1 1323 0
 230 00a6 1A42     		tst	r2, r3
 231              		.loc 1 1322 0
 232 00a8 0192     		str	r2, [sp, #4]
 233              	.LVL22:
 234              		.loc 1 1323 0
 235 00aa 62D1     		bne	.L97
 236 00ac 08F10108 		add	r8, r8, #1
 237              	.LVL23:
 238              	.L27:
 239              		.loc 1 1315 0 discriminator 2
 240 00b0 DAF85430 		ldr	r3, [r10, #84]
 241 00b4 9B68     		ldr	r3, [r3, #8]
 242 00b6 5FFA88F8 		uxtb	r8, r8
 243              	.LVL24:
 244 00ba 9845     		cmp	r8, r3
 245 00bc C6D9     		bls	.L5
 246              	.LBB477:
 247              	.LBB478:
 248              	.LBB479:
 249              	.LBB480:
 250              	.LBB481:
 251              		.loc 3 342 0
 252              	@ 342 "ChibiOS_3.0.2/os/ext/CMSIS/include/core_cmFunc.h" 1
 253 00be 72B6     		cpsid i
 254              	@ 0 "" 2
 255              		.thumb
 256 00c0 ADE7     		b	.L56
 257              	.LVL25:
 258              	.L6:
 259              	.LBE481:
 260              	.LBE480:
 261              	.LBE479:
 262              	.LBE478:
 263              	.LBE477:
 264              	.LBB482:
 265              	.LBB476:
 266              		.loc 1 449 0
 267 00c2 03F00F05 		and	r5, r3, #15
 268 00c6 0AEB8505 		add	r5, r10, r5, lsl #2
 269              		.loc 1 448 0
 270 00ca C3F30A14 		ubfx	r4, r3, #4, #11
 271              	.LVL26:
 272              		.loc 1 450 0
 273 00ce EB68     		ldr	r3, [r5, #12]
 274              	.LVL27:
 275 00d0 9869     		ldr	r0, [r3, #24]
 276 00d2 0378     		ldrb	r3, [r0]	@ zero_extendqisi2
 277 00d4 DBB9     		cbnz	r3, .L104
 278 00d6 4368     		ldr	r3, [r0, #4]
 279              	.LBB450:
 280              	.LBB451:
 281              		.loc 1 357 0
 282 00d8 8168     		ldr	r1, [r0, #8]
 283              	.LBE451:
 284              	.LBE450:
 285              		.loc 1 457 0
ARM GAS  /tmp/ccHJRDHv.s 			page 6


 286 00da C668     		ldr	r6, [r0, #12]
 287              	.LVL28:
 288 00dc 0333     		adds	r3, r3, #3
 289              	.LVL29:
 290              	.LBB454:
 291              	.LBB453:
 292              		.loc 1 357 0
 293 00de 591A     		subs	r1, r3, r1
 294              	.LVL30:
 295              		.loc 1 356 0
 296 00e0 E31C     		adds	r3, r4, #3
 297              	.LVL31:
 298              		.loc 1 358 0
 299 00e2 9B08     		lsrs	r3, r3, #2
 300              		.loc 1 357 0
 301 00e4 4FEA9101 		lsr	r1, r1, #2
 302              	.LVL32:
 303              		.loc 1 358 0
 304 00e8 09D0     		beq	.L25
 305 00ea 02F58052 		add	r2, r2, #4096
 306              	.LVL33:
 307 00ee B646     		mov	lr, r6
 308              	.LVL34:
 309              	.L24:
 310              	.LBB452:
 311              		.loc 1 359 0
 312 00f0 1768     		ldr	r7, [r2]
 313              	.LVL35:
 314              		.loc 1 360 0
 315 00f2 11B1     		cbz	r1, .L23
 316              		.loc 1 363 0
 317 00f4 4EF8047B 		str	r7, [lr], #4
 318              	.LVL36:
 319              		.loc 1 365 0
 320 00f8 0139     		subs	r1, r1, #1
 321              	.LVL37:
 322              	.L23:
 323              	.LBE452:
 324              		.loc 1 358 0
 325 00fa 013B     		subs	r3, r3, #1
 326              	.LVL38:
 327 00fc F8D1     		bne	.L24
 328              	.LVL39:
 329              	.L25:
 330              	.LBE453:
 331              	.LBE454:
 332              		.loc 1 462 0
 333 00fe 2644     		add	r6, r6, r4
 334 0100 C660     		str	r6, [r0, #12]
 335              	.LVL40:
 336              	.L21:
 337              		.loc 1 464 0
 338 0102 EB68     		ldr	r3, [r5, #12]
 339 0104 9A69     		ldr	r2, [r3, #24]
 340 0106 9368     		ldr	r3, [r2, #8]
 341 0108 2344     		add	r3, r3, r4
 342 010a 9360     		str	r3, [r2, #8]
ARM GAS  /tmp/ccHJRDHv.s 			page 7


 343 010c 9EE7     		b	.L5
 344              	.L104:
 345              		.loc 1 452 0
 346 010e C068     		ldr	r0, [r0, #12]
 347              	.LVL41:
 348              	.LBB455:
 349              	.LBB456:
 350              		.loc 1 386 0
 351 0110 24B3     		cbz	r4, .L14
 352 0112 02F58052 		add	r2, r2, #4096
 353              	.LVL42:
 354 0116 2646     		mov	r6, r4
 355              	.LVL43:
 356              	.L15:
 357              	.LBB457:
 358              		.loc 1 390 0
 359 0118 032E     		cmp	r6, #3
 360              	.LBB458:
 361              		.loc 1 395 0
 362 011a 4169     		ldr	r1, [r0, #20]
 363              	.LBE458:
 364              		.loc 1 390 0
 365 011c 07D9     		bls	.L17
 366              	.LVL44:
 367              	.L105:
 368              	.LBB459:
 369              		.loc 1 396 0
 370 011e 0369     		ldr	r3, [r0, #16]
 371 0120 9942     		cmp	r1, r3
 372 0122 04D3     		bcc	.L17
 373              		.loc 1 397 0
 374 0124 C368     		ldr	r3, [r0, #12]
 375 0126 4361     		str	r3, [r0, #20]
 376              	.LVL45:
 377              	.LBE459:
 378              		.loc 1 390 0
 379 0128 032E     		cmp	r6, #3
 380              	.LBB460:
 381              		.loc 1 395 0
 382 012a 4169     		ldr	r1, [r0, #20]
 383              	.LVL46:
 384              	.LBE460:
 385              		.loc 1 390 0
 386 012c F7D8     		bhi	.L105
 387              	.LVL47:
 388              	.L17:
 389              		.loc 1 408 0
 390 012e D2F800E0 		ldr	lr, [r2]
 391              	.LVL48:
 392 0132 0027     		movs	r7, #0
 393              	.LVL49:
 394              	.L20:
 395              		.loc 1 411 0
 396 0134 01F1010C 		add	ip, r1, #1
 397 0138 2EFA07F3 		lsr	r3, lr, r7
 398 013c C0F814C0 		str	ip, [r0, #20]
 399 0140 0B70     		strb	r3, [r1]
ARM GAS  /tmp/ccHJRDHv.s 			page 8


 400              		.loc 1 412 0
 401 0142 0369     		ldr	r3, [r0, #16]
 402 0144 4169     		ldr	r1, [r0, #20]
 403 0146 9942     		cmp	r1, r3
 404              		.loc 1 413 0
 405 0148 24BF     		itt	cs
 406 014a C368     		ldrcs	r3, [r0, #12]
 407 014c 4361     		strcs	r3, [r0, #20]
 408              		.loc 1 410 0
 409 014e 013E     		subs	r6, r6, #1
 410              	.LVL50:
 411 0150 04D0     		beq	.L14
 412 0152 182F     		cmp	r7, #24
 413 0154 E0D0     		beq	.L15
 414 0156 0837     		adds	r7, r7, #8
 415 0158 4169     		ldr	r1, [r0, #20]
 416 015a EBE7     		b	.L20
 417              	.LVL51:
 418              	.L14:
 419              	.LBE457:
 420              	.LBB461:
 421              	.LBB462:
 422              	.LBB463:
 423              	.LBB464:
 424              	.LBB465:
 425              		.loc 3 342 0
 426              	@ 342 "ChibiOS_3.0.2/os/ext/CMSIS/include/core_cmFunc.h" 1
 427 015c 72B6     		cpsid i
 428              	@ 0 "" 2
 429              		.thumb
 430              	.LBE465:
 431              	.LBE464:
 432              	.LBE463:
 433              	.LBE462:
 434              	.LBE461:
 435              		.loc 1 421 0
 436 015e 8368     		ldr	r3, [r0, #8]
 437 0160 2344     		add	r3, r3, r4
 438 0162 8360     		str	r3, [r0, #8]
 439              	.LVL52:
 440              	.LBB466:
 441              	.LBB467:
 442              		.loc 4 810 0
 443 0164 0021     		movs	r1, #0
 444 0166 FFF7FEFF 		bl	chThdDequeueAllI
 445              	.LVL53:
 446              	.LBE467:
 447              	.LBE466:
 448              	.LBB468:
 449              	.LBB469:
 450              		.loc 4 600 0
 451 016a FFF7FEFF 		bl	chSchRescheduleS
 452              	.LVL54:
 453              	.LBE469:
 454              	.LBE468:
 455              	.LBB470:
 456              	.LBB471:
ARM GAS  /tmp/ccHJRDHv.s 			page 9


 457              	.LBB472:
 458              	.LBB473:
 459              	.LBB474:
 460              	.LBB475:
 461              		.loc 3 331 0
 462              	@ 331 "ChibiOS_3.0.2/os/ext/CMSIS/include/core_cmFunc.h" 1
 463 016e 62B6     		cpsie i
 464              	@ 0 "" 2
 465              		.thumb
 466 0170 C7E7     		b	.L21
 467              	.LVL55:
 468              	.L97:
 469              	.LBE475:
 470              	.LBE474:
 471              	.LBE473:
 472              	.LBE472:
 473              	.LBE471:
 474              	.LBE470:
 475              	.LBE456:
 476              	.LBE455:
 477              	.LBE476:
 478              	.LBE482:
 479              	.LBB483:
 480              	.LBB484:
 481              	.LBB485:
 482              	.LBB486:
 483              	.LBB487:
 484              	.LBB488:
 485              		.loc 3 342 0
 486              	@ 342 "ChibiOS_3.0.2/os/ext/CMSIS/include/core_cmFunc.h" 1
 487 0172 72B6     		cpsid i
 488              	@ 0 "" 2
 489              		.thumb
 490              	.LBE488:
 491              	.LBE487:
 492              	.LBE486:
 493              	.LBE485:
 494              	.LBE484:
 495              		.loc 1 1334 0
 496 0174 DBF80820 		ldr	r2, [fp, #8]
 497              	.LVL56:
 498              		.loc 1 1335 0
 499 0178 DAF85C30 		ldr	r3, [r10, #92]
 500 017c 0199     		ldr	r1, [sp, #4]
 501              		.loc 1 1334 0
 502 017e 22F00102 		bic	r2, r2, #1
 503              		.loc 1 1335 0
 504 0182 23EA0103 		bic	r3, r3, r1
 505              		.loc 1 1334 0
 506 0186 CBF80820 		str	r2, [fp, #8]
 507              		.loc 1 1335 0
 508 018a CAF85C30 		str	r3, [r10, #92]
 509              	.LBB489:
 510              	.LBB490:
 511              	.LBB491:
 512              	.LBB492:
 513              	.LBB493:
ARM GAS  /tmp/ccHJRDHv.s 			page 10


 514              	.LBB494:
 515              		.loc 3 331 0
 516              	@ 331 "ChibiOS_3.0.2/os/ext/CMSIS/include/core_cmFunc.h" 1
 517 018e 62B6     		cpsie i
 518              	@ 0 "" 2
 519              	.LVL57:
 520              		.thumb
 521 0190 0AEB8809 		add	r9, r10, r8, lsl #2
 522              	.LBE494:
 523              	.LBE493:
 524              	.LBE492:
 525              	.LBE491:
 526              	.LBE490:
 527              	.LBE489:
 528              	.LBB495:
 529              	.LBB496:
 530              		.loc 1 488 0
 531 0194 D9F80C00 		ldr	r0, [r9, #12]
 532 0198 4169     		ldr	r1, [r0, #20]
 533 019a 8A68     		ldr	r2, [r1, #8]
 534 019c 4B68     		ldr	r3, [r1, #4]
 535 019e 9A42     		cmp	r2, r3
 536 01a0 80F0A980 		bcs	.L106
 537              		.loc 1 498 0
 538 01a4 DAF85060 		ldr	r6, [r10, #80]
 539              		.loc 1 493 0
 540 01a8 078A     		ldrh	r7, [r0, #16]
 541              		.loc 1 498 0
 542 01aa 4FEA4810 		lsl	r0, r8, #5
 543 01ae 0446     		mov	r4, r0
 544 01b0 3018     		adds	r0, r6, r0
 545              		.loc 1 492 0
 546 01b2 9B1A     		subs	r3, r3, r2
 547              	.LVL58:
 548              		.loc 1 498 0
 549 01b4 D0F81829 		ldr	r2, [r0, #2328]
 550 01b8 9F42     		cmp	r7, r3
 551 01ba 28BF     		it	cs
 552 01bc 1F46     		movcs	r7, r3
 553              	.LVL59:
 554 01be 93B2     		uxth	r3, r2
 555 01c0 B7EB830F 		cmp	r7, r3, lsl #2
 556 01c4 08F10108 		add	r8, r8, #1
 557              	.LVL60:
 558 01c8 2ED8     		bhi	.L31
 559 01ca CDF808B0 		str	fp, [sp, #8]
 560 01ce A346     		mov	fp, r4
 561              	.L32:
 562              		.loc 1 505 0
 563 01d0 0B78     		ldrb	r3, [r1]	@ zero_extendqisi2
 564 01d2 002B     		cmp	r3, #0
 565 01d4 39D1     		bne	.L107
 566              	.LBB497:
 567              	.LBB498:
 568              		.loc 1 256 0
 569 01d6 FB1C     		adds	r3, r7, #3
 570              	.LBE498:
ARM GAS  /tmp/ccHJRDHv.s 			page 11


 571              	.LBE497:
 572              		.loc 1 513 0
 573 01d8 CC68     		ldr	r4, [r1, #12]
 574              	.LBB505:
 575              	.LBB503:
 576              	.LBB499:
 577              	.LBB500:
 578              		.loc 1 233 0
 579 01da 9B08     		lsrs	r3, r3, #2
 580              	.LBE500:
 581              	.LBE499:
 582              	.LBE503:
 583              	.LBE505:
 584              		.loc 1 513 0
 585 01dc 06EB0836 		add	r6, r6, r8, lsl #12
 586              	.LVL61:
 587              	.LBB506:
 588              	.LBB504:
 589              	.LBB502:
 590              	.LBB501:
 591              		.loc 1 233 0
 592 01e0 18BF     		it	ne
 593 01e2 2246     		movne	r2, r4
 594 01e4 04D0     		beq	.L50
 595              	.LVL62:
 596              	.L49:
 597              		.loc 1 236 0
 598 01e6 52F8040B 		ldr	r0, [r2], #4
 599              	.LVL63:
 600 01ea 3060     		str	r0, [r6]
 601              	.LVL64:
 602              		.loc 1 233 0
 603 01ec 013B     		subs	r3, r3, #1
 604              	.LVL65:
 605 01ee FAD1     		bne	.L49
 606              	.LVL66:
 607              	.L50:
 608              	.LBE501:
 609              	.LBE502:
 610              	.LBE504:
 611              	.LBE506:
 612              		.loc 1 516 0
 613 01f0 3C44     		add	r4, r4, r7
 614              	.LVL67:
 615 01f2 CC60     		str	r4, [r1, #12]
 616              	.LVL68:
 617              	.L35:
 618              		.loc 1 521 0
 619 01f4 D9F80C00 		ldr	r0, [r9, #12]
 620 01f8 4169     		ldr	r1, [r0, #20]
 621 01fa 8B68     		ldr	r3, [r1, #8]
 622              		.loc 1 488 0
 623 01fc 4A68     		ldr	r2, [r1, #4]
 624              		.loc 1 521 0
 625 01fe 3B44     		add	r3, r3, r7
 626              		.loc 1 488 0
 627 0200 9A42     		cmp	r2, r3
ARM GAS  /tmp/ccHJRDHv.s 			page 12


 628              		.loc 1 521 0
 629 0202 8B60     		str	r3, [r1, #8]
 630              		.loc 1 488 0
 631 0204 73D9     		bls	.L108
 632              		.loc 1 498 0
 633 0206 DAF85060 		ldr	r6, [r10, #80]
 634              		.loc 1 493 0
 635 020a 008A     		ldrh	r0, [r0, #16]
 636              		.loc 1 498 0
 637 020c 06EB0B04 		add	r4, r6, fp
 638              		.loc 1 492 0
 639 0210 D71A     		subs	r7, r2, r3
 640              	.LVL69:
 641              		.loc 1 498 0
 642 0212 D4F81839 		ldr	r3, [r4, #2328]
 643 0216 8742     		cmp	r7, r0
 644 0218 28BF     		it	cs
 645 021a 0746     		movcs	r7, r0
 646              	.LVL70:
 647 021c 9BB2     		uxth	r3, r3
 648 021e B7EB830F 		cmp	r7, r3, lsl #2
 649 0222 D5D9     		bls	.L32
 650 0224 DDF808B0 		ldr	fp, [sp, #8]
 651              	.L31:
 652              		.loc 1 499 0
 653 0228 0022     		movs	r2, #0
 654              	.LVL71:
 655              	.L29:
 656              	.LBE496:
 657              	.LBE495:
 658              	.LBB531:
 659              	.LBB532:
 660              	.LBB533:
 661              	.LBB534:
 662              	.LBB535:
 663              		.loc 3 342 0
 664              	@ 342 "ChibiOS_3.0.2/os/ext/CMSIS/include/core_cmFunc.h" 1
 665 022a 72B6     		cpsid i
 666              	@ 0 "" 2
 667              		.thumb
 668              	.LBE535:
 669              	.LBE534:
 670              	.LBE533:
 671              	.LBE532:
 672              	.LBE531:
 673              		.loc 1 1341 0
 674 022c DBF80830 		ldr	r3, [fp, #8]
 675 0230 43F00103 		orr	r3, r3, #1
 676 0234 CBF80830 		str	r3, [fp, #8]
 677              		.loc 1 1342 0
 678 0238 2AB9     		cbnz	r2, .L53
 679              		.loc 1 1343 0
 680 023a DBF83438 		ldr	r3, [fp, #2100]
 681 023e 019A     		ldr	r2, [sp, #4]
 682 0240 1A43     		orrs	r2, r2, r3
 683 0242 CBF83428 		str	r2, [fp, #2100]
 684              	.L53:
ARM GAS  /tmp/ccHJRDHv.s 			page 13


 685              	.LBB536:
 686              	.LBB537:
 687              	.LBB538:
 688              	.LBB539:
 689              	.LBB540:
 690              	.LBB541:
 691              		.loc 3 331 0
 692              	@ 331 "ChibiOS_3.0.2/os/ext/CMSIS/include/core_cmFunc.h" 1
 693 0246 62B6     		cpsie i
 694              	@ 0 "" 2
 695              		.thumb
 696 0248 32E7     		b	.L27
 697              	.LVL72:
 698              	.L107:
 699              	.LBE541:
 700              	.LBE540:
 701              	.LBE539:
 702              	.LBE538:
 703              	.LBE537:
 704              	.LBE536:
 705              	.LBB542:
 706              	.LBB530:
 707              		.loc 1 507 0
 708 024a 06EB0836 		add	r6, r6, r8, lsl #12
 709 024e C868     		ldr	r0, [r1, #12]
 710              	.LVL73:
 711              	.LBB507:
 712              	.LBB508:
 713              		.loc 1 274 0
 714 0250 E7B1     		cbz	r7, .L43
 715 0252 D0F810E0 		ldr	lr, [r0, #16]
 716 0256 3A46     		mov	r2, r7
 717              	.LVL74:
 718              	.L47:
 719              	.LBB509:
 720              		.loc 1 278 0
 721 0258 9308     		lsrs	r3, r2, #2
 722              	.LVL75:
 723 025a 27D1     		bne	.L36
 724 025c 8369     		ldr	r3, [r0, #24]
 725              	.LVL76:
 726              	.L37:
 727              		.loc 1 292 0
 728 025e 0021     		movs	r1, #0
 729 0260 0C46     		mov	r4, r1
 730              	.LVL77:
 731              	.L46:
 732              		.loc 1 299 0
 733 0262 5D1C     		adds	r5, r3, #1
 734 0264 8561     		str	r5, [r0, #24]
 735 0266 1B78     		ldrb	r3, [r3]	@ zero_extendqisi2
 736              		.loc 1 300 0
 737 0268 7545     		cmp	r5, lr
 738              		.loc 1 299 0
 739 026a 03FA01F3 		lsl	r3, r3, r1
 740 026e 44EA0304 		orr	r4, r4, r3
 741              	.LVL78:
ARM GAS  /tmp/ccHJRDHv.s 			page 14


 742              		.loc 1 301 0
 743 0272 24BF     		itt	cs
 744 0274 C368     		ldrcs	r3, [r0, #12]
 745 0276 8361     		strcs	r3, [r0, #24]
 746              		.loc 1 298 0
 747 0278 013A     		subs	r2, r2, #1
 748              	.LVL79:
 749 027a 04D0     		beq	.L45
 750 027c 1829     		cmp	r1, #24
 751 027e 02D0     		beq	.L45
 752 0280 0831     		adds	r1, r1, #8
 753 0282 8369     		ldr	r3, [r0, #24]
 754 0284 EDE7     		b	.L46
 755              	.L45:
 756              		.loc 1 305 0
 757 0286 3460     		str	r4, [r6]
 758              	.LBE509:
 759              		.loc 1 274 0
 760 0288 002A     		cmp	r2, #0
 761 028a E5D1     		bne	.L47
 762              	.LVL80:
 763              	.L43:
 764              	.LBB513:
 765              	.LBB514:
 766              	.LBB515:
 767              	.LBB516:
 768              	.LBB517:
 769              		.loc 3 342 0
 770              	@ 342 "ChibiOS_3.0.2/os/ext/CMSIS/include/core_cmFunc.h" 1
 771 028c 72B6     		cpsid i
 772              	@ 0 "" 2
 773              		.thumb
 774              	.LBE517:
 775              	.LBE516:
 776              	.LBE515:
 777              	.LBE514:
 778              	.LBE513:
 779              		.loc 1 310 0
 780 028e 8368     		ldr	r3, [r0, #8]
 781 0290 3B44     		add	r3, r3, r7
 782 0292 8360     		str	r3, [r0, #8]
 783              	.LVL81:
 784              	.LBB518:
 785              	.LBB519:
 786              		.loc 4 810 0
 787 0294 0021     		movs	r1, #0
 788 0296 FFF7FEFF 		bl	chThdDequeueAllI
 789              	.LVL82:
 790              	.LBE519:
 791              	.LBE518:
 792              	.LBB520:
 793              	.LBB521:
 794              		.loc 4 600 0
 795 029a FFF7FEFF 		bl	chSchRescheduleS
 796              	.LVL83:
 797              	.LBE521:
 798              	.LBE520:
ARM GAS  /tmp/ccHJRDHv.s 			page 15


 799              	.LBB522:
 800              	.LBB523:
 801              	.LBB524:
 802              	.LBB525:
 803              	.LBB526:
 804              	.LBB527:
 805              		.loc 3 331 0
 806              	@ 331 "ChibiOS_3.0.2/os/ext/CMSIS/include/core_cmFunc.h" 1
 807 029e 62B6     		cpsie i
 808              	@ 0 "" 2
 809              		.thumb
 810 02a0 A8E7     		b	.L35
 811              	.L110:
 812 02a2 00BF     		.align	2
 813              	.L109:
 814 02a4 00000000 		.word	ch
 815 02a8 00000000 		.word	.LC0
 816              	.LVL84:
 817              	.L36:
 818              	.LBE527:
 819              	.LBE526:
 820              	.LBE525:
 821              	.LBE524:
 822              	.LBE523:
 823              	.LBE522:
 824              	.LBB528:
 825              	.LBB510:
 826              		.loc 1 280 0
 827 02ac 8469     		ldr	r4, [r0, #24]
 828              	.LVL85:
 829 02ae BEEB0401 		subs	r1, lr, r4
 830 02b2 48BF     		it	mi
 831 02b4 0331     		addmi	r1, r1, #3
 832 02b6 8910     		asrs	r1, r1, #2
 833              		.loc 1 282 0
 834 02b8 8B42     		cmp	r3, r1
 835 02ba 28BF     		it	cs
 836 02bc 0B46     		movcs	r3, r1
 837              	.LVL86:
 838 02be 4FEA830C 		lsl	ip, r3, #2
 839 02c2 CCEB0202 		rsb	r2, ip, r2
 840              	.LVL87:
 841              	.LBB511:
 842              	.LBB512:
 843              		.loc 1 233 0
 844 02c6 33B1     		cbz	r3, .L39
 845 02c8 2146     		mov	r1, r4
 846              	.LVL88:
 847              	.L40:
 848              		.loc 1 236 0
 849 02ca 51F8045B 		ldr	r5, [r1], #4
 850              	.LVL89:
 851 02ce 3560     		str	r5, [r6]
 852              	.LVL90:
 853              		.loc 1 233 0
 854 02d0 013B     		subs	r3, r3, #1
 855              	.LVL91:
ARM GAS  /tmp/ccHJRDHv.s 			page 16


 856 02d2 FAD1     		bne	.L40
 857 02d4 6444     		add	r4, r4, ip
 858              	.LVL92:
 859              	.L39:
 860              	.LBE512:
 861              	.LBE511:
 862              		.loc 1 284 0
 863 02d6 A645     		cmp	lr, r4
 864              		.loc 1 283 0
 865 02d8 8461     		str	r4, [r0, #24]
 866              	.LVL93:
 867              		.loc 1 284 0
 868 02da 04D8     		bhi	.L41
 869              		.loc 1 285 0
 870 02dc C368     		ldr	r3, [r0, #12]
 871              	.LVL94:
 872 02de 8361     		str	r3, [r0, #24]
 873              	.LBE510:
 874              	.LBE528:
 875              		.loc 1 274 0
 876 02e0 002A     		cmp	r2, #0
 877 02e2 B9D1     		bne	.L47
 878 02e4 D2E7     		b	.L43
 879              	.LVL95:
 880              	.L41:
 881              	.LBB529:
 882              		.loc 1 292 0
 883 02e6 002A     		cmp	r2, #0
 884 02e8 D0D0     		beq	.L43
 885 02ea 2346     		mov	r3, r4
 886              	.LVL96:
 887 02ec B7E7     		b	.L37
 888              	.LVL97:
 889              	.L108:
 890 02ee DDF808B0 		ldr	fp, [sp, #8]
 891              	.LVL98:
 892              	.L51:
 893              	.LBE529:
 894              	.LBE508:
 895              	.LBE507:
 896              		.loc 1 489 0
 897 02f2 0122     		movs	r2, #1
 898 02f4 99E7     		b	.L29
 899              	.LVL99:
 900              	.L106:
 901 02f6 08F10108 		add	r8, r8, #1
 902              	.LVL100:
 903 02fa FAE7     		b	.L51
 904              	.LBE530:
 905              	.LBE542:
 906              	.LBE483:
 907              	.LBE432:
 908              		.cfi_endproc
 909              	.LFE292:
 910              		.size	usb_lld_pump, .-usb_lld_pump
 911              		.section	.text.otg_disable_ep.isra.0,"ax",%progbits
 912              		.align	2
ARM GAS  /tmp/ccHJRDHv.s 			page 17


 913              		.p2align 4,,15
 914              		.thumb
 915              		.thumb_func
 916              		.type	otg_disable_ep.isra.0, %function
 917              	otg_disable_ep.isra.0:
 918              	.LFB293:
 919              		.loc 1 132 0
 920              		.cfi_startproc
 921              		@ args = 0, pretend = 0, frame = 0
 922              		@ frame_needed = 0, uses_anonymous_args = 0
 923              	.LVL101:
 924 0000 F0B5     		push	{r4, r5, r6, r7, lr}
 925              		.cfi_def_cfa_offset 20
 926              		.cfi_offset 4, -20
 927              		.cfi_offset 5, -16
 928              		.cfi_offset 6, -12
 929              		.cfi_offset 7, -8
 930              		.cfi_offset 14, -4
 931              		.loc 1 136 0
 932 0002 0024     		movs	r4, #0
 933              	.LVL102:
 934 0004 D1F808E0 		ldr	lr, [r1, #8]
 935              		.loc 1 147 0
 936 0008 2546     		mov	r5, r4
 937              		.loc 1 141 0
 938 000a 4FF0804C 		mov	ip, #1073741824
 939              		.loc 1 149 0
 940 000e 4FF0FF37 		mov	r7, #-1
 941 0012 14E0     		b	.L118
 942              	.LVL103:
 943              	.L112:
 944              		.loc 1 147 0
 945 0014 C1F80059 		str	r5, [r1, #2304]
 946              	.L114:
 947              		.loc 1 148 0
 948 0018 C218     		adds	r2, r0, r3
 949 001a C2F81059 		str	r5, [r2, #2320]
 950              		.loc 1 149 0
 951 001e C2F80879 		str	r7, [r2, #2312]
 952              		.loc 1 155 0
 953 0022 D1F8006B 		ldr	r6, [r1, #2816]
 954 0026 002E     		cmp	r6, #0
 955 0028 17DB     		blt	.L125
 956              		.loc 1 162 0
 957 002a C1F8005B 		str	r5, [r1, #2816]
 958              	.L117:
 959              		.loc 1 163 0
 960 002e 0344     		add	r3, r3, r0
 961              		.loc 1 136 0
 962 0030 0134     		adds	r4, r4, #1
 963              	.LVL104:
 964 0032 A645     		cmp	lr, r4
 965              		.loc 1 163 0
 966 0034 C3F8105B 		str	r5, [r3, #2832]
 967              		.loc 1 164 0
 968 0038 C3F8087B 		str	r7, [r3, #2824]
 969              		.loc 1 136 0
ARM GAS  /tmp/ccHJRDHv.s 			page 18


 970 003c 14D3     		bcc	.L126
 971              	.LVL105:
 972              	.L118:
 973 003e 6301     		lsls	r3, r4, #5
 974 0040 C118     		adds	r1, r0, r3
 975              		.loc 1 140 0
 976 0042 D1F80029 		ldr	r2, [r1, #2304]
 977 0046 002A     		cmp	r2, #0
 978 0048 E4DA     		bge	.L112
 979              		.loc 1 141 0
 980 004a C1F800C9 		str	ip, [r1, #2304]
 981              		.loc 1 143 0
 982 004e 0E46     		mov	r6, r1
 983              	.L113:
 984 0050 D6F80829 		ldr	r2, [r6, #2312]
 985 0054 9207     		lsls	r2, r2, #30
 986 0056 FBD5     		bpl	.L113
 987 0058 DEE7     		b	.L114
 988              	.L125:
 989              		.loc 1 156 0
 990 005a C1F800CB 		str	ip, [r1, #2816]
 991              	.L116:
 992              		.loc 1 158 0
 993 005e D2F8081B 		ldr	r1, [r2, #2824]
 994 0062 C906     		lsls	r1, r1, #27
 995 0064 FBD5     		bpl	.L116
 996 0066 E2E7     		b	.L117
 997              	.L126:
 998              		.loc 1 166 0
 999 0068 4FF00113 		mov	r3, #65537
 1000 006c C0F81C38 		str	r3, [r0, #2076]
 1001 0070 F0BD     		pop	{r4, r5, r6, r7, pc}
 1002              		.cfi_endproc
 1003              	.LFE293:
 1004              		.size	otg_disable_ep.isra.0, .-otg_disable_ep.isra.0
 1005 0072 00BF     		.section	.text.usb_lld_init,"ax",%progbits
 1006              		.align	2
 1007              		.p2align 4,,15
 1008              		.global	usb_lld_init
 1009              		.thumb
 1010              		.thumb_func
 1011              		.type	usb_lld_init, %function
 1012              	usb_lld_init:
 1013              	.LFB274:
 1014              		.loc 1 744 0
 1015              		.cfi_startproc
 1016              		@ args = 0, pretend = 0, frame = 0
 1017              		@ frame_needed = 0, uses_anonymous_args = 0
 1018 0000 10B5     		push	{r4, lr}
 1019              		.cfi_def_cfa_offset 8
 1020              		.cfi_offset 4, -8
 1021              		.cfi_offset 14, -4
 1022              		.loc 1 748 0
 1023 0002 064C     		ldr	r4, .L129
 1024 0004 2046     		mov	r0, r4
 1025 0006 FFF7FEFF 		bl	usbObjectInit
 1026              	.LVL106:
ARM GAS  /tmp/ccHJRDHv.s 			page 19


 1027              		.loc 1 750 0
 1028 000a 4FF0A043 		mov	r3, #1342177280
 1029              		.loc 1 751 0
 1030 000e 044A     		ldr	r2, .L129+4
 1031              		.loc 1 750 0
 1032 0010 2365     		str	r3, [r4, #80]
 1033              		.loc 1 749 0
 1034 0012 0023     		movs	r3, #0
 1035              		.loc 1 751 0
 1036 0014 6265     		str	r2, [r4, #84]
 1037              		.loc 1 749 0
 1038 0016 2366     		str	r3, [r4, #96]
 1039              		.loc 1 754 0
 1040 0018 6366     		str	r3, [r4, #100]
 1041 001a 10BD     		pop	{r4, pc}
 1042              	.L130:
 1043              		.align	2
 1044              	.L129:
 1045 001c 00000000 		.word	.LANCHOR0
 1046 0020 00000000 		.word	.LANCHOR1
 1047              		.cfi_endproc
 1048              	.LFE274:
 1049              		.size	usb_lld_init, .-usb_lld_init
 1050              		.section	.text.usb_lld_start,"ax",%progbits
 1051              		.align	2
 1052              		.p2align 4,,15
 1053              		.global	usb_lld_start
 1054              		.thumb
 1055              		.thumb_func
 1056              		.type	usb_lld_start, %function
 1057              	usb_lld_start:
 1058              	.LFB275:
 1059              		.loc 1 806 0
 1060              		.cfi_startproc
 1061              		@ args = 0, pretend = 0, frame = 0
 1062              		@ frame_needed = 0, uses_anonymous_args = 0
 1063              	.LVL107:
 1064 0000 70B5     		push	{r4, r5, r6, lr}
 1065              		.cfi_def_cfa_offset 16
 1066              		.cfi_offset 4, -16
 1067              		.cfi_offset 5, -12
 1068              		.cfi_offset 6, -8
 1069              		.cfi_offset 14, -4
 1070              		.loc 1 809 0
 1071 0002 0378     		ldrb	r3, [r0]	@ zero_extendqisi2
 1072              		.loc 1 807 0
 1073 0004 066D     		ldr	r6, [r0, #80]
 1074              	.LVL108:
 1075              		.loc 1 809 0
 1076 0006 012B     		cmp	r3, #1
 1077              		.loc 1 806 0
 1078 0008 82B0     		sub	sp, sp, #8
 1079              		.cfi_def_cfa_offset 24
 1080              		.loc 1 809 0
 1081 000a 01D0     		beq	.L143
 1082              		.loc 1 893 0
 1083 000c 02B0     		add	sp, sp, #8
ARM GAS  /tmp/ccHJRDHv.s 			page 20


 1084              		.cfi_remember_state
 1085              		.cfi_def_cfa_offset 16
 1086              		@ sp needed
 1087 000e 70BD     		pop	{r4, r5, r6, pc}
 1088              	.LVL109:
 1089              	.L143:
 1090              		.cfi_restore_state
 1091              		.loc 1 812 0
 1092 0010 304B     		ldr	r3, .L147
 1093 0012 9842     		cmp	r0, r3
 1094 0014 0546     		mov	r5, r0
 1095              		.loc 1 807 0
 1096 0016 18BF     		it	ne
 1097 0018 3446     		movne	r4, r6
 1098              		.loc 1 812 0
 1099 001a 3AD0     		beq	.L144
 1100              	.LVL110:
 1101              	.L133:
 1102              		.loc 1 836 0
 1103 001c 0023     		movs	r3, #0
 1104              		.loc 1 841 0
 1105 001e 2E48     		ldr	r0, .L147+4
 1106              		.loc 1 844 0
 1107 0020 2E49     		ldr	r1, .L147+8
 1108              		.loc 1 836 0
 1109 0022 EB65     		str	r3, [r5, #92]
 1110              		.loc 1 851 0
 1111 0024 4FF43412 		mov	r2, #2949120
 1112              		.loc 1 841 0
 1113 0028 F060     		str	r0, [r6, #12]
 1114              		.loc 1 844 0
 1115 002a C6F80018 		str	r1, [r6, #2048]
 1116              	.LBB551:
 1117              	.LBB552:
 1118              	.LBB553:
 1119              	.LBB554:
 1120              		.loc 4 573 0
 1121 002e 2020     		movs	r0, #32
 1122              	.LBE554:
 1123              	.LBE553:
 1124              	.LBE552:
 1125              	.LBE551:
 1126              		.loc 1 847 0
 1127 0030 C6F8003E 		str	r3, [r6, #3584]
 1128              		.loc 1 851 0
 1129 0034 B263     		str	r2, [r6, #56]
 1130              	.LVL111:
 1131              	.LBB560:
 1132              	.LBB559:
 1133              	.LBB556:
 1134              	.LBB555:
 1135              		.loc 4 573 0
 1136 0036 FFF7FEFF 		bl	chSysPolledDelayX
 1137              	.LVL112:
 1138              	.LBE555:
 1139              	.LBE556:
 1140              		.loc 1 121 0
ARM GAS  /tmp/ccHJRDHv.s 			page 21


 1141 003a 0123     		movs	r3, #1
 1142 003c 2361     		str	r3, [r4, #16]
 1143              	.L134:
 1144              		.loc 1 122 0
 1145 003e 2369     		ldr	r3, [r4, #16]
 1146 0040 DB07     		lsls	r3, r3, #31
 1147 0042 FCD4     		bmi	.L134
 1148              	.LVL113:
 1149              	.LBB557:
 1150              	.LBB558:
 1151              		.loc 4 573 0
 1152 0044 0C20     		movs	r0, #12
 1153 0046 FFF7FEFF 		bl	chSysPolledDelayX
 1154              	.LVL114:
 1155              	.L135:
 1156              	.LBE558:
 1157              	.LBE557:
 1158              		.loc 1 128 0
 1159 004a 2369     		ldr	r3, [r4, #16]
 1160 004c 002B     		cmp	r3, #0
 1161 004e FCDA     		bge	.L135
 1162              	.LBE559:
 1163              	.LBE560:
 1164              		.loc 1 861 0
 1165 0050 0024     		movs	r4, #0
 1166              	.LVL115:
 1167 0052 B460     		str	r4, [r6, #8]
 1168              		.loc 1 864 0
 1169 0054 286D     		ldr	r0, [r5, #80]
 1170 0056 696D     		ldr	r1, [r5, #84]
 1171 0058 FFF7FEFF 		bl	otg_disable_ep.isra.0
 1172              	.LVL116:
 1173              		.loc 1 871 0
 1174 005c 6B68     		ldr	r3, [r5, #4]
 1175              		.loc 1 868 0
 1176 005e C6F81048 		str	r4, [r6, #2064]
 1177              		.loc 1 871 0
 1178 0062 DB68     		ldr	r3, [r3, #12]
 1179              		.loc 1 869 0
 1180 0064 C6F81448 		str	r4, [r6, #2068]
 1181              		.loc 1 870 0
 1182 0068 C6F81C48 		str	r4, [r6, #2076]
 1183              		.loc 1 871 0
 1184 006c 6BB1     		cbz	r3, .L145
 1185              		.loc 1 875 0
 1186 006e 43F20803 		movw	r3, #12296
 1187 0072 B361     		str	r3, [r6, #24]
 1188              	.L137:
 1189              		.loc 1 881 0
 1190 0074 6B6E     		ldr	r3, [r5, #100]
 1191              		.loc 1 877 0
 1192 0076 4FF0FF32 		mov	r2, #-1
 1193 007a 7261     		str	r2, [r6, #20]
 1194              		.loc 1 881 0
 1195 007c D3B1     		cbz	r3, .L146
 1196              	.L138:
 1197              		.loc 1 891 0
ARM GAS  /tmp/ccHJRDHv.s 			page 22


 1198 007e B368     		ldr	r3, [r6, #8]
 1199 0080 43F00103 		orr	r3, r3, #1
 1200 0084 B360     		str	r3, [r6, #8]
 1201              		.loc 1 893 0
 1202 0086 02B0     		add	sp, sp, #8
 1203              		.cfi_remember_state
 1204              		.cfi_def_cfa_offset 16
 1205              		@ sp needed
 1206 0088 70BD     		pop	{r4, r5, r6, pc}
 1207              	.LVL117:
 1208              	.L145:
 1209              		.cfi_restore_state
 1210              		.loc 1 872 0
 1211 008a 4FF44053 		mov	r3, #12288
 1212 008e B361     		str	r3, [r6, #24]
 1213 0090 F0E7     		b	.L137
 1214              	.LVL118:
 1215              	.L144:
 1216              		.loc 1 814 0
 1217 0092 134B     		ldr	r3, .L147+12
 1218 0094 5A6B     		ldr	r2, [r3, #52]
 1219 0096 42F08002 		orr	r2, r2, #128
 1220 009a 5A63     		str	r2, [r3, #52]
 1221              		.loc 1 815 0
 1222 009c 5A69     		ldr	r2, [r3, #20]
 1223 009e 0021     		movs	r1, #0
 1224 00a0 42F08002 		orr	r2, r2, #128
 1225 00a4 5A61     		str	r2, [r3, #20]
 1226              		.loc 1 818 0
 1227 00a6 4320     		movs	r0, #67
 1228              	.LVL119:
 1229              		.loc 1 815 0
 1230 00a8 5961     		str	r1, [r3, #20]
 1231              		.loc 1 818 0
 1232 00aa 0E21     		movs	r1, #14
 1233 00ac FFF7FEFF 		bl	nvicEnableVector
 1234              	.LVL120:
 1235 00b0 2C6D     		ldr	r4, [r5, #80]
 1236 00b2 B3E7     		b	.L133
 1237              	.LVL121:
 1238              	.L146:
 1239              		.loc 1 882 0
 1240 00b4 4FF40671 		mov	r1, #536
 1241 00b8 0222     		movs	r2, #2
 1242 00ba 0A4B     		ldr	r3, .L147+16
 1243 00bc 0095     		str	r5, [sp]
 1244 00be 05F16800 		add	r0, r5, #104
 1245 00c2 FFF7FEFF 		bl	chThdCreateI
 1246              	.LVL122:
 1247 00c6 6866     		str	r0, [r5, #100]
 1248              	.LVL123:
 1249              	.LBB561:
 1250              	.LBB562:
 1251              		.file 5 "ChibiOS_3.0.2/os/rt/include/chthreads.h"
 1252              		.loc 5 249 0
 1253 00c8 FFF7FEFF 		bl	chSchReadyI
 1254              	.LVL124:
ARM GAS  /tmp/ccHJRDHv.s 			page 23


 1255              	.LBE562:
 1256              	.LBE561:
 1257              		.loc 1 886 0
 1258 00cc FFF7FEFF 		bl	chSchRescheduleS
 1259              	.LVL125:
 1260 00d0 D5E7     		b	.L138
 1261              	.L148:
 1262 00d2 00BF     		.align	2
 1263              	.L147:
 1264 00d4 00000000 		.word	.LANCHOR0
 1265 00d8 40140040 		.word	1073747008
 1266 00dc 03002002 		.word	35651587
 1267 00e0 00380240 		.word	1073887232
 1268 00e4 00000000 		.word	usb_lld_pump
 1269              		.cfi_endproc
 1270              	.LFE275:
 1271              		.size	usb_lld_start, .-usb_lld_start
 1272              		.section	.text.usb_lld_stop,"ax",%progbits
 1273              		.align	2
 1274              		.p2align 4,,15
 1275              		.global	usb_lld_stop
 1276              		.thumb
 1277              		.thumb_func
 1278              		.type	usb_lld_stop, %function
 1279              	usb_lld_stop:
 1280              	.LFB276:
 1281              		.loc 1 902 0
 1282              		.cfi_startproc
 1283              		@ args = 0, pretend = 0, frame = 0
 1284              		@ frame_needed = 0, uses_anonymous_args = 0
 1285              	.LVL126:
 1286 0000 38B5     		push	{r3, r4, r5, lr}
 1287              		.cfi_def_cfa_offset 16
 1288              		.cfi_offset 3, -16
 1289              		.cfi_offset 4, -12
 1290              		.cfi_offset 5, -8
 1291              		.cfi_offset 14, -4
 1292              		.loc 1 906 0
 1293 0002 0378     		ldrb	r3, [r0]	@ zero_extendqisi2
 1294              		.loc 1 903 0
 1295 0004 056D     		ldr	r5, [r0, #80]
 1296              	.LVL127:
 1297              		.loc 1 906 0
 1298 0006 012B     		cmp	r3, #1
 1299 0008 0DD0     		beq	.L149
 1300 000a 0446     		mov	r4, r0
 1301              		.loc 1 910 0
 1302 000c 2846     		mov	r0, r5
 1303              	.LVL128:
 1304 000e 616D     		ldr	r1, [r4, #84]
 1305 0010 FFF7FEFF 		bl	otg_disable_ep.isra.0
 1306              	.LVL129:
 1307              		.loc 1 919 0
 1308 0014 094A     		ldr	r2, .L155
 1309              		.loc 1 912 0
 1310 0016 0023     		movs	r3, #0
 1311              		.loc 1 919 0
ARM GAS  /tmp/ccHJRDHv.s 			page 24


 1312 0018 9442     		cmp	r4, r2
 1313              		.loc 1 912 0
 1314 001a E365     		str	r3, [r4, #92]
 1315              		.loc 1 914 0
 1316 001c C5F81C38 		str	r3, [r5, #2076]
 1317              		.loc 1 915 0
 1318 0020 AB60     		str	r3, [r5, #8]
 1319              		.loc 1 916 0
 1320 0022 AB63     		str	r3, [r5, #56]
 1321              		.loc 1 919 0
 1322 0024 00D0     		beq	.L154
 1323              	.LVL130:
 1324              	.L149:
 1325 0026 38BD     		pop	{r3, r4, r5, pc}
 1326              	.LVL131:
 1327              	.L154:
 1328              		.loc 1 920 0
 1329 0028 4320     		movs	r0, #67
 1330 002a FFF7FEFF 		bl	nvicDisableVector
 1331              	.LVL132:
 1332              		.loc 1 921 0
 1333 002e 044A     		ldr	r2, .L155+4
 1334 0030 536B     		ldr	r3, [r2, #52]
 1335 0032 23F08003 		bic	r3, r3, #128
 1336 0036 5363     		str	r3, [r2, #52]
 1337 0038 F5E7     		b	.L149
 1338              	.L156:
 1339 003a 00BF     		.align	2
 1340              	.L155:
 1341 003c 00000000 		.word	.LANCHOR0
 1342 0040 00380240 		.word	1073887232
 1343              		.cfi_endproc
 1344              	.LFE276:
 1345              		.size	usb_lld_stop, .-usb_lld_stop
 1346              		.section	.text.usb_lld_reset,"ax",%progbits
 1347              		.align	2
 1348              		.p2align 4,,15
 1349              		.global	usb_lld_reset
 1350              		.thumb
 1351              		.thumb_func
 1352              		.type	usb_lld_reset, %function
 1353              	usb_lld_reset:
 1354              	.LFB277:
 1355              		.loc 1 941 0
 1356              		.cfi_startproc
 1357              		@ args = 0, pretend = 0, frame = 0
 1358              		@ frame_needed = 0, uses_anonymous_args = 0
 1359              	.LVL133:
 1360 0000 F8B5     		push	{r3, r4, r5, r6, r7, lr}
 1361              		.cfi_def_cfa_offset 24
 1362              		.cfi_offset 3, -24
 1363              		.cfi_offset 4, -20
 1364              		.cfi_offset 5, -16
 1365              		.cfi_offset 6, -12
 1366              		.cfi_offset 7, -8
 1367              		.cfi_offset 14, -4
 1368              		.loc 1 943 0
ARM GAS  /tmp/ccHJRDHv.s 			page 25


 1369 0002 056D     		ldr	r5, [r0, #80]
 1370              	.LVL134:
 1371              	.LBB563:
 1372              	.LBB564:
 1373              		.loc 1 182 0
 1374 0004 2023     		movs	r3, #32
 1375              	.LBE564:
 1376              	.LBE563:
 1377              		.loc 1 941 0
 1378 0006 0746     		mov	r7, r0
 1379              	.LBB568:
 1380              	.LBB567:
 1381              		.loc 1 182 0
 1382 0008 2B61     		str	r3, [r5, #16]
 1383              	.L158:
 1384              		.loc 1 183 0
 1385 000a 2B69     		ldr	r3, [r5, #16]
 1386 000c 13F02004 		ands	r4, r3, #32
 1387 0010 FBD1     		bne	.L158
 1388              	.LVL135:
 1389              	.LBB565:
 1390              	.LBB566:
 1391              		.loc 4 573 0
 1392 0012 0C20     		movs	r0, #12
 1393              	.LVL136:
 1394 0014 FFF7FEFF 		bl	chSysPolledDelayX
 1395              	.LVL137:
 1396 0018 D7F854E0 		ldr	lr, [r7, #84]
 1397 001c DEF80860 		ldr	r6, [lr, #8]
 1398              	.LBE566:
 1399              	.LBE565:
 1400              	.LBE567:
 1401              	.LBE568:
 1402              		.loc 1 949 0
 1403 0020 2346     		mov	r3, r4
 1404              		.loc 1 950 0
 1405 0022 4FF00060 		mov	r0, #134217728
 1406              		.loc 1 952 0
 1407 0026 FF21     		movs	r1, #255
 1408              	.LVL138:
 1409              	.L159:
 1410 0028 05EB4312 		add	r2, r5, r3, lsl #5
 1411              		.loc 1 949 0 discriminator 3
 1412 002c 0133     		adds	r3, r3, #1
 1413              	.LVL139:
 1414 002e B342     		cmp	r3, r6
 1415              		.loc 1 950 0 discriminator 3
 1416 0030 C2F80009 		str	r0, [r2, #2304]
 1417              		.loc 1 951 0 discriminator 3
 1418 0034 C2F8000B 		str	r0, [r2, #2816]
 1419              		.loc 1 952 0 discriminator 3
 1420 0038 C2F80819 		str	r1, [r2, #2312]
 1421              		.loc 1 953 0 discriminator 3
 1422 003c C2F8081B 		str	r1, [r2, #2824]
 1423              		.loc 1 949 0 discriminator 3
 1424 0040 F2D9     		bls	.L159
 1425              	.LBB569:
ARM GAS  /tmp/ccHJRDHv.s 			page 26


 1426              	.LBB570:
 1427              		.loc 1 198 0
 1428 0042 DEF80030 		ldr	r3, [lr]
 1429              	.LVL140:
 1430              	.LBE570:
 1431              	.LBE569:
 1432              		.loc 1 957 0
 1433 0046 4FF0FF32 		mov	r2, #-1
 1434              		.loc 1 958 0
 1435 004a 4FF00111 		mov	r1, #65537
 1436              		.loc 1 957 0
 1437 004e C5F81828 		str	r2, [r5, #2072]
 1438 0052 3A6D     		ldr	r2, [r7, #80]
 1439              		.loc 1 958 0
 1440 0054 C5F81C18 		str	r1, [r5, #2076]
 1441              	.LVL141:
 1442              	.LBB572:
 1443              	.LBB571:
 1444              		.loc 1 198 0
 1445 0058 BB65     		str	r3, [r7, #88]
 1446              	.LBE571:
 1447              	.LBE572:
 1448              		.loc 1 964 0
 1449 005a DEF80030 		ldr	r3, [lr]
 1450 005e 6B62     		str	r3, [r5, #36]
 1451              	.LBB573:
 1452              	.LBB574:
 1453              		.loc 1 172 0
 1454 0060 1023     		movs	r3, #16
 1455 0062 1361     		str	r3, [r2, #16]
 1456              	.L160:
 1457              		.loc 1 173 0
 1458 0064 1369     		ldr	r3, [r2, #16]
 1459 0066 13F01004 		ands	r4, r3, #16
 1460 006a FBD1     		bne	.L160
 1461              	.LVL142:
 1462              	.LBB575:
 1463              	.LBB576:
 1464              		.loc 4 573 0
 1465 006c 0C20     		movs	r0, #12
 1466 006e FFF7FEFF 		bl	chSysPolledDelayX
 1467              	.LVL143:
 1468              	.LBE576:
 1469              	.LBE575:
 1470              	.LBE574:
 1471              	.LBE573:
 1472              		.loc 1 968 0
 1473 0072 D5F80038 		ldr	r3, [r5, #2048]
 1474              		.loc 1 978 0
 1475 0076 114A     		ldr	r2, .L165
 1476              		.loc 1 976 0
 1477 0078 1148     		ldr	r0, .L165+4
 1478              		.loc 1 968 0
 1479 007a 23F4FE63 		bic	r3, r3, #2032
 1480 007e C5F80038 		str	r3, [r5, #2048]
 1481              		.loc 1 971 0
 1482 0082 AB69     		ldr	r3, [r5, #24]
ARM GAS  /tmp/ccHJRDHv.s 			page 27


 1483 0084 43F44023 		orr	r3, r3, #786432
 1484 0088 43F01003 		orr	r3, r3, #16
 1485              		.loc 1 972 0
 1486 008c 0921     		movs	r1, #9
 1487              		.loc 1 971 0
 1488 008e AB61     		str	r3, [r5, #24]
 1489              		.loc 1 972 0
 1490 0090 C5F81018 		str	r1, [r5, #2064]
 1491              		.loc 1 973 0
 1492 0094 C5F81418 		str	r1, [r5, #2068]
 1493              		.loc 1 976 0
 1494 0098 F860     		str	r0, [r7, #12]
 1495              		.loc 1 977 0
 1496 009a C5F8104B 		str	r4, [r5, #2832]
 1497              		.loc 1 978 0
 1498 009e C5F8002B 		str	r2, [r5, #2816]
 1499              		.loc 1 980 0
 1500 00a2 C5F81049 		str	r4, [r5, #2320]
 1501              		.loc 1 981 0
 1502 00a6 C5F80029 		str	r2, [r5, #2304]
 1503              	.LVL144:
 1504              	.LBB577:
 1505              	.LBB578:
 1506              		.loc 1 212 0
 1507 00aa BB6D     		ldr	r3, [r7, #88]
 1508              	.LVL145:
 1509              		.loc 1 213 0
 1510 00ac 03F11002 		add	r2, r3, #16
 1511              	.LBE578:
 1512              	.LBE577:
 1513              		.loc 1 983 0
 1514 00b0 43F48013 		orr	r3, r3, #1048576
 1515              	.LVL146:
 1516              	.LBB580:
 1517              	.LBB579:
 1518              		.loc 1 213 0
 1519 00b4 BA65     		str	r2, [r7, #88]
 1520              	.LVL147:
 1521              	.LBE579:
 1522              	.LBE580:
 1523              		.loc 1 983 0
 1524 00b6 AB62     		str	r3, [r5, #40]
 1525 00b8 F8BD     		pop	{r3, r4, r5, r6, r7, pc}
 1526              	.LVL148:
 1527              	.L166:
 1528 00ba 00BF     		.align	2
 1529              	.L165:
 1530 00bc 40800010 		.word	268468288
 1531 00c0 00000000 		.word	.LANCHOR2
 1532              		.cfi_endproc
 1533              	.LFE277:
 1534              		.size	usb_lld_reset, .-usb_lld_reset
 1535              		.section	.text.usb_lld_set_address,"ax",%progbits
 1536              		.align	2
 1537              		.p2align 4,,15
 1538              		.global	usb_lld_set_address
 1539              		.thumb
ARM GAS  /tmp/ccHJRDHv.s 			page 28


 1540              		.thumb_func
 1541              		.type	usb_lld_set_address, %function
 1542              	usb_lld_set_address:
 1543              	.LFB278:
 1544              		.loc 1 995 0
 1545              		.cfi_startproc
 1546              		@ args = 0, pretend = 0, frame = 0
 1547              		@ frame_needed = 0, uses_anonymous_args = 0
 1548              		@ link register save eliminated.
 1549              	.LVL149:
 1550              		.loc 1 996 0
 1551 0000 026D     		ldr	r2, [r0, #80]
 1552              	.LVL150:
 1553              		.loc 1 998 0
 1554 0002 90F84E10 		ldrb	r1, [r0, #78]	@ zero_extendqisi2
 1555 0006 D2F80038 		ldr	r3, [r2, #2048]
 1556 000a 23F4FE63 		bic	r3, r3, #2032
 1557 000e 43EA0113 		orr	r3, r3, r1, lsl #4
 1558 0012 C2F80038 		str	r3, [r2, #2048]
 1559 0016 7047     		bx	lr
 1560              		.cfi_endproc
 1561              	.LFE278:
 1562              		.size	usb_lld_set_address, .-usb_lld_set_address
 1563              		.section	.text.usb_lld_init_endpoint,"ax",%progbits
 1564              		.align	2
 1565              		.p2align 4,,15
 1566              		.global	usb_lld_init_endpoint
 1567              		.thumb
 1568              		.thumb_func
 1569              		.type	usb_lld_init_endpoint, %function
 1570              	usb_lld_init_endpoint:
 1571              	.LFB279:
 1572              		.loc 1 1009 0
 1573              		.cfi_startproc
 1574              		@ args = 0, pretend = 0, frame = 0
 1575              		@ frame_needed = 0, uses_anonymous_args = 0
 1576              	.LVL151:
 1577 0000 2DE9F041 		push	{r4, r5, r6, r7, r8, lr}
 1578              		.cfi_def_cfa_offset 24
 1579              		.cfi_offset 4, -24
 1580              		.cfi_offset 5, -20
 1581              		.cfi_offset 6, -16
 1582              		.cfi_offset 7, -12
 1583              		.cfi_offset 8, -8
 1584              		.cfi_offset 14, -4
 1585 0004 0FFA81F8 		sxth	r8, r1
 1586 0008 00EB8807 		add	r7, r0, r8, lsl #2
 1587              		.loc 1 1009 0
 1588 000c 0D46     		mov	r5, r1
 1589              		.loc 1 1014 0
 1590 000e FB68     		ldr	r3, [r7, #12]
 1591              		.loc 1 1011 0
 1592 0010 046D     		ldr	r4, [r0, #80]
 1593              	.LVL152:
 1594              		.loc 1 1014 0
 1595 0012 1A68     		ldr	r2, [r3]
 1596 0014 02F00302 		and	r2, r2, #3
ARM GAS  /tmp/ccHJRDHv.s 			page 29


 1597 0018 022A     		cmp	r2, #2
 1598 001a 5CD0     		beq	.L170
 1599 001c 032A     		cmp	r2, #3
 1600 001e 5CD0     		beq	.L171
 1601              		.loc 1 1016 0
 1602 0020 4A4E     		ldr	r6, .L184
 1603 0022 4B49     		ldr	r1, .L184+4
 1604              	.LVL153:
 1605 0024 012A     		cmp	r2, #1
 1606 0026 18BF     		it	ne
 1607 0028 0E46     		movne	r6, r1
 1608              	.L169:
 1609              	.LVL154:
 1610              		.loc 1 1032 0
 1611 002a 6A01     		lsls	r2, r5, #5
 1612              		.loc 1 1033 0
 1613 002c D968     		ldr	r1, [r3, #12]
 1614              		.loc 1 1032 0
 1615 002e 04EB020E 		add	lr, r4, r2
 1616 0032 4FF0000C 		mov	ip, #0
 1617 0036 CEF810CB 		str	ip, [lr, #2832]
 1618              		.loc 1 1033 0
 1619 003a 0029     		cmp	r1, #0
 1620 003c 71D0     		beq	.L173
 1621              		.loc 1 1034 0
 1622 003e B3F812E0 		ldrh	lr, [r3, #18]
 1623 0042 05F15801 		add	r1, r5, #88
 1624 0046 4901     		lsls	r1, r1, #5
 1625 0048 46EA0E0E 		orr	lr, r6, lr
 1626 004c 44F801E0 		str	lr, [r4, r1]
 1627              		.loc 1 1035 0
 1628 0050 05F1100C 		add	ip, r5, #16
 1629 0054 D4F81C18 		ldr	r1, [r4, #2076]
 1630 0058 4FF0010E 		mov	lr, #1
 1631 005c 0EFA0CFE 		lsl	lr, lr, ip
 1632 0060 4EEA0101 		orr	r1, lr, r1
 1633 0064 C4F81C18 		str	r1, [r4, #2076]
 1634              	.L174:
 1635              		.loc 1 1043 0
 1636 0068 2244     		add	r2, r2, r4
 1637              		.loc 1 1044 0
 1638 006a 9968     		ldr	r1, [r3, #8]
 1639              		.loc 1 1043 0
 1640 006c 4FF0000E 		mov	lr, #0
 1641 0070 C2F810E9 		str	lr, [r2, #2320]
 1642              		.loc 1 1044 0
 1643 0074 99B3     		cbz	r1, .L175
 1644              		.loc 1 1047 0
 1645 0076 998B     		ldrh	r1, [r3, #28]
 1646              		.loc 1 1046 0
 1647 0078 1A8A     		ldrh	r2, [r3, #16]
 1648              		.loc 1 1047 0
 1649 007a 0129     		cmp	r1, #1
 1650              		.loc 1 1046 0
 1651 007c 4FEA9203 		lsr	r3, r2, #2
 1652              	.LVL155:
 1653              		.loc 1 1048 0
ARM GAS  /tmp/ccHJRDHv.s 			page 30


 1654 0080 88BF     		it	hi
 1655 0082 4B43     		mulhi	r3, r1, r3
 1656              	.LVL156:
 1657              		.loc 1 1049 0
 1658 0084 05F13F0E 		add	lr, r5, #63
 1659              	.LBB581:
 1660              	.LBB582:
 1661              		.loc 1 212 0
 1662 0088 816D     		ldr	r1, [r0, #88]
 1663              	.LVL157:
 1664              	.LBE582:
 1665              	.LBE581:
 1666              		.loc 1 1049 0
 1667 008a 04EB8E0E 		add	lr, r4, lr, lsl #2
 1668              	.LBB585:
 1669              	.LBB586:
 1670              		.loc 1 182 0
 1671 008e AA01     		lsls	r2, r5, #6
 1672              	.LBE586:
 1673              	.LBE585:
 1674              	.LBB591:
 1675              	.LBB583:
 1676              		.loc 1 213 0
 1677 0090 03EB010C 		add	ip, r3, r1
 1678              	.LBE583:
 1679              	.LBE591:
 1680              	.LBB592:
 1681              	.LBB589:
 1682              		.loc 1 182 0
 1683 0094 42F02002 		orr	r2, r2, #32
 1684              	.LBE589:
 1685              	.LBE592:
 1686              		.loc 1 1049 0
 1687 0098 41EA0343 		orr	r3, r1, r3, lsl #16
 1688              	.LVL158:
 1689              	.LBB593:
 1690              	.LBB584:
 1691              		.loc 1 213 0
 1692 009c C0F858C0 		str	ip, [r0, #88]
 1693              	.LBE584:
 1694              	.LBE593:
 1695              		.loc 1 1049 0
 1696 00a0 CEF80430 		str	r3, [lr, #4]
 1697              	.LVL159:
 1698              	.LBB594:
 1699              	.LBB590:
 1700              		.loc 1 182 0
 1701 00a4 2261     		str	r2, [r4, #16]
 1702              	.L177:
 1703              		.loc 1 183 0
 1704 00a6 2369     		ldr	r3, [r4, #16]
 1705 00a8 9A06     		lsls	r2, r3, #26
 1706 00aa FCD4     		bmi	.L177
 1707              	.LVL160:
 1708              	.LBB587:
 1709              	.LBB588:
 1710              		.loc 4 573 0
ARM GAS  /tmp/ccHJRDHv.s 			page 31


 1711 00ac 0C20     		movs	r0, #12
 1712              	.LVL161:
 1713 00ae FFF7FEFF 		bl	chSysPolledDelayX
 1714              	.LVL162:
 1715              	.LBE588:
 1716              	.LBE587:
 1717              	.LBE590:
 1718              	.LBE594:
 1719              		.loc 1 1055 0
 1720 00b2 FB68     		ldr	r3, [r7, #12]
 1721              		.loc 1 1054 0
 1722 00b4 1A8A     		ldrh	r2, [r3, #16]
 1723              		.loc 1 1053 0
 1724 00b6 05F14803 		add	r3, r5, #72
 1725 00ba 5B01     		lsls	r3, r3, #5
 1726 00bc 42EA8552 		orr	r2, r2, r5, lsl #22
 1727              		.loc 1 1054 0
 1728 00c0 3243     		orrs	r2, r2, r6
 1729              		.loc 1 1053 0
 1730 00c2 E250     		str	r2, [r4, r3]
 1731              		.loc 1 1056 0
 1732 00c4 0123     		movs	r3, #1
 1733 00c6 D4F81C28 		ldr	r2, [r4, #2076]
 1734 00ca AB40     		lsls	r3, r3, r5
 1735 00cc 1343     		orrs	r3, r3, r2
 1736 00ce C4F81C38 		str	r3, [r4, #2076]
 1737 00d2 BDE8F081 		pop	{r4, r5, r6, r7, r8, pc}
 1738              	.LVL163:
 1739              	.L170:
 1740              		.loc 1 1022 0
 1741 00d6 1F4E     		ldr	r6, .L184+8
 1742              		.loc 1 1023 0
 1743 00d8 A7E7     		b	.L169
 1744              	.LVL164:
 1745              	.L171:
 1746              		.loc 1 1025 0
 1747 00da 1F4E     		ldr	r6, .L184+12
 1748              		.loc 1 1026 0
 1749 00dc A5E7     		b	.L169
 1750              	.LVL165:
 1751              	.L175:
 1752              		.loc 1 1059 0
 1753 00de 05F13F02 		add	r2, r5, #63
 1754 00e2 04EB8202 		add	r2, r4, r2, lsl #2
 1755              	.LBB595:
 1756              	.LBB596:
 1757              		.loc 1 182 0
 1758 00e6 AB01     		lsls	r3, r5, #6
 1759              	.LBE596:
 1760              	.LBE595:
 1761              		.loc 1 1059 0
 1762 00e8 1C49     		ldr	r1, .L184+16
 1763 00ea 5160     		str	r1, [r2, #4]
 1764              	.LVL166:
 1765              	.LBB600:
 1766              	.LBB599:
 1767              		.loc 1 182 0
ARM GAS  /tmp/ccHJRDHv.s 			page 32


 1768 00ec 43F02003 		orr	r3, r3, #32
 1769 00f0 2361     		str	r3, [r4, #16]
 1770              	.L179:
 1771              		.loc 1 183 0
 1772 00f2 2369     		ldr	r3, [r4, #16]
 1773 00f4 9B06     		lsls	r3, r3, #26
 1774 00f6 FCD4     		bmi	.L179
 1775              	.LVL167:
 1776 00f8 04EB4818 		add	r8, r4, r8, lsl #5
 1777              	.LBB597:
 1778              	.LBB598:
 1779              		.loc 4 573 0
 1780 00fc 0C20     		movs	r0, #12
 1781              	.LVL168:
 1782 00fe FFF7FEFF 		bl	chSysPolledDelayX
 1783              	.LVL169:
 1784              	.LBE598:
 1785              	.LBE597:
 1786              	.LBE599:
 1787              	.LBE600:
 1788              		.loc 1 1061 0
 1789 0102 D8F80029 		ldr	r2, [r8, #2304]
 1790 0106 22F40042 		bic	r2, r2, #32768
 1791 010a C8F80029 		str	r2, [r8, #2304]
 1792              		.loc 1 1062 0
 1793 010e D4F81C28 		ldr	r2, [r4, #2076]
 1794 0112 0123     		movs	r3, #1
 1795 0114 AB40     		lsls	r3, r3, r5
 1796 0116 22EA0303 		bic	r3, r2, r3
 1797 011a C4F81C38 		str	r3, [r4, #2076]
 1798 011e BDE8F081 		pop	{r4, r5, r6, r7, r8, pc}
 1799              	.LVL170:
 1800              	.L173:
 1801 0122 04EB4811 		add	r1, r4, r8, lsl #5
 1802              		.loc 1 1039 0
 1803 0126 05F1100C 		add	ip, r5, #16
 1804              		.loc 1 1038 0
 1805 012a D1F800EB 		ldr	lr, [r1, #2816]
 1806 012e 2EF4004E 		bic	lr, lr, #32768
 1807 0132 C1F800EB 		str	lr, [r1, #2816]
 1808              		.loc 1 1039 0
 1809 0136 D4F81C18 		ldr	r1, [r4, #2076]
 1810 013a 4FF0010E 		mov	lr, #1
 1811 013e 0EFA0CFE 		lsl	lr, lr, ip
 1812 0142 21EA0E01 		bic	r1, r1, lr
 1813 0146 C4F81C18 		str	r1, [r4, #2076]
 1814 014a 8DE7     		b	.L174
 1815              	.L185:
 1816              		.align	2
 1817              	.L184:
 1818 014c 00800410 		.word	268730368
 1819 0150 00800010 		.word	268468224
 1820 0154 00800810 		.word	268992512
 1821 0158 00800C10 		.word	269254656
 1822 015c 00040002 		.word	33555456
 1823              		.cfi_endproc
 1824              	.LFE279:
ARM GAS  /tmp/ccHJRDHv.s 			page 33


 1825              		.size	usb_lld_init_endpoint, .-usb_lld_init_endpoint
 1826              		.section	.text.usb_lld_disable_endpoints,"ax",%progbits
 1827              		.align	2
 1828              		.p2align 4,,15
 1829              		.global	usb_lld_disable_endpoints
 1830              		.thumb
 1831              		.thumb_func
 1832              		.type	usb_lld_disable_endpoints, %function
 1833              	usb_lld_disable_endpoints:
 1834              	.LFB280:
 1835              		.loc 1 1073 0
 1836              		.cfi_startproc
 1837              		@ args = 0, pretend = 0, frame = 0
 1838              		@ frame_needed = 0, uses_anonymous_args = 0
 1839              		@ link register save eliminated.
 1840              	.LVL171:
 1841 0000 416D     		ldr	r1, [r0, #84]
 1842              	.LVL172:
 1843              		.loc 1 1073 0
 1844 0002 0346     		mov	r3, r0
 1845              	.LBB601:
 1846              	.LBB602:
 1847              		.loc 1 198 0
 1848 0004 0A68     		ldr	r2, [r1]
 1849              	.LBE602:
 1850              	.LBE601:
 1851              		.loc 1 1079 0
 1852 0006 006D     		ldr	r0, [r0, #80]
 1853              	.LVL173:
 1854              	.LBB604:
 1855              	.LBB603:
 1856              		.loc 1 198 0
 1857 0008 9A65     		str	r2, [r3, #88]
 1858              	.LBE603:
 1859              	.LBE604:
 1860              		.loc 1 1079 0
 1861 000a FFF7FEBF 		b	otg_disable_ep.isra.0
 1862              	.LVL174:
 1863              		.cfi_endproc
 1864              	.LFE280:
 1865              		.size	usb_lld_disable_endpoints, .-usb_lld_disable_endpoints
 1866 000e 00BF     		.section	.text.usb_lld_get_status_out,"ax",%progbits
 1867              		.align	2
 1868              		.p2align 4,,15
 1869              		.global	usb_lld_get_status_out
 1870              		.thumb
 1871              		.thumb_func
 1872              		.type	usb_lld_get_status_out, %function
 1873              	usb_lld_get_status_out:
 1874              	.LFB281:
 1875              		.loc 1 1094 0
 1876              		.cfi_startproc
 1877              		@ args = 0, pretend = 0, frame = 0
 1878              		@ frame_needed = 0, uses_anonymous_args = 0
 1879              		@ link register save eliminated.
 1880              	.LVL175:
 1881              		.loc 1 1099 0
ARM GAS  /tmp/ccHJRDHv.s 			page 34


 1882 0000 5831     		adds	r1, r1, #88
 1883              	.LVL176:
 1884 0002 036D     		ldr	r3, [r0, #80]
 1885 0004 4901     		lsls	r1, r1, #5
 1886 0006 5B58     		ldr	r3, [r3, r1]
 1887              	.LVL177:
 1888              		.loc 1 1100 0
 1889 0008 13F40040 		ands	r0, r3, #32768
 1890              	.LVL178:
 1891 000c 04D0     		beq	.L188
 1892              		.loc 1 1102 0
 1893 000e 13F4001F 		tst	r3, #2097152
 1894              		.loc 1 1104 0
 1895 0012 14BF     		ite	ne
 1896 0014 0120     		movne	r0, #1
 1897 0016 0220     		moveq	r0, #2
 1898              	.L188:
 1899              		.loc 1 1105 0
 1900 0018 7047     		bx	lr
 1901              		.cfi_endproc
 1902              	.LFE281:
 1903              		.size	usb_lld_get_status_out, .-usb_lld_get_status_out
 1904 001a 00BF     		.section	.text.usb_lld_get_status_in,"ax",%progbits
 1905              		.align	2
 1906              		.p2align 4,,15
 1907              		.global	usb_lld_get_status_in
 1908              		.thumb
 1909              		.thumb_func
 1910              		.type	usb_lld_get_status_in, %function
 1911              	usb_lld_get_status_in:
 1912              	.LFB282:
 1913              		.loc 1 1119 0
 1914              		.cfi_startproc
 1915              		@ args = 0, pretend = 0, frame = 0
 1916              		@ frame_needed = 0, uses_anonymous_args = 0
 1917              		@ link register save eliminated.
 1918              	.LVL179:
 1919              		.loc 1 1124 0
 1920 0000 4831     		adds	r1, r1, #72
 1921              	.LVL180:
 1922 0002 036D     		ldr	r3, [r0, #80]
 1923 0004 4901     		lsls	r1, r1, #5
 1924 0006 5B58     		ldr	r3, [r3, r1]
 1925              	.LVL181:
 1926              		.loc 1 1125 0
 1927 0008 13F40040 		ands	r0, r3, #32768
 1928              	.LVL182:
 1929 000c 04D0     		beq	.L192
 1930              		.loc 1 1127 0
 1931 000e 13F4001F 		tst	r3, #2097152
 1932              		.loc 1 1129 0
 1933 0012 14BF     		ite	ne
 1934 0014 0120     		movne	r0, #1
 1935 0016 0220     		moveq	r0, #2
 1936              	.L192:
 1937              		.loc 1 1130 0
 1938 0018 7047     		bx	lr
ARM GAS  /tmp/ccHJRDHv.s 			page 35


 1939              		.cfi_endproc
 1940              	.LFE282:
 1941              		.size	usb_lld_get_status_in, .-usb_lld_get_status_in
 1942 001a 00BF     		.section	.text.usb_lld_read_setup,"ax",%progbits
 1943              		.align	2
 1944              		.p2align 4,,15
 1945              		.global	usb_lld_read_setup
 1946              		.thumb
 1947              		.thumb_func
 1948              		.type	usb_lld_read_setup, %function
 1949              	usb_lld_read_setup:
 1950              	.LFB283:
 1951              		.loc 1 1146 0
 1952              		.cfi_startproc
 1953              		@ args = 0, pretend = 0, frame = 0
 1954              		@ frame_needed = 0, uses_anonymous_args = 0
 1955              		@ link register save eliminated.
 1956              	.LVL183:
 1957              		.loc 1 1148 0
 1958 0000 00EB8101 		add	r1, r0, r1, lsl #2
 1959              	.LVL184:
 1960 0004 CB68     		ldr	r3, [r1, #12]
 1961 0006 1B6A     		ldr	r3, [r3, #32]
 1962 0008 1968     		ldr	r1, [r3]	@ unaligned
 1963 000a 5B68     		ldr	r3, [r3, #4]	@ unaligned
 1964 000c 5360     		str	r3, [r2, #4]	@ unaligned
 1965 000e 1160     		str	r1, [r2]	@ unaligned
 1966 0010 7047     		bx	lr
 1967              		.cfi_endproc
 1968              	.LFE283:
 1969              		.size	usb_lld_read_setup, .-usb_lld_read_setup
 1970 0012 00BF     		.section	.text.usb_lld_prepare_receive,"ax",%progbits
 1971              		.align	2
 1972              		.p2align 4,,15
 1973              		.global	usb_lld_prepare_receive
 1974              		.thumb
 1975              		.thumb_func
 1976              		.type	usb_lld_prepare_receive, %function
 1977              	usb_lld_prepare_receive:
 1978              	.LFB284:
 1979              		.loc 1 1159 0
 1980              		.cfi_startproc
 1981              		@ args = 0, pretend = 0, frame = 0
 1982              		@ frame_needed = 0, uses_anonymous_args = 0
 1983              		@ link register save eliminated.
 1984              	.LVL185:
 1985              		.loc 1 1161 0
 1986 0000 00EB8103 		add	r3, r0, r1, lsl #2
 1987              		.loc 1 1159 0
 1988 0004 30B4     		push	{r4, r5}
 1989              		.cfi_def_cfa_offset 8
 1990              		.cfi_offset 4, -8
 1991              		.cfi_offset 5, -4
 1992              		.loc 1 1161 0
 1993 0006 DD68     		ldr	r5, [r3, #12]
 1994 0008 AC69     		ldr	r4, [r5, #24]
 1995              	.LVL186:
ARM GAS  /tmp/ccHJRDHv.s 			page 36


 1996              		.loc 1 1164 0
 1997 000a 6368     		ldr	r3, [r4, #4]
 1998 000c 2361     		str	r3, [r4, #16]
 1999              		.loc 1 1165 0
 2000 000e 31B9     		cbnz	r1, .L201
 2001              		.loc 1 1165 0 is_stmt 0 discriminator 1
 2002 0010 402B     		cmp	r3, #64
 2003 0012 04D9     		bls	.L201
 2004              		.loc 1 1166 0 is_stmt 1
 2005 0014 4023     		movs	r3, #64
 2006 0016 6360     		str	r3, [r4, #4]
 2007 0018 094A     		ldr	r2, .L202
 2008 001a 3F24     		movs	r4, #63
 2009              	.LVL187:
 2010 001c 02E0     		b	.L198
 2011              	.LVL188:
 2012              	.L201:
 2013 001e 5C1E     		subs	r4, r3, #1
 2014              	.LVL189:
 2015 0020 43F0C042 		orr	r2, r3, #1610612736
 2016              	.L198:
 2017              		.loc 1 1170 0
 2018 0024 006D     		ldr	r0, [r0, #80]
 2019              	.LVL190:
 2020              		.loc 1 1168 0
 2021 0026 6D8A     		ldrh	r5, [r5, #18]
 2022              	.LVL191:
 2023              		.loc 1 1170 0
 2024 0028 00EB4111 		add	r1, r0, r1, lsl #5
 2025              	.LVL192:
 2026              		.loc 1 1168 0
 2027 002c 6319     		adds	r3, r4, r5
 2028 002e B3FBF5F3 		udiv	r3, r3, r5
 2029              	.LVL193:
 2030              		.loc 1 1170 0
 2031 0032 42EAC343 		orr	r3, r2, r3, lsl #19
 2032              	.LVL194:
 2033 0036 C1F8103B 		str	r3, [r1, #2832]
 2034              		.loc 1 1173 0
 2035 003a 30BC     		pop	{r4, r5}
 2036              		.cfi_restore 5
 2037              		.cfi_restore 4
 2038              		.cfi_def_cfa_offset 0
 2039              	.LVL195:
 2040 003c 7047     		bx	lr
 2041              	.L203:
 2042 003e 00BF     		.align	2
 2043              	.L202:
 2044 0040 40000060 		.word	1610612800
 2045              		.cfi_endproc
 2046              	.LFE284:
 2047              		.size	usb_lld_prepare_receive, .-usb_lld_prepare_receive
 2048              		.section	.text.otg_epout_handler.constprop.7,"ax",%progbits
 2049              		.align	2
 2050              		.p2align 4,,15
 2051              		.thumb
 2052              		.thumb_func
ARM GAS  /tmp/ccHJRDHv.s 			page 37


 2053              		.type	otg_epout_handler.constprop.7, %function
 2054              	otg_epout_handler.constprop.7:
 2055              	.LFB300:
 2056              		.loc 1 581 0
 2057              		.cfi_startproc
 2058              		@ args = 0, pretend = 0, frame = 0
 2059              		@ frame_needed = 0, uses_anonymous_args = 0
 2060              	.LVL196:
 2061 0000 2DE9F041 		push	{r4, r5, r6, r7, r8, lr}
 2062              		.cfi_def_cfa_offset 24
 2063              		.cfi_offset 4, -24
 2064              		.cfi_offset 5, -20
 2065              		.cfi_offset 6, -16
 2066              		.cfi_offset 7, -12
 2067              		.cfi_offset 8, -8
 2068              		.cfi_offset 14, -4
 2069              		.loc 1 582 0
 2070 0004 244E     		ldr	r6, .L223
 2071 0006 376D     		ldr	r7, [r6, #80]
 2072              	.LVL197:
 2073              		.loc 1 583 0
 2074 0008 07EB4013 		add	r3, r7, r0, lsl #5
 2075              		.loc 1 581 0
 2076 000c 0546     		mov	r5, r0
 2077              		.loc 1 583 0
 2078 000e D3F8084B 		ldr	r4, [r3, #2824]
 2079              	.LVL198:
 2080              		.loc 1 586 0
 2081 0012 C3F8084B 		str	r4, [r3, #2824]
 2082              		.loc 1 588 0
 2083 0016 2007     		lsls	r0, r4, #28
 2084              	.LVL199:
 2085 0018 03D5     		bpl	.L205
 2086 001a D7F81438 		ldr	r3, [r7, #2068]
 2087 001e 1907     		lsls	r1, r3, #28
 2088 0020 1DD4     		bmi	.L221
 2089              	.L205:
 2090              		.loc 1 594 0
 2091 0022 E207     		lsls	r2, r4, #31
 2092 0024 19D5     		bpl	.L204
 2093 0026 D7F81438 		ldr	r3, [r7, #2068]
 2094 002a DB07     		lsls	r3, r3, #31
 2095 002c 15D5     		bpl	.L204
 2096              	.LBB605:
 2097              		.loc 1 596 0
 2098 002e 06EB8506 		add	r6, r6, r5, lsl #2
 2099 0032 194C     		ldr	r4, .L223
 2100              	.LVL200:
 2101 0034 F168     		ldr	r1, [r6, #12]
 2102 0036 8B69     		ldr	r3, [r1, #24]
 2103              	.LVL201:
 2104              		.loc 1 598 0
 2105 0038 5868     		ldr	r0, [r3, #4]
 2106 003a 1A69     		ldr	r2, [r3, #16]
 2107 003c 9042     		cmp	r0, r2
 2108 003e 16D3     		bcc	.L222
 2109              		.loc 1 611 0
ARM GAS  /tmp/ccHJRDHv.s 			page 38


 2110 0040 6289     		ldrh	r2, [r4, #10]
 2111 0042 CE68     		ldr	r6, [r1, #12]
 2112 0044 0123     		movs	r3, #1
 2113              	.LVL202:
 2114 0046 AB40     		lsls	r3, r3, r5
 2115 0048 22EA0303 		bic	r3, r2, r3
 2116 004c 6381     		strh	r3, [r4, #10]	@ movhi
 2117 004e 2946     		mov	r1, r5
 2118              	.LVL203:
 2119 0050 2046     		mov	r0, r4
 2120 0052 3346     		mov	r3, r6
 2121              	.LBE605:
 2122              		.loc 1 614 0
 2123 0054 BDE8F041 		pop	{r4, r5, r6, r7, r8, lr}
 2124              		.cfi_remember_state
 2125              		.cfi_restore 14
 2126              		.cfi_restore 8
 2127              		.cfi_restore 7
 2128              		.cfi_restore 6
 2129              		.cfi_restore 5
 2130              		.cfi_restore 4
 2131              		.cfi_def_cfa_offset 0
 2132              	.LVL204:
 2133              	.LBB618:
 2134              		.loc 1 611 0
 2135 0058 1847     		bx	r3	@ indirect register sibling call
 2136              	.LVL205:
 2137              	.L204:
 2138              		.cfi_restore_state
 2139 005a BDE8F081 		pop	{r4, r5, r6, r7, r8, pc}
 2140              	.LVL206:
 2141              	.L221:
 2142              	.LBE618:
 2143              		.loc 1 591 0
 2144 005e 06EB8503 		add	r3, r6, r5, lsl #2
 2145 0062 3046     		mov	r0, r6
 2146 0064 DB68     		ldr	r3, [r3, #12]
 2147 0066 2946     		mov	r1, r5
 2148 0068 5B68     		ldr	r3, [r3, #4]
 2149 006a 9847     		blx	r3
 2150              	.LVL207:
 2151 006c D9E7     		b	.L205
 2152              	.LVL208:
 2153              	.L222:
 2154              	.LBB619:
 2155              		.loc 1 602 0
 2156 006e 121A     		subs	r2, r2, r0
 2157              		.loc 1 603 0
 2158 0070 0021     		movs	r1, #0
 2159 0072 9960     		str	r1, [r3, #8]
 2160              		.loc 1 602 0
 2161 0074 5A60     		str	r2, [r3, #4]
 2162              		.loc 1 604 0
 2163 0076 2046     		mov	r0, r4
 2164 0078 2946     		mov	r1, r5
 2165 007a FFF7FEFF 		bl	usb_lld_prepare_receive
 2166              	.LVL209:
ARM GAS  /tmp/ccHJRDHv.s 			page 39


 2167              	.LBB606:
 2168              	.LBB607:
 2169              	.LBB608:
 2170              	.LBB609:
 2171              	.LBB610:
 2172              		.loc 3 342 0
 2173              	@ 342 "ChibiOS_3.0.2/os/ext/CMSIS/include/core_cmFunc.h" 1
 2174 007e 72B6     		cpsid i
 2175              	@ 0 "" 2
 2176              	.LVL210:
 2177              		.thumb
 2178 0080 236D     		ldr	r3, [r4, #80]
 2179 0082 03EB4515 		add	r5, r3, r5, lsl #5
 2180              	.LVL211:
 2181              	.LBE610:
 2182              	.LBE609:
 2183              	.LBE608:
 2184              	.LBE607:
 2185              	.LBE606:
 2186              	.LBB611:
 2187              	.LBB612:
 2188              		.loc 1 1214 0
 2189 0086 D5F8003B 		ldr	r3, [r5, #2816]
 2190 008a 43F08063 		orr	r3, r3, #67108864
 2191 008e C5F8003B 		str	r3, [r5, #2816]
 2192              	.LBE612:
 2193              	.LBE611:
 2194              	.LBB613:
 2195              	.LBB614:
 2196              	.LBB615:
 2197              	.LBB616:
 2198              	.LBB617:
 2199              		.loc 3 331 0
 2200              	@ 331 "ChibiOS_3.0.2/os/ext/CMSIS/include/core_cmFunc.h" 1
 2201 0092 62B6     		cpsie i
 2202              	@ 0 "" 2
 2203              		.thumb
 2204 0094 BDE8F081 		pop	{r4, r5, r6, r7, r8, pc}
 2205              	.LVL212:
 2206              	.L224:
 2207              		.align	2
 2208              	.L223:
 2209 0098 00000000 		.word	.LANCHOR0
 2210              	.LBE617:
 2211              	.LBE616:
 2212              	.LBE615:
 2213              	.LBE614:
 2214              	.LBE613:
 2215              	.LBE619:
 2216              		.cfi_endproc
 2217              	.LFE300:
 2218              		.size	otg_epout_handler.constprop.7, .-otg_epout_handler.constprop.7
 2219              		.section	.text.usb_lld_prepare_transmit,"ax",%progbits
 2220              		.align	2
 2221              		.p2align 4,,15
 2222              		.global	usb_lld_prepare_transmit
 2223              		.thumb
ARM GAS  /tmp/ccHJRDHv.s 			page 40


 2224              		.thumb_func
 2225              		.type	usb_lld_prepare_transmit, %function
 2226              	usb_lld_prepare_transmit:
 2227              	.LFB285:
 2228              		.loc 1 1183 0
 2229              		.cfi_startproc
 2230              		@ args = 0, pretend = 0, frame = 0
 2231              		@ frame_needed = 0, uses_anonymous_args = 0
 2232              		@ link register save eliminated.
 2233              	.LVL213:
 2234              		.loc 1 1184 0
 2235 0000 00EB8103 		add	r3, r0, r1, lsl #2
 2236              		.loc 1 1183 0
 2237 0004 10B4     		push	{r4}
 2238              		.cfi_def_cfa_offset 4
 2239              		.cfi_offset 4, -4
 2240              		.loc 1 1184 0
 2241 0006 DC68     		ldr	r4, [r3, #12]
 2242 0008 6269     		ldr	r2, [r4, #20]
 2243              	.LVL214:
 2244              		.loc 1 1187 0
 2245 000a 5368     		ldr	r3, [r2, #4]
 2246 000c 1361     		str	r3, [r2, #16]
 2247              		.loc 1 1188 0
 2248 000e ABB1     		cbz	r3, .L233
 2249              	.LBB620:
 2250              		.loc 1 1193 0
 2251 0010 71B1     		cbz	r1, .L234
 2252              	.L232:
 2253 0012 5A1E     		subs	r2, r3, #1
 2254              	.LVL215:
 2255              	.L229:
 2256              		.loc 1 1199 0
 2257 0014 006D     		ldr	r0, [r0, #80]
 2258              	.LVL216:
 2259              		.loc 1 1197 0
 2260 0016 248A     		ldrh	r4, [r4, #16]
 2261              	.LVL217:
 2262              		.loc 1 1199 0
 2263 0018 00EB4111 		add	r1, r0, r1, lsl #5
 2264              	.LVL218:
 2265              		.loc 1 1197 0
 2266 001c 2244     		add	r2, r2, r4
 2267              	.LVL219:
 2268 001e B2FBF4F2 		udiv	r2, r2, r4
 2269              	.LVL220:
 2270              		.loc 1 1199 0
 2271 0022 43EAC243 		orr	r3, r3, r2, lsl #19
 2272 0026 C1F81039 		str	r3, [r1, #2320]
 2273              	.LBE620:
 2274              		.loc 1 1202 0
 2275 002a 5DF8044B 		ldr	r4, [sp], #4
 2276              		.cfi_remember_state
 2277              		.cfi_restore 4
 2278              		.cfi_def_cfa_offset 0
 2279 002e 7047     		bx	lr
 2280              	.LVL221:
ARM GAS  /tmp/ccHJRDHv.s 			page 41


 2281              	.L234:
 2282              		.cfi_restore_state
 2283              	.LBB621:
 2284              		.loc 1 1193 0 discriminator 1
 2285 0030 402B     		cmp	r3, #64
 2286 0032 EED9     		bls	.L232
 2287              		.loc 1 1194 0
 2288 0034 4023     		movs	r3, #64
 2289 0036 5360     		str	r3, [r2, #4]
 2290 0038 3F22     		movs	r2, #63
 2291              	.LVL222:
 2292 003a EBE7     		b	.L229
 2293              	.LVL223:
 2294              	.L233:
 2295              	.LBE621:
 2296              		.loc 1 1190 0
 2297 003c 036D     		ldr	r3, [r0, #80]
 2298              		.loc 1 1202 0
 2299 003e 5DF8044B 		ldr	r4, [sp], #4
 2300              		.cfi_restore 4
 2301              		.cfi_def_cfa_offset 0
 2302              		.loc 1 1190 0
 2303 0042 03EB4111 		add	r1, r3, r1, lsl #5
 2304              	.LVL224:
 2305 0046 4FF40023 		mov	r3, #524288
 2306 004a C1F81039 		str	r3, [r1, #2320]
 2307              		.loc 1 1202 0
 2308 004e 7047     		bx	lr
 2309              		.cfi_endproc
 2310              	.LFE285:
 2311              		.size	usb_lld_prepare_transmit, .-usb_lld_prepare_transmit
 2312              		.section	.text.otg_epin_handler.constprop.8,"ax",%progbits
 2313              		.align	2
 2314              		.p2align 4,,15
 2315              		.thumb
 2316              		.thumb_func
 2317              		.type	otg_epin_handler.constprop.8, %function
 2318              	otg_epin_handler.constprop.8:
 2319              	.LFB299:
 2320              		.loc 1 533 0
 2321              		.cfi_startproc
 2322              		@ args = 0, pretend = 0, frame = 0
 2323              		@ frame_needed = 0, uses_anonymous_args = 0
 2324              	.LVL225:
 2325 0000 F8B5     		push	{r3, r4, r5, r6, r7, lr}
 2326              		.cfi_def_cfa_offset 24
 2327              		.cfi_offset 3, -24
 2328              		.cfi_offset 4, -20
 2329              		.cfi_offset 5, -16
 2330              		.cfi_offset 6, -12
 2331              		.cfi_offset 7, -8
 2332              		.cfi_offset 14, -4
 2333              		.loc 1 534 0
 2334 0002 2B4F     		ldr	r7, .L254
 2335 0004 3D6D     		ldr	r5, [r7, #80]
 2336              	.LVL226:
 2337              		.loc 1 535 0
ARM GAS  /tmp/ccHJRDHv.s 			page 42


 2338 0006 05EB4013 		add	r3, r5, r0, lsl #5
 2339              		.loc 1 533 0
 2340 000a 0646     		mov	r6, r0
 2341              		.loc 1 535 0
 2342 000c D3F80849 		ldr	r4, [r3, #2312]
 2343              	.LVL227:
 2344              		.loc 1 537 0
 2345 0010 C3F80849 		str	r4, [r3, #2312]
 2346              		.loc 1 542 0
 2347 0014 E107     		lsls	r1, r4, #31
 2348 0016 03D5     		bpl	.L236
 2349 0018 D5F81038 		ldr	r3, [r5, #2064]
 2350 001c DA07     		lsls	r2, r3, #31
 2351 001e 08D4     		bmi	.L252
 2352              	.LVL228:
 2353              	.L236:
 2354              		.loc 1 562 0
 2355 0020 2306     		lsls	r3, r4, #24
 2356 0022 05D5     		bpl	.L235
 2357              		.loc 1 563 0
 2358 0024 0123     		movs	r3, #1
 2359 0026 D5F83428 		ldr	r2, [r5, #2100]
 2360 002a B340     		lsls	r3, r3, r6
 2361              		.loc 1 562 0
 2362 002c 1342     		tst	r3, r2
 2363 002e 23D1     		bne	.L253
 2364              	.L235:
 2365 0030 F8BD     		pop	{r3, r4, r5, r6, r7, pc}
 2366              	.LVL229:
 2367              	.L252:
 2368              	.LBB622:
 2369              		.loc 1 544 0
 2370 0032 07EB8003 		add	r3, r7, r0, lsl #2
 2371 0036 D968     		ldr	r1, [r3, #12]
 2372 0038 4B69     		ldr	r3, [r1, #20]
 2373              	.LVL230:
 2374              		.loc 1 546 0
 2375 003a 5868     		ldr	r0, [r3, #4]
 2376              	.LVL231:
 2377 003c 1A69     		ldr	r2, [r3, #16]
 2378 003e 9042     		cmp	r0, r2
 2379 0040 2AD2     		bcs	.L237
 2380              		.loc 1 550 0
 2381 0042 121A     		subs	r2, r2, r0
 2382              		.loc 1 551 0
 2383 0044 0021     		movs	r1, #0
 2384 0046 9960     		str	r1, [r3, #8]
 2385              		.loc 1 550 0
 2386 0048 5A60     		str	r2, [r3, #4]
 2387              		.loc 1 552 0
 2388 004a 3846     		mov	r0, r7
 2389 004c 3146     		mov	r1, r6
 2390 004e FFF7FEFF 		bl	usb_lld_prepare_transmit
 2391              	.LVL232:
 2392              	.LBB623:
 2393              	.LBB624:
 2394              	.LBB625:
ARM GAS  /tmp/ccHJRDHv.s 			page 43


 2395              	.LBB626:
 2396              	.LBB627:
 2397              	.LBB628:
 2398              		.loc 3 342 0
 2399              	@ 342 "ChibiOS_3.0.2/os/ext/CMSIS/include/core_cmFunc.h" 1
 2400 0052 72B6     		cpsid i
 2401              	@ 0 "" 2
 2402              	.LVL233:
 2403              		.thumb
 2404              	.LBE628:
 2405              	.LBE627:
 2406              	.LBE626:
 2407              	.LBE625:
 2408              	.LBE624:
 2409              	.LBE623:
 2410              	.LBB629:
 2411              	.LBB630:
 2412              		.loc 1 1227 0
 2413 0054 3B6D     		ldr	r3, [r7, #80]
 2414 0056 03EB4610 		add	r0, r3, r6, lsl #5
 2415              		.loc 1 1228 0
 2416 005a 0122     		movs	r2, #1
 2417              		.loc 1 1227 0
 2418 005c D0F80019 		ldr	r1, [r0, #2304]
 2419 0060 41F00441 		orr	r1, r1, #-2080374784
 2420 0064 C0F80019 		str	r1, [r0, #2304]
 2421              		.loc 1 1228 0
 2422 0068 D3F83418 		ldr	r1, [r3, #2100]
 2423 006c B240     		lsls	r2, r2, r6
 2424 006e 0A43     		orrs	r2, r2, r1
 2425 0070 C3F83428 		str	r2, [r3, #2100]
 2426              	.LBE630:
 2427              	.LBE629:
 2428              	.LBB631:
 2429              	.LBB632:
 2430              	.LBB633:
 2431              	.LBB634:
 2432              	.LBB635:
 2433              	.LBB636:
 2434              		.loc 3 331 0
 2435              	@ 331 "ChibiOS_3.0.2/os/ext/CMSIS/include/core_cmFunc.h" 1
 2436 0074 62B6     		cpsie i
 2437              	@ 0 "" 2
 2438              		.thumb
 2439 0076 D3E7     		b	.L236
 2440              	.LVL234:
 2441              	.L253:
 2442              	.LBE636:
 2443              	.LBE635:
 2444              	.LBE634:
 2445              	.LBE633:
 2446              	.LBE632:
 2447              	.LBE631:
 2448              	.LBE622:
 2449              	.LBB637:
 2450              	.LBB638:
 2451              	.LBB639:
ARM GAS  /tmp/ccHJRDHv.s 			page 44


 2452              	.LBB640:
 2453              	.LBB641:
 2454              	.LBB642:
 2455              		.loc 3 342 0
 2456              	@ 342 "ChibiOS_3.0.2/os/ext/CMSIS/include/core_cmFunc.h" 1
 2457 0078 72B6     		cpsid i
 2458              	@ 0 "" 2
 2459              		.thumb
 2460              	.LBE642:
 2461              	.LBE641:
 2462              	.LBE640:
 2463              	.LBE639:
 2464              	.LBE638:
 2465              	.LBE637:
 2466              		.loc 1 567 0
 2467 007a D5F83418 		ldr	r1, [r5, #2100]
 2468              		.loc 1 566 0
 2469 007e FA6D     		ldr	r2, [r7, #92]
 2470              	.LBB643:
 2471              	.LBB644:
 2472              		.loc 4 728 0
 2473 0080 0C48     		ldr	r0, .L254+4
 2474              	.LBE644:
 2475              	.LBE643:
 2476              		.loc 1 567 0
 2477 0082 21EA0301 		bic	r1, r1, r3
 2478 0086 C5F83418 		str	r1, [r5, #2100]
 2479              	.LVL235:
 2480              		.loc 1 566 0
 2481 008a 1343     		orrs	r3, r3, r2
 2482              	.LBB647:
 2483              	.LBB645:
 2484              		.loc 4 728 0
 2485 008c 0021     		movs	r1, #0
 2486              	.LBE645:
 2487              	.LBE647:
 2488              		.loc 1 566 0
 2489 008e FB65     		str	r3, [r7, #92]
 2490              	.LBB648:
 2491              	.LBB646:
 2492              		.loc 4 728 0
 2493 0090 FFF7FEFF 		bl	chThdResumeI
 2494              	.LVL236:
 2495              	.LBE646:
 2496              	.LBE648:
 2497              	.LBB649:
 2498              	.LBB650:
 2499              	.LBB651:
 2500              	.LBB652:
 2501              	.LBB653:
 2502              	.LBB654:
 2503              		.loc 3 331 0
 2504              	@ 331 "ChibiOS_3.0.2/os/ext/CMSIS/include/core_cmFunc.h" 1
 2505 0094 62B6     		cpsie i
 2506              	@ 0 "" 2
 2507              		.thumb
 2508 0096 F8BD     		pop	{r3, r4, r5, r6, r7, pc}
ARM GAS  /tmp/ccHJRDHv.s 			page 45


 2509              	.LVL237:
 2510              	.L237:
 2511              	.LBE654:
 2512              	.LBE653:
 2513              	.LBE652:
 2514              	.LBE651:
 2515              	.LBE650:
 2516              	.LBE649:
 2517              	.LBB655:
 2518              		.loc 1 559 0
 2519 0098 3A89     		ldrh	r2, [r7, #8]
 2520 009a D1F808C0 		ldr	ip, [r1, #8]
 2521 009e 0123     		movs	r3, #1
 2522              	.LVL238:
 2523 00a0 B340     		lsls	r3, r3, r6
 2524 00a2 22EA0303 		bic	r3, r2, r3
 2525 00a6 3B81     		strh	r3, [r7, #8]	@ movhi
 2526 00a8 3846     		mov	r0, r7
 2527 00aa 3146     		mov	r1, r6
 2528              	.LVL239:
 2529 00ac E047     		blx	ip
 2530              	.LVL240:
 2531 00ae B7E7     		b	.L236
 2532              	.L255:
 2533              		.align	2
 2534              	.L254:
 2535 00b0 00000000 		.word	.LANCHOR0
 2536 00b4 60000000 		.word	.LANCHOR0+96
 2537              	.LBE655:
 2538              		.cfi_endproc
 2539              	.LFE299:
 2540              		.size	otg_epin_handler.constprop.8, .-otg_epin_handler.constprop.8
 2541              		.section	.text.Vector14C,"ax",%progbits
 2542              		.align	2
 2543              		.p2align 4,,15
 2544              		.global	Vector14C
 2545              		.thumb
 2546              		.thumb_func
 2547              		.type	Vector14C, %function
 2548              	Vector14C:
 2549              	.LFB273:
 2550              		.loc 1 706 0
 2551              		.cfi_startproc
 2552              		@ args = 0, pretend = 0, frame = 0
 2553              		@ frame_needed = 0, uses_anonymous_args = 0
 2554              	.LVL241:
 2555 0000 70B5     		push	{r4, r5, r6, lr}
 2556              		.cfi_def_cfa_offset 16
 2557              		.cfi_offset 4, -16
 2558              		.cfi_offset 5, -12
 2559              		.cfi_offset 6, -8
 2560              		.cfi_offset 14, -4
 2561              	.LBB672:
 2562              	.LBB673:
 2563              		.loc 1 624 0
 2564 0002 384E     		ldr	r6, .L325
 2565 0004 356D     		ldr	r5, [r6, #80]
ARM GAS  /tmp/ccHJRDHv.s 			page 46


 2566              	.LVL242:
 2567              		.loc 1 627 0
 2568 0006 6B69     		ldr	r3, [r5, #20]
 2569              	.LVL243:
 2570              		.loc 1 628 0
 2571 0008 AC69     		ldr	r4, [r5, #24]
 2572 000a 1C40     		ands	r4, r4, r3
 2573              	.LVL244:
 2574              		.loc 1 632 0
 2575 000c E104     		lsls	r1, r4, #19
 2576              		.loc 1 629 0
 2577 000e 6C61     		str	r4, [r5, #20]
 2578              		.loc 1 632 0
 2579 0010 2DD4     		bmi	.L315
 2580              	.L258:
 2581              		.loc 1 638 0
 2582 0012 A204     		lsls	r2, r4, #18
 2583              		.loc 1 639 0
 2584 0014 48BF     		it	mi
 2585 0016 D5F80838 		ldrmi	r3, [r5, #2056]
 2586              		.loc 1 643 0
 2587 001a 2307     		lsls	r3, r4, #28
 2588 001c 04D5     		bpl	.L261
 2589              		.loc 1 644 0
 2590 001e 7368     		ldr	r3, [r6, #4]
 2591 0020 DB68     		ldr	r3, [r3, #12]
 2592 0022 0BB1     		cbz	r3, .L261
 2593 0024 2F48     		ldr	r0, .L325
 2594 0026 9847     		blx	r3
 2595              	.LVL245:
 2596              	.L261:
 2597              		.loc 1 648 0
 2598 0028 E606     		lsls	r6, r4, #27
 2599 002a 2BD4     		bmi	.L316
 2600              	.L262:
 2601              		.loc 1 659 0
 2602 002c 6003     		lsls	r0, r4, #13
 2603              		.loc 1 658 0
 2604 002e D5F81858 		ldr	r5, [r5, #2072]
 2605              	.LVL246:
 2606              		.loc 1 659 0
 2607 0032 07D5     		bpl	.L264
 2608              		.loc 1 660 0
 2609 0034 E907     		lsls	r1, r5, #31
 2610 0036 41D4     		bmi	.L317
 2611              		.loc 1 662 0
 2612 0038 AA07     		lsls	r2, r5, #30
 2613 003a 44D4     		bmi	.L318
 2614              	.L266:
 2615              		.loc 1 664 0
 2616 003c 6B07     		lsls	r3, r5, #29
 2617 003e 47D4     		bmi	.L319
 2618              	.L267:
 2619              		.loc 1 666 0
 2620 0040 2E07     		lsls	r6, r5, #28
 2621 0042 4AD4     		bmi	.L320
 2622              	.L264:
ARM GAS  /tmp/ccHJRDHv.s 			page 47


 2623              		.loc 1 675 0
 2624 0044 2403     		lsls	r4, r4, #12
 2625              	.LVL247:
 2626 0046 07D5     		bpl	.L270
 2627              		.loc 1 676 0
 2628 0048 E803     		lsls	r0, r5, #15
 2629 004a 2CD4     		bmi	.L321
 2630              		.loc 1 678 0
 2631 004c A903     		lsls	r1, r5, #14
 2632 004e 2FD4     		bmi	.L322
 2633              	.L272:
 2634              		.loc 1 680 0
 2635 0050 6A03     		lsls	r2, r5, #13
 2636 0052 22D4     		bmi	.L323
 2637              	.L273:
 2638              		.loc 1 682 0
 2639 0054 2B03     		lsls	r3, r5, #12
 2640 0056 03D4     		bmi	.L324
 2641              	.L270:
 2642              	.LBE673:
 2643              	.LBE672:
 2644              		.loc 1 713 0
 2645 0058 BDE87040 		pop	{r4, r5, r6, lr}
 2646              		.cfi_remember_state
 2647              		.cfi_restore 14
 2648              		.cfi_restore 6
 2649              		.cfi_restore 5
 2650              		.cfi_restore 4
 2651              		.cfi_def_cfa_offset 0
 2652              	.LVL248:
 2653              		.loc 1 712 0
 2654 005c FFF7FEBF 		b	_port_irq_epilogue
 2655              	.LVL249:
 2656              	.L324:
 2657              		.cfi_restore_state
 2658              	.LBB692:
 2659              	.LBB690:
 2660              		.loc 1 683 0
 2661 0060 0320     		movs	r0, #3
 2662 0062 FFF7FEFF 		bl	otg_epout_handler.constprop.7
 2663              	.LVL250:
 2664              	.LBE690:
 2665              	.LBE692:
 2666              		.loc 1 713 0
 2667 0066 BDE87040 		pop	{r4, r5, r6, lr}
 2668              		.cfi_remember_state
 2669              		.cfi_restore 4
 2670              		.cfi_restore 5
 2671              		.cfi_restore 6
 2672              		.cfi_restore 14
 2673              		.cfi_def_cfa_offset 0
 2674              	.LVL251:
 2675              		.loc 1 712 0
 2676 006a FFF7FEBF 		b	_port_irq_epilogue
 2677              	.LVL252:
 2678              	.L315:
 2679              		.cfi_restore_state
ARM GAS  /tmp/ccHJRDHv.s 			page 48


 2680              	.LBB693:
 2681              	.LBB691:
 2682              		.loc 1 633 0
 2683 006e 3046     		mov	r0, r6
 2684 0070 FFF7FEFF 		bl	_usb_reset
 2685              	.LVL253:
 2686              		.loc 1 634 0
 2687 0074 7368     		ldr	r3, [r6, #4]
 2688 0076 1B68     		ldr	r3, [r3]
 2689 0078 002B     		cmp	r3, #0
 2690 007a CAD0     		beq	.L258
 2691 007c 3046     		mov	r0, r6
 2692 007e 0021     		movs	r1, #0
 2693 0080 9847     		blx	r3
 2694              	.LVL254:
 2695 0082 C6E7     		b	.L258
 2696              	.L316:
 2697              	.LBB674:
 2698              	.LBB675:
 2699              	.LBB676:
 2700              	.LBB677:
 2701              	.LBB678:
 2702              	.LBB679:
 2703              		.loc 3 342 0
 2704              	@ 342 "ChibiOS_3.0.2/os/ext/CMSIS/include/core_cmFunc.h" 1
 2705 0084 72B6     		cpsid i
 2706              	@ 0 "" 2
 2707              		.thumb
 2708              	.LBE679:
 2709              	.LBE678:
 2710              	.LBE677:
 2711              	.LBE676:
 2712              	.LBE675:
 2713              	.LBE674:
 2714              		.loc 1 652 0
 2715 0086 AB69     		ldr	r3, [r5, #24]
 2716              	.LBB680:
 2717              	.LBB681:
 2718              		.loc 4 728 0
 2719 0088 1748     		ldr	r0, .L325+4
 2720              	.LBE681:
 2721              	.LBE680:
 2722              		.loc 1 652 0
 2723 008a 23F01003 		bic	r3, r3, #16
 2724 008e AB61     		str	r3, [r5, #24]
 2725              	.LVL255:
 2726              	.LBB683:
 2727              	.LBB682:
 2728              		.loc 4 728 0
 2729 0090 0021     		movs	r1, #0
 2730 0092 FFF7FEFF 		bl	chThdResumeI
 2731              	.LVL256:
 2732              	.LBE682:
 2733              	.LBE683:
 2734              	.LBB684:
 2735              	.LBB685:
 2736              	.LBB686:
ARM GAS  /tmp/ccHJRDHv.s 			page 49


 2737              	.LBB687:
 2738              	.LBB688:
 2739              	.LBB689:
 2740              		.loc 3 331 0
 2741              	@ 331 "ChibiOS_3.0.2/os/ext/CMSIS/include/core_cmFunc.h" 1
 2742 0096 62B6     		cpsie i
 2743              	@ 0 "" 2
 2744              		.thumb
 2745 0098 C8E7     		b	.L262
 2746              	.LVL257:
 2747              	.L323:
 2748              	.LBE689:
 2749              	.LBE688:
 2750              	.LBE687:
 2751              	.LBE686:
 2752              	.LBE685:
 2753              	.LBE684:
 2754              		.loc 1 681 0
 2755 009a 0220     		movs	r0, #2
 2756 009c FFF7FEFF 		bl	otg_epout_handler.constprop.7
 2757              	.LVL258:
 2758              		.loc 1 682 0
 2759 00a0 2B03     		lsls	r3, r5, #12
 2760 00a2 D9D5     		bpl	.L270
 2761 00a4 DCE7     		b	.L324
 2762              	.L321:
 2763              		.loc 1 677 0
 2764 00a6 0020     		movs	r0, #0
 2765 00a8 FFF7FEFF 		bl	otg_epout_handler.constprop.7
 2766              	.LVL259:
 2767              		.loc 1 678 0
 2768 00ac A903     		lsls	r1, r5, #14
 2769 00ae CFD5     		bpl	.L272
 2770              	.L322:
 2771              		.loc 1 679 0
 2772 00b0 0120     		movs	r0, #1
 2773 00b2 FFF7FEFF 		bl	otg_epout_handler.constprop.7
 2774              	.LVL260:
 2775              		.loc 1 680 0
 2776 00b6 6A03     		lsls	r2, r5, #13
 2777 00b8 CCD5     		bpl	.L273
 2778 00ba EEE7     		b	.L323
 2779              	.LVL261:
 2780              	.L317:
 2781              		.loc 1 661 0
 2782 00bc 0020     		movs	r0, #0
 2783 00be FFF7FEFF 		bl	otg_epin_handler.constprop.8
 2784              	.LVL262:
 2785              		.loc 1 662 0
 2786 00c2 AA07     		lsls	r2, r5, #30
 2787 00c4 BAD5     		bpl	.L266
 2788              	.L318:
 2789              		.loc 1 663 0
 2790 00c6 0120     		movs	r0, #1
 2791 00c8 FFF7FEFF 		bl	otg_epin_handler.constprop.8
 2792              	.LVL263:
 2793              		.loc 1 664 0
ARM GAS  /tmp/ccHJRDHv.s 			page 50


 2794 00cc 6B07     		lsls	r3, r5, #29
 2795 00ce B7D5     		bpl	.L267
 2796              	.L319:
 2797              		.loc 1 665 0
 2798 00d0 0220     		movs	r0, #2
 2799 00d2 FFF7FEFF 		bl	otg_epin_handler.constprop.8
 2800              	.LVL264:
 2801              		.loc 1 666 0
 2802 00d6 2E07     		lsls	r6, r5, #28
 2803 00d8 B4D5     		bpl	.L264
 2804              	.L320:
 2805              		.loc 1 667 0
 2806 00da 0320     		movs	r0, #3
 2807 00dc FFF7FEFF 		bl	otg_epin_handler.constprop.8
 2808              	.LVL265:
 2809 00e0 B0E7     		b	.L264
 2810              	.L326:
 2811 00e2 00BF     		.align	2
 2812              	.L325:
 2813 00e4 00000000 		.word	.LANCHOR0
 2814 00e8 60000000 		.word	.LANCHOR0+96
 2815              	.LBE691:
 2816              	.LBE693:
 2817              		.cfi_endproc
 2818              	.LFE273:
 2819              		.size	Vector14C, .-Vector14C
 2820              		.section	.text.usb_lld_start_out,"ax",%progbits
 2821              		.align	2
 2822              		.p2align 4,,15
 2823              		.global	usb_lld_start_out
 2824              		.thumb
 2825              		.thumb_func
 2826              		.type	usb_lld_start_out, %function
 2827              	usb_lld_start_out:
 2828              	.LFB286:
 2829              		.loc 1 1212 0
 2830              		.cfi_startproc
 2831              		@ args = 0, pretend = 0, frame = 0
 2832              		@ frame_needed = 0, uses_anonymous_args = 0
 2833              		@ link register save eliminated.
 2834              	.LVL266:
 2835 0000 036D     		ldr	r3, [r0, #80]
 2836 0002 03EB4111 		add	r1, r3, r1, lsl #5
 2837              	.LVL267:
 2838              		.loc 1 1214 0
 2839 0006 D1F8003B 		ldr	r3, [r1, #2816]
 2840 000a 43F08063 		orr	r3, r3, #67108864
 2841 000e C1F8003B 		str	r3, [r1, #2816]
 2842 0012 7047     		bx	lr
 2843              		.cfi_endproc
 2844              	.LFE286:
 2845              		.size	usb_lld_start_out, .-usb_lld_start_out
 2846              		.section	.text.usb_lld_start_in,"ax",%progbits
 2847              		.align	2
 2848              		.p2align 4,,15
 2849              		.global	usb_lld_start_in
 2850              		.thumb
ARM GAS  /tmp/ccHJRDHv.s 			page 51


 2851              		.thumb_func
 2852              		.type	usb_lld_start_in, %function
 2853              	usb_lld_start_in:
 2854              	.LFB287:
 2855              		.loc 1 1225 0
 2856              		.cfi_startproc
 2857              		@ args = 0, pretend = 0, frame = 0
 2858              		@ frame_needed = 0, uses_anonymous_args = 0
 2859              		@ link register save eliminated.
 2860              	.LVL268:
 2861              		.loc 1 1227 0
 2862 0000 036D     		ldr	r3, [r0, #80]
 2863              		.loc 1 1225 0
 2864 0002 10B4     		push	{r4}
 2865              		.cfi_def_cfa_offset 4
 2866              		.cfi_offset 4, -4
 2867 0004 03EB4114 		add	r4, r3, r1, lsl #5
 2868              		.loc 1 1228 0
 2869 0008 0122     		movs	r2, #1
 2870              		.loc 1 1227 0
 2871 000a D4F80009 		ldr	r0, [r4, #2304]
 2872              	.LVL269:
 2873 000e 40F00440 		orr	r0, r0, #-2080374784
 2874 0012 C4F80009 		str	r0, [r4, #2304]
 2875              		.loc 1 1228 0
 2876 0016 D3F83408 		ldr	r0, [r3, #2100]
 2877              		.loc 1 1229 0
 2878 001a 5DF8044B 		ldr	r4, [sp], #4
 2879              		.cfi_restore 4
 2880              		.cfi_def_cfa_offset 0
 2881              		.loc 1 1228 0
 2882 001e 8A40     		lsls	r2, r2, r1
 2883 0020 0243     		orrs	r2, r2, r0
 2884 0022 C3F83428 		str	r2, [r3, #2100]
 2885              		.loc 1 1229 0
 2886 0026 7047     		bx	lr
 2887              		.cfi_endproc
 2888              	.LFE287:
 2889              		.size	usb_lld_start_in, .-usb_lld_start_in
 2890              		.section	.text.usb_lld_stall_out,"ax",%progbits
 2891              		.align	2
 2892              		.p2align 4,,15
 2893              		.global	usb_lld_stall_out
 2894              		.thumb
 2895              		.thumb_func
 2896              		.type	usb_lld_stall_out, %function
 2897              	usb_lld_stall_out:
 2898              	.LFB288:
 2899              		.loc 1 1239 0
 2900              		.cfi_startproc
 2901              		@ args = 0, pretend = 0, frame = 0
 2902              		@ frame_needed = 0, uses_anonymous_args = 0
 2903              		@ link register save eliminated.
 2904              	.LVL270:
 2905 0000 036D     		ldr	r3, [r0, #80]
 2906 0002 03EB4111 		add	r1, r3, r1, lsl #5
 2907              	.LVL271:
ARM GAS  /tmp/ccHJRDHv.s 			page 52


 2908              		.loc 1 1241 0
 2909 0006 D1F8003B 		ldr	r3, [r1, #2816]
 2910 000a 43F40013 		orr	r3, r3, #2097152
 2911 000e C1F8003B 		str	r3, [r1, #2816]
 2912 0012 7047     		bx	lr
 2913              		.cfi_endproc
 2914              	.LFE288:
 2915              		.size	usb_lld_stall_out, .-usb_lld_stall_out
 2916              		.section	.text.usb_lld_stall_in,"ax",%progbits
 2917              		.align	2
 2918              		.p2align 4,,15
 2919              		.global	usb_lld_stall_in
 2920              		.thumb
 2921              		.thumb_func
 2922              		.type	usb_lld_stall_in, %function
 2923              	usb_lld_stall_in:
 2924              	.LFB289:
 2925              		.loc 1 1252 0
 2926              		.cfi_startproc
 2927              		@ args = 0, pretend = 0, frame = 0
 2928              		@ frame_needed = 0, uses_anonymous_args = 0
 2929              		@ link register save eliminated.
 2930              	.LVL272:
 2931 0000 036D     		ldr	r3, [r0, #80]
 2932 0002 03EB4111 		add	r1, r3, r1, lsl #5
 2933              	.LVL273:
 2934              		.loc 1 1254 0
 2935 0006 D1F80039 		ldr	r3, [r1, #2304]
 2936 000a 43F40013 		orr	r3, r3, #2097152
 2937 000e C1F80039 		str	r3, [r1, #2304]
 2938 0012 7047     		bx	lr
 2939              		.cfi_endproc
 2940              	.LFE289:
 2941              		.size	usb_lld_stall_in, .-usb_lld_stall_in
 2942              		.section	.text.usb_lld_clear_out,"ax",%progbits
 2943              		.align	2
 2944              		.p2align 4,,15
 2945              		.global	usb_lld_clear_out
 2946              		.thumb
 2947              		.thumb_func
 2948              		.type	usb_lld_clear_out, %function
 2949              	usb_lld_clear_out:
 2950              	.LFB290:
 2951              		.loc 1 1265 0
 2952              		.cfi_startproc
 2953              		@ args = 0, pretend = 0, frame = 0
 2954              		@ frame_needed = 0, uses_anonymous_args = 0
 2955              		@ link register save eliminated.
 2956              	.LVL274:
 2957 0000 036D     		ldr	r3, [r0, #80]
 2958 0002 03EB4111 		add	r1, r3, r1, lsl #5
 2959              	.LVL275:
 2960              		.loc 1 1267 0
 2961 0006 D1F8003B 		ldr	r3, [r1, #2816]
 2962 000a 23F40013 		bic	r3, r3, #2097152
 2963 000e C1F8003B 		str	r3, [r1, #2816]
 2964 0012 7047     		bx	lr
ARM GAS  /tmp/ccHJRDHv.s 			page 53


 2965              		.cfi_endproc
 2966              	.LFE290:
 2967              		.size	usb_lld_clear_out, .-usb_lld_clear_out
 2968              		.section	.text.usb_lld_clear_in,"ax",%progbits
 2969              		.align	2
 2970              		.p2align 4,,15
 2971              		.global	usb_lld_clear_in
 2972              		.thumb
 2973              		.thumb_func
 2974              		.type	usb_lld_clear_in, %function
 2975              	usb_lld_clear_in:
 2976              	.LFB291:
 2977              		.loc 1 1278 0
 2978              		.cfi_startproc
 2979              		@ args = 0, pretend = 0, frame = 0
 2980              		@ frame_needed = 0, uses_anonymous_args = 0
 2981              		@ link register save eliminated.
 2982              	.LVL276:
 2983 0000 036D     		ldr	r3, [r0, #80]
 2984 0002 03EB4111 		add	r1, r3, r1, lsl #5
 2985              	.LVL277:
 2986              		.loc 1 1280 0
 2987 0006 D1F80039 		ldr	r3, [r1, #2304]
 2988 000a 23F40013 		bic	r3, r3, #2097152
 2989 000e C1F80039 		str	r3, [r1, #2304]
 2990 0012 7047     		bx	lr
 2991              		.cfi_endproc
 2992              	.LFE291:
 2993              		.size	usb_lld_clear_in, .-usb_lld_clear_in
 2994              		.global	USBD1
 2995              		.section	.rodata.fsparams,"a",%progbits
 2996              		.align	2
 2997              		.set	.LANCHOR1,. + 0
 2998              		.type	fsparams, %object
 2999              		.size	fsparams, 12
 3000              	fsparams:
 3001 0000 80000000 		.word	128
 3002 0004 40010000 		.word	320
 3003 0008 03000000 		.word	3
 3004              		.section	.bss.USBD1,"aw",%nobits
 3005              		.align	3
 3006              		.set	.LANCHOR0,. + 0
 3007              		.type	USBD1, %object
 3008              		.size	USBD1, 640
 3009              	USBD1:
 3010 0000 00000000 		.space	640
 3010      00000000 
 3010      00000000 
 3010      00000000 
 3010      00000000 
 3011              		.section	.rodata.str1.4,"aMS",%progbits,1
 3012              		.align	2
 3013              	.LC0:
 3014 0000 7573625F 		.ascii	"usb_lld_pump\000"
 3014      6C6C645F 
 3014      70756D70 
 3014      00
ARM GAS  /tmp/ccHJRDHv.s 			page 54


 3015              		.section	.rodata.ep0config,"a",%progbits
 3016              		.align	2
 3017              		.set	.LANCHOR2,. + 0
 3018              		.type	ep0config, %object
 3019              		.size	ep0config, 36
 3020              	ep0config:
 3021 0000 00000000 		.word	0
 3022 0004 00000000 		.word	_usb_ep0setup
 3023 0008 00000000 		.word	_usb_ep0in
 3024 000c 00000000 		.word	_usb_ep0out
 3025 0010 4000     		.short	64
 3026 0012 4000     		.short	64
 3027 0014 00000000 		.word	ep0_state
 3028 0018 00000000 		.word	ep0_state
 3029 001c 0100     		.short	1
 3030 001e 0000     		.space	2
 3031 0020 00000000 		.word	ep0setup_buffer
 3032              		.section	.bss.ep0_state,"aw",%nobits
 3033              		.align	2
 3034              		.type	ep0_state, %object
 3035              		.size	ep0_state, 20
 3036              	ep0_state:
 3037 0000 00000000 		.space	20
 3037      00000000 
 3037      00000000 
 3037      00000000 
 3037      00000000 
 3038              		.section	.bss.ep0setup_buffer,"aw",%nobits
 3039              		.align	2
 3040              		.type	ep0setup_buffer, %object
 3041              		.size	ep0setup_buffer, 8
 3042              	ep0setup_buffer:
 3043 0000 00000000 		.space	8
 3043      00000000 
 3044              		.text
 3045              	.Letext0:
 3046              		.file 6 "/usr/lib/gcc/arm-none-eabi/4.9.3/include/stddef.h"
 3047              		.file 7 "/usr/arm-none-eabi/include/machine/_default_types.h"
 3048              		.file 8 "/usr/arm-none-eabi/include/sys/_stdint.h"
 3049              		.file 9 "ChibiOS_3.0.2/os/rt/ports/ARMCMx/compilers/GCC/chtypes.h"
 3050              		.file 10 "ChibiOS_3.0.2/os/rt/include/chsystypes.h"
 3051              		.file 11 "ChibiOS_3.0.2/os/rt/include/chschd.h"
 3052              		.file 12 "ChibiOS_3.0.2/os/ext/CMSIS/ST/stm32f407xx.h"
 3053              		.file 13 "ChibiOS_3.0.2/os/rt/ports/ARMCMx/chcore.h"
 3054              		.file 14 "ChibiOS_3.0.2/os/rt/ports/ARMCMx/chcore_v7m.h"
 3055              		.file 15 "ChibiOS_3.0.2/os/rt/include/chtm.h"
 3056              		.file 16 "ChibiOS_3.0.2/os/rt/include/chsem.h"
 3057              		.file 17 "ChibiOS_3.0.2/os/rt/include/chmtx.h"
 3058              		.file 18 "ChibiOS_3.0.2/os/rt/include/chqueues.h"
 3059              		.file 19 "ChibiOS_3.0.2/os/hal/include/usb.h"
 3060              		.file 20 "ChibiOS_3.0.2/os/hal/ports/STM32/LLD/OTGv1/usb_lld.h"
 3061              		.file 21 "ChibiOS_3.0.2/os/hal/ports/STM32/LLD/OTGv1/stm32_otg.h"
 3062              		.file 22 "ChibiOS_3.0.2/os/rt/include/chsys.h"
 3063              		.file 23 "ChibiOS_3.0.2/os/ext/CMSIS/include/core_cm4.h"
 3064              		.file 24 "ChibiOS_3.0.2/os/hal/ports/common/ARMCMx/nvic.h"