ARM GAS  /tmp/ccVhibFx.s 			page 1


   1              		.syntax unified
   2              		.cpu cortex-m4
   3              		.eabi_attribute 27, 1
   4              		.eabi_attribute 28, 1
   5              		.fpu fpv4-sp-d16
   6              		.eabi_attribute 20, 1
   7              		.eabi_attribute 21, 1
   8              		.eabi_attribute 23, 3
   9              		.eabi_attribute 24, 1
  10              		.eabi_attribute 25, 1
  11              		.eabi_attribute 26, 1
  12              		.eabi_attribute 30, 2
  13              		.eabi_attribute 34, 1
  14              		.eabi_attribute 18, 4
  15              		.thumb
  16              		.file	"util.c"
  17              		.text
  18              	.Ltext0:
  19              		.cfi_sections	.debug_frame
  20              		.section	.text.utilChipIdToStr,"ax",%progbits
  21              		.align	2
  22              		.p2align 4,,15
  23              		.global	utilChipIdToStr
  24              		.thumb
  25              		.thumb_func
  26              		.type	utilChipIdToStr, %function
  27              	utilChipIdToStr:
  28              	.LFB256:
  29              		.file 1 "cc2520/driver/util.c"
  30              		.loc 1 30 0
  31              		.cfi_startproc
  32              		@ args = 0, pretend = 0, frame = 0
  33              		@ frame_needed = 0, uses_anonymous_args = 0
  34              		@ link register save eliminated.
  35              	.LVL0:
  36              		.loc 1 33 0
  37 0000 8428     		cmp	r0, #132
  38 0002 28D0     		beq	.L3
  39 0004 08D9     		bls	.L18
  40 0006 9128     		cmp	r0, #145
  41 0008 23D0     		beq	.L10
  42 000a 0ED8     		bhi	.L11
  43 000c 8528     		cmp	r0, #133
  44 000e 16D0     		beq	.L12
  45 0010 8928     		cmp	r0, #137
  46 0012 1AD1     		bne	.L2
  47              	.LVL1:
  48              		.loc 1 41 0
  49 0014 1148     		ldr	r0, .L20
  50              	.LVL2:
  51              		.loc 1 42 0
  52 0016 7047     		bx	lr
  53              	.LVL3:
  54              	.L18:
  55              		.loc 1 33 0
  56 0018 0228     		cmp	r0, #2
  57 001a 18D0     		beq	.L16
ARM GAS  /tmp/ccVhibFx.s 			page 2


  58 001c 11D9     		bls	.L19
  59 001e 1128     		cmp	r0, #17
  60 0020 09D0     		beq	.L8
  61 0022 8128     		cmp	r0, #129
  62 0024 11D1     		bne	.L2
  63              	.LVL4:
  64              		.loc 1 53 0
  65 0026 0E48     		ldr	r0, .L20+4
  66              	.LVL5:
  67              		.loc 1 54 0
  68 0028 7047     		bx	lr
  69              	.LVL6:
  70              	.L11:
  71              		.loc 1 33 0
  72 002a A528     		cmp	r0, #165
  73 002c 05D0     		beq	.L14
  74 002e B528     		cmp	r0, #181
  75 0030 0BD1     		bne	.L2
  76              	.LVL7:
  77              		.loc 1 50 0
  78 0032 0C48     		ldr	r0, .L20+8
  79              	.LVL8:
  80              		.loc 1 51 0
  81 0034 7047     		bx	lr
  82              	.LVL9:
  83              	.L8:
  84              		.loc 1 62 0
  85 0036 0C48     		ldr	r0, .L20+12
  86              	.LVL10:
  87              		.loc 1 63 0
  88 0038 7047     		bx	lr
  89              	.LVL11:
  90              	.L14:
  91              		.loc 1 47 0
  92 003a 0C48     		ldr	r0, .L20+16
  93              	.LVL12:
  94              		.loc 1 48 0
  95 003c 7047     		bx	lr
  96              	.LVL13:
  97              	.L12:
  98              		.loc 1 38 0
  99 003e 0C48     		ldr	r0, .L20+20
 100              	.LVL14:
 101 0040 7047     		bx	lr
 102              	.LVL15:
 103              	.L19:
 104              		.loc 1 33 0
 105 0042 0128     		cmp	r0, #1
 106 0044 01D1     		bne	.L2
 107              	.LVL16:
 108              		.loc 1 59 0
 109 0046 0B48     		ldr	r0, .L20+24
 110              	.LVL17:
 111              		.loc 1 60 0
 112 0048 7047     		bx	lr
 113              	.LVL18:
 114              	.L2:
ARM GAS  /tmp/ccVhibFx.s 			page 3


 115              		.loc 1 65 0
 116 004a 0B48     		ldr	r0, .L20+28
 117              	.LVL19:
 118              		.loc 1 66 0
 119 004c 7047     		bx	lr
 120              	.LVL20:
 121              	.L16:
 122              		.loc 1 35 0
 123 004e 0B48     		ldr	r0, .L20+32
 124              	.LVL21:
 125              		.loc 1 70 0
 126 0050 7047     		bx	lr
 127              	.LVL22:
 128              	.L10:
 129              		.loc 1 56 0
 130 0052 0B48     		ldr	r0, .L20+36
 131              	.LVL23:
 132              		.loc 1 57 0
 133 0054 7047     		bx	lr
 134              	.LVL24:
 135              	.L3:
 136              		.loc 1 44 0
 137 0056 0B48     		ldr	r0, .L20+40
 138              	.LVL25:
 139              		.loc 1 45 0
 140 0058 7047     		bx	lr
 141              	.L21:
 142 005a 00BF     		.align	2
 143              	.L20:
 144 005c 10000000 		.word	.LC2
 145 0060 30000000 		.word	.LC6
 146 0064 28000000 		.word	.LC5
 147 0068 48000000 		.word	.LC9
 148 006c 20000000 		.word	.LC4
 149 0070 08000000 		.word	.LC1
 150 0074 40000000 		.word	.LC8
 151 0078 50000000 		.word	.LC10
 152 007c 00000000 		.word	.LC0
 153 0080 38000000 		.word	.LC7
 154 0084 18000000 		.word	.LC3
 155              		.cfi_endproc
 156              	.LFE256:
 157              		.size	utilChipIdToStr, .-utilChipIdToStr
 158              		.section	.text.convInt32ToText,"ax",%progbits
 159              		.align	2
 160              		.p2align 4,,15
 161              		.global	convInt32ToText
 162              		.thumb
 163              		.thumb_func
 164              		.type	convInt32ToText, %function
 165              	convInt32ToText:
 166              	.LFB257:
 167              		.loc 1 82 0
 168              		.cfi_startproc
 169              		@ args = 0, pretend = 0, frame = 0
 170              		@ frame_needed = 0, uses_anonymous_args = 0
 171              		@ link register save eliminated.
ARM GAS  /tmp/ccVhibFx.s 			page 4


 172              	.LVL26:
 173 0000 70B4     		push	{r4, r5, r6}
 174              		.cfi_def_cfa_offset 12
 175              		.cfi_offset 4, -12
 176              		.cfi_offset 5, -8
 177              		.cfi_offset 6, -4
 178              		.loc 1 89 0
 179 0002 184E     		ldr	r6, .L33
 180              		.loc 1 97 0
 181 0004 184D     		ldr	r5, .L33+4
 182              		.loc 1 93 0
 183 0006 80EAE073 		eor	r3, r0, r0, asr #31
 184 000a A3EBE073 		sub	r3, r3, r0, asr #31
 185              	.LVL27:
 186              		.loc 1 89 0
 187 000e 3446     		mov	r4, r6
 188 0010 00E0     		b	.L23
 189              	.LVL28:
 190              	.L28:
 191 0012 0C46     		mov	r4, r1
 192              	.LVL29:
 193              	.L23:
 194              		.loc 1 97 0 discriminator 1
 195 0014 85FB0321 		smull	r2, r1, r5, r3
 196 0018 DA17     		asrs	r2, r3, #31
 197 001a C2EBA102 		rsb	r2, r2, r1, asr #2
 198 001e 02EB8201 		add	r1, r2, r2, lsl #2
 199 0022 A3EB4103 		sub	r3, r3, r1, lsl #1
 200              	.LVL30:
 201 0026 2146     		mov	r1, r4
 202              	.LVL31:
 203 0028 3033     		adds	r3, r3, #48
 204 002a 01F8013B 		strb	r3, [r1], #1
 205              		.loc 1 99 0 discriminator 1
 206 002e 1346     		mov	r3, r2
 207 0030 002A     		cmp	r2, #0
 208 0032 EED1     		bne	.L28
 209              		.loc 1 102 0
 210 0034 0028     		cmp	r0, #0
 211 0036 10DB     		blt	.L32
 212              	.LVL32:
 213              	.L24:
 214              		.loc 1 103 0
 215 0038 4B1E     		subs	r3, r1, #1
 216              	.LVL33:
 217 003a 0022     		movs	r2, #0
 218              	.LVL34:
 219              		.loc 1 107 0
 220 003c B342     		cmp	r3, r6
 221              		.loc 1 103 0
 222 003e 0A70     		strb	r2, [r1]
 223              	.LVL35:
 224              		.loc 1 107 0
 225 0040 08D9     		bls	.L30
 226 0042 084A     		ldr	r2, .L33
 227              	.LVL36:
 228              	.L26:
ARM GAS  /tmp/ccVhibFx.s 			page 5


 229              		.loc 1 108 0
 230 0044 1978     		ldrb	r1, [r3]	@ zero_extendqisi2
 231              	.LVL37:
 232              		.loc 1 109 0
 233 0046 1078     		ldrb	r0, [r2]	@ zero_extendqisi2
 234 0048 03F80109 		strb	r0, [r3], #-1
 235              	.LVL38:
 236              		.loc 1 110 0
 237 004c 02F8011B 		strb	r1, [r2], #1
 238              	.LVL39:
 239              		.loc 1 107 0
 240 0050 9342     		cmp	r3, r2
 241 0052 F7D8     		bhi	.L26
 242              	.LVL40:
 243              	.L30:
 244              		.loc 1 114 0
 245 0054 0348     		ldr	r0, .L33
 246 0056 70BC     		pop	{r4, r5, r6}
 247              		.cfi_remember_state
 248              		.cfi_restore 6
 249              		.cfi_restore 5
 250              		.cfi_restore 4
 251              		.cfi_def_cfa_offset 0
 252 0058 7047     		bx	lr
 253              	.LVL41:
 254              	.L32:
 255              		.cfi_restore_state
 256              		.loc 1 102 0 discriminator 1
 257 005a 2D23     		movs	r3, #45
 258 005c 6370     		strb	r3, [r4, #1]
 259 005e A11C     		adds	r1, r4, #2
 260              	.LVL42:
 261 0060 EAE7     		b	.L24
 262              	.L34:
 263 0062 00BF     		.align	2
 264              	.L33:
 265 0064 00000000 		.word	.LANCHOR0
 266 0068 67666666 		.word	1717986919
 267              		.cfi_endproc
 268              	.LFE257:
 269              		.size	convInt32ToText, .-convInt32ToText
 270              		.section	.text.min,"ax",%progbits
 271              		.align	2
 272              		.p2align 4,,15
 273              		.global	min
 274              		.thumb
 275              		.thumb_func
 276              		.type	min, %function
 277              	min:
 278              	.LFB258:
 279              		.loc 1 128 0
 280              		.cfi_startproc
 281              		@ args = 0, pretend = 0, frame = 0
 282              		@ frame_needed = 0, uses_anonymous_args = 0
 283              		@ link register save eliminated.
 284              	.LVL43:
 285              		.loc 1 132 0
ARM GAS  /tmp/ccVhibFx.s 			page 6


 286 0000 8842     		cmp	r0, r1
 287 0002 28BF     		it	cs
 288 0004 0846     		movcs	r0, r1
 289              	.LVL44:
 290 0006 7047     		bx	lr
 291              		.cfi_endproc
 292              	.LFE258:
 293              		.size	min, .-min
 294              		.section	.text.utilReverseBuf,"ax",%progbits
 295              		.align	2
 296              		.p2align 4,,15
 297              		.global	utilReverseBuf
 298              		.thumb
 299              		.thumb_func
 300              		.type	utilReverseBuf, %function
 301              	utilReverseBuf:
 302              	.LFB259:
 303              		.loc 1 145 0
 304              		.cfi_startproc
 305              		@ args = 0, pretend = 0, frame = 0
 306              		@ frame_needed = 0, uses_anonymous_args = 0
 307              		@ link register save eliminated.
 308              	.LVL45:
 309              		.loc 1 147 0
 310 0000 0139     		subs	r1, r1, #1
 311              	.LVL46:
 312 0002 0144     		add	r1, r1, r0
 313              	.LVL47:
 314              		.loc 1 149 0
 315 0004 8842     		cmp	r0, r1
 316 0006 07D2     		bcs	.L36
 317              	.L38:
 318              		.loc 1 150 0
 319 0008 0378     		ldrb	r3, [r0]	@ zero_extendqisi2
 320              	.LVL48:
 321              		.loc 1 151 0
 322 000a 0A78     		ldrb	r2, [r1]	@ zero_extendqisi2
 323 000c 00F8012B 		strb	r2, [r0], #1
 324              	.LVL49:
 325              		.loc 1 152 0
 326 0010 01F80139 		strb	r3, [r1], #-1
 327              	.LVL50:
 328              		.loc 1 149 0
 329 0014 8842     		cmp	r0, r1
 330 0016 F7D3     		bcc	.L38
 331              	.LVL51:
 332              	.L36:
 333 0018 7047     		bx	lr
 334              		.cfi_endproc
 335              	.LFE259:
 336              		.size	utilReverseBuf, .-utilReverseBuf
 337 001a 00BF     		.section	.rodata.str1.4,"aMS",%progbits,1
 338              		.align	2
 339              	.LC0:
 340 0000 32343230 		.ascii	"2420\000"
 340      00
 341 0005 000000   		.space	3
ARM GAS  /tmp/ccVhibFx.s 			page 7


 342              	.LC1:
 343 0008 32343330 		.ascii	"2430\000"
 343      00
 344 000d 000000   		.space	3
 345              	.LC2:
 346 0010 32343331 		.ascii	"2431\000"
 346      00
 347 0015 000000   		.space	3
 348              	.LC3:
 349 0018 32353230 		.ascii	"2520\000"
 349      00
 350 001d 000000   		.space	3
 351              	.LC4:
 352 0020 32353330 		.ascii	"2530\000"
 352      00
 353 0025 000000   		.space	3
 354              	.LC5:
 355 0028 32353331 		.ascii	"2531\000"
 355      00
 356 002d 000000   		.space	3
 357              	.LC6:
 358 0030 32353130 		.ascii	"2510\000"
 358      00
 359 0035 000000   		.space	3
 360              	.LC7:
 361 0038 32353131 		.ascii	"2511\000"
 361      00
 362 003d 000000   		.space	3
 363              	.LC8:
 364 0040 31313130 		.ascii	"1110\000"
 364      00
 365 0045 000000   		.space	3
 366              	.LC9:
 367 0048 31313131 		.ascii	"1111\000"
 367      00
 368 004d 000000   		.space	3
 369              	.LC10:
 370 0050 2D2D2D2D 		.ascii	"----\000"
 370      00
 371              		.section	.bss.pValueToTextBuffer.8183,"aw",%nobits
 372              		.align	2
 373              		.set	.LANCHOR0,. + 0
 374              		.type	pValueToTextBuffer.8183, %object
 375              		.size	pValueToTextBuffer.8183, 12
 376              	pValueToTextBuffer.8183:
 377 0000 00000000 		.space	12
 377      00000000 
 377      00000000 
 378              		.text
 379              	.Letext0:
 380              		.file 2 "/usr/arm-none-eabi/include/machine/_default_types.h"
 381              		.file 3 "/usr/arm-none-eabi/include/sys/_stdint.h"
 382              		.file 4 "ChibiOS_3.0.2/os/rt/ports/ARMCMx/compilers/GCC/chtypes.h"
 383              		.file 5 "ChibiOS_3.0.2/os/rt/include/chsystypes.h"
 384              		.file 6 "ChibiOS_3.0.2/os/rt/include/chschd.h"
 385              		.file 7 "ChibiOS_3.0.2/os/rt/ports/ARMCMx/chcore.h"
 386              		.file 8 "ChibiOS_3.0.2/os/rt/ports/ARMCMx/chcore_v7m.h"
ARM GAS  /tmp/ccVhibFx.s 			page 8


 387              		.file 9 "ChibiOS_3.0.2/os/rt/include/chtm.h"
 388              		.file 10 "ChibiOS_3.0.2/os/rt/include/chsem.h"
 389              		.file 11 "ChibiOS_3.0.2/os/rt/include/chmtx.h"
 390              		.file 12 "cc2520/driver/hal_types.h"
 391              		.file 13 "ChibiOS_3.0.2/os/ext/CMSIS/include/core_cm4.h"
 392              		.section	.debug_info,"",%progbits
 393              	.Ldebug_info0:
 394 0000 85080000 		.4byte	0x885
 395 0004 0400     		.2byte	0x4
 396 0006 00000000 		.4byte	.Ldebug_abbrev0
 397 000a 04       		.byte	0x4
 398 000b 01       		.uleb128 0x1
 399 000c 27040000 		.4byte	.LASF122
 400 0010 01       		.byte	0x1
 401 0011 CB010000 		.4byte	.LASF123
 402 0015 07030000 		.4byte	.LASF124
 403 0019 00000000 		.4byte	.Ldebug_ranges0+0
 404 001d 00000000 		.4byte	0
 405 0021 00000000 		.4byte	.Ldebug_line0
 406 0025 02       		.uleb128 0x2
 407 0026 01       		.byte	0x1
 408 0027 06       		.byte	0x6
 409 0028 DC000000 		.4byte	.LASF0
 410 002c 03       		.uleb128 0x3
 411 002d 23000000 		.4byte	.LASF4
 412 0031 02       		.byte	0x2
 413 0032 1D       		.byte	0x1d
 414 0033 37000000 		.4byte	0x37
 415 0037 02       		.uleb128 0x2
 416 0038 01       		.byte	0x1
 417 0039 08       		.byte	0x8
 418 003a 56030000 		.4byte	.LASF1
 419 003e 02       		.uleb128 0x2
 420 003f 02       		.byte	0x2
 421 0040 05       		.byte	0x5
 422 0041 6E030000 		.4byte	.LASF2
 423 0045 02       		.uleb128 0x2
 424 0046 02       		.byte	0x2
 425 0047 07       		.byte	0x7
 426 0048 E0010000 		.4byte	.LASF3
 427 004c 03       		.uleb128 0x3
 428 004d 36020000 		.4byte	.LASF5
 429 0051 02       		.byte	0x2
 430 0052 3F       		.byte	0x3f
 431 0053 57000000 		.4byte	0x57
 432 0057 02       		.uleb128 0x2
 433 0058 04       		.byte	0x4
 434 0059 05       		.byte	0x5
 435 005a 29010000 		.4byte	.LASF6
 436 005e 03       		.uleb128 0x3
 437 005f 70050000 		.4byte	.LASF7
 438 0063 02       		.byte	0x2
 439 0064 41       		.byte	0x41
 440 0065 69000000 		.4byte	0x69
 441 0069 02       		.uleb128 0x2
 442 006a 04       		.byte	0x4
 443 006b 07       		.byte	0x7
ARM GAS  /tmp/ccVhibFx.s 			page 9


 444 006c 09040000 		.4byte	.LASF8
 445 0070 02       		.uleb128 0x2
 446 0071 08       		.byte	0x8
 447 0072 05       		.byte	0x5
 448 0073 CE000000 		.4byte	.LASF9
 449 0077 03       		.uleb128 0x3
 450 0078 D5020000 		.4byte	.LASF10
 451 007c 02       		.byte	0x2
 452 007d 5B       		.byte	0x5b
 453 007e 82000000 		.4byte	0x82
 454 0082 02       		.uleb128 0x2
 455 0083 08       		.byte	0x8
 456 0084 07       		.byte	0x7
 457 0085 4D000000 		.4byte	.LASF11
 458 0089 04       		.uleb128 0x4
 459 008a 04       		.byte	0x4
 460 008b 05       		.byte	0x5
 461 008c 696E7400 		.ascii	"int\000"
 462 0090 02       		.uleb128 0x2
 463 0091 04       		.byte	0x4
 464 0092 07       		.byte	0x7
 465 0093 8E010000 		.4byte	.LASF12
 466 0097 03       		.uleb128 0x3
 467 0098 E3050000 		.4byte	.LASF13
 468 009c 03       		.byte	0x3
 469 009d 14       		.byte	0x14
 470 009e 2C000000 		.4byte	0x2c
 471 00a2 03       		.uleb128 0x3
 472 00a3 4E030000 		.4byte	.LASF14
 473 00a7 03       		.byte	0x3
 474 00a8 1F       		.byte	0x1f
 475 00a9 4C000000 		.4byte	0x4c
 476 00ad 03       		.uleb128 0x3
 477 00ae E1030000 		.4byte	.LASF15
 478 00b2 03       		.byte	0x3
 479 00b3 20       		.byte	0x20
 480 00b4 5E000000 		.4byte	0x5e
 481 00b8 03       		.uleb128 0x3
 482 00b9 1A000000 		.4byte	.LASF16
 483 00bd 03       		.byte	0x3
 484 00be 26       		.byte	0x26
 485 00bf 77000000 		.4byte	0x77
 486 00c3 05       		.uleb128 0x5
 487 00c4 A2000000 		.4byte	0xa2
 488 00c8 03       		.uleb128 0x3
 489 00c9 A0050000 		.4byte	.LASF17
 490 00cd 04       		.byte	0x4
 491 00ce 45       		.byte	0x45
 492 00cf AD000000 		.4byte	0xad
 493 00d3 03       		.uleb128 0x3
 494 00d4 14020000 		.4byte	.LASF18
 495 00d8 04       		.byte	0x4
 496 00d9 48       		.byte	0x48
 497 00da 97000000 		.4byte	0x97
 498 00de 03       		.uleb128 0x3
 499 00df 32010000 		.4byte	.LASF19
 500 00e3 04       		.byte	0x4
ARM GAS  /tmp/ccVhibFx.s 			page 10


 501 00e4 49       		.byte	0x49
 502 00e5 97000000 		.4byte	0x97
 503 00e9 03       		.uleb128 0x3
 504 00ea E0020000 		.4byte	.LASF20
 505 00ee 04       		.byte	0x4
 506 00ef 4A       		.byte	0x4a
 507 00f0 97000000 		.4byte	0x97
 508 00f4 03       		.uleb128 0x3
 509 00f5 15010000 		.4byte	.LASF21
 510 00f9 04       		.byte	0x4
 511 00fa 4B       		.byte	0x4b
 512 00fb 97000000 		.4byte	0x97
 513 00ff 03       		.uleb128 0x3
 514 0100 FF020000 		.4byte	.LASF22
 515 0104 04       		.byte	0x4
 516 0105 4C       		.byte	0x4c
 517 0106 AD000000 		.4byte	0xad
 518 010a 03       		.uleb128 0x3
 519 010b FD010000 		.4byte	.LASF23
 520 010f 04       		.byte	0x4
 521 0110 4D       		.byte	0x4d
 522 0111 A2000000 		.4byte	0xa2
 523 0115 03       		.uleb128 0x3
 524 0116 2A020000 		.4byte	.LASF24
 525 011a 04       		.byte	0x4
 526 011b 4F       		.byte	0x4f
 527 011c AD000000 		.4byte	0xad
 528 0120 03       		.uleb128 0x3
 529 0121 88010000 		.4byte	.LASF25
 530 0125 04       		.byte	0x4
 531 0126 51       		.byte	0x51
 532 0127 A2000000 		.4byte	0xa2
 533 012b 03       		.uleb128 0x3
 534 012c 52050000 		.4byte	.LASF26
 535 0130 05       		.byte	0x5
 536 0131 33       		.byte	0x33
 537 0132 AD000000 		.4byte	0xad
 538 0136 03       		.uleb128 0x3
 539 0137 D4050000 		.4byte	.LASF27
 540 013b 05       		.byte	0x5
 541 013c 3F       		.byte	0x3f
 542 013d 41010000 		.4byte	0x141
 543 0141 06       		.uleb128 0x6
 544 0142 F3010000 		.4byte	.LASF49
 545 0146 48       		.byte	0x48
 546 0147 06       		.byte	0x6
 547 0148 C2       		.byte	0xc2
 548 0149 46020000 		.4byte	0x246
 549 014d 07       		.uleb128 0x7
 550 014e A8030000 		.4byte	.LASF28
 551 0152 06       		.byte	0x6
 552 0153 C3       		.byte	0xc3
 553 0154 51020000 		.4byte	0x251
 554 0158 00       		.byte	0
 555 0159 07       		.uleb128 0x7
 556 015a F8020000 		.4byte	.LASF29
 557 015e 06       		.byte	0x6
ARM GAS  /tmp/ccVhibFx.s 			page 11


 558 015f C5       		.byte	0xc5
 559 0160 51020000 		.4byte	0x251
 560 0164 04       		.byte	0x4
 561 0165 07       		.uleb128 0x7
 562 0166 AC000000 		.4byte	.LASF30
 563 016a 06       		.byte	0x6
 564 016b C7       		.byte	0xc7
 565 016c FF000000 		.4byte	0xff
 566 0170 08       		.byte	0x8
 567 0171 07       		.uleb128 0x7
 568 0172 29060000 		.4byte	.LASF31
 569 0176 06       		.byte	0x6
 570 0177 C8       		.byte	0xc8
 571 0178 81040000 		.4byte	0x481
 572 017c 0C       		.byte	0xc
 573 017d 07       		.uleb128 0x7
 574 017e 3B010000 		.4byte	.LASF32
 575 0182 06       		.byte	0x6
 576 0183 CA       		.byte	0xca
 577 0184 51020000 		.4byte	0x251
 578 0188 10       		.byte	0x10
 579 0189 07       		.uleb128 0x7
 580 018a A4020000 		.4byte	.LASF33
 581 018e 06       		.byte	0x6
 582 018f CB       		.byte	0xcb
 583 0190 51020000 		.4byte	0x251
 584 0194 14       		.byte	0x14
 585 0195 07       		.uleb128 0x7
 586 0196 F2050000 		.4byte	.LASF34
 587 019a 06       		.byte	0x6
 588 019b D2       		.byte	0xd2
 589 019c C6060000 		.4byte	0x6c6
 590 01a0 18       		.byte	0x18
 591 01a1 07       		.uleb128 0x7
 592 01a2 78030000 		.4byte	.LASF35
 593 01a6 06       		.byte	0x6
 594 01a7 DD       		.byte	0xdd
 595 01a8 DE000000 		.4byte	0xde
 596 01ac 1C       		.byte	0x1c
 597 01ad 07       		.uleb128 0x7
 598 01ae 04060000 		.4byte	.LASF36
 599 01b2 06       		.byte	0x6
 600 01b3 E1       		.byte	0xe1
 601 01b4 D3000000 		.4byte	0xd3
 602 01b8 1D       		.byte	0x1d
 603 01b9 07       		.uleb128 0x7
 604 01ba CD050000 		.4byte	.LASF37
 605 01be 06       		.byte	0x6
 606 01bf E6       		.byte	0xe6
 607 01c0 E9000000 		.4byte	0xe9
 608 01c4 1E       		.byte	0x1e
 609 01c5 07       		.uleb128 0x7
 610 01c6 80030000 		.4byte	.LASF38
 611 01ca 06       		.byte	0x6
 612 01cb EC       		.byte	0xec
 613 01cc F4000000 		.4byte	0xf4
 614 01d0 1F       		.byte	0x1f
ARM GAS  /tmp/ccVhibFx.s 			page 12


 615 01d1 07       		.uleb128 0x7
 616 01d2 A3010000 		.4byte	.LASF39
 617 01d6 06       		.byte	0x6
 618 01d7 F3       		.byte	0xf3
 619 01d8 D8060000 		.4byte	0x6d8
 620 01dc 20       		.byte	0x20
 621 01dd 08       		.uleb128 0x8
 622 01de 705F7500 		.ascii	"p_u\000"
 623 01e2 06       		.byte	0x6
 624 01e3 3101     		.2byte	0x131
 625 01e5 01060000 		.4byte	0x601
 626 01e9 24       		.byte	0x24
 627 01ea 09       		.uleb128 0x9
 628 01eb 5A020000 		.4byte	.LASF40
 629 01ef 06       		.byte	0x6
 630 01f0 3601     		.2byte	0x136
 631 01f2 57020000 		.4byte	0x257
 632 01f6 28       		.byte	0x28
 633 01f7 09       		.uleb128 0x9
 634 01f8 BA010000 		.4byte	.LASF41
 635 01fc 06       		.byte	0x6
 636 01fd 3C01     		.2byte	0x13c
 637 01ff 7B020000 		.4byte	0x27b
 638 0203 2C       		.byte	0x2c
 639 0204 09       		.uleb128 0x9
 640 0205 0C060000 		.4byte	.LASF42
 641 0209 06       		.byte	0x6
 642 020a 4001     		.2byte	0x140
 643 020c 0A010000 		.4byte	0x10a
 644 0210 34       		.byte	0x34
 645 0211 09       		.uleb128 0x9
 646 0212 D6030000 		.4byte	.LASF43
 647 0216 06       		.byte	0x6
 648 0217 4601     		.2byte	0x146
 649 0219 15010000 		.4byte	0x115
 650 021d 38       		.byte	0x38
 651 021e 09       		.uleb128 0x9
 652 021f 64030000 		.4byte	.LASF44
 653 0223 06       		.byte	0x6
 654 0224 4D01     		.2byte	0x14d
 655 0226 C0060000 		.4byte	0x6c0
 656 022a 3C       		.byte	0x3c
 657 022b 09       		.uleb128 0x9
 658 022c 5C050000 		.4byte	.LASF45
 659 0230 06       		.byte	0x6
 660 0231 5101     		.2byte	0x151
 661 0233 FF000000 		.4byte	0xff
 662 0237 40       		.byte	0x40
 663 0238 09       		.uleb128 0x9
 664 0239 E8000000 		.4byte	.LASF46
 665 023d 06       		.byte	0x6
 666 023e 5801     		.2byte	0x158
 667 0240 2E030000 		.4byte	0x32e
 668 0244 44       		.byte	0x44
 669 0245 00       		.byte	0
 670 0246 03       		.uleb128 0x3
 671 0247 6D020000 		.4byte	.LASF47
ARM GAS  /tmp/ccVhibFx.s 			page 13


 672 024b 05       		.byte	0x5
 673 024c 44       		.byte	0x44
 674 024d 51020000 		.4byte	0x251
 675 0251 0A       		.uleb128 0xa
 676 0252 04       		.byte	0x4
 677 0253 36010000 		.4byte	0x136
 678 0257 03       		.uleb128 0x3
 679 0258 4B020000 		.4byte	.LASF48
 680 025c 05       		.byte	0x5
 681 025d 49       		.byte	0x49
 682 025e 62020000 		.4byte	0x262
 683 0262 06       		.uleb128 0x6
 684 0263 F9030000 		.4byte	.LASF50
 685 0267 04       		.byte	0x4
 686 0268 06       		.byte	0x6
 687 0269 B0       		.byte	0xb0
 688 026a 7B020000 		.4byte	0x27b
 689 026e 07       		.uleb128 0x7
 690 026f A8030000 		.4byte	.LASF28
 691 0273 06       		.byte	0x6
 692 0274 B1       		.byte	0xb1
 693 0275 51020000 		.4byte	0x251
 694 0279 00       		.byte	0
 695 027a 00       		.byte	0
 696 027b 03       		.uleb128 0x3
 697 027c B4050000 		.4byte	.LASF51
 698 0280 05       		.byte	0x5
 699 0281 50       		.byte	0x50
 700 0282 86020000 		.4byte	0x286
 701 0286 06       		.uleb128 0x6
 702 0287 9B000000 		.4byte	.LASF52
 703 028b 08       		.byte	0x8
 704 028c 06       		.byte	0x6
 705 028d B7       		.byte	0xb7
 706 028e AB020000 		.4byte	0x2ab
 707 0292 07       		.uleb128 0x7
 708 0293 A8030000 		.4byte	.LASF28
 709 0297 06       		.byte	0x6
 710 0298 B8       		.byte	0xb8
 711 0299 51020000 		.4byte	0x251
 712 029d 00       		.byte	0
 713 029e 07       		.uleb128 0x7
 714 029f F8020000 		.4byte	.LASF29
 715 02a3 06       		.byte	0x6
 716 02a4 B9       		.byte	0xb9
 717 02a5 51020000 		.4byte	0x251
 718 02a9 04       		.byte	0x4
 719 02aa 00       		.byte	0
 720 02ab 03       		.uleb128 0x3
 721 02ac 00000000 		.4byte	.LASF53
 722 02b0 05       		.byte	0x5
 723 02b1 57       		.byte	0x57
 724 02b2 B6020000 		.4byte	0x2b6
 725 02b6 0B       		.uleb128 0xb
 726 02b7 1C020000 		.4byte	.LASF54
 727 02bb 1C       		.byte	0x1c
 728 02bc 06       		.byte	0x6
ARM GAS  /tmp/ccVhibFx.s 			page 14


 729 02bd 9001     		.2byte	0x190
 730 02bf 12030000 		.4byte	0x312
 731 02c3 09       		.uleb128 0x9
 732 02c4 F1030000 		.4byte	.LASF55
 733 02c8 06       		.byte	0x6
 734 02c9 9101     		.2byte	0x191
 735 02cb 7B020000 		.4byte	0x27b
 736 02cf 00       		.byte	0
 737 02d0 09       		.uleb128 0x9
 738 02d1 9A030000 		.4byte	.LASF56
 739 02d5 06       		.byte	0x6
 740 02d6 9201     		.2byte	0x192
 741 02d8 FF000000 		.4byte	0xff
 742 02dc 08       		.byte	0x8
 743 02dd 09       		.uleb128 0x9
 744 02de AC020000 		.4byte	.LASF57
 745 02e2 06       		.byte	0x6
 746 02e3 9401     		.2byte	0x194
 747 02e5 81040000 		.4byte	0x481
 748 02e9 0C       		.byte	0xc
 749 02ea 09       		.uleb128 0x9
 750 02eb 4B010000 		.4byte	.LASF58
 751 02ef 06       		.byte	0x6
 752 02f0 9701     		.2byte	0x197
 753 02f2 51020000 		.4byte	0x251
 754 02f6 10       		.byte	0x10
 755 02f7 09       		.uleb128 0x9
 756 02f8 CD020000 		.4byte	.LASF59
 757 02fc 06       		.byte	0x6
 758 02fd 9801     		.2byte	0x198
 759 02ff 51020000 		.4byte	0x251
 760 0303 14       		.byte	0x14
 761 0304 09       		.uleb128 0x9
 762 0305 C3020000 		.4byte	.LASF60
 763 0309 06       		.byte	0x6
 764 030a 9B01     		.2byte	0x19b
 765 030c 51020000 		.4byte	0x251
 766 0310 18       		.byte	0x18
 767 0311 00       		.byte	0
 768 0312 03       		.uleb128 0x3
 769 0313 67050000 		.4byte	.LASF61
 770 0317 05       		.byte	0x5
 771 0318 5C       		.byte	0x5c
 772 0319 1D030000 		.4byte	0x31d
 773 031d 0A       		.uleb128 0xa
 774 031e 04       		.byte	0x4
 775 031f 23030000 		.4byte	0x323
 776 0323 0C       		.uleb128 0xc
 777 0324 2E030000 		.4byte	0x32e
 778 0328 0D       		.uleb128 0xd
 779 0329 2E030000 		.4byte	0x32e
 780 032d 00       		.byte	0
 781 032e 0E       		.uleb128 0xe
 782 032f 04       		.byte	0x4
 783 0330 03       		.uleb128 0x3
 784 0331 E8020000 		.4byte	.LASF62
 785 0335 05       		.byte	0x5
ARM GAS  /tmp/ccVhibFx.s 			page 15


 786 0336 61       		.byte	0x61
 787 0337 3B030000 		.4byte	0x33b
 788 033b 0B       		.uleb128 0xb
 789 033c B8030000 		.4byte	.LASF63
 790 0340 14       		.byte	0x14
 791 0341 06       		.byte	0x6
 792 0342 6B01     		.2byte	0x16b
 793 0344 8A030000 		.4byte	0x38a
 794 0348 09       		.uleb128 0x9
 795 0349 9B010000 		.4byte	.LASF64
 796 034d 06       		.byte	0x6
 797 034e 6C01     		.2byte	0x16c
 798 0350 DD060000 		.4byte	0x6dd
 799 0354 00       		.byte	0
 800 0355 09       		.uleb128 0x9
 801 0356 5C010000 		.4byte	.LASF65
 802 035a 06       		.byte	0x6
 803 035b 6D01     		.2byte	0x16d
 804 035d DD060000 		.4byte	0x6dd
 805 0361 04       		.byte	0x4
 806 0362 09       		.uleb128 0x9
 807 0363 B1010000 		.4byte	.LASF66
 808 0367 06       		.byte	0x6
 809 0368 6E01     		.2byte	0x16e
 810 036a 2B010000 		.4byte	0x12b
 811 036e 08       		.byte	0x8
 812 036f 09       		.uleb128 0x9
 813 0370 2F060000 		.4byte	.LASF67
 814 0374 06       		.byte	0x6
 815 0375 6F01     		.2byte	0x16f
 816 0377 12030000 		.4byte	0x312
 817 037b 0C       		.byte	0xc
 818 037c 09       		.uleb128 0x9
 819 037d A8050000 		.4byte	.LASF68
 820 0381 06       		.byte	0x6
 821 0382 7101     		.2byte	0x171
 822 0384 2E030000 		.4byte	0x32e
 823 0388 10       		.byte	0x10
 824 0389 00       		.byte	0
 825 038a 03       		.uleb128 0x3
 826 038b 78000000 		.4byte	.LASF69
 827 038f 05       		.byte	0x5
 828 0390 66       		.byte	0x66
 829 0391 95030000 		.4byte	0x395
 830 0395 0B       		.uleb128 0xb
 831 0396 80020000 		.4byte	.LASF70
 832 039a 10       		.byte	0x10
 833 039b 06       		.byte	0x6
 834 039c 7B01     		.2byte	0x17b
 835 039e D7030000 		.4byte	0x3d7
 836 03a2 09       		.uleb128 0x9
 837 03a3 9B010000 		.4byte	.LASF64
 838 03a7 06       		.byte	0x6
 839 03a8 7C01     		.2byte	0x17c
 840 03aa DD060000 		.4byte	0x6dd
 841 03ae 00       		.byte	0
 842 03af 09       		.uleb128 0x9
ARM GAS  /tmp/ccVhibFx.s 			page 16


 843 03b0 5C010000 		.4byte	.LASF65
 844 03b4 06       		.byte	0x6
 845 03b5 7E01     		.2byte	0x17e
 846 03b7 DD060000 		.4byte	0x6dd
 847 03bb 04       		.byte	0x4
 848 03bc 09       		.uleb128 0x9
 849 03bd B1010000 		.4byte	.LASF66
 850 03c1 06       		.byte	0x6
 851 03c2 8001     		.2byte	0x180
 852 03c4 2B010000 		.4byte	0x12b
 853 03c8 08       		.byte	0x8
 854 03c9 09       		.uleb128 0x9
 855 03ca F9050000 		.4byte	.LASF71
 856 03ce 06       		.byte	0x6
 857 03cf 8201     		.2byte	0x182
 858 03d1 D8060000 		.4byte	0x6d8
 859 03d5 0C       		.byte	0xc
 860 03d6 00       		.byte	0
 861 03d7 03       		.uleb128 0x3
 862 03d8 39000000 		.4byte	.LASF72
 863 03dc 05       		.byte	0x5
 864 03dd 6B       		.byte	0x6b
 865 03de E2030000 		.4byte	0x3e2
 866 03e2 0B       		.uleb128 0xb
 867 03e3 38030000 		.4byte	.LASF73
 868 03e7 04       		.byte	0x4
 869 03e8 06       		.byte	0x6
 870 03e9 A201     		.2byte	0x1a2
 871 03eb FD030000 		.4byte	0x3fd
 872 03ef 09       		.uleb128 0x9
 873 03f0 7B050000 		.4byte	.LASF74
 874 03f4 06       		.byte	0x6
 875 03f5 AA01     		.2byte	0x1aa
 876 03f7 E3060000 		.4byte	0x6e3
 877 03fb 00       		.byte	0
 878 03fc 00       		.byte	0
 879 03fd 03       		.uleb128 0x3
 880 03fe 08020000 		.4byte	.LASF75
 881 0402 05       		.byte	0x5
 882 0403 70       		.byte	0x70
 883 0404 08040000 		.4byte	0x408
 884 0408 0F       		.uleb128 0xf
 885 0409 1F010000 		.4byte	.LASF76
 886 040d 5802     		.2byte	0x258
 887 040f 06       		.byte	0x6
 888 0410 C201     		.2byte	0x1c2
 889 0412 64040000 		.4byte	0x464
 890 0416 09       		.uleb128 0x9
 891 0417 DD050000 		.4byte	.LASF77
 892 041b 06       		.byte	0x6
 893 041c C601     		.2byte	0x1c6
 894 041e AB020000 		.4byte	0x2ab
 895 0422 00       		.byte	0
 896 0423 09       		.uleb128 0x9
 897 0424 0E010000 		.4byte	.LASF78
 898 0428 06       		.byte	0x6
 899 0429 CA01     		.2byte	0x1ca
ARM GAS  /tmp/ccVhibFx.s 			page 17


 900 042b 8A030000 		.4byte	0x38a
 901 042f 1C       		.byte	0x1c
 902 0430 08       		.uleb128 0x8
 903 0431 64626700 		.ascii	"dbg\000"
 904 0435 06       		.byte	0x6
 905 0436 CE01     		.2byte	0x1ce
 906 0438 D7030000 		.4byte	0x3d7
 907 043c 2C       		.byte	0x2c
 908 043d 09       		.uleb128 0x9
 909 043e 6D000000 		.4byte	.LASF79
 910 0442 06       		.byte	0x6
 911 0443 D201     		.2byte	0x1d2
 912 0445 36010000 		.4byte	0x136
 913 0449 30       		.byte	0x30
 914 044a 08       		.uleb128 0x8
 915 044b 746D00   		.ascii	"tm\000"
 916 044e 06       		.byte	0x6
 917 044f D701     		.2byte	0x1d7
 918 0451 F6050000 		.4byte	0x5f6
 919 0455 78       		.byte	0x78
 920 0456 09       		.uleb128 0x9
 921 0457 79010000 		.4byte	.LASF80
 922 045b 06       		.byte	0x6
 923 045c E301     		.2byte	0x1e3
 924 045e E8060000 		.4byte	0x6e8
 925 0462 80       		.byte	0x80
 926 0463 00       		.byte	0
 927 0464 02       		.uleb128 0x2
 928 0465 04       		.byte	0x4
 929 0466 07       		.byte	0x7
 930 0467 64020000 		.4byte	.LASF81
 931 046b 03       		.uleb128 0x3
 932 046c 53010000 		.4byte	.LASF82
 933 0470 07       		.byte	0x7
 934 0471 65       		.byte	0x65
 935 0472 2E030000 		.4byte	0x32e
 936 0476 03       		.uleb128 0x3
 937 0477 40020000 		.4byte	.LASF83
 938 047b 07       		.byte	0x7
 939 047c 6D       		.byte	0x6d
 940 047d B8000000 		.4byte	0xb8
 941 0481 06       		.uleb128 0x6
 942 0482 91050000 		.4byte	.LASF84
 943 0486 04       		.byte	0x4
 944 0487 07       		.byte	0x7
 945 0488 89       		.byte	0x89
 946 0489 9A040000 		.4byte	0x49a
 947 048d 10       		.uleb128 0x10
 948 048e 72313300 		.ascii	"r13\000"
 949 0492 07       		.byte	0x7
 950 0493 8A       		.byte	0x8a
 951 0494 DB050000 		.4byte	0x5db
 952 0498 00       		.byte	0
 953 0499 00       		.byte	0
 954 049a 06       		.uleb128 0x6
 955 049b 2D000000 		.4byte	.LASF85
 956 049f 64       		.byte	0x64
ARM GAS  /tmp/ccVhibFx.s 			page 18


 957 04a0 08       		.byte	0x8
 958 04a1 F4       		.byte	0xf4
 959 04a2 DB050000 		.4byte	0x5db
 960 04a6 10       		.uleb128 0x10
 961 04a7 73313600 		.ascii	"s16\000"
 962 04ab 08       		.byte	0x8
 963 04ac F6       		.byte	0xf6
 964 04ad 6B040000 		.4byte	0x46b
 965 04b1 00       		.byte	0
 966 04b2 10       		.uleb128 0x10
 967 04b3 73313700 		.ascii	"s17\000"
 968 04b7 08       		.byte	0x8
 969 04b8 F7       		.byte	0xf7
 970 04b9 6B040000 		.4byte	0x46b
 971 04bd 04       		.byte	0x4
 972 04be 10       		.uleb128 0x10
 973 04bf 73313800 		.ascii	"s18\000"
 974 04c3 08       		.byte	0x8
 975 04c4 F8       		.byte	0xf8
 976 04c5 6B040000 		.4byte	0x46b
 977 04c9 08       		.byte	0x8
 978 04ca 10       		.uleb128 0x10
 979 04cb 73313900 		.ascii	"s19\000"
 980 04cf 08       		.byte	0x8
 981 04d0 F9       		.byte	0xf9
 982 04d1 6B040000 		.4byte	0x46b
 983 04d5 0C       		.byte	0xc
 984 04d6 10       		.uleb128 0x10
 985 04d7 73323000 		.ascii	"s20\000"
 986 04db 08       		.byte	0x8
 987 04dc FA       		.byte	0xfa
 988 04dd 6B040000 		.4byte	0x46b
 989 04e1 10       		.byte	0x10
 990 04e2 10       		.uleb128 0x10
 991 04e3 73323100 		.ascii	"s21\000"
 992 04e7 08       		.byte	0x8
 993 04e8 FB       		.byte	0xfb
 994 04e9 6B040000 		.4byte	0x46b
 995 04ed 14       		.byte	0x14
 996 04ee 10       		.uleb128 0x10
 997 04ef 73323200 		.ascii	"s22\000"
 998 04f3 08       		.byte	0x8
 999 04f4 FC       		.byte	0xfc
 1000 04f5 6B040000 		.4byte	0x46b
 1001 04f9 18       		.byte	0x18
 1002 04fa 10       		.uleb128 0x10
 1003 04fb 73323300 		.ascii	"s23\000"
 1004 04ff 08       		.byte	0x8
 1005 0500 FD       		.byte	0xfd
 1006 0501 6B040000 		.4byte	0x46b
 1007 0505 1C       		.byte	0x1c
 1008 0506 10       		.uleb128 0x10
 1009 0507 73323400 		.ascii	"s24\000"
 1010 050b 08       		.byte	0x8
 1011 050c FE       		.byte	0xfe
 1012 050d 6B040000 		.4byte	0x46b
 1013 0511 20       		.byte	0x20
ARM GAS  /tmp/ccVhibFx.s 			page 19


 1014 0512 10       		.uleb128 0x10
 1015 0513 73323500 		.ascii	"s25\000"
 1016 0517 08       		.byte	0x8
 1017 0518 FF       		.byte	0xff
 1018 0519 6B040000 		.4byte	0x46b
 1019 051d 24       		.byte	0x24
 1020 051e 08       		.uleb128 0x8
 1021 051f 73323600 		.ascii	"s26\000"
 1022 0523 08       		.byte	0x8
 1023 0524 0001     		.2byte	0x100
 1024 0526 6B040000 		.4byte	0x46b
 1025 052a 28       		.byte	0x28
 1026 052b 08       		.uleb128 0x8
 1027 052c 73323700 		.ascii	"s27\000"
 1028 0530 08       		.byte	0x8
 1029 0531 0101     		.2byte	0x101
 1030 0533 6B040000 		.4byte	0x46b
 1031 0537 2C       		.byte	0x2c
 1032 0538 08       		.uleb128 0x8
 1033 0539 73323800 		.ascii	"s28\000"
 1034 053d 08       		.byte	0x8
 1035 053e 0201     		.2byte	0x102
 1036 0540 6B040000 		.4byte	0x46b
 1037 0544 30       		.byte	0x30
 1038 0545 08       		.uleb128 0x8
 1039 0546 73323900 		.ascii	"s29\000"
 1040 054a 08       		.byte	0x8
 1041 054b 0301     		.2byte	0x103
 1042 054d 6B040000 		.4byte	0x46b
 1043 0551 34       		.byte	0x34
 1044 0552 08       		.uleb128 0x8
 1045 0553 73333000 		.ascii	"s30\000"
 1046 0557 08       		.byte	0x8
 1047 0558 0401     		.2byte	0x104
 1048 055a 6B040000 		.4byte	0x46b
 1049 055e 38       		.byte	0x38
 1050 055f 08       		.uleb128 0x8
 1051 0560 73333100 		.ascii	"s31\000"
 1052 0564 08       		.byte	0x8
 1053 0565 0501     		.2byte	0x105
 1054 0567 6B040000 		.4byte	0x46b
 1055 056b 3C       		.byte	0x3c
 1056 056c 08       		.uleb128 0x8
 1057 056d 723400   		.ascii	"r4\000"
 1058 0570 08       		.byte	0x8
 1059 0571 0701     		.2byte	0x107
 1060 0573 6B040000 		.4byte	0x46b
 1061 0577 40       		.byte	0x40
 1062 0578 08       		.uleb128 0x8
 1063 0579 723500   		.ascii	"r5\000"
 1064 057c 08       		.byte	0x8
 1065 057d 0801     		.2byte	0x108
 1066 057f 6B040000 		.4byte	0x46b
 1067 0583 44       		.byte	0x44
 1068 0584 08       		.uleb128 0x8
 1069 0585 723600   		.ascii	"r6\000"
 1070 0588 08       		.byte	0x8
ARM GAS  /tmp/ccVhibFx.s 			page 20


 1071 0589 0901     		.2byte	0x109
 1072 058b 6B040000 		.4byte	0x46b
 1073 058f 48       		.byte	0x48
 1074 0590 08       		.uleb128 0x8
 1075 0591 723700   		.ascii	"r7\000"
 1076 0594 08       		.byte	0x8
 1077 0595 0A01     		.2byte	0x10a
 1078 0597 6B040000 		.4byte	0x46b
 1079 059b 4C       		.byte	0x4c
 1080 059c 08       		.uleb128 0x8
 1081 059d 723800   		.ascii	"r8\000"
 1082 05a0 08       		.byte	0x8
 1083 05a1 0B01     		.2byte	0x10b
 1084 05a3 6B040000 		.4byte	0x46b
 1085 05a7 50       		.byte	0x50
 1086 05a8 08       		.uleb128 0x8
 1087 05a9 723900   		.ascii	"r9\000"
 1088 05ac 08       		.byte	0x8
 1089 05ad 0C01     		.2byte	0x10c
 1090 05af 6B040000 		.4byte	0x46b
 1091 05b3 54       		.byte	0x54
 1092 05b4 08       		.uleb128 0x8
 1093 05b5 72313000 		.ascii	"r10\000"
 1094 05b9 08       		.byte	0x8
 1095 05ba 0D01     		.2byte	0x10d
 1096 05bc 6B040000 		.4byte	0x46b
 1097 05c0 58       		.byte	0x58
 1098 05c1 08       		.uleb128 0x8
 1099 05c2 72313100 		.ascii	"r11\000"
 1100 05c6 08       		.byte	0x8
 1101 05c7 0E01     		.2byte	0x10e
 1102 05c9 6B040000 		.4byte	0x46b
 1103 05cd 5C       		.byte	0x5c
 1104 05ce 08       		.uleb128 0x8
 1105 05cf 6C7200   		.ascii	"lr\000"
 1106 05d2 08       		.byte	0x8
 1107 05d3 0F01     		.2byte	0x10f
 1108 05d5 6B040000 		.4byte	0x46b
 1109 05d9 60       		.byte	0x60
 1110 05da 00       		.byte	0
 1111 05db 0A       		.uleb128 0xa
 1112 05dc 04       		.byte	0x4
 1113 05dd 9A040000 		.4byte	0x49a
 1114 05e1 11       		.uleb128 0x11
 1115 05e2 04       		.byte	0x4
 1116 05e3 09       		.byte	0x9
 1117 05e4 38       		.byte	0x38
 1118 05e5 F6050000 		.4byte	0x5f6
 1119 05e9 07       		.uleb128 0x7
 1120 05ea 8A050000 		.4byte	.LASF86
 1121 05ee 09       		.byte	0x9
 1122 05ef 3C       		.byte	0x3c
 1123 05f0 C8000000 		.4byte	0xc8
 1124 05f4 00       		.byte	0
 1125 05f5 00       		.byte	0
 1126 05f6 03       		.uleb128 0x3
 1127 05f7 B2020000 		.4byte	.LASF87
ARM GAS  /tmp/ccVhibFx.s 			page 21


 1128 05fb 09       		.byte	0x9
 1129 05fc 3D       		.byte	0x3d
 1130 05fd E1050000 		.4byte	0x5e1
 1131 0601 12       		.uleb128 0x12
 1132 0602 04       		.byte	0x4
 1133 0603 06       		.byte	0x6
 1134 0604 FA       		.byte	0xfa
 1135 0605 5E060000 		.4byte	0x65e
 1136 0609 13       		.uleb128 0x13
 1137 060a 13000000 		.4byte	.LASF88
 1138 060e 06       		.byte	0x6
 1139 060f 0101     		.2byte	0x101
 1140 0611 0A010000 		.4byte	0x10a
 1141 0615 13       		.uleb128 0x13
 1142 0616 64000000 		.4byte	.LASF89
 1143 061a 06       		.byte	0x6
 1144 061b 0801     		.2byte	0x108
 1145 061d 0A010000 		.4byte	0x10a
 1146 0621 13       		.uleb128 0x13
 1147 0622 EB050000 		.4byte	.LASF90
 1148 0626 06       		.byte	0x6
 1149 0627 0F01     		.2byte	0x10f
 1150 0629 2E030000 		.4byte	0x32e
 1151 062d 13       		.uleb128 0x13
 1152 062e 0D000000 		.4byte	.LASF91
 1153 0632 06       		.byte	0x6
 1154 0633 1601     		.2byte	0x116
 1155 0635 5E060000 		.4byte	0x65e
 1156 0639 13       		.uleb128 0x13
 1157 063a AA010000 		.4byte	.LASF92
 1158 063e 06       		.byte	0x6
 1159 063f 1E01     		.2byte	0x11e
 1160 0641 89060000 		.4byte	0x689
 1161 0645 13       		.uleb128 0x13
 1162 0646 EA030000 		.4byte	.LASF93
 1163 064a 06       		.byte	0x6
 1164 064b 2701     		.2byte	0x127
 1165 064d C0060000 		.4byte	0x6c0
 1166 0651 13       		.uleb128 0x13
 1167 0652 A1030000 		.4byte	.LASF94
 1168 0656 06       		.byte	0x6
 1169 0657 2F01     		.2byte	0x12f
 1170 0659 15010000 		.4byte	0x115
 1171 065d 00       		.byte	0
 1172 065e 0A       		.uleb128 0xa
 1173 065f 04       		.byte	0x4
 1174 0660 46020000 		.4byte	0x246
 1175 0664 06       		.uleb128 0x6
 1176 0665 C9030000 		.4byte	.LASF95
 1177 0669 0C       		.byte	0xc
 1178 066a 0A       		.byte	0xa
 1179 066b 34       		.byte	0x34
 1180 066c 89060000 		.4byte	0x689
 1181 0670 07       		.uleb128 0x7
 1182 0671 43010000 		.4byte	.LASF96
 1183 0675 0A       		.byte	0xa
 1184 0676 35       		.byte	0x35
ARM GAS  /tmp/ccVhibFx.s 			page 22


 1185 0677 7B020000 		.4byte	0x27b
 1186 067b 00       		.byte	0
 1187 067c 07       		.uleb128 0x7
 1188 067d C5010000 		.4byte	.LASF97
 1189 0681 0A       		.byte	0xa
 1190 0682 37       		.byte	0x37
 1191 0683 20010000 		.4byte	0x120
 1192 0687 08       		.byte	0x8
 1193 0688 00       		.byte	0
 1194 0689 0A       		.uleb128 0xa
 1195 068a 04       		.byte	0x4
 1196 068b 64060000 		.4byte	0x664
 1197 068f 06       		.uleb128 0x6
 1198 0690 C4050000 		.4byte	.LASF98
 1199 0694 10       		.byte	0x10
 1200 0695 0B       		.byte	0xb
 1201 0696 39       		.byte	0x39
 1202 0697 C0060000 		.4byte	0x6c0
 1203 069b 07       		.uleb128 0x7
 1204 069c F0000000 		.4byte	.LASF99
 1205 06a0 0B       		.byte	0xb
 1206 06a1 3A       		.byte	0x3a
 1207 06a2 7B020000 		.4byte	0x27b
 1208 06a6 00       		.byte	0
 1209 06a7 07       		.uleb128 0x7
 1210 06a8 21060000 		.4byte	.LASF100
 1211 06ac 0B       		.byte	0xb
 1212 06ad 3C       		.byte	0x3c
 1213 06ae 51020000 		.4byte	0x251
 1214 06b2 08       		.byte	0x8
 1215 06b3 07       		.uleb128 0x7
 1216 06b4 4B050000 		.4byte	.LASF101
 1217 06b8 0B       		.byte	0xb
 1218 06b9 3E       		.byte	0x3e
 1219 06ba 03070000 		.4byte	0x703
 1220 06be 0C       		.byte	0xc
 1221 06bf 00       		.byte	0
 1222 06c0 0A       		.uleb128 0xa
 1223 06c1 04       		.byte	0x4
 1224 06c2 8F060000 		.4byte	0x68f
 1225 06c6 0A       		.uleb128 0xa
 1226 06c7 04       		.byte	0x4
 1227 06c8 CC060000 		.4byte	0x6cc
 1228 06cc 14       		.uleb128 0x14
 1229 06cd D1060000 		.4byte	0x6d1
 1230 06d1 02       		.uleb128 0x2
 1231 06d2 01       		.byte	0x1
 1232 06d3 08       		.byte	0x8
 1233 06d4 22040000 		.4byte	.LASF102
 1234 06d8 05       		.uleb128 0x5
 1235 06d9 2B010000 		.4byte	0x12b
 1236 06dd 0A       		.uleb128 0xa
 1237 06de 04       		.byte	0x4
 1238 06df 30030000 		.4byte	0x330
 1239 06e3 05       		.uleb128 0x5
 1240 06e4 C6060000 		.4byte	0x6c6
 1241 06e8 15       		.uleb128 0x15
ARM GAS  /tmp/ccVhibFx.s 			page 23


 1242 06e9 76040000 		.4byte	0x476
 1243 06ed F8060000 		.4byte	0x6f8
 1244 06f1 16       		.uleb128 0x16
 1245 06f2 64040000 		.4byte	0x464
 1246 06f6 3A       		.byte	0x3a
 1247 06f7 00       		.byte	0
 1248 06f8 03       		.uleb128 0x3
 1249 06f9 C6000000 		.4byte	.LASF103
 1250 06fd 0B       		.byte	0xb
 1251 06fe 34       		.byte	0x34
 1252 06ff 8F060000 		.4byte	0x68f
 1253 0703 0A       		.uleb128 0xa
 1254 0704 04       		.byte	0x4
 1255 0705 F8060000 		.4byte	0x6f8
 1256 0709 02       		.uleb128 0x2
 1257 070a 01       		.byte	0x1
 1258 070b 02       		.byte	0x2
 1259 070c 48030000 		.4byte	.LASF104
 1260 0710 03       		.uleb128 0x3
 1261 0711 9E020000 		.4byte	.LASF105
 1262 0715 0C       		.byte	0xc
 1263 0716 16       		.byte	0x16
 1264 0717 37000000 		.4byte	0x37
 1265 071b 03       		.uleb128 0x3
 1266 071c 08010000 		.4byte	.LASF106
 1267 0720 0C       		.byte	0xc
 1268 0721 1B       		.byte	0x1b
 1269 0722 57000000 		.4byte	0x57
 1270 0726 17       		.uleb128 0x17
 1271 0727 F8000000 		.4byte	.LASF107
 1272 072b 01       		.byte	0x1
 1273 072c 1D       		.byte	0x1d
 1274 072d C6060000 		.4byte	0x6c6
 1275 0731 00000000 		.4byte	.LFB256
 1276 0735 88000000 		.4byte	.LFE256-.LFB256
 1277 0739 01       		.uleb128 0x1
 1278 073a 9C       		.byte	0x9c
 1279 073b 5E070000 		.4byte	0x75e
 1280 073f 18       		.uleb128 0x18
 1281 0740 99050000 		.4byte	.LASF109
 1282 0744 01       		.byte	0x1
 1283 0745 1D       		.byte	0x1d
 1284 0746 10070000 		.4byte	0x710
 1285 074a 00000000 		.4byte	.LLST0
 1286 074e 19       		.uleb128 0x19
 1287 074f AF050000 		.4byte	.LASF111
 1288 0753 01       		.byte	0x1
 1289 0754 1F       		.byte	0x1f
 1290 0755 C6060000 		.4byte	0x6c6
 1291 0759 1B010000 		.4byte	.LLST1
 1292 075d 00       		.byte	0
 1293 075e 17       		.uleb128 0x17
 1294 075f 8A030000 		.4byte	.LASF108
 1295 0763 01       		.byte	0x1
 1296 0764 51       		.byte	0x51
 1297 0765 D1070000 		.4byte	0x7d1
 1298 0769 00000000 		.4byte	.LFB257
ARM GAS  /tmp/ccVhibFx.s 			page 24


 1299 076d 6C000000 		.4byte	.LFE257-.LFB257
 1300 0771 01       		.uleb128 0x1
 1301 0772 9C       		.byte	0x9c
 1302 0773 D1070000 		.4byte	0x7d1
 1303 0777 18       		.uleb128 0x18
 1304 0778 73010000 		.4byte	.LASF110
 1305 077c 01       		.byte	0x1
 1306 077d 51       		.byte	0x51
 1307 077e 1B070000 		.4byte	0x71b
 1308 0782 BE010000 		.4byte	.LLST2
 1309 0786 1A       		.uleb128 0x1a
 1310 0787 B3000000 		.4byte	.LASF112
 1311 078b 01       		.byte	0x1
 1312 078c 53       		.byte	0x53
 1313 078d D7070000 		.4byte	0x7d7
 1314 0791 05       		.uleb128 0x5
 1315 0792 03       		.byte	0x3
 1316 0793 00000000 		.4byte	pValueToTextBuffer.8183
 1317 0797 19       		.uleb128 0x19
 1318 0798 64010000 		.4byte	.LASF113
 1319 079c 01       		.byte	0x1
 1320 079d 54       		.byte	0x54
 1321 079e D1070000 		.4byte	0x7d1
 1322 07a2 08020000 		.4byte	.LLST3
 1323 07a6 19       		.uleb128 0x19
 1324 07a7 97020000 		.4byte	.LASF114
 1325 07ab 01       		.byte	0x1
 1326 07ac 55       		.byte	0x55
 1327 07ad D1070000 		.4byte	0x7d1
 1328 07b1 6F020000 		.4byte	.LLST4
 1329 07b5 19       		.uleb128 0x19
 1330 07b6 03020000 		.4byte	.LASF115
 1331 07ba 01       		.byte	0x1
 1332 07bb 56       		.byte	0x56
 1333 07bc D1060000 		.4byte	0x6d1
 1334 07c0 92020000 		.4byte	.LLST5
 1335 07c4 1B       		.uleb128 0x1b
 1336 07c5 AF030000 		.4byte	.LASF116
 1337 07c9 01       		.byte	0x1
 1338 07ca 57       		.byte	0x57
 1339 07cb 10070000 		.4byte	0x710
 1340 07cf 00       		.byte	0
 1341 07d0 00       		.byte	0
 1342 07d1 0A       		.uleb128 0xa
 1343 07d2 04       		.byte	0x4
 1344 07d3 D1060000 		.4byte	0x6d1
 1345 07d7 15       		.uleb128 0x15
 1346 07d8 D1060000 		.4byte	0x6d1
 1347 07dc E7070000 		.4byte	0x7e7
 1348 07e0 16       		.uleb128 0x16
 1349 07e1 64040000 		.4byte	0x464
 1350 07e5 0B       		.byte	0xb
 1351 07e6 00       		.byte	0
 1352 07e7 1C       		.uleb128 0x1c
 1353 07e8 6D696E00 		.ascii	"min\000"
 1354 07ec 01       		.byte	0x1
 1355 07ed 7F       		.byte	0x7f
ARM GAS  /tmp/ccVhibFx.s 			page 25


 1356 07ee 10070000 		.4byte	0x710
 1357 07f2 00000000 		.4byte	.LFB258
 1358 07f6 08000000 		.4byte	.LFE258-.LFB258
 1359 07fa 01       		.uleb128 0x1
 1360 07fb 9C       		.byte	0x9c
 1361 07fc 1B080000 		.4byte	0x81b
 1362 0800 1D       		.uleb128 0x1d
 1363 0801 763100   		.ascii	"v1\000"
 1364 0804 01       		.byte	0x1
 1365 0805 7F       		.byte	0x7f
 1366 0806 10070000 		.4byte	0x710
 1367 080a A5020000 		.4byte	.LLST6
 1368 080e 1E       		.uleb128 0x1e
 1369 080f 763200   		.ascii	"v2\000"
 1370 0812 01       		.byte	0x1
 1371 0813 7F       		.byte	0x7f
 1372 0814 10070000 		.4byte	0x710
 1373 0818 01       		.uleb128 0x1
 1374 0819 51       		.byte	0x51
 1375 081a 00       		.byte	0
 1376 081b 1F       		.uleb128 0x1f
 1377 081c 12060000 		.4byte	.LASF125
 1378 0820 01       		.byte	0x1
 1379 0821 90       		.byte	0x90
 1380 0822 00000000 		.4byte	.LFB259
 1381 0826 1A000000 		.4byte	.LFE259-.LFB259
 1382 082a 01       		.uleb128 0x1
 1383 082b 9C       		.byte	0x9c
 1384 082c 6B080000 		.4byte	0x86b
 1385 0830 18       		.uleb128 0x18
 1386 0831 85050000 		.4byte	.LASF117
 1387 0835 01       		.byte	0x1
 1388 0836 90       		.byte	0x90
 1389 0837 6B080000 		.4byte	0x86b
 1390 083b C6020000 		.4byte	.LLST7
 1391 083f 18       		.uleb128 0x18
 1392 0840 1B040000 		.4byte	.LASF118
 1393 0844 01       		.byte	0x1
 1394 0845 90       		.byte	0x90
 1395 0846 10070000 		.4byte	0x710
 1396 084a F1020000 		.4byte	.LLST8
 1397 084e 19       		.uleb128 0x19
 1398 084f 48000000 		.4byte	.LASF119
 1399 0853 01       		.byte	0x1
 1400 0854 92       		.byte	0x92
 1401 0855 10070000 		.4byte	0x710
 1402 0859 12030000 		.4byte	.LLST9
 1403 085d 1A       		.uleb128 0x1a
 1404 085e 6A010000 		.4byte	.LASF120
 1405 0862 01       		.byte	0x1
 1406 0863 93       		.byte	0x93
 1407 0864 6B080000 		.4byte	0x86b
 1408 0868 01       		.uleb128 0x1
 1409 0869 51       		.byte	0x51
 1410 086a 00       		.byte	0
 1411 086b 0A       		.uleb128 0xa
 1412 086c 04       		.byte	0x4
ARM GAS  /tmp/ccVhibFx.s 			page 26


 1413 086d 10070000 		.4byte	0x710
 1414 0871 20       		.uleb128 0x20
 1415 0872 8E000000 		.4byte	.LASF121
 1416 0876 0D       		.byte	0xd
 1417 0877 A706     		.2byte	0x6a7
 1418 0879 C3000000 		.4byte	0xc3
 1419 087d 21       		.uleb128 0x21
 1420 087e 636800   		.ascii	"ch\000"
 1421 0881 06       		.byte	0x6
 1422 0882 0902     		.2byte	0x209
 1423 0884 FD030000 		.4byte	0x3fd
 1424 0888 00       		.byte	0
 1425              		.section	.debug_abbrev,"",%progbits
 1426              	.Ldebug_abbrev0:
 1427 0000 01       		.uleb128 0x1
 1428 0001 11       		.uleb128 0x11
 1429 0002 01       		.byte	0x1
 1430 0003 25       		.uleb128 0x25
 1431 0004 0E       		.uleb128 0xe
 1432 0005 13       		.uleb128 0x13
 1433 0006 0B       		.uleb128 0xb
 1434 0007 03       		.uleb128 0x3
 1435 0008 0E       		.uleb128 0xe
 1436 0009 1B       		.uleb128 0x1b
 1437 000a 0E       		.uleb128 0xe
 1438 000b 55       		.uleb128 0x55
 1439 000c 17       		.uleb128 0x17
 1440 000d 11       		.uleb128 0x11
 1441 000e 01       		.uleb128 0x1
 1442 000f 10       		.uleb128 0x10
 1443 0010 17       		.uleb128 0x17
 1444 0011 00       		.byte	0
 1445 0012 00       		.byte	0
 1446 0013 02       		.uleb128 0x2
 1447 0014 24       		.uleb128 0x24
 1448 0015 00       		.byte	0
 1449 0016 0B       		.uleb128 0xb
 1450 0017 0B       		.uleb128 0xb
 1451 0018 3E       		.uleb128 0x3e
 1452 0019 0B       		.uleb128 0xb
 1453 001a 03       		.uleb128 0x3
 1454 001b 0E       		.uleb128 0xe
 1455 001c 00       		.byte	0
 1456 001d 00       		.byte	0
 1457 001e 03       		.uleb128 0x3
 1458 001f 16       		.uleb128 0x16
 1459 0020 00       		.byte	0
 1460 0021 03       		.uleb128 0x3
 1461 0022 0E       		.uleb128 0xe
 1462 0023 3A       		.uleb128 0x3a
 1463 0024 0B       		.uleb128 0xb
 1464 0025 3B       		.uleb128 0x3b
 1465 0026 0B       		.uleb128 0xb
 1466 0027 49       		.uleb128 0x49
 1467 0028 13       		.uleb128 0x13
 1468 0029 00       		.byte	0
 1469 002a 00       		.byte	0
ARM GAS  /tmp/ccVhibFx.s 			page 27


 1470 002b 04       		.uleb128 0x4
 1471 002c 24       		.uleb128 0x24
 1472 002d 00       		.byte	0
 1473 002e 0B       		.uleb128 0xb
 1474 002f 0B       		.uleb128 0xb
 1475 0030 3E       		.uleb128 0x3e
 1476 0031 0B       		.uleb128 0xb
 1477 0032 03       		.uleb128 0x3
 1478 0033 08       		.uleb128 0x8
 1479 0034 00       		.byte	0
 1480 0035 00       		.byte	0
 1481 0036 05       		.uleb128 0x5
 1482 0037 35       		.uleb128 0x35
 1483 0038 00       		.byte	0
 1484 0039 49       		.uleb128 0x49
 1485 003a 13       		.uleb128 0x13
 1486 003b 00       		.byte	0
 1487 003c 00       		.byte	0
 1488 003d 06       		.uleb128 0x6
 1489 003e 13       		.uleb128 0x13
 1490 003f 01       		.byte	0x1
 1491 0040 03       		.uleb128 0x3
 1492 0041 0E       		.uleb128 0xe
 1493 0042 0B       		.uleb128 0xb
 1494 0043 0B       		.uleb128 0xb
 1495 0044 3A       		.uleb128 0x3a
 1496 0045 0B       		.uleb128 0xb
 1497 0046 3B       		.uleb128 0x3b
 1498 0047 0B       		.uleb128 0xb
 1499 0048 01       		.uleb128 0x1
 1500 0049 13       		.uleb128 0x13
 1501 004a 00       		.byte	0
 1502 004b 00       		.byte	0
 1503 004c 07       		.uleb128 0x7
 1504 004d 0D       		.uleb128 0xd
 1505 004e 00       		.byte	0
 1506 004f 03       		.uleb128 0x3
 1507 0050 0E       		.uleb128 0xe
 1508 0051 3A       		.uleb128 0x3a
 1509 0052 0B       		.uleb128 0xb
 1510 0053 3B       		.uleb128 0x3b
 1511 0054 0B       		.uleb128 0xb
 1512 0055 49       		.uleb128 0x49
 1513 0056 13       		.uleb128 0x13
 1514 0057 38       		.uleb128 0x38
 1515 0058 0B       		.uleb128 0xb
 1516 0059 00       		.byte	0
 1517 005a 00       		.byte	0
 1518 005b 08       		.uleb128 0x8
 1519 005c 0D       		.uleb128 0xd
 1520 005d 00       		.byte	0
 1521 005e 03       		.uleb128 0x3
 1522 005f 08       		.uleb128 0x8
 1523 0060 3A       		.uleb128 0x3a
 1524 0061 0B       		.uleb128 0xb
 1525 0062 3B       		.uleb128 0x3b
 1526 0063 05       		.uleb128 0x5
ARM GAS  /tmp/ccVhibFx.s 			page 28


 1527 0064 49       		.uleb128 0x49
 1528 0065 13       		.uleb128 0x13
 1529 0066 38       		.uleb128 0x38
 1530 0067 0B       		.uleb128 0xb
 1531 0068 00       		.byte	0
 1532 0069 00       		.byte	0
 1533 006a 09       		.uleb128 0x9
 1534 006b 0D       		.uleb128 0xd
 1535 006c 00       		.byte	0
 1536 006d 03       		.uleb128 0x3
 1537 006e 0E       		.uleb128 0xe
 1538 006f 3A       		.uleb128 0x3a
 1539 0070 0B       		.uleb128 0xb
 1540 0071 3B       		.uleb128 0x3b
 1541 0072 05       		.uleb128 0x5
 1542 0073 49       		.uleb128 0x49
 1543 0074 13       		.uleb128 0x13
 1544 0075 38       		.uleb128 0x38
 1545 0076 0B       		.uleb128 0xb
 1546 0077 00       		.byte	0
 1547 0078 00       		.byte	0
 1548 0079 0A       		.uleb128 0xa
 1549 007a 0F       		.uleb128 0xf
 1550 007b 00       		.byte	0
 1551 007c 0B       		.uleb128 0xb
 1552 007d 0B       		.uleb128 0xb
 1553 007e 49       		.uleb128 0x49
 1554 007f 13       		.uleb128 0x13
 1555 0080 00       		.byte	0
 1556 0081 00       		.byte	0
 1557 0082 0B       		.uleb128 0xb
 1558 0083 13       		.uleb128 0x13
 1559 0084 01       		.byte	0x1
 1560 0085 03       		.uleb128 0x3
 1561 0086 0E       		.uleb128 0xe
 1562 0087 0B       		.uleb128 0xb
 1563 0088 0B       		.uleb128 0xb
 1564 0089 3A       		.uleb128 0x3a
 1565 008a 0B       		.uleb128 0xb
 1566 008b 3B       		.uleb128 0x3b
 1567 008c 05       		.uleb128 0x5
 1568 008d 01       		.uleb128 0x1
 1569 008e 13       		.uleb128 0x13
 1570 008f 00       		.byte	0
 1571 0090 00       		.byte	0
 1572 0091 0C       		.uleb128 0xc
 1573 0092 15       		.uleb128 0x15
 1574 0093 01       		.byte	0x1
 1575 0094 27       		.uleb128 0x27
 1576 0095 19       		.uleb128 0x19
 1577 0096 01       		.uleb128 0x1
 1578 0097 13       		.uleb128 0x13
 1579 0098 00       		.byte	0
 1580 0099 00       		.byte	0
 1581 009a 0D       		.uleb128 0xd
 1582 009b 05       		.uleb128 0x5
 1583 009c 00       		.byte	0
ARM GAS  /tmp/ccVhibFx.s 			page 29


 1584 009d 49       		.uleb128 0x49
 1585 009e 13       		.uleb128 0x13
 1586 009f 00       		.byte	0
 1587 00a0 00       		.byte	0
 1588 00a1 0E       		.uleb128 0xe
 1589 00a2 0F       		.uleb128 0xf
 1590 00a3 00       		.byte	0
 1591 00a4 0B       		.uleb128 0xb
 1592 00a5 0B       		.uleb128 0xb
 1593 00a6 00       		.byte	0
 1594 00a7 00       		.byte	0
 1595 00a8 0F       		.uleb128 0xf
 1596 00a9 13       		.uleb128 0x13
 1597 00aa 01       		.byte	0x1
 1598 00ab 03       		.uleb128 0x3
 1599 00ac 0E       		.uleb128 0xe
 1600 00ad 0B       		.uleb128 0xb
 1601 00ae 05       		.uleb128 0x5
 1602 00af 3A       		.uleb128 0x3a
 1603 00b0 0B       		.uleb128 0xb
 1604 00b1 3B       		.uleb128 0x3b
 1605 00b2 05       		.uleb128 0x5
 1606 00b3 01       		.uleb128 0x1
 1607 00b4 13       		.uleb128 0x13
 1608 00b5 00       		.byte	0
 1609 00b6 00       		.byte	0
 1610 00b7 10       		.uleb128 0x10
 1611 00b8 0D       		.uleb128 0xd
 1612 00b9 00       		.byte	0
 1613 00ba 03       		.uleb128 0x3
 1614 00bb 08       		.uleb128 0x8
 1615 00bc 3A       		.uleb128 0x3a
 1616 00bd 0B       		.uleb128 0xb
 1617 00be 3B       		.uleb128 0x3b
 1618 00bf 0B       		.uleb128 0xb
 1619 00c0 49       		.uleb128 0x49
 1620 00c1 13       		.uleb128 0x13
 1621 00c2 38       		.uleb128 0x38
 1622 00c3 0B       		.uleb128 0xb
 1623 00c4 00       		.byte	0
 1624 00c5 00       		.byte	0
 1625 00c6 11       		.uleb128 0x11
 1626 00c7 13       		.uleb128 0x13
 1627 00c8 01       		.byte	0x1
 1628 00c9 0B       		.uleb128 0xb
 1629 00ca 0B       		.uleb128 0xb
 1630 00cb 3A       		.uleb128 0x3a
 1631 00cc 0B       		.uleb128 0xb
 1632 00cd 3B       		.uleb128 0x3b
 1633 00ce 0B       		.uleb128 0xb
 1634 00cf 01       		.uleb128 0x1
 1635 00d0 13       		.uleb128 0x13
 1636 00d1 00       		.byte	0
 1637 00d2 00       		.byte	0
 1638 00d3 12       		.uleb128 0x12
 1639 00d4 17       		.uleb128 0x17
 1640 00d5 01       		.byte	0x1
ARM GAS  /tmp/ccVhibFx.s 			page 30


 1641 00d6 0B       		.uleb128 0xb
 1642 00d7 0B       		.uleb128 0xb
 1643 00d8 3A       		.uleb128 0x3a
 1644 00d9 0B       		.uleb128 0xb
 1645 00da 3B       		.uleb128 0x3b
 1646 00db 0B       		.uleb128 0xb
 1647 00dc 01       		.uleb128 0x1
 1648 00dd 13       		.uleb128 0x13
 1649 00de 00       		.byte	0
 1650 00df 00       		.byte	0
 1651 00e0 13       		.uleb128 0x13
 1652 00e1 0D       		.uleb128 0xd
 1653 00e2 00       		.byte	0
 1654 00e3 03       		.uleb128 0x3
 1655 00e4 0E       		.uleb128 0xe
 1656 00e5 3A       		.uleb128 0x3a
 1657 00e6 0B       		.uleb128 0xb
 1658 00e7 3B       		.uleb128 0x3b
 1659 00e8 05       		.uleb128 0x5
 1660 00e9 49       		.uleb128 0x49
 1661 00ea 13       		.uleb128 0x13
 1662 00eb 00       		.byte	0
 1663 00ec 00       		.byte	0
 1664 00ed 14       		.uleb128 0x14
 1665 00ee 26       		.uleb128 0x26
 1666 00ef 00       		.byte	0
 1667 00f0 49       		.uleb128 0x49
 1668 00f1 13       		.uleb128 0x13
 1669 00f2 00       		.byte	0
 1670 00f3 00       		.byte	0
 1671 00f4 15       		.uleb128 0x15
 1672 00f5 01       		.uleb128 0x1
 1673 00f6 01       		.byte	0x1
 1674 00f7 49       		.uleb128 0x49
 1675 00f8 13       		.uleb128 0x13
 1676 00f9 01       		.uleb128 0x1
 1677 00fa 13       		.uleb128 0x13
 1678 00fb 00       		.byte	0
 1679 00fc 00       		.byte	0
 1680 00fd 16       		.uleb128 0x16
 1681 00fe 21       		.uleb128 0x21
 1682 00ff 00       		.byte	0
 1683 0100 49       		.uleb128 0x49
 1684 0101 13       		.uleb128 0x13
 1685 0102 2F       		.uleb128 0x2f
 1686 0103 0B       		.uleb128 0xb
 1687 0104 00       		.byte	0
 1688 0105 00       		.byte	0
 1689 0106 17       		.uleb128 0x17
 1690 0107 2E       		.uleb128 0x2e
 1691 0108 01       		.byte	0x1
 1692 0109 3F       		.uleb128 0x3f
 1693 010a 19       		.uleb128 0x19
 1694 010b 03       		.uleb128 0x3
 1695 010c 0E       		.uleb128 0xe
 1696 010d 3A       		.uleb128 0x3a
 1697 010e 0B       		.uleb128 0xb
ARM GAS  /tmp/ccVhibFx.s 			page 31


 1698 010f 3B       		.uleb128 0x3b
 1699 0110 0B       		.uleb128 0xb
 1700 0111 27       		.uleb128 0x27
 1701 0112 19       		.uleb128 0x19
 1702 0113 49       		.uleb128 0x49
 1703 0114 13       		.uleb128 0x13
 1704 0115 11       		.uleb128 0x11
 1705 0116 01       		.uleb128 0x1
 1706 0117 12       		.uleb128 0x12
 1707 0118 06       		.uleb128 0x6
 1708 0119 40       		.uleb128 0x40
 1709 011a 18       		.uleb128 0x18
 1710 011b 9742     		.uleb128 0x2117
 1711 011d 19       		.uleb128 0x19
 1712 011e 01       		.uleb128 0x1
 1713 011f 13       		.uleb128 0x13
 1714 0120 00       		.byte	0
 1715 0121 00       		.byte	0
 1716 0122 18       		.uleb128 0x18
 1717 0123 05       		.uleb128 0x5
 1718 0124 00       		.byte	0
 1719 0125 03       		.uleb128 0x3
 1720 0126 0E       		.uleb128 0xe
 1721 0127 3A       		.uleb128 0x3a
 1722 0128 0B       		.uleb128 0xb
 1723 0129 3B       		.uleb128 0x3b
 1724 012a 0B       		.uleb128 0xb
 1725 012b 49       		.uleb128 0x49
 1726 012c 13       		.uleb128 0x13
 1727 012d 02       		.uleb128 0x2
 1728 012e 17       		.uleb128 0x17
 1729 012f 00       		.byte	0
 1730 0130 00       		.byte	0
 1731 0131 19       		.uleb128 0x19
 1732 0132 34       		.uleb128 0x34
 1733 0133 00       		.byte	0
 1734 0134 03       		.uleb128 0x3
 1735 0135 0E       		.uleb128 0xe
 1736 0136 3A       		.uleb128 0x3a
 1737 0137 0B       		.uleb128 0xb
 1738 0138 3B       		.uleb128 0x3b
 1739 0139 0B       		.uleb128 0xb
 1740 013a 49       		.uleb128 0x49
 1741 013b 13       		.uleb128 0x13
 1742 013c 02       		.uleb128 0x2
 1743 013d 17       		.uleb128 0x17
 1744 013e 00       		.byte	0
 1745 013f 00       		.byte	0
 1746 0140 1A       		.uleb128 0x1a
 1747 0141 34       		.uleb128 0x34
 1748 0142 00       		.byte	0
 1749 0143 03       		.uleb128 0x3
 1750 0144 0E       		.uleb128 0xe
 1751 0145 3A       		.uleb128 0x3a
 1752 0146 0B       		.uleb128 0xb
 1753 0147 3B       		.uleb128 0x3b
 1754 0148 0B       		.uleb128 0xb
ARM GAS  /tmp/ccVhibFx.s 			page 32


 1755 0149 49       		.uleb128 0x49
 1756 014a 13       		.uleb128 0x13
 1757 014b 02       		.uleb128 0x2
 1758 014c 18       		.uleb128 0x18
 1759 014d 00       		.byte	0
 1760 014e 00       		.byte	0
 1761 014f 1B       		.uleb128 0x1b
 1762 0150 34       		.uleb128 0x34
 1763 0151 00       		.byte	0
 1764 0152 03       		.uleb128 0x3
 1765 0153 0E       		.uleb128 0xe
 1766 0154 3A       		.uleb128 0x3a
 1767 0155 0B       		.uleb128 0xb
 1768 0156 3B       		.uleb128 0x3b
 1769 0157 0B       		.uleb128 0xb
 1770 0158 49       		.uleb128 0x49
 1771 0159 13       		.uleb128 0x13
 1772 015a 1C       		.uleb128 0x1c
 1773 015b 0B       		.uleb128 0xb
 1774 015c 00       		.byte	0
 1775 015d 00       		.byte	0
 1776 015e 1C       		.uleb128 0x1c
 1777 015f 2E       		.uleb128 0x2e
 1778 0160 01       		.byte	0x1
 1779 0161 3F       		.uleb128 0x3f
 1780 0162 19       		.uleb128 0x19
 1781 0163 03       		.uleb128 0x3
 1782 0164 08       		.uleb128 0x8
 1783 0165 3A       		.uleb128 0x3a
 1784 0166 0B       		.uleb128 0xb
 1785 0167 3B       		.uleb128 0x3b
 1786 0168 0B       		.uleb128 0xb
 1787 0169 27       		.uleb128 0x27
 1788 016a 19       		.uleb128 0x19
 1789 016b 49       		.uleb128 0x49
 1790 016c 13       		.uleb128 0x13
 1791 016d 11       		.uleb128 0x11
 1792 016e 01       		.uleb128 0x1
 1793 016f 12       		.uleb128 0x12
 1794 0170 06       		.uleb128 0x6
 1795 0171 40       		.uleb128 0x40
 1796 0172 18       		.uleb128 0x18
 1797 0173 9742     		.uleb128 0x2117
 1798 0175 19       		.uleb128 0x19
 1799 0176 01       		.uleb128 0x1
 1800 0177 13       		.uleb128 0x13
 1801 0178 00       		.byte	0
 1802 0179 00       		.byte	0
 1803 017a 1D       		.uleb128 0x1d
 1804 017b 05       		.uleb128 0x5
 1805 017c 00       		.byte	0
 1806 017d 03       		.uleb128 0x3
 1807 017e 08       		.uleb128 0x8
 1808 017f 3A       		.uleb128 0x3a
 1809 0180 0B       		.uleb128 0xb
 1810 0181 3B       		.uleb128 0x3b
 1811 0182 0B       		.uleb128 0xb
ARM GAS  /tmp/ccVhibFx.s 			page 33


 1812 0183 49       		.uleb128 0x49
 1813 0184 13       		.uleb128 0x13
 1814 0185 02       		.uleb128 0x2
 1815 0186 17       		.uleb128 0x17
 1816 0187 00       		.byte	0
 1817 0188 00       		.byte	0
 1818 0189 1E       		.uleb128 0x1e
 1819 018a 05       		.uleb128 0x5
 1820 018b 00       		.byte	0
 1821 018c 03       		.uleb128 0x3
 1822 018d 08       		.uleb128 0x8
 1823 018e 3A       		.uleb128 0x3a
 1824 018f 0B       		.uleb128 0xb
 1825 0190 3B       		.uleb128 0x3b
 1826 0191 0B       		.uleb128 0xb
 1827 0192 49       		.uleb128 0x49
 1828 0193 13       		.uleb128 0x13
 1829 0194 02       		.uleb128 0x2
 1830 0195 18       		.uleb128 0x18
 1831 0196 00       		.byte	0
 1832 0197 00       		.byte	0
 1833 0198 1F       		.uleb128 0x1f
 1834 0199 2E       		.uleb128 0x2e
 1835 019a 01       		.byte	0x1
 1836 019b 3F       		.uleb128 0x3f
 1837 019c 19       		.uleb128 0x19
 1838 019d 03       		.uleb128 0x3
 1839 019e 0E       		.uleb128 0xe
 1840 019f 3A       		.uleb128 0x3a
 1841 01a0 0B       		.uleb128 0xb
 1842 01a1 3B       		.uleb128 0x3b
 1843 01a2 0B       		.uleb128 0xb
 1844 01a3 27       		.uleb128 0x27
 1845 01a4 19       		.uleb128 0x19
 1846 01a5 11       		.uleb128 0x11
 1847 01a6 01       		.uleb128 0x1
 1848 01a7 12       		.uleb128 0x12
 1849 01a8 06       		.uleb128 0x6
 1850 01a9 40       		.uleb128 0x40
 1851 01aa 18       		.uleb128 0x18
 1852 01ab 9742     		.uleb128 0x2117
 1853 01ad 19       		.uleb128 0x19
 1854 01ae 01       		.uleb128 0x1
 1855 01af 13       		.uleb128 0x13
 1856 01b0 00       		.byte	0
 1857 01b1 00       		.byte	0
 1858 01b2 20       		.uleb128 0x20
 1859 01b3 34       		.uleb128 0x34
 1860 01b4 00       		.byte	0
 1861 01b5 03       		.uleb128 0x3
 1862 01b6 0E       		.uleb128 0xe
 1863 01b7 3A       		.uleb128 0x3a
 1864 01b8 0B       		.uleb128 0xb
 1865 01b9 3B       		.uleb128 0x3b
 1866 01ba 05       		.uleb128 0x5
 1867 01bb 49       		.uleb128 0x49
 1868 01bc 13       		.uleb128 0x13
ARM GAS  /tmp/ccVhibFx.s 			page 34


 1869 01bd 3F       		.uleb128 0x3f
 1870 01be 19       		.uleb128 0x19
 1871 01bf 3C       		.uleb128 0x3c
 1872 01c0 19       		.uleb128 0x19
 1873 01c1 00       		.byte	0
 1874 01c2 00       		.byte	0
 1875 01c3 21       		.uleb128 0x21
 1876 01c4 34       		.uleb128 0x34
 1877 01c5 00       		.byte	0
 1878 01c6 03       		.uleb128 0x3
 1879 01c7 08       		.uleb128 0x8
 1880 01c8 3A       		.uleb128 0x3a
 1881 01c9 0B       		.uleb128 0xb
 1882 01ca 3B       		.uleb128 0x3b
 1883 01cb 05       		.uleb128 0x5
 1884 01cc 49       		.uleb128 0x49
 1885 01cd 13       		.uleb128 0x13
 1886 01ce 3F       		.uleb128 0x3f
 1887 01cf 19       		.uleb128 0x19
 1888 01d0 3C       		.uleb128 0x3c
 1889 01d1 19       		.uleb128 0x19
 1890 01d2 00       		.byte	0
 1891 01d3 00       		.byte	0
 1892 01d4 00       		.byte	0
 1893              		.section	.debug_loc,"",%progbits
 1894              	.Ldebug_loc0:
 1895              	.LLST0:
 1896 0000 00000000 		.4byte	.LVL0
 1897 0004 16000000 		.4byte	.LVL2
 1898 0008 0100     		.2byte	0x1
 1899 000a 50       		.byte	0x50
 1900 000b 16000000 		.4byte	.LVL2
 1901 000f 18000000 		.4byte	.LVL3
 1902 0013 0400     		.2byte	0x4
 1903 0015 F3       		.byte	0xf3
 1904 0016 01       		.uleb128 0x1
 1905 0017 50       		.byte	0x50
 1906 0018 9F       		.byte	0x9f
 1907 0019 18000000 		.4byte	.LVL3
 1908 001d 28000000 		.4byte	.LVL5
 1909 0021 0100     		.2byte	0x1
 1910 0023 50       		.byte	0x50
 1911 0024 28000000 		.4byte	.LVL5
 1912 0028 2A000000 		.4byte	.LVL6
 1913 002c 0400     		.2byte	0x4
 1914 002e F3       		.byte	0xf3
 1915 002f 01       		.uleb128 0x1
 1916 0030 50       		.byte	0x50
 1917 0031 9F       		.byte	0x9f
 1918 0032 2A000000 		.4byte	.LVL6
 1919 0036 34000000 		.4byte	.LVL8
 1920 003a 0100     		.2byte	0x1
 1921 003c 50       		.byte	0x50
 1922 003d 34000000 		.4byte	.LVL8
 1923 0041 36000000 		.4byte	.LVL9
 1924 0045 0400     		.2byte	0x4
 1925 0047 F3       		.byte	0xf3
ARM GAS  /tmp/ccVhibFx.s 			page 35


 1926 0048 01       		.uleb128 0x1
 1927 0049 50       		.byte	0x50
 1928 004a 9F       		.byte	0x9f
 1929 004b 36000000 		.4byte	.LVL9
 1930 004f 38000000 		.4byte	.LVL10
 1931 0053 0100     		.2byte	0x1
 1932 0055 50       		.byte	0x50
 1933 0056 38000000 		.4byte	.LVL10
 1934 005a 3A000000 		.4byte	.LVL11
 1935 005e 0400     		.2byte	0x4
 1936 0060 F3       		.byte	0xf3
 1937 0061 01       		.uleb128 0x1
 1938 0062 50       		.byte	0x50
 1939 0063 9F       		.byte	0x9f
 1940 0064 3A000000 		.4byte	.LVL11
 1941 0068 3C000000 		.4byte	.LVL12
 1942 006c 0100     		.2byte	0x1
 1943 006e 50       		.byte	0x50
 1944 006f 3C000000 		.4byte	.LVL12
 1945 0073 3E000000 		.4byte	.LVL13
 1946 0077 0400     		.2byte	0x4
 1947 0079 F3       		.byte	0xf3
 1948 007a 01       		.uleb128 0x1
 1949 007b 50       		.byte	0x50
 1950 007c 9F       		.byte	0x9f
 1951 007d 3E000000 		.4byte	.LVL13
 1952 0081 40000000 		.4byte	.LVL14
 1953 0085 0100     		.2byte	0x1
 1954 0087 50       		.byte	0x50
 1955 0088 40000000 		.4byte	.LVL14
 1956 008c 42000000 		.4byte	.LVL15
 1957 0090 0400     		.2byte	0x4
 1958 0092 F3       		.byte	0xf3
 1959 0093 01       		.uleb128 0x1
 1960 0094 50       		.byte	0x50
 1961 0095 9F       		.byte	0x9f
 1962 0096 42000000 		.4byte	.LVL15
 1963 009a 48000000 		.4byte	.LVL17
 1964 009e 0100     		.2byte	0x1
 1965 00a0 50       		.byte	0x50
 1966 00a1 48000000 		.4byte	.LVL17
 1967 00a5 4A000000 		.4byte	.LVL18
 1968 00a9 0400     		.2byte	0x4
 1969 00ab F3       		.byte	0xf3
 1970 00ac 01       		.uleb128 0x1
 1971 00ad 50       		.byte	0x50
 1972 00ae 9F       		.byte	0x9f
 1973 00af 4A000000 		.4byte	.LVL18
 1974 00b3 4C000000 		.4byte	.LVL19
 1975 00b7 0100     		.2byte	0x1
 1976 00b9 50       		.byte	0x50
 1977 00ba 4C000000 		.4byte	.LVL19
 1978 00be 4E000000 		.4byte	.LVL20
 1979 00c2 0400     		.2byte	0x4
 1980 00c4 F3       		.byte	0xf3
 1981 00c5 01       		.uleb128 0x1
 1982 00c6 50       		.byte	0x50
ARM GAS  /tmp/ccVhibFx.s 			page 36


 1983 00c7 9F       		.byte	0x9f
 1984 00c8 4E000000 		.4byte	.LVL20
 1985 00cc 50000000 		.4byte	.LVL21
 1986 00d0 0100     		.2byte	0x1
 1987 00d2 50       		.byte	0x50
 1988 00d3 50000000 		.4byte	.LVL21
 1989 00d7 52000000 		.4byte	.LVL22
 1990 00db 0400     		.2byte	0x4
 1991 00dd F3       		.byte	0xf3
 1992 00de 01       		.uleb128 0x1
 1993 00df 50       		.byte	0x50
 1994 00e0 9F       		.byte	0x9f
 1995 00e1 52000000 		.4byte	.LVL22
 1996 00e5 54000000 		.4byte	.LVL23
 1997 00e9 0100     		.2byte	0x1
 1998 00eb 50       		.byte	0x50
 1999 00ec 54000000 		.4byte	.LVL23
 2000 00f0 56000000 		.4byte	.LVL24
 2001 00f4 0400     		.2byte	0x4
 2002 00f6 F3       		.byte	0xf3
 2003 00f7 01       		.uleb128 0x1
 2004 00f8 50       		.byte	0x50
 2005 00f9 9F       		.byte	0x9f
 2006 00fa 56000000 		.4byte	.LVL24
 2007 00fe 58000000 		.4byte	.LVL25
 2008 0102 0100     		.2byte	0x1
 2009 0104 50       		.byte	0x50
 2010 0105 58000000 		.4byte	.LVL25
 2011 0109 88000000 		.4byte	.LFE256
 2012 010d 0400     		.2byte	0x4
 2013 010f F3       		.byte	0xf3
 2014 0110 01       		.uleb128 0x1
 2015 0111 50       		.byte	0x50
 2016 0112 9F       		.byte	0x9f
 2017 0113 00000000 		.4byte	0
 2018 0117 00000000 		.4byte	0
 2019              	.LLST1:
 2020 011b 14000000 		.4byte	.LVL1
 2021 011f 18000000 		.4byte	.LVL3
 2022 0123 0600     		.2byte	0x6
 2023 0125 03       		.byte	0x3
 2024 0126 10000000 		.4byte	.LC2
 2025 012a 9F       		.byte	0x9f
 2026 012b 26000000 		.4byte	.LVL4
 2027 012f 2A000000 		.4byte	.LVL6
 2028 0133 0600     		.2byte	0x6
 2029 0135 03       		.byte	0x3
 2030 0136 30000000 		.4byte	.LC6
 2031 013a 9F       		.byte	0x9f
 2032 013b 32000000 		.4byte	.LVL7
 2033 013f 36000000 		.4byte	.LVL9
 2034 0143 0600     		.2byte	0x6
 2035 0145 03       		.byte	0x3
 2036 0146 28000000 		.4byte	.LC5
 2037 014a 9F       		.byte	0x9f
 2038 014b 36000000 		.4byte	.LVL9
 2039 014f 3A000000 		.4byte	.LVL11
ARM GAS  /tmp/ccVhibFx.s 			page 37


 2040 0153 0600     		.2byte	0x6
 2041 0155 03       		.byte	0x3
 2042 0156 48000000 		.4byte	.LC9
 2043 015a 9F       		.byte	0x9f
 2044 015b 3A000000 		.4byte	.LVL11
 2045 015f 3E000000 		.4byte	.LVL13
 2046 0163 0600     		.2byte	0x6
 2047 0165 03       		.byte	0x3
 2048 0166 20000000 		.4byte	.LC4
 2049 016a 9F       		.byte	0x9f
 2050 016b 46000000 		.4byte	.LVL16
 2051 016f 4A000000 		.4byte	.LVL18
 2052 0173 0600     		.2byte	0x6
 2053 0175 03       		.byte	0x3
 2054 0176 40000000 		.4byte	.LC8
 2055 017a 9F       		.byte	0x9f
 2056 017b 4A000000 		.4byte	.LVL18
 2057 017f 4E000000 		.4byte	.LVL20
 2058 0183 0600     		.2byte	0x6
 2059 0185 03       		.byte	0x3
 2060 0186 50000000 		.4byte	.LC10
 2061 018a 9F       		.byte	0x9f
 2062 018b 50000000 		.4byte	.LVL21
 2063 018f 52000000 		.4byte	.LVL22
 2064 0193 0100     		.2byte	0x1
 2065 0195 50       		.byte	0x50
 2066 0196 52000000 		.4byte	.LVL22
 2067 019a 56000000 		.4byte	.LVL24
 2068 019e 0600     		.2byte	0x6
 2069 01a0 03       		.byte	0x3
 2070 01a1 38000000 		.4byte	.LC7
 2071 01a5 9F       		.byte	0x9f
 2072 01a6 56000000 		.4byte	.LVL24
 2073 01aa 88000000 		.4byte	.LFE256
 2074 01ae 0600     		.2byte	0x6
 2075 01b0 03       		.byte	0x3
 2076 01b1 18000000 		.4byte	.LC3
 2077 01b5 9F       		.byte	0x9f
 2078 01b6 00000000 		.4byte	0
 2079 01ba 00000000 		.4byte	0
 2080              	.LLST2:
 2081 01be 00000000 		.4byte	.LVL26
 2082 01c2 0E000000 		.4byte	.LVL27
 2083 01c6 0100     		.2byte	0x1
 2084 01c8 50       		.byte	0x50
 2085 01c9 0E000000 		.4byte	.LVL27
 2086 01cd 12000000 		.4byte	.LVL28
 2087 01d1 0100     		.2byte	0x1
 2088 01d3 53       		.byte	0x53
 2089 01d4 12000000 		.4byte	.LVL28
 2090 01d8 14000000 		.4byte	.LVL29
 2091 01dc 0100     		.2byte	0x1
 2092 01de 52       		.byte	0x52
 2093 01df 14000000 		.4byte	.LVL29
 2094 01e3 26000000 		.4byte	.LVL30
 2095 01e7 0100     		.2byte	0x1
 2096 01e9 53       		.byte	0x53
ARM GAS  /tmp/ccVhibFx.s 			page 38


 2097 01ea 28000000 		.4byte	.LVL31
 2098 01ee 3C000000 		.4byte	.LVL34
 2099 01f2 0100     		.2byte	0x1
 2100 01f4 52       		.byte	0x52
 2101 01f5 5A000000 		.4byte	.LVL41
 2102 01f9 6C000000 		.4byte	.LFE257
 2103 01fd 0100     		.2byte	0x1
 2104 01ff 52       		.byte	0x52
 2105 0200 00000000 		.4byte	0
 2106 0204 00000000 		.4byte	0
 2107              	.LLST3:
 2108 0208 00000000 		.4byte	.LVL26
 2109 020c 12000000 		.4byte	.LVL28
 2110 0210 0600     		.2byte	0x6
 2111 0212 03       		.byte	0x3
 2112 0213 00000000 		.4byte	pValueToTextBuffer.8183
 2113 0217 9F       		.byte	0x9f
 2114 0218 12000000 		.4byte	.LVL28
 2115 021c 38000000 		.4byte	.LVL32
 2116 0220 0100     		.2byte	0x1
 2117 0222 54       		.byte	0x54
 2118 0223 38000000 		.4byte	.LVL32
 2119 0227 3A000000 		.4byte	.LVL33
 2120 022b 0100     		.2byte	0x1
 2121 022d 51       		.byte	0x51
 2122 022e 3A000000 		.4byte	.LVL33
 2123 0232 4C000000 		.4byte	.LVL38
 2124 0236 0100     		.2byte	0x1
 2125 0238 53       		.byte	0x53
 2126 0239 4C000000 		.4byte	.LVL38
 2127 023d 50000000 		.4byte	.LVL39
 2128 0241 0300     		.2byte	0x3
 2129 0243 73       		.byte	0x73
 2130 0244 01       		.sleb128 1
 2131 0245 9F       		.byte	0x9f
 2132 0246 50000000 		.4byte	.LVL39
 2133 024a 5A000000 		.4byte	.LVL41
 2134 024e 0100     		.2byte	0x1
 2135 0250 53       		.byte	0x53
 2136 0251 5A000000 		.4byte	.LVL41
 2137 0255 60000000 		.4byte	.LVL42
 2138 0259 0100     		.2byte	0x1
 2139 025b 54       		.byte	0x54
 2140 025c 60000000 		.4byte	.LVL42
 2141 0260 6C000000 		.4byte	.LFE257
 2142 0264 0100     		.2byte	0x1
 2143 0266 51       		.byte	0x51
 2144 0267 00000000 		.4byte	0
 2145 026b 00000000 		.4byte	0
 2146              	.LLST4:
 2147 026f 40000000 		.4byte	.LVL35
 2148 0273 44000000 		.4byte	.LVL36
 2149 0277 0600     		.2byte	0x6
 2150 0279 03       		.byte	0x3
 2151 027a 00000000 		.4byte	pValueToTextBuffer.8183
 2152 027e 9F       		.byte	0x9f
 2153 027f 44000000 		.4byte	.LVL36
ARM GAS  /tmp/ccVhibFx.s 			page 39


 2154 0283 54000000 		.4byte	.LVL40
 2155 0287 0100     		.2byte	0x1
 2156 0289 52       		.byte	0x52
 2157 028a 00000000 		.4byte	0
 2158 028e 00000000 		.4byte	0
 2159              	.LLST5:
 2160 0292 46000000 		.4byte	.LVL37
 2161 0296 54000000 		.4byte	.LVL40
 2162 029a 0100     		.2byte	0x1
 2163 029c 51       		.byte	0x51
 2164 029d 00000000 		.4byte	0
 2165 02a1 00000000 		.4byte	0
 2166              	.LLST6:
 2167 02a5 00000000 		.4byte	.LVL43
 2168 02a9 06000000 		.4byte	.LVL44
 2169 02ad 0100     		.2byte	0x1
 2170 02af 50       		.byte	0x50
 2171 02b0 06000000 		.4byte	.LVL44
 2172 02b4 08000000 		.4byte	.LFE258
 2173 02b8 0400     		.2byte	0x4
 2174 02ba F3       		.byte	0xf3
 2175 02bb 01       		.uleb128 0x1
 2176 02bc 50       		.byte	0x50
 2177 02bd 9F       		.byte	0x9f
 2178 02be 00000000 		.4byte	0
 2179 02c2 00000000 		.4byte	0
 2180              	.LLST7:
 2181 02c6 00000000 		.4byte	.LVL45
 2182 02ca 10000000 		.4byte	.LVL49
 2183 02ce 0100     		.2byte	0x1
 2184 02d0 50       		.byte	0x50
 2185 02d1 10000000 		.4byte	.LVL49
 2186 02d5 14000000 		.4byte	.LVL50
 2187 02d9 0300     		.2byte	0x3
 2188 02db 70       		.byte	0x70
 2189 02dc 7F       		.sleb128 -1
 2190 02dd 9F       		.byte	0x9f
 2191 02de 14000000 		.4byte	.LVL50
 2192 02e2 1A000000 		.4byte	.LFE259
 2193 02e6 0100     		.2byte	0x1
 2194 02e8 50       		.byte	0x50
 2195 02e9 00000000 		.4byte	0
 2196 02ed 00000000 		.4byte	0
 2197              	.LLST8:
 2198 02f1 00000000 		.4byte	.LVL45
 2199 02f5 02000000 		.4byte	.LVL46
 2200 02f9 0100     		.2byte	0x1
 2201 02fb 51       		.byte	0x51
 2202 02fc 02000000 		.4byte	.LVL46
 2203 0300 1A000000 		.4byte	.LFE259
 2204 0304 0400     		.2byte	0x4
 2205 0306 F3       		.byte	0xf3
 2206 0307 01       		.uleb128 0x1
 2207 0308 51       		.byte	0x51
 2208 0309 9F       		.byte	0x9f
 2209 030a 00000000 		.4byte	0
 2210 030e 00000000 		.4byte	0
ARM GAS  /tmp/ccVhibFx.s 			page 40


 2211              	.LLST9:
 2212 0312 0A000000 		.4byte	.LVL48
 2213 0316 18000000 		.4byte	.LVL51
 2214 031a 0100     		.2byte	0x1
 2215 031c 53       		.byte	0x53
 2216 031d 00000000 		.4byte	0
 2217 0321 00000000 		.4byte	0
 2218              		.section	.debug_aranges,"",%progbits
 2219 0000 34000000 		.4byte	0x34
 2220 0004 0200     		.2byte	0x2
 2221 0006 00000000 		.4byte	.Ldebug_info0
 2222 000a 04       		.byte	0x4
 2223 000b 00       		.byte	0
 2224 000c 0000     		.2byte	0
 2225 000e 0000     		.2byte	0
 2226 0010 00000000 		.4byte	.LFB256
 2227 0014 88000000 		.4byte	.LFE256-.LFB256
 2228 0018 00000000 		.4byte	.LFB257
 2229 001c 6C000000 		.4byte	.LFE257-.LFB257
 2230 0020 00000000 		.4byte	.LFB258
 2231 0024 08000000 		.4byte	.LFE258-.LFB258
 2232 0028 00000000 		.4byte	.LFB259
 2233 002c 1A000000 		.4byte	.LFE259-.LFB259
 2234 0030 00000000 		.4byte	0
 2235 0034 00000000 		.4byte	0
 2236              		.section	.debug_ranges,"",%progbits
 2237              	.Ldebug_ranges0:
 2238 0000 00000000 		.4byte	.LFB256
 2239 0004 88000000 		.4byte	.LFE256
 2240 0008 00000000 		.4byte	.LFB257
 2241 000c 6C000000 		.4byte	.LFE257
 2242 0010 00000000 		.4byte	.LFB258
 2243 0014 08000000 		.4byte	.LFE258
 2244 0018 00000000 		.4byte	.LFB259
 2245 001c 1A000000 		.4byte	.LFE259
 2246 0020 00000000 		.4byte	0
 2247 0024 00000000 		.4byte	0
 2248              		.section	.debug_line,"",%progbits
 2249              	.Ldebug_line0:
 2250 0000 3B020000 		.section	.debug_str,"MS",%progbits,1
 2250      02009F01 
 2250      00000201 
 2250      FB0E0D00 
 2250      01010101 
 2251              	.LASF53:
 2252 0000 72656164 		.ascii	"ready_list_t\000"
 2252      795F6C69 
 2252      73745F74 
 2252      00
 2253              	.LASF91:
 2254 000d 77747472 		.ascii	"wttrp\000"
 2254      7000
 2255              	.LASF88:
 2256 0013 7264796D 		.ascii	"rdymsg\000"
 2256      736700
 2257              	.LASF16:
 2258 001a 75696E74 		.ascii	"uint64_t\000"
ARM GAS  /tmp/ccVhibFx.s 			page 41


 2258      36345F74 
 2258      00
 2259              	.LASF4:
 2260 0023 5F5F7569 		.ascii	"__uint8_t\000"
 2260      6E74385F 
 2260      7400
 2261              	.LASF85:
 2262 002d 706F7274 		.ascii	"port_intctx\000"
 2262      5F696E74 
 2262      63747800 
 2263              	.LASF72:
 2264 0039 73797374 		.ascii	"system_debug_t\000"
 2264      656D5F64 
 2264      65627567 
 2264      5F7400
 2265              	.LASF119:
 2266 0048 74656D70 		.ascii	"temp\000"
 2266      00
 2267              	.LASF11:
 2268 004d 6C6F6E67 		.ascii	"long long unsigned int\000"
 2268      206C6F6E 
 2268      6720756E 
 2268      7369676E 
 2268      65642069 
 2269              	.LASF89:
 2270 0064 65786974 		.ascii	"exitcode\000"
 2270      636F6465 
 2270      00
 2271              	.LASF79:
 2272 006d 6D61696E 		.ascii	"mainthread\000"
 2272      74687265 
 2272      616400
 2273              	.LASF69:
 2274 0078 76697274 		.ascii	"virtual_timers_list_t\000"
 2274      75616C5F 
 2274      74696D65 
 2274      72735F6C 
 2274      6973745F 
 2275              	.LASF121:
 2276 008e 49544D5F 		.ascii	"ITM_RxBuffer\000"
 2276      52784275 
 2276      66666572 
 2276      00
 2277              	.LASF52:
 2278 009b 63685F74 		.ascii	"ch_threads_queue\000"
 2278      68726561 
 2278      64735F71 
 2278      75657565 
 2278      00
 2279              	.LASF30:
 2280 00ac 705F7072 		.ascii	"p_prio\000"
 2280      696F00
 2281              	.LASF112:
 2282 00b3 7056616C 		.ascii	"pValueToTextBuffer\000"
 2282      7565546F 
 2282      54657874 
 2282      42756666 
ARM GAS  /tmp/ccVhibFx.s 			page 42


 2282      657200
 2283              	.LASF103:
 2284 00c6 6D757465 		.ascii	"mutex_t\000"
 2284      785F7400 
 2285              	.LASF9:
 2286 00ce 6C6F6E67 		.ascii	"long long int\000"
 2286      206C6F6E 
 2286      6720696E 
 2286      7400
 2287              	.LASF0:
 2288 00dc 7369676E 		.ascii	"signed char\000"
 2288      65642063 
 2288      68617200 
 2289              	.LASF46:
 2290 00e8 705F6D70 		.ascii	"p_mpool\000"
 2290      6F6F6C00 
 2291              	.LASF99:
 2292 00f0 6D5F7175 		.ascii	"m_queue\000"
 2292      65756500 
 2293              	.LASF107:
 2294 00f8 7574696C 		.ascii	"utilChipIdToStr\000"
 2294      43686970 
 2294      4964546F 
 2294      53747200 
 2295              	.LASF106:
 2296 0108 696E7433 		.ascii	"int32\000"
 2296      3200
 2297              	.LASF78:
 2298 010e 76746C69 		.ascii	"vtlist\000"
 2298      737400
 2299              	.LASF21:
 2300 0115 74736C69 		.ascii	"tslices_t\000"
 2300      6365735F 
 2300      7400
 2301              	.LASF76:
 2302 011f 63685F73 		.ascii	"ch_system\000"
 2302      79737465 
 2302      6D00
 2303              	.LASF6:
 2304 0129 6C6F6E67 		.ascii	"long int\000"
 2304      20696E74 
 2304      00
 2305              	.LASF19:
 2306 0132 74737461 		.ascii	"tstate_t\000"
 2306      74655F74 
 2306      00
 2307              	.LASF32:
 2308 013b 705F6E65 		.ascii	"p_newer\000"
 2308      77657200 
 2309              	.LASF96:
 2310 0143 735F7175 		.ascii	"s_queue\000"
 2310      65756500 
 2311              	.LASF58:
 2312 014b 725F6E65 		.ascii	"r_newer\000"
 2312      77657200 
 2313              	.LASF82:
 2314 0153 72656761 		.ascii	"regarm_t\000"
ARM GAS  /tmp/ccVhibFx.s 			page 43


 2314      726D5F74 
 2314      00
 2315              	.LASF65:
 2316 015c 76745F70 		.ascii	"vt_prev\000"
 2316      72657600 
 2317              	.LASF113:
 2318 0164 704C6173 		.ascii	"pLast\000"
 2318      7400
 2319              	.LASF120:
 2320 016a 70427566 		.ascii	"pBufLast\000"
 2320      4C617374 
 2320      00
 2321              	.LASF110:
 2322 0173 76616C75 		.ascii	"value\000"
 2322      6500
 2323              	.LASF80:
 2324 0179 69646C65 		.ascii	"idle_thread_wa\000"
 2324      5F746872 
 2324      6561645F 
 2324      776100
 2325              	.LASF25:
 2326 0188 636E745F 		.ascii	"cnt_t\000"
 2326      7400
 2327              	.LASF12:
 2328 018e 756E7369 		.ascii	"unsigned int\000"
 2328      676E6564 
 2328      20696E74 
 2328      00
 2329              	.LASF64:
 2330 019b 76745F6E 		.ascii	"vt_next\000"
 2330      65787400 
 2331              	.LASF39:
 2332 01a3 705F7469 		.ascii	"p_time\000"
 2332      6D6500
 2333              	.LASF92:
 2334 01aa 77747365 		.ascii	"wtsemp\000"
 2334      6D7000
 2335              	.LASF66:
 2336 01b1 76745F64 		.ascii	"vt_delta\000"
 2336      656C7461 
 2336      00
 2337              	.LASF41:
 2338 01ba 705F6D73 		.ascii	"p_msgqueue\000"
 2338      67717565 
 2338      756500
 2339              	.LASF97:
 2340 01c5 735F636E 		.ascii	"s_cnt\000"
 2340      7400
 2341              	.LASF123:
 2342 01cb 63633235 		.ascii	"cc2520/driver/util.c\000"
 2342      32302F64 
 2342      72697665 
 2342      722F7574 
 2342      696C2E63 
 2343              	.LASF3:
 2344 01e0 73686F72 		.ascii	"short unsigned int\000"
 2344      7420756E 
ARM GAS  /tmp/ccVhibFx.s 			page 44


 2344      7369676E 
 2344      65642069 
 2344      6E7400
 2345              	.LASF49:
 2346 01f3 63685F74 		.ascii	"ch_thread\000"
 2346      68726561 
 2346      6400
 2347              	.LASF23:
 2348 01fd 6D73675F 		.ascii	"msg_t\000"
 2348      7400
 2349              	.LASF115:
 2350 0203 6C617374 		.ascii	"last\000"
 2350      00
 2351              	.LASF75:
 2352 0208 63685F73 		.ascii	"ch_system_t\000"
 2352      79737465 
 2352      6D5F7400 
 2353              	.LASF18:
 2354 0214 746D6F64 		.ascii	"tmode_t\000"
 2354      655F7400 
 2355              	.LASF54:
 2356 021c 63685F72 		.ascii	"ch_ready_list\000"
 2356      65616479 
 2356      5F6C6973 
 2356      7400
 2357              	.LASF24:
 2358 022a 6576656E 		.ascii	"eventmask_t\000"
 2358      746D6173 
 2358      6B5F7400 
 2359              	.LASF5:
 2360 0236 5F5F696E 		.ascii	"__int32_t\000"
 2360      7433325F 
 2360      7400
 2361              	.LASF83:
 2362 0240 73746B61 		.ascii	"stkalign_t\000"
 2362      6C69676E 
 2362      5F7400
 2363              	.LASF48:
 2364 024b 74687265 		.ascii	"threads_list_t\000"
 2364      6164735F 
 2364      6C697374 
 2364      5F7400
 2365              	.LASF40:
 2366 025a 705F7761 		.ascii	"p_waiting\000"
 2366      6974696E 
 2366      6700
 2367              	.LASF81:
 2368 0264 73697A65 		.ascii	"sizetype\000"
 2368      74797065 
 2368      00
 2369              	.LASF47:
 2370 026d 74687265 		.ascii	"thread_reference_t\000"
 2370      61645F72 
 2370      65666572 
 2370      656E6365 
 2370      5F7400
 2371              	.LASF70:
ARM GAS  /tmp/ccVhibFx.s 			page 45


 2372 0280 63685F76 		.ascii	"ch_virtual_timers_list\000"
 2372      69727475 
 2372      616C5F74 
 2372      696D6572 
 2372      735F6C69 
 2373              	.LASF114:
 2374 0297 70466972 		.ascii	"pFirst\000"
 2374      737400
 2375              	.LASF105:
 2376 029e 75696E74 		.ascii	"uint8\000"
 2376      3800
 2377              	.LASF33:
 2378 02a4 705F6F6C 		.ascii	"p_older\000"
 2378      64657200 
 2379              	.LASF57:
 2380 02ac 725F6374 		.ascii	"r_ctx\000"
 2380      7800
 2381              	.LASF87:
 2382 02b2 746D5F63 		.ascii	"tm_calibration_t\000"
 2382      616C6962 
 2382      72617469 
 2382      6F6E5F74 
 2382      00
 2383              	.LASF60:
 2384 02c3 725F6375 		.ascii	"r_current\000"
 2384      7272656E 
 2384      7400
 2385              	.LASF59:
 2386 02cd 725F6F6C 		.ascii	"r_older\000"
 2386      64657200 
 2387              	.LASF10:
 2388 02d5 5F5F7569 		.ascii	"__uint64_t\000"
 2388      6E743634 
 2388      5F7400
 2389              	.LASF20:
 2390 02e0 74726566 		.ascii	"trefs_t\000"
 2390      735F7400 
 2391              	.LASF62:
 2392 02e8 76697274 		.ascii	"virtual_timer_t\000"
 2392      75616C5F 
 2392      74696D65 
 2392      725F7400 
 2393              	.LASF29:
 2394 02f8 705F7072 		.ascii	"p_prev\000"
 2394      657600
 2395              	.LASF22:
 2396 02ff 74707269 		.ascii	"tprio_t\000"
 2396      6F5F7400 
 2397              	.LASF124:
 2398 0307 2F686F6D 		.ascii	"/home/benjamin/Skrivbord/SP-RCCar/Embedded/Mote/\000"
 2398      652F6265 
 2398      6E6A616D 
 2398      696E2F53 
 2398      6B726976 
 2399              	.LASF73:
 2400 0338 63685F73 		.ascii	"ch_system_debug\000"
 2400      79737465 
ARM GAS  /tmp/ccVhibFx.s 			page 46


 2400      6D5F6465 
 2400      62756700 
 2401              	.LASF104:
 2402 0348 5F426F6F 		.ascii	"_Bool\000"
 2402      6C00
 2403              	.LASF14:
 2404 034e 696E7433 		.ascii	"int32_t\000"
 2404      325F7400 
 2405              	.LASF1:
 2406 0356 756E7369 		.ascii	"unsigned char\000"
 2406      676E6564 
 2406      20636861 
 2406      7200
 2407              	.LASF44:
 2408 0364 705F6D74 		.ascii	"p_mtxlist\000"
 2408      786C6973 
 2408      7400
 2409              	.LASF2:
 2410 036e 73686F72 		.ascii	"short int\000"
 2410      7420696E 
 2410      7400
 2411              	.LASF35:
 2412 0378 705F7374 		.ascii	"p_state\000"
 2412      61746500 
 2413              	.LASF38:
 2414 0380 705F7072 		.ascii	"p_preempt\000"
 2414      65656D70 
 2414      7400
 2415              	.LASF108:
 2416 038a 636F6E76 		.ascii	"convInt32ToText\000"
 2416      496E7433 
 2416      32546F54 
 2416      65787400 
 2417              	.LASF56:
 2418 039a 725F7072 		.ascii	"r_prio\000"
 2418      696F00
 2419              	.LASF94:
 2420 03a1 65776D61 		.ascii	"ewmask\000"
 2420      736B00
 2421              	.LASF28:
 2422 03a8 705F6E65 		.ascii	"p_next\000"
 2422      787400
 2423              	.LASF116:
 2424 03af 6E656761 		.ascii	"negative\000"
 2424      74697665 
 2424      00
 2425              	.LASF63:
 2426 03b8 63685F76 		.ascii	"ch_virtual_timer\000"
 2426      69727475 
 2426      616C5F74 
 2426      696D6572 
 2426      00
 2427              	.LASF95:
 2428 03c9 63685F73 		.ascii	"ch_semaphore\000"
 2428      656D6170 
 2428      686F7265 
 2428      00
ARM GAS  /tmp/ccVhibFx.s 			page 47


 2429              	.LASF43:
 2430 03d6 705F6570 		.ascii	"p_epending\000"
 2430      656E6469 
 2430      6E6700
 2431              	.LASF15:
 2432 03e1 75696E74 		.ascii	"uint32_t\000"
 2432      33325F74 
 2432      00
 2433              	.LASF93:
 2434 03ea 77746D74 		.ascii	"wtmtxp\000"
 2434      787000
 2435              	.LASF55:
 2436 03f1 725F7175 		.ascii	"r_queue\000"
 2436      65756500 
 2437              	.LASF50:
 2438 03f9 63685F74 		.ascii	"ch_threads_list\000"
 2438      68726561 
 2438      64735F6C 
 2438      69737400 
 2439              	.LASF8:
 2440 0409 6C6F6E67 		.ascii	"long unsigned int\000"
 2440      20756E73 
 2440      69676E65 
 2440      6420696E 
 2440      7400
 2441              	.LASF118:
 2442 041b 6C656E67 		.ascii	"length\000"
 2442      746800
 2443              	.LASF102:
 2444 0422 63686172 		.ascii	"char\000"
 2444      00
 2445              	.LASF122:
 2446 0427 474E5520 		.ascii	"GNU C 4.9.3 20150529 (release) [ARM/embedded-4_9-br"
 2446      4320342E 
 2446      392E3320 
 2446      32303135 
 2446      30353239 
 2447 045a 616E6368 		.ascii	"anch revision 227977] -mcpu=cortex-m4 -mfloat-abi=h"
 2447      20726576 
 2447      6973696F 
 2447      6E203232 
 2447      37393737 
 2448 048d 61726420 		.ascii	"ard -mfpu=fpv4-sp-d16 -mno-thumb-interwork -mthumb "
 2448      2D6D6670 
 2448      753D6670 
 2448      76342D73 
 2448      702D6431 
 2449 04c0 2D676764 		.ascii	"-ggdb -O2 -std=gnu99 -fomit-frame-pointer -falign-f"
 2449      62202D4F 
 2449      32202D73 
 2449      74643D67 
 2449      6E753939 
 2450 04f3 756E6374 		.ascii	"unctions=16 -ffunction-sections -fdata-sections -fn"
 2450      696F6E73 
 2450      3D313620 
 2450      2D666675 
 2450      6E637469 
ARM GAS  /tmp/ccVhibFx.s 			page 48


 2451 0526 6F2D636F 		.ascii	"o-common -fsingle-precision-constant\000"
 2451      6D6D6F6E 
 2451      202D6673 
 2451      696E676C 
 2451      652D7072 
 2452              	.LASF101:
 2453 054b 6D5F6E65 		.ascii	"m_next\000"
 2453      787400
 2454              	.LASF26:
 2455 0552 73797374 		.ascii	"systime_t\000"
 2455      696D655F 
 2455      7400
 2456              	.LASF45:
 2457 055c 705F7265 		.ascii	"p_realprio\000"
 2457      616C7072 
 2457      696F00
 2458              	.LASF61:
 2459 0567 76746675 		.ascii	"vtfunc_t\000"
 2459      6E635F74 
 2459      00
 2460              	.LASF7:
 2461 0570 5F5F7569 		.ascii	"__uint32_t\000"
 2461      6E743332 
 2461      5F7400
 2462              	.LASF74:
 2463 057b 70616E69 		.ascii	"panic_msg\000"
 2463      635F6D73 
 2463      6700
 2464              	.LASF117:
 2465 0585 70427566 		.ascii	"pBuf\000"
 2465      00
 2466              	.LASF86:
 2467 058a 6F666673 		.ascii	"offset\000"
 2467      657400
 2468              	.LASF84:
 2469 0591 636F6E74 		.ascii	"context\000"
 2469      65787400 
 2470              	.LASF109:
 2471 0599 63686970 		.ascii	"chipID\000"
 2471      494400
 2472              	.LASF17:
 2473 05a0 7274636E 		.ascii	"rtcnt_t\000"
 2473      745F7400 
 2474              	.LASF68:
 2475 05a8 76745F70 		.ascii	"vt_par\000"
 2475      617200
 2476              	.LASF111:
 2477 05af 737A4964 		.ascii	"szId\000"
 2477      00
 2478              	.LASF51:
 2479 05b4 74687265 		.ascii	"threads_queue_t\000"
 2479      6164735F 
 2479      71756575 
 2479      655F7400 
 2480              	.LASF98:
 2481 05c4 63685F6D 		.ascii	"ch_mutex\000"
 2481      75746578 
ARM GAS  /tmp/ccVhibFx.s 			page 49


 2481      00
 2482              	.LASF37:
 2483 05cd 705F7265 		.ascii	"p_refs\000"
 2483      667300
 2484              	.LASF27:
 2485 05d4 74687265 		.ascii	"thread_t\000"
 2485      61645F74 
 2485      00
 2486              	.LASF77:
 2487 05dd 726C6973 		.ascii	"rlist\000"
 2487      7400
 2488              	.LASF13:
 2489 05e3 75696E74 		.ascii	"uint8_t\000"
 2489      385F7400 
 2490              	.LASF90:
 2491 05eb 77746F62 		.ascii	"wtobjp\000"
 2491      6A7000
 2492              	.LASF34:
 2493 05f2 705F6E61 		.ascii	"p_name\000"
 2493      6D6500
 2494              	.LASF71:
 2495 05f9 76745F73 		.ascii	"vt_systime\000"
 2495      79737469 
 2495      6D6500
 2496              	.LASF36:
 2497 0604 705F666C 		.ascii	"p_flags\000"
 2497      61677300 
 2498              	.LASF42:
 2499 060c 705F6D73 		.ascii	"p_msg\000"
 2499      6700
 2500              	.LASF125:
 2501 0612 7574696C 		.ascii	"utilReverseBuf\000"
 2501      52657665 
 2501      72736542 
 2501      756600
 2502              	.LASF100:
 2503 0621 6D5F6F77 		.ascii	"m_owner\000"
 2503      6E657200 
 2504              	.LASF31:
 2505 0629 705F6374 		.ascii	"p_ctx\000"
 2505      7800
 2506              	.LASF67:
 2507 062f 76745F66 		.ascii	"vt_func\000"
 2507      756E6300 
 2508              		.ident	"GCC: (GNU Tools for ARM Embedded Processors) 4.9.3 20150529 (release) [ARM/embedded-4_9-br
ARM GAS  /tmp/ccVhibFx.s 			page 50


DEFINED SYMBOLS
                            *ABS*:0000000000000000 util.c
     /tmp/ccVhibFx.s:21     .text.utilChipIdToStr:0000000000000000 $t
     /tmp/ccVhibFx.s:27     .text.utilChipIdToStr:0000000000000000 utilChipIdToStr
     /tmp/ccVhibFx.s:144    .text.utilChipIdToStr:000000000000005c $d
     /tmp/ccVhibFx.s:159    .text.convInt32ToText:0000000000000000 $t
     /tmp/ccVhibFx.s:165    .text.convInt32ToText:0000000000000000 convInt32ToText
     /tmp/ccVhibFx.s:265    .text.convInt32ToText:0000000000000064 $d
     /tmp/ccVhibFx.s:271    .text.min:0000000000000000 $t
     /tmp/ccVhibFx.s:277    .text.min:0000000000000000 min
     /tmp/ccVhibFx.s:295    .text.utilReverseBuf:0000000000000000 $t
     /tmp/ccVhibFx.s:301    .text.utilReverseBuf:0000000000000000 utilReverseBuf
     /tmp/ccVhibFx.s:338    .rodata.str1.4:0000000000000000 $d
     /tmp/ccVhibFx.s:372    .bss.pValueToTextBuffer.8183:0000000000000000 $d
     /tmp/ccVhibFx.s:376    .bss.pValueToTextBuffer.8183:0000000000000000 pValueToTextBuffer.8183
                     .debug_frame:0000000000000010 $d

NO UNDEFINED SYMBOLS
