ARM GAS  /tmp/ccVhibFx.s 			page 1


   1              		.syntax unified
   2              		.cpu cortex-m4
   3              		.eabi_attribute 27, 1
   4              		.eabi_attribute 28, 1
   5              		.fpu fpv4-sp-d16
   6              		.eabi_attribute 20, 1
   7              		.eabi_attribute 21, 1
   8              		.eabi_attribute 23, 3
   9              		.eabi_attribute 24, 1
  10              		.eabi_attribute 25, 1
  11              		.eabi_attribute 26, 1
  12              		.eabi_attribute 30, 2
  13              		.eabi_attribute 34, 1
  14              		.eabi_attribute 18, 4
  15              		.thumb
  16              		.file	"util.c"
  17              		.text
  18              	.Ltext0:
  19              		.cfi_sections	.debug_frame
  20              		.section	.text.utilChipIdToStr,"ax",%progbits
  21              		.align	2
  22              		.p2align 4,,15
  23              		.global	utilChipIdToStr
  24              		.thumb
  25              		.thumb_func
  26              		.type	utilChipIdToStr, %function
  27              	utilChipIdToStr:
  28              	.LFB256:
  29              		.file 1 "cc2520/driver/util.c"
  30              		.loc 1 30 0
  31              		.cfi_startproc
  32              		@ args = 0, pretend = 0, frame = 0
  33              		@ frame_needed = 0, uses_anonymous_args = 0
  34              		@ link register save eliminated.
  35              	.LVL0:
  36              		.loc 1 33 0
  37 0000 8428     		cmp	r0, #132
  38 0002 28D0     		beq	.L3
  39 0004 08D9     		bls	.L18
  40 0006 9128     		cmp	r0, #145
  41 0008 23D0     		beq	.L10
  42 000a 0ED8     		bhi	.L11
  43 000c 8528     		cmp	r0, #133
  44 000e 16D0     		beq	.L12
  45 0010 8928     		cmp	r0, #137
  46 0012 1AD1     		bne	.L2
  47              	.LVL1:
  48              		.loc 1 41 0
  49 0014 1148     		ldr	r0, .L20
  50              	.LVL2:
  51              		.loc 1 42 0
  52 0016 7047     		bx	lr
  53              	.LVL3:
  54              	.L18:
  55              		.loc 1 33 0
  56 0018 0228     		cmp	r0, #2
  57 001a 18D0     		beq	.L16
ARM GAS  /tmp/ccVhibFx.s 			page 2


  58 001c 11D9     		bls	.L19
  59 001e 1128     		cmp	r0, #17
  60 0020 09D0     		beq	.L8
  61 0022 8128     		cmp	r0, #129
  62 0024 11D1     		bne	.L2
  63              	.LVL4:
  64              		.loc 1 53 0
  65 0026 0E48     		ldr	r0, .L20+4
  66              	.LVL5:
  67              		.loc 1 54 0
  68 0028 7047     		bx	lr
  69              	.LVL6:
  70              	.L11:
  71              		.loc 1 33 0
  72 002a A528     		cmp	r0, #165
  73 002c 05D0     		beq	.L14
  74 002e B528     		cmp	r0, #181
  75 0030 0BD1     		bne	.L2
  76              	.LVL7:
  77              		.loc 1 50 0
  78 0032 0C48     		ldr	r0, .L20+8
  79              	.LVL8:
  80              		.loc 1 51 0
  81 0034 7047     		bx	lr
  82              	.LVL9:
  83              	.L8:
  84              		.loc 1 62 0
  85 0036 0C48     		ldr	r0, .L20+12
  86              	.LVL10:
  87              		.loc 1 63 0
  88 0038 7047     		bx	lr
  89              	.LVL11:
  90              	.L14:
  91              		.loc 1 47 0
  92 003a 0C48     		ldr	r0, .L20+16
  93              	.LVL12:
  94              		.loc 1 48 0
  95 003c 7047     		bx	lr
  96              	.LVL13:
  97              	.L12:
  98              		.loc 1 38 0
  99 003e 0C48     		ldr	r0, .L20+20
 100              	.LVL14:
 101 0040 7047     		bx	lr
 102              	.LVL15:
 103              	.L19:
 104              		.loc 1 33 0
 105 0042 0128     		cmp	r0, #1
 106 0044 01D1     		bne	.L2
 107              	.LVL16:
 108              		.loc 1 59 0
 109 0046 0B48     		ldr	r0, .L20+24
 110              	.LVL17:
 111              		.loc 1 60 0
 112 0048 7047     		bx	lr
 113              	.LVL18:
 114              	.L2:
ARM GAS  /tmp/ccVhibFx.s 			page 3


 115              		.loc 1 65 0
 116 004a 0B48     		ldr	r0, .L20+28
 117              	.LVL19:
 118              		.loc 1 66 0
 119 004c 7047     		bx	lr
 120              	.LVL20:
 121              	.L16:
 122              		.loc 1 35 0
 123 004e 0B48     		ldr	r0, .L20+32
 124              	.LVL21:
 125              		.loc 1 70 0
 126 0050 7047     		bx	lr
 127              	.LVL22:
 128              	.L10:
 129              		.loc 1 56 0
 130 0052 0B48     		ldr	r0, .L20+36
 131              	.LVL23:
 132              		.loc 1 57 0
 133 0054 7047     		bx	lr
 134              	.LVL24:
 135              	.L3:
 136              		.loc 1 44 0
 137 0056 0B48     		ldr	r0, .L20+40
 138              	.LVL25:
 139              		.loc 1 45 0
 140 0058 7047     		bx	lr
 141              	.L21:
 142 005a 00BF     		.align	2
 143              	.L20:
 144 005c 10000000 		.word	.LC2
 145 0060 30000000 		.word	.LC6
 146 0064 28000000 		.word	.LC5
 147 0068 48000000 		.word	.LC9
 148 006c 20000000 		.word	.LC4
 149 0070 08000000 		.word	.LC1
 150 0074 40000000 		.word	.LC8
 151 0078 50000000 		.word	.LC10
 152 007c 00000000 		.word	.LC0
 153 0080 38000000 		.word	.LC7
 154 0084 18000000 		.word	.LC3
 155              		.cfi_endproc
 156              	.LFE256:
 157              		.size	utilChipIdToStr, .-utilChipIdToStr
 158              		.section	.text.convInt32ToText,"ax",%progbits
 159              		.align	2
 160              		.p2align 4,,15
 161              		.global	convInt32ToText
 162              		.thumb
 163              		.thumb_func
 164              		.type	convInt32ToText, %function
 165              	convInt32ToText:
 166              	.LFB257:
 167              		.loc 1 82 0
 168              		.cfi_startproc
 169              		@ args = 0, pretend = 0, frame = 0
 170              		@ frame_needed = 0, uses_anonymous_args = 0
 171              		@ link register save eliminated.
ARM GAS  /tmp/ccVhibFx.s 			page 4


 172              	.LVL26:
 173 0000 70B4     		push	{r4, r5, r6}
 174              		.cfi_def_cfa_offset 12
 175              		.cfi_offset 4, -12
 176              		.cfi_offset 5, -8
 177              		.cfi_offset 6, -4
 178              		.loc 1 89 0
 179 0002 184E     		ldr	r6, .L33
 180              		.loc 1 97 0
 181 0004 184D     		ldr	r5, .L33+4
 182              		.loc 1 93 0
 183 0006 80EAE073 		eor	r3, r0, r0, asr #31
 184 000a A3EBE073 		sub	r3, r3, r0, asr #31
 185              	.LVL27:
 186              		.loc 1 89 0
 187 000e 3446     		mov	r4, r6
 188 0010 00E0     		b	.L23
 189              	.LVL28:
 190              	.L28:
 191 0012 0C46     		mov	r4, r1
 192              	.LVL29:
 193              	.L23:
 194              		.loc 1 97 0 discriminator 1
 195 0014 85FB0321 		smull	r2, r1, r5, r3
 196 0018 DA17     		asrs	r2, r3, #31
 197 001a C2EBA102 		rsb	r2, r2, r1, asr #2
 198 001e 02EB8201 		add	r1, r2, r2, lsl #2
 199 0022 A3EB4103 		sub	r3, r3, r1, lsl #1
 200              	.LVL30:
 201 0026 2146     		mov	r1, r4
 202              	.LVL31:
 203 0028 3033     		adds	r3, r3, #48
 204 002a 01F8013B 		strb	r3, [r1], #1
 205              		.loc 1 99 0 discriminator 1
 206 002e 1346     		mov	r3, r2
 207 0030 002A     		cmp	r2, #0
 208 0032 EED1     		bne	.L28
 209              		.loc 1 102 0
 210 0034 0028     		cmp	r0, #0
 211 0036 10DB     		blt	.L32
 212              	.LVL32:
 213              	.L24:
 214              		.loc 1 103 0
 215 0038 4B1E     		subs	r3, r1, #1
 216              	.LVL33:
 217 003a 0022     		movs	r2, #0
 218              	.LVL34:
 219              		.loc 1 107 0
 220 003c B342     		cmp	r3, r6
 221              		.loc 1 103 0
 222 003e 0A70     		strb	r2, [r1]
 223              	.LVL35:
 224              		.loc 1 107 0
 225 0040 08D9     		bls	.L30
 226 0042 084A     		ldr	r2, .L33
 227              	.LVL36:
 228              	.L26:
ARM GAS  /tmp/ccVhibFx.s 			page 5


 229              		.loc 1 108 0
 230 0044 1978     		ldrb	r1, [r3]	@ zero_extendqisi2
 231              	.LVL37:
 232              		.loc 1 109 0
 233 0046 1078     		ldrb	r0, [r2]	@ zero_extendqisi2
 234 0048 03F80109 		strb	r0, [r3], #-1
 235              	.LVL38:
 236              		.loc 1 110 0
 237 004c 02F8011B 		strb	r1, [r2], #1
 238              	.LVL39:
 239              		.loc 1 107 0
 240 0050 9342     		cmp	r3, r2
 241 0052 F7D8     		bhi	.L26
 242              	.LVL40:
 243              	.L30:
 244              		.loc 1 114 0
 245 0054 0348     		ldr	r0, .L33
 246 0056 70BC     		pop	{r4, r5, r6}
 247              		.cfi_remember_state
 248              		.cfi_restore 6
 249              		.cfi_restore 5
 250              		.cfi_restore 4
 251              		.cfi_def_cfa_offset 0
 252 0058 7047     		bx	lr
 253              	.LVL41:
 254              	.L32:
 255              		.cfi_restore_state
 256              		.loc 1 102 0 discriminator 1
 257 005a 2D23     		movs	r3, #45
 258 005c 6370     		strb	r3, [r4, #1]
 259 005e A11C     		adds	r1, r4, #2
 260              	.LVL42:
 261 0060 EAE7     		b	.L24
 262              	.L34:
 263 0062 00BF     		.align	2
 264              	.L33:
 265 0064 00000000 		.word	.LANCHOR0
 266 0068 67666666 		.word	1717986919
 267              		.cfi_endproc
 268              	.LFE257:
 269              		.size	convInt32ToText, .-convInt32ToText
 270              		.section	.text.min,"ax",%progbits
 271              		.align	2
 272              		.p2align 4,,15
 273              		.global	min
 274              		.thumb
 275              		.thumb_func
 276              		.type	min, %function
 277              	min:
 278              	.LFB258:
 279              		.loc 1 128 0
 280              		.cfi_startproc
 281              		@ args = 0, pretend = 0, frame = 0
 282              		@ frame_needed = 0, uses_anonymous_args = 0
 283              		@ link register save eliminated.
 284              	.LVL43:
 285              		.loc 1 132 0
ARM GAS  /tmp/ccVhibFx.s 			page 6


 286 0000 8842     		cmp	r0, r1
 287 0002 28BF     		it	cs
 288 0004 0846     		movcs	r0, r1
 289              	.LVL44:
 290 0006 7047     		bx	lr
 291              		.cfi_endproc
 292              	.LFE258:
 293              		.size	min, .-min
 294              		.section	.text.utilReverseBuf,"ax",%progbits
 295              		.align	2
 296              		.p2align 4,,15
 297              		.global	utilReverseBuf
 298              		.thumb
 299              		.thumb_func
 300              		.type	utilReverseBuf, %function
 301              	utilReverseBuf:
 302              	.LFB259:
 303              		.loc 1 145 0
 304              		.cfi_startproc
 305              		@ args = 0, pretend = 0, frame = 0
 306              		@ frame_needed = 0, uses_anonymous_args = 0
 307              		@ link register save eliminated.
 308              	.LVL45:
 309              		.loc 1 147 0
 310 0000 0139     		subs	r1, r1, #1
 311              	.LVL46:
 312 0002 0144     		add	r1, r1, r0
 313              	.LVL47:
 314              		.loc 1 149 0
 315 0004 8842     		cmp	r0, r1
 316 0006 07D2     		bcs	.L36
 317              	.L38:
 318              		.loc 1 150 0
 319 0008 0378     		ldrb	r3, [r0]	@ zero_extendqisi2
 320              	.LVL48:
 321              		.loc 1 151 0
 322 000a 0A78     		ldrb	r2, [r1]	@ zero_extendqisi2
 323 000c 00F8012B 		strb	r2, [r0], #1
 324              	.LVL49:
 325              		.loc 1 152 0
 326 0010 01F80139 		strb	r3, [r1], #-1
 327              	.LVL50:
 328              		.loc 1 149 0
 329 0014 8842     		cmp	r0, r1
 330 0016 F7D3     		bcc	.L38
 331              	.LVL51:
 332              	.L36:
 333 0018 7047     		bx	lr
 334              		.cfi_endproc
 335              	.LFE259:
 336              		.size	utilReverseBuf, .-utilReverseBuf
 337 001a 00BF     		.section	.rodata.str1.4,"aMS",%progbits,1
 338              		.align	2
 339              	.LC0:
 340 0000 32343230 		.ascii	"2420\000"
 340      00
 341 0005 000000   		.space	3
ARM GAS  /tmp/ccVhibFx.s 			page 7


 342              	.LC1:
 343 0008 32343330 		.ascii	"2430\000"
 343      00
 344 000d 000000   		.space	3
 345              	.LC2:
 346 0010 32343331 		.ascii	"2431\000"
 346      00
 347 0015 000000   		.space	3
 348              	.LC3:
 349 0018 32353230 		.ascii	"2520\000"
 349      00
 350 001d 000000   		.space	3
 351              	.LC4:
 352 0020 32353330 		.ascii	"2530\000"
 352      00
 353 0025 000000   		.space	3
 354              	.LC5:
 355 0028 32353331 		.ascii	"2531\000"
 355      00
 356 002d 000000   		.space	3
 357              	.LC6:
 358 0030 32353130 		.ascii	"2510\000"
 358      00
 359 0035 000000   		.space	3
 360              	.LC7:
 361 0038 32353131 		.ascii	"2511\000"
 361      00
 362 003d 000000   		.space	3
 363              	.LC8:
 364 0040 31313130 		.ascii	"1110\000"
 364      00
 365 0045 000000   		.space	3
 366              	.LC9:
 367 0048 31313131 		.ascii	"1111\000"
 367      00
 368 004d 000000   		.space	3
 369              	.LC10:
 370 0050 2D2D2D2D 		.ascii	"----\000"
 370      00
 371              		.section	.bss.pValueToTextBuffer.8183,"aw",%nobits
 372              		.align	2
 373              		.set	.LANCHOR0,. + 0
 374              		.type	pValueToTextBuffer.8183, %object
 375              		.size	pValueToTextBuffer.8183, 12
 376              	pValueToTextBuffer.8183:
 377 0000 00000000 		.space	12
 377      00000000 
 377      00000000 
 378              		.text
 379              	.Letext0:
 380              		.file 2 "/usr/arm-none-eabi/include/machine/_default_types.h"
 381              		.file 3 "/usr/arm-none-eabi/include/sys/_stdint.h"
 382              		.file 4 "ChibiOS_3.0.2/os/rt/ports/ARMCMx/compilers/GCC/chtypes.h"
 383              		.file 5 "ChibiOS_3.0.2/os/rt/include/chsystypes.h"
 384              		.file 6 "ChibiOS_3.0.2/os/rt/include/chschd.h"
 385              		.file 7 "ChibiOS_3.0.2/os/rt/ports/ARMCMx/chcore.h"
 386              		.file 8 "ChibiOS_3.0.2/os/rt/ports/ARMCMx/chcore_v7m.h"
ARM GAS  /tmp/ccVhibFx.s 			page 8


 387              		.file 9 "ChibiOS_3.0.2/os/rt/include/chtm.h"
 388              		.file 10 "ChibiOS_3.0.2/os/rt/include/chsem.h"
 389              		.file 11 "ChibiOS_3.0.2/os/rt/include/chmtx.h"
 390              		.file 12 "cc2520/driver/hal_types.h"
 391              		.file 13 "ChibiOS_3.0.2/os/ext/CMSIS/include/core_cm4.h"